; ModuleID = '/home/pedro/tcc/exDataset/codenet/data/selection/p00140/s807001801.ll'
source_filename = "/home/pedro/tcc/exDataset/codenet/data/selection/p00140/s807001801.cpp"
target datalayout = "e-m:e-i64:64-f80:128-n8:16:32:64-S128"
target triple = "x86_64-pc-linux-gnu"

%"class.std::ios_base::Init" = type { i8 }
%"class.std::basic_istream" = type { i32 (...)**, i64, %"class.std::basic_ios" }
%"class.std::basic_ios" = type { %"class.std::ios_base", %"class.std::basic_ostream"*, i8, i8, %"class.std::basic_streambuf"*, %"class.std::ctype"*, %"class.std::num_put"*, %"class.std::num_get"* }
%"class.std::ios_base" = type { i32 (...)**, i64, i64, i32, i32, i32, %"struct.std::ios_base::_Callback_list"*, %"struct.std::ios_base::_Words", [8 x %"struct.std::ios_base::_Words"], i32, %"struct.std::ios_base::_Words"*, %"class.std::locale" }
%"struct.std::ios_base::_Callback_list" = type { %"struct.std::ios_base::_Callback_list"*, void (i32, %"class.std::ios_base"*, i32)*, i32, i32 }
%"struct.std::ios_base::_Words" = type { i8*, i64 }
%"class.std::locale" = type { %"class.std::locale::_Impl"* }
%"class.std::locale::_Impl" = type { i32, %"class.std::locale::facet"**, i64, %"class.std::locale::facet"**, i8** }
%"class.std::locale::facet" = type <{ i32 (...)**, i32, [4 x i8] }>
%"class.std::basic_ostream" = type { i32 (...)**, %"class.std::basic_ios" }
%"class.std::basic_streambuf" = type { i32 (...)**, i8*, i8*, i8*, i8*, i8*, i8*, %"class.std::locale" }
%"class.std::ctype" = type <{ %"class.std::locale::facet.base", [4 x i8], %struct.__locale_struct*, i8, [7 x i8], i32*, i32*, i16*, i8, [256 x i8], [256 x i8], i8, [6 x i8] }>
%"class.std::locale::facet.base" = type <{ i32 (...)**, i32 }>
%struct.__locale_struct = type { [13 x %struct.__locale_data*], i16*, i32*, i32*, [13 x i8*] }
%struct.__locale_data = type opaque
%"class.std::num_put" = type { %"class.std::locale::facet.base", [4 x i8] }
%"class.std::num_get" = type { %"class.std::locale::facet.base", [4 x i8] }

@_ZStL8__ioinit = internal global %"class.std::ios_base::Init" zeroinitializer, align 1
@__dso_handle = external hidden global i8
@_ZSt3cin = external global %"class.std::basic_istream", align 8
@_ZSt4cout = external global %"class.std::basic_ostream", align 8
@.str = private unnamed_addr constant [2 x i8] c" \00", align 1
@llvm.global_ctors = appending global [1 x { i32, void ()*, i8* }] [{ i32, void ()*, i8* } { i32 65535, void ()* @_GLOBAL__sub_I_s807001801.cpp, i8* null }]

; Function Attrs: noinline uwtable
define internal void @__cxx_global_var_init() #0 section ".text.startup" {
  call void @_ZNSt8ios_base4InitC1Ev(%"class.std::ios_base::Init"* @_ZStL8__ioinit)
  %1 = call i32 @__cxa_atexit(void (i8*)* bitcast (void (%"class.std::ios_base::Init"*)* @_ZNSt8ios_base4InitD1Ev to void (i8*)*), i8* getelementptr inbounds (%"class.std::ios_base::Init", %"class.std::ios_base::Init"* @_ZStL8__ioinit, i32 0, i32 0), i8* @__dso_handle) #3
  ret void
}

declare void @_ZNSt8ios_base4InitC1Ev(%"class.std::ios_base::Init"*) unnamed_addr #1

; Function Attrs: nounwind
declare void @_ZNSt8ios_base4InitD1Ev(%"class.std::ios_base::Init"*) unnamed_addr #2

; Function Attrs: nounwind
declare i32 @__cxa_atexit(void (i8*)*, i8*, i8*) #3

; Function Attrs: noinline norecurse uwtable
define i32 @main() #4 {
  %1 = alloca i32, align 4
  %2 = alloca i32, align 4
  %3 = alloca i32, align 4
  %4 = call dereferenceable(280) %"class.std::basic_istream"* @_ZNSirsERi(%"class.std::basic_istream"* @_ZSt3cin, i32* dereferenceable(4) %1)
  br label %5

5:                                                ; preds = %117, %0
  %6 = load i32, i32* %1, align 4
  %7 = add nsw i32 %6, -1
  store i32 %7, i32* %1, align 4
  %8 = icmp ne i32 %6, 0
  br i1 %8, label %9, label %118

9:                                                ; preds = %5
  %10 = call dereferenceable(280) %"class.std::basic_istream"* @_ZNSirsERi(%"class.std::basic_istream"* @_ZSt3cin, i32* dereferenceable(4) %2)
  %11 = call dereferenceable(280) %"class.std::basic_istream"* @_ZNSirsERi(%"class.std::basic_istream"* %10, i32* dereferenceable(4) %3)
  %12 = load i32, i32* %2, align 4
  %13 = icmp sge i32 %12, 6
  br i1 %13, label %14, label %82

14:                                               ; preds = %9
  %15 = load i32, i32* %2, align 4
  %16 = icmp sle i32 %15, 9
  br i1 %16, label %17, label %82

17:                                               ; preds = %14
  %18 = load i32, i32* %3, align 4
  %19 = load i32, i32* %2, align 4
  %20 = icmp sge i32 %18, %19
  br i1 %20, label %21, label %36

21:                                               ; preds = %17
  %22 = load i32, i32* %2, align 4
  br label %23

23:                                               ; preds = %32, %21
  %.02 = phi i32 [ %22, %21 ], [ %33, %32 ]
  %.01 = phi i8 [ 0, %21 ], [ 1, %32 ]
  %24 = load i32, i32* %3, align 4
  %25 = icmp sle i32 %.02, %24
  br i1 %25, label %26, label %34

26:                                               ; preds = %23
  %27 = trunc i8 %.01 to i1
  br i1 %27, label %28, label %30

28:                                               ; preds = %26
  %29 = call dereferenceable(272) %"class.std::basic_ostream"* @_ZStlsISt11char_traitsIcEERSt13basic_ostreamIcT_ES5_PKc(%"class.std::basic_ostream"* dereferenceable(272) @_ZSt4cout, i8* getelementptr inbounds ([2 x i8], [2 x i8]* @.str, i32 0, i32 0))
  br label %30

30:                                               ; preds = %28, %26
  %31 = call dereferenceable(272) %"class.std::basic_ostream"* @_ZNSolsEi(%"class.std::basic_ostream"* @_ZSt4cout, i32 %.02)
  br label %32

32:                                               ; preds = %30
  %33 = add nsw i32 %.02, 1
  br label %23

34:                                               ; preds = %23
  %35 = call dereferenceable(272) %"class.std::basic_ostream"* @_ZNSolsEPFRSoS_E(%"class.std::basic_ostream"* @_ZSt4cout, %"class.std::basic_ostream"* (%"class.std::basic_ostream"*)* @_ZSt4endlIcSt11char_traitsIcEERSt13basic_ostreamIT_T0_ES6_)
  br label %118

36:                                               ; preds = %17
  %37 = load i32, i32* %2, align 4
  br label %38

38:                                               ; preds = %46, %36
  %.03 = phi i32 [ %37, %36 ], [ %47, %46 ]
  %.1 = phi i8 [ 0, %36 ], [ 1, %46 ]
  %39 = icmp sle i32 %.03, 9
  br i1 %39, label %40, label %48

40:                                               ; preds = %38
  %41 = trunc i8 %.1 to i1
  br i1 %41, label %42, label %44

42:                                               ; preds = %40
  %43 = call dereferenceable(272) %"class.std::basic_ostream"* @_ZStlsISt11char_traitsIcEERSt13basic_ostreamIcT_ES5_PKc(%"class.std::basic_ostream"* dereferenceable(272) @_ZSt4cout, i8* getelementptr inbounds ([2 x i8], [2 x i8]* @.str, i32 0, i32 0))
  br label %44

44:                                               ; preds = %42, %40
  %45 = call dereferenceable(272) %"class.std::basic_ostream"* @_ZNSolsEi(%"class.std::basic_ostream"* @_ZSt4cout, i32 %.03)
  br label %46

46:                                               ; preds = %44
  %47 = add nsw i32 %.03, 1
  br label %38

48:                                               ; preds = %38
  %49 = load i32, i32* %3, align 4
  %50 = icmp sge i32 %49, 6
  br i1 %50, label %51, label %80

51:                                               ; preds = %48
  %52 = load i32, i32* %2, align 4
  %53 = load i32, i32* %3, align 4
  %54 = icmp sgt i32 %52, %53
  br i1 %54, label %55, label %80

55:                                               ; preds = %51
  br label %56

56:                                               ; preds = %64, %55
  %.04 = phi i32 [ 5, %55 ], [ %65, %64 ]
  %.2 = phi i8 [ %.1, %55 ], [ 1, %64 ]
  %57 = icmp sgt i32 %.04, 0
  br i1 %57, label %58, label %66

58:                                               ; preds = %56
  %59 = trunc i8 %.2 to i1
  br i1 %59, label %60, label %62

60:                                               ; preds = %58
  %61 = call dereferenceable(272) %"class.std::basic_ostream"* @_ZStlsISt11char_traitsIcEERSt13basic_ostreamIcT_ES5_PKc(%"class.std::basic_ostream"* dereferenceable(272) @_ZSt4cout, i8* getelementptr inbounds ([2 x i8], [2 x i8]* @.str, i32 0, i32 0))
  br label %62

62:                                               ; preds = %60, %58
  %63 = call dereferenceable(272) %"class.std::basic_ostream"* @_ZNSolsEi(%"class.std::basic_ostream"* @_ZSt4cout, i32 %.04)
  br label %64

64:                                               ; preds = %62
  %65 = add nsw i32 %.04, -1
  br label %56

66:                                               ; preds = %56
  br label %67

67:                                               ; preds = %76, %66
  %.05 = phi i32 [ 0, %66 ], [ %77, %76 ]
  %.3 = phi i8 [ %.2, %66 ], [ 1, %76 ]
  %68 = load i32, i32* %3, align 4
  %69 = icmp sle i32 %.05, %68
  br i1 %69, label %70, label %78

70:                                               ; preds = %67
  %71 = trunc i8 %.3 to i1
  br i1 %71, label %72, label %74

72:                                               ; preds = %70
  %73 = call dereferenceable(272) %"class.std::basic_ostream"* @_ZStlsISt11char_traitsIcEERSt13basic_ostreamIcT_ES5_PKc(%"class.std::basic_ostream"* dereferenceable(272) @_ZSt4cout, i8* getelementptr inbounds ([2 x i8], [2 x i8]* @.str, i32 0, i32 0))
  br label %74

74:                                               ; preds = %72, %70
  %75 = call dereferenceable(272) %"class.std::basic_ostream"* @_ZNSolsEi(%"class.std::basic_ostream"* @_ZSt4cout, i32 %.05)
  br label %76

76:                                               ; preds = %74
  %77 = add nsw i32 %.05, 1
  br label %67

78:                                               ; preds = %67
  %79 = call dereferenceable(272) %"class.std::basic_ostream"* @_ZNSolsEPFRSoS_E(%"class.std::basic_ostream"* @_ZSt4cout, %"class.std::basic_ostream"* (%"class.std::basic_ostream"*)* @_ZSt4endlIcSt11char_traitsIcEERSt13basic_ostreamIT_T0_ES6_)
  br label %118

80:                                               ; preds = %51, %48
  store i32 5, i32* %2, align 4
  br label %81

81:                                               ; preds = %80
  br label %82

82:                                               ; preds = %81, %14, %9
  %.4 = phi i8 [ %.1, %81 ], [ 0, %14 ], [ 0, %9 ]
  %83 = load i32, i32* %3, align 4
  %84 = load i32, i32* %2, align 4
  %85 = sub nsw i32 %83, %84
  %86 = icmp sgt i32 %85, 0
  br i1 %86, label %87, label %102

87:                                               ; preds = %82
  %88 = load i32, i32* %2, align 4
  br label %89

89:                                               ; preds = %98, %87
  %.06 = phi i32 [ %88, %87 ], [ %99, %98 ]
  %.5 = phi i8 [ %.4, %87 ], [ 1, %98 ]
  %90 = load i32, i32* %3, align 4
  %91 = icmp sle i32 %.06, %90
  br i1 %91, label %92, label %100

92:                                               ; preds = %89
  %93 = trunc i8 %.5 to i1
  br i1 %93, label %94, label %96

94:                                               ; preds = %92
  %95 = call dereferenceable(272) %"class.std::basic_ostream"* @_ZStlsISt11char_traitsIcEERSt13basic_ostreamIcT_ES5_PKc(%"class.std::basic_ostream"* dereferenceable(272) @_ZSt4cout, i8* getelementptr inbounds ([2 x i8], [2 x i8]* @.str, i32 0, i32 0))
  br label %96

96:                                               ; preds = %94, %92
  %97 = call dereferenceable(272) %"class.std::basic_ostream"* @_ZNSolsEi(%"class.std::basic_ostream"* @_ZSt4cout, i32 %.06)
  br label %98

98:                                               ; preds = %96
  %99 = add nsw i32 %.06, 1
  br label %89

100:                                              ; preds = %89
  %101 = call dereferenceable(272) %"class.std::basic_ostream"* @_ZNSolsEPFRSoS_E(%"class.std::basic_ostream"* @_ZSt4cout, %"class.std::basic_ostream"* (%"class.std::basic_ostream"*)* @_ZSt4endlIcSt11char_traitsIcEERSt13basic_ostreamIT_T0_ES6_)
  br label %117

102:                                              ; preds = %82
  %103 = load i32, i32* %2, align 4
  br label %104

104:                                              ; preds = %113, %102
  %.07 = phi i32 [ %103, %102 ], [ %114, %113 ]
  %.6 = phi i8 [ %.4, %102 ], [ 1, %113 ]
  %105 = load i32, i32* %3, align 4
  %106 = icmp sge i32 %.07, %105
  br i1 %106, label %107, label %115

107:                                              ; preds = %104
  %108 = trunc i8 %.6 to i1
  br i1 %108, label %109, label %111

109:                                              ; preds = %107
  %110 = call dereferenceable(272) %"class.std::basic_ostream"* @_ZStlsISt11char_traitsIcEERSt13basic_ostreamIcT_ES5_PKc(%"class.std::basic_ostream"* dereferenceable(272) @_ZSt4cout, i8* getelementptr inbounds ([2 x i8], [2 x i8]* @.str, i32 0, i32 0))
  br label %111

111:                                              ; preds = %109, %107
  %112 = call dereferenceable(272) %"class.std::basic_ostream"* @_ZNSolsEi(%"class.std::basic_ostream"* @_ZSt4cout, i32 %.07)
  br label %113

113:                                              ; preds = %111
  %114 = add nsw i32 %.07, -1
  br label %104

115:                                              ; preds = %104
  %116 = call dereferenceable(272) %"class.std::basic_ostream"* @_ZNSolsEPFRSoS_E(%"class.std::basic_ostream"* @_ZSt4cout, %"class.std::basic_ostream"* (%"class.std::basic_ostream"*)* @_ZSt4endlIcSt11char_traitsIcEERSt13basic_ostreamIT_T0_ES6_)
  br label %117

117:                                              ; preds = %115, %100
  br label %5

118:                                              ; preds = %78, %34, %5
  ret i32 0
}

declare dereferenceable(280) %"class.std::basic_istream"* @_ZNSirsERi(%"class.std::basic_istream"*, i32* dereferenceable(4)) #1

declare dereferenceable(272) %"class.std::basic_ostream"* @_ZStlsISt11char_traitsIcEERSt13basic_ostreamIcT_ES5_PKc(%"class.std::basic_ostream"* dereferenceable(272), i8*) #1

declare dereferenceable(272) %"class.std::basic_ostream"* @_ZNSolsEi(%"class.std::basic_ostream"*, i32) #1

declare dereferenceable(272) %"class.std::basic_ostream"* @_ZNSolsEPFRSoS_E(%"class.std::basic_ostream"*, %"class.std::basic_ostream"* (%"class.std::basic_ostream"*)*) #1

declare dereferenceable(272) %"class.std::basic_ostream"* @_ZSt4endlIcSt11char_traitsIcEERSt13basic_ostreamIT_T0_ES6_(%"class.std::basic_ostream"* dereferenceable(272)) #1

; Function Attrs: noinline uwtable
define internal void @_GLOBAL__sub_I_s807001801.cpp() #0 section ".text.startup" {
  call void @__cxx_global_var_init()
  ret void
}

attributes #0 = { noinline uwtable "correctly-rounded-divide-sqrt-fp-math"="false" "disable-tail-calls"="false" "less-precise-fpmad"="false" "no-frame-pointer-elim"="true" "no-frame-pointer-elim-non-leaf" "no-infs-fp-math"="false" "no-jump-tables"="false" "no-nans-fp-math"="false" "no-signed-zeros-fp-math"="false" "no-trapping-math"="false" "stack-protector-buffer-size"="8" "target-cpu"="x86-64" "target-features"="+fxsr,+mmx,+sse,+sse2,+x87" "unsafe-fp-math"="false" "use-soft-float"="false" }
attributes #1 = { "correctly-rounded-divide-sqrt-fp-math"="false" "disable-tail-calls"="false" "less-precise-fpmad"="false" "no-frame-pointer-elim"="true" "no-frame-pointer-elim-non-leaf" "no-infs-fp-math"="false" "no-nans-fp-math"="false" "no-signed-zeros-fp-math"="false" "no-trapping-math"="false" "stack-protector-buffer-size"="8" "target-cpu"="x86-64" "target-features"="+fxsr,+mmx,+sse,+sse2,+x87" "unsafe-fp-math"="false" "use-soft-float"="false" }
attributes #2 = { nounwind "correctly-rounded-divide-sqrt-fp-math"="false" "disable-tail-calls"="false" "less-precise-fpmad"="false" "no-frame-pointer-elim"="true" "no-frame-pointer-elim-non-leaf" "no-infs-fp-math"="false" "no-nans-fp-math"="false" "no-signed-zeros-fp-math"="false" "no-trapping-math"="false" "stack-protector-buffer-size"="8" "target-cpu"="x86-64" "target-features"="+fxsr,+mmx,+sse,+sse2,+x87" "unsafe-fp-math"="false" "use-soft-float"="false" }
attributes #3 = { nounwind }
attributes #4 = { noinline norecurse uwtable "correctly-rounded-divide-sqrt-fp-math"="false" "disable-tail-calls"="false" "less-precise-fpmad"="false" "no-frame-pointer-elim"="true" "no-frame-pointer-elim-non-leaf" "no-infs-fp-math"="false" "no-jump-tables"="false" "no-nans-fp-math"="false" "no-signed-zeros-fp-math"="false" "no-trapping-math"="false" "stack-protector-buffer-size"="8" "target-cpu"="x86-64" "target-features"="+fxsr,+mmx,+sse,+sse2,+x87" "unsafe-fp-math"="false" "use-soft-float"="false" }

!llvm.module.flags = !{!0}
!llvm.ident = !{!1}

!0 = !{i32 1, !"wchar_size", i32 4}
!1 = !{!"clang version 6.0.0-1ubuntu2 (tags/RELEASE_600/final)"}
