; ModuleID = '/home/pedro/tcc/exDataset/codenet/data/selection/p00326/s631542942.ll'
source_filename = "/home/pedro/tcc/exDataset/codenet/data/selection/p00326/s631542942.cpp"
target datalayout = "e-m:e-i64:64-f80:128-n8:16:32:64-S128"
target triple = "x86_64-pc-linux-gnu"

%"class.std::ios_base::Init" = type { i8 }
%struct.Info = type { [4 x i32] }
%"class.std::vector" = type { %"struct.std::_Vector_base" }
%"struct.std::_Vector_base" = type { %"struct.std::_Vector_base<int, std::allocator<int> >::_Vector_impl" }
%"struct.std::_Vector_base<int, std::allocator<int> >::_Vector_impl" = type { i32*, i32*, i32* }
%"class.std::allocator" = type { i8 }
%"class.std::priority_queue" = type <{ %"class.std::vector.0", %"struct.std::less", [7 x i8] }>
%"class.std::vector.0" = type { %"struct.std::_Vector_base.1" }
%"struct.std::_Vector_base.1" = type { %"struct.std::_Vector_base<Data, std::allocator<Data> >::_Vector_impl" }
%"struct.std::_Vector_base<Data, std::allocator<Data> >::_Vector_impl" = type { %struct.Data*, %struct.Data*, %struct.Data* }
%struct.Data = type { i32 }
%"struct.std::less" = type { i8 }
%"class.__gnu_cxx::__normal_iterator" = type { i32* }
%"class.__gnu_cxx::__normal_iterator.5" = type { %struct.Data* }
%"class.std::allocator.2" = type { i8 }
%"class.__gnu_cxx::new_allocator.3" = type { i8 }
%"class.__gnu_cxx::new_allocator" = type { i8 }
%"class.std::move_iterator" = type { i32* }
%"struct.__gnu_cxx::__ops::_Iter_comp_val" = type { %"struct.std::less" }
%"class.std::move_iterator.6" = type { %struct.Data* }
%"class.__gnu_cxx::__normal_iterator.7" = type { %struct.Data* }
%"struct.__gnu_cxx::__ops::_Iter_comp_iter" = type { %"struct.std::less" }

$_ZNSt6vectorIiSaIiEEC2Ev = comdat any

$_ZNSt6vectorIiSaIiEED2Ev = comdat any

$_ZNSt6vectorIiSaIiEE9push_backERKi = comdat any

$_ZNSt14priority_queueI4DataSt6vectorIS0_SaIS0_EESt4lessIS0_EEC2IS3_vEEv = comdat any

$_ZNSt14priority_queueI4DataSt6vectorIS0_SaIS0_EESt4lessIS0_EED2Ev = comdat any

$_ZNSt14priority_queueI4DataSt6vectorIS0_SaIS0_EESt4lessIS0_EE4pushEOS0_ = comdat any

$_ZN4DataC2Ei = comdat any

$_ZNKSt14priority_queueI4DataSt6vectorIS0_SaIS0_EESt4lessIS0_EE3topEv = comdat any

$_ZNSt14priority_queueI4DataSt6vectorIS0_SaIS0_EESt4lessIS0_EE3popEv = comdat any

$_ZNKSt14priority_queueI4DataSt6vectorIS0_SaIS0_EESt4lessIS0_EE5emptyEv = comdat any

$_ZNSt14priority_queueI4DataSt6vectorIS0_SaIS0_EESt4lessIS0_EE4pushERKS0_ = comdat any

$_ZNKSt6vectorIiSaIiEE4sizeEv = comdat any

$_ZNSt6vectorIiSaIiEEixEm = comdat any

$_ZNSt6vectorI4DataSaIS0_EED2Ev = comdat any

$_ZSt8_DestroyIP4DataS0_EvT_S2_RSaIT0_E = comdat any

$_ZNSt12_Vector_baseI4DataSaIS0_EE19_M_get_Tp_allocatorEv = comdat any

$_ZNSt12_Vector_baseI4DataSaIS0_EED2Ev = comdat any

$__clang_call_terminate = comdat any

$_ZSt8_DestroyIP4DataEvT_S2_ = comdat any

$_ZNSt12_Destroy_auxILb1EE9__destroyIP4DataEEvT_S4_ = comdat any

$_ZNSt12_Vector_baseI4DataSaIS0_EE13_M_deallocateEPS0_m = comdat any

$_ZNSt12_Vector_baseI4DataSaIS0_EE12_Vector_implD2Ev = comdat any

$_ZNSt16allocator_traitsISaI4DataEE10deallocateERS1_PS0_m = comdat any

$_ZN9__gnu_cxx13new_allocatorI4DataE10deallocateEPS1_m = comdat any

$_ZNSaI4DataED2Ev = comdat any

$_ZN9__gnu_cxx13new_allocatorI4DataED2Ev = comdat any

$_ZNSt12_Vector_baseIiSaIiEEC2Ev = comdat any

$_ZNSt12_Vector_baseIiSaIiEE12_Vector_implC2Ev = comdat any

$_ZNSaIiEC2Ev = comdat any

$_ZN9__gnu_cxx13new_allocatorIiEC2Ev = comdat any

$_ZSt8_DestroyIPiiEvT_S1_RSaIT0_E = comdat any

$_ZNSt12_Vector_baseIiSaIiEE19_M_get_Tp_allocatorEv = comdat any

$_ZNSt12_Vector_baseIiSaIiEED2Ev = comdat any

$_ZSt8_DestroyIPiEvT_S1_ = comdat any

$_ZNSt12_Destroy_auxILb1EE9__destroyIPiEEvT_S3_ = comdat any

$_ZNSt12_Vector_baseIiSaIiEE13_M_deallocateEPim = comdat any

$_ZNSt12_Vector_baseIiSaIiEE12_Vector_implD2Ev = comdat any

$_ZNSt16allocator_traitsISaIiEE10deallocateERS0_Pim = comdat any

$_ZN9__gnu_cxx13new_allocatorIiE10deallocateEPim = comdat any

$_ZNSaIiED2Ev = comdat any

$_ZN9__gnu_cxx13new_allocatorIiED2Ev = comdat any

$_ZNSt16allocator_traitsISaIiEE9constructIiJRKiEEEvRS0_PT_DpOT0_ = comdat any

$_ZNSt6vectorIiSaIiEE17_M_realloc_insertIJRKiEEEvN9__gnu_cxx17__normal_iteratorIPiS1_EEDpOT_ = comdat any

$_ZNSt6vectorIiSaIiEE3endEv = comdat any

$_ZN9__gnu_cxx13new_allocatorIiE9constructIiJRKiEEEvPT_DpOT0_ = comdat any

$_ZSt7forwardIRKiEOT_RNSt16remove_referenceIS2_E4typeE = comdat any

$_ZNKSt6vectorIiSaIiEE12_M_check_lenEmPKc = comdat any

$_ZN9__gnu_cxxmiIPiSt6vectorIiSaIiEEEENS_17__normal_iteratorIT_T0_E15difference_typeERKS8_SB_ = comdat any

$_ZNSt6vectorIiSaIiEE5beginEv = comdat any

$_ZNSt12_Vector_baseIiSaIiEE11_M_allocateEm = comdat any

$_ZSt34__uninitialized_move_if_noexcept_aIPiS0_SaIiEET0_T_S3_S2_RT1_ = comdat any

$_ZNK9__gnu_cxx17__normal_iteratorIPiSt6vectorIiSaIiEEE4baseEv = comdat any

$_ZNSt16allocator_traitsISaIiEE7destroyIiEEvRS0_PT_ = comdat any

$_ZNKSt6vectorIiSaIiEE8max_sizeEv = comdat any

$_ZSt3maxImERKT_S2_S2_ = comdat any

$_ZNSt16allocator_traitsISaIiEE8max_sizeERKS0_ = comdat any

$_ZNKSt12_Vector_baseIiSaIiEE19_M_get_Tp_allocatorEv = comdat any

$_ZNK9__gnu_cxx13new_allocatorIiE8max_sizeEv = comdat any

$_ZN9__gnu_cxx17__normal_iteratorIPiSt6vectorIiSaIiEEEC2ERKS1_ = comdat any

$_ZNSt16allocator_traitsISaIiEE8allocateERS0_m = comdat any

$_ZN9__gnu_cxx13new_allocatorIiE8allocateEmPKv = comdat any

$_ZSt22__uninitialized_copy_aISt13move_iteratorIPiES1_iET0_T_S4_S3_RSaIT1_E = comdat any

$_ZSt32__make_move_if_noexcept_iteratorIiSt13move_iteratorIPiEET0_PT_ = comdat any

$_ZSt18uninitialized_copyISt13move_iteratorIPiES1_ET0_T_S4_S3_ = comdat any

$_ZNSt20__uninitialized_copyILb1EE13__uninit_copyISt13move_iteratorIPiES3_EET0_T_S6_S5_ = comdat any

$_ZSt4copyISt13move_iteratorIPiES1_ET0_T_S4_S3_ = comdat any

$_ZSt14__copy_move_a2ILb1EPiS0_ET1_T0_S2_S1_ = comdat any

$_ZSt12__miter_baseIPiEDTcl12__miter_basecldtfp_4baseEEESt13move_iteratorIT_E = comdat any

$_ZSt13__copy_move_aILb1EPiS0_ET1_T0_S2_S1_ = comdat any

$_ZSt12__niter_baseIPiET_S1_ = comdat any

$_ZNSt11__copy_moveILb1ELb1ESt26random_access_iterator_tagE8__copy_mIiEEPT_PKS3_S6_S4_ = comdat any

$_ZSt12__miter_baseIPiET_S1_ = comdat any

$_ZNKSt13move_iteratorIPiE4baseEv = comdat any

$_ZNSt13move_iteratorIPiEC2ES0_ = comdat any

$_ZN9__gnu_cxx13new_allocatorIiE7destroyIiEEvPT_ = comdat any

$_ZNSt6vectorI4DataSaIS0_EEC2Ev = comdat any

$_ZNSt12_Vector_baseI4DataSaIS0_EEC2Ev = comdat any

$_ZNSt12_Vector_baseI4DataSaIS0_EE12_Vector_implC2Ev = comdat any

$_ZNSaI4DataEC2Ev = comdat any

$_ZN9__gnu_cxx13new_allocatorI4DataEC2Ev = comdat any

$_ZNSt6vectorI4DataSaIS0_EE9push_backEOS0_ = comdat any

$_ZSt4moveIR4DataEONSt16remove_referenceIT_E4typeEOS3_ = comdat any

$_ZSt9push_heapIN9__gnu_cxx17__normal_iteratorIP4DataSt6vectorIS2_SaIS2_EEEESt4lessIS2_EEvT_SA_T0_ = comdat any

$_ZNSt6vectorI4DataSaIS0_EE5beginEv = comdat any

$_ZNSt6vectorI4DataSaIS0_EE3endEv = comdat any

$_ZNSt6vectorI4DataSaIS0_EE12emplace_backIJS0_EEEvDpOT_ = comdat any

$_ZNSt16allocator_traitsISaI4DataEE9constructIS0_JS0_EEEvRS1_PT_DpOT0_ = comdat any

$_ZSt7forwardI4DataEOT_RNSt16remove_referenceIS1_E4typeE = comdat any

$_ZNSt6vectorI4DataSaIS0_EE17_M_realloc_insertIJS0_EEEvN9__gnu_cxx17__normal_iteratorIPS0_S2_EEDpOT_ = comdat any

$_ZN9__gnu_cxx13new_allocatorI4DataE9constructIS1_JS1_EEEvPT_DpOT0_ = comdat any

$_ZNKSt6vectorI4DataSaIS0_EE12_M_check_lenEmPKc = comdat any

$_ZN9__gnu_cxxmiIP4DataSt6vectorIS1_SaIS1_EEEENS_17__normal_iteratorIT_T0_E15difference_typeERKS9_SC_ = comdat any

$_ZNSt12_Vector_baseI4DataSaIS0_EE11_M_allocateEm = comdat any

$_ZSt34__uninitialized_move_if_noexcept_aIP4DataS1_SaIS0_EET0_T_S4_S3_RT1_ = comdat any

$_ZNK9__gnu_cxx17__normal_iteratorIP4DataSt6vectorIS1_SaIS1_EEE4baseEv = comdat any

$_ZNSt16allocator_traitsISaI4DataEE7destroyIS0_EEvRS1_PT_ = comdat any

$_ZNKSt6vectorI4DataSaIS0_EE8max_sizeEv = comdat any

$_ZNKSt6vectorI4DataSaIS0_EE4sizeEv = comdat any

$_ZNSt16allocator_traitsISaI4DataEE8max_sizeERKS1_ = comdat any

$_ZNKSt12_Vector_baseI4DataSaIS0_EE19_M_get_Tp_allocatorEv = comdat any

$_ZNK9__gnu_cxx13new_allocatorI4DataE8max_sizeEv = comdat any

$_ZNSt16allocator_traitsISaI4DataEE8allocateERS1_m = comdat any

$_ZN9__gnu_cxx13new_allocatorI4DataE8allocateEmPKv = comdat any

$_ZSt22__uninitialized_copy_aISt13move_iteratorIP4DataES2_S1_ET0_T_S5_S4_RSaIT1_E = comdat any

$_ZSt32__make_move_if_noexcept_iteratorI4DataSt13move_iteratorIPS0_EET0_PT_ = comdat any

$_ZSt18uninitialized_copyISt13move_iteratorIP4DataES2_ET0_T_S5_S4_ = comdat any

$_ZNSt20__uninitialized_copyILb0EE13__uninit_copyISt13move_iteratorIP4DataES4_EET0_T_S7_S6_ = comdat any

$_ZStneIP4DataEbRKSt13move_iteratorIT_ES6_ = comdat any

$_ZSt10_ConstructI4DataJS0_EEvPT_DpOT0_ = comdat any

$_ZSt11__addressofI4DataEPT_RS1_ = comdat any

$_ZNKSt13move_iteratorIP4DataEdeEv = comdat any

$_ZNSt13move_iteratorIP4DataEppEv = comdat any

$_ZSteqIP4DataEbRKSt13move_iteratorIT_ES6_ = comdat any

$_ZNKSt13move_iteratorIP4DataE4baseEv = comdat any

$_ZNSt13move_iteratorIP4DataEC2ES1_ = comdat any

$_ZN9__gnu_cxx13new_allocatorI4DataE7destroyIS1_EEvPT_ = comdat any

$_ZSt4moveIRSt4lessI4DataEEONSt16remove_referenceIT_E4typeEOS5_ = comdat any

$_ZN9__gnu_cxx5__ops14_Iter_comp_valISt4lessI4DataEEC2ES4_ = comdat any

$_ZNK9__gnu_cxx17__normal_iteratorIP4DataSt6vectorIS1_SaIS1_EEEmiEl = comdat any

$_ZNK9__gnu_cxx17__normal_iteratorIP4DataSt6vectorIS1_SaIS1_EEEdeEv = comdat any

$_ZSt11__push_heapIN9__gnu_cxx17__normal_iteratorIP4DataSt6vectorIS2_SaIS2_EEEElS2_NS0_5__ops14_Iter_comp_valISt4lessIS2_EEEEvT_T0_SE_T1_RT2_ = comdat any

$_ZN9__gnu_cxx17__normal_iteratorIP4DataSt6vectorIS1_SaIS1_EEEC2ERKS2_ = comdat any

$_ZN9__gnu_cxx5__ops14_Iter_comp_valISt4lessI4DataEEclINS_17__normal_iteratorIPS3_St6vectorIS3_SaIS3_EEEES3_EEbT_RT0_ = comdat any

$_ZNK9__gnu_cxx17__normal_iteratorIP4DataSt6vectorIS1_SaIS1_EEEplEl = comdat any

$_ZNKSt4lessI4DataEclERKS0_S3_ = comdat any

$_ZNK4DataltERKS_ = comdat any

$_ZNKSt6vectorI4DataSaIS0_EE5frontEv = comdat any

$_ZNKSt6vectorI4DataSaIS0_EE5beginEv = comdat any

$_ZNK9__gnu_cxx17__normal_iteratorIPK4DataSt6vectorIS1_SaIS1_EEEdeEv = comdat any

$_ZN9__gnu_cxx17__normal_iteratorIPK4DataSt6vectorIS1_SaIS1_EEEC2ERKS3_ = comdat any

$_ZSt8pop_heapIN9__gnu_cxx17__normal_iteratorIP4DataSt6vectorIS2_SaIS2_EEEESt4lessIS2_EEvT_SA_T0_ = comdat any

$_ZNSt6vectorI4DataSaIS0_EE8pop_backEv = comdat any

$_ZN9__gnu_cxx5__ops15_Iter_comp_iterISt4lessI4DataEEC2ES4_ = comdat any

$_ZN9__gnu_cxx17__normal_iteratorIP4DataSt6vectorIS1_SaIS1_EEEmmEv = comdat any

$_ZSt10__pop_heapIN9__gnu_cxx17__normal_iteratorIP4DataSt6vectorIS2_SaIS2_EEEENS0_5__ops15_Iter_comp_iterISt4lessIS2_EEEEvT_SD_SD_RT0_ = comdat any

$_ZSt13__adjust_heapIN9__gnu_cxx17__normal_iteratorIP4DataSt6vectorIS2_SaIS2_EEEElS2_NS0_5__ops15_Iter_comp_iterISt4lessIS2_EEEEvT_T0_SE_T1_T2_ = comdat any

$_ZN9__gnu_cxx5__ops15_Iter_comp_iterISt4lessI4DataEEclINS_17__normal_iteratorIPS3_St6vectorIS3_SaIS3_EEEESC_EEbT_T0_ = comdat any

$_ZSt4moveIRN9__gnu_cxx5__ops15_Iter_comp_iterISt4lessI4DataEEEEONSt16remove_referenceIT_E4typeEOS9_ = comdat any

$_ZN9__gnu_cxx5__ops14_Iter_comp_valISt4lessI4DataEEC2EONS0_15_Iter_comp_iterIS4_EE = comdat any

$_ZNKSt6vectorI4DataSaIS0_EE5emptyEv = comdat any

$_ZN9__gnu_cxxeqIPK4DataSt6vectorIS1_SaIS1_EEEEbRKNS_17__normal_iteratorIT_T0_EESC_ = comdat any

$_ZNKSt6vectorI4DataSaIS0_EE3endEv = comdat any

$_ZNK9__gnu_cxx17__normal_iteratorIPK4DataSt6vectorIS1_SaIS1_EEE4baseEv = comdat any

$_ZNSt6vectorI4DataSaIS0_EE9push_backERKS0_ = comdat any

$_ZNSt16allocator_traitsISaI4DataEE9constructIS0_JRKS0_EEEvRS1_PT_DpOT0_ = comdat any

$_ZNSt6vectorI4DataSaIS0_EE17_M_realloc_insertIJRKS0_EEEvN9__gnu_cxx17__normal_iteratorIPS0_S2_EEDpOT_ = comdat any

$_ZN9__gnu_cxx13new_allocatorI4DataE9constructIS1_JRKS1_EEEvPT_DpOT0_ = comdat any

$_ZSt7forwardIRK4DataEOT_RNSt16remove_referenceIS3_E4typeE = comdat any

@_ZStL8__ioinit = internal global %"class.std::ios_base::Init" zeroinitializer, align 1
@__dso_handle = external hidden global i8
@info = global [50000 x %struct.Info] zeroinitializer, align 16
@N = global i32 0, align 4
@K = global i32 0, align 4
@V = global [50000 x %"class.std::vector"] zeroinitializer, align 16
@in_num = global [50000 x i32] zeroinitializer, align 16
@value_array = global [4 x i32] zeroinitializer, align 16
@value_table = global [50000 x [4 x i32]] zeroinitializer, align 16
@value_index = global i32 0, align 4
@.str = private unnamed_addr constant [6 x i8] c"%d %d\00", align 1
@.str.2 = private unnamed_addr constant [3 x i8] c"%d\00", align 1
@.str.3 = private unnamed_addr constant [4 x i8] c"%d\0A\00", align 1
@.str.4 = private unnamed_addr constant [26 x i8] c"vector::_M_realloc_insert\00", align 1
@llvm.global_ctors = appending global [1 x { i32, void ()*, i8* }] [{ i32, void ()*, i8* } { i32 65535, void ()* @_GLOBAL__sub_I_s631542942.cpp, i8* null }]

; Function Attrs: noinline uwtable
define internal void @__cxx_global_var_init() #0 section ".text.startup" {
  call void @_ZNSt8ios_base4InitC1Ev(%"class.std::ios_base::Init"* @_ZStL8__ioinit)
  %1 = call i32 @__cxa_atexit(void (i8*)* bitcast (void (%"class.std::ios_base::Init"*)* @_ZNSt8ios_base4InitD1Ev to void (i8*)*), i8* getelementptr inbounds (%"class.std::ios_base::Init", %"class.std::ios_base::Init"* @_ZStL8__ioinit, i32 0, i32 0), i8* @__dso_handle) #3
  ret void
}

declare void @_ZNSt8ios_base4InitC1Ev(%"class.std::ios_base::Init"*) unnamed_addr #1

; Function Attrs: nounwind
declare void @_ZNSt8ios_base4InitD1Ev(%"class.std::ios_base::Init"*) unnamed_addr #2

; Function Attrs: nounwind
declare i32 @__cxa_atexit(void (i8*)*, i8*, i8*) #3

; Function Attrs: noinline uwtable
define internal void @__cxx_global_var_init.1() #0 section ".text.startup" {
  br label %1

1:                                                ; preds = %1, %0
  %2 = phi %"class.std::vector"* [ getelementptr inbounds ([50000 x %"class.std::vector"], [50000 x %"class.std::vector"]* @V, i32 0, i32 0), %0 ], [ %3, %1 ]
  call void @_ZNSt6vectorIiSaIiEEC2Ev(%"class.std::vector"* %2) #3
  %3 = getelementptr inbounds %"class.std::vector", %"class.std::vector"* %2, i64 1
  %4 = icmp eq %"class.std::vector"* %3, getelementptr inbounds ([50000 x %"class.std::vector"], [50000 x %"class.std::vector"]* @V, i64 1, i64 0)
  br i1 %4, label %5, label %1

5:                                                ; preds = %1
  %6 = call i32 @__cxa_atexit(void (i8*)* @__cxx_global_array_dtor, i8* null, i8* @__dso_handle) #3
  ret void
}

; Function Attrs: noinline nounwind uwtable
define linkonce_odr void @_ZNSt6vectorIiSaIiEEC2Ev(%"class.std::vector"* %0) unnamed_addr #4 comdat align 2 personality i8* bitcast (i32 (...)* @__gxx_personality_v0 to i8*) {
  %2 = bitcast %"class.std::vector"* %0 to %"struct.std::_Vector_base"*
  invoke void @_ZNSt12_Vector_baseIiSaIiEEC2Ev(%"struct.std::_Vector_base"* %2)
          to label %3 unwind label %4

3:                                                ; preds = %1
  ret void

4:                                                ; preds = %1
  %5 = landingpad { i8*, i32 }
          catch i8* null
  %6 = extractvalue { i8*, i32 } %5, 0
  call void @__clang_call_terminate(i8* %6) #13
  unreachable
}

; Function Attrs: noinline uwtable
define internal void @__cxx_global_array_dtor(i8* %0) #0 section ".text.startup" {
  br label %2

2:                                                ; preds = %2, %1
  %3 = phi %"class.std::vector"* [ getelementptr inbounds ([50000 x %"class.std::vector"], [50000 x %"class.std::vector"]* @V, i64 1, i64 0), %1 ], [ %4, %2 ]
  %4 = getelementptr inbounds %"class.std::vector", %"class.std::vector"* %3, i64 -1
  call void @_ZNSt6vectorIiSaIiEED2Ev(%"class.std::vector"* %4) #3
  %5 = icmp eq %"class.std::vector"* %4, getelementptr inbounds ([50000 x %"class.std::vector"], [50000 x %"class.std::vector"]* @V, i32 0, i32 0)
  br i1 %5, label %6, label %2

6:                                                ; preds = %2
  ret void
}

; Function Attrs: noinline nounwind uwtable
define linkonce_odr void @_ZNSt6vectorIiSaIiEED2Ev(%"class.std::vector"* %0) unnamed_addr #4 comdat align 2 personality i8* bitcast (i32 (...)* @__gxx_personality_v0 to i8*) {
  %2 = bitcast %"class.std::vector"* %0 to %"struct.std::_Vector_base"*
  %3 = getelementptr inbounds %"struct.std::_Vector_base", %"struct.std::_Vector_base"* %2, i32 0, i32 0
  %4 = getelementptr inbounds %"struct.std::_Vector_base<int, std::allocator<int> >::_Vector_impl", %"struct.std::_Vector_base<int, std::allocator<int> >::_Vector_impl"* %3, i32 0, i32 0
  %5 = load i32*, i32** %4, align 8
  %6 = bitcast %"class.std::vector"* %0 to %"struct.std::_Vector_base"*
  %7 = getelementptr inbounds %"struct.std::_Vector_base", %"struct.std::_Vector_base"* %6, i32 0, i32 0
  %8 = getelementptr inbounds %"struct.std::_Vector_base<int, std::allocator<int> >::_Vector_impl", %"struct.std::_Vector_base<int, std::allocator<int> >::_Vector_impl"* %7, i32 0, i32 1
  %9 = load i32*, i32** %8, align 8
  %10 = bitcast %"class.std::vector"* %0 to %"struct.std::_Vector_base"*
  %11 = call dereferenceable(1) %"class.std::allocator"* @_ZNSt12_Vector_baseIiSaIiEE19_M_get_Tp_allocatorEv(%"struct.std::_Vector_base"* %10) #3
  invoke void @_ZSt8_DestroyIPiiEvT_S1_RSaIT0_E(i32* %5, i32* %9, %"class.std::allocator"* dereferenceable(1) %11)
          to label %12 unwind label %14

12:                                               ; preds = %1
  %13 = bitcast %"class.std::vector"* %0 to %"struct.std::_Vector_base"*
  call void @_ZNSt12_Vector_baseIiSaIiEED2Ev(%"struct.std::_Vector_base"* %13) #3
  ret void

14:                                               ; preds = %1
  %15 = landingpad { i8*, i32 }
          catch i8* null
  %16 = extractvalue { i8*, i32 } %15, 0
  %17 = extractvalue { i8*, i32 } %15, 1
  %18 = bitcast %"class.std::vector"* %0 to %"struct.std::_Vector_base"*
  call void @_ZNSt12_Vector_baseIiSaIiEED2Ev(%"struct.std::_Vector_base"* %18) #3
  br label %19

19:                                               ; preds = %14
  call void @__clang_call_terminate(i8* %16) #13
  unreachable
}

; Function Attrs: noinline nounwind uwtable
define zeroext i1 @_Z10value_funcii(i32 %0, i32 %1) #4 {
  br label %3

3:                                                ; preds = %47, %2
  %.01 = phi i32 [ 0, %2 ], [ %48, %47 ]
  %4 = load i32, i32* @K, align 4
  %5 = icmp slt i32 %.01, %4
  br i1 %5, label %6, label %49

6:                                                ; preds = %3
  %7 = sext i32 %0 to i64
  %8 = getelementptr inbounds [50000 x %struct.Info], [50000 x %struct.Info]* @info, i64 0, i64 %7
  %9 = getelementptr inbounds %struct.Info, %struct.Info* %8, i32 0, i32 0
  %10 = sext i32 %.01 to i64
  %11 = getelementptr inbounds [4 x i32], [4 x i32]* @value_array, i64 0, i64 %10
  %12 = load i32, i32* %11, align 4
  %13 = sext i32 %12 to i64
  %14 = getelementptr inbounds [4 x i32], [4 x i32]* %9, i64 0, i64 %13
  %15 = load i32, i32* %14, align 4
  %16 = sext i32 %1 to i64
  %17 = getelementptr inbounds [50000 x %struct.Info], [50000 x %struct.Info]* @info, i64 0, i64 %16
  %18 = getelementptr inbounds %struct.Info, %struct.Info* %17, i32 0, i32 0
  %19 = sext i32 %.01 to i64
  %20 = getelementptr inbounds [4 x i32], [4 x i32]* @value_array, i64 0, i64 %19
  %21 = load i32, i32* %20, align 4
  %22 = sext i32 %21 to i64
  %23 = getelementptr inbounds [4 x i32], [4 x i32]* %18, i64 0, i64 %22
  %24 = load i32, i32* %23, align 4
  %25 = icmp ne i32 %15, %24
  br i1 %25, label %26, label %46

26:                                               ; preds = %6
  %27 = sext i32 %0 to i64
  %28 = getelementptr inbounds [50000 x %struct.Info], [50000 x %struct.Info]* @info, i64 0, i64 %27
  %29 = getelementptr inbounds %struct.Info, %struct.Info* %28, i32 0, i32 0
  %30 = sext i32 %.01 to i64
  %31 = getelementptr inbounds [4 x i32], [4 x i32]* @value_array, i64 0, i64 %30
  %32 = load i32, i32* %31, align 4
  %33 = sext i32 %32 to i64
  %34 = getelementptr inbounds [4 x i32], [4 x i32]* %29, i64 0, i64 %33
  %35 = load i32, i32* %34, align 4
  %36 = sext i32 %1 to i64
  %37 = getelementptr inbounds [50000 x %struct.Info], [50000 x %struct.Info]* @info, i64 0, i64 %36
  %38 = getelementptr inbounds %struct.Info, %struct.Info* %37, i32 0, i32 0
  %39 = sext i32 %.01 to i64
  %40 = getelementptr inbounds [4 x i32], [4 x i32]* @value_array, i64 0, i64 %39
  %41 = load i32, i32* %40, align 4
  %42 = sext i32 %41 to i64
  %43 = getelementptr inbounds [4 x i32], [4 x i32]* %38, i64 0, i64 %42
  %44 = load i32, i32* %43, align 4
  %45 = icmp slt i32 %35, %44
  br label %50

46:                                               ; preds = %6
  br label %47

47:                                               ; preds = %46
  %48 = add nsw i32 %.01, 1
  br label %3

49:                                               ; preds = %3
  br label %50

50:                                               ; preds = %49, %26
  %.0 = phi i1 [ %45, %26 ], [ false, %49 ]
  ret i1 %.0
}

; Function Attrs: noinline nounwind uwtable
define void @_Z12update_valuev() #4 {
  br label %1

1:                                                ; preds = %13, %0
  %.0 = phi i32 [ 0, %0 ], [ %14, %13 ]
  %2 = load i32, i32* @K, align 4
  %3 = icmp slt i32 %.0, %2
  br i1 %3, label %4, label %15

4:                                                ; preds = %1
  %5 = load i32, i32* @value_index, align 4
  %6 = sext i32 %5 to i64
  %7 = getelementptr inbounds [50000 x [4 x i32]], [50000 x [4 x i32]]* @value_table, i64 0, i64 %6
  %8 = sext i32 %.0 to i64
  %9 = getelementptr inbounds [4 x i32], [4 x i32]* %7, i64 0, i64 %8
  %10 = load i32, i32* %9, align 4
  %11 = sext i32 %.0 to i64
  %12 = getelementptr inbounds [4 x i32], [4 x i32]* @value_array, i64 0, i64 %11
  store i32 %10, i32* %12, align 4
  br label %13

13:                                               ; preds = %4
  %14 = add nsw i32 %.0, 1
  br label %1

15:                                               ; preds = %1
  %16 = load i32, i32* @value_index, align 4
  %17 = add nsw i32 %16, 1
  store i32 %17, i32* @value_index, align 4
  ret void
}

; Function Attrs: noinline norecurse uwtable
define i32 @main() #5 personality i8* bitcast (i32 (...)* @__gxx_personality_v0 to i8*) {
  %1 = alloca i32, align 4
  %2 = alloca i32, align 4
  %3 = alloca i32, align 4
  %4 = alloca i32, align 4
  %5 = alloca i32, align 4
  %6 = alloca [2 x %"class.std::priority_queue"], align 16
  %7 = alloca %struct.Data, align 4
  %8 = alloca %struct.Data, align 4
  %9 = call i32 (i8*, ...) @scanf(i8* getelementptr inbounds ([6 x i8], [6 x i8]* @.str, i32 0, i32 0), i32* @N, i32* @K)
  br label %10

10:                                               ; preds = %27, %0
  %.01 = phi i32 [ 0, %0 ], [ %28, %27 ]
  %11 = load i32, i32* @N, align 4
  %12 = icmp slt i32 %.01, %11
  br i1 %12, label %13, label %29

13:                                               ; preds = %10
  br label %14

14:                                               ; preds = %24, %13
  %.02 = phi i32 [ 0, %13 ], [ %25, %24 ]
  %15 = load i32, i32* @K, align 4
  %16 = icmp slt i32 %.02, %15
  br i1 %16, label %17, label %26

17:                                               ; preds = %14
  %18 = sext i32 %.01 to i64
  %19 = getelementptr inbounds [50000 x %struct.Info], [50000 x %struct.Info]* @info, i64 0, i64 %18
  %20 = getelementptr inbounds %struct.Info, %struct.Info* %19, i32 0, i32 0
  %21 = sext i32 %.02 to i64
  %22 = getelementptr inbounds [4 x i32], [4 x i32]* %20, i64 0, i64 %21
  %23 = call i32 (i8*, ...) @scanf(i8* getelementptr inbounds ([3 x i8], [3 x i8]* @.str.2, i32 0, i32 0), i32* %22)
  br label %24

24:                                               ; preds = %17
  %25 = add nsw i32 %.02, 1
  br label %14

26:                                               ; preds = %14
  br label %27

27:                                               ; preds = %26
  %28 = add nsw i32 %.01, 1
  br label %10

29:                                               ; preds = %10
  br label %30

30:                                               ; preds = %36, %29
  %.03 = phi i32 [ 0, %29 ], [ %37, %36 ]
  %31 = load i32, i32* @N, align 4
  %32 = icmp slt i32 %.03, %31
  br i1 %32, label %33, label %38

33:                                               ; preds = %30
  %34 = sext i32 %.03 to i64
  %35 = getelementptr inbounds [50000 x i32], [50000 x i32]* @in_num, i64 0, i64 %34
  store i32 0, i32* %35, align 4
  br label %36

36:                                               ; preds = %33
  %37 = add nsw i32 %.03, 1
  br label %30

38:                                               ; preds = %30
  %39 = call i32 (i8*, ...) @scanf(i8* getelementptr inbounds ([3 x i8], [3 x i8]* @.str.2, i32 0, i32 0), i32* %1)
  br label %40

40:                                               ; preds = %57, %38
  %.04 = phi i32 [ 0, %38 ], [ %58, %57 ]
  %41 = load i32, i32* %1, align 4
  %42 = icmp slt i32 %.04, %41
  br i1 %42, label %43, label %59

43:                                               ; preds = %40
  %44 = call i32 (i8*, ...) @scanf(i8* getelementptr inbounds ([6 x i8], [6 x i8]* @.str, i32 0, i32 0), i32* %2, i32* %3)
  %45 = load i32, i32* %2, align 4
  %46 = add nsw i32 %45, -1
  store i32 %46, i32* %2, align 4
  %47 = load i32, i32* %3, align 4
  %48 = add nsw i32 %47, -1
  store i32 %48, i32* %3, align 4
  %49 = load i32, i32* %2, align 4
  %50 = sext i32 %49 to i64
  %51 = getelementptr inbounds [50000 x %"class.std::vector"], [50000 x %"class.std::vector"]* @V, i64 0, i64 %50
  call void @_ZNSt6vectorIiSaIiEE9push_backERKi(%"class.std::vector"* %51, i32* dereferenceable(4) %3)
  %52 = load i32, i32* %3, align 4
  %53 = sext i32 %52 to i64
  %54 = getelementptr inbounds [50000 x i32], [50000 x i32]* @in_num, i64 0, i64 %53
  %55 = load i32, i32* %54, align 4
  %56 = add nsw i32 %55, 1
  store i32 %56, i32* %54, align 4
  br label %57

57:                                               ; preds = %43
  %58 = add nsw i32 %.04, 1
  br label %40

59:                                               ; preds = %40
  br label %60

60:                                               ; preds = %71, %59
  %.05 = phi i32 [ 0, %59 ], [ %72, %71 ]
  %61 = load i32, i32* @K, align 4
  %62 = icmp slt i32 %.05, %61
  br i1 %62, label %63, label %73

63:                                               ; preds = %60
  %64 = sext i32 %.05 to i64
  %65 = getelementptr inbounds [4 x i32], [4 x i32]* @value_array, i64 0, i64 %64
  %66 = call i32 (i8*, ...) @scanf(i8* getelementptr inbounds ([3 x i8], [3 x i8]* @.str.2, i32 0, i32 0), i32* %65)
  %67 = sext i32 %.05 to i64
  %68 = getelementptr inbounds [4 x i32], [4 x i32]* @value_array, i64 0, i64 %67
  %69 = load i32, i32* %68, align 4
  %70 = add nsw i32 %69, -1
  store i32 %70, i32* %68, align 4
  br label %71

71:                                               ; preds = %63
  %72 = add nsw i32 %.05, 1
  br label %60

73:                                               ; preds = %60
  %74 = call i32 (i8*, ...) @scanf(i8* getelementptr inbounds ([3 x i8], [3 x i8]* @.str.2, i32 0, i32 0), i32* %4)
  %75 = load i32, i32* @N, align 4
  %76 = zext i32 %75 to i64
  %77 = call i8* @llvm.stacksave()
  %78 = alloca i8, i64 %76, align 16
  br label %79

79:                                               ; preds = %85, %73
  %.07 = phi i32 [ 0, %73 ], [ %86, %85 ]
  %80 = load i32, i32* @N, align 4
  %81 = icmp slt i32 %.07, %80
  br i1 %81, label %82, label %87

82:                                               ; preds = %79
  %83 = sext i32 %.07 to i64
  %84 = getelementptr inbounds i8, i8* %78, i64 %83
  store i8 0, i8* %84, align 1
  br label %85

85:                                               ; preds = %82
  %86 = add nsw i32 %.07, 1
  br label %79

87:                                               ; preds = %79
  br label %88

88:                                               ; preds = %114, %87
  %.08 = phi i32 [ 0, %87 ], [ %115, %114 ]
  %89 = load i32, i32* %4, align 4
  %90 = icmp slt i32 %.08, %89
  br i1 %90, label %91, label %116

91:                                               ; preds = %88
  %92 = call i32 (i8*, ...) @scanf(i8* getelementptr inbounds ([3 x i8], [3 x i8]* @.str.2, i32 0, i32 0), i32* %5)
  %93 = load i32, i32* %5, align 4
  %94 = sext i32 %93 to i64
  %95 = getelementptr inbounds i8, i8* %78, i64 %94
  store i8 1, i8* %95, align 1
  br label %96

96:                                               ; preds = %111, %91
  %.09 = phi i32 [ 0, %91 ], [ %112, %111 ]
  %97 = load i32, i32* @K, align 4
  %98 = icmp slt i32 %.09, %97
  br i1 %98, label %99, label %113

99:                                               ; preds = %96
  %100 = sext i32 %.08 to i64
  %101 = getelementptr inbounds [50000 x [4 x i32]], [50000 x [4 x i32]]* @value_table, i64 0, i64 %100
  %102 = sext i32 %.09 to i64
  %103 = getelementptr inbounds [4 x i32], [4 x i32]* %101, i64 0, i64 %102
  %104 = call i32 (i8*, ...) @scanf(i8* getelementptr inbounds ([3 x i8], [3 x i8]* @.str.2, i32 0, i32 0), i32* %103)
  %105 = sext i32 %.08 to i64
  %106 = getelementptr inbounds [50000 x [4 x i32]], [50000 x [4 x i32]]* @value_table, i64 0, i64 %105
  %107 = sext i32 %.09 to i64
  %108 = getelementptr inbounds [4 x i32], [4 x i32]* %106, i64 0, i64 %107
  %109 = load i32, i32* %108, align 4
  %110 = add nsw i32 %109, -1
  store i32 %110, i32* %108, align 4
  br label %111

111:                                              ; preds = %99
  %112 = add nsw i32 %.09, 1
  br label %96

113:                                              ; preds = %96
  br label %114

114:                                              ; preds = %113
  %115 = add nsw i32 %.08, 1
  br label %88

116:                                              ; preds = %88
  %117 = getelementptr inbounds [2 x %"class.std::priority_queue"], [2 x %"class.std::priority_queue"]* %6, i32 0, i32 0
  %118 = getelementptr inbounds %"class.std::priority_queue", %"class.std::priority_queue"* %117, i64 2
  br label %119

119:                                              ; preds = %121, %116
  %120 = phi %"class.std::priority_queue"* [ %117, %116 ], [ %122, %121 ]
  invoke void @_ZNSt14priority_queueI4DataSt6vectorIS0_SaIS0_EESt4lessIS0_EEC2IS3_vEEv(%"class.std::priority_queue"* %120)
          to label %121 unwind label %138

121:                                              ; preds = %119
  %122 = getelementptr inbounds %"class.std::priority_queue", %"class.std::priority_queue"* %120, i64 1
  %123 = icmp eq %"class.std::priority_queue"* %122, %118
  br i1 %123, label %124, label %119

124:                                              ; preds = %121
  br label %125

125:                                              ; preds = %155, %124
  %.013 = phi i32 [ 0, %124 ], [ %156, %155 ]
  %126 = load i32, i32* @N, align 4
  %127 = icmp slt i32 %.013, %126
  br i1 %127, label %128, label %157

128:                                              ; preds = %125
  %129 = sext i32 %.013 to i64
  %130 = getelementptr inbounds [50000 x i32], [50000 x i32]* @in_num, i64 0, i64 %129
  %131 = load i32, i32* %130, align 4
  %132 = icmp eq i32 %131, 0
  br i1 %132, label %133, label %154

133:                                              ; preds = %128
  %134 = sext i32 0 to i64
  %135 = getelementptr inbounds [2 x %"class.std::priority_queue"], [2 x %"class.std::priority_queue"]* %6, i64 0, i64 %134
  invoke void @_ZN4DataC2Ei(%struct.Data* %7, i32 %.013)
          to label %136 unwind label %148

136:                                              ; preds = %133
  invoke void @_ZNSt14priority_queueI4DataSt6vectorIS0_SaIS0_EESt4lessIS0_EE4pushEOS0_(%"class.std::priority_queue"* %135, %struct.Data* dereferenceable(4) %7)
          to label %137 unwind label %148

137:                                              ; preds = %136
  br label %154

138:                                              ; preds = %119
  %139 = landingpad { i8*, i32 }
          cleanup
  %140 = extractvalue { i8*, i32 } %139, 0
  %141 = extractvalue { i8*, i32 } %139, 1
  %142 = icmp eq %"class.std::priority_queue"* %117, %120
  br i1 %142, label %147, label %143

143:                                              ; preds = %143, %138
  %144 = phi %"class.std::priority_queue"* [ %120, %138 ], [ %145, %143 ]
  %145 = getelementptr inbounds %"class.std::priority_queue", %"class.std::priority_queue"* %144, i64 -1
  call void @_ZNSt14priority_queueI4DataSt6vectorIS0_SaIS0_EESt4lessIS0_EED2Ev(%"class.std::priority_queue"* %145) #3
  %146 = icmp eq %"class.std::priority_queue"* %145, %117
  br i1 %146, label %147, label %143

147:                                              ; preds = %143, %138
  br label %265

148:                                              ; preds = %245, %237, %205, %204, %197, %191, %189, %179, %175, %165, %161, %136, %133
  %149 = landingpad { i8*, i32 }
          cleanup
  %150 = extractvalue { i8*, i32 } %149, 0
  %151 = extractvalue { i8*, i32 } %149, 1
  %152 = getelementptr inbounds [2 x %"class.std::priority_queue"], [2 x %"class.std::priority_queue"]* %6, i32 0, i32 0
  %153 = getelementptr inbounds %"class.std::priority_queue", %"class.std::priority_queue"* %152, i64 2
  br label %260

154:                                              ; preds = %137, %128
  br label %155

155:                                              ; preds = %154
  %156 = add nsw i32 %.013, 1
  br label %125

157:                                              ; preds = %125
  br label %158

158:                                              ; preds = %250, %157
  %.014 = phi i32 [ 0, %157 ], [ %171, %250 ]
  %.012 = phi i32 [ 0, %157 ], [ %.1, %250 ]
  %159 = load i32, i32* @N, align 4
  %160 = icmp slt i32 %.014, %159
  br i1 %160, label %161, label %251

161:                                              ; preds = %158
  %162 = sext i32 %.012 to i64
  %163 = getelementptr inbounds [2 x %"class.std::priority_queue"], [2 x %"class.std::priority_queue"]* %6, i64 0, i64 %162
  %164 = invoke dereferenceable(4) %struct.Data* @_ZNKSt14priority_queueI4DataSt6vectorIS0_SaIS0_EESt4lessIS0_EE3topEv(%"class.std::priority_queue"* %163)
          to label %165 unwind label %148

165:                                              ; preds = %161
  %166 = getelementptr inbounds %struct.Data, %struct.Data* %164, i32 0, i32 0
  %167 = load i32, i32* %166, align 4
  %168 = add nsw i32 %167, 1
  %169 = invoke i32 (i8*, ...) @printf(i8* getelementptr inbounds ([4 x i8], [4 x i8]* @.str.3, i32 0, i32 0), i32 %168)
          to label %170 unwind label %148

170:                                              ; preds = %165
  %171 = add nsw i32 %.014, 1
  %172 = load i32, i32* @N, align 4
  %173 = icmp eq i32 %171, %172
  br i1 %173, label %174, label %175

174:                                              ; preds = %170
  br label %252

175:                                              ; preds = %170
  %176 = sext i32 %.012 to i64
  %177 = getelementptr inbounds [2 x %"class.std::priority_queue"], [2 x %"class.std::priority_queue"]* %6, i64 0, i64 %176
  %178 = invoke dereferenceable(4) %struct.Data* @_ZNKSt14priority_queueI4DataSt6vectorIS0_SaIS0_EESt4lessIS0_EE3topEv(%"class.std::priority_queue"* %177)
          to label %179 unwind label %148

179:                                              ; preds = %175
  %180 = getelementptr inbounds %struct.Data, %struct.Data* %178, i32 0, i32 0
  %181 = load i32, i32* %180, align 4
  %182 = sext i32 %.012 to i64
  %183 = getelementptr inbounds [2 x %"class.std::priority_queue"], [2 x %"class.std::priority_queue"]* %6, i64 0, i64 %182
  invoke void @_ZNSt14priority_queueI4DataSt6vectorIS0_SaIS0_EESt4lessIS0_EE3popEv(%"class.std::priority_queue"* %183)
          to label %184 unwind label %148

184:                                              ; preds = %179
  %185 = sext i32 %171 to i64
  %186 = getelementptr inbounds i8, i8* %78, i64 %185
  %187 = load i8, i8* %186, align 1
  %188 = trunc i8 %187 to i1
  br i1 %188, label %189, label %211

189:                                              ; preds = %184
  invoke void @_Z12update_valuev()
          to label %190 unwind label %148

190:                                              ; preds = %189
  br label %191

191:                                              ; preds = %208, %190
  %192 = sext i32 %.012 to i64
  %193 = getelementptr inbounds [2 x %"class.std::priority_queue"], [2 x %"class.std::priority_queue"]* %6, i64 0, i64 %192
  %194 = invoke zeroext i1 @_ZNKSt14priority_queueI4DataSt6vectorIS0_SaIS0_EESt4lessIS0_EE5emptyEv(%"class.std::priority_queue"* %193)
          to label %195 unwind label %148

195:                                              ; preds = %191
  %196 = xor i1 %194, true
  br i1 %196, label %197, label %209

197:                                              ; preds = %195
  %198 = sub nsw i32 1, %.012
  %199 = sext i32 %198 to i64
  %200 = getelementptr inbounds [2 x %"class.std::priority_queue"], [2 x %"class.std::priority_queue"]* %6, i64 0, i64 %199
  %201 = sext i32 %.012 to i64
  %202 = getelementptr inbounds [2 x %"class.std::priority_queue"], [2 x %"class.std::priority_queue"]* %6, i64 0, i64 %201
  %203 = invoke dereferenceable(4) %struct.Data* @_ZNKSt14priority_queueI4DataSt6vectorIS0_SaIS0_EESt4lessIS0_EE3topEv(%"class.std::priority_queue"* %202)
          to label %204 unwind label %148

204:                                              ; preds = %197
  invoke void @_ZNSt14priority_queueI4DataSt6vectorIS0_SaIS0_EESt4lessIS0_EE4pushERKS0_(%"class.std::priority_queue"* %200, %struct.Data* dereferenceable(4) %203)
          to label %205 unwind label %148

205:                                              ; preds = %204
  %206 = sext i32 %.012 to i64
  %207 = getelementptr inbounds [2 x %"class.std::priority_queue"], [2 x %"class.std::priority_queue"]* %6, i64 0, i64 %206
  invoke void @_ZNSt14priority_queueI4DataSt6vectorIS0_SaIS0_EESt4lessIS0_EE3popEv(%"class.std::priority_queue"* %207)
          to label %208 unwind label %148

208:                                              ; preds = %205
  br label %191

209:                                              ; preds = %195
  %210 = sub nsw i32 1, %.012
  br label %211

211:                                              ; preds = %209, %184
  %.1 = phi i32 [ %210, %209 ], [ %.012, %184 ]
  br label %212

212:                                              ; preds = %248, %211
  %.06 = phi i32 [ 0, %211 ], [ %249, %248 ]
  %213 = sext i32 %.06 to i64
  %214 = sext i32 %181 to i64
  %215 = getelementptr inbounds [50000 x %"class.std::vector"], [50000 x %"class.std::vector"]* @V, i64 0, i64 %214
  %216 = call i64 @_ZNKSt6vectorIiSaIiEE4sizeEv(%"class.std::vector"* %215) #3
  %217 = icmp ult i64 %213, %216
  br i1 %217, label %218, label %250

218:                                              ; preds = %212
  %219 = sext i32 %181 to i64
  %220 = getelementptr inbounds [50000 x %"class.std::vector"], [50000 x %"class.std::vector"]* @V, i64 0, i64 %219
  %221 = sext i32 %.06 to i64
  %222 = call dereferenceable(4) i32* @_ZNSt6vectorIiSaIiEEixEm(%"class.std::vector"* %220, i64 %221) #3
  %223 = load i32, i32* %222, align 4
  %224 = sext i32 %223 to i64
  %225 = getelementptr inbounds [50000 x i32], [50000 x i32]* @in_num, i64 0, i64 %224
  %226 = load i32, i32* %225, align 4
  %227 = add nsw i32 %226, -1
  store i32 %227, i32* %225, align 4
  %228 = sext i32 %181 to i64
  %229 = getelementptr inbounds [50000 x %"class.std::vector"], [50000 x %"class.std::vector"]* @V, i64 0, i64 %228
  %230 = sext i32 %.06 to i64
  %231 = call dereferenceable(4) i32* @_ZNSt6vectorIiSaIiEEixEm(%"class.std::vector"* %229, i64 %230) #3
  %232 = load i32, i32* %231, align 4
  %233 = sext i32 %232 to i64
  %234 = getelementptr inbounds [50000 x i32], [50000 x i32]* @in_num, i64 0, i64 %233
  %235 = load i32, i32* %234, align 4
  %236 = icmp eq i32 %235, 0
  br i1 %236, label %237, label %247

237:                                              ; preds = %218
  %238 = sext i32 %.1 to i64
  %239 = getelementptr inbounds [2 x %"class.std::priority_queue"], [2 x %"class.std::priority_queue"]* %6, i64 0, i64 %238
  %240 = sext i32 %181 to i64
  %241 = getelementptr inbounds [50000 x %"class.std::vector"], [50000 x %"class.std::vector"]* @V, i64 0, i64 %240
  %242 = sext i32 %.06 to i64
  %243 = call dereferenceable(4) i32* @_ZNSt6vectorIiSaIiEEixEm(%"class.std::vector"* %241, i64 %242) #3
  %244 = load i32, i32* %243, align 4
  invoke void @_ZN4DataC2Ei(%struct.Data* %8, i32 %244)
          to label %245 unwind label %148

245:                                              ; preds = %237
  invoke void @_ZNSt14priority_queueI4DataSt6vectorIS0_SaIS0_EESt4lessIS0_EE4pushEOS0_(%"class.std::priority_queue"* %239, %struct.Data* dereferenceable(4) %8)
          to label %246 unwind label %148

246:                                              ; preds = %245
  br label %247

247:                                              ; preds = %246, %218
  br label %248

248:                                              ; preds = %247
  %249 = add nsw i32 %.06, 1
  br label %212

250:                                              ; preds = %212
  br label %158

251:                                              ; preds = %158
  br label %252

252:                                              ; preds = %251, %174
  %253 = getelementptr inbounds [2 x %"class.std::priority_queue"], [2 x %"class.std::priority_queue"]* %6, i32 0, i32 0
  %254 = getelementptr inbounds %"class.std::priority_queue", %"class.std::priority_queue"* %253, i64 2
  br label %255

255:                                              ; preds = %255, %252
  %256 = phi %"class.std::priority_queue"* [ %254, %252 ], [ %257, %255 ]
  %257 = getelementptr inbounds %"class.std::priority_queue", %"class.std::priority_queue"* %256, i64 -1
  call void @_ZNSt14priority_queueI4DataSt6vectorIS0_SaIS0_EESt4lessIS0_EED2Ev(%"class.std::priority_queue"* %257) #3
  %258 = icmp eq %"class.std::priority_queue"* %257, %253
  br i1 %258, label %259, label %255

259:                                              ; preds = %255
  call void @llvm.stackrestore(i8* %77)
  ret i32 0

260:                                              ; preds = %260, %148
  %261 = phi %"class.std::priority_queue"* [ %153, %148 ], [ %262, %260 ]
  %262 = getelementptr inbounds %"class.std::priority_queue", %"class.std::priority_queue"* %261, i64 -1
  call void @_ZNSt14priority_queueI4DataSt6vectorIS0_SaIS0_EESt4lessIS0_EED2Ev(%"class.std::priority_queue"* %262) #3
  %263 = icmp eq %"class.std::priority_queue"* %262, %152
  br i1 %263, label %264, label %260

264:                                              ; preds = %260
  br label %265

265:                                              ; preds = %264, %147
  %.011 = phi i32 [ %151, %264 ], [ %141, %147 ]
  %.010 = phi i8* [ %150, %264 ], [ %140, %147 ]
  %266 = insertvalue { i8*, i32 } undef, i8* %.010, 0
  %267 = insertvalue { i8*, i32 } %266, i32 %.011, 1
  resume { i8*, i32 } %267
}

declare i32 @scanf(i8*, ...) #1

; Function Attrs: noinline uwtable
define linkonce_odr void @_ZNSt6vectorIiSaIiEE9push_backERKi(%"class.std::vector"* %0, i32* dereferenceable(4) %1) #0 comdat align 2 {
  %3 = alloca %"class.__gnu_cxx::__normal_iterator", align 8
  %4 = bitcast %"class.std::vector"* %0 to %"struct.std::_Vector_base"*
  %5 = getelementptr inbounds %"struct.std::_Vector_base", %"struct.std::_Vector_base"* %4, i32 0, i32 0
  %6 = getelementptr inbounds %"struct.std::_Vector_base<int, std::allocator<int> >::_Vector_impl", %"struct.std::_Vector_base<int, std::allocator<int> >::_Vector_impl"* %5, i32 0, i32 1
  %7 = load i32*, i32** %6, align 8
  %8 = bitcast %"class.std::vector"* %0 to %"struct.std::_Vector_base"*
  %9 = getelementptr inbounds %"struct.std::_Vector_base", %"struct.std::_Vector_base"* %8, i32 0, i32 0
  %10 = getelementptr inbounds %"struct.std::_Vector_base<int, std::allocator<int> >::_Vector_impl", %"struct.std::_Vector_base<int, std::allocator<int> >::_Vector_impl"* %9, i32 0, i32 2
  %11 = load i32*, i32** %10, align 8
  %12 = icmp ne i32* %7, %11
  br i1 %12, label %13, label %26

13:                                               ; preds = %2
  %14 = bitcast %"class.std::vector"* %0 to %"struct.std::_Vector_base"*
  %15 = getelementptr inbounds %"struct.std::_Vector_base", %"struct.std::_Vector_base"* %14, i32 0, i32 0
  %16 = bitcast %"struct.std::_Vector_base<int, std::allocator<int> >::_Vector_impl"* %15 to %"class.std::allocator"*
  %17 = bitcast %"class.std::vector"* %0 to %"struct.std::_Vector_base"*
  %18 = getelementptr inbounds %"struct.std::_Vector_base", %"struct.std::_Vector_base"* %17, i32 0, i32 0
  %19 = getelementptr inbounds %"struct.std::_Vector_base<int, std::allocator<int> >::_Vector_impl", %"struct.std::_Vector_base<int, std::allocator<int> >::_Vector_impl"* %18, i32 0, i32 1
  %20 = load i32*, i32** %19, align 8
  call void @_ZNSt16allocator_traitsISaIiEE9constructIiJRKiEEEvRS0_PT_DpOT0_(%"class.std::allocator"* dereferenceable(1) %16, i32* %20, i32* dereferenceable(4) %1)
  %21 = bitcast %"class.std::vector"* %0 to %"struct.std::_Vector_base"*
  %22 = getelementptr inbounds %"struct.std::_Vector_base", %"struct.std::_Vector_base"* %21, i32 0, i32 0
  %23 = getelementptr inbounds %"struct.std::_Vector_base<int, std::allocator<int> >::_Vector_impl", %"struct.std::_Vector_base<int, std::allocator<int> >::_Vector_impl"* %22, i32 0, i32 1
  %24 = load i32*, i32** %23, align 8
  %25 = getelementptr inbounds i32, i32* %24, i32 1
  store i32* %25, i32** %23, align 8
  br label %31

26:                                               ; preds = %2
  %27 = call i32* @_ZNSt6vectorIiSaIiEE3endEv(%"class.std::vector"* %0) #3
  %28 = getelementptr inbounds %"class.__gnu_cxx::__normal_iterator", %"class.__gnu_cxx::__normal_iterator"* %3, i32 0, i32 0
  store i32* %27, i32** %28, align 8
  %29 = getelementptr inbounds %"class.__gnu_cxx::__normal_iterator", %"class.__gnu_cxx::__normal_iterator"* %3, i32 0, i32 0
  %30 = load i32*, i32** %29, align 8
  call void @_ZNSt6vectorIiSaIiEE17_M_realloc_insertIJRKiEEEvN9__gnu_cxx17__normal_iteratorIPiS1_EEDpOT_(%"class.std::vector"* %0, i32* %30, i32* dereferenceable(4) %1)
  br label %31

31:                                               ; preds = %26, %13
  ret void
}

; Function Attrs: nocallback nofree nosync nounwind willreturn
declare i8* @llvm.stacksave() #6

; Function Attrs: noinline nounwind uwtable
define linkonce_odr void @_ZNSt14priority_queueI4DataSt6vectorIS0_SaIS0_EESt4lessIS0_EEC2IS3_vEEv(%"class.std::priority_queue"* %0) unnamed_addr #4 comdat align 2 {
  %2 = getelementptr inbounds %"class.std::priority_queue", %"class.std::priority_queue"* %0, i32 0, i32 0
  call void @_ZNSt6vectorI4DataSaIS0_EEC2Ev(%"class.std::vector.0"* %2) #3
  %3 = getelementptr inbounds %"class.std::priority_queue", %"class.std::priority_queue"* %0, i32 0, i32 1
  ret void
}

declare i32 @__gxx_personality_v0(...)

; Function Attrs: noinline nounwind uwtable
define linkonce_odr void @_ZNSt14priority_queueI4DataSt6vectorIS0_SaIS0_EESt4lessIS0_EED2Ev(%"class.std::priority_queue"* %0) unnamed_addr #4 comdat align 2 {
  %2 = getelementptr inbounds %"class.std::priority_queue", %"class.std::priority_queue"* %0, i32 0, i32 0
  call void @_ZNSt6vectorI4DataSaIS0_EED2Ev(%"class.std::vector.0"* %2) #3
  ret void
}

; Function Attrs: noinline uwtable
define linkonce_odr void @_ZNSt14priority_queueI4DataSt6vectorIS0_SaIS0_EESt4lessIS0_EE4pushEOS0_(%"class.std::priority_queue"* %0, %struct.Data* dereferenceable(4) %1) #0 comdat align 2 {
  %3 = alloca %"class.__gnu_cxx::__normal_iterator.5", align 8
  %4 = alloca %"class.__gnu_cxx::__normal_iterator.5", align 8
  %5 = getelementptr inbounds %"class.std::priority_queue", %"class.std::priority_queue"* %0, i32 0, i32 0
  %6 = call dereferenceable(4) %struct.Data* @_ZSt4moveIR4DataEONSt16remove_referenceIT_E4typeEOS3_(%struct.Data* dereferenceable(4) %1) #3
  call void @_ZNSt6vectorI4DataSaIS0_EE9push_backEOS0_(%"class.std::vector.0"* %5, %struct.Data* dereferenceable(4) %6)
  %7 = getelementptr inbounds %"class.std::priority_queue", %"class.std::priority_queue"* %0, i32 0, i32 0
  %8 = call %struct.Data* @_ZNSt6vectorI4DataSaIS0_EE5beginEv(%"class.std::vector.0"* %7) #3
  %9 = getelementptr inbounds %"class.__gnu_cxx::__normal_iterator.5", %"class.__gnu_cxx::__normal_iterator.5"* %3, i32 0, i32 0
  store %struct.Data* %8, %struct.Data** %9, align 8
  %10 = getelementptr inbounds %"class.std::priority_queue", %"class.std::priority_queue"* %0, i32 0, i32 0
  %11 = call %struct.Data* @_ZNSt6vectorI4DataSaIS0_EE3endEv(%"class.std::vector.0"* %10) #3
  %12 = getelementptr inbounds %"class.__gnu_cxx::__normal_iterator.5", %"class.__gnu_cxx::__normal_iterator.5"* %4, i32 0, i32 0
  store %struct.Data* %11, %struct.Data** %12, align 8
  %13 = getelementptr inbounds %"class.std::priority_queue", %"class.std::priority_queue"* %0, i32 0, i32 1
  %14 = getelementptr inbounds %"class.__gnu_cxx::__normal_iterator.5", %"class.__gnu_cxx::__normal_iterator.5"* %3, i32 0, i32 0
  %15 = load %struct.Data*, %struct.Data** %14, align 8
  %16 = getelementptr inbounds %"class.__gnu_cxx::__normal_iterator.5", %"class.__gnu_cxx::__normal_iterator.5"* %4, i32 0, i32 0
  %17 = load %struct.Data*, %struct.Data** %16, align 8
  call void @_ZSt9push_heapIN9__gnu_cxx17__normal_iteratorIP4DataSt6vectorIS2_SaIS2_EEEESt4lessIS2_EEvT_SA_T0_(%struct.Data* %15, %struct.Data* %17)
  ret void
}

; Function Attrs: noinline nounwind uwtable
define linkonce_odr void @_ZN4DataC2Ei(%struct.Data* %0, i32 %1) unnamed_addr #4 comdat align 2 {
  %3 = getelementptr inbounds %struct.Data, %struct.Data* %0, i32 0, i32 0
  store i32 %1, i32* %3, align 4
  ret void
}

declare i32 @printf(i8*, ...) #1

; Function Attrs: noinline nounwind uwtable
define linkonce_odr dereferenceable(4) %struct.Data* @_ZNKSt14priority_queueI4DataSt6vectorIS0_SaIS0_EESt4lessIS0_EE3topEv(%"class.std::priority_queue"* %0) #4 comdat align 2 {
  %2 = getelementptr inbounds %"class.std::priority_queue", %"class.std::priority_queue"* %0, i32 0, i32 0
  %3 = call dereferenceable(4) %struct.Data* @_ZNKSt6vectorI4DataSaIS0_EE5frontEv(%"class.std::vector.0"* %2) #3
  ret %struct.Data* %3
}

; Function Attrs: noinline uwtable
define linkonce_odr void @_ZNSt14priority_queueI4DataSt6vectorIS0_SaIS0_EESt4lessIS0_EE3popEv(%"class.std::priority_queue"* %0) #0 comdat align 2 {
  %2 = alloca %"class.__gnu_cxx::__normal_iterator.5", align 8
  %3 = alloca %"class.__gnu_cxx::__normal_iterator.5", align 8
  %4 = getelementptr inbounds %"class.std::priority_queue", %"class.std::priority_queue"* %0, i32 0, i32 0
  %5 = call %struct.Data* @_ZNSt6vectorI4DataSaIS0_EE5beginEv(%"class.std::vector.0"* %4) #3
  %6 = getelementptr inbounds %"class.__gnu_cxx::__normal_iterator.5", %"class.__gnu_cxx::__normal_iterator.5"* %2, i32 0, i32 0
  store %struct.Data* %5, %struct.Data** %6, align 8
  %7 = getelementptr inbounds %"class.std::priority_queue", %"class.std::priority_queue"* %0, i32 0, i32 0
  %8 = call %struct.Data* @_ZNSt6vectorI4DataSaIS0_EE3endEv(%"class.std::vector.0"* %7) #3
  %9 = getelementptr inbounds %"class.__gnu_cxx::__normal_iterator.5", %"class.__gnu_cxx::__normal_iterator.5"* %3, i32 0, i32 0
  store %struct.Data* %8, %struct.Data** %9, align 8
  %10 = getelementptr inbounds %"class.std::priority_queue", %"class.std::priority_queue"* %0, i32 0, i32 1
  %11 = getelementptr inbounds %"class.__gnu_cxx::__normal_iterator.5", %"class.__gnu_cxx::__normal_iterator.5"* %2, i32 0, i32 0
  %12 = load %struct.Data*, %struct.Data** %11, align 8
  %13 = getelementptr inbounds %"class.__gnu_cxx::__normal_iterator.5", %"class.__gnu_cxx::__normal_iterator.5"* %3, i32 0, i32 0
  %14 = load %struct.Data*, %struct.Data** %13, align 8
  call void @_ZSt8pop_heapIN9__gnu_cxx17__normal_iteratorIP4DataSt6vectorIS2_SaIS2_EEEESt4lessIS2_EEvT_SA_T0_(%struct.Data* %12, %struct.Data* %14)
  %15 = getelementptr inbounds %"class.std::priority_queue", %"class.std::priority_queue"* %0, i32 0, i32 0
  call void @_ZNSt6vectorI4DataSaIS0_EE8pop_backEv(%"class.std::vector.0"* %15) #3
  ret void
}

; Function Attrs: noinline nounwind uwtable
define linkonce_odr zeroext i1 @_ZNKSt14priority_queueI4DataSt6vectorIS0_SaIS0_EESt4lessIS0_EE5emptyEv(%"class.std::priority_queue"* %0) #4 comdat align 2 {
  %2 = getelementptr inbounds %"class.std::priority_queue", %"class.std::priority_queue"* %0, i32 0, i32 0
  %3 = call zeroext i1 @_ZNKSt6vectorI4DataSaIS0_EE5emptyEv(%"class.std::vector.0"* %2) #3
  ret i1 %3
}

; Function Attrs: noinline uwtable
define linkonce_odr void @_ZNSt14priority_queueI4DataSt6vectorIS0_SaIS0_EESt4lessIS0_EE4pushERKS0_(%"class.std::priority_queue"* %0, %struct.Data* dereferenceable(4) %1) #0 comdat align 2 {
  %3 = alloca %"class.__gnu_cxx::__normal_iterator.5", align 8
  %4 = alloca %"class.__gnu_cxx::__normal_iterator.5", align 8
  %5 = getelementptr inbounds %"class.std::priority_queue", %"class.std::priority_queue"* %0, i32 0, i32 0
  call void @_ZNSt6vectorI4DataSaIS0_EE9push_backERKS0_(%"class.std::vector.0"* %5, %struct.Data* dereferenceable(4) %1)
  %6 = getelementptr inbounds %"class.std::priority_queue", %"class.std::priority_queue"* %0, i32 0, i32 0
  %7 = call %struct.Data* @_ZNSt6vectorI4DataSaIS0_EE5beginEv(%"class.std::vector.0"* %6) #3
  %8 = getelementptr inbounds %"class.__gnu_cxx::__normal_iterator.5", %"class.__gnu_cxx::__normal_iterator.5"* %3, i32 0, i32 0
  store %struct.Data* %7, %struct.Data** %8, align 8
  %9 = getelementptr inbounds %"class.std::priority_queue", %"class.std::priority_queue"* %0, i32 0, i32 0
  %10 = call %struct.Data* @_ZNSt6vectorI4DataSaIS0_EE3endEv(%"class.std::vector.0"* %9) #3
  %11 = getelementptr inbounds %"class.__gnu_cxx::__normal_iterator.5", %"class.__gnu_cxx::__normal_iterator.5"* %4, i32 0, i32 0
  store %struct.Data* %10, %struct.Data** %11, align 8
  %12 = getelementptr inbounds %"class.std::priority_queue", %"class.std::priority_queue"* %0, i32 0, i32 1
  %13 = getelementptr inbounds %"class.__gnu_cxx::__normal_iterator.5", %"class.__gnu_cxx::__normal_iterator.5"* %3, i32 0, i32 0
  %14 = load %struct.Data*, %struct.Data** %13, align 8
  %15 = getelementptr inbounds %"class.__gnu_cxx::__normal_iterator.5", %"class.__gnu_cxx::__normal_iterator.5"* %4, i32 0, i32 0
  %16 = load %struct.Data*, %struct.Data** %15, align 8
  call void @_ZSt9push_heapIN9__gnu_cxx17__normal_iteratorIP4DataSt6vectorIS2_SaIS2_EEEESt4lessIS2_EEvT_SA_T0_(%struct.Data* %14, %struct.Data* %16)
  ret void
}

; Function Attrs: noinline nounwind uwtable
define linkonce_odr i64 @_ZNKSt6vectorIiSaIiEE4sizeEv(%"class.std::vector"* %0) #4 comdat align 2 {
  %2 = bitcast %"class.std::vector"* %0 to %"struct.std::_Vector_base"*
  %3 = getelementptr inbounds %"struct.std::_Vector_base", %"struct.std::_Vector_base"* %2, i32 0, i32 0
  %4 = getelementptr inbounds %"struct.std::_Vector_base<int, std::allocator<int> >::_Vector_impl", %"struct.std::_Vector_base<int, std::allocator<int> >::_Vector_impl"* %3, i32 0, i32 1
  %5 = load i32*, i32** %4, align 8
  %6 = bitcast %"class.std::vector"* %0 to %"struct.std::_Vector_base"*
  %7 = getelementptr inbounds %"struct.std::_Vector_base", %"struct.std::_Vector_base"* %6, i32 0, i32 0
  %8 = getelementptr inbounds %"struct.std::_Vector_base<int, std::allocator<int> >::_Vector_impl", %"struct.std::_Vector_base<int, std::allocator<int> >::_Vector_impl"* %7, i32 0, i32 0
  %9 = load i32*, i32** %8, align 8
  %10 = ptrtoint i32* %5 to i64
  %11 = ptrtoint i32* %9 to i64
  %12 = sub i64 %10, %11
  %13 = sdiv exact i64 %12, 4
  ret i64 %13
}

; Function Attrs: noinline nounwind uwtable
define linkonce_odr dereferenceable(4) i32* @_ZNSt6vectorIiSaIiEEixEm(%"class.std::vector"* %0, i64 %1) #4 comdat align 2 {
  %3 = bitcast %"class.std::vector"* %0 to %"struct.std::_Vector_base"*
  %4 = getelementptr inbounds %"struct.std::_Vector_base", %"struct.std::_Vector_base"* %3, i32 0, i32 0
  %5 = getelementptr inbounds %"struct.std::_Vector_base<int, std::allocator<int> >::_Vector_impl", %"struct.std::_Vector_base<int, std::allocator<int> >::_Vector_impl"* %4, i32 0, i32 0
  %6 = load i32*, i32** %5, align 8
  %7 = getelementptr inbounds i32, i32* %6, i64 %1
  ret i32* %7
}

; Function Attrs: nocallback nofree nosync nounwind willreturn
declare void @llvm.stackrestore(i8*) #6

; Function Attrs: noinline nounwind uwtable
define linkonce_odr void @_ZNSt6vectorI4DataSaIS0_EED2Ev(%"class.std::vector.0"* %0) unnamed_addr #4 comdat align 2 personality i8* bitcast (i32 (...)* @__gxx_personality_v0 to i8*) {
  %2 = bitcast %"class.std::vector.0"* %0 to %"struct.std::_Vector_base.1"*
  %3 = getelementptr inbounds %"struct.std::_Vector_base.1", %"struct.std::_Vector_base.1"* %2, i32 0, i32 0
  %4 = getelementptr inbounds %"struct.std::_Vector_base<Data, std::allocator<Data> >::_Vector_impl", %"struct.std::_Vector_base<Data, std::allocator<Data> >::_Vector_impl"* %3, i32 0, i32 0
  %5 = load %struct.Data*, %struct.Data** %4, align 8
  %6 = bitcast %"class.std::vector.0"* %0 to %"struct.std::_Vector_base.1"*
  %7 = getelementptr inbounds %"struct.std::_Vector_base.1", %"struct.std::_Vector_base.1"* %6, i32 0, i32 0
  %8 = getelementptr inbounds %"struct.std::_Vector_base<Data, std::allocator<Data> >::_Vector_impl", %"struct.std::_Vector_base<Data, std::allocator<Data> >::_Vector_impl"* %7, i32 0, i32 1
  %9 = load %struct.Data*, %struct.Data** %8, align 8
  %10 = bitcast %"class.std::vector.0"* %0 to %"struct.std::_Vector_base.1"*
  %11 = call dereferenceable(1) %"class.std::allocator.2"* @_ZNSt12_Vector_baseI4DataSaIS0_EE19_M_get_Tp_allocatorEv(%"struct.std::_Vector_base.1"* %10) #3
  invoke void @_ZSt8_DestroyIP4DataS0_EvT_S2_RSaIT0_E(%struct.Data* %5, %struct.Data* %9, %"class.std::allocator.2"* dereferenceable(1) %11)
          to label %12 unwind label %14

12:                                               ; preds = %1
  %13 = bitcast %"class.std::vector.0"* %0 to %"struct.std::_Vector_base.1"*
  call void @_ZNSt12_Vector_baseI4DataSaIS0_EED2Ev(%"struct.std::_Vector_base.1"* %13) #3
  ret void

14:                                               ; preds = %1
  %15 = landingpad { i8*, i32 }
          catch i8* null
  %16 = extractvalue { i8*, i32 } %15, 0
  %17 = extractvalue { i8*, i32 } %15, 1
  %18 = bitcast %"class.std::vector.0"* %0 to %"struct.std::_Vector_base.1"*
  call void @_ZNSt12_Vector_baseI4DataSaIS0_EED2Ev(%"struct.std::_Vector_base.1"* %18) #3
  br label %19

19:                                               ; preds = %14
  call void @__clang_call_terminate(i8* %16) #13
  unreachable
}

; Function Attrs: noinline uwtable
define linkonce_odr void @_ZSt8_DestroyIP4DataS0_EvT_S2_RSaIT0_E(%struct.Data* %0, %struct.Data* %1, %"class.std::allocator.2"* dereferenceable(1) %2) #0 comdat {
  call void @_ZSt8_DestroyIP4DataEvT_S2_(%struct.Data* %0, %struct.Data* %1)
  ret void
}

; Function Attrs: noinline nounwind uwtable
define linkonce_odr dereferenceable(1) %"class.std::allocator.2"* @_ZNSt12_Vector_baseI4DataSaIS0_EE19_M_get_Tp_allocatorEv(%"struct.std::_Vector_base.1"* %0) #4 comdat align 2 {
  %2 = getelementptr inbounds %"struct.std::_Vector_base.1", %"struct.std::_Vector_base.1"* %0, i32 0, i32 0
  %3 = bitcast %"struct.std::_Vector_base<Data, std::allocator<Data> >::_Vector_impl"* %2 to %"class.std::allocator.2"*
  ret %"class.std::allocator.2"* %3
}

; Function Attrs: noinline nounwind uwtable
define linkonce_odr void @_ZNSt12_Vector_baseI4DataSaIS0_EED2Ev(%"struct.std::_Vector_base.1"* %0) unnamed_addr #4 comdat align 2 personality i8* bitcast (i32 (...)* @__gxx_personality_v0 to i8*) {
  %2 = getelementptr inbounds %"struct.std::_Vector_base.1", %"struct.std::_Vector_base.1"* %0, i32 0, i32 0
  %3 = getelementptr inbounds %"struct.std::_Vector_base<Data, std::allocator<Data> >::_Vector_impl", %"struct.std::_Vector_base<Data, std::allocator<Data> >::_Vector_impl"* %2, i32 0, i32 0
  %4 = load %struct.Data*, %struct.Data** %3, align 8
  %5 = getelementptr inbounds %"struct.std::_Vector_base.1", %"struct.std::_Vector_base.1"* %0, i32 0, i32 0
  %6 = getelementptr inbounds %"struct.std::_Vector_base<Data, std::allocator<Data> >::_Vector_impl", %"struct.std::_Vector_base<Data, std::allocator<Data> >::_Vector_impl"* %5, i32 0, i32 2
  %7 = load %struct.Data*, %struct.Data** %6, align 8
  %8 = getelementptr inbounds %"struct.std::_Vector_base.1", %"struct.std::_Vector_base.1"* %0, i32 0, i32 0
  %9 = getelementptr inbounds %"struct.std::_Vector_base<Data, std::allocator<Data> >::_Vector_impl", %"struct.std::_Vector_base<Data, std::allocator<Data> >::_Vector_impl"* %8, i32 0, i32 0
  %10 = load %struct.Data*, %struct.Data** %9, align 8
  %11 = ptrtoint %struct.Data* %7 to i64
  %12 = ptrtoint %struct.Data* %10 to i64
  %13 = sub i64 %11, %12
  %14 = sdiv exact i64 %13, 4
  invoke void @_ZNSt12_Vector_baseI4DataSaIS0_EE13_M_deallocateEPS0_m(%"struct.std::_Vector_base.1"* %0, %struct.Data* %4, i64 %14)
          to label %15 unwind label %17

15:                                               ; preds = %1
  %16 = getelementptr inbounds %"struct.std::_Vector_base.1", %"struct.std::_Vector_base.1"* %0, i32 0, i32 0
  call void @_ZNSt12_Vector_baseI4DataSaIS0_EE12_Vector_implD2Ev(%"struct.std::_Vector_base<Data, std::allocator<Data> >::_Vector_impl"* %16) #3
  ret void

17:                                               ; preds = %1
  %18 = landingpad { i8*, i32 }
          catch i8* null
  %19 = extractvalue { i8*, i32 } %18, 0
  %20 = extractvalue { i8*, i32 } %18, 1
  %21 = getelementptr inbounds %"struct.std::_Vector_base.1", %"struct.std::_Vector_base.1"* %0, i32 0, i32 0
  call void @_ZNSt12_Vector_baseI4DataSaIS0_EE12_Vector_implD2Ev(%"struct.std::_Vector_base<Data, std::allocator<Data> >::_Vector_impl"* %21) #3
  br label %22

22:                                               ; preds = %17
  call void @__clang_call_terminate(i8* %19) #13
  unreachable
}

; Function Attrs: noinline noreturn nounwind
define linkonce_odr hidden void @__clang_call_terminate(i8* %0) #7 comdat {
  %2 = call i8* @__cxa_begin_catch(i8* %0) #3
  call void @_ZSt9terminatev() #13
  unreachable
}

declare i8* @__cxa_begin_catch(i8*)

declare void @_ZSt9terminatev()

; Function Attrs: noinline uwtable
define linkonce_odr void @_ZSt8_DestroyIP4DataEvT_S2_(%struct.Data* %0, %struct.Data* %1) #0 comdat {
  call void @_ZNSt12_Destroy_auxILb1EE9__destroyIP4DataEEvT_S4_(%struct.Data* %0, %struct.Data* %1)
  ret void
}

; Function Attrs: noinline nounwind uwtable
define linkonce_odr void @_ZNSt12_Destroy_auxILb1EE9__destroyIP4DataEEvT_S4_(%struct.Data* %0, %struct.Data* %1) #4 comdat align 2 {
  ret void
}

; Function Attrs: noinline uwtable
define linkonce_odr void @_ZNSt12_Vector_baseI4DataSaIS0_EE13_M_deallocateEPS0_m(%"struct.std::_Vector_base.1"* %0, %struct.Data* %1, i64 %2) #0 comdat align 2 {
  %4 = icmp ne %struct.Data* %1, null
  br i1 %4, label %5, label %8

5:                                                ; preds = %3
  %6 = getelementptr inbounds %"struct.std::_Vector_base.1", %"struct.std::_Vector_base.1"* %0, i32 0, i32 0
  %7 = bitcast %"struct.std::_Vector_base<Data, std::allocator<Data> >::_Vector_impl"* %6 to %"class.std::allocator.2"*
  call void @_ZNSt16allocator_traitsISaI4DataEE10deallocateERS1_PS0_m(%"class.std::allocator.2"* dereferenceable(1) %7, %struct.Data* %1, i64 %2)
  br label %8

8:                                                ; preds = %5, %3
  ret void
}

; Function Attrs: noinline nounwind uwtable
define linkonce_odr void @_ZNSt12_Vector_baseI4DataSaIS0_EE12_Vector_implD2Ev(%"struct.std::_Vector_base<Data, std::allocator<Data> >::_Vector_impl"* %0) unnamed_addr #4 comdat align 2 {
  %2 = bitcast %"struct.std::_Vector_base<Data, std::allocator<Data> >::_Vector_impl"* %0 to %"class.std::allocator.2"*
  call void @_ZNSaI4DataED2Ev(%"class.std::allocator.2"* %2) #3
  ret void
}

; Function Attrs: noinline uwtable
define linkonce_odr void @_ZNSt16allocator_traitsISaI4DataEE10deallocateERS1_PS0_m(%"class.std::allocator.2"* dereferenceable(1) %0, %struct.Data* %1, i64 %2) #0 comdat align 2 {
  %4 = bitcast %"class.std::allocator.2"* %0 to %"class.__gnu_cxx::new_allocator.3"*
  call void @_ZN9__gnu_cxx13new_allocatorI4DataE10deallocateEPS1_m(%"class.__gnu_cxx::new_allocator.3"* %4, %struct.Data* %1, i64 %2)
  ret void
}

; Function Attrs: noinline nounwind uwtable
define linkonce_odr void @_ZN9__gnu_cxx13new_allocatorI4DataE10deallocateEPS1_m(%"class.__gnu_cxx::new_allocator.3"* %0, %struct.Data* %1, i64 %2) #4 comdat align 2 {
  %4 = bitcast %struct.Data* %1 to i8*
  call void @_ZdlPv(i8* %4) #3
  ret void
}

; Function Attrs: nobuiltin nounwind
declare void @_ZdlPv(i8*) #8

; Function Attrs: noinline nounwind uwtable
define linkonce_odr void @_ZNSaI4DataED2Ev(%"class.std::allocator.2"* %0) unnamed_addr #4 comdat align 2 {
  %2 = bitcast %"class.std::allocator.2"* %0 to %"class.__gnu_cxx::new_allocator.3"*
  call void @_ZN9__gnu_cxx13new_allocatorI4DataED2Ev(%"class.__gnu_cxx::new_allocator.3"* %2) #3
  ret void
}

; Function Attrs: noinline nounwind uwtable
define linkonce_odr void @_ZN9__gnu_cxx13new_allocatorI4DataED2Ev(%"class.__gnu_cxx::new_allocator.3"* %0) unnamed_addr #4 comdat align 2 {
  ret void
}

; Function Attrs: noinline uwtable
define linkonce_odr void @_ZNSt12_Vector_baseIiSaIiEEC2Ev(%"struct.std::_Vector_base"* %0) unnamed_addr #0 comdat align 2 {
  %2 = getelementptr inbounds %"struct.std::_Vector_base", %"struct.std::_Vector_base"* %0, i32 0, i32 0
  call void @_ZNSt12_Vector_baseIiSaIiEE12_Vector_implC2Ev(%"struct.std::_Vector_base<int, std::allocator<int> >::_Vector_impl"* %2)
  ret void
}

; Function Attrs: noinline nounwind uwtable
define linkonce_odr void @_ZNSt12_Vector_baseIiSaIiEE12_Vector_implC2Ev(%"struct.std::_Vector_base<int, std::allocator<int> >::_Vector_impl"* %0) unnamed_addr #4 comdat align 2 {
  %2 = bitcast %"struct.std::_Vector_base<int, std::allocator<int> >::_Vector_impl"* %0 to %"class.std::allocator"*
  call void @_ZNSaIiEC2Ev(%"class.std::allocator"* %2) #3
  %3 = getelementptr inbounds %"struct.std::_Vector_base<int, std::allocator<int> >::_Vector_impl", %"struct.std::_Vector_base<int, std::allocator<int> >::_Vector_impl"* %0, i32 0, i32 0
  store i32* null, i32** %3, align 8
  %4 = getelementptr inbounds %"struct.std::_Vector_base<int, std::allocator<int> >::_Vector_impl", %"struct.std::_Vector_base<int, std::allocator<int> >::_Vector_impl"* %0, i32 0, i32 1
  store i32* null, i32** %4, align 8
  %5 = getelementptr inbounds %"struct.std::_Vector_base<int, std::allocator<int> >::_Vector_impl", %"struct.std::_Vector_base<int, std::allocator<int> >::_Vector_impl"* %0, i32 0, i32 2
  store i32* null, i32** %5, align 8
  ret void
}

; Function Attrs: noinline nounwind uwtable
define linkonce_odr void @_ZNSaIiEC2Ev(%"class.std::allocator"* %0) unnamed_addr #4 comdat align 2 {
  %2 = bitcast %"class.std::allocator"* %0 to %"class.__gnu_cxx::new_allocator"*
  call void @_ZN9__gnu_cxx13new_allocatorIiEC2Ev(%"class.__gnu_cxx::new_allocator"* %2) #3
  ret void
}

; Function Attrs: noinline nounwind uwtable
define linkonce_odr void @_ZN9__gnu_cxx13new_allocatorIiEC2Ev(%"class.__gnu_cxx::new_allocator"* %0) unnamed_addr #4 comdat align 2 {
  ret void
}

; Function Attrs: noinline uwtable
define linkonce_odr void @_ZSt8_DestroyIPiiEvT_S1_RSaIT0_E(i32* %0, i32* %1, %"class.std::allocator"* dereferenceable(1) %2) #0 comdat {
  call void @_ZSt8_DestroyIPiEvT_S1_(i32* %0, i32* %1)
  ret void
}

; Function Attrs: noinline nounwind uwtable
define linkonce_odr dereferenceable(1) %"class.std::allocator"* @_ZNSt12_Vector_baseIiSaIiEE19_M_get_Tp_allocatorEv(%"struct.std::_Vector_base"* %0) #4 comdat align 2 {
  %2 = getelementptr inbounds %"struct.std::_Vector_base", %"struct.std::_Vector_base"* %0, i32 0, i32 0
  %3 = bitcast %"struct.std::_Vector_base<int, std::allocator<int> >::_Vector_impl"* %2 to %"class.std::allocator"*
  ret %"class.std::allocator"* %3
}

; Function Attrs: noinline nounwind uwtable
define linkonce_odr void @_ZNSt12_Vector_baseIiSaIiEED2Ev(%"struct.std::_Vector_base"* %0) unnamed_addr #4 comdat align 2 personality i8* bitcast (i32 (...)* @__gxx_personality_v0 to i8*) {
  %2 = getelementptr inbounds %"struct.std::_Vector_base", %"struct.std::_Vector_base"* %0, i32 0, i32 0
  %3 = getelementptr inbounds %"struct.std::_Vector_base<int, std::allocator<int> >::_Vector_impl", %"struct.std::_Vector_base<int, std::allocator<int> >::_Vector_impl"* %2, i32 0, i32 0
  %4 = load i32*, i32** %3, align 8
  %5 = getelementptr inbounds %"struct.std::_Vector_base", %"struct.std::_Vector_base"* %0, i32 0, i32 0
  %6 = getelementptr inbounds %"struct.std::_Vector_base<int, std::allocator<int> >::_Vector_impl", %"struct.std::_Vector_base<int, std::allocator<int> >::_Vector_impl"* %5, i32 0, i32 2
  %7 = load i32*, i32** %6, align 8
  %8 = getelementptr inbounds %"struct.std::_Vector_base", %"struct.std::_Vector_base"* %0, i32 0, i32 0
  %9 = getelementptr inbounds %"struct.std::_Vector_base<int, std::allocator<int> >::_Vector_impl", %"struct.std::_Vector_base<int, std::allocator<int> >::_Vector_impl"* %8, i32 0, i32 0
  %10 = load i32*, i32** %9, align 8
  %11 = ptrtoint i32* %7 to i64
  %12 = ptrtoint i32* %10 to i64
  %13 = sub i64 %11, %12
  %14 = sdiv exact i64 %13, 4
  invoke void @_ZNSt12_Vector_baseIiSaIiEE13_M_deallocateEPim(%"struct.std::_Vector_base"* %0, i32* %4, i64 %14)
          to label %15 unwind label %17

15:                                               ; preds = %1
  %16 = getelementptr inbounds %"struct.std::_Vector_base", %"struct.std::_Vector_base"* %0, i32 0, i32 0
  call void @_ZNSt12_Vector_baseIiSaIiEE12_Vector_implD2Ev(%"struct.std::_Vector_base<int, std::allocator<int> >::_Vector_impl"* %16) #3
  ret void

17:                                               ; preds = %1
  %18 = landingpad { i8*, i32 }
          catch i8* null
  %19 = extractvalue { i8*, i32 } %18, 0
  %20 = extractvalue { i8*, i32 } %18, 1
  %21 = getelementptr inbounds %"struct.std::_Vector_base", %"struct.std::_Vector_base"* %0, i32 0, i32 0
  call void @_ZNSt12_Vector_baseIiSaIiEE12_Vector_implD2Ev(%"struct.std::_Vector_base<int, std::allocator<int> >::_Vector_impl"* %21) #3
  br label %22

22:                                               ; preds = %17
  call void @__clang_call_terminate(i8* %19) #13
  unreachable
}

; Function Attrs: noinline uwtable
define linkonce_odr void @_ZSt8_DestroyIPiEvT_S1_(i32* %0, i32* %1) #0 comdat {
  call void @_ZNSt12_Destroy_auxILb1EE9__destroyIPiEEvT_S3_(i32* %0, i32* %1)
  ret void
}

; Function Attrs: noinline nounwind uwtable
define linkonce_odr void @_ZNSt12_Destroy_auxILb1EE9__destroyIPiEEvT_S3_(i32* %0, i32* %1) #4 comdat align 2 {
  ret void
}

; Function Attrs: noinline uwtable
define linkonce_odr void @_ZNSt12_Vector_baseIiSaIiEE13_M_deallocateEPim(%"struct.std::_Vector_base"* %0, i32* %1, i64 %2) #0 comdat align 2 {
  %4 = icmp ne i32* %1, null
  br i1 %4, label %5, label %8

5:                                                ; preds = %3
  %6 = getelementptr inbounds %"struct.std::_Vector_base", %"struct.std::_Vector_base"* %0, i32 0, i32 0
  %7 = bitcast %"struct.std::_Vector_base<int, std::allocator<int> >::_Vector_impl"* %6 to %"class.std::allocator"*
  call void @_ZNSt16allocator_traitsISaIiEE10deallocateERS0_Pim(%"class.std::allocator"* dereferenceable(1) %7, i32* %1, i64 %2)
  br label %8

8:                                                ; preds = %5, %3
  ret void
}

; Function Attrs: noinline nounwind uwtable
define linkonce_odr void @_ZNSt12_Vector_baseIiSaIiEE12_Vector_implD2Ev(%"struct.std::_Vector_base<int, std::allocator<int> >::_Vector_impl"* %0) unnamed_addr #4 comdat align 2 {
  %2 = bitcast %"struct.std::_Vector_base<int, std::allocator<int> >::_Vector_impl"* %0 to %"class.std::allocator"*
  call void @_ZNSaIiED2Ev(%"class.std::allocator"* %2) #3
  ret void
}

; Function Attrs: noinline uwtable
define linkonce_odr void @_ZNSt16allocator_traitsISaIiEE10deallocateERS0_Pim(%"class.std::allocator"* dereferenceable(1) %0, i32* %1, i64 %2) #0 comdat align 2 {
  %4 = bitcast %"class.std::allocator"* %0 to %"class.__gnu_cxx::new_allocator"*
  call void @_ZN9__gnu_cxx13new_allocatorIiE10deallocateEPim(%"class.__gnu_cxx::new_allocator"* %4, i32* %1, i64 %2)
  ret void
}

; Function Attrs: noinline nounwind uwtable
define linkonce_odr void @_ZN9__gnu_cxx13new_allocatorIiE10deallocateEPim(%"class.__gnu_cxx::new_allocator"* %0, i32* %1, i64 %2) #4 comdat align 2 {
  %4 = bitcast i32* %1 to i8*
  call void @_ZdlPv(i8* %4) #3
  ret void
}

; Function Attrs: noinline nounwind uwtable
define linkonce_odr void @_ZNSaIiED2Ev(%"class.std::allocator"* %0) unnamed_addr #4 comdat align 2 {
  %2 = bitcast %"class.std::allocator"* %0 to %"class.__gnu_cxx::new_allocator"*
  call void @_ZN9__gnu_cxx13new_allocatorIiED2Ev(%"class.__gnu_cxx::new_allocator"* %2) #3
  ret void
}

; Function Attrs: noinline nounwind uwtable
define linkonce_odr void @_ZN9__gnu_cxx13new_allocatorIiED2Ev(%"class.__gnu_cxx::new_allocator"* %0) unnamed_addr #4 comdat align 2 {
  ret void
}

; Function Attrs: noinline uwtable
define linkonce_odr void @_ZNSt16allocator_traitsISaIiEE9constructIiJRKiEEEvRS0_PT_DpOT0_(%"class.std::allocator"* dereferenceable(1) %0, i32* %1, i32* dereferenceable(4) %2) #0 comdat align 2 {
  %4 = bitcast %"class.std::allocator"* %0 to %"class.__gnu_cxx::new_allocator"*
  %5 = call dereferenceable(4) i32* @_ZSt7forwardIRKiEOT_RNSt16remove_referenceIS2_E4typeE(i32* dereferenceable(4) %2) #3
  call void @_ZN9__gnu_cxx13new_allocatorIiE9constructIiJRKiEEEvPT_DpOT0_(%"class.__gnu_cxx::new_allocator"* %4, i32* %1, i32* dereferenceable(4) %5)
  ret void
}

; Function Attrs: noinline uwtable
define linkonce_odr void @_ZNSt6vectorIiSaIiEE17_M_realloc_insertIJRKiEEEvN9__gnu_cxx17__normal_iteratorIPiS1_EEDpOT_(%"class.std::vector"* %0, i32* %1, i32* dereferenceable(4) %2) #0 comdat align 2 personality i8* bitcast (i32 (...)* @__gxx_personality_v0 to i8*) {
  %4 = alloca %"class.__gnu_cxx::__normal_iterator", align 8
  %5 = alloca %"class.__gnu_cxx::__normal_iterator", align 8
  %6 = getelementptr inbounds %"class.__gnu_cxx::__normal_iterator", %"class.__gnu_cxx::__normal_iterator"* %4, i32 0, i32 0
  store i32* %1, i32** %6, align 8
  %7 = call i64 @_ZNKSt6vectorIiSaIiEE12_M_check_lenEmPKc(%"class.std::vector"* %0, i64 1, i8* getelementptr inbounds ([26 x i8], [26 x i8]* @.str.4, i32 0, i32 0))
  %8 = bitcast %"class.std::vector"* %0 to %"struct.std::_Vector_base"*
  %9 = getelementptr inbounds %"struct.std::_Vector_base", %"struct.std::_Vector_base"* %8, i32 0, i32 0
  %10 = getelementptr inbounds %"struct.std::_Vector_base<int, std::allocator<int> >::_Vector_impl", %"struct.std::_Vector_base<int, std::allocator<int> >::_Vector_impl"* %9, i32 0, i32 0
  %11 = load i32*, i32** %10, align 8
  %12 = bitcast %"class.std::vector"* %0 to %"struct.std::_Vector_base"*
  %13 = getelementptr inbounds %"struct.std::_Vector_base", %"struct.std::_Vector_base"* %12, i32 0, i32 0
  %14 = getelementptr inbounds %"struct.std::_Vector_base<int, std::allocator<int> >::_Vector_impl", %"struct.std::_Vector_base<int, std::allocator<int> >::_Vector_impl"* %13, i32 0, i32 1
  %15 = load i32*, i32** %14, align 8
  %16 = call i32* @_ZNSt6vectorIiSaIiEE5beginEv(%"class.std::vector"* %0) #3
  %17 = getelementptr inbounds %"class.__gnu_cxx::__normal_iterator", %"class.__gnu_cxx::__normal_iterator"* %5, i32 0, i32 0
  store i32* %16, i32** %17, align 8
  %18 = call i64 @_ZN9__gnu_cxxmiIPiSt6vectorIiSaIiEEEENS_17__normal_iteratorIT_T0_E15difference_typeERKS8_SB_(%"class.__gnu_cxx::__normal_iterator"* dereferenceable(8) %4, %"class.__gnu_cxx::__normal_iterator"* dereferenceable(8) %5) #3
  %19 = bitcast %"class.std::vector"* %0 to %"struct.std::_Vector_base"*
  %20 = call i32* @_ZNSt12_Vector_baseIiSaIiEE11_M_allocateEm(%"struct.std::_Vector_base"* %19, i64 %7)
  %21 = bitcast %"class.std::vector"* %0 to %"struct.std::_Vector_base"*
  %22 = getelementptr inbounds %"struct.std::_Vector_base", %"struct.std::_Vector_base"* %21, i32 0, i32 0
  %23 = bitcast %"struct.std::_Vector_base<int, std::allocator<int> >::_Vector_impl"* %22 to %"class.std::allocator"*
  %24 = getelementptr inbounds i32, i32* %20, i64 %18
  %25 = call dereferenceable(4) i32* @_ZSt7forwardIRKiEOT_RNSt16remove_referenceIS2_E4typeE(i32* dereferenceable(4) %2) #3
  invoke void @_ZNSt16allocator_traitsISaIiEE9constructIiJRKiEEEvRS0_PT_DpOT0_(%"class.std::allocator"* dereferenceable(1) %23, i32* %24, i32* dereferenceable(4) %25)
          to label %26 unwind label %40

26:                                               ; preds = %3
  %27 = call dereferenceable(8) i32** @_ZNK9__gnu_cxx17__normal_iteratorIPiSt6vectorIiSaIiEEE4baseEv(%"class.__gnu_cxx::__normal_iterator"* %4) #3
  %28 = load i32*, i32** %27, align 8
  %29 = bitcast %"class.std::vector"* %0 to %"struct.std::_Vector_base"*
  %30 = call dereferenceable(1) %"class.std::allocator"* @_ZNSt12_Vector_baseIiSaIiEE19_M_get_Tp_allocatorEv(%"struct.std::_Vector_base"* %29) #3
  %31 = invoke i32* @_ZSt34__uninitialized_move_if_noexcept_aIPiS0_SaIiEET0_T_S3_S2_RT1_(i32* %11, i32* %28, i32* %20, %"class.std::allocator"* dereferenceable(1) %30)
          to label %32 unwind label %40

32:                                               ; preds = %26
  %33 = getelementptr inbounds i32, i32* %31, i32 1
  %34 = call dereferenceable(8) i32** @_ZNK9__gnu_cxx17__normal_iteratorIPiSt6vectorIiSaIiEEE4baseEv(%"class.__gnu_cxx::__normal_iterator"* %4) #3
  %35 = load i32*, i32** %34, align 8
  %36 = bitcast %"class.std::vector"* %0 to %"struct.std::_Vector_base"*
  %37 = call dereferenceable(1) %"class.std::allocator"* @_ZNSt12_Vector_baseIiSaIiEE19_M_get_Tp_allocatorEv(%"struct.std::_Vector_base"* %36) #3
  %38 = invoke i32* @_ZSt34__uninitialized_move_if_noexcept_aIPiS0_SaIiEET0_T_S3_S2_RT1_(i32* %35, i32* %15, i32* %33, %"class.std::allocator"* dereferenceable(1) %37)
          to label %39 unwind label %40

39:                                               ; preds = %32
  br label %65

40:                                               ; preds = %32, %26, %3
  %.0 = phi i32* [ %33, %32 ], [ null, %26 ], [ %20, %3 ]
  %41 = landingpad { i8*, i32 }
          catch i8* null
  %42 = extractvalue { i8*, i32 } %41, 0
  %43 = extractvalue { i8*, i32 } %41, 1
  br label %44

44:                                               ; preds = %40
  %45 = call i8* @__cxa_begin_catch(i8* %42) #3
  %46 = icmp ne i32* %.0, null
  br i1 %46, label %57, label %47

47:                                               ; preds = %44
  %48 = bitcast %"class.std::vector"* %0 to %"struct.std::_Vector_base"*
  %49 = getelementptr inbounds %"struct.std::_Vector_base", %"struct.std::_Vector_base"* %48, i32 0, i32 0
  %50 = bitcast %"struct.std::_Vector_base<int, std::allocator<int> >::_Vector_impl"* %49 to %"class.std::allocator"*
  %51 = getelementptr inbounds i32, i32* %20, i64 %18
  invoke void @_ZNSt16allocator_traitsISaIiEE7destroyIiEEvRS0_PT_(%"class.std::allocator"* dereferenceable(1) %50, i32* %51)
          to label %52 unwind label %53

52:                                               ; preds = %47
  br label %61

53:                                               ; preds = %63, %61, %57, %47
  %54 = landingpad { i8*, i32 }
          cleanup
  %55 = extractvalue { i8*, i32 } %54, 0
  %56 = extractvalue { i8*, i32 } %54, 1
  invoke void @__cxa_end_catch()
          to label %64 unwind label %90

57:                                               ; preds = %44
  %58 = bitcast %"class.std::vector"* %0 to %"struct.std::_Vector_base"*
  %59 = call dereferenceable(1) %"class.std::allocator"* @_ZNSt12_Vector_baseIiSaIiEE19_M_get_Tp_allocatorEv(%"struct.std::_Vector_base"* %58) #3
  invoke void @_ZSt8_DestroyIPiiEvT_S1_RSaIT0_E(i32* %20, i32* %.0, %"class.std::allocator"* dereferenceable(1) %59)
          to label %60 unwind label %53

60:                                               ; preds = %57
  br label %61

61:                                               ; preds = %60, %52
  %62 = bitcast %"class.std::vector"* %0 to %"struct.std::_Vector_base"*
  invoke void @_ZNSt12_Vector_baseIiSaIiEE13_M_deallocateEPim(%"struct.std::_Vector_base"* %62, i32* %20, i64 %7)
          to label %63 unwind label %53

63:                                               ; preds = %61
  invoke void @__cxa_rethrow() #14
          to label %93 unwind label %53

64:                                               ; preds = %53
  br label %87

65:                                               ; preds = %39
  %66 = bitcast %"class.std::vector"* %0 to %"struct.std::_Vector_base"*
  %67 = call dereferenceable(1) %"class.std::allocator"* @_ZNSt12_Vector_baseIiSaIiEE19_M_get_Tp_allocatorEv(%"struct.std::_Vector_base"* %66) #3
  call void @_ZSt8_DestroyIPiiEvT_S1_RSaIT0_E(i32* %11, i32* %15, %"class.std::allocator"* dereferenceable(1) %67)
  %68 = bitcast %"class.std::vector"* %0 to %"struct.std::_Vector_base"*
  %69 = bitcast %"class.std::vector"* %0 to %"struct.std::_Vector_base"*
  %70 = getelementptr inbounds %"struct.std::_Vector_base", %"struct.std::_Vector_base"* %69, i32 0, i32 0
  %71 = getelementptr inbounds %"struct.std::_Vector_base<int, std::allocator<int> >::_Vector_impl", %"struct.std::_Vector_base<int, std::allocator<int> >::_Vector_impl"* %70, i32 0, i32 2
  %72 = load i32*, i32** %71, align 8
  %73 = ptrtoint i32* %72 to i64
  %74 = ptrtoint i32* %11 to i64
  %75 = sub i64 %73, %74
  %76 = sdiv exact i64 %75, 4
  call void @_ZNSt12_Vector_baseIiSaIiEE13_M_deallocateEPim(%"struct.std::_Vector_base"* %68, i32* %11, i64 %76)
  %77 = bitcast %"class.std::vector"* %0 to %"struct.std::_Vector_base"*
  %78 = getelementptr inbounds %"struct.std::_Vector_base", %"struct.std::_Vector_base"* %77, i32 0, i32 0
  %79 = getelementptr inbounds %"struct.std::_Vector_base<int, std::allocator<int> >::_Vector_impl", %"struct.std::_Vector_base<int, std::allocator<int> >::_Vector_impl"* %78, i32 0, i32 0
  store i32* %20, i32** %79, align 8
  %80 = bitcast %"class.std::vector"* %0 to %"struct.std::_Vector_base"*
  %81 = getelementptr inbounds %"struct.std::_Vector_base", %"struct.std::_Vector_base"* %80, i32 0, i32 0
  %82 = getelementptr inbounds %"struct.std::_Vector_base<int, std::allocator<int> >::_Vector_impl", %"struct.std::_Vector_base<int, std::allocator<int> >::_Vector_impl"* %81, i32 0, i32 1
  store i32* %38, i32** %82, align 8
  %83 = getelementptr inbounds i32, i32* %20, i64 %7
  %84 = bitcast %"class.std::vector"* %0 to %"struct.std::_Vector_base"*
  %85 = getelementptr inbounds %"struct.std::_Vector_base", %"struct.std::_Vector_base"* %84, i32 0, i32 0
  %86 = getelementptr inbounds %"struct.std::_Vector_base<int, std::allocator<int> >::_Vector_impl", %"struct.std::_Vector_base<int, std::allocator<int> >::_Vector_impl"* %85, i32 0, i32 2
  store i32* %83, i32** %86, align 8
  ret void

87:                                               ; preds = %64
  %88 = insertvalue { i8*, i32 } undef, i8* %55, 0
  %89 = insertvalue { i8*, i32 } %88, i32 %56, 1
  resume { i8*, i32 } %89

90:                                               ; preds = %53
  %91 = landingpad { i8*, i32 }
          catch i8* null
  %92 = extractvalue { i8*, i32 } %91, 0
  call void @__clang_call_terminate(i8* %92) #13
  unreachable

93:                                               ; preds = %63
  unreachable
}

; Function Attrs: noinline nounwind uwtable
define linkonce_odr i32* @_ZNSt6vectorIiSaIiEE3endEv(%"class.std::vector"* %0) #4 comdat align 2 {
  %2 = alloca %"class.__gnu_cxx::__normal_iterator", align 8
  %3 = bitcast %"class.std::vector"* %0 to %"struct.std::_Vector_base"*
  %4 = getelementptr inbounds %"struct.std::_Vector_base", %"struct.std::_Vector_base"* %3, i32 0, i32 0
  %5 = getelementptr inbounds %"struct.std::_Vector_base<int, std::allocator<int> >::_Vector_impl", %"struct.std::_Vector_base<int, std::allocator<int> >::_Vector_impl"* %4, i32 0, i32 1
  call void @_ZN9__gnu_cxx17__normal_iteratorIPiSt6vectorIiSaIiEEEC2ERKS1_(%"class.__gnu_cxx::__normal_iterator"* %2, i32** dereferenceable(8) %5) #3
  %6 = getelementptr inbounds %"class.__gnu_cxx::__normal_iterator", %"class.__gnu_cxx::__normal_iterator"* %2, i32 0, i32 0
  %7 = load i32*, i32** %6, align 8
  ret i32* %7
}

; Function Attrs: noinline nounwind uwtable
define linkonce_odr void @_ZN9__gnu_cxx13new_allocatorIiE9constructIiJRKiEEEvPT_DpOT0_(%"class.__gnu_cxx::new_allocator"* %0, i32* %1, i32* dereferenceable(4) %2) #4 comdat align 2 {
  %4 = bitcast i32* %1 to i8*
  %5 = bitcast i8* %4 to i32*
  %6 = call dereferenceable(4) i32* @_ZSt7forwardIRKiEOT_RNSt16remove_referenceIS2_E4typeE(i32* dereferenceable(4) %2) #3
  %7 = load i32, i32* %6, align 4
  store i32 %7, i32* %5, align 4
  ret void
}

; Function Attrs: noinline nounwind uwtable
define linkonce_odr dereferenceable(4) i32* @_ZSt7forwardIRKiEOT_RNSt16remove_referenceIS2_E4typeE(i32* dereferenceable(4) %0) #4 comdat {
  ret i32* %0
}

; Function Attrs: noinline uwtable
define linkonce_odr i64 @_ZNKSt6vectorIiSaIiEE12_M_check_lenEmPKc(%"class.std::vector"* %0, i64 %1, i8* %2) #0 comdat align 2 {
  %4 = alloca i64, align 8
  %5 = alloca i64, align 8
  store i64 %1, i64* %4, align 8
  %6 = call i64 @_ZNKSt6vectorIiSaIiEE8max_sizeEv(%"class.std::vector"* %0) #3
  %7 = call i64 @_ZNKSt6vectorIiSaIiEE4sizeEv(%"class.std::vector"* %0) #3
  %8 = sub i64 %6, %7
  %9 = load i64, i64* %4, align 8
  %10 = icmp ult i64 %8, %9
  br i1 %10, label %11, label %12

11:                                               ; preds = %3
  call void @_ZSt20__throw_length_errorPKc(i8* %2) #14
  unreachable

12:                                               ; preds = %3
  %13 = call i64 @_ZNKSt6vectorIiSaIiEE4sizeEv(%"class.std::vector"* %0) #3
  %14 = call i64 @_ZNKSt6vectorIiSaIiEE4sizeEv(%"class.std::vector"* %0) #3
  store i64 %14, i64* %5, align 8
  %15 = call dereferenceable(8) i64* @_ZSt3maxImERKT_S2_S2_(i64* dereferenceable(8) %5, i64* dereferenceable(8) %4)
  %16 = load i64, i64* %15, align 8
  %17 = add i64 %13, %16
  %18 = call i64 @_ZNKSt6vectorIiSaIiEE4sizeEv(%"class.std::vector"* %0) #3
  %19 = icmp ult i64 %17, %18
  br i1 %19, label %23, label %20

20:                                               ; preds = %12
  %21 = call i64 @_ZNKSt6vectorIiSaIiEE8max_sizeEv(%"class.std::vector"* %0) #3
  %22 = icmp ugt i64 %17, %21
  br i1 %22, label %23, label %25

23:                                               ; preds = %20, %12
  %24 = call i64 @_ZNKSt6vectorIiSaIiEE8max_sizeEv(%"class.std::vector"* %0) #3
  br label %26

25:                                               ; preds = %20
  br label %26

26:                                               ; preds = %25, %23
  %27 = phi i64 [ %24, %23 ], [ %17, %25 ]
  ret i64 %27
}

; Function Attrs: noinline nounwind uwtable
define linkonce_odr i64 @_ZN9__gnu_cxxmiIPiSt6vectorIiSaIiEEEENS_17__normal_iteratorIT_T0_E15difference_typeERKS8_SB_(%"class.__gnu_cxx::__normal_iterator"* dereferenceable(8) %0, %"class.__gnu_cxx::__normal_iterator"* dereferenceable(8) %1) #4 comdat {
  %3 = call dereferenceable(8) i32** @_ZNK9__gnu_cxx17__normal_iteratorIPiSt6vectorIiSaIiEEE4baseEv(%"class.__gnu_cxx::__normal_iterator"* %0) #3
  %4 = load i32*, i32** %3, align 8
  %5 = call dereferenceable(8) i32** @_ZNK9__gnu_cxx17__normal_iteratorIPiSt6vectorIiSaIiEEE4baseEv(%"class.__gnu_cxx::__normal_iterator"* %1) #3
  %6 = load i32*, i32** %5, align 8
  %7 = ptrtoint i32* %4 to i64
  %8 = ptrtoint i32* %6 to i64
  %9 = sub i64 %7, %8
  %10 = sdiv exact i64 %9, 4
  ret i64 %10
}

; Function Attrs: noinline nounwind uwtable
define linkonce_odr i32* @_ZNSt6vectorIiSaIiEE5beginEv(%"class.std::vector"* %0) #4 comdat align 2 {
  %2 = alloca %"class.__gnu_cxx::__normal_iterator", align 8
  %3 = bitcast %"class.std::vector"* %0 to %"struct.std::_Vector_base"*
  %4 = getelementptr inbounds %"struct.std::_Vector_base", %"struct.std::_Vector_base"* %3, i32 0, i32 0
  %5 = getelementptr inbounds %"struct.std::_Vector_base<int, std::allocator<int> >::_Vector_impl", %"struct.std::_Vector_base<int, std::allocator<int> >::_Vector_impl"* %4, i32 0, i32 0
  call void @_ZN9__gnu_cxx17__normal_iteratorIPiSt6vectorIiSaIiEEEC2ERKS1_(%"class.__gnu_cxx::__normal_iterator"* %2, i32** dereferenceable(8) %5) #3
  %6 = getelementptr inbounds %"class.__gnu_cxx::__normal_iterator", %"class.__gnu_cxx::__normal_iterator"* %2, i32 0, i32 0
  %7 = load i32*, i32** %6, align 8
  ret i32* %7
}

; Function Attrs: noinline uwtable
define linkonce_odr i32* @_ZNSt12_Vector_baseIiSaIiEE11_M_allocateEm(%"struct.std::_Vector_base"* %0, i64 %1) #0 comdat align 2 {
  %3 = icmp ne i64 %1, 0
  br i1 %3, label %4, label %8

4:                                                ; preds = %2
  %5 = getelementptr inbounds %"struct.std::_Vector_base", %"struct.std::_Vector_base"* %0, i32 0, i32 0
  %6 = bitcast %"struct.std::_Vector_base<int, std::allocator<int> >::_Vector_impl"* %5 to %"class.std::allocator"*
  %7 = call i32* @_ZNSt16allocator_traitsISaIiEE8allocateERS0_m(%"class.std::allocator"* dereferenceable(1) %6, i64 %1)
  br label %9

8:                                                ; preds = %2
  br label %9

9:                                                ; preds = %8, %4
  %10 = phi i32* [ %7, %4 ], [ null, %8 ]
  ret i32* %10
}

; Function Attrs: noinline uwtable
define linkonce_odr i32* @_ZSt34__uninitialized_move_if_noexcept_aIPiS0_SaIiEET0_T_S3_S2_RT1_(i32* %0, i32* %1, i32* %2, %"class.std::allocator"* dereferenceable(1) %3) #0 comdat {
  %5 = alloca %"class.std::move_iterator", align 8
  %6 = alloca %"class.std::move_iterator", align 8
  %7 = call i32* @_ZSt32__make_move_if_noexcept_iteratorIiSt13move_iteratorIPiEET0_PT_(i32* %0)
  %8 = getelementptr inbounds %"class.std::move_iterator", %"class.std::move_iterator"* %5, i32 0, i32 0
  store i32* %7, i32** %8, align 8
  %9 = call i32* @_ZSt32__make_move_if_noexcept_iteratorIiSt13move_iteratorIPiEET0_PT_(i32* %1)
  %10 = getelementptr inbounds %"class.std::move_iterator", %"class.std::move_iterator"* %6, i32 0, i32 0
  store i32* %9, i32** %10, align 8
  %11 = getelementptr inbounds %"class.std::move_iterator", %"class.std::move_iterator"* %5, i32 0, i32 0
  %12 = load i32*, i32** %11, align 8
  %13 = getelementptr inbounds %"class.std::move_iterator", %"class.std::move_iterator"* %6, i32 0, i32 0
  %14 = load i32*, i32** %13, align 8
  %15 = call i32* @_ZSt22__uninitialized_copy_aISt13move_iteratorIPiES1_iET0_T_S4_S3_RSaIT1_E(i32* %12, i32* %14, i32* %2, %"class.std::allocator"* dereferenceable(1) %3)
  ret i32* %15
}

; Function Attrs: noinline nounwind uwtable
define linkonce_odr dereferenceable(8) i32** @_ZNK9__gnu_cxx17__normal_iteratorIPiSt6vectorIiSaIiEEE4baseEv(%"class.__gnu_cxx::__normal_iterator"* %0) #4 comdat align 2 {
  %2 = getelementptr inbounds %"class.__gnu_cxx::__normal_iterator", %"class.__gnu_cxx::__normal_iterator"* %0, i32 0, i32 0
  ret i32** %2
}

; Function Attrs: noinline uwtable
define linkonce_odr void @_ZNSt16allocator_traitsISaIiEE7destroyIiEEvRS0_PT_(%"class.std::allocator"* dereferenceable(1) %0, i32* %1) #0 comdat align 2 {
  %3 = bitcast %"class.std::allocator"* %0 to %"class.__gnu_cxx::new_allocator"*
  call void @_ZN9__gnu_cxx13new_allocatorIiE7destroyIiEEvPT_(%"class.__gnu_cxx::new_allocator"* %3, i32* %1)
  ret void
}

declare void @__cxa_rethrow()

declare void @__cxa_end_catch()

; Function Attrs: noinline nounwind uwtable
define linkonce_odr i64 @_ZNKSt6vectorIiSaIiEE8max_sizeEv(%"class.std::vector"* %0) #4 comdat align 2 {
  %2 = bitcast %"class.std::vector"* %0 to %"struct.std::_Vector_base"*
  %3 = call dereferenceable(1) %"class.std::allocator"* @_ZNKSt12_Vector_baseIiSaIiEE19_M_get_Tp_allocatorEv(%"struct.std::_Vector_base"* %2) #3
  %4 = call i64 @_ZNSt16allocator_traitsISaIiEE8max_sizeERKS0_(%"class.std::allocator"* dereferenceable(1) %3) #3
  ret i64 %4
}

; Function Attrs: noreturn
declare void @_ZSt20__throw_length_errorPKc(i8*) #9

; Function Attrs: noinline nounwind uwtable
define linkonce_odr dereferenceable(8) i64* @_ZSt3maxImERKT_S2_S2_(i64* dereferenceable(8) %0, i64* dereferenceable(8) %1) #4 comdat {
  %3 = load i64, i64* %0, align 8
  %4 = load i64, i64* %1, align 8
  %5 = icmp ult i64 %3, %4
  br i1 %5, label %6, label %7

6:                                                ; preds = %2
  br label %8

7:                                                ; preds = %2
  br label %8

8:                                                ; preds = %7, %6
  %.0 = phi i64* [ %1, %6 ], [ %0, %7 ]
  ret i64* %.0
}

; Function Attrs: noinline nounwind uwtable
define linkonce_odr i64 @_ZNSt16allocator_traitsISaIiEE8max_sizeERKS0_(%"class.std::allocator"* dereferenceable(1) %0) #4 comdat align 2 {
  %2 = bitcast %"class.std::allocator"* %0 to %"class.__gnu_cxx::new_allocator"*
  %3 = call i64 @_ZNK9__gnu_cxx13new_allocatorIiE8max_sizeEv(%"class.__gnu_cxx::new_allocator"* %2) #3
  ret i64 %3
}

; Function Attrs: noinline nounwind uwtable
define linkonce_odr dereferenceable(1) %"class.std::allocator"* @_ZNKSt12_Vector_baseIiSaIiEE19_M_get_Tp_allocatorEv(%"struct.std::_Vector_base"* %0) #4 comdat align 2 {
  %2 = getelementptr inbounds %"struct.std::_Vector_base", %"struct.std::_Vector_base"* %0, i32 0, i32 0
  %3 = bitcast %"struct.std::_Vector_base<int, std::allocator<int> >::_Vector_impl"* %2 to %"class.std::allocator"*
  ret %"class.std::allocator"* %3
}

; Function Attrs: noinline nounwind uwtable
define linkonce_odr i64 @_ZNK9__gnu_cxx13new_allocatorIiE8max_sizeEv(%"class.__gnu_cxx::new_allocator"* %0) #4 comdat align 2 {
  ret i64 4611686018427387903
}

; Function Attrs: noinline nounwind uwtable
define linkonce_odr void @_ZN9__gnu_cxx17__normal_iteratorIPiSt6vectorIiSaIiEEEC2ERKS1_(%"class.__gnu_cxx::__normal_iterator"* %0, i32** dereferenceable(8) %1) unnamed_addr #4 comdat align 2 {
  %3 = getelementptr inbounds %"class.__gnu_cxx::__normal_iterator", %"class.__gnu_cxx::__normal_iterator"* %0, i32 0, i32 0
  %4 = load i32*, i32** %1, align 8
  store i32* %4, i32** %3, align 8
  ret void
}

; Function Attrs: noinline uwtable
define linkonce_odr i32* @_ZNSt16allocator_traitsISaIiEE8allocateERS0_m(%"class.std::allocator"* dereferenceable(1) %0, i64 %1) #0 comdat align 2 {
  %3 = bitcast %"class.std::allocator"* %0 to %"class.__gnu_cxx::new_allocator"*
  %4 = call i32* @_ZN9__gnu_cxx13new_allocatorIiE8allocateEmPKv(%"class.__gnu_cxx::new_allocator"* %3, i64 %1, i8* null)
  ret i32* %4
}

; Function Attrs: noinline uwtable
define linkonce_odr i32* @_ZN9__gnu_cxx13new_allocatorIiE8allocateEmPKv(%"class.__gnu_cxx::new_allocator"* %0, i64 %1, i8* %2) #0 comdat align 2 {
  %4 = call i64 @_ZNK9__gnu_cxx13new_allocatorIiE8max_sizeEv(%"class.__gnu_cxx::new_allocator"* %0) #3
  %5 = icmp ugt i64 %1, %4
  br i1 %5, label %6, label %7

6:                                                ; preds = %3
  call void @_ZSt17__throw_bad_allocv() #14
  unreachable

7:                                                ; preds = %3
  %8 = mul i64 %1, 4
  %9 = call i8* @_Znwm(i64 %8)
  %10 = bitcast i8* %9 to i32*
  ret i32* %10
}

; Function Attrs: noreturn
declare void @_ZSt17__throw_bad_allocv() #9

; Function Attrs: nobuiltin
declare noalias i8* @_Znwm(i64) #10

; Function Attrs: noinline uwtable
define linkonce_odr i32* @_ZSt22__uninitialized_copy_aISt13move_iteratorIPiES1_iET0_T_S4_S3_RSaIT1_E(i32* %0, i32* %1, i32* %2, %"class.std::allocator"* dereferenceable(1) %3) #0 comdat {
  %5 = alloca %"class.std::move_iterator", align 8
  %6 = alloca %"class.std::move_iterator", align 8
  %7 = alloca %"class.std::move_iterator", align 8
  %8 = alloca %"class.std::move_iterator", align 8
  %9 = getelementptr inbounds %"class.std::move_iterator", %"class.std::move_iterator"* %5, i32 0, i32 0
  store i32* %0, i32** %9, align 8
  %10 = getelementptr inbounds %"class.std::move_iterator", %"class.std::move_iterator"* %6, i32 0, i32 0
  store i32* %1, i32** %10, align 8
  %11 = bitcast %"class.std::move_iterator"* %7 to i8*
  %12 = bitcast %"class.std::move_iterator"* %5 to i8*
  call void @llvm.memcpy.p0i8.p0i8.i64(i8* align 8 %11, i8* align 8 %12, i64 8, i1 false)
  %13 = bitcast %"class.std::move_iterator"* %8 to i8*
  %14 = bitcast %"class.std::move_iterator"* %6 to i8*
  call void @llvm.memcpy.p0i8.p0i8.i64(i8* align 8 %13, i8* align 8 %14, i64 8, i1 false)
  %15 = getelementptr inbounds %"class.std::move_iterator", %"class.std::move_iterator"* %7, i32 0, i32 0
  %16 = load i32*, i32** %15, align 8
  %17 = getelementptr inbounds %"class.std::move_iterator", %"class.std::move_iterator"* %8, i32 0, i32 0
  %18 = load i32*, i32** %17, align 8
  %19 = call i32* @_ZSt18uninitialized_copyISt13move_iteratorIPiES1_ET0_T_S4_S3_(i32* %16, i32* %18, i32* %2)
  ret i32* %19
}

; Function Attrs: noinline uwtable
define linkonce_odr i32* @_ZSt32__make_move_if_noexcept_iteratorIiSt13move_iteratorIPiEET0_PT_(i32* %0) #0 comdat {
  %2 = alloca %"class.std::move_iterator", align 8
  call void @_ZNSt13move_iteratorIPiEC2ES0_(%"class.std::move_iterator"* %2, i32* %0)
  %3 = getelementptr inbounds %"class.std::move_iterator", %"class.std::move_iterator"* %2, i32 0, i32 0
  %4 = load i32*, i32** %3, align 8
  ret i32* %4
}

; Function Attrs: noinline uwtable
define linkonce_odr i32* @_ZSt18uninitialized_copyISt13move_iteratorIPiES1_ET0_T_S4_S3_(i32* %0, i32* %1, i32* %2) #0 comdat {
  %4 = alloca %"class.std::move_iterator", align 8
  %5 = alloca %"class.std::move_iterator", align 8
  %6 = alloca %"class.std::move_iterator", align 8
  %7 = alloca %"class.std::move_iterator", align 8
  %8 = getelementptr inbounds %"class.std::move_iterator", %"class.std::move_iterator"* %4, i32 0, i32 0
  store i32* %0, i32** %8, align 8
  %9 = getelementptr inbounds %"class.std::move_iterator", %"class.std::move_iterator"* %5, i32 0, i32 0
  store i32* %1, i32** %9, align 8
  %10 = bitcast %"class.std::move_iterator"* %6 to i8*
  %11 = bitcast %"class.std::move_iterator"* %4 to i8*
  call void @llvm.memcpy.p0i8.p0i8.i64(i8* align 8 %10, i8* align 8 %11, i64 8, i1 false)
  %12 = bitcast %"class.std::move_iterator"* %7 to i8*
  %13 = bitcast %"class.std::move_iterator"* %5 to i8*
  call void @llvm.memcpy.p0i8.p0i8.i64(i8* align 8 %12, i8* align 8 %13, i64 8, i1 false)
  %14 = getelementptr inbounds %"class.std::move_iterator", %"class.std::move_iterator"* %6, i32 0, i32 0
  %15 = load i32*, i32** %14, align 8
  %16 = getelementptr inbounds %"class.std::move_iterator", %"class.std::move_iterator"* %7, i32 0, i32 0
  %17 = load i32*, i32** %16, align 8
  %18 = call i32* @_ZNSt20__uninitialized_copyILb1EE13__uninit_copyISt13move_iteratorIPiES3_EET0_T_S6_S5_(i32* %15, i32* %17, i32* %2)
  ret i32* %18
}

; Function Attrs: noinline uwtable
define linkonce_odr i32* @_ZNSt20__uninitialized_copyILb1EE13__uninit_copyISt13move_iteratorIPiES3_EET0_T_S6_S5_(i32* %0, i32* %1, i32* %2) #0 comdat align 2 {
  %4 = alloca %"class.std::move_iterator", align 8
  %5 = alloca %"class.std::move_iterator", align 8
  %6 = alloca %"class.std::move_iterator", align 8
  %7 = alloca %"class.std::move_iterator", align 8
  %8 = getelementptr inbounds %"class.std::move_iterator", %"class.std::move_iterator"* %4, i32 0, i32 0
  store i32* %0, i32** %8, align 8
  %9 = getelementptr inbounds %"class.std::move_iterator", %"class.std::move_iterator"* %5, i32 0, i32 0
  store i32* %1, i32** %9, align 8
  %10 = bitcast %"class.std::move_iterator"* %6 to i8*
  %11 = bitcast %"class.std::move_iterator"* %4 to i8*
  call void @llvm.memcpy.p0i8.p0i8.i64(i8* align 8 %10, i8* align 8 %11, i64 8, i1 false)
  %12 = bitcast %"class.std::move_iterator"* %7 to i8*
  %13 = bitcast %"class.std::move_iterator"* %5 to i8*
  call void @llvm.memcpy.p0i8.p0i8.i64(i8* align 8 %12, i8* align 8 %13, i64 8, i1 false)
  %14 = getelementptr inbounds %"class.std::move_iterator", %"class.std::move_iterator"* %6, i32 0, i32 0
  %15 = load i32*, i32** %14, align 8
  %16 = getelementptr inbounds %"class.std::move_iterator", %"class.std::move_iterator"* %7, i32 0, i32 0
  %17 = load i32*, i32** %16, align 8
  %18 = call i32* @_ZSt4copyISt13move_iteratorIPiES1_ET0_T_S4_S3_(i32* %15, i32* %17, i32* %2)
  ret i32* %18
}

; Function Attrs: noinline uwtable
define linkonce_odr i32* @_ZSt4copyISt13move_iteratorIPiES1_ET0_T_S4_S3_(i32* %0, i32* %1, i32* %2) #0 comdat {
  %4 = alloca %"class.std::move_iterator", align 8
  %5 = alloca %"class.std::move_iterator", align 8
  %6 = alloca %"class.std::move_iterator", align 8
  %7 = alloca %"class.std::move_iterator", align 8
  %8 = getelementptr inbounds %"class.std::move_iterator", %"class.std::move_iterator"* %4, i32 0, i32 0
  store i32* %0, i32** %8, align 8
  %9 = getelementptr inbounds %"class.std::move_iterator", %"class.std::move_iterator"* %5, i32 0, i32 0
  store i32* %1, i32** %9, align 8
  %10 = bitcast %"class.std::move_iterator"* %6 to i8*
  %11 = bitcast %"class.std::move_iterator"* %4 to i8*
  call void @llvm.memcpy.p0i8.p0i8.i64(i8* align 8 %10, i8* align 8 %11, i64 8, i1 false)
  %12 = getelementptr inbounds %"class.std::move_iterator", %"class.std::move_iterator"* %6, i32 0, i32 0
  %13 = load i32*, i32** %12, align 8
  %14 = call i32* @_ZSt12__miter_baseIPiEDTcl12__miter_basecldtfp_4baseEEESt13move_iteratorIT_E(i32* %13)
  %15 = bitcast %"class.std::move_iterator"* %7 to i8*
  %16 = bitcast %"class.std::move_iterator"* %5 to i8*
  call void @llvm.memcpy.p0i8.p0i8.i64(i8* align 8 %15, i8* align 8 %16, i64 8, i1 false)
  %17 = getelementptr inbounds %"class.std::move_iterator", %"class.std::move_iterator"* %7, i32 0, i32 0
  %18 = load i32*, i32** %17, align 8
  %19 = call i32* @_ZSt12__miter_baseIPiEDTcl12__miter_basecldtfp_4baseEEESt13move_iteratorIT_E(i32* %18)
  %20 = call i32* @_ZSt14__copy_move_a2ILb1EPiS0_ET1_T0_S2_S1_(i32* %14, i32* %19, i32* %2)
  ret i32* %20
}

; Function Attrs: noinline uwtable
define linkonce_odr i32* @_ZSt14__copy_move_a2ILb1EPiS0_ET1_T0_S2_S1_(i32* %0, i32* %1, i32* %2) #0 comdat {
  %4 = call i32* @_ZSt12__niter_baseIPiET_S1_(i32* %0)
  %5 = call i32* @_ZSt12__niter_baseIPiET_S1_(i32* %1)
  %6 = call i32* @_ZSt12__niter_baseIPiET_S1_(i32* %2)
  %7 = call i32* @_ZSt13__copy_move_aILb1EPiS0_ET1_T0_S2_S1_(i32* %4, i32* %5, i32* %6)
  ret i32* %7
}

; Function Attrs: noinline uwtable
define linkonce_odr i32* @_ZSt12__miter_baseIPiEDTcl12__miter_basecldtfp_4baseEEESt13move_iteratorIT_E(i32* %0) #0 comdat {
  %2 = alloca %"class.std::move_iterator", align 8
  %3 = getelementptr inbounds %"class.std::move_iterator", %"class.std::move_iterator"* %2, i32 0, i32 0
  store i32* %0, i32** %3, align 8
  %4 = call i32* @_ZNKSt13move_iteratorIPiE4baseEv(%"class.std::move_iterator"* %2)
  %5 = call i32* @_ZSt12__miter_baseIPiET_S1_(i32* %4)
  ret i32* %5
}

; Function Attrs: noinline uwtable
define linkonce_odr i32* @_ZSt13__copy_move_aILb1EPiS0_ET1_T0_S2_S1_(i32* %0, i32* %1, i32* %2) #0 comdat {
  %4 = call i32* @_ZNSt11__copy_moveILb1ELb1ESt26random_access_iterator_tagE8__copy_mIiEEPT_PKS3_S6_S4_(i32* %0, i32* %1, i32* %2)
  ret i32* %4
}

; Function Attrs: noinline nounwind uwtable
define linkonce_odr i32* @_ZSt12__niter_baseIPiET_S1_(i32* %0) #4 comdat {
  ret i32* %0
}

; Function Attrs: noinline nounwind uwtable
define linkonce_odr i32* @_ZNSt11__copy_moveILb1ELb1ESt26random_access_iterator_tagE8__copy_mIiEEPT_PKS3_S6_S4_(i32* %0, i32* %1, i32* %2) #4 comdat align 2 {
  %4 = ptrtoint i32* %1 to i64
  %5 = ptrtoint i32* %0 to i64
  %6 = sub i64 %4, %5
  %7 = sdiv exact i64 %6, 4
  %8 = icmp ne i64 %7, 0
  br i1 %8, label %9, label %13

9:                                                ; preds = %3
  %10 = bitcast i32* %2 to i8*
  %11 = bitcast i32* %0 to i8*
  %12 = mul i64 4, %7
  call void @llvm.memmove.p0i8.p0i8.i64(i8* align 4 %10, i8* align 4 %11, i64 %12, i1 false)
  br label %13

13:                                               ; preds = %9, %3
  %14 = getelementptr inbounds i32, i32* %2, i64 %7
  ret i32* %14
}

; Function Attrs: noinline nounwind uwtable
define linkonce_odr i32* @_ZSt12__miter_baseIPiET_S1_(i32* %0) #4 comdat {
  ret i32* %0
}

; Function Attrs: noinline nounwind uwtable
define linkonce_odr i32* @_ZNKSt13move_iteratorIPiE4baseEv(%"class.std::move_iterator"* %0) #4 comdat align 2 {
  %2 = getelementptr inbounds %"class.std::move_iterator", %"class.std::move_iterator"* %0, i32 0, i32 0
  %3 = load i32*, i32** %2, align 8
  ret i32* %3
}

; Function Attrs: noinline nounwind uwtable
define linkonce_odr void @_ZNSt13move_iteratorIPiEC2ES0_(%"class.std::move_iterator"* %0, i32* %1) unnamed_addr #4 comdat align 2 {
  %3 = getelementptr inbounds %"class.std::move_iterator", %"class.std::move_iterator"* %0, i32 0, i32 0
  store i32* %1, i32** %3, align 8
  ret void
}

; Function Attrs: noinline nounwind uwtable
define linkonce_odr void @_ZN9__gnu_cxx13new_allocatorIiE7destroyIiEEvPT_(%"class.__gnu_cxx::new_allocator"* %0, i32* %1) #4 comdat align 2 {
  ret void
}

; Function Attrs: noinline nounwind uwtable
define linkonce_odr void @_ZNSt6vectorI4DataSaIS0_EEC2Ev(%"class.std::vector.0"* %0) unnamed_addr #4 comdat align 2 personality i8* bitcast (i32 (...)* @__gxx_personality_v0 to i8*) {
  %2 = bitcast %"class.std::vector.0"* %0 to %"struct.std::_Vector_base.1"*
  invoke void @_ZNSt12_Vector_baseI4DataSaIS0_EEC2Ev(%"struct.std::_Vector_base.1"* %2)
          to label %3 unwind label %4

3:                                                ; preds = %1
  ret void

4:                                                ; preds = %1
  %5 = landingpad { i8*, i32 }
          catch i8* null
  %6 = extractvalue { i8*, i32 } %5, 0
  call void @__clang_call_terminate(i8* %6) #13
  unreachable
}

; Function Attrs: noinline uwtable
define linkonce_odr void @_ZNSt12_Vector_baseI4DataSaIS0_EEC2Ev(%"struct.std::_Vector_base.1"* %0) unnamed_addr #0 comdat align 2 {
  %2 = getelementptr inbounds %"struct.std::_Vector_base.1", %"struct.std::_Vector_base.1"* %0, i32 0, i32 0
  call void @_ZNSt12_Vector_baseI4DataSaIS0_EE12_Vector_implC2Ev(%"struct.std::_Vector_base<Data, std::allocator<Data> >::_Vector_impl"* %2)
  ret void
}

; Function Attrs: noinline nounwind uwtable
define linkonce_odr void @_ZNSt12_Vector_baseI4DataSaIS0_EE12_Vector_implC2Ev(%"struct.std::_Vector_base<Data, std::allocator<Data> >::_Vector_impl"* %0) unnamed_addr #4 comdat align 2 {
  %2 = bitcast %"struct.std::_Vector_base<Data, std::allocator<Data> >::_Vector_impl"* %0 to %"class.std::allocator.2"*
  call void @_ZNSaI4DataEC2Ev(%"class.std::allocator.2"* %2) #3
  %3 = getelementptr inbounds %"struct.std::_Vector_base<Data, std::allocator<Data> >::_Vector_impl", %"struct.std::_Vector_base<Data, std::allocator<Data> >::_Vector_impl"* %0, i32 0, i32 0
  store %struct.Data* null, %struct.Data** %3, align 8
  %4 = getelementptr inbounds %"struct.std::_Vector_base<Data, std::allocator<Data> >::_Vector_impl", %"struct.std::_Vector_base<Data, std::allocator<Data> >::_Vector_impl"* %0, i32 0, i32 1
  store %struct.Data* null, %struct.Data** %4, align 8
  %5 = getelementptr inbounds %"struct.std::_Vector_base<Data, std::allocator<Data> >::_Vector_impl", %"struct.std::_Vector_base<Data, std::allocator<Data> >::_Vector_impl"* %0, i32 0, i32 2
  store %struct.Data* null, %struct.Data** %5, align 8
  ret void
}

; Function Attrs: noinline nounwind uwtable
define linkonce_odr void @_ZNSaI4DataEC2Ev(%"class.std::allocator.2"* %0) unnamed_addr #4 comdat align 2 {
  %2 = bitcast %"class.std::allocator.2"* %0 to %"class.__gnu_cxx::new_allocator.3"*
  call void @_ZN9__gnu_cxx13new_allocatorI4DataEC2Ev(%"class.__gnu_cxx::new_allocator.3"* %2) #3
  ret void
}

; Function Attrs: noinline nounwind uwtable
define linkonce_odr void @_ZN9__gnu_cxx13new_allocatorI4DataEC2Ev(%"class.__gnu_cxx::new_allocator.3"* %0) unnamed_addr #4 comdat align 2 {
  ret void
}

; Function Attrs: noinline uwtable
define linkonce_odr void @_ZNSt6vectorI4DataSaIS0_EE9push_backEOS0_(%"class.std::vector.0"* %0, %struct.Data* dereferenceable(4) %1) #0 comdat align 2 {
  %3 = call dereferenceable(4) %struct.Data* @_ZSt4moveIR4DataEONSt16remove_referenceIT_E4typeEOS3_(%struct.Data* dereferenceable(4) %1) #3
  call void @_ZNSt6vectorI4DataSaIS0_EE12emplace_backIJS0_EEEvDpOT_(%"class.std::vector.0"* %0, %struct.Data* dereferenceable(4) %3)
  ret void
}

; Function Attrs: noinline nounwind uwtable
define linkonce_odr dereferenceable(4) %struct.Data* @_ZSt4moveIR4DataEONSt16remove_referenceIT_E4typeEOS3_(%struct.Data* dereferenceable(4) %0) #4 comdat {
  ret %struct.Data* %0
}

; Function Attrs: noinline uwtable
define linkonce_odr void @_ZSt9push_heapIN9__gnu_cxx17__normal_iteratorIP4DataSt6vectorIS2_SaIS2_EEEESt4lessIS2_EEvT_SA_T0_(%struct.Data* %0, %struct.Data* %1) #0 comdat {
  %3 = alloca %"class.__gnu_cxx::__normal_iterator.5", align 8
  %4 = alloca %"class.__gnu_cxx::__normal_iterator.5", align 8
  %5 = alloca %"struct.std::less", align 1
  %6 = alloca %"struct.__gnu_cxx::__ops::_Iter_comp_val", align 1
  %7 = alloca %struct.Data, align 4
  %8 = alloca %"class.__gnu_cxx::__normal_iterator.5", align 8
  %9 = alloca %"class.__gnu_cxx::__normal_iterator.5", align 8
  %10 = alloca %struct.Data, align 4
  %11 = getelementptr inbounds %"class.__gnu_cxx::__normal_iterator.5", %"class.__gnu_cxx::__normal_iterator.5"* %3, i32 0, i32 0
  store %struct.Data* %0, %struct.Data** %11, align 8
  %12 = getelementptr inbounds %"class.__gnu_cxx::__normal_iterator.5", %"class.__gnu_cxx::__normal_iterator.5"* %4, i32 0, i32 0
  store %struct.Data* %1, %struct.Data** %12, align 8
  %13 = call dereferenceable(1) %"struct.std::less"* @_ZSt4moveIRSt4lessI4DataEEONSt16remove_referenceIT_E4typeEOS5_(%"struct.std::less"* dereferenceable(1) %5) #3
  call void @_ZN9__gnu_cxx5__ops14_Iter_comp_valISt4lessI4DataEEC2ES4_(%"struct.__gnu_cxx::__ops::_Iter_comp_val"* %6)
  %14 = call %struct.Data* @_ZNK9__gnu_cxx17__normal_iteratorIP4DataSt6vectorIS1_SaIS1_EEEmiEl(%"class.__gnu_cxx::__normal_iterator.5"* %4, i64 1) #3
  %15 = getelementptr inbounds %"class.__gnu_cxx::__normal_iterator.5", %"class.__gnu_cxx::__normal_iterator.5"* %8, i32 0, i32 0
  store %struct.Data* %14, %struct.Data** %15, align 8
  %16 = call dereferenceable(4) %struct.Data* @_ZNK9__gnu_cxx17__normal_iteratorIP4DataSt6vectorIS1_SaIS1_EEEdeEv(%"class.__gnu_cxx::__normal_iterator.5"* %8) #3
  %17 = call dereferenceable(4) %struct.Data* @_ZSt4moveIR4DataEONSt16remove_referenceIT_E4typeEOS3_(%struct.Data* dereferenceable(4) %16) #3
  %18 = bitcast %struct.Data* %7 to i8*
  %19 = bitcast %struct.Data* %17 to i8*
  call void @llvm.memcpy.p0i8.p0i8.i64(i8* align 4 %18, i8* align 4 %19, i64 4, i1 false)
  %20 = bitcast %"class.__gnu_cxx::__normal_iterator.5"* %9 to i8*
  %21 = bitcast %"class.__gnu_cxx::__normal_iterator.5"* %3 to i8*
  call void @llvm.memcpy.p0i8.p0i8.i64(i8* align 8 %20, i8* align 8 %21, i64 8, i1 false)
  %22 = call i64 @_ZN9__gnu_cxxmiIP4DataSt6vectorIS1_SaIS1_EEEENS_17__normal_iteratorIT_T0_E15difference_typeERKS9_SC_(%"class.__gnu_cxx::__normal_iterator.5"* dereferenceable(8) %4, %"class.__gnu_cxx::__normal_iterator.5"* dereferenceable(8) %3) #3
  %23 = sub nsw i64 %22, 1
  %24 = call dereferenceable(4) %struct.Data* @_ZSt4moveIR4DataEONSt16remove_referenceIT_E4typeEOS3_(%struct.Data* dereferenceable(4) %7) #3
  %25 = bitcast %struct.Data* %10 to i8*
  %26 = bitcast %struct.Data* %24 to i8*
  call void @llvm.memcpy.p0i8.p0i8.i64(i8* align 4 %25, i8* align 4 %26, i64 4, i1 false)
  %27 = getelementptr inbounds %"class.__gnu_cxx::__normal_iterator.5", %"class.__gnu_cxx::__normal_iterator.5"* %9, i32 0, i32 0
  %28 = load %struct.Data*, %struct.Data** %27, align 8
  %29 = getelementptr inbounds %struct.Data, %struct.Data* %10, i32 0, i32 0
  %30 = load i32, i32* %29, align 4
  call void @_ZSt11__push_heapIN9__gnu_cxx17__normal_iteratorIP4DataSt6vectorIS2_SaIS2_EEEElS2_NS0_5__ops14_Iter_comp_valISt4lessIS2_EEEEvT_T0_SE_T1_RT2_(%struct.Data* %28, i64 %23, i64 0, i32 %30, %"struct.__gnu_cxx::__ops::_Iter_comp_val"* dereferenceable(1) %6)
  ret void
}

; Function Attrs: noinline nounwind uwtable
define linkonce_odr %struct.Data* @_ZNSt6vectorI4DataSaIS0_EE5beginEv(%"class.std::vector.0"* %0) #4 comdat align 2 {
  %2 = alloca %"class.__gnu_cxx::__normal_iterator.5", align 8
  %3 = bitcast %"class.std::vector.0"* %0 to %"struct.std::_Vector_base.1"*
  %4 = getelementptr inbounds %"struct.std::_Vector_base.1", %"struct.std::_Vector_base.1"* %3, i32 0, i32 0
  %5 = getelementptr inbounds %"struct.std::_Vector_base<Data, std::allocator<Data> >::_Vector_impl", %"struct.std::_Vector_base<Data, std::allocator<Data> >::_Vector_impl"* %4, i32 0, i32 0
  call void @_ZN9__gnu_cxx17__normal_iteratorIP4DataSt6vectorIS1_SaIS1_EEEC2ERKS2_(%"class.__gnu_cxx::__normal_iterator.5"* %2, %struct.Data** dereferenceable(8) %5) #3
  %6 = getelementptr inbounds %"class.__gnu_cxx::__normal_iterator.5", %"class.__gnu_cxx::__normal_iterator.5"* %2, i32 0, i32 0
  %7 = load %struct.Data*, %struct.Data** %6, align 8
  ret %struct.Data* %7
}

; Function Attrs: noinline nounwind uwtable
define linkonce_odr %struct.Data* @_ZNSt6vectorI4DataSaIS0_EE3endEv(%"class.std::vector.0"* %0) #4 comdat align 2 {
  %2 = alloca %"class.__gnu_cxx::__normal_iterator.5", align 8
  %3 = bitcast %"class.std::vector.0"* %0 to %"struct.std::_Vector_base.1"*
  %4 = getelementptr inbounds %"struct.std::_Vector_base.1", %"struct.std::_Vector_base.1"* %3, i32 0, i32 0
  %5 = getelementptr inbounds %"struct.std::_Vector_base<Data, std::allocator<Data> >::_Vector_impl", %"struct.std::_Vector_base<Data, std::allocator<Data> >::_Vector_impl"* %4, i32 0, i32 1
  call void @_ZN9__gnu_cxx17__normal_iteratorIP4DataSt6vectorIS1_SaIS1_EEEC2ERKS2_(%"class.__gnu_cxx::__normal_iterator.5"* %2, %struct.Data** dereferenceable(8) %5) #3
  %6 = getelementptr inbounds %"class.__gnu_cxx::__normal_iterator.5", %"class.__gnu_cxx::__normal_iterator.5"* %2, i32 0, i32 0
  %7 = load %struct.Data*, %struct.Data** %6, align 8
  ret %struct.Data* %7
}

; Function Attrs: noinline uwtable
define linkonce_odr void @_ZNSt6vectorI4DataSaIS0_EE12emplace_backIJS0_EEEvDpOT_(%"class.std::vector.0"* %0, %struct.Data* dereferenceable(4) %1) #0 comdat align 2 {
  %3 = alloca %"class.__gnu_cxx::__normal_iterator.5", align 8
  %4 = bitcast %"class.std::vector.0"* %0 to %"struct.std::_Vector_base.1"*
  %5 = getelementptr inbounds %"struct.std::_Vector_base.1", %"struct.std::_Vector_base.1"* %4, i32 0, i32 0
  %6 = getelementptr inbounds %"struct.std::_Vector_base<Data, std::allocator<Data> >::_Vector_impl", %"struct.std::_Vector_base<Data, std::allocator<Data> >::_Vector_impl"* %5, i32 0, i32 1
  %7 = load %struct.Data*, %struct.Data** %6, align 8
  %8 = bitcast %"class.std::vector.0"* %0 to %"struct.std::_Vector_base.1"*
  %9 = getelementptr inbounds %"struct.std::_Vector_base.1", %"struct.std::_Vector_base.1"* %8, i32 0, i32 0
  %10 = getelementptr inbounds %"struct.std::_Vector_base<Data, std::allocator<Data> >::_Vector_impl", %"struct.std::_Vector_base<Data, std::allocator<Data> >::_Vector_impl"* %9, i32 0, i32 2
  %11 = load %struct.Data*, %struct.Data** %10, align 8
  %12 = icmp ne %struct.Data* %7, %11
  br i1 %12, label %13, label %27

13:                                               ; preds = %2
  %14 = bitcast %"class.std::vector.0"* %0 to %"struct.std::_Vector_base.1"*
  %15 = getelementptr inbounds %"struct.std::_Vector_base.1", %"struct.std::_Vector_base.1"* %14, i32 0, i32 0
  %16 = bitcast %"struct.std::_Vector_base<Data, std::allocator<Data> >::_Vector_impl"* %15 to %"class.std::allocator.2"*
  %17 = bitcast %"class.std::vector.0"* %0 to %"struct.std::_Vector_base.1"*
  %18 = getelementptr inbounds %"struct.std::_Vector_base.1", %"struct.std::_Vector_base.1"* %17, i32 0, i32 0
  %19 = getelementptr inbounds %"struct.std::_Vector_base<Data, std::allocator<Data> >::_Vector_impl", %"struct.std::_Vector_base<Data, std::allocator<Data> >::_Vector_impl"* %18, i32 0, i32 1
  %20 = load %struct.Data*, %struct.Data** %19, align 8
  %21 = call dereferenceable(4) %struct.Data* @_ZSt7forwardI4DataEOT_RNSt16remove_referenceIS1_E4typeE(%struct.Data* dereferenceable(4) %1) #3
  call void @_ZNSt16allocator_traitsISaI4DataEE9constructIS0_JS0_EEEvRS1_PT_DpOT0_(%"class.std::allocator.2"* dereferenceable(1) %16, %struct.Data* %20, %struct.Data* dereferenceable(4) %21)
  %22 = bitcast %"class.std::vector.0"* %0 to %"struct.std::_Vector_base.1"*
  %23 = getelementptr inbounds %"struct.std::_Vector_base.1", %"struct.std::_Vector_base.1"* %22, i32 0, i32 0
  %24 = getelementptr inbounds %"struct.std::_Vector_base<Data, std::allocator<Data> >::_Vector_impl", %"struct.std::_Vector_base<Data, std::allocator<Data> >::_Vector_impl"* %23, i32 0, i32 1
  %25 = load %struct.Data*, %struct.Data** %24, align 8
  %26 = getelementptr inbounds %struct.Data, %struct.Data* %25, i32 1
  store %struct.Data* %26, %struct.Data** %24, align 8
  br label %33

27:                                               ; preds = %2
  %28 = call %struct.Data* @_ZNSt6vectorI4DataSaIS0_EE3endEv(%"class.std::vector.0"* %0) #3
  %29 = getelementptr inbounds %"class.__gnu_cxx::__normal_iterator.5", %"class.__gnu_cxx::__normal_iterator.5"* %3, i32 0, i32 0
  store %struct.Data* %28, %struct.Data** %29, align 8
  %30 = call dereferenceable(4) %struct.Data* @_ZSt7forwardI4DataEOT_RNSt16remove_referenceIS1_E4typeE(%struct.Data* dereferenceable(4) %1) #3
  %31 = getelementptr inbounds %"class.__gnu_cxx::__normal_iterator.5", %"class.__gnu_cxx::__normal_iterator.5"* %3, i32 0, i32 0
  %32 = load %struct.Data*, %struct.Data** %31, align 8
  call void @_ZNSt6vectorI4DataSaIS0_EE17_M_realloc_insertIJS0_EEEvN9__gnu_cxx17__normal_iteratorIPS0_S2_EEDpOT_(%"class.std::vector.0"* %0, %struct.Data* %32, %struct.Data* dereferenceable(4) %30)
  br label %33

33:                                               ; preds = %27, %13
  ret void
}

; Function Attrs: noinline uwtable
define linkonce_odr void @_ZNSt16allocator_traitsISaI4DataEE9constructIS0_JS0_EEEvRS1_PT_DpOT0_(%"class.std::allocator.2"* dereferenceable(1) %0, %struct.Data* %1, %struct.Data* dereferenceable(4) %2) #0 comdat align 2 {
  %4 = bitcast %"class.std::allocator.2"* %0 to %"class.__gnu_cxx::new_allocator.3"*
  %5 = call dereferenceable(4) %struct.Data* @_ZSt7forwardI4DataEOT_RNSt16remove_referenceIS1_E4typeE(%struct.Data* dereferenceable(4) %2) #3
  call void @_ZN9__gnu_cxx13new_allocatorI4DataE9constructIS1_JS1_EEEvPT_DpOT0_(%"class.__gnu_cxx::new_allocator.3"* %4, %struct.Data* %1, %struct.Data* dereferenceable(4) %5)
  ret void
}

; Function Attrs: noinline nounwind uwtable
define linkonce_odr dereferenceable(4) %struct.Data* @_ZSt7forwardI4DataEOT_RNSt16remove_referenceIS1_E4typeE(%struct.Data* dereferenceable(4) %0) #4 comdat {
  ret %struct.Data* %0
}

; Function Attrs: noinline uwtable
define linkonce_odr void @_ZNSt6vectorI4DataSaIS0_EE17_M_realloc_insertIJS0_EEEvN9__gnu_cxx17__normal_iteratorIPS0_S2_EEDpOT_(%"class.std::vector.0"* %0, %struct.Data* %1, %struct.Data* dereferenceable(4) %2) #0 comdat align 2 personality i8* bitcast (i32 (...)* @__gxx_personality_v0 to i8*) {
  %4 = alloca %"class.__gnu_cxx::__normal_iterator.5", align 8
  %5 = alloca %"class.__gnu_cxx::__normal_iterator.5", align 8
  %6 = getelementptr inbounds %"class.__gnu_cxx::__normal_iterator.5", %"class.__gnu_cxx::__normal_iterator.5"* %4, i32 0, i32 0
  store %struct.Data* %1, %struct.Data** %6, align 8
  %7 = call i64 @_ZNKSt6vectorI4DataSaIS0_EE12_M_check_lenEmPKc(%"class.std::vector.0"* %0, i64 1, i8* getelementptr inbounds ([26 x i8], [26 x i8]* @.str.4, i32 0, i32 0))
  %8 = bitcast %"class.std::vector.0"* %0 to %"struct.std::_Vector_base.1"*
  %9 = getelementptr inbounds %"struct.std::_Vector_base.1", %"struct.std::_Vector_base.1"* %8, i32 0, i32 0
  %10 = getelementptr inbounds %"struct.std::_Vector_base<Data, std::allocator<Data> >::_Vector_impl", %"struct.std::_Vector_base<Data, std::allocator<Data> >::_Vector_impl"* %9, i32 0, i32 0
  %11 = load %struct.Data*, %struct.Data** %10, align 8
  %12 = bitcast %"class.std::vector.0"* %0 to %"struct.std::_Vector_base.1"*
  %13 = getelementptr inbounds %"struct.std::_Vector_base.1", %"struct.std::_Vector_base.1"* %12, i32 0, i32 0
  %14 = getelementptr inbounds %"struct.std::_Vector_base<Data, std::allocator<Data> >::_Vector_impl", %"struct.std::_Vector_base<Data, std::allocator<Data> >::_Vector_impl"* %13, i32 0, i32 1
  %15 = load %struct.Data*, %struct.Data** %14, align 8
  %16 = call %struct.Data* @_ZNSt6vectorI4DataSaIS0_EE5beginEv(%"class.std::vector.0"* %0) #3
  %17 = getelementptr inbounds %"class.__gnu_cxx::__normal_iterator.5", %"class.__gnu_cxx::__normal_iterator.5"* %5, i32 0, i32 0
  store %struct.Data* %16, %struct.Data** %17, align 8
  %18 = call i64 @_ZN9__gnu_cxxmiIP4DataSt6vectorIS1_SaIS1_EEEENS_17__normal_iteratorIT_T0_E15difference_typeERKS9_SC_(%"class.__gnu_cxx::__normal_iterator.5"* dereferenceable(8) %4, %"class.__gnu_cxx::__normal_iterator.5"* dereferenceable(8) %5) #3
  %19 = bitcast %"class.std::vector.0"* %0 to %"struct.std::_Vector_base.1"*
  %20 = call %struct.Data* @_ZNSt12_Vector_baseI4DataSaIS0_EE11_M_allocateEm(%"struct.std::_Vector_base.1"* %19, i64 %7)
  %21 = bitcast %"class.std::vector.0"* %0 to %"struct.std::_Vector_base.1"*
  %22 = getelementptr inbounds %"struct.std::_Vector_base.1", %"struct.std::_Vector_base.1"* %21, i32 0, i32 0
  %23 = bitcast %"struct.std::_Vector_base<Data, std::allocator<Data> >::_Vector_impl"* %22 to %"class.std::allocator.2"*
  %24 = getelementptr inbounds %struct.Data, %struct.Data* %20, i64 %18
  %25 = call dereferenceable(4) %struct.Data* @_ZSt7forwardI4DataEOT_RNSt16remove_referenceIS1_E4typeE(%struct.Data* dereferenceable(4) %2) #3
  invoke void @_ZNSt16allocator_traitsISaI4DataEE9constructIS0_JS0_EEEvRS1_PT_DpOT0_(%"class.std::allocator.2"* dereferenceable(1) %23, %struct.Data* %24, %struct.Data* dereferenceable(4) %25)
          to label %26 unwind label %40

26:                                               ; preds = %3
  %27 = call dereferenceable(8) %struct.Data** @_ZNK9__gnu_cxx17__normal_iteratorIP4DataSt6vectorIS1_SaIS1_EEE4baseEv(%"class.__gnu_cxx::__normal_iterator.5"* %4) #3
  %28 = load %struct.Data*, %struct.Data** %27, align 8
  %29 = bitcast %"class.std::vector.0"* %0 to %"struct.std::_Vector_base.1"*
  %30 = call dereferenceable(1) %"class.std::allocator.2"* @_ZNSt12_Vector_baseI4DataSaIS0_EE19_M_get_Tp_allocatorEv(%"struct.std::_Vector_base.1"* %29) #3
  %31 = invoke %struct.Data* @_ZSt34__uninitialized_move_if_noexcept_aIP4DataS1_SaIS0_EET0_T_S4_S3_RT1_(%struct.Data* %11, %struct.Data* %28, %struct.Data* %20, %"class.std::allocator.2"* dereferenceable(1) %30)
          to label %32 unwind label %40

32:                                               ; preds = %26
  %33 = getelementptr inbounds %struct.Data, %struct.Data* %31, i32 1
  %34 = call dereferenceable(8) %struct.Data** @_ZNK9__gnu_cxx17__normal_iteratorIP4DataSt6vectorIS1_SaIS1_EEE4baseEv(%"class.__gnu_cxx::__normal_iterator.5"* %4) #3
  %35 = load %struct.Data*, %struct.Data** %34, align 8
  %36 = bitcast %"class.std::vector.0"* %0 to %"struct.std::_Vector_base.1"*
  %37 = call dereferenceable(1) %"class.std::allocator.2"* @_ZNSt12_Vector_baseI4DataSaIS0_EE19_M_get_Tp_allocatorEv(%"struct.std::_Vector_base.1"* %36) #3
  %38 = invoke %struct.Data* @_ZSt34__uninitialized_move_if_noexcept_aIP4DataS1_SaIS0_EET0_T_S4_S3_RT1_(%struct.Data* %35, %struct.Data* %15, %struct.Data* %33, %"class.std::allocator.2"* dereferenceable(1) %37)
          to label %39 unwind label %40

39:                                               ; preds = %32
  br label %65

40:                                               ; preds = %32, %26, %3
  %.0 = phi %struct.Data* [ %33, %32 ], [ null, %26 ], [ %20, %3 ]
  %41 = landingpad { i8*, i32 }
          catch i8* null
  %42 = extractvalue { i8*, i32 } %41, 0
  %43 = extractvalue { i8*, i32 } %41, 1
  br label %44

44:                                               ; preds = %40
  %45 = call i8* @__cxa_begin_catch(i8* %42) #3
  %46 = icmp ne %struct.Data* %.0, null
  br i1 %46, label %57, label %47

47:                                               ; preds = %44
  %48 = bitcast %"class.std::vector.0"* %0 to %"struct.std::_Vector_base.1"*
  %49 = getelementptr inbounds %"struct.std::_Vector_base.1", %"struct.std::_Vector_base.1"* %48, i32 0, i32 0
  %50 = bitcast %"struct.std::_Vector_base<Data, std::allocator<Data> >::_Vector_impl"* %49 to %"class.std::allocator.2"*
  %51 = getelementptr inbounds %struct.Data, %struct.Data* %20, i64 %18
  invoke void @_ZNSt16allocator_traitsISaI4DataEE7destroyIS0_EEvRS1_PT_(%"class.std::allocator.2"* dereferenceable(1) %50, %struct.Data* %51)
          to label %52 unwind label %53

52:                                               ; preds = %47
  br label %61

53:                                               ; preds = %63, %61, %57, %47
  %54 = landingpad { i8*, i32 }
          cleanup
  %55 = extractvalue { i8*, i32 } %54, 0
  %56 = extractvalue { i8*, i32 } %54, 1
  invoke void @__cxa_end_catch()
          to label %64 unwind label %90

57:                                               ; preds = %44
  %58 = bitcast %"class.std::vector.0"* %0 to %"struct.std::_Vector_base.1"*
  %59 = call dereferenceable(1) %"class.std::allocator.2"* @_ZNSt12_Vector_baseI4DataSaIS0_EE19_M_get_Tp_allocatorEv(%"struct.std::_Vector_base.1"* %58) #3
  invoke void @_ZSt8_DestroyIP4DataS0_EvT_S2_RSaIT0_E(%struct.Data* %20, %struct.Data* %.0, %"class.std::allocator.2"* dereferenceable(1) %59)
          to label %60 unwind label %53

60:                                               ; preds = %57
  br label %61

61:                                               ; preds = %60, %52
  %62 = bitcast %"class.std::vector.0"* %0 to %"struct.std::_Vector_base.1"*
  invoke void @_ZNSt12_Vector_baseI4DataSaIS0_EE13_M_deallocateEPS0_m(%"struct.std::_Vector_base.1"* %62, %struct.Data* %20, i64 %7)
          to label %63 unwind label %53

63:                                               ; preds = %61
  invoke void @__cxa_rethrow() #14
          to label %93 unwind label %53

64:                                               ; preds = %53
  br label %87

65:                                               ; preds = %39
  %66 = bitcast %"class.std::vector.0"* %0 to %"struct.std::_Vector_base.1"*
  %67 = call dereferenceable(1) %"class.std::allocator.2"* @_ZNSt12_Vector_baseI4DataSaIS0_EE19_M_get_Tp_allocatorEv(%"struct.std::_Vector_base.1"* %66) #3
  call void @_ZSt8_DestroyIP4DataS0_EvT_S2_RSaIT0_E(%struct.Data* %11, %struct.Data* %15, %"class.std::allocator.2"* dereferenceable(1) %67)
  %68 = bitcast %"class.std::vector.0"* %0 to %"struct.std::_Vector_base.1"*
  %69 = bitcast %"class.std::vector.0"* %0 to %"struct.std::_Vector_base.1"*
  %70 = getelementptr inbounds %"struct.std::_Vector_base.1", %"struct.std::_Vector_base.1"* %69, i32 0, i32 0
  %71 = getelementptr inbounds %"struct.std::_Vector_base<Data, std::allocator<Data> >::_Vector_impl", %"struct.std::_Vector_base<Data, std::allocator<Data> >::_Vector_impl"* %70, i32 0, i32 2
  %72 = load %struct.Data*, %struct.Data** %71, align 8
  %73 = ptrtoint %struct.Data* %72 to i64
  %74 = ptrtoint %struct.Data* %11 to i64
  %75 = sub i64 %73, %74
  %76 = sdiv exact i64 %75, 4
  call void @_ZNSt12_Vector_baseI4DataSaIS0_EE13_M_deallocateEPS0_m(%"struct.std::_Vector_base.1"* %68, %struct.Data* %11, i64 %76)
  %77 = bitcast %"class.std::vector.0"* %0 to %"struct.std::_Vector_base.1"*
  %78 = getelementptr inbounds %"struct.std::_Vector_base.1", %"struct.std::_Vector_base.1"* %77, i32 0, i32 0
  %79 = getelementptr inbounds %"struct.std::_Vector_base<Data, std::allocator<Data> >::_Vector_impl", %"struct.std::_Vector_base<Data, std::allocator<Data> >::_Vector_impl"* %78, i32 0, i32 0
  store %struct.Data* %20, %struct.Data** %79, align 8
  %80 = bitcast %"class.std::vector.0"* %0 to %"struct.std::_Vector_base.1"*
  %81 = getelementptr inbounds %"struct.std::_Vector_base.1", %"struct.std::_Vector_base.1"* %80, i32 0, i32 0
  %82 = getelementptr inbounds %"struct.std::_Vector_base<Data, std::allocator<Data> >::_Vector_impl", %"struct.std::_Vector_base<Data, std::allocator<Data> >::_Vector_impl"* %81, i32 0, i32 1
  store %struct.Data* %38, %struct.Data** %82, align 8
  %83 = getelementptr inbounds %struct.Data, %struct.Data* %20, i64 %7
  %84 = bitcast %"class.std::vector.0"* %0 to %"struct.std::_Vector_base.1"*
  %85 = getelementptr inbounds %"struct.std::_Vector_base.1", %"struct.std::_Vector_base.1"* %84, i32 0, i32 0
  %86 = getelementptr inbounds %"struct.std::_Vector_base<Data, std::allocator<Data> >::_Vector_impl", %"struct.std::_Vector_base<Data, std::allocator<Data> >::_Vector_impl"* %85, i32 0, i32 2
  store %struct.Data* %83, %struct.Data** %86, align 8
  ret void

87:                                               ; preds = %64
  %88 = insertvalue { i8*, i32 } undef, i8* %55, 0
  %89 = insertvalue { i8*, i32 } %88, i32 %56, 1
  resume { i8*, i32 } %89

90:                                               ; preds = %53
  %91 = landingpad { i8*, i32 }
          catch i8* null
  %92 = extractvalue { i8*, i32 } %91, 0
  call void @__clang_call_terminate(i8* %92) #13
  unreachable

93:                                               ; preds = %63
  unreachable
}

; Function Attrs: noinline nounwind uwtable
define linkonce_odr void @_ZN9__gnu_cxx13new_allocatorI4DataE9constructIS1_JS1_EEEvPT_DpOT0_(%"class.__gnu_cxx::new_allocator.3"* %0, %struct.Data* %1, %struct.Data* dereferenceable(4) %2) #4 comdat align 2 {
  %4 = bitcast %struct.Data* %1 to i8*
  %5 = bitcast i8* %4 to %struct.Data*
  %6 = call dereferenceable(4) %struct.Data* @_ZSt7forwardI4DataEOT_RNSt16remove_referenceIS1_E4typeE(%struct.Data* dereferenceable(4) %2) #3
  %7 = bitcast %struct.Data* %5 to i8*
  %8 = bitcast %struct.Data* %6 to i8*
  call void @llvm.memcpy.p0i8.p0i8.i64(i8* align 4 %7, i8* align 4 %8, i64 4, i1 false)
  ret void
}

; Function Attrs: noinline uwtable
define linkonce_odr i64 @_ZNKSt6vectorI4DataSaIS0_EE12_M_check_lenEmPKc(%"class.std::vector.0"* %0, i64 %1, i8* %2) #0 comdat align 2 {
  %4 = alloca i64, align 8
  %5 = alloca i64, align 8
  store i64 %1, i64* %4, align 8
  %6 = call i64 @_ZNKSt6vectorI4DataSaIS0_EE8max_sizeEv(%"class.std::vector.0"* %0) #3
  %7 = call i64 @_ZNKSt6vectorI4DataSaIS0_EE4sizeEv(%"class.std::vector.0"* %0) #3
  %8 = sub i64 %6, %7
  %9 = load i64, i64* %4, align 8
  %10 = icmp ult i64 %8, %9
  br i1 %10, label %11, label %12

11:                                               ; preds = %3
  call void @_ZSt20__throw_length_errorPKc(i8* %2) #14
  unreachable

12:                                               ; preds = %3
  %13 = call i64 @_ZNKSt6vectorI4DataSaIS0_EE4sizeEv(%"class.std::vector.0"* %0) #3
  %14 = call i64 @_ZNKSt6vectorI4DataSaIS0_EE4sizeEv(%"class.std::vector.0"* %0) #3
  store i64 %14, i64* %5, align 8
  %15 = call dereferenceable(8) i64* @_ZSt3maxImERKT_S2_S2_(i64* dereferenceable(8) %5, i64* dereferenceable(8) %4)
  %16 = load i64, i64* %15, align 8
  %17 = add i64 %13, %16
  %18 = call i64 @_ZNKSt6vectorI4DataSaIS0_EE4sizeEv(%"class.std::vector.0"* %0) #3
  %19 = icmp ult i64 %17, %18
  br i1 %19, label %23, label %20

20:                                               ; preds = %12
  %21 = call i64 @_ZNKSt6vectorI4DataSaIS0_EE8max_sizeEv(%"class.std::vector.0"* %0) #3
  %22 = icmp ugt i64 %17, %21
  br i1 %22, label %23, label %25

23:                                               ; preds = %20, %12
  %24 = call i64 @_ZNKSt6vectorI4DataSaIS0_EE8max_sizeEv(%"class.std::vector.0"* %0) #3
  br label %26

25:                                               ; preds = %20
  br label %26

26:                                               ; preds = %25, %23
  %27 = phi i64 [ %24, %23 ], [ %17, %25 ]
  ret i64 %27
}

; Function Attrs: noinline nounwind uwtable
define linkonce_odr i64 @_ZN9__gnu_cxxmiIP4DataSt6vectorIS1_SaIS1_EEEENS_17__normal_iteratorIT_T0_E15difference_typeERKS9_SC_(%"class.__gnu_cxx::__normal_iterator.5"* dereferenceable(8) %0, %"class.__gnu_cxx::__normal_iterator.5"* dereferenceable(8) %1) #4 comdat {
  %3 = call dereferenceable(8) %struct.Data** @_ZNK9__gnu_cxx17__normal_iteratorIP4DataSt6vectorIS1_SaIS1_EEE4baseEv(%"class.__gnu_cxx::__normal_iterator.5"* %0) #3
  %4 = load %struct.Data*, %struct.Data** %3, align 8
  %5 = call dereferenceable(8) %struct.Data** @_ZNK9__gnu_cxx17__normal_iteratorIP4DataSt6vectorIS1_SaIS1_EEE4baseEv(%"class.__gnu_cxx::__normal_iterator.5"* %1) #3
  %6 = load %struct.Data*, %struct.Data** %5, align 8
  %7 = ptrtoint %struct.Data* %4 to i64
  %8 = ptrtoint %struct.Data* %6 to i64
  %9 = sub i64 %7, %8
  %10 = sdiv exact i64 %9, 4
  ret i64 %10
}

; Function Attrs: noinline uwtable
define linkonce_odr %struct.Data* @_ZNSt12_Vector_baseI4DataSaIS0_EE11_M_allocateEm(%"struct.std::_Vector_base.1"* %0, i64 %1) #0 comdat align 2 {
  %3 = icmp ne i64 %1, 0
  br i1 %3, label %4, label %8

4:                                                ; preds = %2
  %5 = getelementptr inbounds %"struct.std::_Vector_base.1", %"struct.std::_Vector_base.1"* %0, i32 0, i32 0
  %6 = bitcast %"struct.std::_Vector_base<Data, std::allocator<Data> >::_Vector_impl"* %5 to %"class.std::allocator.2"*
  %7 = call %struct.Data* @_ZNSt16allocator_traitsISaI4DataEE8allocateERS1_m(%"class.std::allocator.2"* dereferenceable(1) %6, i64 %1)
  br label %9

8:                                                ; preds = %2
  br label %9

9:                                                ; preds = %8, %4
  %10 = phi %struct.Data* [ %7, %4 ], [ null, %8 ]
  ret %struct.Data* %10
}

; Function Attrs: noinline uwtable
define linkonce_odr %struct.Data* @_ZSt34__uninitialized_move_if_noexcept_aIP4DataS1_SaIS0_EET0_T_S4_S3_RT1_(%struct.Data* %0, %struct.Data* %1, %struct.Data* %2, %"class.std::allocator.2"* dereferenceable(1) %3) #0 comdat {
  %5 = alloca %"class.std::move_iterator.6", align 8
  %6 = alloca %"class.std::move_iterator.6", align 8
  %7 = call %struct.Data* @_ZSt32__make_move_if_noexcept_iteratorI4DataSt13move_iteratorIPS0_EET0_PT_(%struct.Data* %0)
  %8 = getelementptr inbounds %"class.std::move_iterator.6", %"class.std::move_iterator.6"* %5, i32 0, i32 0
  store %struct.Data* %7, %struct.Data** %8, align 8
  %9 = call %struct.Data* @_ZSt32__make_move_if_noexcept_iteratorI4DataSt13move_iteratorIPS0_EET0_PT_(%struct.Data* %1)
  %10 = getelementptr inbounds %"class.std::move_iterator.6", %"class.std::move_iterator.6"* %6, i32 0, i32 0
  store %struct.Data* %9, %struct.Data** %10, align 8
  %11 = getelementptr inbounds %"class.std::move_iterator.6", %"class.std::move_iterator.6"* %5, i32 0, i32 0
  %12 = load %struct.Data*, %struct.Data** %11, align 8
  %13 = getelementptr inbounds %"class.std::move_iterator.6", %"class.std::move_iterator.6"* %6, i32 0, i32 0
  %14 = load %struct.Data*, %struct.Data** %13, align 8
  %15 = call %struct.Data* @_ZSt22__uninitialized_copy_aISt13move_iteratorIP4DataES2_S1_ET0_T_S5_S4_RSaIT1_E(%struct.Data* %12, %struct.Data* %14, %struct.Data* %2, %"class.std::allocator.2"* dereferenceable(1) %3)
  ret %struct.Data* %15
}

; Function Attrs: noinline nounwind uwtable
define linkonce_odr dereferenceable(8) %struct.Data** @_ZNK9__gnu_cxx17__normal_iteratorIP4DataSt6vectorIS1_SaIS1_EEE4baseEv(%"class.__gnu_cxx::__normal_iterator.5"* %0) #4 comdat align 2 {
  %2 = getelementptr inbounds %"class.__gnu_cxx::__normal_iterator.5", %"class.__gnu_cxx::__normal_iterator.5"* %0, i32 0, i32 0
  ret %struct.Data** %2
}

; Function Attrs: noinline uwtable
define linkonce_odr void @_ZNSt16allocator_traitsISaI4DataEE7destroyIS0_EEvRS1_PT_(%"class.std::allocator.2"* dereferenceable(1) %0, %struct.Data* %1) #0 comdat align 2 {
  %3 = bitcast %"class.std::allocator.2"* %0 to %"class.__gnu_cxx::new_allocator.3"*
  call void @_ZN9__gnu_cxx13new_allocatorI4DataE7destroyIS1_EEvPT_(%"class.__gnu_cxx::new_allocator.3"* %3, %struct.Data* %1)
  ret void
}

; Function Attrs: noinline nounwind uwtable
define linkonce_odr i64 @_ZNKSt6vectorI4DataSaIS0_EE8max_sizeEv(%"class.std::vector.0"* %0) #4 comdat align 2 {
  %2 = bitcast %"class.std::vector.0"* %0 to %"struct.std::_Vector_base.1"*
  %3 = call dereferenceable(1) %"class.std::allocator.2"* @_ZNKSt12_Vector_baseI4DataSaIS0_EE19_M_get_Tp_allocatorEv(%"struct.std::_Vector_base.1"* %2) #3
  %4 = call i64 @_ZNSt16allocator_traitsISaI4DataEE8max_sizeERKS1_(%"class.std::allocator.2"* dereferenceable(1) %3) #3
  ret i64 %4
}

; Function Attrs: noinline nounwind uwtable
define linkonce_odr i64 @_ZNKSt6vectorI4DataSaIS0_EE4sizeEv(%"class.std::vector.0"* %0) #4 comdat align 2 {
  %2 = bitcast %"class.std::vector.0"* %0 to %"struct.std::_Vector_base.1"*
  %3 = getelementptr inbounds %"struct.std::_Vector_base.1", %"struct.std::_Vector_base.1"* %2, i32 0, i32 0
  %4 = getelementptr inbounds %"struct.std::_Vector_base<Data, std::allocator<Data> >::_Vector_impl", %"struct.std::_Vector_base<Data, std::allocator<Data> >::_Vector_impl"* %3, i32 0, i32 1
  %5 = load %struct.Data*, %struct.Data** %4, align 8
  %6 = bitcast %"class.std::vector.0"* %0 to %"struct.std::_Vector_base.1"*
  %7 = getelementptr inbounds %"struct.std::_Vector_base.1", %"struct.std::_Vector_base.1"* %6, i32 0, i32 0
  %8 = getelementptr inbounds %"struct.std::_Vector_base<Data, std::allocator<Data> >::_Vector_impl", %"struct.std::_Vector_base<Data, std::allocator<Data> >::_Vector_impl"* %7, i32 0, i32 0
  %9 = load %struct.Data*, %struct.Data** %8, align 8
  %10 = ptrtoint %struct.Data* %5 to i64
  %11 = ptrtoint %struct.Data* %9 to i64
  %12 = sub i64 %10, %11
  %13 = sdiv exact i64 %12, 4
  ret i64 %13
}

; Function Attrs: noinline nounwind uwtable
define linkonce_odr i64 @_ZNSt16allocator_traitsISaI4DataEE8max_sizeERKS1_(%"class.std::allocator.2"* dereferenceable(1) %0) #4 comdat align 2 {
  %2 = bitcast %"class.std::allocator.2"* %0 to %"class.__gnu_cxx::new_allocator.3"*
  %3 = call i64 @_ZNK9__gnu_cxx13new_allocatorI4DataE8max_sizeEv(%"class.__gnu_cxx::new_allocator.3"* %2) #3
  ret i64 %3
}

; Function Attrs: noinline nounwind uwtable
define linkonce_odr dereferenceable(1) %"class.std::allocator.2"* @_ZNKSt12_Vector_baseI4DataSaIS0_EE19_M_get_Tp_allocatorEv(%"struct.std::_Vector_base.1"* %0) #4 comdat align 2 {
  %2 = getelementptr inbounds %"struct.std::_Vector_base.1", %"struct.std::_Vector_base.1"* %0, i32 0, i32 0
  %3 = bitcast %"struct.std::_Vector_base<Data, std::allocator<Data> >::_Vector_impl"* %2 to %"class.std::allocator.2"*
  ret %"class.std::allocator.2"* %3
}

; Function Attrs: noinline nounwind uwtable
define linkonce_odr i64 @_ZNK9__gnu_cxx13new_allocatorI4DataE8max_sizeEv(%"class.__gnu_cxx::new_allocator.3"* %0) #4 comdat align 2 {
  ret i64 4611686018427387903
}

; Function Attrs: noinline uwtable
define linkonce_odr %struct.Data* @_ZNSt16allocator_traitsISaI4DataEE8allocateERS1_m(%"class.std::allocator.2"* dereferenceable(1) %0, i64 %1) #0 comdat align 2 {
  %3 = bitcast %"class.std::allocator.2"* %0 to %"class.__gnu_cxx::new_allocator.3"*
  %4 = call %struct.Data* @_ZN9__gnu_cxx13new_allocatorI4DataE8allocateEmPKv(%"class.__gnu_cxx::new_allocator.3"* %3, i64 %1, i8* null)
  ret %struct.Data* %4
}

; Function Attrs: noinline uwtable
define linkonce_odr %struct.Data* @_ZN9__gnu_cxx13new_allocatorI4DataE8allocateEmPKv(%"class.__gnu_cxx::new_allocator.3"* %0, i64 %1, i8* %2) #0 comdat align 2 {
  %4 = call i64 @_ZNK9__gnu_cxx13new_allocatorI4DataE8max_sizeEv(%"class.__gnu_cxx::new_allocator.3"* %0) #3
  %5 = icmp ugt i64 %1, %4
  br i1 %5, label %6, label %7

6:                                                ; preds = %3
  call void @_ZSt17__throw_bad_allocv() #14
  unreachable

7:                                                ; preds = %3
  %8 = mul i64 %1, 4
  %9 = call i8* @_Znwm(i64 %8)
  %10 = bitcast i8* %9 to %struct.Data*
  ret %struct.Data* %10
}

; Function Attrs: noinline uwtable
define linkonce_odr %struct.Data* @_ZSt22__uninitialized_copy_aISt13move_iteratorIP4DataES2_S1_ET0_T_S5_S4_RSaIT1_E(%struct.Data* %0, %struct.Data* %1, %struct.Data* %2, %"class.std::allocator.2"* dereferenceable(1) %3) #0 comdat {
  %5 = alloca %"class.std::move_iterator.6", align 8
  %6 = alloca %"class.std::move_iterator.6", align 8
  %7 = alloca %"class.std::move_iterator.6", align 8
  %8 = alloca %"class.std::move_iterator.6", align 8
  %9 = getelementptr inbounds %"class.std::move_iterator.6", %"class.std::move_iterator.6"* %5, i32 0, i32 0
  store %struct.Data* %0, %struct.Data** %9, align 8
  %10 = getelementptr inbounds %"class.std::move_iterator.6", %"class.std::move_iterator.6"* %6, i32 0, i32 0
  store %struct.Data* %1, %struct.Data** %10, align 8
  %11 = bitcast %"class.std::move_iterator.6"* %7 to i8*
  %12 = bitcast %"class.std::move_iterator.6"* %5 to i8*
  call void @llvm.memcpy.p0i8.p0i8.i64(i8* align 8 %11, i8* align 8 %12, i64 8, i1 false)
  %13 = bitcast %"class.std::move_iterator.6"* %8 to i8*
  %14 = bitcast %"class.std::move_iterator.6"* %6 to i8*
  call void @llvm.memcpy.p0i8.p0i8.i64(i8* align 8 %13, i8* align 8 %14, i64 8, i1 false)
  %15 = getelementptr inbounds %"class.std::move_iterator.6", %"class.std::move_iterator.6"* %7, i32 0, i32 0
  %16 = load %struct.Data*, %struct.Data** %15, align 8
  %17 = getelementptr inbounds %"class.std::move_iterator.6", %"class.std::move_iterator.6"* %8, i32 0, i32 0
  %18 = load %struct.Data*, %struct.Data** %17, align 8
  %19 = call %struct.Data* @_ZSt18uninitialized_copyISt13move_iteratorIP4DataES2_ET0_T_S5_S4_(%struct.Data* %16, %struct.Data* %18, %struct.Data* %2)
  ret %struct.Data* %19
}

; Function Attrs: noinline uwtable
define linkonce_odr %struct.Data* @_ZSt32__make_move_if_noexcept_iteratorI4DataSt13move_iteratorIPS0_EET0_PT_(%struct.Data* %0) #0 comdat {
  %2 = alloca %"class.std::move_iterator.6", align 8
  call void @_ZNSt13move_iteratorIP4DataEC2ES1_(%"class.std::move_iterator.6"* %2, %struct.Data* %0)
  %3 = getelementptr inbounds %"class.std::move_iterator.6", %"class.std::move_iterator.6"* %2, i32 0, i32 0
  %4 = load %struct.Data*, %struct.Data** %3, align 8
  ret %struct.Data* %4
}

; Function Attrs: noinline uwtable
define linkonce_odr %struct.Data* @_ZSt18uninitialized_copyISt13move_iteratorIP4DataES2_ET0_T_S5_S4_(%struct.Data* %0, %struct.Data* %1, %struct.Data* %2) #0 comdat {
  %4 = alloca %"class.std::move_iterator.6", align 8
  %5 = alloca %"class.std::move_iterator.6", align 8
  %6 = alloca %"class.std::move_iterator.6", align 8
  %7 = alloca %"class.std::move_iterator.6", align 8
  %8 = getelementptr inbounds %"class.std::move_iterator.6", %"class.std::move_iterator.6"* %4, i32 0, i32 0
  store %struct.Data* %0, %struct.Data** %8, align 8
  %9 = getelementptr inbounds %"class.std::move_iterator.6", %"class.std::move_iterator.6"* %5, i32 0, i32 0
  store %struct.Data* %1, %struct.Data** %9, align 8
  %10 = bitcast %"class.std::move_iterator.6"* %6 to i8*
  %11 = bitcast %"class.std::move_iterator.6"* %4 to i8*
  call void @llvm.memcpy.p0i8.p0i8.i64(i8* align 8 %10, i8* align 8 %11, i64 8, i1 false)
  %12 = bitcast %"class.std::move_iterator.6"* %7 to i8*
  %13 = bitcast %"class.std::move_iterator.6"* %5 to i8*
  call void @llvm.memcpy.p0i8.p0i8.i64(i8* align 8 %12, i8* align 8 %13, i64 8, i1 false)
  %14 = getelementptr inbounds %"class.std::move_iterator.6", %"class.std::move_iterator.6"* %6, i32 0, i32 0
  %15 = load %struct.Data*, %struct.Data** %14, align 8
  %16 = getelementptr inbounds %"class.std::move_iterator.6", %"class.std::move_iterator.6"* %7, i32 0, i32 0
  %17 = load %struct.Data*, %struct.Data** %16, align 8
  %18 = call %struct.Data* @_ZNSt20__uninitialized_copyILb0EE13__uninit_copyISt13move_iteratorIP4DataES4_EET0_T_S7_S6_(%struct.Data* %15, %struct.Data* %17, %struct.Data* %2)
  ret %struct.Data* %18
}

; Function Attrs: noinline uwtable
define linkonce_odr %struct.Data* @_ZNSt20__uninitialized_copyILb0EE13__uninit_copyISt13move_iteratorIP4DataES4_EET0_T_S7_S6_(%struct.Data* %0, %struct.Data* %1, %struct.Data* %2) #0 comdat align 2 personality i8* bitcast (i32 (...)* @__gxx_personality_v0 to i8*) {
  %4 = alloca %"class.std::move_iterator.6", align 8
  %5 = alloca %"class.std::move_iterator.6", align 8
  %6 = getelementptr inbounds %"class.std::move_iterator.6", %"class.std::move_iterator.6"* %4, i32 0, i32 0
  store %struct.Data* %0, %struct.Data** %6, align 8
  %7 = getelementptr inbounds %"class.std::move_iterator.6", %"class.std::move_iterator.6"* %5, i32 0, i32 0
  store %struct.Data* %1, %struct.Data** %7, align 8
  br label %8

8:                                                ; preds = %18, %3
  %.0 = phi %struct.Data* [ %2, %3 ], [ %19, %18 ]
  %9 = invoke zeroext i1 @_ZStneIP4DataEbRKSt13move_iteratorIT_ES6_(%"class.std::move_iterator.6"* dereferenceable(8) %4, %"class.std::move_iterator.6"* dereferenceable(8) %5)
          to label %10 unwind label %20

10:                                               ; preds = %8
  br i1 %9, label %11, label %27

11:                                               ; preds = %10
  %12 = call %struct.Data* @_ZSt11__addressofI4DataEPT_RS1_(%struct.Data* dereferenceable(4) %.0) #3
  %13 = invoke dereferenceable(4) %struct.Data* @_ZNKSt13move_iteratorIP4DataEdeEv(%"class.std::move_iterator.6"* %4)
          to label %14 unwind label %20

14:                                               ; preds = %11
  invoke void @_ZSt10_ConstructI4DataJS0_EEvPT_DpOT0_(%struct.Data* %12, %struct.Data* dereferenceable(4) %13)
          to label %15 unwind label %20

15:                                               ; preds = %14
  br label %16

16:                                               ; preds = %15
  %17 = invoke dereferenceable(8) %"class.std::move_iterator.6"* @_ZNSt13move_iteratorIP4DataEppEv(%"class.std::move_iterator.6"* %4)
          to label %18 unwind label %20

18:                                               ; preds = %16
  %19 = getelementptr inbounds %struct.Data, %struct.Data* %.0, i32 1
  br label %8

20:                                               ; preds = %16, %14, %11, %8
  %21 = landingpad { i8*, i32 }
          catch i8* null
  %22 = extractvalue { i8*, i32 } %21, 0
  %23 = extractvalue { i8*, i32 } %21, 1
  br label %24

24:                                               ; preds = %20
  %25 = call i8* @__cxa_begin_catch(i8* %22) #3
  invoke void @_ZSt8_DestroyIP4DataEvT_S2_(%struct.Data* %2, %struct.Data* %.0)
          to label %26 unwind label %28

26:                                               ; preds = %24
  invoke void @__cxa_rethrow() #14
          to label %40 unwind label %28

27:                                               ; preds = %10
  ret %struct.Data* %.0

28:                                               ; preds = %26, %24
  %29 = landingpad { i8*, i32 }
          cleanup
  %30 = extractvalue { i8*, i32 } %29, 0
  %31 = extractvalue { i8*, i32 } %29, 1
  invoke void @__cxa_end_catch()
          to label %32 unwind label %37

32:                                               ; preds = %28
  br label %34

33:                                               ; No predecessors!
  call void @llvm.trap()
  unreachable

34:                                               ; preds = %32
  %35 = insertvalue { i8*, i32 } undef, i8* %30, 0
  %36 = insertvalue { i8*, i32 } %35, i32 %31, 1
  resume { i8*, i32 } %36

37:                                               ; preds = %28
  %38 = landingpad { i8*, i32 }
          catch i8* null
  %39 = extractvalue { i8*, i32 } %38, 0
  call void @__clang_call_terminate(i8* %39) #13
  unreachable

40:                                               ; preds = %26
  unreachable
}

; Function Attrs: noinline uwtable
define linkonce_odr zeroext i1 @_ZStneIP4DataEbRKSt13move_iteratorIT_ES6_(%"class.std::move_iterator.6"* dereferenceable(8) %0, %"class.std::move_iterator.6"* dereferenceable(8) %1) #0 comdat {
  %3 = call zeroext i1 @_ZSteqIP4DataEbRKSt13move_iteratorIT_ES6_(%"class.std::move_iterator.6"* dereferenceable(8) %0, %"class.std::move_iterator.6"* dereferenceable(8) %1)
  %4 = xor i1 %3, true
  ret i1 %4
}

; Function Attrs: noinline nounwind uwtable
define linkonce_odr void @_ZSt10_ConstructI4DataJS0_EEvPT_DpOT0_(%struct.Data* %0, %struct.Data* dereferenceable(4) %1) #4 comdat {
  %3 = bitcast %struct.Data* %0 to i8*
  %4 = bitcast i8* %3 to %struct.Data*
  %5 = call dereferenceable(4) %struct.Data* @_ZSt7forwardI4DataEOT_RNSt16remove_referenceIS1_E4typeE(%struct.Data* dereferenceable(4) %1) #3
  %6 = bitcast %struct.Data* %4 to i8*
  %7 = bitcast %struct.Data* %5 to i8*
  call void @llvm.memcpy.p0i8.p0i8.i64(i8* align 4 %6, i8* align 4 %7, i64 4, i1 false)
  ret void
}

; Function Attrs: noinline nounwind uwtable
define linkonce_odr %struct.Data* @_ZSt11__addressofI4DataEPT_RS1_(%struct.Data* dereferenceable(4) %0) #4 comdat {
  ret %struct.Data* %0
}

; Function Attrs: noinline nounwind uwtable
define linkonce_odr dereferenceable(4) %struct.Data* @_ZNKSt13move_iteratorIP4DataEdeEv(%"class.std::move_iterator.6"* %0) #4 comdat align 2 {
  %2 = getelementptr inbounds %"class.std::move_iterator.6", %"class.std::move_iterator.6"* %0, i32 0, i32 0
  %3 = load %struct.Data*, %struct.Data** %2, align 8
  ret %struct.Data* %3
}

; Function Attrs: noinline nounwind uwtable
define linkonce_odr dereferenceable(8) %"class.std::move_iterator.6"* @_ZNSt13move_iteratorIP4DataEppEv(%"class.std::move_iterator.6"* %0) #4 comdat align 2 {
  %2 = getelementptr inbounds %"class.std::move_iterator.6", %"class.std::move_iterator.6"* %0, i32 0, i32 0
  %3 = load %struct.Data*, %struct.Data** %2, align 8
  %4 = getelementptr inbounds %struct.Data, %struct.Data* %3, i32 1
  store %struct.Data* %4, %struct.Data** %2, align 8
  ret %"class.std::move_iterator.6"* %0
}

; Function Attrs: cold noreturn nounwind
declare void @llvm.trap() #11

; Function Attrs: noinline uwtable
define linkonce_odr zeroext i1 @_ZSteqIP4DataEbRKSt13move_iteratorIT_ES6_(%"class.std::move_iterator.6"* dereferenceable(8) %0, %"class.std::move_iterator.6"* dereferenceable(8) %1) #0 comdat {
  %3 = call %struct.Data* @_ZNKSt13move_iteratorIP4DataE4baseEv(%"class.std::move_iterator.6"* %0)
  %4 = call %struct.Data* @_ZNKSt13move_iteratorIP4DataE4baseEv(%"class.std::move_iterator.6"* %1)
  %5 = icmp eq %struct.Data* %3, %4
  ret i1 %5
}

; Function Attrs: noinline nounwind uwtable
define linkonce_odr %struct.Data* @_ZNKSt13move_iteratorIP4DataE4baseEv(%"class.std::move_iterator.6"* %0) #4 comdat align 2 {
  %2 = getelementptr inbounds %"class.std::move_iterator.6", %"class.std::move_iterator.6"* %0, i32 0, i32 0
  %3 = load %struct.Data*, %struct.Data** %2, align 8
  ret %struct.Data* %3
}

; Function Attrs: noinline nounwind uwtable
define linkonce_odr void @_ZNSt13move_iteratorIP4DataEC2ES1_(%"class.std::move_iterator.6"* %0, %struct.Data* %1) unnamed_addr #4 comdat align 2 {
  %3 = getelementptr inbounds %"class.std::move_iterator.6", %"class.std::move_iterator.6"* %0, i32 0, i32 0
  store %struct.Data* %1, %struct.Data** %3, align 8
  ret void
}

; Function Attrs: noinline nounwind uwtable
define linkonce_odr void @_ZN9__gnu_cxx13new_allocatorI4DataE7destroyIS1_EEvPT_(%"class.__gnu_cxx::new_allocator.3"* %0, %struct.Data* %1) #4 comdat align 2 {
  ret void
}

; Function Attrs: noinline nounwind uwtable
define linkonce_odr dereferenceable(1) %"struct.std::less"* @_ZSt4moveIRSt4lessI4DataEEONSt16remove_referenceIT_E4typeEOS5_(%"struct.std::less"* dereferenceable(1) %0) #4 comdat {
  ret %"struct.std::less"* %0
}

; Function Attrs: noinline nounwind uwtable
define linkonce_odr void @_ZN9__gnu_cxx5__ops14_Iter_comp_valISt4lessI4DataEEC2ES4_(%"struct.__gnu_cxx::__ops::_Iter_comp_val"* %0) unnamed_addr #4 comdat align 2 {
  %2 = alloca %"struct.std::less", align 1
  %3 = getelementptr inbounds %"struct.__gnu_cxx::__ops::_Iter_comp_val", %"struct.__gnu_cxx::__ops::_Iter_comp_val"* %0, i32 0, i32 0
  %4 = call dereferenceable(1) %"struct.std::less"* @_ZSt4moveIRSt4lessI4DataEEONSt16remove_referenceIT_E4typeEOS5_(%"struct.std::less"* dereferenceable(1) %2) #3
  ret void
}

; Function Attrs: noinline nounwind uwtable
define linkonce_odr %struct.Data* @_ZNK9__gnu_cxx17__normal_iteratorIP4DataSt6vectorIS1_SaIS1_EEEmiEl(%"class.__gnu_cxx::__normal_iterator.5"* %0, i64 %1) #4 comdat align 2 {
  %3 = alloca %"class.__gnu_cxx::__normal_iterator.5", align 8
  %4 = alloca %struct.Data*, align 8
  %5 = getelementptr inbounds %"class.__gnu_cxx::__normal_iterator.5", %"class.__gnu_cxx::__normal_iterator.5"* %0, i32 0, i32 0
  %6 = load %struct.Data*, %struct.Data** %5, align 8
  %7 = sub i64 0, %1
  %8 = getelementptr inbounds %struct.Data, %struct.Data* %6, i64 %7
  store %struct.Data* %8, %struct.Data** %4, align 8
  call void @_ZN9__gnu_cxx17__normal_iteratorIP4DataSt6vectorIS1_SaIS1_EEEC2ERKS2_(%"class.__gnu_cxx::__normal_iterator.5"* %3, %struct.Data** dereferenceable(8) %4) #3
  %9 = getelementptr inbounds %"class.__gnu_cxx::__normal_iterator.5", %"class.__gnu_cxx::__normal_iterator.5"* %3, i32 0, i32 0
  %10 = load %struct.Data*, %struct.Data** %9, align 8
  ret %struct.Data* %10
}

; Function Attrs: noinline nounwind uwtable
define linkonce_odr dereferenceable(4) %struct.Data* @_ZNK9__gnu_cxx17__normal_iteratorIP4DataSt6vectorIS1_SaIS1_EEEdeEv(%"class.__gnu_cxx::__normal_iterator.5"* %0) #4 comdat align 2 {
  %2 = getelementptr inbounds %"class.__gnu_cxx::__normal_iterator.5", %"class.__gnu_cxx::__normal_iterator.5"* %0, i32 0, i32 0
  %3 = load %struct.Data*, %struct.Data** %2, align 8
  ret %struct.Data* %3
}

; Function Attrs: noinline uwtable
define linkonce_odr void @_ZSt11__push_heapIN9__gnu_cxx17__normal_iteratorIP4DataSt6vectorIS2_SaIS2_EEEElS2_NS0_5__ops14_Iter_comp_valISt4lessIS2_EEEEvT_T0_SE_T1_RT2_(%struct.Data* %0, i64 %1, i64 %2, i32 %3, %"struct.__gnu_cxx::__ops::_Iter_comp_val"* dereferenceable(1) %4) #0 comdat {
  %6 = alloca %"class.__gnu_cxx::__normal_iterator.5", align 8
  %7 = alloca %struct.Data, align 4
  %8 = alloca %"class.__gnu_cxx::__normal_iterator.5", align 8
  %9 = alloca %"class.__gnu_cxx::__normal_iterator.5", align 8
  %10 = alloca %"class.__gnu_cxx::__normal_iterator.5", align 8
  %11 = alloca %"class.__gnu_cxx::__normal_iterator.5", align 8
  %12 = getelementptr inbounds %"class.__gnu_cxx::__normal_iterator.5", %"class.__gnu_cxx::__normal_iterator.5"* %6, i32 0, i32 0
  store %struct.Data* %0, %struct.Data** %12, align 8
  %13 = getelementptr inbounds %struct.Data, %struct.Data* %7, i32 0, i32 0
  store i32 %3, i32* %13, align 4
  %14 = sub nsw i64 %1, 1
  %15 = sdiv i64 %14, 2
  br label %16

16:                                               ; preds = %26, %5
  %.01 = phi i64 [ %15, %5 ], [ %37, %26 ]
  %.0 = phi i64 [ %1, %5 ], [ %.01, %26 ]
  %17 = icmp sgt i64 %.0, %2
  br i1 %17, label %18, label %24

18:                                               ; preds = %16
  %19 = call %struct.Data* @_ZNK9__gnu_cxx17__normal_iteratorIP4DataSt6vectorIS1_SaIS1_EEEplEl(%"class.__gnu_cxx::__normal_iterator.5"* %6, i64 %.01) #3
  %20 = getelementptr inbounds %"class.__gnu_cxx::__normal_iterator.5", %"class.__gnu_cxx::__normal_iterator.5"* %8, i32 0, i32 0
  store %struct.Data* %19, %struct.Data** %20, align 8
  %21 = getelementptr inbounds %"class.__gnu_cxx::__normal_iterator.5", %"class.__gnu_cxx::__normal_iterator.5"* %8, i32 0, i32 0
  %22 = load %struct.Data*, %struct.Data** %21, align 8
  %23 = call zeroext i1 @_ZN9__gnu_cxx5__ops14_Iter_comp_valISt4lessI4DataEEclINS_17__normal_iteratorIPS3_St6vectorIS3_SaIS3_EEEES3_EEbT_RT0_(%"struct.__gnu_cxx::__ops::_Iter_comp_val"* %4, %struct.Data* %22, %struct.Data* dereferenceable(4) %7)
  br label %24

24:                                               ; preds = %18, %16
  %25 = phi i1 [ false, %16 ], [ %23, %18 ]
  br i1 %25, label %26, label %38

26:                                               ; preds = %24
  %27 = call %struct.Data* @_ZNK9__gnu_cxx17__normal_iteratorIP4DataSt6vectorIS1_SaIS1_EEEplEl(%"class.__gnu_cxx::__normal_iterator.5"* %6, i64 %.01) #3
  %28 = getelementptr inbounds %"class.__gnu_cxx::__normal_iterator.5", %"class.__gnu_cxx::__normal_iterator.5"* %9, i32 0, i32 0
  store %struct.Data* %27, %struct.Data** %28, align 8
  %29 = call dereferenceable(4) %struct.Data* @_ZNK9__gnu_cxx17__normal_iteratorIP4DataSt6vectorIS1_SaIS1_EEEdeEv(%"class.__gnu_cxx::__normal_iterator.5"* %9) #3
  %30 = call dereferenceable(4) %struct.Data* @_ZSt4moveIR4DataEONSt16remove_referenceIT_E4typeEOS3_(%struct.Data* dereferenceable(4) %29) #3
  %31 = call %struct.Data* @_ZNK9__gnu_cxx17__normal_iteratorIP4DataSt6vectorIS1_SaIS1_EEEplEl(%"class.__gnu_cxx::__normal_iterator.5"* %6, i64 %.0) #3
  %32 = getelementptr inbounds %"class.__gnu_cxx::__normal_iterator.5", %"class.__gnu_cxx::__normal_iterator.5"* %10, i32 0, i32 0
  store %struct.Data* %31, %struct.Data** %32, align 8
  %33 = call dereferenceable(4) %struct.Data* @_ZNK9__gnu_cxx17__normal_iteratorIP4DataSt6vectorIS1_SaIS1_EEEdeEv(%"class.__gnu_cxx::__normal_iterator.5"* %10) #3
  %34 = bitcast %struct.Data* %33 to i8*
  %35 = bitcast %struct.Data* %30 to i8*
  call void @llvm.memcpy.p0i8.p0i8.i64(i8* align 4 %34, i8* align 4 %35, i64 4, i1 false)
  %36 = sub nsw i64 %.01, 1
  %37 = sdiv i64 %36, 2
  br label %16

38:                                               ; preds = %24
  %39 = call dereferenceable(4) %struct.Data* @_ZSt4moveIR4DataEONSt16remove_referenceIT_E4typeEOS3_(%struct.Data* dereferenceable(4) %7) #3
  %40 = call %struct.Data* @_ZNK9__gnu_cxx17__normal_iteratorIP4DataSt6vectorIS1_SaIS1_EEEplEl(%"class.__gnu_cxx::__normal_iterator.5"* %6, i64 %.0) #3
  %41 = getelementptr inbounds %"class.__gnu_cxx::__normal_iterator.5", %"class.__gnu_cxx::__normal_iterator.5"* %11, i32 0, i32 0
  store %struct.Data* %40, %struct.Data** %41, align 8
  %42 = call dereferenceable(4) %struct.Data* @_ZNK9__gnu_cxx17__normal_iteratorIP4DataSt6vectorIS1_SaIS1_EEEdeEv(%"class.__gnu_cxx::__normal_iterator.5"* %11) #3
  %43 = bitcast %struct.Data* %42 to i8*
  %44 = bitcast %struct.Data* %39 to i8*
  call void @llvm.memcpy.p0i8.p0i8.i64(i8* align 4 %43, i8* align 4 %44, i64 4, i1 false)
  ret void
}

; Function Attrs: noinline nounwind uwtable
define linkonce_odr void @_ZN9__gnu_cxx17__normal_iteratorIP4DataSt6vectorIS1_SaIS1_EEEC2ERKS2_(%"class.__gnu_cxx::__normal_iterator.5"* %0, %struct.Data** dereferenceable(8) %1) unnamed_addr #4 comdat align 2 {
  %3 = getelementptr inbounds %"class.__gnu_cxx::__normal_iterator.5", %"class.__gnu_cxx::__normal_iterator.5"* %0, i32 0, i32 0
  %4 = load %struct.Data*, %struct.Data** %1, align 8
  store %struct.Data* %4, %struct.Data** %3, align 8
  ret void
}

; Function Attrs: noinline uwtable
define linkonce_odr zeroext i1 @_ZN9__gnu_cxx5__ops14_Iter_comp_valISt4lessI4DataEEclINS_17__normal_iteratorIPS3_St6vectorIS3_SaIS3_EEEES3_EEbT_RT0_(%"struct.__gnu_cxx::__ops::_Iter_comp_val"* %0, %struct.Data* %1, %struct.Data* dereferenceable(4) %2) #0 comdat align 2 {
  %4 = alloca %"class.__gnu_cxx::__normal_iterator.5", align 8
  %5 = getelementptr inbounds %"class.__gnu_cxx::__normal_iterator.5", %"class.__gnu_cxx::__normal_iterator.5"* %4, i32 0, i32 0
  store %struct.Data* %1, %struct.Data** %5, align 8
  %6 = getelementptr inbounds %"struct.__gnu_cxx::__ops::_Iter_comp_val", %"struct.__gnu_cxx::__ops::_Iter_comp_val"* %0, i32 0, i32 0
  %7 = call dereferenceable(4) %struct.Data* @_ZNK9__gnu_cxx17__normal_iteratorIP4DataSt6vectorIS1_SaIS1_EEEdeEv(%"class.__gnu_cxx::__normal_iterator.5"* %4) #3
  %8 = call zeroext i1 @_ZNKSt4lessI4DataEclERKS0_S3_(%"struct.std::less"* %6, %struct.Data* dereferenceable(4) %7, %struct.Data* dereferenceable(4) %2)
  ret i1 %8
}

; Function Attrs: noinline nounwind uwtable
define linkonce_odr %struct.Data* @_ZNK9__gnu_cxx17__normal_iteratorIP4DataSt6vectorIS1_SaIS1_EEEplEl(%"class.__gnu_cxx::__normal_iterator.5"* %0, i64 %1) #4 comdat align 2 {
  %3 = alloca %"class.__gnu_cxx::__normal_iterator.5", align 8
  %4 = alloca %struct.Data*, align 8
  %5 = getelementptr inbounds %"class.__gnu_cxx::__normal_iterator.5", %"class.__gnu_cxx::__normal_iterator.5"* %0, i32 0, i32 0
  %6 = load %struct.Data*, %struct.Data** %5, align 8
  %7 = getelementptr inbounds %struct.Data, %struct.Data* %6, i64 %1
  store %struct.Data* %7, %struct.Data** %4, align 8
  call void @_ZN9__gnu_cxx17__normal_iteratorIP4DataSt6vectorIS1_SaIS1_EEEC2ERKS2_(%"class.__gnu_cxx::__normal_iterator.5"* %3, %struct.Data** dereferenceable(8) %4) #3
  %8 = getelementptr inbounds %"class.__gnu_cxx::__normal_iterator.5", %"class.__gnu_cxx::__normal_iterator.5"* %3, i32 0, i32 0
  %9 = load %struct.Data*, %struct.Data** %8, align 8
  ret %struct.Data* %9
}

; Function Attrs: noinline uwtable
define linkonce_odr zeroext i1 @_ZNKSt4lessI4DataEclERKS0_S3_(%"struct.std::less"* %0, %struct.Data* dereferenceable(4) %1, %struct.Data* dereferenceable(4) %2) #0 comdat align 2 {
  %4 = call zeroext i1 @_ZNK4DataltERKS_(%struct.Data* %1, %struct.Data* dereferenceable(4) %2)
  ret i1 %4
}

; Function Attrs: noinline nounwind uwtable
define linkonce_odr zeroext i1 @_ZNK4DataltERKS_(%struct.Data* %0, %struct.Data* dereferenceable(4) %1) #4 comdat align 2 {
  %3 = getelementptr inbounds %struct.Data, %struct.Data* %0, i32 0, i32 0
  %4 = load i32, i32* %3, align 4
  %5 = getelementptr inbounds %struct.Data, %struct.Data* %1, i32 0, i32 0
  %6 = load i32, i32* %5, align 4
  %7 = call zeroext i1 @_Z10value_funcii(i32 %4, i32 %6)
  ret i1 %7
}

; Function Attrs: noinline nounwind uwtable
define linkonce_odr dereferenceable(4) %struct.Data* @_ZNKSt6vectorI4DataSaIS0_EE5frontEv(%"class.std::vector.0"* %0) #4 comdat align 2 {
  %2 = alloca %"class.__gnu_cxx::__normal_iterator.7", align 8
  %3 = call %struct.Data* @_ZNKSt6vectorI4DataSaIS0_EE5beginEv(%"class.std::vector.0"* %0) #3
  %4 = getelementptr inbounds %"class.__gnu_cxx::__normal_iterator.7", %"class.__gnu_cxx::__normal_iterator.7"* %2, i32 0, i32 0
  store %struct.Data* %3, %struct.Data** %4, align 8
  %5 = call dereferenceable(4) %struct.Data* @_ZNK9__gnu_cxx17__normal_iteratorIPK4DataSt6vectorIS1_SaIS1_EEEdeEv(%"class.__gnu_cxx::__normal_iterator.7"* %2) #3
  ret %struct.Data* %5
}

; Function Attrs: noinline nounwind uwtable
define linkonce_odr %struct.Data* @_ZNKSt6vectorI4DataSaIS0_EE5beginEv(%"class.std::vector.0"* %0) #4 comdat align 2 {
  %2 = alloca %"class.__gnu_cxx::__normal_iterator.7", align 8
  %3 = alloca %struct.Data*, align 8
  %4 = bitcast %"class.std::vector.0"* %0 to %"struct.std::_Vector_base.1"*
  %5 = getelementptr inbounds %"struct.std::_Vector_base.1", %"struct.std::_Vector_base.1"* %4, i32 0, i32 0
  %6 = getelementptr inbounds %"struct.std::_Vector_base<Data, std::allocator<Data> >::_Vector_impl", %"struct.std::_Vector_base<Data, std::allocator<Data> >::_Vector_impl"* %5, i32 0, i32 0
  %7 = load %struct.Data*, %struct.Data** %6, align 8
  store %struct.Data* %7, %struct.Data** %3, align 8
  call void @_ZN9__gnu_cxx17__normal_iteratorIPK4DataSt6vectorIS1_SaIS1_EEEC2ERKS3_(%"class.__gnu_cxx::__normal_iterator.7"* %2, %struct.Data** dereferenceable(8) %3) #3
  %8 = getelementptr inbounds %"class.__gnu_cxx::__normal_iterator.7", %"class.__gnu_cxx::__normal_iterator.7"* %2, i32 0, i32 0
  %9 = load %struct.Data*, %struct.Data** %8, align 8
  ret %struct.Data* %9
}

; Function Attrs: noinline nounwind uwtable
define linkonce_odr dereferenceable(4) %struct.Data* @_ZNK9__gnu_cxx17__normal_iteratorIPK4DataSt6vectorIS1_SaIS1_EEEdeEv(%"class.__gnu_cxx::__normal_iterator.7"* %0) #4 comdat align 2 {
  %2 = getelementptr inbounds %"class.__gnu_cxx::__normal_iterator.7", %"class.__gnu_cxx::__normal_iterator.7"* %0, i32 0, i32 0
  %3 = load %struct.Data*, %struct.Data** %2, align 8
  ret %struct.Data* %3
}

; Function Attrs: noinline nounwind uwtable
define linkonce_odr void @_ZN9__gnu_cxx17__normal_iteratorIPK4DataSt6vectorIS1_SaIS1_EEEC2ERKS3_(%"class.__gnu_cxx::__normal_iterator.7"* %0, %struct.Data** dereferenceable(8) %1) unnamed_addr #4 comdat align 2 {
  %3 = getelementptr inbounds %"class.__gnu_cxx::__normal_iterator.7", %"class.__gnu_cxx::__normal_iterator.7"* %0, i32 0, i32 0
  %4 = load %struct.Data*, %struct.Data** %1, align 8
  store %struct.Data* %4, %struct.Data** %3, align 8
  ret void
}

; Function Attrs: noinline uwtable
define linkonce_odr void @_ZSt8pop_heapIN9__gnu_cxx17__normal_iteratorIP4DataSt6vectorIS2_SaIS2_EEEESt4lessIS2_EEvT_SA_T0_(%struct.Data* %0, %struct.Data* %1) #0 comdat {
  %3 = alloca %"class.__gnu_cxx::__normal_iterator.5", align 8
  %4 = alloca %"class.__gnu_cxx::__normal_iterator.5", align 8
  %5 = alloca %"struct.std::less", align 1
  %6 = alloca %"struct.__gnu_cxx::__ops::_Iter_comp_iter", align 1
  %7 = alloca %"class.__gnu_cxx::__normal_iterator.5", align 8
  %8 = alloca %"class.__gnu_cxx::__normal_iterator.5", align 8
  %9 = alloca %"class.__gnu_cxx::__normal_iterator.5", align 8
  %10 = getelementptr inbounds %"class.__gnu_cxx::__normal_iterator.5", %"class.__gnu_cxx::__normal_iterator.5"* %3, i32 0, i32 0
  store %struct.Data* %0, %struct.Data** %10, align 8
  %11 = getelementptr inbounds %"class.__gnu_cxx::__normal_iterator.5", %"class.__gnu_cxx::__normal_iterator.5"* %4, i32 0, i32 0
  store %struct.Data* %1, %struct.Data** %11, align 8
  %12 = call i64 @_ZN9__gnu_cxxmiIP4DataSt6vectorIS1_SaIS1_EEEENS_17__normal_iteratorIT_T0_E15difference_typeERKS9_SC_(%"class.__gnu_cxx::__normal_iterator.5"* dereferenceable(8) %4, %"class.__gnu_cxx::__normal_iterator.5"* dereferenceable(8) %3) #3
  %13 = icmp sgt i64 %12, 1
  br i1 %13, label %14, label %29

14:                                               ; preds = %2
  %15 = call dereferenceable(1) %"struct.std::less"* @_ZSt4moveIRSt4lessI4DataEEONSt16remove_referenceIT_E4typeEOS5_(%"struct.std::less"* dereferenceable(1) %5) #3
  call void @_ZN9__gnu_cxx5__ops15_Iter_comp_iterISt4lessI4DataEEC2ES4_(%"struct.__gnu_cxx::__ops::_Iter_comp_iter"* %6)
  %16 = call dereferenceable(8) %"class.__gnu_cxx::__normal_iterator.5"* @_ZN9__gnu_cxx17__normal_iteratorIP4DataSt6vectorIS1_SaIS1_EEEmmEv(%"class.__gnu_cxx::__normal_iterator.5"* %4) #3
  %17 = bitcast %"class.__gnu_cxx::__normal_iterator.5"* %7 to i8*
  %18 = bitcast %"class.__gnu_cxx::__normal_iterator.5"* %3 to i8*
  call void @llvm.memcpy.p0i8.p0i8.i64(i8* align 8 %17, i8* align 8 %18, i64 8, i1 false)
  %19 = bitcast %"class.__gnu_cxx::__normal_iterator.5"* %8 to i8*
  %20 = bitcast %"class.__gnu_cxx::__normal_iterator.5"* %4 to i8*
  call void @llvm.memcpy.p0i8.p0i8.i64(i8* align 8 %19, i8* align 8 %20, i64 8, i1 false)
  %21 = bitcast %"class.__gnu_cxx::__normal_iterator.5"* %9 to i8*
  %22 = bitcast %"class.__gnu_cxx::__normal_iterator.5"* %4 to i8*
  call void @llvm.memcpy.p0i8.p0i8.i64(i8* align 8 %21, i8* align 8 %22, i64 8, i1 false)
  %23 = getelementptr inbounds %"class.__gnu_cxx::__normal_iterator.5", %"class.__gnu_cxx::__normal_iterator.5"* %7, i32 0, i32 0
  %24 = load %struct.Data*, %struct.Data** %23, align 8
  %25 = getelementptr inbounds %"class.__gnu_cxx::__normal_iterator.5", %"class.__gnu_cxx::__normal_iterator.5"* %8, i32 0, i32 0
  %26 = load %struct.Data*, %struct.Data** %25, align 8
  %27 = getelementptr inbounds %"class.__gnu_cxx::__normal_iterator.5", %"class.__gnu_cxx::__normal_iterator.5"* %9, i32 0, i32 0
  %28 = load %struct.Data*, %struct.Data** %27, align 8
  call void @_ZSt10__pop_heapIN9__gnu_cxx17__normal_iteratorIP4DataSt6vectorIS2_SaIS2_EEEENS0_5__ops15_Iter_comp_iterISt4lessIS2_EEEEvT_SD_SD_RT0_(%struct.Data* %24, %struct.Data* %26, %struct.Data* %28, %"struct.__gnu_cxx::__ops::_Iter_comp_iter"* dereferenceable(1) %6)
  br label %29

29:                                               ; preds = %14, %2
  ret void
}

; Function Attrs: noinline nounwind uwtable
define linkonce_odr void @_ZNSt6vectorI4DataSaIS0_EE8pop_backEv(%"class.std::vector.0"* %0) #4 comdat align 2 personality i8* bitcast (i32 (...)* @__gxx_personality_v0 to i8*) {
  %2 = bitcast %"class.std::vector.0"* %0 to %"struct.std::_Vector_base.1"*
  %3 = getelementptr inbounds %"struct.std::_Vector_base.1", %"struct.std::_Vector_base.1"* %2, i32 0, i32 0
  %4 = getelementptr inbounds %"struct.std::_Vector_base<Data, std::allocator<Data> >::_Vector_impl", %"struct.std::_Vector_base<Data, std::allocator<Data> >::_Vector_impl"* %3, i32 0, i32 1
  %5 = load %struct.Data*, %struct.Data** %4, align 8
  %6 = getelementptr inbounds %struct.Data, %struct.Data* %5, i32 -1
  store %struct.Data* %6, %struct.Data** %4, align 8
  %7 = bitcast %"class.std::vector.0"* %0 to %"struct.std::_Vector_base.1"*
  %8 = getelementptr inbounds %"struct.std::_Vector_base.1", %"struct.std::_Vector_base.1"* %7, i32 0, i32 0
  %9 = bitcast %"struct.std::_Vector_base<Data, std::allocator<Data> >::_Vector_impl"* %8 to %"class.std::allocator.2"*
  %10 = bitcast %"class.std::vector.0"* %0 to %"struct.std::_Vector_base.1"*
  %11 = getelementptr inbounds %"struct.std::_Vector_base.1", %"struct.std::_Vector_base.1"* %10, i32 0, i32 0
  %12 = getelementptr inbounds %"struct.std::_Vector_base<Data, std::allocator<Data> >::_Vector_impl", %"struct.std::_Vector_base<Data, std::allocator<Data> >::_Vector_impl"* %11, i32 0, i32 1
  %13 = load %struct.Data*, %struct.Data** %12, align 8
  invoke void @_ZNSt16allocator_traitsISaI4DataEE7destroyIS0_EEvRS1_PT_(%"class.std::allocator.2"* dereferenceable(1) %9, %struct.Data* %13)
          to label %14 unwind label %15

14:                                               ; preds = %1
  ret void

15:                                               ; preds = %1
  %16 = landingpad { i8*, i32 }
          catch i8* null
  %17 = extractvalue { i8*, i32 } %16, 0
  call void @__clang_call_terminate(i8* %17) #13
  unreachable
}

; Function Attrs: noinline nounwind uwtable
define linkonce_odr void @_ZN9__gnu_cxx5__ops15_Iter_comp_iterISt4lessI4DataEEC2ES4_(%"struct.__gnu_cxx::__ops::_Iter_comp_iter"* %0) unnamed_addr #4 comdat align 2 {
  %2 = alloca %"struct.std::less", align 1
  %3 = getelementptr inbounds %"struct.__gnu_cxx::__ops::_Iter_comp_iter", %"struct.__gnu_cxx::__ops::_Iter_comp_iter"* %0, i32 0, i32 0
  %4 = call dereferenceable(1) %"struct.std::less"* @_ZSt4moveIRSt4lessI4DataEEONSt16remove_referenceIT_E4typeEOS5_(%"struct.std::less"* dereferenceable(1) %2) #3
  ret void
}

; Function Attrs: noinline nounwind uwtable
define linkonce_odr dereferenceable(8) %"class.__gnu_cxx::__normal_iterator.5"* @_ZN9__gnu_cxx17__normal_iteratorIP4DataSt6vectorIS1_SaIS1_EEEmmEv(%"class.__gnu_cxx::__normal_iterator.5"* %0) #4 comdat align 2 {
  %2 = getelementptr inbounds %"class.__gnu_cxx::__normal_iterator.5", %"class.__gnu_cxx::__normal_iterator.5"* %0, i32 0, i32 0
  %3 = load %struct.Data*, %struct.Data** %2, align 8
  %4 = getelementptr inbounds %struct.Data, %struct.Data* %3, i32 -1
  store %struct.Data* %4, %struct.Data** %2, align 8
  ret %"class.__gnu_cxx::__normal_iterator.5"* %0
}

; Function Attrs: noinline uwtable
define linkonce_odr void @_ZSt10__pop_heapIN9__gnu_cxx17__normal_iteratorIP4DataSt6vectorIS2_SaIS2_EEEENS0_5__ops15_Iter_comp_iterISt4lessIS2_EEEEvT_SD_SD_RT0_(%struct.Data* %0, %struct.Data* %1, %struct.Data* %2, %"struct.__gnu_cxx::__ops::_Iter_comp_iter"* dereferenceable(1) %3) #0 comdat {
  %5 = alloca %"class.__gnu_cxx::__normal_iterator.5", align 8
  %6 = alloca %"class.__gnu_cxx::__normal_iterator.5", align 8
  %7 = alloca %"class.__gnu_cxx::__normal_iterator.5", align 8
  %8 = alloca %struct.Data, align 4
  %9 = alloca %"class.__gnu_cxx::__normal_iterator.5", align 8
  %10 = alloca %struct.Data, align 4
  %11 = alloca %"struct.__gnu_cxx::__ops::_Iter_comp_iter", align 1
  %12 = getelementptr inbounds %"class.__gnu_cxx::__normal_iterator.5", %"class.__gnu_cxx::__normal_iterator.5"* %5, i32 0, i32 0
  store %struct.Data* %0, %struct.Data** %12, align 8
  %13 = getelementptr inbounds %"class.__gnu_cxx::__normal_iterator.5", %"class.__gnu_cxx::__normal_iterator.5"* %6, i32 0, i32 0
  store %struct.Data* %1, %struct.Data** %13, align 8
  %14 = getelementptr inbounds %"class.__gnu_cxx::__normal_iterator.5", %"class.__gnu_cxx::__normal_iterator.5"* %7, i32 0, i32 0
  store %struct.Data* %2, %struct.Data** %14, align 8
  %15 = call dereferenceable(4) %struct.Data* @_ZNK9__gnu_cxx17__normal_iteratorIP4DataSt6vectorIS1_SaIS1_EEEdeEv(%"class.__gnu_cxx::__normal_iterator.5"* %7) #3
  %16 = call dereferenceable(4) %struct.Data* @_ZSt4moveIR4DataEONSt16remove_referenceIT_E4typeEOS3_(%struct.Data* dereferenceable(4) %15) #3
  %17 = bitcast %struct.Data* %8 to i8*
  %18 = bitcast %struct.Data* %16 to i8*
  call void @llvm.memcpy.p0i8.p0i8.i64(i8* align 4 %17, i8* align 4 %18, i64 4, i1 false)
  %19 = call dereferenceable(4) %struct.Data* @_ZNK9__gnu_cxx17__normal_iteratorIP4DataSt6vectorIS1_SaIS1_EEEdeEv(%"class.__gnu_cxx::__normal_iterator.5"* %5) #3
  %20 = call dereferenceable(4) %struct.Data* @_ZSt4moveIR4DataEONSt16remove_referenceIT_E4typeEOS3_(%struct.Data* dereferenceable(4) %19) #3
  %21 = call dereferenceable(4) %struct.Data* @_ZNK9__gnu_cxx17__normal_iteratorIP4DataSt6vectorIS1_SaIS1_EEEdeEv(%"class.__gnu_cxx::__normal_iterator.5"* %7) #3
  %22 = bitcast %struct.Data* %21 to i8*
  %23 = bitcast %struct.Data* %20 to i8*
  call void @llvm.memcpy.p0i8.p0i8.i64(i8* align 4 %22, i8* align 4 %23, i64 4, i1 false)
  %24 = bitcast %"class.__gnu_cxx::__normal_iterator.5"* %9 to i8*
  %25 = bitcast %"class.__gnu_cxx::__normal_iterator.5"* %5 to i8*
  call void @llvm.memcpy.p0i8.p0i8.i64(i8* align 8 %24, i8* align 8 %25, i64 8, i1 false)
  %26 = call i64 @_ZN9__gnu_cxxmiIP4DataSt6vectorIS1_SaIS1_EEEENS_17__normal_iteratorIT_T0_E15difference_typeERKS9_SC_(%"class.__gnu_cxx::__normal_iterator.5"* dereferenceable(8) %6, %"class.__gnu_cxx::__normal_iterator.5"* dereferenceable(8) %5) #3
  %27 = call dereferenceable(4) %struct.Data* @_ZSt4moveIR4DataEONSt16remove_referenceIT_E4typeEOS3_(%struct.Data* dereferenceable(4) %8) #3
  %28 = bitcast %struct.Data* %10 to i8*
  %29 = bitcast %struct.Data* %27 to i8*
  call void @llvm.memcpy.p0i8.p0i8.i64(i8* align 4 %28, i8* align 4 %29, i64 4, i1 false)
  %30 = bitcast %"struct.__gnu_cxx::__ops::_Iter_comp_iter"* %11 to i8*
  %31 = bitcast %"struct.__gnu_cxx::__ops::_Iter_comp_iter"* %3 to i8*
  call void @llvm.memcpy.p0i8.p0i8.i64(i8* align 1 %30, i8* align 1 %31, i64 1, i1 false)
  %32 = getelementptr inbounds %"class.__gnu_cxx::__normal_iterator.5", %"class.__gnu_cxx::__normal_iterator.5"* %9, i32 0, i32 0
  %33 = load %struct.Data*, %struct.Data** %32, align 8
  %34 = getelementptr inbounds %struct.Data, %struct.Data* %10, i32 0, i32 0
  %35 = load i32, i32* %34, align 4
  call void @_ZSt13__adjust_heapIN9__gnu_cxx17__normal_iteratorIP4DataSt6vectorIS2_SaIS2_EEEElS2_NS0_5__ops15_Iter_comp_iterISt4lessIS2_EEEEvT_T0_SE_T1_T2_(%struct.Data* %33, i64 0, i64 %26, i32 %35)
  ret void
}

; Function Attrs: noinline uwtable
define linkonce_odr void @_ZSt13__adjust_heapIN9__gnu_cxx17__normal_iteratorIP4DataSt6vectorIS2_SaIS2_EEEElS2_NS0_5__ops15_Iter_comp_iterISt4lessIS2_EEEEvT_T0_SE_T1_T2_(%struct.Data* %0, i64 %1, i64 %2, i32 %3) #0 comdat {
  %5 = alloca %"class.__gnu_cxx::__normal_iterator.5", align 8
  %6 = alloca %struct.Data, align 4
  %7 = alloca %"struct.__gnu_cxx::__ops::_Iter_comp_iter", align 1
  %8 = alloca %"class.__gnu_cxx::__normal_iterator.5", align 8
  %9 = alloca %"class.__gnu_cxx::__normal_iterator.5", align 8
  %10 = alloca %"class.__gnu_cxx::__normal_iterator.5", align 8
  %11 = alloca %"class.__gnu_cxx::__normal_iterator.5", align 8
  %12 = alloca %"class.__gnu_cxx::__normal_iterator.5", align 8
  %13 = alloca %"class.__gnu_cxx::__normal_iterator.5", align 8
  %14 = alloca %"struct.__gnu_cxx::__ops::_Iter_comp_val", align 1
  %15 = alloca %"class.__gnu_cxx::__normal_iterator.5", align 8
  %16 = alloca %struct.Data, align 4
  %17 = getelementptr inbounds %"class.__gnu_cxx::__normal_iterator.5", %"class.__gnu_cxx::__normal_iterator.5"* %5, i32 0, i32 0
  store %struct.Data* %0, %struct.Data** %17, align 8
  %18 = getelementptr inbounds %struct.Data, %struct.Data* %6, i32 0, i32 0
  store i32 %3, i32* %18, align 4
  br label %19

19:                                               ; preds = %38, %4
  %.01 = phi i64 [ %1, %4 ], [ %.12, %38 ]
  %.0 = phi i64 [ %1, %4 ], [ %.12, %38 ]
  %20 = sub nsw i64 %2, 1
  %21 = sdiv i64 %20, 2
  %22 = icmp slt i64 %.01, %21
  br i1 %22, label %23, label %48

23:                                               ; preds = %19
  %24 = add nsw i64 %.01, 1
  %25 = mul nsw i64 2, %24
  %26 = call %struct.Data* @_ZNK9__gnu_cxx17__normal_iteratorIP4DataSt6vectorIS1_SaIS1_EEEplEl(%"class.__gnu_cxx::__normal_iterator.5"* %5, i64 %25) #3
  %27 = getelementptr inbounds %"class.__gnu_cxx::__normal_iterator.5", %"class.__gnu_cxx::__normal_iterator.5"* %8, i32 0, i32 0
  store %struct.Data* %26, %struct.Data** %27, align 8
  %28 = sub nsw i64 %25, 1
  %29 = call %struct.Data* @_ZNK9__gnu_cxx17__normal_iteratorIP4DataSt6vectorIS1_SaIS1_EEEplEl(%"class.__gnu_cxx::__normal_iterator.5"* %5, i64 %28) #3
  %30 = getelementptr inbounds %"class.__gnu_cxx::__normal_iterator.5", %"class.__gnu_cxx::__normal_iterator.5"* %9, i32 0, i32 0
  store %struct.Data* %29, %struct.Data** %30, align 8
  %31 = getelementptr inbounds %"class.__gnu_cxx::__normal_iterator.5", %"class.__gnu_cxx::__normal_iterator.5"* %8, i32 0, i32 0
  %32 = load %struct.Data*, %struct.Data** %31, align 8
  %33 = getelementptr inbounds %"class.__gnu_cxx::__normal_iterator.5", %"class.__gnu_cxx::__normal_iterator.5"* %9, i32 0, i32 0
  %34 = load %struct.Data*, %struct.Data** %33, align 8
  %35 = call zeroext i1 @_ZN9__gnu_cxx5__ops15_Iter_comp_iterISt4lessI4DataEEclINS_17__normal_iteratorIPS3_St6vectorIS3_SaIS3_EEEESC_EEbT_T0_(%"struct.__gnu_cxx::__ops::_Iter_comp_iter"* %7, %struct.Data* %32, %struct.Data* %34)
  br i1 %35, label %36, label %38

36:                                               ; preds = %23
  %37 = add nsw i64 %25, -1
  br label %38

38:                                               ; preds = %36, %23
  %.12 = phi i64 [ %37, %36 ], [ %25, %23 ]
  %39 = call %struct.Data* @_ZNK9__gnu_cxx17__normal_iteratorIP4DataSt6vectorIS1_SaIS1_EEEplEl(%"class.__gnu_cxx::__normal_iterator.5"* %5, i64 %.12) #3
  %40 = getelementptr inbounds %"class.__gnu_cxx::__normal_iterator.5", %"class.__gnu_cxx::__normal_iterator.5"* %10, i32 0, i32 0
  store %struct.Data* %39, %struct.Data** %40, align 8
  %41 = call dereferenceable(4) %struct.Data* @_ZNK9__gnu_cxx17__normal_iteratorIP4DataSt6vectorIS1_SaIS1_EEEdeEv(%"class.__gnu_cxx::__normal_iterator.5"* %10) #3
  %42 = call dereferenceable(4) %struct.Data* @_ZSt4moveIR4DataEONSt16remove_referenceIT_E4typeEOS3_(%struct.Data* dereferenceable(4) %41) #3
  %43 = call %struct.Data* @_ZNK9__gnu_cxx17__normal_iteratorIP4DataSt6vectorIS1_SaIS1_EEEplEl(%"class.__gnu_cxx::__normal_iterator.5"* %5, i64 %.0) #3
  %44 = getelementptr inbounds %"class.__gnu_cxx::__normal_iterator.5", %"class.__gnu_cxx::__normal_iterator.5"* %11, i32 0, i32 0
  store %struct.Data* %43, %struct.Data** %44, align 8
  %45 = call dereferenceable(4) %struct.Data* @_ZNK9__gnu_cxx17__normal_iteratorIP4DataSt6vectorIS1_SaIS1_EEEdeEv(%"class.__gnu_cxx::__normal_iterator.5"* %11) #3
  %46 = bitcast %struct.Data* %45 to i8*
  %47 = bitcast %struct.Data* %42 to i8*
  call void @llvm.memcpy.p0i8.p0i8.i64(i8* align 4 %46, i8* align 4 %47, i64 4, i1 false)
  br label %19

48:                                               ; preds = %19
  %49 = and i64 %2, 1
  %50 = icmp eq i64 %49, 0
  br i1 %50, label %51, label %69

51:                                               ; preds = %48
  %52 = sub nsw i64 %2, 2
  %53 = sdiv i64 %52, 2
  %54 = icmp eq i64 %.01, %53
  br i1 %54, label %55, label %69

55:                                               ; preds = %51
  %56 = add nsw i64 %.01, 1
  %57 = mul nsw i64 2, %56
  %58 = sub nsw i64 %57, 1
  %59 = call %struct.Data* @_ZNK9__gnu_cxx17__normal_iteratorIP4DataSt6vectorIS1_SaIS1_EEEplEl(%"class.__gnu_cxx::__normal_iterator.5"* %5, i64 %58) #3
  %60 = getelementptr inbounds %"class.__gnu_cxx::__normal_iterator.5", %"class.__gnu_cxx::__normal_iterator.5"* %12, i32 0, i32 0
  store %struct.Data* %59, %struct.Data** %60, align 8
  %61 = call dereferenceable(4) %struct.Data* @_ZNK9__gnu_cxx17__normal_iteratorIP4DataSt6vectorIS1_SaIS1_EEEdeEv(%"class.__gnu_cxx::__normal_iterator.5"* %12) #3
  %62 = call dereferenceable(4) %struct.Data* @_ZSt4moveIR4DataEONSt16remove_referenceIT_E4typeEOS3_(%struct.Data* dereferenceable(4) %61) #3
  %63 = call %struct.Data* @_ZNK9__gnu_cxx17__normal_iteratorIP4DataSt6vectorIS1_SaIS1_EEEplEl(%"class.__gnu_cxx::__normal_iterator.5"* %5, i64 %.0) #3
  %64 = getelementptr inbounds %"class.__gnu_cxx::__normal_iterator.5", %"class.__gnu_cxx::__normal_iterator.5"* %13, i32 0, i32 0
  store %struct.Data* %63, %struct.Data** %64, align 8
  %65 = call dereferenceable(4) %struct.Data* @_ZNK9__gnu_cxx17__normal_iteratorIP4DataSt6vectorIS1_SaIS1_EEEdeEv(%"class.__gnu_cxx::__normal_iterator.5"* %13) #3
  %66 = bitcast %struct.Data* %65 to i8*
  %67 = bitcast %struct.Data* %62 to i8*
  call void @llvm.memcpy.p0i8.p0i8.i64(i8* align 4 %66, i8* align 4 %67, i64 4, i1 false)
  %68 = sub nsw i64 %57, 1
  br label %69

69:                                               ; preds = %55, %51, %48
  %.1 = phi i64 [ %68, %55 ], [ %.0, %51 ], [ %.0, %48 ]
  %70 = call dereferenceable(1) %"struct.__gnu_cxx::__ops::_Iter_comp_iter"* @_ZSt4moveIRN9__gnu_cxx5__ops15_Iter_comp_iterISt4lessI4DataEEEEONSt16remove_referenceIT_E4typeEOS9_(%"struct.__gnu_cxx::__ops::_Iter_comp_iter"* dereferenceable(1) %7) #3
  call void @_ZN9__gnu_cxx5__ops14_Iter_comp_valISt4lessI4DataEEC2EONS0_15_Iter_comp_iterIS4_EE(%"struct.__gnu_cxx::__ops::_Iter_comp_val"* %14, %"struct.__gnu_cxx::__ops::_Iter_comp_iter"* dereferenceable(1) %70)
  %71 = bitcast %"class.__gnu_cxx::__normal_iterator.5"* %15 to i8*
  %72 = bitcast %"class.__gnu_cxx::__normal_iterator.5"* %5 to i8*
  call void @llvm.memcpy.p0i8.p0i8.i64(i8* align 8 %71, i8* align 8 %72, i64 8, i1 false)
  %73 = call dereferenceable(4) %struct.Data* @_ZSt4moveIR4DataEONSt16remove_referenceIT_E4typeEOS3_(%struct.Data* dereferenceable(4) %6) #3
  %74 = bitcast %struct.Data* %16 to i8*
  %75 = bitcast %struct.Data* %73 to i8*
  call void @llvm.memcpy.p0i8.p0i8.i64(i8* align 4 %74, i8* align 4 %75, i64 4, i1 false)
  %76 = getelementptr inbounds %"class.__gnu_cxx::__normal_iterator.5", %"class.__gnu_cxx::__normal_iterator.5"* %15, i32 0, i32 0
  %77 = load %struct.Data*, %struct.Data** %76, align 8
  %78 = getelementptr inbounds %struct.Data, %struct.Data* %16, i32 0, i32 0
  %79 = load i32, i32* %78, align 4
  call void @_ZSt11__push_heapIN9__gnu_cxx17__normal_iteratorIP4DataSt6vectorIS2_SaIS2_EEEElS2_NS0_5__ops14_Iter_comp_valISt4lessIS2_EEEEvT_T0_SE_T1_RT2_(%struct.Data* %77, i64 %.1, i64 %1, i32 %79, %"struct.__gnu_cxx::__ops::_Iter_comp_val"* dereferenceable(1) %14)
  ret void
}

; Function Attrs: noinline uwtable
define linkonce_odr zeroext i1 @_ZN9__gnu_cxx5__ops15_Iter_comp_iterISt4lessI4DataEEclINS_17__normal_iteratorIPS3_St6vectorIS3_SaIS3_EEEESC_EEbT_T0_(%"struct.__gnu_cxx::__ops::_Iter_comp_iter"* %0, %struct.Data* %1, %struct.Data* %2) #0 comdat align 2 {
  %4 = alloca %"class.__gnu_cxx::__normal_iterator.5", align 8
  %5 = alloca %"class.__gnu_cxx::__normal_iterator.5", align 8
  %6 = getelementptr inbounds %"class.__gnu_cxx::__normal_iterator.5", %"class.__gnu_cxx::__normal_iterator.5"* %4, i32 0, i32 0
  store %struct.Data* %1, %struct.Data** %6, align 8
  %7 = getelementptr inbounds %"class.__gnu_cxx::__normal_iterator.5", %"class.__gnu_cxx::__normal_iterator.5"* %5, i32 0, i32 0
  store %struct.Data* %2, %struct.Data** %7, align 8
  %8 = getelementptr inbounds %"struct.__gnu_cxx::__ops::_Iter_comp_iter", %"struct.__gnu_cxx::__ops::_Iter_comp_iter"* %0, i32 0, i32 0
  %9 = call dereferenceable(4) %struct.Data* @_ZNK9__gnu_cxx17__normal_iteratorIP4DataSt6vectorIS1_SaIS1_EEEdeEv(%"class.__gnu_cxx::__normal_iterator.5"* %4) #3
  %10 = call dereferenceable(4) %struct.Data* @_ZNK9__gnu_cxx17__normal_iteratorIP4DataSt6vectorIS1_SaIS1_EEEdeEv(%"class.__gnu_cxx::__normal_iterator.5"* %5) #3
  %11 = call zeroext i1 @_ZNKSt4lessI4DataEclERKS0_S3_(%"struct.std::less"* %8, %struct.Data* dereferenceable(4) %9, %struct.Data* dereferenceable(4) %10)
  ret i1 %11
}

; Function Attrs: noinline nounwind uwtable
define linkonce_odr dereferenceable(1) %"struct.__gnu_cxx::__ops::_Iter_comp_iter"* @_ZSt4moveIRN9__gnu_cxx5__ops15_Iter_comp_iterISt4lessI4DataEEEEONSt16remove_referenceIT_E4typeEOS9_(%"struct.__gnu_cxx::__ops::_Iter_comp_iter"* dereferenceable(1) %0) #4 comdat {
  ret %"struct.__gnu_cxx::__ops::_Iter_comp_iter"* %0
}

; Function Attrs: noinline nounwind uwtable
define linkonce_odr void @_ZN9__gnu_cxx5__ops14_Iter_comp_valISt4lessI4DataEEC2EONS0_15_Iter_comp_iterIS4_EE(%"struct.__gnu_cxx::__ops::_Iter_comp_val"* %0, %"struct.__gnu_cxx::__ops::_Iter_comp_iter"* dereferenceable(1) %1) unnamed_addr #4 comdat align 2 {
  %3 = getelementptr inbounds %"struct.__gnu_cxx::__ops::_Iter_comp_val", %"struct.__gnu_cxx::__ops::_Iter_comp_val"* %0, i32 0, i32 0
  %4 = getelementptr inbounds %"struct.__gnu_cxx::__ops::_Iter_comp_iter", %"struct.__gnu_cxx::__ops::_Iter_comp_iter"* %1, i32 0, i32 0
  %5 = call dereferenceable(1) %"struct.std::less"* @_ZSt4moveIRSt4lessI4DataEEONSt16remove_referenceIT_E4typeEOS5_(%"struct.std::less"* dereferenceable(1) %4) #3
  ret void
}

; Function Attrs: noinline nounwind uwtable
define linkonce_odr zeroext i1 @_ZNKSt6vectorI4DataSaIS0_EE5emptyEv(%"class.std::vector.0"* %0) #4 comdat align 2 {
  %2 = alloca %"class.__gnu_cxx::__normal_iterator.7", align 8
  %3 = alloca %"class.__gnu_cxx::__normal_iterator.7", align 8
  %4 = call %struct.Data* @_ZNKSt6vectorI4DataSaIS0_EE5beginEv(%"class.std::vector.0"* %0) #3
  %5 = getelementptr inbounds %"class.__gnu_cxx::__normal_iterator.7", %"class.__gnu_cxx::__normal_iterator.7"* %2, i32 0, i32 0
  store %struct.Data* %4, %struct.Data** %5, align 8
  %6 = call %struct.Data* @_ZNKSt6vectorI4DataSaIS0_EE3endEv(%"class.std::vector.0"* %0) #3
  %7 = getelementptr inbounds %"class.__gnu_cxx::__normal_iterator.7", %"class.__gnu_cxx::__normal_iterator.7"* %3, i32 0, i32 0
  store %struct.Data* %6, %struct.Data** %7, align 8
  %8 = call zeroext i1 @_ZN9__gnu_cxxeqIPK4DataSt6vectorIS1_SaIS1_EEEEbRKNS_17__normal_iteratorIT_T0_EESC_(%"class.__gnu_cxx::__normal_iterator.7"* dereferenceable(8) %2, %"class.__gnu_cxx::__normal_iterator.7"* dereferenceable(8) %3) #3
  ret i1 %8
}

; Function Attrs: noinline nounwind uwtable
define linkonce_odr zeroext i1 @_ZN9__gnu_cxxeqIPK4DataSt6vectorIS1_SaIS1_EEEEbRKNS_17__normal_iteratorIT_T0_EESC_(%"class.__gnu_cxx::__normal_iterator.7"* dereferenceable(8) %0, %"class.__gnu_cxx::__normal_iterator.7"* dereferenceable(8) %1) #4 comdat {
  %3 = call dereferenceable(8) %struct.Data** @_ZNK9__gnu_cxx17__normal_iteratorIPK4DataSt6vectorIS1_SaIS1_EEE4baseEv(%"class.__gnu_cxx::__normal_iterator.7"* %0) #3
  %4 = load %struct.Data*, %struct.Data** %3, align 8
  %5 = call dereferenceable(8) %struct.Data** @_ZNK9__gnu_cxx17__normal_iteratorIPK4DataSt6vectorIS1_SaIS1_EEE4baseEv(%"class.__gnu_cxx::__normal_iterator.7"* %1) #3
  %6 = load %struct.Data*, %struct.Data** %5, align 8
  %7 = icmp eq %struct.Data* %4, %6
  ret i1 %7
}

; Function Attrs: noinline nounwind uwtable
define linkonce_odr %struct.Data* @_ZNKSt6vectorI4DataSaIS0_EE3endEv(%"class.std::vector.0"* %0) #4 comdat align 2 {
  %2 = alloca %"class.__gnu_cxx::__normal_iterator.7", align 8
  %3 = alloca %struct.Data*, align 8
  %4 = bitcast %"class.std::vector.0"* %0 to %"struct.std::_Vector_base.1"*
  %5 = getelementptr inbounds %"struct.std::_Vector_base.1", %"struct.std::_Vector_base.1"* %4, i32 0, i32 0
  %6 = getelementptr inbounds %"struct.std::_Vector_base<Data, std::allocator<Data> >::_Vector_impl", %"struct.std::_Vector_base<Data, std::allocator<Data> >::_Vector_impl"* %5, i32 0, i32 1
  %7 = load %struct.Data*, %struct.Data** %6, align 8
  store %struct.Data* %7, %struct.Data** %3, align 8
  call void @_ZN9__gnu_cxx17__normal_iteratorIPK4DataSt6vectorIS1_SaIS1_EEEC2ERKS3_(%"class.__gnu_cxx::__normal_iterator.7"* %2, %struct.Data** dereferenceable(8) %3) #3
  %8 = getelementptr inbounds %"class.__gnu_cxx::__normal_iterator.7", %"class.__gnu_cxx::__normal_iterator.7"* %2, i32 0, i32 0
  %9 = load %struct.Data*, %struct.Data** %8, align 8
  ret %struct.Data* %9
}

; Function Attrs: noinline nounwind uwtable
define linkonce_odr dereferenceable(8) %struct.Data** @_ZNK9__gnu_cxx17__normal_iteratorIPK4DataSt6vectorIS1_SaIS1_EEE4baseEv(%"class.__gnu_cxx::__normal_iterator.7"* %0) #4 comdat align 2 {
  %2 = getelementptr inbounds %"class.__gnu_cxx::__normal_iterator.7", %"class.__gnu_cxx::__normal_iterator.7"* %0, i32 0, i32 0
  ret %struct.Data** %2
}

; Function Attrs: noinline uwtable
define linkonce_odr void @_ZNSt6vectorI4DataSaIS0_EE9push_backERKS0_(%"class.std::vector.0"* %0, %struct.Data* dereferenceable(4) %1) #0 comdat align 2 {
  %3 = alloca %"class.__gnu_cxx::__normal_iterator.5", align 8
  %4 = bitcast %"class.std::vector.0"* %0 to %"struct.std::_Vector_base.1"*
  %5 = getelementptr inbounds %"struct.std::_Vector_base.1", %"struct.std::_Vector_base.1"* %4, i32 0, i32 0
  %6 = getelementptr inbounds %"struct.std::_Vector_base<Data, std::allocator<Data> >::_Vector_impl", %"struct.std::_Vector_base<Data, std::allocator<Data> >::_Vector_impl"* %5, i32 0, i32 1
  %7 = load %struct.Data*, %struct.Data** %6, align 8
  %8 = bitcast %"class.std::vector.0"* %0 to %"struct.std::_Vector_base.1"*
  %9 = getelementptr inbounds %"struct.std::_Vector_base.1", %"struct.std::_Vector_base.1"* %8, i32 0, i32 0
  %10 = getelementptr inbounds %"struct.std::_Vector_base<Data, std::allocator<Data> >::_Vector_impl", %"struct.std::_Vector_base<Data, std::allocator<Data> >::_Vector_impl"* %9, i32 0, i32 2
  %11 = load %struct.Data*, %struct.Data** %10, align 8
  %12 = icmp ne %struct.Data* %7, %11
  br i1 %12, label %13, label %26

13:                                               ; preds = %2
  %14 = bitcast %"class.std::vector.0"* %0 to %"struct.std::_Vector_base.1"*
  %15 = getelementptr inbounds %"struct.std::_Vector_base.1", %"struct.std::_Vector_base.1"* %14, i32 0, i32 0
  %16 = bitcast %"struct.std::_Vector_base<Data, std::allocator<Data> >::_Vector_impl"* %15 to %"class.std::allocator.2"*
  %17 = bitcast %"class.std::vector.0"* %0 to %"struct.std::_Vector_base.1"*
  %18 = getelementptr inbounds %"struct.std::_Vector_base.1", %"struct.std::_Vector_base.1"* %17, i32 0, i32 0
  %19 = getelementptr inbounds %"struct.std::_Vector_base<Data, std::allocator<Data> >::_Vector_impl", %"struct.std::_Vector_base<Data, std::allocator<Data> >::_Vector_impl"* %18, i32 0, i32 1
  %20 = load %struct.Data*, %struct.Data** %19, align 8
  call void @_ZNSt16allocator_traitsISaI4DataEE9constructIS0_JRKS0_EEEvRS1_PT_DpOT0_(%"class.std::allocator.2"* dereferenceable(1) %16, %struct.Data* %20, %struct.Data* dereferenceable(4) %1)
  %21 = bitcast %"class.std::vector.0"* %0 to %"struct.std::_Vector_base.1"*
  %22 = getelementptr inbounds %"struct.std::_Vector_base.1", %"struct.std::_Vector_base.1"* %21, i32 0, i32 0
  %23 = getelementptr inbounds %"struct.std::_Vector_base<Data, std::allocator<Data> >::_Vector_impl", %"struct.std::_Vector_base<Data, std::allocator<Data> >::_Vector_impl"* %22, i32 0, i32 1
  %24 = load %struct.Data*, %struct.Data** %23, align 8
  %25 = getelementptr inbounds %struct.Data, %struct.Data* %24, i32 1
  store %struct.Data* %25, %struct.Data** %23, align 8
  br label %31

26:                                               ; preds = %2
  %27 = call %struct.Data* @_ZNSt6vectorI4DataSaIS0_EE3endEv(%"class.std::vector.0"* %0) #3
  %28 = getelementptr inbounds %"class.__gnu_cxx::__normal_iterator.5", %"class.__gnu_cxx::__normal_iterator.5"* %3, i32 0, i32 0
  store %struct.Data* %27, %struct.Data** %28, align 8
  %29 = getelementptr inbounds %"class.__gnu_cxx::__normal_iterator.5", %"class.__gnu_cxx::__normal_iterator.5"* %3, i32 0, i32 0
  %30 = load %struct.Data*, %struct.Data** %29, align 8
  call void @_ZNSt6vectorI4DataSaIS0_EE17_M_realloc_insertIJRKS0_EEEvN9__gnu_cxx17__normal_iteratorIPS0_S2_EEDpOT_(%"class.std::vector.0"* %0, %struct.Data* %30, %struct.Data* dereferenceable(4) %1)
  br label %31

31:                                               ; preds = %26, %13
  ret void
}

; Function Attrs: noinline uwtable
define linkonce_odr void @_ZNSt16allocator_traitsISaI4DataEE9constructIS0_JRKS0_EEEvRS1_PT_DpOT0_(%"class.std::allocator.2"* dereferenceable(1) %0, %struct.Data* %1, %struct.Data* dereferenceable(4) %2) #0 comdat align 2 {
  %4 = bitcast %"class.std::allocator.2"* %0 to %"class.__gnu_cxx::new_allocator.3"*
  %5 = call dereferenceable(4) %struct.Data* @_ZSt7forwardIRK4DataEOT_RNSt16remove_referenceIS3_E4typeE(%struct.Data* dereferenceable(4) %2) #3
  call void @_ZN9__gnu_cxx13new_allocatorI4DataE9constructIS1_JRKS1_EEEvPT_DpOT0_(%"class.__gnu_cxx::new_allocator.3"* %4, %struct.Data* %1, %struct.Data* dereferenceable(4) %5)
  ret void
}

; Function Attrs: noinline uwtable
define linkonce_odr void @_ZNSt6vectorI4DataSaIS0_EE17_M_realloc_insertIJRKS0_EEEvN9__gnu_cxx17__normal_iteratorIPS0_S2_EEDpOT_(%"class.std::vector.0"* %0, %struct.Data* %1, %struct.Data* dereferenceable(4) %2) #0 comdat align 2 personality i8* bitcast (i32 (...)* @__gxx_personality_v0 to i8*) {
  %4 = alloca %"class.__gnu_cxx::__normal_iterator.5", align 8
  %5 = alloca %"class.__gnu_cxx::__normal_iterator.5", align 8
  %6 = getelementptr inbounds %"class.__gnu_cxx::__normal_iterator.5", %"class.__gnu_cxx::__normal_iterator.5"* %4, i32 0, i32 0
  store %struct.Data* %1, %struct.Data** %6, align 8
  %7 = call i64 @_ZNKSt6vectorI4DataSaIS0_EE12_M_check_lenEmPKc(%"class.std::vector.0"* %0, i64 1, i8* getelementptr inbounds ([26 x i8], [26 x i8]* @.str.4, i32 0, i32 0))
  %8 = bitcast %"class.std::vector.0"* %0 to %"struct.std::_Vector_base.1"*
  %9 = getelementptr inbounds %"struct.std::_Vector_base.1", %"struct.std::_Vector_base.1"* %8, i32 0, i32 0
  %10 = getelementptr inbounds %"struct.std::_Vector_base<Data, std::allocator<Data> >::_Vector_impl", %"struct.std::_Vector_base<Data, std::allocator<Data> >::_Vector_impl"* %9, i32 0, i32 0
  %11 = load %struct.Data*, %struct.Data** %10, align 8
  %12 = bitcast %"class.std::vector.0"* %0 to %"struct.std::_Vector_base.1"*
  %13 = getelementptr inbounds %"struct.std::_Vector_base.1", %"struct.std::_Vector_base.1"* %12, i32 0, i32 0
  %14 = getelementptr inbounds %"struct.std::_Vector_base<Data, std::allocator<Data> >::_Vector_impl", %"struct.std::_Vector_base<Data, std::allocator<Data> >::_Vector_impl"* %13, i32 0, i32 1
  %15 = load %struct.Data*, %struct.Data** %14, align 8
  %16 = call %struct.Data* @_ZNSt6vectorI4DataSaIS0_EE5beginEv(%"class.std::vector.0"* %0) #3
  %17 = getelementptr inbounds %"class.__gnu_cxx::__normal_iterator.5", %"class.__gnu_cxx::__normal_iterator.5"* %5, i32 0, i32 0
  store %struct.Data* %16, %struct.Data** %17, align 8
  %18 = call i64 @_ZN9__gnu_cxxmiIP4DataSt6vectorIS1_SaIS1_EEEENS_17__normal_iteratorIT_T0_E15difference_typeERKS9_SC_(%"class.__gnu_cxx::__normal_iterator.5"* dereferenceable(8) %4, %"class.__gnu_cxx::__normal_iterator.5"* dereferenceable(8) %5) #3
  %19 = bitcast %"class.std::vector.0"* %0 to %"struct.std::_Vector_base.1"*
  %20 = call %struct.Data* @_ZNSt12_Vector_baseI4DataSaIS0_EE11_M_allocateEm(%"struct.std::_Vector_base.1"* %19, i64 %7)
  %21 = bitcast %"class.std::vector.0"* %0 to %"struct.std::_Vector_base.1"*
  %22 = getelementptr inbounds %"struct.std::_Vector_base.1", %"struct.std::_Vector_base.1"* %21, i32 0, i32 0
  %23 = bitcast %"struct.std::_Vector_base<Data, std::allocator<Data> >::_Vector_impl"* %22 to %"class.std::allocator.2"*
  %24 = getelementptr inbounds %struct.Data, %struct.Data* %20, i64 %18
  %25 = call dereferenceable(4) %struct.Data* @_ZSt7forwardIRK4DataEOT_RNSt16remove_referenceIS3_E4typeE(%struct.Data* dereferenceable(4) %2) #3
  invoke void @_ZNSt16allocator_traitsISaI4DataEE9constructIS0_JRKS0_EEEvRS1_PT_DpOT0_(%"class.std::allocator.2"* dereferenceable(1) %23, %struct.Data* %24, %struct.Data* dereferenceable(4) %25)
          to label %26 unwind label %40

26:                                               ; preds = %3
  %27 = call dereferenceable(8) %struct.Data** @_ZNK9__gnu_cxx17__normal_iteratorIP4DataSt6vectorIS1_SaIS1_EEE4baseEv(%"class.__gnu_cxx::__normal_iterator.5"* %4) #3
  %28 = load %struct.Data*, %struct.Data** %27, align 8
  %29 = bitcast %"class.std::vector.0"* %0 to %"struct.std::_Vector_base.1"*
  %30 = call dereferenceable(1) %"class.std::allocator.2"* @_ZNSt12_Vector_baseI4DataSaIS0_EE19_M_get_Tp_allocatorEv(%"struct.std::_Vector_base.1"* %29) #3
  %31 = invoke %struct.Data* @_ZSt34__uninitialized_move_if_noexcept_aIP4DataS1_SaIS0_EET0_T_S4_S3_RT1_(%struct.Data* %11, %struct.Data* %28, %struct.Data* %20, %"class.std::allocator.2"* dereferenceable(1) %30)
          to label %32 unwind label %40

32:                                               ; preds = %26
  %33 = getelementptr inbounds %struct.Data, %struct.Data* %31, i32 1
  %34 = call dereferenceable(8) %struct.Data** @_ZNK9__gnu_cxx17__normal_iteratorIP4DataSt6vectorIS1_SaIS1_EEE4baseEv(%"class.__gnu_cxx::__normal_iterator.5"* %4) #3
  %35 = load %struct.Data*, %struct.Data** %34, align 8
  %36 = bitcast %"class.std::vector.0"* %0 to %"struct.std::_Vector_base.1"*
  %37 = call dereferenceable(1) %"class.std::allocator.2"* @_ZNSt12_Vector_baseI4DataSaIS0_EE19_M_get_Tp_allocatorEv(%"struct.std::_Vector_base.1"* %36) #3
  %38 = invoke %struct.Data* @_ZSt34__uninitialized_move_if_noexcept_aIP4DataS1_SaIS0_EET0_T_S4_S3_RT1_(%struct.Data* %35, %struct.Data* %15, %struct.Data* %33, %"class.std::allocator.2"* dereferenceable(1) %37)
          to label %39 unwind label %40

39:                                               ; preds = %32
  br label %65

40:                                               ; preds = %32, %26, %3
  %.0 = phi %struct.Data* [ %33, %32 ], [ null, %26 ], [ %20, %3 ]
  %41 = landingpad { i8*, i32 }
          catch i8* null
  %42 = extractvalue { i8*, i32 } %41, 0
  %43 = extractvalue { i8*, i32 } %41, 1
  br label %44

44:                                               ; preds = %40
  %45 = call i8* @__cxa_begin_catch(i8* %42) #3
  %46 = icmp ne %struct.Data* %.0, null
  br i1 %46, label %57, label %47

47:                                               ; preds = %44
  %48 = bitcast %"class.std::vector.0"* %0 to %"struct.std::_Vector_base.1"*
  %49 = getelementptr inbounds %"struct.std::_Vector_base.1", %"struct.std::_Vector_base.1"* %48, i32 0, i32 0
  %50 = bitcast %"struct.std::_Vector_base<Data, std::allocator<Data> >::_Vector_impl"* %49 to %"class.std::allocator.2"*
  %51 = getelementptr inbounds %struct.Data, %struct.Data* %20, i64 %18
  invoke void @_ZNSt16allocator_traitsISaI4DataEE7destroyIS0_EEvRS1_PT_(%"class.std::allocator.2"* dereferenceable(1) %50, %struct.Data* %51)
          to label %52 unwind label %53

52:                                               ; preds = %47
  br label %61

53:                                               ; preds = %63, %61, %57, %47
  %54 = landingpad { i8*, i32 }
          cleanup
  %55 = extractvalue { i8*, i32 } %54, 0
  %56 = extractvalue { i8*, i32 } %54, 1
  invoke void @__cxa_end_catch()
          to label %64 unwind label %90

57:                                               ; preds = %44
  %58 = bitcast %"class.std::vector.0"* %0 to %"struct.std::_Vector_base.1"*
  %59 = call dereferenceable(1) %"class.std::allocator.2"* @_ZNSt12_Vector_baseI4DataSaIS0_EE19_M_get_Tp_allocatorEv(%"struct.std::_Vector_base.1"* %58) #3
  invoke void @_ZSt8_DestroyIP4DataS0_EvT_S2_RSaIT0_E(%struct.Data* %20, %struct.Data* %.0, %"class.std::allocator.2"* dereferenceable(1) %59)
          to label %60 unwind label %53

60:                                               ; preds = %57
  br label %61

61:                                               ; preds = %60, %52
  %62 = bitcast %"class.std::vector.0"* %0 to %"struct.std::_Vector_base.1"*
  invoke void @_ZNSt12_Vector_baseI4DataSaIS0_EE13_M_deallocateEPS0_m(%"struct.std::_Vector_base.1"* %62, %struct.Data* %20, i64 %7)
          to label %63 unwind label %53

63:                                               ; preds = %61
  invoke void @__cxa_rethrow() #14
          to label %93 unwind label %53

64:                                               ; preds = %53
  br label %87

65:                                               ; preds = %39
  %66 = bitcast %"class.std::vector.0"* %0 to %"struct.std::_Vector_base.1"*
  %67 = call dereferenceable(1) %"class.std::allocator.2"* @_ZNSt12_Vector_baseI4DataSaIS0_EE19_M_get_Tp_allocatorEv(%"struct.std::_Vector_base.1"* %66) #3
  call void @_ZSt8_DestroyIP4DataS0_EvT_S2_RSaIT0_E(%struct.Data* %11, %struct.Data* %15, %"class.std::allocator.2"* dereferenceable(1) %67)
  %68 = bitcast %"class.std::vector.0"* %0 to %"struct.std::_Vector_base.1"*
  %69 = bitcast %"class.std::vector.0"* %0 to %"struct.std::_Vector_base.1"*
  %70 = getelementptr inbounds %"struct.std::_Vector_base.1", %"struct.std::_Vector_base.1"* %69, i32 0, i32 0
  %71 = getelementptr inbounds %"struct.std::_Vector_base<Data, std::allocator<Data> >::_Vector_impl", %"struct.std::_Vector_base<Data, std::allocator<Data> >::_Vector_impl"* %70, i32 0, i32 2
  %72 = load %struct.Data*, %struct.Data** %71, align 8
  %73 = ptrtoint %struct.Data* %72 to i64
  %74 = ptrtoint %struct.Data* %11 to i64
  %75 = sub i64 %73, %74
  %76 = sdiv exact i64 %75, 4
  call void @_ZNSt12_Vector_baseI4DataSaIS0_EE13_M_deallocateEPS0_m(%"struct.std::_Vector_base.1"* %68, %struct.Data* %11, i64 %76)
  %77 = bitcast %"class.std::vector.0"* %0 to %"struct.std::_Vector_base.1"*
  %78 = getelementptr inbounds %"struct.std::_Vector_base.1", %"struct.std::_Vector_base.1"* %77, i32 0, i32 0
  %79 = getelementptr inbounds %"struct.std::_Vector_base<Data, std::allocator<Data> >::_Vector_impl", %"struct.std::_Vector_base<Data, std::allocator<Data> >::_Vector_impl"* %78, i32 0, i32 0
  store %struct.Data* %20, %struct.Data** %79, align 8
  %80 = bitcast %"class.std::vector.0"* %0 to %"struct.std::_Vector_base.1"*
  %81 = getelementptr inbounds %"struct.std::_Vector_base.1", %"struct.std::_Vector_base.1"* %80, i32 0, i32 0
  %82 = getelementptr inbounds %"struct.std::_Vector_base<Data, std::allocator<Data> >::_Vector_impl", %"struct.std::_Vector_base<Data, std::allocator<Data> >::_Vector_impl"* %81, i32 0, i32 1
  store %struct.Data* %38, %struct.Data** %82, align 8
  %83 = getelementptr inbounds %struct.Data, %struct.Data* %20, i64 %7
  %84 = bitcast %"class.std::vector.0"* %0 to %"struct.std::_Vector_base.1"*
  %85 = getelementptr inbounds %"struct.std::_Vector_base.1", %"struct.std::_Vector_base.1"* %84, i32 0, i32 0
  %86 = getelementptr inbounds %"struct.std::_Vector_base<Data, std::allocator<Data> >::_Vector_impl", %"struct.std::_Vector_base<Data, std::allocator<Data> >::_Vector_impl"* %85, i32 0, i32 2
  store %struct.Data* %83, %struct.Data** %86, align 8
  ret void

87:                                               ; preds = %64
  %88 = insertvalue { i8*, i32 } undef, i8* %55, 0
  %89 = insertvalue { i8*, i32 } %88, i32 %56, 1
  resume { i8*, i32 } %89

90:                                               ; preds = %53
  %91 = landingpad { i8*, i32 }
          catch i8* null
  %92 = extractvalue { i8*, i32 } %91, 0
  call void @__clang_call_terminate(i8* %92) #13
  unreachable

93:                                               ; preds = %63
  unreachable
}

; Function Attrs: noinline nounwind uwtable
define linkonce_odr void @_ZN9__gnu_cxx13new_allocatorI4DataE9constructIS1_JRKS1_EEEvPT_DpOT0_(%"class.__gnu_cxx::new_allocator.3"* %0, %struct.Data* %1, %struct.Data* dereferenceable(4) %2) #4 comdat align 2 {
  %4 = bitcast %struct.Data* %1 to i8*
  %5 = bitcast i8* %4 to %struct.Data*
  %6 = call dereferenceable(4) %struct.Data* @_ZSt7forwardIRK4DataEOT_RNSt16remove_referenceIS3_E4typeE(%struct.Data* dereferenceable(4) %2) #3
  %7 = bitcast %struct.Data* %5 to i8*
  %8 = bitcast %struct.Data* %6 to i8*
  call void @llvm.memcpy.p0i8.p0i8.i64(i8* align 4 %7, i8* align 4 %8, i64 4, i1 false)
  ret void
}

; Function Attrs: noinline nounwind uwtable
define linkonce_odr dereferenceable(4) %struct.Data* @_ZSt7forwardIRK4DataEOT_RNSt16remove_referenceIS3_E4typeE(%struct.Data* dereferenceable(4) %0) #4 comdat {
  ret %struct.Data* %0
}

; Function Attrs: noinline uwtable
define internal void @_GLOBAL__sub_I_s631542942.cpp() #0 section ".text.startup" {
  call void @__cxx_global_var_init()
  call void @__cxx_global_var_init.1()
  ret void
}

; Function Attrs: argmemonly nocallback nofree nounwind willreturn
declare void @llvm.memcpy.p0i8.p0i8.i64(i8* noalias nocapture writeonly, i8* noalias nocapture readonly, i64, i1 immarg) #12

; Function Attrs: argmemonly nocallback nofree nounwind willreturn
declare void @llvm.memmove.p0i8.p0i8.i64(i8* nocapture writeonly, i8* nocapture readonly, i64, i1 immarg) #12

attributes #0 = { noinline uwtable "correctly-rounded-divide-sqrt-fp-math"="false" "disable-tail-calls"="false" "less-precise-fpmad"="false" "no-frame-pointer-elim"="true" "no-frame-pointer-elim-non-leaf" "no-infs-fp-math"="false" "no-jump-tables"="false" "no-nans-fp-math"="false" "no-signed-zeros-fp-math"="false" "no-trapping-math"="false" "stack-protector-buffer-size"="8" "target-cpu"="x86-64" "target-features"="+fxsr,+mmx,+sse,+sse2,+x87" "unsafe-fp-math"="false" "use-soft-float"="false" }
attributes #1 = { "correctly-rounded-divide-sqrt-fp-math"="false" "disable-tail-calls"="false" "less-precise-fpmad"="false" "no-frame-pointer-elim"="true" "no-frame-pointer-elim-non-leaf" "no-infs-fp-math"="false" "no-nans-fp-math"="false" "no-signed-zeros-fp-math"="false" "no-trapping-math"="false" "stack-protector-buffer-size"="8" "target-cpu"="x86-64" "target-features"="+fxsr,+mmx,+sse,+sse2,+x87" "unsafe-fp-math"="false" "use-soft-float"="false" }
attributes #2 = { nounwind "correctly-rounded-divide-sqrt-fp-math"="false" "disable-tail-calls"="false" "less-precise-fpmad"="false" "no-frame-pointer-elim"="true" "no-frame-pointer-elim-non-leaf" "no-infs-fp-math"="false" "no-nans-fp-math"="false" "no-signed-zeros-fp-math"="false" "no-trapping-math"="false" "stack-protector-buffer-size"="8" "target-cpu"="x86-64" "target-features"="+fxsr,+mmx,+sse,+sse2,+x87" "unsafe-fp-math"="false" "use-soft-float"="false" }
attributes #3 = { nounwind }
attributes #4 = { noinline nounwind uwtable "correctly-rounded-divide-sqrt-fp-math"="false" "disable-tail-calls"="false" "less-precise-fpmad"="false" "no-frame-pointer-elim"="true" "no-frame-pointer-elim-non-leaf" "no-infs-fp-math"="false" "no-jump-tables"="false" "no-nans-fp-math"="false" "no-signed-zeros-fp-math"="false" "no-trapping-math"="false" "stack-protector-buffer-size"="8" "target-cpu"="x86-64" "target-features"="+fxsr,+mmx,+sse,+sse2,+x87" "unsafe-fp-math"="false" "use-soft-float"="false" }
attributes #5 = { noinline norecurse uwtable "correctly-rounded-divide-sqrt-fp-math"="false" "disable-tail-calls"="false" "less-precise-fpmad"="false" "no-frame-pointer-elim"="true" "no-frame-pointer-elim-non-leaf" "no-infs-fp-math"="false" "no-jump-tables"="false" "no-nans-fp-math"="false" "no-signed-zeros-fp-math"="false" "no-trapping-math"="false" "stack-protector-buffer-size"="8" "target-cpu"="x86-64" "target-features"="+fxsr,+mmx,+sse,+sse2,+x87" "unsafe-fp-math"="false" "use-soft-float"="false" }
attributes #6 = { nocallback nofree nosync nounwind willreturn }
attributes #7 = { noinline noreturn nounwind }
attributes #8 = { nobuiltin nounwind "correctly-rounded-divide-sqrt-fp-math"="false" "disable-tail-calls"="false" "less-precise-fpmad"="false" "no-frame-pointer-elim"="true" "no-frame-pointer-elim-non-leaf" "no-infs-fp-math"="false" "no-nans-fp-math"="false" "no-signed-zeros-fp-math"="false" "no-trapping-math"="false" "stack-protector-buffer-size"="8" "target-cpu"="x86-64" "target-features"="+fxsr,+mmx,+sse,+sse2,+x87" "unsafe-fp-math"="false" "use-soft-float"="false" }
attributes #9 = { noreturn "correctly-rounded-divide-sqrt-fp-math"="false" "disable-tail-calls"="false" "less-precise-fpmad"="false" "no-frame-pointer-elim"="true" "no-frame-pointer-elim-non-leaf" "no-infs-fp-math"="false" "no-nans-fp-math"="false" "no-signed-zeros-fp-math"="false" "no-trapping-math"="false" "stack-protector-buffer-size"="8" "target-cpu"="x86-64" "target-features"="+fxsr,+mmx,+sse,+sse2,+x87" "unsafe-fp-math"="false" "use-soft-float"="false" }
attributes #10 = { nobuiltin "correctly-rounded-divide-sqrt-fp-math"="false" "disable-tail-calls"="false" "less-precise-fpmad"="false" "no-frame-pointer-elim"="true" "no-frame-pointer-elim-non-leaf" "no-infs-fp-math"="false" "no-nans-fp-math"="false" "no-signed-zeros-fp-math"="false" "no-trapping-math"="false" "stack-protector-buffer-size"="8" "target-cpu"="x86-64" "target-features"="+fxsr,+mmx,+sse,+sse2,+x87" "unsafe-fp-math"="false" "use-soft-float"="false" }
attributes #11 = { cold noreturn nounwind }
attributes #12 = { argmemonly nocallback nofree nounwind willreturn }
attributes #13 = { noreturn nounwind }
attributes #14 = { noreturn }

!llvm.module.flags = !{!0}
!llvm.ident = !{!1}

!0 = !{i32 1, !"wchar_size", i32 4}
!1 = !{!"clang version 6.0.0-1ubuntu2 (tags/RELEASE_600/final)"}
