; ModuleID = '/home/pedro/tcc/exDataset/codenet/data/selection/p00345/s791813146.ll'
source_filename = "/home/pedro/tcc/exDataset/codenet/data/selection/p00345/s791813146.cpp"
target datalayout = "e-m:e-i64:64-f80:128-n8:16:32:64-S128"
target triple = "x86_64-pc-linux-gnu"

%"class.std::ios_base::Init" = type { i8 }
%"class.std::__cxx11::basic_string" = type { %"struct.std::__cxx11::basic_string<char, std::char_traits<char>, std::allocator<char> >::_Alloc_hider", i64, %union.anon }
%"struct.std::__cxx11::basic_string<char, std::char_traits<char>, std::allocator<char> >::_Alloc_hider" = type { i8* }
%union.anon = type { i64, [8 x i8] }
%"class.std::basic_istream" = type { i32 (...)**, i64, %"class.std::basic_ios" }
%"class.std::basic_ios" = type { %"class.std::ios_base", %"class.std::basic_ostream"*, i8, i8, %"class.std::basic_streambuf"*, %"class.std::ctype"*, %"class.std::num_put"*, %"class.std::num_get"* }
%"class.std::ios_base" = type { i32 (...)**, i64, i64, i32, i32, i32, %"struct.std::ios_base::_Callback_list"*, %"struct.std::ios_base::_Words", [8 x %"struct.std::ios_base::_Words"], i32, %"struct.std::ios_base::_Words"*, %"class.std::locale" }
%"struct.std::ios_base::_Callback_list" = type { %"struct.std::ios_base::_Callback_list"*, void (i32, %"class.std::ios_base"*, i32)*, i32, i32 }
%"struct.std::ios_base::_Words" = type { i8*, i64 }
%"class.std::locale" = type { %"class.std::locale::_Impl"* }
%"class.std::locale::_Impl" = type { i32, %"class.std::locale::facet"**, i64, %"class.std::locale::facet"**, i8** }
%"class.std::locale::facet" = type <{ i32 (...)**, i32, [4 x i8] }>
%"class.std::basic_ostream" = type { i32 (...)**, %"class.std::basic_ios" }
%"class.std::basic_streambuf" = type { i32 (...)**, i8*, i8*, i8*, i8*, i8*, i8*, %"class.std::locale" }
%"class.std::ctype" = type <{ %"class.std::locale::facet.base", [4 x i8], %struct.__locale_struct*, i8, [7 x i8], i32*, i32*, i16*, i8, [256 x i8], [256 x i8], i8, [6 x i8] }>
%"class.std::locale::facet.base" = type <{ i32 (...)**, i32 }>
%struct.__locale_struct = type { [13 x %struct.__locale_data*], i16*, i32*, i32*, [13 x i8*] }
%struct.__locale_data = type opaque
%"class.std::num_put" = type { %"class.std::locale::facet.base", [4 x i8] }
%"class.std::num_get" = type { %"class.std::locale::facet.base", [4 x i8] }

$_ZSt5__gcdIxET_S0_S0_ = comdat any

@_ZStL8__ioinit = internal global %"class.std::ios_base::Init" zeroinitializer, align 1
@__dso_handle = external hidden global i8
@_Z1sB5cxx11 = global %"class.std::__cxx11::basic_string" zeroinitializer, align 8
@cnt = global i64 0, align 8
@a = global i64 0, align 8
@b = global i64 0, align 8
@c = global i64 0, align 8
@as = global i64 0, align 8
@bs = global i64 0, align 8
@cs = global i64 0, align 8
@_ZSt3cin = external global %"class.std::basic_istream", align 8
@_ZSt4cout = external global %"class.std::basic_ostream", align 8
@llvm.global_ctors = appending global [1 x { i32, void ()*, i8* }] [{ i32, void ()*, i8* } { i32 65535, void ()* @_GLOBAL__sub_I_s791813146.cpp, i8* null }]

; Function Attrs: noinline uwtable
define internal void @__cxx_global_var_init() #0 section ".text.startup" {
  call void @_ZNSt8ios_base4InitC1Ev(%"class.std::ios_base::Init"* @_ZStL8__ioinit)
  %1 = call i32 @__cxa_atexit(void (i8*)* bitcast (void (%"class.std::ios_base::Init"*)* @_ZNSt8ios_base4InitD1Ev to void (i8*)*), i8* getelementptr inbounds (%"class.std::ios_base::Init", %"class.std::ios_base::Init"* @_ZStL8__ioinit, i32 0, i32 0), i8* @__dso_handle) #3
  ret void
}

declare void @_ZNSt8ios_base4InitC1Ev(%"class.std::ios_base::Init"*) unnamed_addr #1

; Function Attrs: nounwind
declare void @_ZNSt8ios_base4InitD1Ev(%"class.std::ios_base::Init"*) unnamed_addr #2

; Function Attrs: nounwind
declare i32 @__cxa_atexit(void (i8*)*, i8*, i8*) #3

; Function Attrs: noinline uwtable
define internal void @__cxx_global_var_init.1() #0 section ".text.startup" {
  call void @_ZNSt7__cxx1112basic_stringIcSt11char_traitsIcESaIcEEC1Ev(%"class.std::__cxx11::basic_string"* @_Z1sB5cxx11) #3
  %1 = call i32 @__cxa_atexit(void (i8*)* bitcast (void (%"class.std::__cxx11::basic_string"*)* @_ZNSt7__cxx1112basic_stringIcSt11char_traitsIcESaIcEED1Ev to void (i8*)*), i8* bitcast (%"class.std::__cxx11::basic_string"* @_Z1sB5cxx11 to i8*), i8* @__dso_handle) #3
  ret void
}

; Function Attrs: nounwind
declare void @_ZNSt7__cxx1112basic_stringIcSt11char_traitsIcESaIcEEC1Ev(%"class.std::__cxx11::basic_string"*) unnamed_addr #2

; Function Attrs: nounwind
declare void @_ZNSt7__cxx1112basic_stringIcSt11char_traitsIcESaIcEED1Ev(%"class.std::__cxx11::basic_string"*) unnamed_addr #2

; Function Attrs: noinline norecurse uwtable
define i32 @main() #4 {
  %1 = call dereferenceable(280) %"class.std::basic_istream"* @_ZStrsIcSt11char_traitsIcESaIcEERSt13basic_istreamIT_T0_ES7_RNSt7__cxx1112basic_stringIS4_S5_T1_EE(%"class.std::basic_istream"* dereferenceable(280) @_ZSt3cin, %"class.std::__cxx11::basic_string"* dereferenceable(32) @_Z1sB5cxx11)
  br label %2

2:                                                ; preds = %56, %0
  %.01 = phi i32 [ 0, %0 ], [ %57, %56 ]
  %3 = call i64 @_ZNKSt7__cxx1112basic_stringIcSt11char_traitsIcESaIcEE4sizeEv(%"class.std::__cxx11::basic_string"* @_Z1sB5cxx11) #3
  %4 = trunc i64 %3 to i32
  %5 = icmp slt i32 %.01, %4
  br i1 %5, label %6, label %58

6:                                                ; preds = %2
  %7 = sext i32 %.01 to i64
  %8 = call dereferenceable(1) i8* @_ZNSt7__cxx1112basic_stringIcSt11char_traitsIcESaIcEEixEm(%"class.std::__cxx11::basic_string"* @_Z1sB5cxx11, i64 %7)
  %9 = load i8, i8* %8, align 1
  %10 = sext i8 %9 to i32
  %11 = icmp eq i32 %10, 46
  br i1 %11, label %12, label %13

12:                                               ; preds = %6
  store i64 0, i64* @cnt, align 8
  br label %13

13:                                               ; preds = %12, %6
  %14 = sext i32 %.01 to i64
  %15 = call dereferenceable(1) i8* @_ZNSt7__cxx1112basic_stringIcSt11char_traitsIcESaIcEEixEm(%"class.std::__cxx11::basic_string"* @_Z1sB5cxx11, i64 %14)
  %16 = load i8, i8* %15, align 1
  %17 = sext i8 %16 to i32
  %18 = icmp eq i32 %17, 46
  br i1 %18, label %31, label %19

19:                                               ; preds = %13
  %20 = sext i32 %.01 to i64
  %21 = call dereferenceable(1) i8* @_ZNSt7__cxx1112basic_stringIcSt11char_traitsIcESaIcEEixEm(%"class.std::__cxx11::basic_string"* @_Z1sB5cxx11, i64 %20)
  %22 = load i8, i8* %21, align 1
  %23 = sext i8 %22 to i32
  %24 = icmp eq i32 %23, 40
  br i1 %24, label %31, label %25

25:                                               ; preds = %19
  %26 = sext i32 %.01 to i64
  %27 = call dereferenceable(1) i8* @_ZNSt7__cxx1112basic_stringIcSt11char_traitsIcESaIcEEixEm(%"class.std::__cxx11::basic_string"* @_Z1sB5cxx11, i64 %26)
  %28 = load i8, i8* %27, align 1
  %29 = sext i8 %28 to i32
  %30 = icmp eq i32 %29, 41
  br i1 %30, label %31, label %32

31:                                               ; preds = %25, %19, %13
  br label %56

32:                                               ; preds = %25
  %33 = load i64, i64* @a, align 8
  %34 = mul nsw i64 %33, 10
  %35 = sext i32 %.01 to i64
  %36 = call dereferenceable(1) i8* @_ZNSt7__cxx1112basic_stringIcSt11char_traitsIcESaIcEEixEm(%"class.std::__cxx11::basic_string"* @_Z1sB5cxx11, i64 %35)
  %37 = load i8, i8* %36, align 1
  %38 = sext i8 %37 to i32
  %39 = sub nsw i32 %38, 48
  %40 = sext i32 %39 to i64
  %41 = add nsw i64 %34, %40
  store i64 %41, i64* @a, align 8
  %42 = load i64, i64* @as, align 8
  %43 = icmp sgt i64 %42, 0
  br i1 %43, label %50, label %44

44:                                               ; preds = %32
  %45 = sext i32 %.01 to i64
  %46 = call dereferenceable(1) i8* @_ZNSt7__cxx1112basic_stringIcSt11char_traitsIcESaIcEEixEm(%"class.std::__cxx11::basic_string"* @_Z1sB5cxx11, i64 %45)
  %47 = load i8, i8* %46, align 1
  %48 = sext i8 %47 to i32
  %49 = icmp ne i32 %48, 48
  br i1 %49, label %50, label %53

50:                                               ; preds = %44, %32
  %51 = load i64, i64* @as, align 8
  %52 = add nsw i64 %51, 1
  store i64 %52, i64* @as, align 8
  br label %53

53:                                               ; preds = %50, %44
  %54 = load i64, i64* @cnt, align 8
  %55 = add nsw i64 %54, 1
  store i64 %55, i64* @cnt, align 8
  br label %56

56:                                               ; preds = %53, %31
  %57 = add nsw i32 %.01, 1
  br label %2

58:                                               ; preds = %2
  %59 = load i64, i64* @a, align 8
  store i64 %59, i64* @c, align 8
  %60 = load i64, i64* @as, align 8
  store i64 %60, i64* @cs, align 8
  br label %61

61:                                               ; preds = %103, %58
  %.02 = phi i32 [ 0, %58 ], [ %104, %103 ]
  %62 = call i64 @_ZNKSt7__cxx1112basic_stringIcSt11char_traitsIcESaIcEE4sizeEv(%"class.std::__cxx11::basic_string"* @_Z1sB5cxx11) #3
  %63 = trunc i64 %62 to i32
  %64 = icmp slt i32 %.02, %63
  br i1 %64, label %65, label %105

65:                                               ; preds = %61
  %66 = sext i32 %.02 to i64
  %67 = call dereferenceable(1) i8* @_ZNSt7__cxx1112basic_stringIcSt11char_traitsIcESaIcEEixEm(%"class.std::__cxx11::basic_string"* @_Z1sB5cxx11, i64 %66)
  %68 = load i8, i8* %67, align 1
  %69 = sext i8 %68 to i32
  %70 = icmp eq i32 %69, 40
  br i1 %70, label %71, label %72

71:                                               ; preds = %65
  store i64 0, i64* @b, align 8
  store i64 0, i64* @bs, align 8
  br label %72

72:                                               ; preds = %71, %65
  %73 = sext i32 %.02 to i64
  %74 = call dereferenceable(1) i8* @_ZNSt7__cxx1112basic_stringIcSt11char_traitsIcESaIcEEixEm(%"class.std::__cxx11::basic_string"* @_Z1sB5cxx11, i64 %73)
  %75 = load i8, i8* %74, align 1
  %76 = sext i8 %75 to i32
  %77 = icmp eq i32 %76, 46
  br i1 %77, label %90, label %78

78:                                               ; preds = %72
  %79 = sext i32 %.02 to i64
  %80 = call dereferenceable(1) i8* @_ZNSt7__cxx1112basic_stringIcSt11char_traitsIcESaIcEEixEm(%"class.std::__cxx11::basic_string"* @_Z1sB5cxx11, i64 %79)
  %81 = load i8, i8* %80, align 1
  %82 = sext i8 %81 to i32
  %83 = icmp eq i32 %82, 40
  br i1 %83, label %90, label %84

84:                                               ; preds = %78
  %85 = sext i32 %.02 to i64
  %86 = call dereferenceable(1) i8* @_ZNSt7__cxx1112basic_stringIcSt11char_traitsIcESaIcEEixEm(%"class.std::__cxx11::basic_string"* @_Z1sB5cxx11, i64 %85)
  %87 = load i8, i8* %86, align 1
  %88 = sext i8 %87 to i32
  %89 = icmp eq i32 %88, 41
  br i1 %89, label %90, label %91

90:                                               ; preds = %84, %78, %72
  br label %103

91:                                               ; preds = %84
  %92 = load i64, i64* @b, align 8
  %93 = mul nsw i64 %92, 10
  %94 = sext i32 %.02 to i64
  %95 = call dereferenceable(1) i8* @_ZNSt7__cxx1112basic_stringIcSt11char_traitsIcESaIcEEixEm(%"class.std::__cxx11::basic_string"* @_Z1sB5cxx11, i64 %94)
  %96 = load i8, i8* %95, align 1
  %97 = sext i8 %96 to i32
  %98 = sub nsw i32 %97, 48
  %99 = sext i32 %98 to i64
  %100 = add nsw i64 %93, %99
  store i64 %100, i64* @b, align 8
  %101 = load i64, i64* @bs, align 8
  %102 = add nsw i64 %101, 1
  store i64 %102, i64* @bs, align 8
  br label %103

103:                                              ; preds = %91, %90
  %104 = add nsw i32 %.02, 1
  br label %61

105:                                              ; preds = %61
  %106 = call i64 @_ZNKSt7__cxx1112basic_stringIcSt11char_traitsIcESaIcEE4findEcm(%"class.std::__cxx11::basic_string"* @_Z1sB5cxx11, i8 signext 40, i64 0) #3
  %107 = trunc i64 %106 to i32
  %108 = icmp ne i32 %107, -1
  br i1 %108, label %109, label %154

109:                                              ; preds = %105
  br label %110

110:                                              ; preds = %119, %109
  %.03 = phi i32 [ 0, %109 ], [ %120, %119 ]
  %111 = sext i32 %.03 to i64
  %112 = load i64, i64* @bs, align 8
  %113 = icmp slt i64 %111, %112
  br i1 %113, label %114, label %121

114:                                              ; preds = %110
  %115 = load i64, i64* @a, align 8
  %116 = mul nsw i64 %115, 10
  store i64 %116, i64* @a, align 8
  %117 = load i64, i64* @as, align 8
  %118 = add nsw i64 %117, 1
  store i64 %118, i64* @as, align 8
  br label %119

119:                                              ; preds = %114
  %120 = add nsw i32 %.03, 1
  br label %110

121:                                              ; preds = %110
  %122 = load i64, i64* @b, align 8
  %123 = load i64, i64* @a, align 8
  %124 = add nsw i64 %123, %122
  store i64 %124, i64* @a, align 8
  br label %125

125:                                              ; preds = %131, %121
  %.06 = phi i32 [ 0, %121 ], [ %132, %131 ]
  %.04 = phi i64 [ 1, %121 ], [ %130, %131 ]
  %126 = sext i32 %.06 to i64
  %127 = load i64, i64* @as, align 8
  %128 = icmp slt i64 %126, %127
  br i1 %128, label %129, label %133

129:                                              ; preds = %125
  %130 = mul nsw i64 %.04, 10
  br label %131

131:                                              ; preds = %129
  %132 = add nsw i32 %.06, 1
  br label %125

133:                                              ; preds = %125
  br label %134

134:                                              ; preds = %140, %133
  %.07 = phi i32 [ 0, %133 ], [ %141, %140 ]
  %.05 = phi i64 [ 1, %133 ], [ %139, %140 ]
  %135 = sext i32 %.07 to i64
  %136 = load i64, i64* @cs, align 8
  %137 = icmp slt i64 %135, %136
  br i1 %137, label %138, label %142

138:                                              ; preds = %134
  %139 = mul nsw i64 %.05, 10
  br label %140

140:                                              ; preds = %138
  %141 = add nsw i32 %.07, 1
  br label %134

142:                                              ; preds = %134
  %143 = load i64, i64* @a, align 8
  %144 = load i64, i64* @c, align 8
  %145 = sub nsw i64 %143, %144
  %146 = sub nsw i64 %.04, %.05
  %147 = call i64 @_ZSt5__gcdIxET_S0_S0_(i64 %145, i64 %146)
  %148 = sdiv i64 %145, %147
  %149 = call dereferenceable(272) %"class.std::basic_ostream"* @_ZNSolsEx(%"class.std::basic_ostream"* @_ZSt4cout, i64 %148)
  %150 = call dereferenceable(272) %"class.std::basic_ostream"* @_ZStlsISt11char_traitsIcEERSt13basic_ostreamIcT_ES5_c(%"class.std::basic_ostream"* dereferenceable(272) %149, i8 signext 47)
  %151 = sdiv i64 %146, %147
  %152 = call dereferenceable(272) %"class.std::basic_ostream"* @_ZNSolsEx(%"class.std::basic_ostream"* %150, i64 %151)
  %153 = call dereferenceable(272) %"class.std::basic_ostream"* @_ZNSolsEPFRSoS_E(%"class.std::basic_ostream"* %152, %"class.std::basic_ostream"* (%"class.std::basic_ostream"*)* @_ZSt4endlIcSt11char_traitsIcEERSt13basic_ostreamIT_T0_ES6_)
  br label %176

154:                                              ; preds = %105
  %155 = load i64, i64* @a, align 8
  br label %156

156:                                              ; preds = %162, %154
  %.08 = phi i64 [ 1, %154 ], [ %161, %162 ]
  %.0 = phi i32 [ 0, %154 ], [ %163, %162 ]
  %157 = sext i32 %.0 to i64
  %158 = load i64, i64* @cnt, align 8
  %159 = icmp slt i64 %157, %158
  br i1 %159, label %160, label %164

160:                                              ; preds = %156
  %161 = mul nsw i64 %.08, 10
  br label %162

162:                                              ; preds = %160
  %163 = add nsw i32 %.0, 1
  br label %156

164:                                              ; preds = %156
  %165 = call i64 @_ZSt5__gcdIxET_S0_S0_(i64 %155, i64 %.08)
  %166 = call dereferenceable(272) %"class.std::basic_ostream"* @_ZNSolsEx(%"class.std::basic_ostream"* @_ZSt4cout, i64 %155)
  %167 = call dereferenceable(272) %"class.std::basic_ostream"* @_ZStlsISt11char_traitsIcEERSt13basic_ostreamIcT_ES5_c(%"class.std::basic_ostream"* dereferenceable(272) %166, i8 signext 32)
  %168 = call dereferenceable(272) %"class.std::basic_ostream"* @_ZNSolsEx(%"class.std::basic_ostream"* %167, i64 %.08)
  %169 = call dereferenceable(272) %"class.std::basic_ostream"* @_ZNSolsEPFRSoS_E(%"class.std::basic_ostream"* %168, %"class.std::basic_ostream"* (%"class.std::basic_ostream"*)* @_ZSt4endlIcSt11char_traitsIcEERSt13basic_ostreamIT_T0_ES6_)
  %170 = sdiv i64 %155, %165
  %171 = call dereferenceable(272) %"class.std::basic_ostream"* @_ZNSolsEx(%"class.std::basic_ostream"* @_ZSt4cout, i64 %170)
  %172 = call dereferenceable(272) %"class.std::basic_ostream"* @_ZStlsISt11char_traitsIcEERSt13basic_ostreamIcT_ES5_c(%"class.std::basic_ostream"* dereferenceable(272) %171, i8 signext 32)
  %173 = sdiv i64 %.08, %165
  %174 = call dereferenceable(272) %"class.std::basic_ostream"* @_ZNSolsEx(%"class.std::basic_ostream"* %172, i64 %173)
  %175 = call dereferenceable(272) %"class.std::basic_ostream"* @_ZNSolsEPFRSoS_E(%"class.std::basic_ostream"* %174, %"class.std::basic_ostream"* (%"class.std::basic_ostream"*)* @_ZSt4endlIcSt11char_traitsIcEERSt13basic_ostreamIT_T0_ES6_)
  br label %176

176:                                              ; preds = %164, %142
  ret i32 0
}

declare dereferenceable(280) %"class.std::basic_istream"* @_ZStrsIcSt11char_traitsIcESaIcEERSt13basic_istreamIT_T0_ES7_RNSt7__cxx1112basic_stringIS4_S5_T1_EE(%"class.std::basic_istream"* dereferenceable(280), %"class.std::__cxx11::basic_string"* dereferenceable(32)) #1

; Function Attrs: nounwind
declare i64 @_ZNKSt7__cxx1112basic_stringIcSt11char_traitsIcESaIcEE4sizeEv(%"class.std::__cxx11::basic_string"*) #2

declare dereferenceable(1) i8* @_ZNSt7__cxx1112basic_stringIcSt11char_traitsIcESaIcEEixEm(%"class.std::__cxx11::basic_string"*, i64) #1

; Function Attrs: nounwind
declare i64 @_ZNKSt7__cxx1112basic_stringIcSt11char_traitsIcESaIcEE4findEcm(%"class.std::__cxx11::basic_string"*, i8 signext, i64) #2

; Function Attrs: noinline nounwind uwtable
define linkonce_odr i64 @_ZSt5__gcdIxET_S0_S0_(i64 %0, i64 %1) #5 comdat {
  br label %3

3:                                                ; preds = %5, %2
  %.01 = phi i64 [ %1, %2 ], [ %6, %5 ]
  %.0 = phi i64 [ %0, %2 ], [ %.01, %5 ]
  %4 = icmp ne i64 %.01, 0
  br i1 %4, label %5, label %7

5:                                                ; preds = %3
  %6 = srem i64 %.0, %.01
  br label %3

7:                                                ; preds = %3
  ret i64 %.0
}

declare dereferenceable(272) %"class.std::basic_ostream"* @_ZStlsISt11char_traitsIcEERSt13basic_ostreamIcT_ES5_c(%"class.std::basic_ostream"* dereferenceable(272), i8 signext) #1

declare dereferenceable(272) %"class.std::basic_ostream"* @_ZNSolsEx(%"class.std::basic_ostream"*, i64) #1

declare dereferenceable(272) %"class.std::basic_ostream"* @_ZNSolsEPFRSoS_E(%"class.std::basic_ostream"*, %"class.std::basic_ostream"* (%"class.std::basic_ostream"*)*) #1

declare dereferenceable(272) %"class.std::basic_ostream"* @_ZSt4endlIcSt11char_traitsIcEERSt13basic_ostreamIT_T0_ES6_(%"class.std::basic_ostream"* dereferenceable(272)) #1

; Function Attrs: noinline uwtable
define internal void @_GLOBAL__sub_I_s791813146.cpp() #0 section ".text.startup" {
  call void @__cxx_global_var_init()
  call void @__cxx_global_var_init.1()
  ret void
}

attributes #0 = { noinline uwtable "correctly-rounded-divide-sqrt-fp-math"="false" "disable-tail-calls"="false" "less-precise-fpmad"="false" "no-frame-pointer-elim"="true" "no-frame-pointer-elim-non-leaf" "no-infs-fp-math"="false" "no-jump-tables"="false" "no-nans-fp-math"="false" "no-signed-zeros-fp-math"="false" "no-trapping-math"="false" "stack-protector-buffer-size"="8" "target-cpu"="x86-64" "target-features"="+fxsr,+mmx,+sse,+sse2,+x87" "unsafe-fp-math"="false" "use-soft-float"="false" }
attributes #1 = { "correctly-rounded-divide-sqrt-fp-math"="false" "disable-tail-calls"="false" "less-precise-fpmad"="false" "no-frame-pointer-elim"="true" "no-frame-pointer-elim-non-leaf" "no-infs-fp-math"="false" "no-nans-fp-math"="false" "no-signed-zeros-fp-math"="false" "no-trapping-math"="false" "stack-protector-buffer-size"="8" "target-cpu"="x86-64" "target-features"="+fxsr,+mmx,+sse,+sse2,+x87" "unsafe-fp-math"="false" "use-soft-float"="false" }
attributes #2 = { nounwind "correctly-rounded-divide-sqrt-fp-math"="false" "disable-tail-calls"="false" "less-precise-fpmad"="false" "no-frame-pointer-elim"="true" "no-frame-pointer-elim-non-leaf" "no-infs-fp-math"="false" "no-nans-fp-math"="false" "no-signed-zeros-fp-math"="false" "no-trapping-math"="false" "stack-protector-buffer-size"="8" "target-cpu"="x86-64" "target-features"="+fxsr,+mmx,+sse,+sse2,+x87" "unsafe-fp-math"="false" "use-soft-float"="false" }
attributes #3 = { nounwind }
attributes #4 = { noinline norecurse uwtable "correctly-rounded-divide-sqrt-fp-math"="false" "disable-tail-calls"="false" "less-precise-fpmad"="false" "no-frame-pointer-elim"="true" "no-frame-pointer-elim-non-leaf" "no-infs-fp-math"="false" "no-jump-tables"="false" "no-nans-fp-math"="false" "no-signed-zeros-fp-math"="false" "no-trapping-math"="false" "stack-protector-buffer-size"="8" "target-cpu"="x86-64" "target-features"="+fxsr,+mmx,+sse,+sse2,+x87" "unsafe-fp-math"="false" "use-soft-float"="false" }
attributes #5 = { noinline nounwind uwtable "correctly-rounded-divide-sqrt-fp-math"="false" "disable-tail-calls"="false" "less-precise-fpmad"="false" "no-frame-pointer-elim"="true" "no-frame-pointer-elim-non-leaf" "no-infs-fp-math"="false" "no-jump-tables"="false" "no-nans-fp-math"="false" "no-signed-zeros-fp-math"="false" "no-trapping-math"="false" "stack-protector-buffer-size"="8" "target-cpu"="x86-64" "target-features"="+fxsr,+mmx,+sse,+sse2,+x87" "unsafe-fp-math"="false" "use-soft-float"="false" }

!llvm.module.flags = !{!0}
!llvm.ident = !{!1}

!0 = !{i32 1, !"wchar_size", i32 4}
!1 = !{!"clang version 6.0.0-1ubuntu2 (tags/RELEASE_600/final)"}
