; ModuleID = '/home/pedro/tcc/exDataset/codenet/data/selection/p00619/s409847516.ll'
source_filename = "/home/pedro/tcc/exDataset/codenet/data/selection/p00619/s409847516.cpp"
target datalayout = "e-m:e-i64:64-f80:128-n8:16:32:64-S128"
target triple = "x86_64-pc-linux-gnu"

%"class.std::ios_base::Init" = type { i8 }
%"class.std::basic_istream" = type { i32 (...)**, i64, %"class.std::basic_ios" }
%"class.std::basic_ios" = type { %"class.std::ios_base", %"class.std::basic_ostream"*, i8, i8, %"class.std::basic_streambuf"*, %"class.std::ctype"*, %"class.std::num_put"*, %"class.std::num_get"* }
%"class.std::ios_base" = type { i32 (...)**, i64, i64, i32, i32, i32, %"struct.std::ios_base::_Callback_list"*, %"struct.std::ios_base::_Words", [8 x %"struct.std::ios_base::_Words"], i32, %"struct.std::ios_base::_Words"*, %"class.std::locale" }
%"struct.std::ios_base::_Callback_list" = type { %"struct.std::ios_base::_Callback_list"*, void (i32, %"class.std::ios_base"*, i32)*, i32, i32 }
%"struct.std::ios_base::_Words" = type { i8*, i64 }
%"class.std::locale" = type { %"class.std::locale::_Impl"* }
%"class.std::locale::_Impl" = type { i32, %"class.std::locale::facet"**, i64, %"class.std::locale::facet"**, i8** }
%"class.std::locale::facet" = type <{ i32 (...)**, i32, [4 x i8] }>
%"class.std::basic_ostream" = type { i32 (...)**, %"class.std::basic_ios" }
%"class.std::basic_streambuf" = type { i32 (...)**, i8*, i8*, i8*, i8*, i8*, i8*, %"class.std::locale" }
%"class.std::ctype" = type <{ %"class.std::locale::facet.base", [4 x i8], %struct.__locale_struct*, i8, [7 x i8], i32*, i32*, i16*, i8, [256 x i8], [256 x i8], i8, [6 x i8] }>
%"class.std::locale::facet.base" = type <{ i32 (...)**, i32 }>
%struct.__locale_struct = type { [13 x %struct.__locale_data*], i16*, i32*, i32*, [13 x i8*] }
%struct.__locale_data = type opaque
%"class.std::num_put" = type { %"class.std::locale::facet.base", [4 x i8] }
%"class.std::num_get" = type { %"class.std::locale::facet.base", [4 x i8] }
%"struct.std::complex" = type { { double, double } }
%struct.L = type { %"struct.std::complex", %"struct.std::complex" }
%struct.Edge = type { i32, i32, double }
%"class.std::vector" = type { %"struct.std::_Vector_base" }
%"struct.std::_Vector_base" = type { %"struct.std::_Vector_base<std::vector<Edge, std::allocator<Edge> >, std::allocator<std::vector<Edge, std::allocator<Edge> > > >::_Vector_impl" }
%"struct.std::_Vector_base<std::vector<Edge, std::allocator<Edge> >, std::allocator<std::vector<Edge, std::allocator<Edge> > > >::_Vector_impl" = type { %"class.std::vector.0"*, %"class.std::vector.0"*, %"class.std::vector.0"* }
%"class.std::vector.0" = type { %"struct.std::_Vector_base.1" }
%"struct.std::_Vector_base.1" = type { %"struct.std::_Vector_base<Edge, std::allocator<Edge> >::_Vector_impl" }
%"struct.std::_Vector_base<Edge, std::allocator<Edge> >::_Vector_impl" = type { %struct.Edge*, %struct.Edge*, %struct.Edge* }
%"class.std::vector.5" = type { %"struct.std::_Vector_base.6" }
%"struct.std::_Vector_base.6" = type { %"struct.std::_Vector_base<double, std::allocator<double> >::_Vector_impl" }
%"struct.std::_Vector_base<double, std::allocator<double> >::_Vector_impl" = type { double*, double*, double* }
%"class.std::allocator.7" = type { i8 }
%"class.std::priority_queue" = type <{ %"class.std::vector.0", %"struct.std::less", [7 x i8] }>
%"struct.std::less" = type { i8 }
%"class.__gnu_cxx::new_allocator.8" = type { i8 }
%"class.__gnu_cxx::__normal_iterator" = type { %struct.Edge* }
%"class.std::vector.10" = type { %"struct.std::_Vector_base.11" }
%"struct.std::_Vector_base.11" = type { %"struct.std::_Vector_base<L, std::allocator<L> >::_Vector_impl" }
%"struct.std::_Vector_base<L, std::allocator<L> >::_Vector_impl" = type { %struct.L*, %struct.L*, %struct.L* }
%"class.std::allocator" = type { i8 }
%"class.__gnu_cxx::new_allocator" = type { i8 }
%"class.std::allocator.12" = type { i8 }
%"class.std::allocator.2" = type { i8 }
%"class.__gnu_cxx::new_allocator.3" = type { i8 }
%"struct.__gnu_cxx::__ops::_Iter_comp_val" = type { %"struct.std::less" }
%"class.__gnu_cxx::__normal_iterator.15" = type { %struct.Edge* }
%"struct.__gnu_cxx::__ops::_Iter_comp_iter" = type { %"struct.std::less" }
%"class.__gnu_cxx::new_allocator.13" = type { i8 }
%"class.__gnu_cxx::__normal_iterator.16" = type { %struct.L* }
%"class.std::move_iterator" = type { %struct.L* }
%"class.std::move_iterator.17" = type { %struct.Edge* }

$_ZSt4imagIdET_RKSt7complexIS0_E = comdat any

$_ZStmlIdESt7complexIT_ERKS2_S4_ = comdat any

$_ZSt4conjIdESt7complexIT_ERKS2_ = comdat any

$_ZSt4realIdET_RKSt7complexIS0_E = comdat any

$_ZNSt7complexIdEmIIdEERS0_RKS_IT_E = comdat any

$_ZSt4normIdET_RKSt7complexIS0_E = comdat any

$_ZStmiIdESt7complexIT_ERKS2_S4_ = comdat any

$_ZSt3absd = comdat any

$_ZStplIdESt7complexIT_ERKS2_S4_ = comdat any

$_ZStmlIdESt7complexIT_ERKS2_RKS1_ = comdat any

$_ZNKSt6vectorIS_I4EdgeSaIS0_EESaIS2_EE4sizeEv = comdat any

$_ZNSaIdEC2Ev = comdat any

$_ZNSt6vectorIdSaIdEEC2EmRKdRKS0_ = comdat any

$_ZNSaIdED2Ev = comdat any

$_ZNSt14priority_queueI4EdgeSt6vectorIS0_SaIS0_EESt4lessIS0_EEC2IS3_vEEv = comdat any

$_ZNSt14priority_queueI4EdgeSt6vectorIS0_SaIS0_EESt4lessIS0_EE4pushEOS0_ = comdat any

$_ZN4EdgeC2Eiid = comdat any

$_ZNSt6vectorIdSaIdEEixEm = comdat any

$_ZNKSt14priority_queueI4EdgeSt6vectorIS0_SaIS0_EESt4lessIS0_EE5emptyEv = comdat any

$_ZNKSt14priority_queueI4EdgeSt6vectorIS0_SaIS0_EESt4lessIS0_EE3topEv = comdat any

$_ZNSt14priority_queueI4EdgeSt6vectorIS0_SaIS0_EESt4lessIS0_EE3popEv = comdat any

$_ZNSt6vectorIS_I4EdgeSaIS0_EESaIS2_EEixEm = comdat any

$_ZNKSt6vectorI4EdgeSaIS0_EE4sizeEv = comdat any

$_ZNSt6vectorI4EdgeSaIS0_EEixEm = comdat any

$_ZNSt14priority_queueI4EdgeSt6vectorIS0_SaIS0_EESt4lessIS0_EED2Ev = comdat any

$_ZNSt6vectorIdSaIdEED2Ev = comdat any

$_ZNSt6vectorI1LSaIS0_EEC2Ev = comdat any

$_ZNSt6vectorI1LSaIS0_EE9push_backEOS0_ = comdat any

$_ZNSt7complexIdEC2Edd = comdat any

$_ZN1LC2ESt7complexIdES1_ = comdat any

$_ZNSaISt6vectorI4EdgeSaIS0_EEEC2Ev = comdat any

$_ZNSt6vectorIS_I4EdgeSaIS0_EESaIS2_EEC2EmRKS3_ = comdat any

$_ZNSaISt6vectorI4EdgeSaIS0_EEED2Ev = comdat any

$_ZNSt6vectorI1LSaIS0_EEixEm = comdat any

$_ZSteqIdEbRKSt7complexIT_ES4_ = comdat any

$_ZSt3absIdET_RKSt7complexIS0_E = comdat any

$_ZNSt6vectorI4EdgeSaIS0_EE9push_backEOS0_ = comdat any

$_ZNSt6vectorIS_I4EdgeSaIS0_EESaIS2_EED2Ev = comdat any

$_ZNSt6vectorI1LSaIS0_EED2Ev = comdat any

$_ZNKSt7complexIdE4imagB5cxx11Ev = comdat any

$_ZNKSt7complexIdE4realB5cxx11Ev = comdat any

$_ZNSt6vectorI4EdgeSaIS0_EED2Ev = comdat any

$_ZSt8_DestroyIP4EdgeS0_EvT_S2_RSaIT0_E = comdat any

$_ZNSt12_Vector_baseI4EdgeSaIS0_EE19_M_get_Tp_allocatorEv = comdat any

$_ZNSt12_Vector_baseI4EdgeSaIS0_EED2Ev = comdat any

$__clang_call_terminate = comdat any

$_ZSt8_DestroyIP4EdgeEvT_S2_ = comdat any

$_ZNSt12_Destroy_auxILb1EE9__destroyIP4EdgeEEvT_S4_ = comdat any

$_ZNSt12_Vector_baseI4EdgeSaIS0_EE13_M_deallocateEPS0_m = comdat any

$_ZNSt12_Vector_baseI4EdgeSaIS0_EE12_Vector_implD2Ev = comdat any

$_ZNSt16allocator_traitsISaI4EdgeEE10deallocateERS1_PS0_m = comdat any

$_ZN9__gnu_cxx13new_allocatorI4EdgeE10deallocateEPS1_m = comdat any

$_ZNSaI4EdgeED2Ev = comdat any

$_ZN9__gnu_cxx13new_allocatorI4EdgeED2Ev = comdat any

$_ZNSt7complexIdEmLIdEERS0_RKS_IT_E = comdat any

$_ZNSt12_Norm_helperILb1EE8_S_do_itIdEET_RKSt7complexIS2_E = comdat any

$_ZNSt7complexIdEmLEd = comdat any

$_ZNSt7complexIdEpLIdEERS0_RKS_IT_E = comdat any

$_ZN9__gnu_cxx13new_allocatorIdEC2Ev = comdat any

$_ZN9__gnu_cxx13new_allocatorIdED2Ev = comdat any

$_ZNSt12_Vector_baseIdSaIdEEC2EmRKS0_ = comdat any

$_ZNSt6vectorIdSaIdEE18_M_fill_initializeEmRKd = comdat any

$_ZNSt12_Vector_baseIdSaIdEED2Ev = comdat any

$_ZNSt12_Vector_baseIdSaIdEE12_Vector_implC2ERKS0_ = comdat any

$_ZNSt12_Vector_baseIdSaIdEE17_M_create_storageEm = comdat any

$_ZNSt12_Vector_baseIdSaIdEE12_Vector_implD2Ev = comdat any

$_ZNSaIdEC2ERKS_ = comdat any

$_ZN9__gnu_cxx13new_allocatorIdEC2ERKS1_ = comdat any

$_ZNSt12_Vector_baseIdSaIdEE11_M_allocateEm = comdat any

$_ZNSt16allocator_traitsISaIdEE8allocateERS0_m = comdat any

$_ZN9__gnu_cxx13new_allocatorIdE8allocateEmPKv = comdat any

$_ZNK9__gnu_cxx13new_allocatorIdE8max_sizeEv = comdat any

$_ZSt24__uninitialized_fill_n_aIPdmddET_S1_T0_RKT1_RSaIT2_E = comdat any

$_ZNSt12_Vector_baseIdSaIdEE19_M_get_Tp_allocatorEv = comdat any

$_ZSt20uninitialized_fill_nIPdmdET_S1_T0_RKT1_ = comdat any

$_ZNSt22__uninitialized_fill_nILb1EE15__uninit_fill_nIPdmdEET_S3_T0_RKT1_ = comdat any

$_ZSt6fill_nIPdmdET_S1_T0_RKT1_ = comdat any

$_ZSt10__fill_n_aIPdmdEN9__gnu_cxx11__enable_ifIXsr11__is_scalarIT1_EE7__valueET_E6__typeES4_T0_RKS3_ = comdat any

$_ZSt12__niter_baseIPdET_S1_ = comdat any

$_ZNSt12_Vector_baseIdSaIdEE13_M_deallocateEPdm = comdat any

$_ZNSt16allocator_traitsISaIdEE10deallocateERS0_Pdm = comdat any

$_ZN9__gnu_cxx13new_allocatorIdE10deallocateEPdm = comdat any

$_ZSt8_DestroyIPddEvT_S1_RSaIT0_E = comdat any

$_ZSt8_DestroyIPdEvT_S1_ = comdat any

$_ZNSt12_Destroy_auxILb1EE9__destroyIPdEEvT_S3_ = comdat any

$_ZNSt6vectorI4EdgeSaIS0_EEC2Ev = comdat any

$_ZNSt12_Vector_baseI4EdgeSaIS0_EEC2Ev = comdat any

$_ZNSt12_Vector_baseI4EdgeSaIS0_EE12_Vector_implC2Ev = comdat any

$_ZNSaI4EdgeEC2Ev = comdat any

$_ZN9__gnu_cxx13new_allocatorI4EdgeEC2Ev = comdat any

$_ZSt4moveIR4EdgeEONSt16remove_referenceIT_E4typeEOS3_ = comdat any

$_ZSt9push_heapIN9__gnu_cxx17__normal_iteratorIP4EdgeSt6vectorIS2_SaIS2_EEEESt4lessIS2_EEvT_SA_T0_ = comdat any

$_ZNSt6vectorI4EdgeSaIS0_EE5beginEv = comdat any

$_ZNSt6vectorI4EdgeSaIS0_EE3endEv = comdat any

$_ZSt4moveIRSt4lessI4EdgeEEONSt16remove_referenceIT_E4typeEOS5_ = comdat any

$_ZN9__gnu_cxx5__ops14_Iter_comp_valISt4lessI4EdgeEEC2ES4_ = comdat any

$_ZNK9__gnu_cxx17__normal_iteratorIP4EdgeSt6vectorIS1_SaIS1_EEEmiEl = comdat any

$_ZNK9__gnu_cxx17__normal_iteratorIP4EdgeSt6vectorIS1_SaIS1_EEEdeEv = comdat any

$_ZSt11__push_heapIN9__gnu_cxx17__normal_iteratorIP4EdgeSt6vectorIS2_SaIS2_EEEElS2_NS0_5__ops14_Iter_comp_valISt4lessIS2_EEEEvT_T0_SE_T1_RT2_ = comdat any

$_ZN9__gnu_cxxmiIP4EdgeSt6vectorIS1_SaIS1_EEEENS_17__normal_iteratorIT_T0_E15difference_typeERKS9_SC_ = comdat any

$_ZN9__gnu_cxx17__normal_iteratorIP4EdgeSt6vectorIS1_SaIS1_EEEC2ERKS2_ = comdat any

$_ZN9__gnu_cxx5__ops14_Iter_comp_valISt4lessI4EdgeEEclINS_17__normal_iteratorIPS3_St6vectorIS3_SaIS3_EEEES3_EEbT_RT0_ = comdat any

$_ZNK9__gnu_cxx17__normal_iteratorIP4EdgeSt6vectorIS1_SaIS1_EEEplEl = comdat any

$_ZNKSt4lessI4EdgeEclERKS0_S3_ = comdat any

$_ZNK9__gnu_cxx17__normal_iteratorIP4EdgeSt6vectorIS1_SaIS1_EEE4baseEv = comdat any

$_ZNKSt6vectorI4EdgeSaIS0_EE5emptyEv = comdat any

$_ZN9__gnu_cxxeqIPK4EdgeSt6vectorIS1_SaIS1_EEEEbRKNS_17__normal_iteratorIT_T0_EESC_ = comdat any

$_ZNKSt6vectorI4EdgeSaIS0_EE5beginEv = comdat any

$_ZNKSt6vectorI4EdgeSaIS0_EE3endEv = comdat any

$_ZNK9__gnu_cxx17__normal_iteratorIPK4EdgeSt6vectorIS1_SaIS1_EEE4baseEv = comdat any

$_ZN9__gnu_cxx17__normal_iteratorIPK4EdgeSt6vectorIS1_SaIS1_EEEC2ERKS3_ = comdat any

$_ZNKSt6vectorI4EdgeSaIS0_EE5frontEv = comdat any

$_ZNK9__gnu_cxx17__normal_iteratorIPK4EdgeSt6vectorIS1_SaIS1_EEEdeEv = comdat any

$_ZSt8pop_heapIN9__gnu_cxx17__normal_iteratorIP4EdgeSt6vectorIS2_SaIS2_EEEESt4lessIS2_EEvT_SA_T0_ = comdat any

$_ZNSt6vectorI4EdgeSaIS0_EE8pop_backEv = comdat any

$_ZN9__gnu_cxx5__ops15_Iter_comp_iterISt4lessI4EdgeEEC2ES4_ = comdat any

$_ZN9__gnu_cxx17__normal_iteratorIP4EdgeSt6vectorIS1_SaIS1_EEEmmEv = comdat any

$_ZSt10__pop_heapIN9__gnu_cxx17__normal_iteratorIP4EdgeSt6vectorIS2_SaIS2_EEEENS0_5__ops15_Iter_comp_iterISt4lessIS2_EEEEvT_SD_SD_RT0_ = comdat any

$_ZSt13__adjust_heapIN9__gnu_cxx17__normal_iteratorIP4EdgeSt6vectorIS2_SaIS2_EEEElS2_NS0_5__ops15_Iter_comp_iterISt4lessIS2_EEEEvT_T0_SE_T1_T2_ = comdat any

$_ZN9__gnu_cxx5__ops15_Iter_comp_iterISt4lessI4EdgeEEclINS_17__normal_iteratorIPS3_St6vectorIS3_SaIS3_EEEESC_EEbT_T0_ = comdat any

$_ZSt4moveIRN9__gnu_cxx5__ops15_Iter_comp_iterISt4lessI4EdgeEEEEONSt16remove_referenceIT_E4typeEOS9_ = comdat any

$_ZN9__gnu_cxx5__ops14_Iter_comp_valISt4lessI4EdgeEEC2EONS0_15_Iter_comp_iterIS4_EE = comdat any

$_ZNSt16allocator_traitsISaI4EdgeEE7destroyIS0_EEvRS1_PT_ = comdat any

$_ZN9__gnu_cxx13new_allocatorI4EdgeE7destroyIS1_EEvPT_ = comdat any

$_ZNSt12_Vector_baseI1LSaIS0_EEC2Ev = comdat any

$_ZNSt12_Vector_baseI1LSaIS0_EE12_Vector_implC2Ev = comdat any

$_ZNSaI1LEC2Ev = comdat any

$_ZN9__gnu_cxx13new_allocatorI1LEC2Ev = comdat any

$_ZSt8_DestroyIP1LS0_EvT_S2_RSaIT0_E = comdat any

$_ZNSt12_Vector_baseI1LSaIS0_EE19_M_get_Tp_allocatorEv = comdat any

$_ZNSt12_Vector_baseI1LSaIS0_EED2Ev = comdat any

$_ZSt8_DestroyIP1LEvT_S2_ = comdat any

$_ZNSt12_Destroy_auxILb1EE9__destroyIP1LEEvT_S4_ = comdat any

$_ZNSt12_Vector_baseI1LSaIS0_EE13_M_deallocateEPS0_m = comdat any

$_ZNSt12_Vector_baseI1LSaIS0_EE12_Vector_implD2Ev = comdat any

$_ZNSt16allocator_traitsISaI1LEE10deallocateERS1_PS0_m = comdat any

$_ZN9__gnu_cxx13new_allocatorI1LE10deallocateEPS1_m = comdat any

$_ZNSaI1LED2Ev = comdat any

$_ZN9__gnu_cxx13new_allocatorI1LED2Ev = comdat any

$_ZNSt6vectorI1LSaIS0_EE12emplace_backIJS0_EEEvDpOT_ = comdat any

$_ZSt4moveIR1LEONSt16remove_referenceIT_E4typeEOS3_ = comdat any

$_ZNSt16allocator_traitsISaI1LEE9constructIS0_JS0_EEEvRS1_PT_DpOT0_ = comdat any

$_ZSt7forwardI1LEOT_RNSt16remove_referenceIS1_E4typeE = comdat any

$_ZNSt6vectorI1LSaIS0_EE17_M_realloc_insertIJS0_EEEvN9__gnu_cxx17__normal_iteratorIPS0_S2_EEDpOT_ = comdat any

$_ZNSt6vectorI1LSaIS0_EE3endEv = comdat any

$_ZN9__gnu_cxx13new_allocatorI1LE9constructIS1_JS1_EEEvPT_DpOT0_ = comdat any

$_ZNKSt6vectorI1LSaIS0_EE12_M_check_lenEmPKc = comdat any

$_ZN9__gnu_cxxmiIP1LSt6vectorIS1_SaIS1_EEEENS_17__normal_iteratorIT_T0_E15difference_typeERKS9_SC_ = comdat any

$_ZNSt6vectorI1LSaIS0_EE5beginEv = comdat any

$_ZNSt12_Vector_baseI1LSaIS0_EE11_M_allocateEm = comdat any

$_ZSt34__uninitialized_move_if_noexcept_aIP1LS1_SaIS0_EET0_T_S4_S3_RT1_ = comdat any

$_ZNK9__gnu_cxx17__normal_iteratorIP1LSt6vectorIS1_SaIS1_EEE4baseEv = comdat any

$_ZNSt16allocator_traitsISaI1LEE7destroyIS0_EEvRS1_PT_ = comdat any

$_ZNKSt6vectorI1LSaIS0_EE8max_sizeEv = comdat any

$_ZNKSt6vectorI1LSaIS0_EE4sizeEv = comdat any

$_ZSt3maxImERKT_S2_S2_ = comdat any

$_ZNSt16allocator_traitsISaI1LEE8max_sizeERKS1_ = comdat any

$_ZNKSt12_Vector_baseI1LSaIS0_EE19_M_get_Tp_allocatorEv = comdat any

$_ZNK9__gnu_cxx13new_allocatorI1LE8max_sizeEv = comdat any

$_ZN9__gnu_cxx17__normal_iteratorIP1LSt6vectorIS1_SaIS1_EEEC2ERKS2_ = comdat any

$_ZNSt16allocator_traitsISaI1LEE8allocateERS1_m = comdat any

$_ZN9__gnu_cxx13new_allocatorI1LE8allocateEmPKv = comdat any

$_ZSt22__uninitialized_copy_aISt13move_iteratorIP1LES2_S1_ET0_T_S5_S4_RSaIT1_E = comdat any

$_ZSt32__make_move_if_noexcept_iteratorI1LSt13move_iteratorIPS0_EET0_PT_ = comdat any

$_ZSt18uninitialized_copyISt13move_iteratorIP1LES2_ET0_T_S5_S4_ = comdat any

$_ZNSt20__uninitialized_copyILb0EE13__uninit_copyISt13move_iteratorIP1LES4_EET0_T_S7_S6_ = comdat any

$_ZStneIP1LEbRKSt13move_iteratorIT_ES6_ = comdat any

$_ZSt10_ConstructI1LJS0_EEvPT_DpOT0_ = comdat any

$_ZSt11__addressofI1LEPT_RS1_ = comdat any

$_ZNKSt13move_iteratorIP1LEdeEv = comdat any

$_ZNSt13move_iteratorIP1LEppEv = comdat any

$_ZSteqIP1LEbRKSt13move_iteratorIT_ES6_ = comdat any

$_ZNKSt13move_iteratorIP1LE4baseEv = comdat any

$_ZNSt13move_iteratorIP1LEC2ES1_ = comdat any

$_ZN9__gnu_cxx13new_allocatorI1LE7destroyIS1_EEvPT_ = comdat any

$_ZN9__gnu_cxx13new_allocatorISt6vectorI4EdgeSaIS2_EEEC2Ev = comdat any

$_ZN9__gnu_cxx13new_allocatorISt6vectorI4EdgeSaIS2_EEED2Ev = comdat any

$_ZNSt12_Vector_baseISt6vectorI4EdgeSaIS1_EESaIS3_EEC2EmRKS4_ = comdat any

$_ZNSt6vectorIS_I4EdgeSaIS0_EESaIS2_EE21_M_default_initializeEm = comdat any

$_ZNSt12_Vector_baseISt6vectorI4EdgeSaIS1_EESaIS3_EED2Ev = comdat any

$_ZNSt12_Vector_baseISt6vectorI4EdgeSaIS1_EESaIS3_EE12_Vector_implC2ERKS4_ = comdat any

$_ZNSt12_Vector_baseISt6vectorI4EdgeSaIS1_EESaIS3_EE17_M_create_storageEm = comdat any

$_ZNSt12_Vector_baseISt6vectorI4EdgeSaIS1_EESaIS3_EE12_Vector_implD2Ev = comdat any

$_ZNSaISt6vectorI4EdgeSaIS0_EEEC2ERKS3_ = comdat any

$_ZN9__gnu_cxx13new_allocatorISt6vectorI4EdgeSaIS2_EEEC2ERKS5_ = comdat any

$_ZNSt12_Vector_baseISt6vectorI4EdgeSaIS1_EESaIS3_EE11_M_allocateEm = comdat any

$_ZNSt16allocator_traitsISaISt6vectorI4EdgeSaIS1_EEEE8allocateERS4_m = comdat any

$_ZN9__gnu_cxx13new_allocatorISt6vectorI4EdgeSaIS2_EEE8allocateEmPKv = comdat any

$_ZNK9__gnu_cxx13new_allocatorISt6vectorI4EdgeSaIS2_EEE8max_sizeEv = comdat any

$_ZSt27__uninitialized_default_n_aIPSt6vectorI4EdgeSaIS1_EEmS3_ET_S5_T0_RSaIT1_E = comdat any

$_ZNSt12_Vector_baseISt6vectorI4EdgeSaIS1_EESaIS3_EE19_M_get_Tp_allocatorEv = comdat any

$_ZSt25__uninitialized_default_nIPSt6vectorI4EdgeSaIS1_EEmET_S5_T0_ = comdat any

$_ZNSt27__uninitialized_default_n_1ILb0EE18__uninit_default_nIPSt6vectorI4EdgeSaIS3_EEmEET_S7_T0_ = comdat any

$_ZSt10_ConstructISt6vectorI4EdgeSaIS1_EEJEEvPT_DpOT0_ = comdat any

$_ZSt11__addressofISt6vectorI4EdgeSaIS1_EEEPT_RS4_ = comdat any

$_ZSt8_DestroyIPSt6vectorI4EdgeSaIS1_EEEvT_S5_ = comdat any

$_ZNSt12_Destroy_auxILb0EE9__destroyIPSt6vectorI4EdgeSaIS3_EEEEvT_S7_ = comdat any

$_ZSt8_DestroyISt6vectorI4EdgeSaIS1_EEEvPT_ = comdat any

$_ZNSt12_Vector_baseISt6vectorI4EdgeSaIS1_EESaIS3_EE13_M_deallocateEPS3_m = comdat any

$_ZNSt16allocator_traitsISaISt6vectorI4EdgeSaIS1_EEEE10deallocateERS4_PS3_m = comdat any

$_ZN9__gnu_cxx13new_allocatorISt6vectorI4EdgeSaIS2_EEE10deallocateEPS4_m = comdat any

$_ZSt8_DestroyIPSt6vectorI4EdgeSaIS1_EES3_EvT_S5_RSaIT0_E = comdat any

$_ZSt13__complex_absCd = comdat any

$_ZNKSt7complexIdE5__repEv = comdat any

$_ZNSt6vectorI4EdgeSaIS0_EE12emplace_backIJS0_EEEvDpOT_ = comdat any

$_ZNSt16allocator_traitsISaI4EdgeEE9constructIS0_JS0_EEEvRS1_PT_DpOT0_ = comdat any

$_ZSt7forwardI4EdgeEOT_RNSt16remove_referenceIS1_E4typeE = comdat any

$_ZNSt6vectorI4EdgeSaIS0_EE17_M_realloc_insertIJS0_EEEvN9__gnu_cxx17__normal_iteratorIPS0_S2_EEDpOT_ = comdat any

$_ZN9__gnu_cxx13new_allocatorI4EdgeE9constructIS1_JS1_EEEvPT_DpOT0_ = comdat any

$_ZNKSt6vectorI4EdgeSaIS0_EE12_M_check_lenEmPKc = comdat any

$_ZNSt12_Vector_baseI4EdgeSaIS0_EE11_M_allocateEm = comdat any

$_ZSt34__uninitialized_move_if_noexcept_aIP4EdgeS1_SaIS0_EET0_T_S4_S3_RT1_ = comdat any

$_ZNKSt6vectorI4EdgeSaIS0_EE8max_sizeEv = comdat any

$_ZNSt16allocator_traitsISaI4EdgeEE8max_sizeERKS1_ = comdat any

$_ZNKSt12_Vector_baseI4EdgeSaIS0_EE19_M_get_Tp_allocatorEv = comdat any

$_ZNK9__gnu_cxx13new_allocatorI4EdgeE8max_sizeEv = comdat any

$_ZNSt16allocator_traitsISaI4EdgeEE8allocateERS1_m = comdat any

$_ZN9__gnu_cxx13new_allocatorI4EdgeE8allocateEmPKv = comdat any

$_ZSt22__uninitialized_copy_aISt13move_iteratorIP4EdgeES2_S1_ET0_T_S5_S4_RSaIT1_E = comdat any

$_ZSt32__make_move_if_noexcept_iteratorI4EdgeSt13move_iteratorIPS0_EET0_PT_ = comdat any

$_ZSt18uninitialized_copyISt13move_iteratorIP4EdgeES2_ET0_T_S5_S4_ = comdat any

$_ZNSt20__uninitialized_copyILb0EE13__uninit_copyISt13move_iteratorIP4EdgeES4_EET0_T_S7_S6_ = comdat any

$_ZStneIP4EdgeEbRKSt13move_iteratorIT_ES6_ = comdat any

$_ZSt10_ConstructI4EdgeJS0_EEvPT_DpOT0_ = comdat any

$_ZSt11__addressofI4EdgeEPT_RS1_ = comdat any

$_ZNKSt13move_iteratorIP4EdgeEdeEv = comdat any

$_ZNSt13move_iteratorIP4EdgeEppEv = comdat any

$_ZSteqIP4EdgeEbRKSt13move_iteratorIT_ES6_ = comdat any

$_ZNKSt13move_iteratorIP4EdgeE4baseEv = comdat any

$_ZNSt13move_iteratorIP4EdgeEC2ES1_ = comdat any

@_ZStL8__ioinit = internal global %"class.std::ios_base::Init" zeroinitializer, align 1
@__dso_handle = external hidden global i8
@_ZL2PI = internal global double 0.000000e+00, align 8
@_ZL3inf = internal constant double 1.000000e+12, align 8
@_ZSt3cin = external global %"class.std::basic_istream", align 8
@.str = private unnamed_addr constant [4 x i8] c"-1\0A\00", align 1
@.str.2 = private unnamed_addr constant [6 x i8] c"%.8f\0A\00", align 1
@.str.3 = private unnamed_addr constant [26 x i8] c"vector::_M_realloc_insert\00", align 1
@llvm.global_ctors = appending global [1 x { i32, void ()*, i8* }] [{ i32, void ()*, i8* } { i32 65535, void ()* @_GLOBAL__sub_I_s409847516.cpp, i8* null }]

; Function Attrs: noinline uwtable
define internal void @__cxx_global_var_init() #0 section ".text.startup" {
  call void @_ZNSt8ios_base4InitC1Ev(%"class.std::ios_base::Init"* @_ZStL8__ioinit)
  %1 = call i32 @__cxa_atexit(void (i8*)* bitcast (void (%"class.std::ios_base::Init"*)* @_ZNSt8ios_base4InitD1Ev to void (i8*)*), i8* getelementptr inbounds (%"class.std::ios_base::Init", %"class.std::ios_base::Init"* @_ZStL8__ioinit, i32 0, i32 0), i8* @__dso_handle) #3
  ret void
}

declare void @_ZNSt8ios_base4InitC1Ev(%"class.std::ios_base::Init"*) unnamed_addr #1

; Function Attrs: nounwind
declare void @_ZNSt8ios_base4InitD1Ev(%"class.std::ios_base::Init"*) unnamed_addr #2

; Function Attrs: nounwind
declare i32 @__cxa_atexit(void (i8*)*, i8*, i8*) #3

; Function Attrs: noinline uwtable
define internal void @__cxx_global_var_init.1() #0 section ".text.startup" {
  %1 = call double @atan2(double 1.000000e+00, double 1.000000e+00) #3
  %2 = fmul double 4.000000e+00, %1
  store double %2, double* @_ZL2PI, align 8
  ret void
}

; Function Attrs: nounwind
declare double @atan2(double, double) #2

; Function Attrs: noinline uwtable
define double @_Z5crossRKSt7complexIdES2_(%"struct.std::complex"* dereferenceable(16) %0, %"struct.std::complex"* dereferenceable(16) %1) #0 {
  %3 = alloca %"struct.std::complex", align 8
  %4 = alloca %"struct.std::complex", align 8
  %5 = call { double, double } @_ZSt4conjIdESt7complexIT_ERKS2_(%"struct.std::complex"* dereferenceable(16) %0)
  %6 = getelementptr inbounds %"struct.std::complex", %"struct.std::complex"* %4, i32 0, i32 0
  %7 = getelementptr inbounds { double, double }, { double, double }* %6, i32 0, i32 0
  %8 = extractvalue { double, double } %5, 0
  store double %8, double* %7, align 8
  %9 = getelementptr inbounds { double, double }, { double, double }* %6, i32 0, i32 1
  %10 = extractvalue { double, double } %5, 1
  store double %10, double* %9, align 8
  %11 = call { double, double } @_ZStmlIdESt7complexIT_ERKS2_S4_(%"struct.std::complex"* dereferenceable(16) %4, %"struct.std::complex"* dereferenceable(16) %1)
  %12 = getelementptr inbounds %"struct.std::complex", %"struct.std::complex"* %3, i32 0, i32 0
  %13 = getelementptr inbounds { double, double }, { double, double }* %12, i32 0, i32 0
  %14 = extractvalue { double, double } %11, 0
  store double %14, double* %13, align 8
  %15 = getelementptr inbounds { double, double }, { double, double }* %12, i32 0, i32 1
  %16 = extractvalue { double, double } %11, 1
  store double %16, double* %15, align 8
  %17 = call double @_ZSt4imagIdET_RKSt7complexIS0_E(%"struct.std::complex"* dereferenceable(16) %3)
  ret double %17
}

; Function Attrs: noinline uwtable
define linkonce_odr double @_ZSt4imagIdET_RKSt7complexIS0_E(%"struct.std::complex"* dereferenceable(16) %0) #0 comdat {
  %2 = call double @_ZNKSt7complexIdE4imagB5cxx11Ev(%"struct.std::complex"* %0)
  ret double %2
}

; Function Attrs: noinline uwtable
define linkonce_odr { double, double } @_ZStmlIdESt7complexIT_ERKS2_S4_(%"struct.std::complex"* dereferenceable(16) %0, %"struct.std::complex"* dereferenceable(16) %1) #0 comdat {
  %3 = alloca %"struct.std::complex", align 8
  %4 = bitcast %"struct.std::complex"* %3 to i8*
  %5 = bitcast %"struct.std::complex"* %0 to i8*
  call void @llvm.memcpy.p0i8.p0i8.i64(i8* align 8 %4, i8* align 8 %5, i64 16, i1 false)
  %6 = call dereferenceable(16) %"struct.std::complex"* @_ZNSt7complexIdEmLIdEERS0_RKS_IT_E(%"struct.std::complex"* %3, %"struct.std::complex"* dereferenceable(16) %1)
  %7 = getelementptr inbounds %"struct.std::complex", %"struct.std::complex"* %3, i32 0, i32 0
  %8 = load { double, double }, { double, double }* %7, align 8
  ret { double, double } %8
}

; Function Attrs: noinline uwtable
define linkonce_odr { double, double } @_ZSt4conjIdESt7complexIT_ERKS2_(%"struct.std::complex"* dereferenceable(16) %0) #0 comdat {
  %2 = alloca %"struct.std::complex", align 8
  %3 = call double @_ZNKSt7complexIdE4realB5cxx11Ev(%"struct.std::complex"* %0)
  %4 = call double @_ZNKSt7complexIdE4imagB5cxx11Ev(%"struct.std::complex"* %0)
  %5 = fsub double -0.000000e+00, %4
  call void @_ZNSt7complexIdEC2Edd(%"struct.std::complex"* %2, double %3, double %5)
  %6 = getelementptr inbounds %"struct.std::complex", %"struct.std::complex"* %2, i32 0, i32 0
  %7 = load { double, double }, { double, double }* %6, align 8
  ret { double, double } %7
}

; Function Attrs: noinline uwtable
define double @_Z3dotRKSt7complexIdES2_(%"struct.std::complex"* dereferenceable(16) %0, %"struct.std::complex"* dereferenceable(16) %1) #0 {
  %3 = alloca %"struct.std::complex", align 8
  %4 = alloca %"struct.std::complex", align 8
  %5 = call { double, double } @_ZSt4conjIdESt7complexIT_ERKS2_(%"struct.std::complex"* dereferenceable(16) %0)
  %6 = getelementptr inbounds %"struct.std::complex", %"struct.std::complex"* %4, i32 0, i32 0
  %7 = getelementptr inbounds { double, double }, { double, double }* %6, i32 0, i32 0
  %8 = extractvalue { double, double } %5, 0
  store double %8, double* %7, align 8
  %9 = getelementptr inbounds { double, double }, { double, double }* %6, i32 0, i32 1
  %10 = extractvalue { double, double } %5, 1
  store double %10, double* %9, align 8
  %11 = call { double, double } @_ZStmlIdESt7complexIT_ERKS2_S4_(%"struct.std::complex"* dereferenceable(16) %4, %"struct.std::complex"* dereferenceable(16) %1)
  %12 = getelementptr inbounds %"struct.std::complex", %"struct.std::complex"* %3, i32 0, i32 0
  %13 = getelementptr inbounds { double, double }, { double, double }* %12, i32 0, i32 0
  %14 = extractvalue { double, double } %11, 0
  store double %14, double* %13, align 8
  %15 = getelementptr inbounds { double, double }, { double, double }* %12, i32 0, i32 1
  %16 = extractvalue { double, double } %11, 1
  store double %16, double* %15, align 8
  %17 = call double @_ZSt4realIdET_RKSt7complexIS0_E(%"struct.std::complex"* dereferenceable(16) %3)
  ret double %17
}

; Function Attrs: noinline uwtable
define linkonce_odr double @_ZSt4realIdET_RKSt7complexIS0_E(%"struct.std::complex"* dereferenceable(16) %0) #0 comdat {
  %2 = call double @_ZNKSt7complexIdE4realB5cxx11Ev(%"struct.std::complex"* %0)
  ret double %2
}

; Function Attrs: noinline uwtable
define i32 @_Z3ccwSt7complexIdES0_S0_(double %0, double %1, double %2, double %3, double %4, double %5) #0 {
  %7 = alloca %"struct.std::complex", align 8
  %8 = alloca %"struct.std::complex", align 8
  %9 = alloca %"struct.std::complex", align 8
  %10 = bitcast %"struct.std::complex"* %7 to { double, double }*
  %11 = getelementptr inbounds { double, double }, { double, double }* %10, i32 0, i32 0
  store double %0, double* %11, align 8
  %12 = getelementptr inbounds { double, double }, { double, double }* %10, i32 0, i32 1
  store double %1, double* %12, align 8
  %13 = bitcast %"struct.std::complex"* %8 to { double, double }*
  %14 = getelementptr inbounds { double, double }, { double, double }* %13, i32 0, i32 0
  store double %2, double* %14, align 8
  %15 = getelementptr inbounds { double, double }, { double, double }* %13, i32 0, i32 1
  store double %3, double* %15, align 8
  %16 = bitcast %"struct.std::complex"* %9 to { double, double }*
  %17 = getelementptr inbounds { double, double }, { double, double }* %16, i32 0, i32 0
  store double %4, double* %17, align 8
  %18 = getelementptr inbounds { double, double }, { double, double }* %16, i32 0, i32 1
  store double %5, double* %18, align 8
  %19 = call dereferenceable(16) %"struct.std::complex"* @_ZNSt7complexIdEmIIdEERS0_RKS_IT_E(%"struct.std::complex"* %8, %"struct.std::complex"* dereferenceable(16) %7)
  %20 = call dereferenceable(16) %"struct.std::complex"* @_ZNSt7complexIdEmIIdEERS0_RKS_IT_E(%"struct.std::complex"* %9, %"struct.std::complex"* dereferenceable(16) %7)
  %21 = call double @_Z5crossRKSt7complexIdES2_(%"struct.std::complex"* dereferenceable(16) %8, %"struct.std::complex"* dereferenceable(16) %9)
  %22 = fcmp ogt double %21, 0.000000e+00
  br i1 %22, label %23, label %24

23:                                               ; preds = %6
  br label %38

24:                                               ; preds = %6
  %25 = call double @_Z5crossRKSt7complexIdES2_(%"struct.std::complex"* dereferenceable(16) %8, %"struct.std::complex"* dereferenceable(16) %9)
  %26 = fcmp olt double %25, 0.000000e+00
  br i1 %26, label %27, label %28

27:                                               ; preds = %24
  br label %38

28:                                               ; preds = %24
  %29 = call double @_Z3dotRKSt7complexIdES2_(%"struct.std::complex"* dereferenceable(16) %8, %"struct.std::complex"* dereferenceable(16) %9)
  %30 = fcmp olt double %29, 0.000000e+00
  br i1 %30, label %31, label %32

31:                                               ; preds = %28
  br label %38

32:                                               ; preds = %28
  %33 = call double @_ZSt4normIdET_RKSt7complexIS0_E(%"struct.std::complex"* dereferenceable(16) %8)
  %34 = call double @_ZSt4normIdET_RKSt7complexIS0_E(%"struct.std::complex"* dereferenceable(16) %9)
  %35 = fcmp olt double %33, %34
  br i1 %35, label %36, label %37

36:                                               ; preds = %32
  br label %38

37:                                               ; preds = %32
  br label %38

38:                                               ; preds = %37, %36, %31, %27, %23
  %.0 = phi i32 [ 1, %23 ], [ -1, %27 ], [ 2, %31 ], [ -2, %36 ], [ 0, %37 ]
  ret i32 %.0
}

; Function Attrs: noinline nounwind uwtable
define linkonce_odr dereferenceable(16) %"struct.std::complex"* @_ZNSt7complexIdEmIIdEERS0_RKS_IT_E(%"struct.std::complex"* %0, %"struct.std::complex"* dereferenceable(16) %1) #4 comdat align 2 {
  %3 = call double @_ZNKSt7complexIdE4realB5cxx11Ev(%"struct.std::complex"* %1)
  %4 = getelementptr inbounds %"struct.std::complex", %"struct.std::complex"* %0, i32 0, i32 0
  %5 = getelementptr inbounds { double, double }, { double, double }* %4, i32 0, i32 0
  %6 = load double, double* %5, align 8
  %7 = fsub double %6, %3
  store double %7, double* %5, align 8
  %8 = call double @_ZNKSt7complexIdE4imagB5cxx11Ev(%"struct.std::complex"* %1)
  %9 = getelementptr inbounds %"struct.std::complex", %"struct.std::complex"* %0, i32 0, i32 0
  %10 = getelementptr inbounds { double, double }, { double, double }* %9, i32 0, i32 1
  %11 = load double, double* %10, align 8
  %12 = fsub double %11, %8
  store double %12, double* %10, align 8
  ret %"struct.std::complex"* %0
}

; Function Attrs: noinline uwtable
define linkonce_odr double @_ZSt4normIdET_RKSt7complexIS0_E(%"struct.std::complex"* dereferenceable(16) %0) #0 comdat {
  %2 = call double @_ZNSt12_Norm_helperILb1EE8_S_do_itIdEET_RKSt7complexIS2_E(%"struct.std::complex"* dereferenceable(16) %0)
  ret double %2
}

; Function Attrs: noinline uwtable
define zeroext i1 @_Z11intersectSSRK1LS1_(%struct.L* dereferenceable(32) %0, %struct.L* dereferenceable(32) %1) #0 {
  %3 = alloca %"struct.std::complex", align 8
  %4 = alloca %"struct.std::complex", align 8
  %5 = alloca %"struct.std::complex", align 8
  %6 = alloca %"struct.std::complex", align 8
  %7 = alloca %"struct.std::complex", align 8
  %8 = alloca %"struct.std::complex", align 8
  %9 = alloca %"struct.std::complex", align 8
  %10 = alloca %"struct.std::complex", align 8
  %11 = alloca %"struct.std::complex", align 8
  %12 = alloca %"struct.std::complex", align 8
  %13 = alloca %"struct.std::complex", align 8
  %14 = alloca %"struct.std::complex", align 8
  %15 = getelementptr inbounds %struct.L, %struct.L* %0, i32 0, i32 0
  %16 = bitcast %"struct.std::complex"* %3 to i8*
  %17 = bitcast %"struct.std::complex"* %15 to i8*
  call void @llvm.memcpy.p0i8.p0i8.i64(i8* align 8 %16, i8* align 8 %17, i64 16, i1 false)
  %18 = getelementptr inbounds %struct.L, %struct.L* %0, i32 0, i32 1
  %19 = bitcast %"struct.std::complex"* %4 to i8*
  %20 = bitcast %"struct.std::complex"* %18 to i8*
  call void @llvm.memcpy.p0i8.p0i8.i64(i8* align 8 %19, i8* align 8 %20, i64 16, i1 false)
  %21 = getelementptr inbounds %struct.L, %struct.L* %1, i32 0, i32 0
  %22 = bitcast %"struct.std::complex"* %5 to i8*
  %23 = bitcast %"struct.std::complex"* %21 to i8*
  call void @llvm.memcpy.p0i8.p0i8.i64(i8* align 8 %22, i8* align 8 %23, i64 16, i1 false)
  %24 = bitcast %"struct.std::complex"* %3 to { double, double }*
  %25 = getelementptr inbounds { double, double }, { double, double }* %24, i32 0, i32 0
  %26 = load double, double* %25, align 8
  %27 = getelementptr inbounds { double, double }, { double, double }* %24, i32 0, i32 1
  %28 = load double, double* %27, align 8
  %29 = bitcast %"struct.std::complex"* %4 to { double, double }*
  %30 = getelementptr inbounds { double, double }, { double, double }* %29, i32 0, i32 0
  %31 = load double, double* %30, align 8
  %32 = getelementptr inbounds { double, double }, { double, double }* %29, i32 0, i32 1
  %33 = load double, double* %32, align 8
  %34 = bitcast %"struct.std::complex"* %5 to { double, double }*
  %35 = getelementptr inbounds { double, double }, { double, double }* %34, i32 0, i32 0
  %36 = load double, double* %35, align 8
  %37 = getelementptr inbounds { double, double }, { double, double }* %34, i32 0, i32 1
  %38 = load double, double* %37, align 8
  %39 = call i32 @_Z3ccwSt7complexIdES0_S0_(double %26, double %28, double %31, double %33, double %36, double %38)
  %40 = getelementptr inbounds %struct.L, %struct.L* %0, i32 0, i32 0
  %41 = bitcast %"struct.std::complex"* %6 to i8*
  %42 = bitcast %"struct.std::complex"* %40 to i8*
  call void @llvm.memcpy.p0i8.p0i8.i64(i8* align 8 %41, i8* align 8 %42, i64 16, i1 false)
  %43 = getelementptr inbounds %struct.L, %struct.L* %0, i32 0, i32 1
  %44 = bitcast %"struct.std::complex"* %7 to i8*
  %45 = bitcast %"struct.std::complex"* %43 to i8*
  call void @llvm.memcpy.p0i8.p0i8.i64(i8* align 8 %44, i8* align 8 %45, i64 16, i1 false)
  %46 = getelementptr inbounds %struct.L, %struct.L* %1, i32 0, i32 1
  %47 = bitcast %"struct.std::complex"* %8 to i8*
  %48 = bitcast %"struct.std::complex"* %46 to i8*
  call void @llvm.memcpy.p0i8.p0i8.i64(i8* align 8 %47, i8* align 8 %48, i64 16, i1 false)
  %49 = bitcast %"struct.std::complex"* %6 to { double, double }*
  %50 = getelementptr inbounds { double, double }, { double, double }* %49, i32 0, i32 0
  %51 = load double, double* %50, align 8
  %52 = getelementptr inbounds { double, double }, { double, double }* %49, i32 0, i32 1
  %53 = load double, double* %52, align 8
  %54 = bitcast %"struct.std::complex"* %7 to { double, double }*
  %55 = getelementptr inbounds { double, double }, { double, double }* %54, i32 0, i32 0
  %56 = load double, double* %55, align 8
  %57 = getelementptr inbounds { double, double }, { double, double }* %54, i32 0, i32 1
  %58 = load double, double* %57, align 8
  %59 = bitcast %"struct.std::complex"* %8 to { double, double }*
  %60 = getelementptr inbounds { double, double }, { double, double }* %59, i32 0, i32 0
  %61 = load double, double* %60, align 8
  %62 = getelementptr inbounds { double, double }, { double, double }* %59, i32 0, i32 1
  %63 = load double, double* %62, align 8
  %64 = call i32 @_Z3ccwSt7complexIdES0_S0_(double %51, double %53, double %56, double %58, double %61, double %63)
  %65 = mul nsw i32 %39, %64
  %66 = icmp sle i32 %65, 0
  br i1 %66, label %67, label %120

67:                                               ; preds = %2
  %68 = getelementptr inbounds %struct.L, %struct.L* %1, i32 0, i32 0
  %69 = bitcast %"struct.std::complex"* %9 to i8*
  %70 = bitcast %"struct.std::complex"* %68 to i8*
  call void @llvm.memcpy.p0i8.p0i8.i64(i8* align 8 %69, i8* align 8 %70, i64 16, i1 false)
  %71 = getelementptr inbounds %struct.L, %struct.L* %1, i32 0, i32 1
  %72 = bitcast %"struct.std::complex"* %10 to i8*
  %73 = bitcast %"struct.std::complex"* %71 to i8*
  call void @llvm.memcpy.p0i8.p0i8.i64(i8* align 8 %72, i8* align 8 %73, i64 16, i1 false)
  %74 = getelementptr inbounds %struct.L, %struct.L* %0, i32 0, i32 0
  %75 = bitcast %"struct.std::complex"* %11 to i8*
  %76 = bitcast %"struct.std::complex"* %74 to i8*
  call void @llvm.memcpy.p0i8.p0i8.i64(i8* align 8 %75, i8* align 8 %76, i64 16, i1 false)
  %77 = bitcast %"struct.std::complex"* %9 to { double, double }*
  %78 = getelementptr inbounds { double, double }, { double, double }* %77, i32 0, i32 0
  %79 = load double, double* %78, align 8
  %80 = getelementptr inbounds { double, double }, { double, double }* %77, i32 0, i32 1
  %81 = load double, double* %80, align 8
  %82 = bitcast %"struct.std::complex"* %10 to { double, double }*
  %83 = getelementptr inbounds { double, double }, { double, double }* %82, i32 0, i32 0
  %84 = load double, double* %83, align 8
  %85 = getelementptr inbounds { double, double }, { double, double }* %82, i32 0, i32 1
  %86 = load double, double* %85, align 8
  %87 = bitcast %"struct.std::complex"* %11 to { double, double }*
  %88 = getelementptr inbounds { double, double }, { double, double }* %87, i32 0, i32 0
  %89 = load double, double* %88, align 8
  %90 = getelementptr inbounds { double, double }, { double, double }* %87, i32 0, i32 1
  %91 = load double, double* %90, align 8
  %92 = call i32 @_Z3ccwSt7complexIdES0_S0_(double %79, double %81, double %84, double %86, double %89, double %91)
  %93 = getelementptr inbounds %struct.L, %struct.L* %1, i32 0, i32 0
  %94 = bitcast %"struct.std::complex"* %12 to i8*
  %95 = bitcast %"struct.std::complex"* %93 to i8*
  call void @llvm.memcpy.p0i8.p0i8.i64(i8* align 8 %94, i8* align 8 %95, i64 16, i1 false)
  %96 = getelementptr inbounds %struct.L, %struct.L* %1, i32 0, i32 1
  %97 = bitcast %"struct.std::complex"* %13 to i8*
  %98 = bitcast %"struct.std::complex"* %96 to i8*
  call void @llvm.memcpy.p0i8.p0i8.i64(i8* align 8 %97, i8* align 8 %98, i64 16, i1 false)
  %99 = getelementptr inbounds %struct.L, %struct.L* %0, i32 0, i32 1
  %100 = bitcast %"struct.std::complex"* %14 to i8*
  %101 = bitcast %"struct.std::complex"* %99 to i8*
  call void @llvm.memcpy.p0i8.p0i8.i64(i8* align 8 %100, i8* align 8 %101, i64 16, i1 false)
  %102 = bitcast %"struct.std::complex"* %12 to { double, double }*
  %103 = getelementptr inbounds { double, double }, { double, double }* %102, i32 0, i32 0
  %104 = load double, double* %103, align 8
  %105 = getelementptr inbounds { double, double }, { double, double }* %102, i32 0, i32 1
  %106 = load double, double* %105, align 8
  %107 = bitcast %"struct.std::complex"* %13 to { double, double }*
  %108 = getelementptr inbounds { double, double }, { double, double }* %107, i32 0, i32 0
  %109 = load double, double* %108, align 8
  %110 = getelementptr inbounds { double, double }, { double, double }* %107, i32 0, i32 1
  %111 = load double, double* %110, align 8
  %112 = bitcast %"struct.std::complex"* %14 to { double, double }*
  %113 = getelementptr inbounds { double, double }, { double, double }* %112, i32 0, i32 0
  %114 = load double, double* %113, align 8
  %115 = getelementptr inbounds { double, double }, { double, double }* %112, i32 0, i32 1
  %116 = load double, double* %115, align 8
  %117 = call i32 @_Z3ccwSt7complexIdES0_S0_(double %104, double %106, double %109, double %111, double %114, double %116)
  %118 = mul nsw i32 %92, %117
  %119 = icmp sle i32 %118, 0
  br label %120

120:                                              ; preds = %67, %2
  %121 = phi i1 [ false, %2 ], [ %119, %67 ]
  ret i1 %121
}

; Function Attrs: noinline uwtable
define { double, double } @_Z15intersection_lsSt7complexIdES0_S0_S0_(double %0, double %1, double %2, double %3, double %4, double %5, double %6, double %7) #0 {
  %9 = alloca %"struct.std::complex", align 8
  %10 = alloca %"struct.std::complex", align 8
  %11 = alloca %"struct.std::complex", align 8
  %12 = alloca %"struct.std::complex", align 8
  %13 = alloca %"struct.std::complex", align 8
  %14 = alloca %"struct.std::complex", align 8
  %15 = alloca %"struct.std::complex", align 8
  %16 = alloca %"struct.std::complex", align 8
  %17 = alloca double, align 8
  %18 = alloca %"struct.std::complex", align 8
  %19 = alloca %"struct.std::complex", align 8
  %20 = bitcast %"struct.std::complex"* %10 to { double, double }*
  %21 = getelementptr inbounds { double, double }, { double, double }* %20, i32 0, i32 0
  store double %0, double* %21, align 8
  %22 = getelementptr inbounds { double, double }, { double, double }* %20, i32 0, i32 1
  store double %1, double* %22, align 8
  %23 = bitcast %"struct.std::complex"* %11 to { double, double }*
  %24 = getelementptr inbounds { double, double }, { double, double }* %23, i32 0, i32 0
  store double %2, double* %24, align 8
  %25 = getelementptr inbounds { double, double }, { double, double }* %23, i32 0, i32 1
  store double %3, double* %25, align 8
  %26 = bitcast %"struct.std::complex"* %12 to { double, double }*
  %27 = getelementptr inbounds { double, double }, { double, double }* %26, i32 0, i32 0
  store double %4, double* %27, align 8
  %28 = getelementptr inbounds { double, double }, { double, double }* %26, i32 0, i32 1
  store double %5, double* %28, align 8
  %29 = bitcast %"struct.std::complex"* %13 to { double, double }*
  %30 = getelementptr inbounds { double, double }, { double, double }* %29, i32 0, i32 0
  store double %6, double* %30, align 8
  %31 = getelementptr inbounds { double, double }, { double, double }* %29, i32 0, i32 1
  store double %7, double* %31, align 8
  %32 = call { double, double } @_ZStmiIdESt7complexIT_ERKS2_S4_(%"struct.std::complex"* dereferenceable(16) %13, %"struct.std::complex"* dereferenceable(16) %12)
  %33 = getelementptr inbounds %"struct.std::complex", %"struct.std::complex"* %14, i32 0, i32 0
  %34 = getelementptr inbounds { double, double }, { double, double }* %33, i32 0, i32 0
  %35 = extractvalue { double, double } %32, 0
  store double %35, double* %34, align 8
  %36 = getelementptr inbounds { double, double }, { double, double }* %33, i32 0, i32 1
  %37 = extractvalue { double, double } %32, 1
  store double %37, double* %36, align 8
  %38 = call { double, double } @_ZStmiIdESt7complexIT_ERKS2_S4_(%"struct.std::complex"* dereferenceable(16) %10, %"struct.std::complex"* dereferenceable(16) %12)
  %39 = getelementptr inbounds %"struct.std::complex", %"struct.std::complex"* %15, i32 0, i32 0
  %40 = getelementptr inbounds { double, double }, { double, double }* %39, i32 0, i32 0
  %41 = extractvalue { double, double } %38, 0
  store double %41, double* %40, align 8
  %42 = getelementptr inbounds { double, double }, { double, double }* %39, i32 0, i32 1
  %43 = extractvalue { double, double } %38, 1
  store double %43, double* %42, align 8
  %44 = call double @_Z5crossRKSt7complexIdES2_(%"struct.std::complex"* dereferenceable(16) %14, %"struct.std::complex"* dereferenceable(16) %15)
  %45 = call double @_ZSt3absd(double %44)
  %46 = call { double, double } @_ZStmiIdESt7complexIT_ERKS2_S4_(%"struct.std::complex"* dereferenceable(16) %11, %"struct.std::complex"* dereferenceable(16) %12)
  %47 = getelementptr inbounds %"struct.std::complex", %"struct.std::complex"* %16, i32 0, i32 0
  %48 = getelementptr inbounds { double, double }, { double, double }* %47, i32 0, i32 0
  %49 = extractvalue { double, double } %46, 0
  store double %49, double* %48, align 8
  %50 = getelementptr inbounds { double, double }, { double, double }* %47, i32 0, i32 1
  %51 = extractvalue { double, double } %46, 1
  store double %51, double* %50, align 8
  %52 = call double @_Z5crossRKSt7complexIdES2_(%"struct.std::complex"* dereferenceable(16) %14, %"struct.std::complex"* dereferenceable(16) %16)
  %53 = call double @_ZSt3absd(double %52)
  %54 = fadd double %45, %53
  %55 = fdiv double %45, %54
  store double %55, double* %17, align 8
  %56 = call { double, double } @_ZStmiIdESt7complexIT_ERKS2_S4_(%"struct.std::complex"* dereferenceable(16) %11, %"struct.std::complex"* dereferenceable(16) %10)
  %57 = getelementptr inbounds %"struct.std::complex", %"struct.std::complex"* %19, i32 0, i32 0
  %58 = getelementptr inbounds { double, double }, { double, double }* %57, i32 0, i32 0
  %59 = extractvalue { double, double } %56, 0
  store double %59, double* %58, align 8
  %60 = getelementptr inbounds { double, double }, { double, double }* %57, i32 0, i32 1
  %61 = extractvalue { double, double } %56, 1
  store double %61, double* %60, align 8
  %62 = call { double, double } @_ZStmlIdESt7complexIT_ERKS2_RKS1_(%"struct.std::complex"* dereferenceable(16) %19, double* dereferenceable(8) %17)
  %63 = getelementptr inbounds %"struct.std::complex", %"struct.std::complex"* %18, i32 0, i32 0
  %64 = getelementptr inbounds { double, double }, { double, double }* %63, i32 0, i32 0
  %65 = extractvalue { double, double } %62, 0
  store double %65, double* %64, align 8
  %66 = getelementptr inbounds { double, double }, { double, double }* %63, i32 0, i32 1
  %67 = extractvalue { double, double } %62, 1
  store double %67, double* %66, align 8
  %68 = call { double, double } @_ZStplIdESt7complexIT_ERKS2_S4_(%"struct.std::complex"* dereferenceable(16) %10, %"struct.std::complex"* dereferenceable(16) %18)
  %69 = getelementptr inbounds %"struct.std::complex", %"struct.std::complex"* %9, i32 0, i32 0
  %70 = getelementptr inbounds { double, double }, { double, double }* %69, i32 0, i32 0
  %71 = extractvalue { double, double } %68, 0
  store double %71, double* %70, align 8
  %72 = getelementptr inbounds { double, double }, { double, double }* %69, i32 0, i32 1
  %73 = extractvalue { double, double } %68, 1
  store double %73, double* %72, align 8
  %74 = getelementptr inbounds %"struct.std::complex", %"struct.std::complex"* %9, i32 0, i32 0
  %75 = load { double, double }, { double, double }* %74, align 8
  ret { double, double } %75
}

; Function Attrs: noinline nounwind uwtable
define linkonce_odr { double, double } @_ZStmiIdESt7complexIT_ERKS2_S4_(%"struct.std::complex"* dereferenceable(16) %0, %"struct.std::complex"* dereferenceable(16) %1) #4 comdat {
  %3 = alloca %"struct.std::complex", align 8
  %4 = bitcast %"struct.std::complex"* %3 to i8*
  %5 = bitcast %"struct.std::complex"* %0 to i8*
  call void @llvm.memcpy.p0i8.p0i8.i64(i8* align 8 %4, i8* align 8 %5, i64 16, i1 false)
  %6 = call dereferenceable(16) %"struct.std::complex"* @_ZNSt7complexIdEmIIdEERS0_RKS_IT_E(%"struct.std::complex"* %3, %"struct.std::complex"* dereferenceable(16) %1)
  %7 = getelementptr inbounds %"struct.std::complex", %"struct.std::complex"* %3, i32 0, i32 0
  %8 = load { double, double }, { double, double }* %7, align 8
  ret { double, double } %8
}

; Function Attrs: noinline nounwind uwtable
define linkonce_odr double @_ZSt3absd(double %0) #4 comdat {
  %2 = call double @llvm.fabs.f64(double %0)
  ret double %2
}

; Function Attrs: noinline uwtable
define linkonce_odr { double, double } @_ZStplIdESt7complexIT_ERKS2_S4_(%"struct.std::complex"* dereferenceable(16) %0, %"struct.std::complex"* dereferenceable(16) %1) #0 comdat {
  %3 = alloca %"struct.std::complex", align 8
  %4 = bitcast %"struct.std::complex"* %3 to i8*
  %5 = bitcast %"struct.std::complex"* %0 to i8*
  call void @llvm.memcpy.p0i8.p0i8.i64(i8* align 8 %4, i8* align 8 %5, i64 16, i1 false)
  %6 = call dereferenceable(16) %"struct.std::complex"* @_ZNSt7complexIdEpLIdEERS0_RKS_IT_E(%"struct.std::complex"* %3, %"struct.std::complex"* dereferenceable(16) %1)
  %7 = getelementptr inbounds %"struct.std::complex", %"struct.std::complex"* %3, i32 0, i32 0
  %8 = load { double, double }, { double, double }* %7, align 8
  ret { double, double } %8
}

; Function Attrs: noinline uwtable
define linkonce_odr { double, double } @_ZStmlIdESt7complexIT_ERKS2_RKS1_(%"struct.std::complex"* dereferenceable(16) %0, double* dereferenceable(8) %1) #0 comdat {
  %3 = alloca %"struct.std::complex", align 8
  %4 = bitcast %"struct.std::complex"* %3 to i8*
  %5 = bitcast %"struct.std::complex"* %0 to i8*
  call void @llvm.memcpy.p0i8.p0i8.i64(i8* align 8 %4, i8* align 8 %5, i64 16, i1 false)
  %6 = load double, double* %1, align 8
  %7 = call dereferenceable(16) %"struct.std::complex"* @_ZNSt7complexIdEmLEd(%"struct.std::complex"* %3, double %6)
  %8 = getelementptr inbounds %"struct.std::complex", %"struct.std::complex"* %3, i32 0, i32 0
  %9 = load { double, double }, { double, double }* %8, align 8
  ret { double, double } %9
}

; Function Attrs: noinline nounwind uwtable
define zeroext i1 @_ZltRK4EdgeS1_(%struct.Edge* dereferenceable(16) %0, %struct.Edge* dereferenceable(16) %1) #4 {
  %3 = getelementptr inbounds %struct.Edge, %struct.Edge* %0, i32 0, i32 2
  %4 = load double, double* %3, align 8
  %5 = getelementptr inbounds %struct.Edge, %struct.Edge* %1, i32 0, i32 2
  %6 = load double, double* %5, align 8
  %7 = fcmp une double %4, %6
  br i1 %7, label %8, label %14

8:                                                ; preds = %2
  %9 = getelementptr inbounds %struct.Edge, %struct.Edge* %0, i32 0, i32 2
  %10 = load double, double* %9, align 8
  %11 = getelementptr inbounds %struct.Edge, %struct.Edge* %1, i32 0, i32 2
  %12 = load double, double* %11, align 8
  %13 = fcmp ogt double %10, %12
  br label %34

14:                                               ; preds = %2
  %15 = getelementptr inbounds %struct.Edge, %struct.Edge* %0, i32 0, i32 0
  %16 = load i32, i32* %15, align 8
  %17 = getelementptr inbounds %struct.Edge, %struct.Edge* %1, i32 0, i32 0
  %18 = load i32, i32* %17, align 8
  %19 = icmp ne i32 %16, %18
  br i1 %19, label %20, label %26

20:                                               ; preds = %14
  %21 = getelementptr inbounds %struct.Edge, %struct.Edge* %0, i32 0, i32 0
  %22 = load i32, i32* %21, align 8
  %23 = getelementptr inbounds %struct.Edge, %struct.Edge* %1, i32 0, i32 0
  %24 = load i32, i32* %23, align 8
  %25 = icmp slt i32 %22, %24
  br label %32

26:                                               ; preds = %14
  %27 = getelementptr inbounds %struct.Edge, %struct.Edge* %0, i32 0, i32 1
  %28 = load i32, i32* %27, align 4
  %29 = getelementptr inbounds %struct.Edge, %struct.Edge* %1, i32 0, i32 1
  %30 = load i32, i32* %29, align 4
  %31 = icmp slt i32 %28, %30
  br label %32

32:                                               ; preds = %26, %20
  %33 = phi i1 [ %25, %20 ], [ %31, %26 ]
  br label %34

34:                                               ; preds = %32, %8
  %35 = phi i1 [ %13, %8 ], [ %33, %32 ]
  ret i1 %35
}

; Function Attrs: noinline uwtable
define double @_Z8dijkstraRSt6vectorIS_I4EdgeSaIS0_EESaIS2_EEii(%"class.std::vector"* dereferenceable(24) %0, i32 %1, i32 %2) #0 personality i8* bitcast (i32 (...)* @__gxx_personality_v0 to i8*) {
  %4 = alloca %"class.std::vector.5", align 8
  %5 = alloca %"class.std::allocator.7", align 1
  %6 = alloca %"class.std::vector.5", align 8
  %7 = alloca double, align 8
  %8 = alloca %"class.std::allocator.7", align 1
  %9 = alloca %"class.std::priority_queue", align 8
  %10 = alloca %struct.Edge, align 8
  %11 = alloca %struct.Edge, align 8
  %12 = alloca %struct.Edge, align 8
  %13 = call i64 @_ZNKSt6vectorIS_I4EdgeSaIS0_EESaIS2_EE4sizeEv(%"class.std::vector"* %0) #3
  %14 = trunc i64 %13 to i32
  %15 = sext i32 %14 to i64
  call void @_ZNSaIdEC2Ev(%"class.std::allocator.7"* %5) #3
  invoke void @_ZNSt6vectorIdSaIdEEC2EmRKdRKS0_(%"class.std::vector.5"* %4, i64 %15, double* dereferenceable(8) @_ZL3inf, %"class.std::allocator.7"* dereferenceable(1) %5)
          to label %16 unwind label %41

16:                                               ; preds = %3
  call void @_ZNSaIdED2Ev(%"class.std::allocator.7"* %5) #3
  %17 = sext i32 %14 to i64
  store double -1.000000e+00, double* %7, align 8
  call void @_ZNSaIdEC2Ev(%"class.std::allocator.7"* %8) #3
  invoke void @_ZNSt6vectorIdSaIdEEC2EmRKdRKS0_(%"class.std::vector.5"* %6, i64 %17, double* dereferenceable(8) %7, %"class.std::allocator.7"* dereferenceable(1) %8)
          to label %18 unwind label %45

18:                                               ; preds = %16
  call void @_ZNSaIdED2Ev(%"class.std::allocator.7"* %8) #3
  invoke void @_ZNSt14priority_queueI4EdgeSt6vectorIS0_SaIS0_EESt4lessIS0_EEC2IS3_vEEv(%"class.std::priority_queue"* %9)
          to label %19 unwind label %49

19:                                               ; preds = %18
  invoke void @_ZN4EdgeC2Eiid(%struct.Edge* %10, i32 -2, i32 %1, double 0.000000e+00)
          to label %20 unwind label %53

20:                                               ; preds = %19
  invoke void @_ZNSt14priority_queueI4EdgeSt6vectorIS0_SaIS0_EESt4lessIS0_EE4pushEOS0_(%"class.std::priority_queue"* %9, %struct.Edge* dereferenceable(16) %10)
          to label %21 unwind label %53

21:                                               ; preds = %20
  %22 = sext i32 %1 to i64
  %23 = call dereferenceable(8) double* @_ZNSt6vectorIdSaIdEEixEm(%"class.std::vector.5"* %4, i64 %22) #3
  store double 0.000000e+00, double* %23, align 8
  br label %24

24:                                               ; preds = %145, %40, %21
  %25 = invoke zeroext i1 @_ZNKSt14priority_queueI4EdgeSt6vectorIS0_SaIS0_EESt4lessIS0_EE5emptyEv(%"class.std::priority_queue"* %9)
          to label %26 unwind label %53

26:                                               ; preds = %24
  %27 = xor i1 %25, true
  br i1 %27, label %28, label %146

28:                                               ; preds = %26
  %29 = invoke dereferenceable(16) %struct.Edge* @_ZNKSt14priority_queueI4EdgeSt6vectorIS0_SaIS0_EESt4lessIS0_EE3topEv(%"class.std::priority_queue"* %9)
          to label %30 unwind label %53

30:                                               ; preds = %28
  %31 = bitcast %struct.Edge* %11 to i8*
  %32 = bitcast %struct.Edge* %29 to i8*
  call void @llvm.memcpy.p0i8.p0i8.i64(i8* align 8 %31, i8* align 8 %32, i64 16, i1 false)
  invoke void @_ZNSt14priority_queueI4EdgeSt6vectorIS0_SaIS0_EESt4lessIS0_EE3popEv(%"class.std::priority_queue"* %9)
          to label %33 unwind label %53

33:                                               ; preds = %30
  %34 = getelementptr inbounds %struct.Edge, %struct.Edge* %11, i32 0, i32 1
  %35 = load i32, i32* %34, align 4
  %36 = sext i32 %35 to i64
  %37 = call dereferenceable(8) double* @_ZNSt6vectorIdSaIdEEixEm(%"class.std::vector.5"* %6, i64 %36) #3
  %38 = load double, double* %37, align 8
  %39 = fcmp une double %38, -1.000000e+00
  br i1 %39, label %40, label %57

40:                                               ; preds = %33
  br label %24

41:                                               ; preds = %3
  %42 = landingpad { i8*, i32 }
          cleanup
  %43 = extractvalue { i8*, i32 } %42, 0
  %44 = extractvalue { i8*, i32 } %42, 1
  call void @_ZNSaIdED2Ev(%"class.std::allocator.7"* %5) #3
  br label %152

45:                                               ; preds = %16
  %46 = landingpad { i8*, i32 }
          cleanup
  %47 = extractvalue { i8*, i32 } %46, 0
  %48 = extractvalue { i8*, i32 } %46, 1
  call void @_ZNSaIdED2Ev(%"class.std::allocator.7"* %8) #3
  br label %151

49:                                               ; preds = %18
  %50 = landingpad { i8*, i32 }
          cleanup
  %51 = extractvalue { i8*, i32 } %50, 0
  %52 = extractvalue { i8*, i32 } %50, 1
  br label %150

53:                                               ; preds = %140, %97, %30, %28, %24, %20, %19
  %54 = landingpad { i8*, i32 }
          cleanup
  %55 = extractvalue { i8*, i32 } %54, 0
  %56 = extractvalue { i8*, i32 } %54, 1
  call void @_ZNSt14priority_queueI4EdgeSt6vectorIS0_SaIS0_EESt4lessIS0_EED2Ev(%"class.std::priority_queue"* %9) #3
  br label %150

57:                                               ; preds = %33
  %58 = getelementptr inbounds %struct.Edge, %struct.Edge* %11, i32 0, i32 0
  %59 = load i32, i32* %58, align 8
  %60 = sitofp i32 %59 to double
  %61 = getelementptr inbounds %struct.Edge, %struct.Edge* %11, i32 0, i32 1
  %62 = load i32, i32* %61, align 4
  %63 = sext i32 %62 to i64
  %64 = call dereferenceable(8) double* @_ZNSt6vectorIdSaIdEEixEm(%"class.std::vector.5"* %6, i64 %63) #3
  store double %60, double* %64, align 8
  br label %65

65:                                               ; preds = %143, %57
  %.04 = phi i32 [ 0, %57 ], [ %144, %143 ]
  %66 = sext i32 %.04 to i64
  %67 = getelementptr inbounds %struct.Edge, %struct.Edge* %11, i32 0, i32 1
  %68 = load i32, i32* %67, align 4
  %69 = sext i32 %68 to i64
  %70 = call dereferenceable(24) %"class.std::vector.0"* @_ZNSt6vectorIS_I4EdgeSaIS0_EESaIS2_EEixEm(%"class.std::vector"* %0, i64 %69) #3
  %71 = call i64 @_ZNKSt6vectorI4EdgeSaIS0_EE4sizeEv(%"class.std::vector.0"* %70) #3
  %72 = icmp ult i64 %66, %71
  br i1 %72, label %73, label %145

73:                                               ; preds = %65
  %74 = getelementptr inbounds %struct.Edge, %struct.Edge* %11, i32 0, i32 1
  %75 = load i32, i32* %74, align 4
  %76 = sext i32 %75 to i64
  %77 = call dereferenceable(24) %"class.std::vector.0"* @_ZNSt6vectorIS_I4EdgeSaIS0_EESaIS2_EEixEm(%"class.std::vector"* %0, i64 %76) #3
  %78 = sext i32 %.04 to i64
  %79 = call dereferenceable(16) %struct.Edge* @_ZNSt6vectorI4EdgeSaIS0_EEixEm(%"class.std::vector.0"* %77, i64 %78) #3
  %80 = getelementptr inbounds %struct.Edge, %struct.Edge* %79, i32 0, i32 1
  %81 = load i32, i32* %80, align 4
  %82 = sext i32 %81 to i64
  %83 = call dereferenceable(8) double* @_ZNSt6vectorIdSaIdEEixEm(%"class.std::vector.5"* %4, i64 %82) #3
  %84 = load double, double* %83, align 8
  %85 = getelementptr inbounds %struct.Edge, %struct.Edge* %11, i32 0, i32 2
  %86 = load double, double* %85, align 8
  %87 = getelementptr inbounds %struct.Edge, %struct.Edge* %11, i32 0, i32 1
  %88 = load i32, i32* %87, align 4
  %89 = sext i32 %88 to i64
  %90 = call dereferenceable(24) %"class.std::vector.0"* @_ZNSt6vectorIS_I4EdgeSaIS0_EESaIS2_EEixEm(%"class.std::vector"* %0, i64 %89) #3
  %91 = sext i32 %.04 to i64
  %92 = call dereferenceable(16) %struct.Edge* @_ZNSt6vectorI4EdgeSaIS0_EEixEm(%"class.std::vector.0"* %90, i64 %91) #3
  %93 = getelementptr inbounds %struct.Edge, %struct.Edge* %92, i32 0, i32 2
  %94 = load double, double* %93, align 8
  %95 = fadd double %86, %94
  %96 = fcmp ogt double %84, %95
  br i1 %96, label %97, label %142

97:                                               ; preds = %73
  %98 = getelementptr inbounds %struct.Edge, %struct.Edge* %11, i32 0, i32 2
  %99 = load double, double* %98, align 8
  %100 = getelementptr inbounds %struct.Edge, %struct.Edge* %11, i32 0, i32 1
  %101 = load i32, i32* %100, align 4
  %102 = sext i32 %101 to i64
  %103 = call dereferenceable(24) %"class.std::vector.0"* @_ZNSt6vectorIS_I4EdgeSaIS0_EESaIS2_EEixEm(%"class.std::vector"* %0, i64 %102) #3
  %104 = sext i32 %.04 to i64
  %105 = call dereferenceable(16) %struct.Edge* @_ZNSt6vectorI4EdgeSaIS0_EEixEm(%"class.std::vector.0"* %103, i64 %104) #3
  %106 = getelementptr inbounds %struct.Edge, %struct.Edge* %105, i32 0, i32 2
  %107 = load double, double* %106, align 8
  %108 = fadd double %99, %107
  %109 = getelementptr inbounds %struct.Edge, %struct.Edge* %11, i32 0, i32 1
  %110 = load i32, i32* %109, align 4
  %111 = sext i32 %110 to i64
  %112 = call dereferenceable(24) %"class.std::vector.0"* @_ZNSt6vectorIS_I4EdgeSaIS0_EESaIS2_EEixEm(%"class.std::vector"* %0, i64 %111) #3
  %113 = sext i32 %.04 to i64
  %114 = call dereferenceable(16) %struct.Edge* @_ZNSt6vectorI4EdgeSaIS0_EEixEm(%"class.std::vector.0"* %112, i64 %113) #3
  %115 = getelementptr inbounds %struct.Edge, %struct.Edge* %114, i32 0, i32 1
  %116 = load i32, i32* %115, align 4
  %117 = sext i32 %116 to i64
  %118 = call dereferenceable(8) double* @_ZNSt6vectorIdSaIdEEixEm(%"class.std::vector.5"* %4, i64 %117) #3
  store double %108, double* %118, align 8
  %119 = getelementptr inbounds %struct.Edge, %struct.Edge* %11, i32 0, i32 1
  %120 = load i32, i32* %119, align 4
  %121 = getelementptr inbounds %struct.Edge, %struct.Edge* %11, i32 0, i32 1
  %122 = load i32, i32* %121, align 4
  %123 = sext i32 %122 to i64
  %124 = call dereferenceable(24) %"class.std::vector.0"* @_ZNSt6vectorIS_I4EdgeSaIS0_EESaIS2_EEixEm(%"class.std::vector"* %0, i64 %123) #3
  %125 = sext i32 %.04 to i64
  %126 = call dereferenceable(16) %struct.Edge* @_ZNSt6vectorI4EdgeSaIS0_EEixEm(%"class.std::vector.0"* %124, i64 %125) #3
  %127 = getelementptr inbounds %struct.Edge, %struct.Edge* %126, i32 0, i32 1
  %128 = load i32, i32* %127, align 4
  %129 = getelementptr inbounds %struct.Edge, %struct.Edge* %11, i32 0, i32 1
  %130 = load i32, i32* %129, align 4
  %131 = sext i32 %130 to i64
  %132 = call dereferenceable(24) %"class.std::vector.0"* @_ZNSt6vectorIS_I4EdgeSaIS0_EESaIS2_EEixEm(%"class.std::vector"* %0, i64 %131) #3
  %133 = sext i32 %.04 to i64
  %134 = call dereferenceable(16) %struct.Edge* @_ZNSt6vectorI4EdgeSaIS0_EEixEm(%"class.std::vector.0"* %132, i64 %133) #3
  %135 = getelementptr inbounds %struct.Edge, %struct.Edge* %134, i32 0, i32 1
  %136 = load i32, i32* %135, align 4
  %137 = sext i32 %136 to i64
  %138 = call dereferenceable(8) double* @_ZNSt6vectorIdSaIdEEixEm(%"class.std::vector.5"* %4, i64 %137) #3
  %139 = load double, double* %138, align 8
  invoke void @_ZN4EdgeC2Eiid(%struct.Edge* %12, i32 %120, i32 %128, double %139)
          to label %140 unwind label %53

140:                                              ; preds = %97
  invoke void @_ZNSt14priority_queueI4EdgeSt6vectorIS0_SaIS0_EESt4lessIS0_EE4pushEOS0_(%"class.std::priority_queue"* %9, %struct.Edge* dereferenceable(16) %12)
          to label %141 unwind label %53

141:                                              ; preds = %140
  br label %142

142:                                              ; preds = %141, %73
  br label %143

143:                                              ; preds = %142
  %144 = add nsw i32 %.04, 1
  br label %65

145:                                              ; preds = %65
  br label %24

146:                                              ; preds = %26
  %147 = sext i32 %2 to i64
  %148 = call dereferenceable(8) double* @_ZNSt6vectorIdSaIdEEixEm(%"class.std::vector.5"* %4, i64 %147) #3
  %149 = load double, double* %148, align 8
  call void @_ZNSt14priority_queueI4EdgeSt6vectorIS0_SaIS0_EESt4lessIS0_EED2Ev(%"class.std::priority_queue"* %9) #3
  call void @_ZNSt6vectorIdSaIdEED2Ev(%"class.std::vector.5"* %6) #3
  call void @_ZNSt6vectorIdSaIdEED2Ev(%"class.std::vector.5"* %4) #3
  ret double %149

150:                                              ; preds = %53, %49
  %.01 = phi i8* [ %55, %53 ], [ %51, %49 ]
  %.0 = phi i32 [ %56, %53 ], [ %52, %49 ]
  call void @_ZNSt6vectorIdSaIdEED2Ev(%"class.std::vector.5"* %6) #3
  br label %151

151:                                              ; preds = %150, %45
  %.12 = phi i8* [ %.01, %150 ], [ %47, %45 ]
  %.1 = phi i32 [ %.0, %150 ], [ %48, %45 ]
  call void @_ZNSt6vectorIdSaIdEED2Ev(%"class.std::vector.5"* %4) #3
  br label %152

152:                                              ; preds = %151, %41
  %.23 = phi i8* [ %.12, %151 ], [ %43, %41 ]
  %.2 = phi i32 [ %.1, %151 ], [ %44, %41 ]
  %153 = insertvalue { i8*, i32 } undef, i8* %.23, 0
  %154 = insertvalue { i8*, i32 } %153, i32 %.2, 1
  resume { i8*, i32 } %154
}

; Function Attrs: noinline nounwind uwtable
define linkonce_odr i64 @_ZNKSt6vectorIS_I4EdgeSaIS0_EESaIS2_EE4sizeEv(%"class.std::vector"* %0) #4 comdat align 2 {
  %2 = bitcast %"class.std::vector"* %0 to %"struct.std::_Vector_base"*
  %3 = getelementptr inbounds %"struct.std::_Vector_base", %"struct.std::_Vector_base"* %2, i32 0, i32 0
  %4 = getelementptr inbounds %"struct.std::_Vector_base<std::vector<Edge, std::allocator<Edge> >, std::allocator<std::vector<Edge, std::allocator<Edge> > > >::_Vector_impl", %"struct.std::_Vector_base<std::vector<Edge, std::allocator<Edge> >, std::allocator<std::vector<Edge, std::allocator<Edge> > > >::_Vector_impl"* %3, i32 0, i32 1
  %5 = load %"class.std::vector.0"*, %"class.std::vector.0"** %4, align 8
  %6 = bitcast %"class.std::vector"* %0 to %"struct.std::_Vector_base"*
  %7 = getelementptr inbounds %"struct.std::_Vector_base", %"struct.std::_Vector_base"* %6, i32 0, i32 0
  %8 = getelementptr inbounds %"struct.std::_Vector_base<std::vector<Edge, std::allocator<Edge> >, std::allocator<std::vector<Edge, std::allocator<Edge> > > >::_Vector_impl", %"struct.std::_Vector_base<std::vector<Edge, std::allocator<Edge> >, std::allocator<std::vector<Edge, std::allocator<Edge> > > >::_Vector_impl"* %7, i32 0, i32 0
  %9 = load %"class.std::vector.0"*, %"class.std::vector.0"** %8, align 8
  %10 = ptrtoint %"class.std::vector.0"* %5 to i64
  %11 = ptrtoint %"class.std::vector.0"* %9 to i64
  %12 = sub i64 %10, %11
  %13 = sdiv exact i64 %12, 24
  ret i64 %13
}

; Function Attrs: noinline nounwind uwtable
define linkonce_odr void @_ZNSaIdEC2Ev(%"class.std::allocator.7"* %0) unnamed_addr #4 comdat align 2 {
  %2 = bitcast %"class.std::allocator.7"* %0 to %"class.__gnu_cxx::new_allocator.8"*
  call void @_ZN9__gnu_cxx13new_allocatorIdEC2Ev(%"class.__gnu_cxx::new_allocator.8"* %2) #3
  ret void
}

; Function Attrs: noinline uwtable
define linkonce_odr void @_ZNSt6vectorIdSaIdEEC2EmRKdRKS0_(%"class.std::vector.5"* %0, i64 %1, double* dereferenceable(8) %2, %"class.std::allocator.7"* dereferenceable(1) %3) unnamed_addr #0 comdat align 2 personality i8* bitcast (i32 (...)* @__gxx_personality_v0 to i8*) {
  %5 = bitcast %"class.std::vector.5"* %0 to %"struct.std::_Vector_base.6"*
  call void @_ZNSt12_Vector_baseIdSaIdEEC2EmRKS0_(%"struct.std::_Vector_base.6"* %5, i64 %1, %"class.std::allocator.7"* dereferenceable(1) %3)
  invoke void @_ZNSt6vectorIdSaIdEE18_M_fill_initializeEmRKd(%"class.std::vector.5"* %0, i64 %1, double* dereferenceable(8) %2)
          to label %6 unwind label %7

6:                                                ; preds = %4
  ret void

7:                                                ; preds = %4
  %8 = landingpad { i8*, i32 }
          cleanup
  %9 = extractvalue { i8*, i32 } %8, 0
  %10 = extractvalue { i8*, i32 } %8, 1
  %11 = bitcast %"class.std::vector.5"* %0 to %"struct.std::_Vector_base.6"*
  call void @_ZNSt12_Vector_baseIdSaIdEED2Ev(%"struct.std::_Vector_base.6"* %11) #3
  br label %12

12:                                               ; preds = %7
  %13 = insertvalue { i8*, i32 } undef, i8* %9, 0
  %14 = insertvalue { i8*, i32 } %13, i32 %10, 1
  resume { i8*, i32 } %14
}

declare i32 @__gxx_personality_v0(...)

; Function Attrs: noinline nounwind uwtable
define linkonce_odr void @_ZNSaIdED2Ev(%"class.std::allocator.7"* %0) unnamed_addr #4 comdat align 2 {
  %2 = bitcast %"class.std::allocator.7"* %0 to %"class.__gnu_cxx::new_allocator.8"*
  call void @_ZN9__gnu_cxx13new_allocatorIdED2Ev(%"class.__gnu_cxx::new_allocator.8"* %2) #3
  ret void
}

; Function Attrs: noinline nounwind uwtable
define linkonce_odr void @_ZNSt14priority_queueI4EdgeSt6vectorIS0_SaIS0_EESt4lessIS0_EEC2IS3_vEEv(%"class.std::priority_queue"* %0) unnamed_addr #4 comdat align 2 {
  %2 = getelementptr inbounds %"class.std::priority_queue", %"class.std::priority_queue"* %0, i32 0, i32 0
  call void @_ZNSt6vectorI4EdgeSaIS0_EEC2Ev(%"class.std::vector.0"* %2) #3
  %3 = getelementptr inbounds %"class.std::priority_queue", %"class.std::priority_queue"* %0, i32 0, i32 1
  ret void
}

; Function Attrs: noinline uwtable
define linkonce_odr void @_ZNSt14priority_queueI4EdgeSt6vectorIS0_SaIS0_EESt4lessIS0_EE4pushEOS0_(%"class.std::priority_queue"* %0, %struct.Edge* dereferenceable(16) %1) #0 comdat align 2 {
  %3 = alloca %"class.__gnu_cxx::__normal_iterator", align 8
  %4 = alloca %"class.__gnu_cxx::__normal_iterator", align 8
  %5 = getelementptr inbounds %"class.std::priority_queue", %"class.std::priority_queue"* %0, i32 0, i32 0
  %6 = call dereferenceable(16) %struct.Edge* @_ZSt4moveIR4EdgeEONSt16remove_referenceIT_E4typeEOS3_(%struct.Edge* dereferenceable(16) %1) #3
  call void @_ZNSt6vectorI4EdgeSaIS0_EE9push_backEOS0_(%"class.std::vector.0"* %5, %struct.Edge* dereferenceable(16) %6)
  %7 = getelementptr inbounds %"class.std::priority_queue", %"class.std::priority_queue"* %0, i32 0, i32 0
  %8 = call %struct.Edge* @_ZNSt6vectorI4EdgeSaIS0_EE5beginEv(%"class.std::vector.0"* %7) #3
  %9 = getelementptr inbounds %"class.__gnu_cxx::__normal_iterator", %"class.__gnu_cxx::__normal_iterator"* %3, i32 0, i32 0
  store %struct.Edge* %8, %struct.Edge** %9, align 8
  %10 = getelementptr inbounds %"class.std::priority_queue", %"class.std::priority_queue"* %0, i32 0, i32 0
  %11 = call %struct.Edge* @_ZNSt6vectorI4EdgeSaIS0_EE3endEv(%"class.std::vector.0"* %10) #3
  %12 = getelementptr inbounds %"class.__gnu_cxx::__normal_iterator", %"class.__gnu_cxx::__normal_iterator"* %4, i32 0, i32 0
  store %struct.Edge* %11, %struct.Edge** %12, align 8
  %13 = getelementptr inbounds %"class.std::priority_queue", %"class.std::priority_queue"* %0, i32 0, i32 1
  %14 = getelementptr inbounds %"class.__gnu_cxx::__normal_iterator", %"class.__gnu_cxx::__normal_iterator"* %3, i32 0, i32 0
  %15 = load %struct.Edge*, %struct.Edge** %14, align 8
  %16 = getelementptr inbounds %"class.__gnu_cxx::__normal_iterator", %"class.__gnu_cxx::__normal_iterator"* %4, i32 0, i32 0
  %17 = load %struct.Edge*, %struct.Edge** %16, align 8
  call void @_ZSt9push_heapIN9__gnu_cxx17__normal_iteratorIP4EdgeSt6vectorIS2_SaIS2_EEEESt4lessIS2_EEvT_SA_T0_(%struct.Edge* %15, %struct.Edge* %17)
  ret void
}

; Function Attrs: noinline nounwind uwtable
define linkonce_odr void @_ZN4EdgeC2Eiid(%struct.Edge* %0, i32 %1, i32 %2, double %3) unnamed_addr #4 comdat align 2 {
  %5 = getelementptr inbounds %struct.Edge, %struct.Edge* %0, i32 0, i32 0
  store i32 %1, i32* %5, align 8
  %6 = getelementptr inbounds %struct.Edge, %struct.Edge* %0, i32 0, i32 1
  store i32 %2, i32* %6, align 4
  %7 = getelementptr inbounds %struct.Edge, %struct.Edge* %0, i32 0, i32 2
  store double %3, double* %7, align 8
  ret void
}

; Function Attrs: noinline nounwind uwtable
define linkonce_odr dereferenceable(8) double* @_ZNSt6vectorIdSaIdEEixEm(%"class.std::vector.5"* %0, i64 %1) #4 comdat align 2 {
  %3 = bitcast %"class.std::vector.5"* %0 to %"struct.std::_Vector_base.6"*
  %4 = getelementptr inbounds %"struct.std::_Vector_base.6", %"struct.std::_Vector_base.6"* %3, i32 0, i32 0
  %5 = getelementptr inbounds %"struct.std::_Vector_base<double, std::allocator<double> >::_Vector_impl", %"struct.std::_Vector_base<double, std::allocator<double> >::_Vector_impl"* %4, i32 0, i32 0
  %6 = load double*, double** %5, align 8
  %7 = getelementptr inbounds double, double* %6, i64 %1
  ret double* %7
}

; Function Attrs: noinline nounwind uwtable
define linkonce_odr zeroext i1 @_ZNKSt14priority_queueI4EdgeSt6vectorIS0_SaIS0_EESt4lessIS0_EE5emptyEv(%"class.std::priority_queue"* %0) #4 comdat align 2 {
  %2 = getelementptr inbounds %"class.std::priority_queue", %"class.std::priority_queue"* %0, i32 0, i32 0
  %3 = call zeroext i1 @_ZNKSt6vectorI4EdgeSaIS0_EE5emptyEv(%"class.std::vector.0"* %2) #3
  ret i1 %3
}

; Function Attrs: noinline nounwind uwtable
define linkonce_odr dereferenceable(16) %struct.Edge* @_ZNKSt14priority_queueI4EdgeSt6vectorIS0_SaIS0_EESt4lessIS0_EE3topEv(%"class.std::priority_queue"* %0) #4 comdat align 2 {
  %2 = getelementptr inbounds %"class.std::priority_queue", %"class.std::priority_queue"* %0, i32 0, i32 0
  %3 = call dereferenceable(16) %struct.Edge* @_ZNKSt6vectorI4EdgeSaIS0_EE5frontEv(%"class.std::vector.0"* %2) #3
  ret %struct.Edge* %3
}

; Function Attrs: noinline uwtable
define linkonce_odr void @_ZNSt14priority_queueI4EdgeSt6vectorIS0_SaIS0_EESt4lessIS0_EE3popEv(%"class.std::priority_queue"* %0) #0 comdat align 2 {
  %2 = alloca %"class.__gnu_cxx::__normal_iterator", align 8
  %3 = alloca %"class.__gnu_cxx::__normal_iterator", align 8
  %4 = getelementptr inbounds %"class.std::priority_queue", %"class.std::priority_queue"* %0, i32 0, i32 0
  %5 = call %struct.Edge* @_ZNSt6vectorI4EdgeSaIS0_EE5beginEv(%"class.std::vector.0"* %4) #3
  %6 = getelementptr inbounds %"class.__gnu_cxx::__normal_iterator", %"class.__gnu_cxx::__normal_iterator"* %2, i32 0, i32 0
  store %struct.Edge* %5, %struct.Edge** %6, align 8
  %7 = getelementptr inbounds %"class.std::priority_queue", %"class.std::priority_queue"* %0, i32 0, i32 0
  %8 = call %struct.Edge* @_ZNSt6vectorI4EdgeSaIS0_EE3endEv(%"class.std::vector.0"* %7) #3
  %9 = getelementptr inbounds %"class.__gnu_cxx::__normal_iterator", %"class.__gnu_cxx::__normal_iterator"* %3, i32 0, i32 0
  store %struct.Edge* %8, %struct.Edge** %9, align 8
  %10 = getelementptr inbounds %"class.std::priority_queue", %"class.std::priority_queue"* %0, i32 0, i32 1
  %11 = getelementptr inbounds %"class.__gnu_cxx::__normal_iterator", %"class.__gnu_cxx::__normal_iterator"* %2, i32 0, i32 0
  %12 = load %struct.Edge*, %struct.Edge** %11, align 8
  %13 = getelementptr inbounds %"class.__gnu_cxx::__normal_iterator", %"class.__gnu_cxx::__normal_iterator"* %3, i32 0, i32 0
  %14 = load %struct.Edge*, %struct.Edge** %13, align 8
  call void @_ZSt8pop_heapIN9__gnu_cxx17__normal_iteratorIP4EdgeSt6vectorIS2_SaIS2_EEEESt4lessIS2_EEvT_SA_T0_(%struct.Edge* %12, %struct.Edge* %14)
  %15 = getelementptr inbounds %"class.std::priority_queue", %"class.std::priority_queue"* %0, i32 0, i32 0
  call void @_ZNSt6vectorI4EdgeSaIS0_EE8pop_backEv(%"class.std::vector.0"* %15) #3
  ret void
}

; Function Attrs: noinline nounwind uwtable
define linkonce_odr dereferenceable(24) %"class.std::vector.0"* @_ZNSt6vectorIS_I4EdgeSaIS0_EESaIS2_EEixEm(%"class.std::vector"* %0, i64 %1) #4 comdat align 2 {
  %3 = bitcast %"class.std::vector"* %0 to %"struct.std::_Vector_base"*
  %4 = getelementptr inbounds %"struct.std::_Vector_base", %"struct.std::_Vector_base"* %3, i32 0, i32 0
  %5 = getelementptr inbounds %"struct.std::_Vector_base<std::vector<Edge, std::allocator<Edge> >, std::allocator<std::vector<Edge, std::allocator<Edge> > > >::_Vector_impl", %"struct.std::_Vector_base<std::vector<Edge, std::allocator<Edge> >, std::allocator<std::vector<Edge, std::allocator<Edge> > > >::_Vector_impl"* %4, i32 0, i32 0
  %6 = load %"class.std::vector.0"*, %"class.std::vector.0"** %5, align 8
  %7 = getelementptr inbounds %"class.std::vector.0", %"class.std::vector.0"* %6, i64 %1
  ret %"class.std::vector.0"* %7
}

; Function Attrs: noinline nounwind uwtable
define linkonce_odr i64 @_ZNKSt6vectorI4EdgeSaIS0_EE4sizeEv(%"class.std::vector.0"* %0) #4 comdat align 2 {
  %2 = bitcast %"class.std::vector.0"* %0 to %"struct.std::_Vector_base.1"*
  %3 = getelementptr inbounds %"struct.std::_Vector_base.1", %"struct.std::_Vector_base.1"* %2, i32 0, i32 0
  %4 = getelementptr inbounds %"struct.std::_Vector_base<Edge, std::allocator<Edge> >::_Vector_impl", %"struct.std::_Vector_base<Edge, std::allocator<Edge> >::_Vector_impl"* %3, i32 0, i32 1
  %5 = load %struct.Edge*, %struct.Edge** %4, align 8
  %6 = bitcast %"class.std::vector.0"* %0 to %"struct.std::_Vector_base.1"*
  %7 = getelementptr inbounds %"struct.std::_Vector_base.1", %"struct.std::_Vector_base.1"* %6, i32 0, i32 0
  %8 = getelementptr inbounds %"struct.std::_Vector_base<Edge, std::allocator<Edge> >::_Vector_impl", %"struct.std::_Vector_base<Edge, std::allocator<Edge> >::_Vector_impl"* %7, i32 0, i32 0
  %9 = load %struct.Edge*, %struct.Edge** %8, align 8
  %10 = ptrtoint %struct.Edge* %5 to i64
  %11 = ptrtoint %struct.Edge* %9 to i64
  %12 = sub i64 %10, %11
  %13 = sdiv exact i64 %12, 16
  ret i64 %13
}

; Function Attrs: noinline nounwind uwtable
define linkonce_odr dereferenceable(16) %struct.Edge* @_ZNSt6vectorI4EdgeSaIS0_EEixEm(%"class.std::vector.0"* %0, i64 %1) #4 comdat align 2 {
  %3 = bitcast %"class.std::vector.0"* %0 to %"struct.std::_Vector_base.1"*
  %4 = getelementptr inbounds %"struct.std::_Vector_base.1", %"struct.std::_Vector_base.1"* %3, i32 0, i32 0
  %5 = getelementptr inbounds %"struct.std::_Vector_base<Edge, std::allocator<Edge> >::_Vector_impl", %"struct.std::_Vector_base<Edge, std::allocator<Edge> >::_Vector_impl"* %4, i32 0, i32 0
  %6 = load %struct.Edge*, %struct.Edge** %5, align 8
  %7 = getelementptr inbounds %struct.Edge, %struct.Edge* %6, i64 %1
  ret %struct.Edge* %7
}

; Function Attrs: noinline nounwind uwtable
define linkonce_odr void @_ZNSt14priority_queueI4EdgeSt6vectorIS0_SaIS0_EESt4lessIS0_EED2Ev(%"class.std::priority_queue"* %0) unnamed_addr #4 comdat align 2 {
  %2 = getelementptr inbounds %"class.std::priority_queue", %"class.std::priority_queue"* %0, i32 0, i32 0
  call void @_ZNSt6vectorI4EdgeSaIS0_EED2Ev(%"class.std::vector.0"* %2) #3
  ret void
}

; Function Attrs: noinline nounwind uwtable
define linkonce_odr void @_ZNSt6vectorIdSaIdEED2Ev(%"class.std::vector.5"* %0) unnamed_addr #4 comdat align 2 personality i8* bitcast (i32 (...)* @__gxx_personality_v0 to i8*) {
  %2 = bitcast %"class.std::vector.5"* %0 to %"struct.std::_Vector_base.6"*
  %3 = getelementptr inbounds %"struct.std::_Vector_base.6", %"struct.std::_Vector_base.6"* %2, i32 0, i32 0
  %4 = getelementptr inbounds %"struct.std::_Vector_base<double, std::allocator<double> >::_Vector_impl", %"struct.std::_Vector_base<double, std::allocator<double> >::_Vector_impl"* %3, i32 0, i32 0
  %5 = load double*, double** %4, align 8
  %6 = bitcast %"class.std::vector.5"* %0 to %"struct.std::_Vector_base.6"*
  %7 = getelementptr inbounds %"struct.std::_Vector_base.6", %"struct.std::_Vector_base.6"* %6, i32 0, i32 0
  %8 = getelementptr inbounds %"struct.std::_Vector_base<double, std::allocator<double> >::_Vector_impl", %"struct.std::_Vector_base<double, std::allocator<double> >::_Vector_impl"* %7, i32 0, i32 1
  %9 = load double*, double** %8, align 8
  %10 = bitcast %"class.std::vector.5"* %0 to %"struct.std::_Vector_base.6"*
  %11 = call dereferenceable(1) %"class.std::allocator.7"* @_ZNSt12_Vector_baseIdSaIdEE19_M_get_Tp_allocatorEv(%"struct.std::_Vector_base.6"* %10) #3
  invoke void @_ZSt8_DestroyIPddEvT_S1_RSaIT0_E(double* %5, double* %9, %"class.std::allocator.7"* dereferenceable(1) %11)
          to label %12 unwind label %14

12:                                               ; preds = %1
  %13 = bitcast %"class.std::vector.5"* %0 to %"struct.std::_Vector_base.6"*
  call void @_ZNSt12_Vector_baseIdSaIdEED2Ev(%"struct.std::_Vector_base.6"* %13) #3
  ret void

14:                                               ; preds = %1
  %15 = landingpad { i8*, i32 }
          catch i8* null
  %16 = extractvalue { i8*, i32 } %15, 0
  %17 = extractvalue { i8*, i32 } %15, 1
  %18 = bitcast %"class.std::vector.5"* %0 to %"struct.std::_Vector_base.6"*
  call void @_ZNSt12_Vector_baseIdSaIdEED2Ev(%"struct.std::_Vector_base.6"* %18) #3
  br label %19

19:                                               ; preds = %14
  call void @__clang_call_terminate(i8* %16) #13
  unreachable
}

; Function Attrs: noinline norecurse uwtable
define i32 @main() #5 personality i8* bitcast (i32 (...)* @__gxx_personality_v0 to i8*) {
  %1 = alloca i32, align 4
  %2 = alloca i32, align 4
  %3 = alloca i32, align 4
  %4 = alloca i32, align 4
  %5 = alloca i32, align 4
  %6 = alloca i32, align 4
  %7 = alloca i32, align 4
  %8 = alloca i32, align 4
  %9 = alloca i32, align 4
  %10 = alloca %"class.std::vector.10", align 8
  %11 = alloca %struct.L, align 8
  %12 = alloca %"struct.std::complex", align 8
  %13 = alloca %"struct.std::complex", align 8
  %14 = alloca %"class.std::vector", align 8
  %15 = alloca %"class.std::allocator", align 1
  %16 = alloca %"struct.std::complex", align 8
  %17 = alloca %"struct.std::complex", align 8
  %18 = alloca %"struct.std::complex", align 8
  %19 = alloca %"struct.std::complex", align 8
  %20 = alloca %"struct.std::complex", align 8
  %21 = alloca %"struct.std::complex", align 8
  %22 = alloca %"struct.std::complex", align 8
  %23 = alloca %"struct.std::complex", align 8
  %24 = alloca %"struct.std::complex", align 8
  %25 = alloca %struct.Edge, align 8
  %26 = alloca %struct.Edge, align 8
  %27 = alloca %"struct.std::complex", align 8
  %28 = alloca %"struct.std::complex", align 8
  %29 = alloca %"struct.std::complex", align 8
  %30 = alloca %"struct.std::complex", align 8
  br label %31

31:                                               ; preds = %324, %0
  %.05 = phi i32 [ undef, %0 ], [ %.16, %324 ]
  %.0 = phi i32 [ undef, %0 ], [ %.1, %324 ]
  %32 = call dereferenceable(280) %"class.std::basic_istream"* @_ZNSirsERi(%"class.std::basic_istream"* @_ZSt3cin, i32* dereferenceable(4) %1)
  %33 = load i32, i32* %1, align 4
  %34 = icmp ne i32 %33, 0
  br i1 %34, label %35, label %326

35:                                               ; preds = %31
  call void @_ZNSt6vectorI1LSaIS0_EEC2Ev(%"class.std::vector.10"* %10) #3
  br label %36

36:                                               ; preds = %70, %35
  %.01 = phi i32 [ 0, %35 ], [ %71, %70 ]
  %37 = load i32, i32* %1, align 4
  %38 = icmp slt i32 %.01, %37
  br i1 %38, label %39, label %76

39:                                               ; preds = %36
  %40 = invoke dereferenceable(280) %"class.std::basic_istream"* @_ZNSirsERi(%"class.std::basic_istream"* @_ZSt3cin, i32* dereferenceable(4) %2)
          to label %41 unwind label %72

41:                                               ; preds = %39
  %42 = invoke dereferenceable(280) %"class.std::basic_istream"* @_ZNSirsERi(%"class.std::basic_istream"* %40, i32* dereferenceable(4) %4)
          to label %43 unwind label %72

43:                                               ; preds = %41
  %44 = invoke dereferenceable(280) %"class.std::basic_istream"* @_ZNSirsERi(%"class.std::basic_istream"* %42, i32* dereferenceable(4) %3)
          to label %45 unwind label %72

45:                                               ; preds = %43
  %46 = invoke dereferenceable(280) %"class.std::basic_istream"* @_ZNSirsERi(%"class.std::basic_istream"* %44, i32* dereferenceable(4) %5)
          to label %47 unwind label %72

47:                                               ; preds = %45
  %48 = load i32, i32* %2, align 4
  %49 = sitofp i32 %48 to double
  %50 = load i32, i32* %4, align 4
  %51 = sitofp i32 %50 to double
  invoke void @_ZNSt7complexIdEC2Edd(%"struct.std::complex"* %12, double %49, double %51)
          to label %52 unwind label %72

52:                                               ; preds = %47
  %53 = load i32, i32* %3, align 4
  %54 = sitofp i32 %53 to double
  %55 = load i32, i32* %5, align 4
  %56 = sitofp i32 %55 to double
  invoke void @_ZNSt7complexIdEC2Edd(%"struct.std::complex"* %13, double %54, double %56)
          to label %57 unwind label %72

57:                                               ; preds = %52
  %58 = bitcast %"struct.std::complex"* %12 to { double, double }*
  %59 = getelementptr inbounds { double, double }, { double, double }* %58, i32 0, i32 0
  %60 = load double, double* %59, align 8
  %61 = getelementptr inbounds { double, double }, { double, double }* %58, i32 0, i32 1
  %62 = load double, double* %61, align 8
  %63 = bitcast %"struct.std::complex"* %13 to { double, double }*
  %64 = getelementptr inbounds { double, double }, { double, double }* %63, i32 0, i32 0
  %65 = load double, double* %64, align 8
  %66 = getelementptr inbounds { double, double }, { double, double }* %63, i32 0, i32 1
  %67 = load double, double* %66, align 8
  invoke void @_ZN1LC2ESt7complexIdES1_(%struct.L* %11, double %60, double %62, double %65, double %67)
          to label %68 unwind label %72

68:                                               ; preds = %57
  invoke void @_ZNSt6vectorI1LSaIS0_EE9push_backEOS0_(%"class.std::vector.10"* %10, %struct.L* dereferenceable(32) %11)
          to label %69 unwind label %72

69:                                               ; preds = %68
  br label %70

70:                                               ; preds = %69
  %71 = add nsw i32 %.01, 1
  br label %36

72:                                               ; preds = %82, %80, %78, %76, %68, %57, %52, %47, %45, %43, %41, %39
  %73 = landingpad { i8*, i32 }
          cleanup
  %74 = extractvalue { i8*, i32 } %73, 0
  %75 = extractvalue { i8*, i32 } %73, 1
  br label %325

76:                                               ; preds = %36
  %77 = invoke dereferenceable(280) %"class.std::basic_istream"* @_ZNSirsERi(%"class.std::basic_istream"* @_ZSt3cin, i32* dereferenceable(4) %6)
          to label %78 unwind label %72

78:                                               ; preds = %76
  %79 = invoke dereferenceable(280) %"class.std::basic_istream"* @_ZNSirsERi(%"class.std::basic_istream"* %77, i32* dereferenceable(4) %7)
          to label %80 unwind label %72

80:                                               ; preds = %78
  %81 = invoke dereferenceable(280) %"class.std::basic_istream"* @_ZNSirsERi(%"class.std::basic_istream"* %79, i32* dereferenceable(4) %8)
          to label %82 unwind label %72

82:                                               ; preds = %80
  %83 = invoke dereferenceable(280) %"class.std::basic_istream"* @_ZNSirsERi(%"class.std::basic_istream"* %81, i32* dereferenceable(4) %9)
          to label %84 unwind label %72

84:                                               ; preds = %82
  %85 = load i32, i32* %1, align 4
  %86 = sext i32 %85 to i64
  call void @_ZNSaISt6vectorI4EdgeSaIS0_EEEC2Ev(%"class.std::allocator"* %15) #3
  invoke void @_ZNSt6vectorIS_I4EdgeSaIS0_EESaIS2_EEC2EmRKS3_(%"class.std::vector"* %14, i64 %86, %"class.std::allocator"* dereferenceable(1) %15)
          to label %87 unwind label %179

87:                                               ; preds = %84
  call void @_ZNSaISt6vectorI4EdgeSaIS0_EEED2Ev(%"class.std::allocator"* %15) #3
  br label %88

88:                                               ; preds = %255, %87
  %.12 = phi i32 [ 0, %87 ], [ %256, %255 ]
  %89 = load i32, i32* %1, align 4
  %90 = icmp slt i32 %.12, %89
  br i1 %90, label %91, label %257

91:                                               ; preds = %88
  %92 = add nsw i32 %.12, 1
  br label %93

93:                                               ; preds = %252, %91
  %.04 = phi i32 [ %92, %91 ], [ %253, %252 ]
  %94 = load i32, i32* %1, align 4
  %95 = icmp slt i32 %.04, %94
  br i1 %95, label %96, label %254

96:                                               ; preds = %93
  %97 = sext i32 %.12 to i64
  %98 = call dereferenceable(32) %struct.L* @_ZNSt6vectorI1LSaIS0_EEixEm(%"class.std::vector.10"* %10, i64 %97) #3
  %99 = sext i32 %.04 to i64
  %100 = call dereferenceable(32) %struct.L* @_ZNSt6vectorI1LSaIS0_EEixEm(%"class.std::vector.10"* %10, i64 %99) #3
  %101 = invoke zeroext i1 @_Z11intersectSSRK1LS1_(%struct.L* dereferenceable(32) %98, %struct.L* dereferenceable(32) %100)
          to label %102 unwind label %183

102:                                              ; preds = %96
  br i1 %101, label %103, label %251

103:                                              ; preds = %102
  %104 = sext i32 %.12 to i64
  %105 = call dereferenceable(32) %struct.L* @_ZNSt6vectorI1LSaIS0_EEixEm(%"class.std::vector.10"* %10, i64 %104) #3
  %106 = getelementptr inbounds %struct.L, %struct.L* %105, i32 0, i32 0
  %107 = bitcast %"struct.std::complex"* %17 to i8*
  %108 = bitcast %"struct.std::complex"* %106 to i8*
  call void @llvm.memcpy.p0i8.p0i8.i64(i8* align 8 %107, i8* align 8 %108, i64 16, i1 false)
  %109 = sext i32 %.12 to i64
  %110 = call dereferenceable(32) %struct.L* @_ZNSt6vectorI1LSaIS0_EEixEm(%"class.std::vector.10"* %10, i64 %109) #3
  %111 = getelementptr inbounds %struct.L, %struct.L* %110, i32 0, i32 1
  %112 = bitcast %"struct.std::complex"* %18 to i8*
  %113 = bitcast %"struct.std::complex"* %111 to i8*
  call void @llvm.memcpy.p0i8.p0i8.i64(i8* align 8 %112, i8* align 8 %113, i64 16, i1 false)
  %114 = sext i32 %.04 to i64
  %115 = call dereferenceable(32) %struct.L* @_ZNSt6vectorI1LSaIS0_EEixEm(%"class.std::vector.10"* %10, i64 %114) #3
  %116 = getelementptr inbounds %struct.L, %struct.L* %115, i32 0, i32 0
  %117 = bitcast %"struct.std::complex"* %19 to i8*
  %118 = bitcast %"struct.std::complex"* %116 to i8*
  call void @llvm.memcpy.p0i8.p0i8.i64(i8* align 8 %117, i8* align 8 %118, i64 16, i1 false)
  %119 = sext i32 %.04 to i64
  %120 = call dereferenceable(32) %struct.L* @_ZNSt6vectorI1LSaIS0_EEixEm(%"class.std::vector.10"* %10, i64 %119) #3
  %121 = getelementptr inbounds %struct.L, %struct.L* %120, i32 0, i32 1
  %122 = bitcast %"struct.std::complex"* %20 to i8*
  %123 = bitcast %"struct.std::complex"* %121 to i8*
  call void @llvm.memcpy.p0i8.p0i8.i64(i8* align 8 %122, i8* align 8 %123, i64 16, i1 false)
  %124 = bitcast %"struct.std::complex"* %17 to { double, double }*
  %125 = getelementptr inbounds { double, double }, { double, double }* %124, i32 0, i32 0
  %126 = load double, double* %125, align 8
  %127 = getelementptr inbounds { double, double }, { double, double }* %124, i32 0, i32 1
  %128 = load double, double* %127, align 8
  %129 = bitcast %"struct.std::complex"* %18 to { double, double }*
  %130 = getelementptr inbounds { double, double }, { double, double }* %129, i32 0, i32 0
  %131 = load double, double* %130, align 8
  %132 = getelementptr inbounds { double, double }, { double, double }* %129, i32 0, i32 1
  %133 = load double, double* %132, align 8
  %134 = bitcast %"struct.std::complex"* %19 to { double, double }*
  %135 = getelementptr inbounds { double, double }, { double, double }* %134, i32 0, i32 0
  %136 = load double, double* %135, align 8
  %137 = getelementptr inbounds { double, double }, { double, double }* %134, i32 0, i32 1
  %138 = load double, double* %137, align 8
  %139 = bitcast %"struct.std::complex"* %20 to { double, double }*
  %140 = getelementptr inbounds { double, double }, { double, double }* %139, i32 0, i32 0
  %141 = load double, double* %140, align 8
  %142 = getelementptr inbounds { double, double }, { double, double }* %139, i32 0, i32 1
  %143 = load double, double* %142, align 8
  %144 = invoke { double, double } @_Z15intersection_lsSt7complexIdES0_S0_S0_(double %126, double %128, double %131, double %133, double %136, double %138, double %141, double %143)
          to label %145 unwind label %183

145:                                              ; preds = %103
  %146 = getelementptr inbounds %"struct.std::complex", %"struct.std::complex"* %16, i32 0, i32 0
  %147 = getelementptr inbounds { double, double }, { double, double }* %146, i32 0, i32 0
  %148 = extractvalue { double, double } %144, 0
  store double %148, double* %147, align 8
  %149 = getelementptr inbounds { double, double }, { double, double }* %146, i32 0, i32 1
  %150 = extractvalue { double, double } %144, 1
  store double %150, double* %149, align 8
  %151 = sext i32 %.12 to i64
  %152 = call dereferenceable(32) %struct.L* @_ZNSt6vectorI1LSaIS0_EEixEm(%"class.std::vector.10"* %10, i64 %151) #3
  %153 = getelementptr inbounds %struct.L, %struct.L* %152, i32 0, i32 0
  %154 = invoke { double, double } @_ZStmiIdESt7complexIT_ERKS2_S4_(%"struct.std::complex"* dereferenceable(16) %153, %"struct.std::complex"* dereferenceable(16) %16)
          to label %155 unwind label %183

155:                                              ; preds = %145
  %156 = getelementptr inbounds %"struct.std::complex", %"struct.std::complex"* %21, i32 0, i32 0
  %157 = getelementptr inbounds { double, double }, { double, double }* %156, i32 0, i32 0
  %158 = extractvalue { double, double } %154, 0
  store double %158, double* %157, align 8
  %159 = getelementptr inbounds { double, double }, { double, double }* %156, i32 0, i32 1
  %160 = extractvalue { double, double } %154, 1
  store double %160, double* %159, align 8
  %161 = sext i32 %.12 to i64
  %162 = call dereferenceable(32) %struct.L* @_ZNSt6vectorI1LSaIS0_EEixEm(%"class.std::vector.10"* %10, i64 %161) #3
  %163 = getelementptr inbounds %struct.L, %struct.L* %162, i32 0, i32 0
  %164 = invoke zeroext i1 @_ZSteqIdEbRKSt7complexIT_ES4_(%"struct.std::complex"* dereferenceable(16) %16, %"struct.std::complex"* dereferenceable(16) %163)
          to label %165 unwind label %183

165:                                              ; preds = %155
  br i1 %164, label %166, label %187

166:                                              ; preds = %165
  %167 = sext i32 %.12 to i64
  %168 = call dereferenceable(32) %struct.L* @_ZNSt6vectorI1LSaIS0_EEixEm(%"class.std::vector.10"* %10, i64 %167) #3
  %169 = getelementptr inbounds %struct.L, %struct.L* %168, i32 0, i32 1
  %170 = invoke { double, double } @_ZStmiIdESt7complexIT_ERKS2_S4_(%"struct.std::complex"* dereferenceable(16) %169, %"struct.std::complex"* dereferenceable(16) %16)
          to label %171 unwind label %183

171:                                              ; preds = %166
  %172 = getelementptr inbounds %"struct.std::complex", %"struct.std::complex"* %22, i32 0, i32 0
  %173 = getelementptr inbounds { double, double }, { double, double }* %172, i32 0, i32 0
  %174 = extractvalue { double, double } %170, 0
  store double %174, double* %173, align 8
  %175 = getelementptr inbounds { double, double }, { double, double }* %172, i32 0, i32 1
  %176 = extractvalue { double, double } %170, 1
  store double %176, double* %175, align 8
  %177 = bitcast %"struct.std::complex"* %21 to i8*
  %178 = bitcast %"struct.std::complex"* %22 to i8*
  call void @llvm.memcpy.p0i8.p0i8.i64(i8* align 8 %177, i8* align 8 %178, i64 16, i1 false)
  br label %187

179:                                              ; preds = %84
  %180 = landingpad { i8*, i32 }
          cleanup
  %181 = extractvalue { i8*, i32 } %180, 0
  %182 = extractvalue { i8*, i32 } %180, 1
  call void @_ZNSaISt6vectorI4EdgeSaIS0_EEED2Ev(%"class.std::allocator"* %15) #3
  br label %325

183:                                              ; preds = %321, %318, %314, %305, %297, %294, %286, %280, %272, %269, %261, %249, %246, %245, %239, %232, %220, %218, %216, %203, %192, %187, %166, %155, %145, %103, %96
  %184 = landingpad { i8*, i32 }
          cleanup
  %185 = extractvalue { i8*, i32 } %184, 0
  %186 = extractvalue { i8*, i32 } %184, 1
  call void @_ZNSt6vectorIS_I4EdgeSaIS0_EESaIS2_EED2Ev(%"class.std::vector"* %14) #3
  br label %325

187:                                              ; preds = %171, %165
  %188 = sext i32 %.04 to i64
  %189 = call dereferenceable(32) %struct.L* @_ZNSt6vectorI1LSaIS0_EEixEm(%"class.std::vector.10"* %10, i64 %188) #3
  %190 = getelementptr inbounds %struct.L, %struct.L* %189, i32 0, i32 0
  %191 = invoke { double, double } @_ZStmiIdESt7complexIT_ERKS2_S4_(%"struct.std::complex"* dereferenceable(16) %190, %"struct.std::complex"* dereferenceable(16) %16)
          to label %192 unwind label %183

192:                                              ; preds = %187
  %193 = getelementptr inbounds %"struct.std::complex", %"struct.std::complex"* %23, i32 0, i32 0
  %194 = getelementptr inbounds { double, double }, { double, double }* %193, i32 0, i32 0
  %195 = extractvalue { double, double } %191, 0
  store double %195, double* %194, align 8
  %196 = getelementptr inbounds { double, double }, { double, double }* %193, i32 0, i32 1
  %197 = extractvalue { double, double } %191, 1
  store double %197, double* %196, align 8
  %198 = sext i32 %.04 to i64
  %199 = call dereferenceable(32) %struct.L* @_ZNSt6vectorI1LSaIS0_EEixEm(%"class.std::vector.10"* %10, i64 %198) #3
  %200 = getelementptr inbounds %struct.L, %struct.L* %199, i32 0, i32 0
  %201 = invoke zeroext i1 @_ZSteqIdEbRKSt7complexIT_ES4_(%"struct.std::complex"* dereferenceable(16) %16, %"struct.std::complex"* dereferenceable(16) %200)
          to label %202 unwind label %183

202:                                              ; preds = %192
  br i1 %201, label %203, label %216

203:                                              ; preds = %202
  %204 = sext i32 %.04 to i64
  %205 = call dereferenceable(32) %struct.L* @_ZNSt6vectorI1LSaIS0_EEixEm(%"class.std::vector.10"* %10, i64 %204) #3
  %206 = getelementptr inbounds %struct.L, %struct.L* %205, i32 0, i32 1
  %207 = invoke { double, double } @_ZStmiIdESt7complexIT_ERKS2_S4_(%"struct.std::complex"* dereferenceable(16) %206, %"struct.std::complex"* dereferenceable(16) %16)
          to label %208 unwind label %183

208:                                              ; preds = %203
  %209 = getelementptr inbounds %"struct.std::complex", %"struct.std::complex"* %24, i32 0, i32 0
  %210 = getelementptr inbounds { double, double }, { double, double }* %209, i32 0, i32 0
  %211 = extractvalue { double, double } %207, 0
  store double %211, double* %210, align 8
  %212 = getelementptr inbounds { double, double }, { double, double }* %209, i32 0, i32 1
  %213 = extractvalue { double, double } %207, 1
  store double %213, double* %212, align 8
  %214 = bitcast %"struct.std::complex"* %23 to i8*
  %215 = bitcast %"struct.std::complex"* %24 to i8*
  call void @llvm.memcpy.p0i8.p0i8.i64(i8* align 8 %214, i8* align 8 %215, i64 16, i1 false)
  br label %216

216:                                              ; preds = %208, %202
  %217 = invoke double @_Z3dotRKSt7complexIdES2_(%"struct.std::complex"* dereferenceable(16) %21, %"struct.std::complex"* dereferenceable(16) %23)
          to label %218 unwind label %183

218:                                              ; preds = %216
  %219 = invoke double @_ZSt3absIdET_RKSt7complexIS0_E(%"struct.std::complex"* dereferenceable(16) %21)
          to label %220 unwind label %183

220:                                              ; preds = %218
  %221 = invoke double @_ZSt3absIdET_RKSt7complexIS0_E(%"struct.std::complex"* dereferenceable(16) %23)
          to label %222 unwind label %183

222:                                              ; preds = %220
  %223 = fmul double %219, %221
  %224 = fdiv double %217, %223
  %225 = call double @acos(double %224) #3
  %226 = load double, double* @_ZL2PI, align 8
  %227 = fdiv double %226, 2.000000e+00
  %228 = fcmp ogt double %225, %227
  br i1 %228, label %229, label %232

229:                                              ; preds = %222
  %230 = load double, double* @_ZL2PI, align 8
  %231 = fsub double %230, %225
  br label %232

232:                                              ; preds = %229, %222
  %.010 = phi double [ %231, %229 ], [ %225, %222 ]
  %233 = invoke double @_ZSt3absd(double %224)
          to label %234 unwind label %183

234:                                              ; preds = %232
  %235 = fcmp olt double %233, 1.000000e-08
  br i1 %235, label %236, label %239

236:                                              ; preds = %234
  %237 = load double, double* @_ZL2PI, align 8
  %238 = fdiv double %237, 2.000000e+00
  br label %239

239:                                              ; preds = %236, %234
  %.111 = phi double [ %238, %236 ], [ %.010, %234 ]
  %240 = load double, double* @_ZL2PI, align 8
  %241 = fdiv double 1.800000e+02, %240
  %242 = fmul double %.111, %241
  %243 = sext i32 %.12 to i64
  %244 = call dereferenceable(24) %"class.std::vector.0"* @_ZNSt6vectorIS_I4EdgeSaIS0_EESaIS2_EEixEm(%"class.std::vector"* %14, i64 %243) #3
  invoke void @_ZN4EdgeC2Eiid(%struct.Edge* %25, i32 %.12, i32 %.04, double %242)
          to label %245 unwind label %183

245:                                              ; preds = %239
  invoke void @_ZNSt6vectorI4EdgeSaIS0_EE9push_backEOS0_(%"class.std::vector.0"* %244, %struct.Edge* dereferenceable(16) %25)
          to label %246 unwind label %183

246:                                              ; preds = %245
  %247 = sext i32 %.04 to i64
  %248 = call dereferenceable(24) %"class.std::vector.0"* @_ZNSt6vectorIS_I4EdgeSaIS0_EESaIS2_EEixEm(%"class.std::vector"* %14, i64 %247) #3
  invoke void @_ZN4EdgeC2Eiid(%struct.Edge* %26, i32 %.04, i32 %.12, double %242)
          to label %249 unwind label %183

249:                                              ; preds = %246
  invoke void @_ZNSt6vectorI4EdgeSaIS0_EE9push_backEOS0_(%"class.std::vector.0"* %248, %struct.Edge* dereferenceable(16) %26)
          to label %250 unwind label %183

250:                                              ; preds = %249
  br label %251

251:                                              ; preds = %250, %102
  br label %252

252:                                              ; preds = %251
  %253 = add nsw i32 %.04, 1
  br label %93

254:                                              ; preds = %93
  br label %255

255:                                              ; preds = %254
  %256 = add nsw i32 %.12, 1
  br label %88

257:                                              ; preds = %88
  br label %258

258:                                              ; preds = %312, %257
  %.16 = phi i32 [ %.05, %257 ], [ %.27, %312 ]
  %.23 = phi i32 [ 0, %257 ], [ %313, %312 ]
  %.1 = phi i32 [ %.0, %257 ], [ %.2, %312 ]
  %259 = load i32, i32* %1, align 4
  %260 = icmp slt i32 %.23, %259
  br i1 %260, label %261, label %314

261:                                              ; preds = %258
  %262 = sext i32 %.23 to i64
  %263 = call dereferenceable(32) %struct.L* @_ZNSt6vectorI1LSaIS0_EEixEm(%"class.std::vector.10"* %10, i64 %262) #3
  %264 = getelementptr inbounds %struct.L, %struct.L* %263, i32 0, i32 0
  %265 = load i32, i32* %6, align 4
  %266 = sitofp i32 %265 to double
  %267 = load i32, i32* %7, align 4
  %268 = sitofp i32 %267 to double
  invoke void @_ZNSt7complexIdEC2Edd(%"struct.std::complex"* %27, double %266, double %268)
          to label %269 unwind label %183

269:                                              ; preds = %261
  %270 = invoke zeroext i1 @_ZSteqIdEbRKSt7complexIT_ES4_(%"struct.std::complex"* dereferenceable(16) %264, %"struct.std::complex"* dereferenceable(16) %27)
          to label %271 unwind label %183

271:                                              ; preds = %269
  br i1 %270, label %283, label %272

272:                                              ; preds = %271
  %273 = sext i32 %.23 to i64
  %274 = call dereferenceable(32) %struct.L* @_ZNSt6vectorI1LSaIS0_EEixEm(%"class.std::vector.10"* %10, i64 %273) #3
  %275 = getelementptr inbounds %struct.L, %struct.L* %274, i32 0, i32 1
  %276 = load i32, i32* %6, align 4
  %277 = sitofp i32 %276 to double
  %278 = load i32, i32* %7, align 4
  %279 = sitofp i32 %278 to double
  invoke void @_ZNSt7complexIdEC2Edd(%"struct.std::complex"* %28, double %277, double %279)
          to label %280 unwind label %183

280:                                              ; preds = %272
  %281 = invoke zeroext i1 @_ZSteqIdEbRKSt7complexIT_ES4_(%"struct.std::complex"* dereferenceable(16) %275, %"struct.std::complex"* dereferenceable(16) %28)
          to label %282 unwind label %183

282:                                              ; preds = %280
  br label %283

283:                                              ; preds = %282, %271
  %284 = phi i1 [ true, %271 ], [ %281, %282 ]
  br i1 %284, label %285, label %286

285:                                              ; preds = %283
  br label %286

286:                                              ; preds = %285, %283
  %.27 = phi i32 [ %.23, %285 ], [ %.16, %283 ]
  %287 = sext i32 %.23 to i64
  %288 = call dereferenceable(32) %struct.L* @_ZNSt6vectorI1LSaIS0_EEixEm(%"class.std::vector.10"* %10, i64 %287) #3
  %289 = getelementptr inbounds %struct.L, %struct.L* %288, i32 0, i32 0
  %290 = load i32, i32* %8, align 4
  %291 = sitofp i32 %290 to double
  %292 = load i32, i32* %9, align 4
  %293 = sitofp i32 %292 to double
  invoke void @_ZNSt7complexIdEC2Edd(%"struct.std::complex"* %29, double %291, double %293)
          to label %294 unwind label %183

294:                                              ; preds = %286
  %295 = invoke zeroext i1 @_ZSteqIdEbRKSt7complexIT_ES4_(%"struct.std::complex"* dereferenceable(16) %289, %"struct.std::complex"* dereferenceable(16) %29)
          to label %296 unwind label %183

296:                                              ; preds = %294
  br i1 %295, label %308, label %297

297:                                              ; preds = %296
  %298 = sext i32 %.23 to i64
  %299 = call dereferenceable(32) %struct.L* @_ZNSt6vectorI1LSaIS0_EEixEm(%"class.std::vector.10"* %10, i64 %298) #3
  %300 = getelementptr inbounds %struct.L, %struct.L* %299, i32 0, i32 1
  %301 = load i32, i32* %8, align 4
  %302 = sitofp i32 %301 to double
  %303 = load i32, i32* %9, align 4
  %304 = sitofp i32 %303 to double
  invoke void @_ZNSt7complexIdEC2Edd(%"struct.std::complex"* %30, double %302, double %304)
          to label %305 unwind label %183

305:                                              ; preds = %297
  %306 = invoke zeroext i1 @_ZSteqIdEbRKSt7complexIT_ES4_(%"struct.std::complex"* dereferenceable(16) %300, %"struct.std::complex"* dereferenceable(16) %30)
          to label %307 unwind label %183

307:                                              ; preds = %305
  br label %308

308:                                              ; preds = %307, %296
  %309 = phi i1 [ true, %296 ], [ %306, %307 ]
  br i1 %309, label %310, label %311

310:                                              ; preds = %308
  br label %311

311:                                              ; preds = %310, %308
  %.2 = phi i32 [ %.23, %310 ], [ %.1, %308 ]
  br label %312

312:                                              ; preds = %311
  %313 = add nsw i32 %.23, 1
  br label %258

314:                                              ; preds = %258
  %315 = invoke double @_Z8dijkstraRSt6vectorIS_I4EdgeSaIS0_EESaIS2_EEii(%"class.std::vector"* dereferenceable(24) %14, i32 %.16, i32 %.1)
          to label %316 unwind label %183

316:                                              ; preds = %314
  %317 = fcmp oeq double %315, 1.000000e+12
  br i1 %317, label %318, label %321

318:                                              ; preds = %316
  %319 = invoke i32 (i8*, ...) @printf(i8* getelementptr inbounds ([4 x i8], [4 x i8]* @.str, i32 0, i32 0))
          to label %320 unwind label %183

320:                                              ; preds = %318
  br label %324

321:                                              ; preds = %316
  %322 = invoke i32 (i8*, ...) @printf(i8* getelementptr inbounds ([6 x i8], [6 x i8]* @.str.2, i32 0, i32 0), double %315)
          to label %323 unwind label %183

323:                                              ; preds = %321
  br label %324

324:                                              ; preds = %323, %320
  call void @_ZNSt6vectorIS_I4EdgeSaIS0_EESaIS2_EED2Ev(%"class.std::vector"* %14) #3
  call void @_ZNSt6vectorI1LSaIS0_EED2Ev(%"class.std::vector.10"* %10) #3
  br label %31

325:                                              ; preds = %183, %179, %72
  %.09 = phi i32 [ %75, %72 ], [ %186, %183 ], [ %182, %179 ]
  %.08 = phi i8* [ %74, %72 ], [ %185, %183 ], [ %181, %179 ]
  call void @_ZNSt6vectorI1LSaIS0_EED2Ev(%"class.std::vector.10"* %10) #3
  br label %327

326:                                              ; preds = %31
  ret i32 0

327:                                              ; preds = %325
  %328 = insertvalue { i8*, i32 } undef, i8* %.08, 0
  %329 = insertvalue { i8*, i32 } %328, i32 %.09, 1
  resume { i8*, i32 } %329
}

declare dereferenceable(280) %"class.std::basic_istream"* @_ZNSirsERi(%"class.std::basic_istream"*, i32* dereferenceable(4)) #1

; Function Attrs: noinline nounwind uwtable
define linkonce_odr void @_ZNSt6vectorI1LSaIS0_EEC2Ev(%"class.std::vector.10"* %0) unnamed_addr #4 comdat align 2 personality i8* bitcast (i32 (...)* @__gxx_personality_v0 to i8*) {
  %2 = bitcast %"class.std::vector.10"* %0 to %"struct.std::_Vector_base.11"*
  invoke void @_ZNSt12_Vector_baseI1LSaIS0_EEC2Ev(%"struct.std::_Vector_base.11"* %2)
          to label %3 unwind label %4

3:                                                ; preds = %1
  ret void

4:                                                ; preds = %1
  %5 = landingpad { i8*, i32 }
          catch i8* null
  %6 = extractvalue { i8*, i32 } %5, 0
  call void @__clang_call_terminate(i8* %6) #13
  unreachable
}

; Function Attrs: noinline uwtable
define linkonce_odr void @_ZNSt6vectorI1LSaIS0_EE9push_backEOS0_(%"class.std::vector.10"* %0, %struct.L* dereferenceable(32) %1) #0 comdat align 2 {
  %3 = call dereferenceable(32) %struct.L* @_ZSt4moveIR1LEONSt16remove_referenceIT_E4typeEOS3_(%struct.L* dereferenceable(32) %1) #3
  call void @_ZNSt6vectorI1LSaIS0_EE12emplace_backIJS0_EEEvDpOT_(%"class.std::vector.10"* %0, %struct.L* dereferenceable(32) %3)
  ret void
}

; Function Attrs: noinline nounwind uwtable
define linkonce_odr void @_ZNSt7complexIdEC2Edd(%"struct.std::complex"* %0, double %1, double %2) unnamed_addr #4 comdat align 2 {
  %4 = getelementptr inbounds %"struct.std::complex", %"struct.std::complex"* %0, i32 0, i32 0
  %5 = getelementptr inbounds { double, double }, { double, double }* %4, i32 0, i32 0
  %6 = getelementptr inbounds { double, double }, { double, double }* %4, i32 0, i32 1
  store double %1, double* %5, align 8
  store double %2, double* %6, align 8
  ret void
}

; Function Attrs: noinline nounwind uwtable
define linkonce_odr void @_ZN1LC2ESt7complexIdES1_(%struct.L* %0, double %1, double %2, double %3, double %4) unnamed_addr #4 comdat align 2 {
  %6 = alloca %"struct.std::complex", align 8
  %7 = alloca %"struct.std::complex", align 8
  %8 = bitcast %"struct.std::complex"* %6 to { double, double }*
  %9 = getelementptr inbounds { double, double }, { double, double }* %8, i32 0, i32 0
  store double %1, double* %9, align 8
  %10 = getelementptr inbounds { double, double }, { double, double }* %8, i32 0, i32 1
  store double %2, double* %10, align 8
  %11 = bitcast %"struct.std::complex"* %7 to { double, double }*
  %12 = getelementptr inbounds { double, double }, { double, double }* %11, i32 0, i32 0
  store double %3, double* %12, align 8
  %13 = getelementptr inbounds { double, double }, { double, double }* %11, i32 0, i32 1
  store double %4, double* %13, align 8
  %14 = getelementptr inbounds %struct.L, %struct.L* %0, i32 0, i32 0
  %15 = bitcast %"struct.std::complex"* %14 to i8*
  %16 = bitcast %"struct.std::complex"* %6 to i8*
  call void @llvm.memcpy.p0i8.p0i8.i64(i8* align 8 %15, i8* align 8 %16, i64 16, i1 false)
  %17 = getelementptr inbounds %struct.L, %struct.L* %0, i32 0, i32 1
  %18 = bitcast %"struct.std::complex"* %17 to i8*
  %19 = bitcast %"struct.std::complex"* %7 to i8*
  call void @llvm.memcpy.p0i8.p0i8.i64(i8* align 8 %18, i8* align 8 %19, i64 16, i1 false)
  ret void
}

; Function Attrs: noinline nounwind uwtable
define linkonce_odr void @_ZNSaISt6vectorI4EdgeSaIS0_EEEC2Ev(%"class.std::allocator"* %0) unnamed_addr #4 comdat align 2 {
  %2 = bitcast %"class.std::allocator"* %0 to %"class.__gnu_cxx::new_allocator"*
  call void @_ZN9__gnu_cxx13new_allocatorISt6vectorI4EdgeSaIS2_EEEC2Ev(%"class.__gnu_cxx::new_allocator"* %2) #3
  ret void
}

; Function Attrs: noinline uwtable
define linkonce_odr void @_ZNSt6vectorIS_I4EdgeSaIS0_EESaIS2_EEC2EmRKS3_(%"class.std::vector"* %0, i64 %1, %"class.std::allocator"* dereferenceable(1) %2) unnamed_addr #0 comdat align 2 personality i8* bitcast (i32 (...)* @__gxx_personality_v0 to i8*) {
  %4 = bitcast %"class.std::vector"* %0 to %"struct.std::_Vector_base"*
  call void @_ZNSt12_Vector_baseISt6vectorI4EdgeSaIS1_EESaIS3_EEC2EmRKS4_(%"struct.std::_Vector_base"* %4, i64 %1, %"class.std::allocator"* dereferenceable(1) %2)
  invoke void @_ZNSt6vectorIS_I4EdgeSaIS0_EESaIS2_EE21_M_default_initializeEm(%"class.std::vector"* %0, i64 %1)
          to label %5 unwind label %6

5:                                                ; preds = %3
  ret void

6:                                                ; preds = %3
  %7 = landingpad { i8*, i32 }
          cleanup
  %8 = extractvalue { i8*, i32 } %7, 0
  %9 = extractvalue { i8*, i32 } %7, 1
  %10 = bitcast %"class.std::vector"* %0 to %"struct.std::_Vector_base"*
  call void @_ZNSt12_Vector_baseISt6vectorI4EdgeSaIS1_EESaIS3_EED2Ev(%"struct.std::_Vector_base"* %10) #3
  br label %11

11:                                               ; preds = %6
  %12 = insertvalue { i8*, i32 } undef, i8* %8, 0
  %13 = insertvalue { i8*, i32 } %12, i32 %9, 1
  resume { i8*, i32 } %13
}

; Function Attrs: noinline nounwind uwtable
define linkonce_odr void @_ZNSaISt6vectorI4EdgeSaIS0_EEED2Ev(%"class.std::allocator"* %0) unnamed_addr #4 comdat align 2 {
  %2 = bitcast %"class.std::allocator"* %0 to %"class.__gnu_cxx::new_allocator"*
  call void @_ZN9__gnu_cxx13new_allocatorISt6vectorI4EdgeSaIS2_EEED2Ev(%"class.__gnu_cxx::new_allocator"* %2) #3
  ret void
}

; Function Attrs: noinline nounwind uwtable
define linkonce_odr dereferenceable(32) %struct.L* @_ZNSt6vectorI1LSaIS0_EEixEm(%"class.std::vector.10"* %0, i64 %1) #4 comdat align 2 {
  %3 = bitcast %"class.std::vector.10"* %0 to %"struct.std::_Vector_base.11"*
  %4 = getelementptr inbounds %"struct.std::_Vector_base.11", %"struct.std::_Vector_base.11"* %3, i32 0, i32 0
  %5 = getelementptr inbounds %"struct.std::_Vector_base<L, std::allocator<L> >::_Vector_impl", %"struct.std::_Vector_base<L, std::allocator<L> >::_Vector_impl"* %4, i32 0, i32 0
  %6 = load %struct.L*, %struct.L** %5, align 8
  %7 = getelementptr inbounds %struct.L, %struct.L* %6, i64 %1
  ret %struct.L* %7
}

; Function Attrs: noinline nounwind uwtable
define linkonce_odr zeroext i1 @_ZSteqIdEbRKSt7complexIT_ES4_(%"struct.std::complex"* dereferenceable(16) %0, %"struct.std::complex"* dereferenceable(16) %1) #4 comdat {
  %3 = call double @_ZNKSt7complexIdE4realB5cxx11Ev(%"struct.std::complex"* %0)
  %4 = call double @_ZNKSt7complexIdE4realB5cxx11Ev(%"struct.std::complex"* %1)
  %5 = fcmp oeq double %3, %4
  br i1 %5, label %6, label %10

6:                                                ; preds = %2
  %7 = call double @_ZNKSt7complexIdE4imagB5cxx11Ev(%"struct.std::complex"* %0)
  %8 = call double @_ZNKSt7complexIdE4imagB5cxx11Ev(%"struct.std::complex"* %1)
  %9 = fcmp oeq double %7, %8
  br label %10

10:                                               ; preds = %6, %2
  %11 = phi i1 [ false, %2 ], [ %9, %6 ]
  ret i1 %11
}

; Function Attrs: noinline uwtable
define linkonce_odr double @_ZSt3absIdET_RKSt7complexIS0_E(%"struct.std::complex"* dereferenceable(16) %0) #0 comdat {
  %2 = alloca { double, double }, align 8
  %3 = call { double, double } @_ZNKSt7complexIdE5__repEv(%"struct.std::complex"* %0)
  %4 = extractvalue { double, double } %3, 0
  %5 = extractvalue { double, double } %3, 1
  %6 = getelementptr inbounds { double, double }, { double, double }* %2, i32 0, i32 0
  %7 = getelementptr inbounds { double, double }, { double, double }* %2, i32 0, i32 1
  store double %4, double* %6, align 8
  store double %5, double* %7, align 8
  %8 = getelementptr inbounds { double, double }, { double, double }* %2, i32 0, i32 0
  %9 = load double, double* %8, align 8
  %10 = getelementptr inbounds { double, double }, { double, double }* %2, i32 0, i32 1
  %11 = load double, double* %10, align 8
  %12 = call double @_ZSt13__complex_absCd(double %9, double %11)
  ret double %12
}

; Function Attrs: nounwind
declare double @acos(double) #2

; Function Attrs: noinline uwtable
define linkonce_odr void @_ZNSt6vectorI4EdgeSaIS0_EE9push_backEOS0_(%"class.std::vector.0"* %0, %struct.Edge* dereferenceable(16) %1) #0 comdat align 2 {
  %3 = call dereferenceable(16) %struct.Edge* @_ZSt4moveIR4EdgeEONSt16remove_referenceIT_E4typeEOS3_(%struct.Edge* dereferenceable(16) %1) #3
  call void @_ZNSt6vectorI4EdgeSaIS0_EE12emplace_backIJS0_EEEvDpOT_(%"class.std::vector.0"* %0, %struct.Edge* dereferenceable(16) %3)
  ret void
}

declare i32 @printf(i8*, ...) #1

; Function Attrs: noinline nounwind uwtable
define linkonce_odr void @_ZNSt6vectorIS_I4EdgeSaIS0_EESaIS2_EED2Ev(%"class.std::vector"* %0) unnamed_addr #4 comdat align 2 personality i8* bitcast (i32 (...)* @__gxx_personality_v0 to i8*) {
  %2 = bitcast %"class.std::vector"* %0 to %"struct.std::_Vector_base"*
  %3 = getelementptr inbounds %"struct.std::_Vector_base", %"struct.std::_Vector_base"* %2, i32 0, i32 0
  %4 = getelementptr inbounds %"struct.std::_Vector_base<std::vector<Edge, std::allocator<Edge> >, std::allocator<std::vector<Edge, std::allocator<Edge> > > >::_Vector_impl", %"struct.std::_Vector_base<std::vector<Edge, std::allocator<Edge> >, std::allocator<std::vector<Edge, std::allocator<Edge> > > >::_Vector_impl"* %3, i32 0, i32 0
  %5 = load %"class.std::vector.0"*, %"class.std::vector.0"** %4, align 8
  %6 = bitcast %"class.std::vector"* %0 to %"struct.std::_Vector_base"*
  %7 = getelementptr inbounds %"struct.std::_Vector_base", %"struct.std::_Vector_base"* %6, i32 0, i32 0
  %8 = getelementptr inbounds %"struct.std::_Vector_base<std::vector<Edge, std::allocator<Edge> >, std::allocator<std::vector<Edge, std::allocator<Edge> > > >::_Vector_impl", %"struct.std::_Vector_base<std::vector<Edge, std::allocator<Edge> >, std::allocator<std::vector<Edge, std::allocator<Edge> > > >::_Vector_impl"* %7, i32 0, i32 1
  %9 = load %"class.std::vector.0"*, %"class.std::vector.0"** %8, align 8
  %10 = bitcast %"class.std::vector"* %0 to %"struct.std::_Vector_base"*
  %11 = call dereferenceable(1) %"class.std::allocator"* @_ZNSt12_Vector_baseISt6vectorI4EdgeSaIS1_EESaIS3_EE19_M_get_Tp_allocatorEv(%"struct.std::_Vector_base"* %10) #3
  invoke void @_ZSt8_DestroyIPSt6vectorI4EdgeSaIS1_EES3_EvT_S5_RSaIT0_E(%"class.std::vector.0"* %5, %"class.std::vector.0"* %9, %"class.std::allocator"* dereferenceable(1) %11)
          to label %12 unwind label %14

12:                                               ; preds = %1
  %13 = bitcast %"class.std::vector"* %0 to %"struct.std::_Vector_base"*
  call void @_ZNSt12_Vector_baseISt6vectorI4EdgeSaIS1_EESaIS3_EED2Ev(%"struct.std::_Vector_base"* %13) #3
  ret void

14:                                               ; preds = %1
  %15 = landingpad { i8*, i32 }
          catch i8* null
  %16 = extractvalue { i8*, i32 } %15, 0
  %17 = extractvalue { i8*, i32 } %15, 1
  %18 = bitcast %"class.std::vector"* %0 to %"struct.std::_Vector_base"*
  call void @_ZNSt12_Vector_baseISt6vectorI4EdgeSaIS1_EESaIS3_EED2Ev(%"struct.std::_Vector_base"* %18) #3
  br label %19

19:                                               ; preds = %14
  call void @__clang_call_terminate(i8* %16) #13
  unreachable
}

; Function Attrs: noinline nounwind uwtable
define linkonce_odr void @_ZNSt6vectorI1LSaIS0_EED2Ev(%"class.std::vector.10"* %0) unnamed_addr #4 comdat align 2 personality i8* bitcast (i32 (...)* @__gxx_personality_v0 to i8*) {
  %2 = bitcast %"class.std::vector.10"* %0 to %"struct.std::_Vector_base.11"*
  %3 = getelementptr inbounds %"struct.std::_Vector_base.11", %"struct.std::_Vector_base.11"* %2, i32 0, i32 0
  %4 = getelementptr inbounds %"struct.std::_Vector_base<L, std::allocator<L> >::_Vector_impl", %"struct.std::_Vector_base<L, std::allocator<L> >::_Vector_impl"* %3, i32 0, i32 0
  %5 = load %struct.L*, %struct.L** %4, align 8
  %6 = bitcast %"class.std::vector.10"* %0 to %"struct.std::_Vector_base.11"*
  %7 = getelementptr inbounds %"struct.std::_Vector_base.11", %"struct.std::_Vector_base.11"* %6, i32 0, i32 0
  %8 = getelementptr inbounds %"struct.std::_Vector_base<L, std::allocator<L> >::_Vector_impl", %"struct.std::_Vector_base<L, std::allocator<L> >::_Vector_impl"* %7, i32 0, i32 1
  %9 = load %struct.L*, %struct.L** %8, align 8
  %10 = bitcast %"class.std::vector.10"* %0 to %"struct.std::_Vector_base.11"*
  %11 = call dereferenceable(1) %"class.std::allocator.12"* @_ZNSt12_Vector_baseI1LSaIS0_EE19_M_get_Tp_allocatorEv(%"struct.std::_Vector_base.11"* %10) #3
  invoke void @_ZSt8_DestroyIP1LS0_EvT_S2_RSaIT0_E(%struct.L* %5, %struct.L* %9, %"class.std::allocator.12"* dereferenceable(1) %11)
          to label %12 unwind label %14

12:                                               ; preds = %1
  %13 = bitcast %"class.std::vector.10"* %0 to %"struct.std::_Vector_base.11"*
  call void @_ZNSt12_Vector_baseI1LSaIS0_EED2Ev(%"struct.std::_Vector_base.11"* %13) #3
  ret void

14:                                               ; preds = %1
  %15 = landingpad { i8*, i32 }
          catch i8* null
  %16 = extractvalue { i8*, i32 } %15, 0
  %17 = extractvalue { i8*, i32 } %15, 1
  %18 = bitcast %"class.std::vector.10"* %0 to %"struct.std::_Vector_base.11"*
  call void @_ZNSt12_Vector_baseI1LSaIS0_EED2Ev(%"struct.std::_Vector_base.11"* %18) #3
  br label %19

19:                                               ; preds = %14
  call void @__clang_call_terminate(i8* %16) #13
  unreachable
}

; Function Attrs: noinline nounwind uwtable
define linkonce_odr double @_ZNKSt7complexIdE4imagB5cxx11Ev(%"struct.std::complex"* %0) #4 comdat align 2 {
  %2 = getelementptr inbounds %"struct.std::complex", %"struct.std::complex"* %0, i32 0, i32 0
  %3 = getelementptr inbounds { double, double }, { double, double }* %2, i32 0, i32 1
  %4 = load double, double* %3, align 8
  ret double %4
}

; Function Attrs: noinline nounwind uwtable
define linkonce_odr double @_ZNKSt7complexIdE4realB5cxx11Ev(%"struct.std::complex"* %0) #4 comdat align 2 {
  %2 = getelementptr inbounds %"struct.std::complex", %"struct.std::complex"* %0, i32 0, i32 0
  %3 = getelementptr inbounds { double, double }, { double, double }* %2, i32 0, i32 0
  %4 = load double, double* %3, align 8
  ret double %4
}

; Function Attrs: nocallback nofree nosync nounwind readnone speculatable willreturn
declare double @llvm.fabs.f64(double) #6

; Function Attrs: noinline nounwind uwtable
define linkonce_odr void @_ZNSt6vectorI4EdgeSaIS0_EED2Ev(%"class.std::vector.0"* %0) unnamed_addr #4 comdat align 2 personality i8* bitcast (i32 (...)* @__gxx_personality_v0 to i8*) {
  %2 = bitcast %"class.std::vector.0"* %0 to %"struct.std::_Vector_base.1"*
  %3 = getelementptr inbounds %"struct.std::_Vector_base.1", %"struct.std::_Vector_base.1"* %2, i32 0, i32 0
  %4 = getelementptr inbounds %"struct.std::_Vector_base<Edge, std::allocator<Edge> >::_Vector_impl", %"struct.std::_Vector_base<Edge, std::allocator<Edge> >::_Vector_impl"* %3, i32 0, i32 0
  %5 = load %struct.Edge*, %struct.Edge** %4, align 8
  %6 = bitcast %"class.std::vector.0"* %0 to %"struct.std::_Vector_base.1"*
  %7 = getelementptr inbounds %"struct.std::_Vector_base.1", %"struct.std::_Vector_base.1"* %6, i32 0, i32 0
  %8 = getelementptr inbounds %"struct.std::_Vector_base<Edge, std::allocator<Edge> >::_Vector_impl", %"struct.std::_Vector_base<Edge, std::allocator<Edge> >::_Vector_impl"* %7, i32 0, i32 1
  %9 = load %struct.Edge*, %struct.Edge** %8, align 8
  %10 = bitcast %"class.std::vector.0"* %0 to %"struct.std::_Vector_base.1"*
  %11 = call dereferenceable(1) %"class.std::allocator.2"* @_ZNSt12_Vector_baseI4EdgeSaIS0_EE19_M_get_Tp_allocatorEv(%"struct.std::_Vector_base.1"* %10) #3
  invoke void @_ZSt8_DestroyIP4EdgeS0_EvT_S2_RSaIT0_E(%struct.Edge* %5, %struct.Edge* %9, %"class.std::allocator.2"* dereferenceable(1) %11)
          to label %12 unwind label %14

12:                                               ; preds = %1
  %13 = bitcast %"class.std::vector.0"* %0 to %"struct.std::_Vector_base.1"*
  call void @_ZNSt12_Vector_baseI4EdgeSaIS0_EED2Ev(%"struct.std::_Vector_base.1"* %13) #3
  ret void

14:                                               ; preds = %1
  %15 = landingpad { i8*, i32 }
          catch i8* null
  %16 = extractvalue { i8*, i32 } %15, 0
  %17 = extractvalue { i8*, i32 } %15, 1
  %18 = bitcast %"class.std::vector.0"* %0 to %"struct.std::_Vector_base.1"*
  call void @_ZNSt12_Vector_baseI4EdgeSaIS0_EED2Ev(%"struct.std::_Vector_base.1"* %18) #3
  br label %19

19:                                               ; preds = %14
  call void @__clang_call_terminate(i8* %16) #13
  unreachable
}

; Function Attrs: noinline uwtable
define linkonce_odr void @_ZSt8_DestroyIP4EdgeS0_EvT_S2_RSaIT0_E(%struct.Edge* %0, %struct.Edge* %1, %"class.std::allocator.2"* dereferenceable(1) %2) #0 comdat {
  call void @_ZSt8_DestroyIP4EdgeEvT_S2_(%struct.Edge* %0, %struct.Edge* %1)
  ret void
}

; Function Attrs: noinline nounwind uwtable
define linkonce_odr dereferenceable(1) %"class.std::allocator.2"* @_ZNSt12_Vector_baseI4EdgeSaIS0_EE19_M_get_Tp_allocatorEv(%"struct.std::_Vector_base.1"* %0) #4 comdat align 2 {
  %2 = getelementptr inbounds %"struct.std::_Vector_base.1", %"struct.std::_Vector_base.1"* %0, i32 0, i32 0
  %3 = bitcast %"struct.std::_Vector_base<Edge, std::allocator<Edge> >::_Vector_impl"* %2 to %"class.std::allocator.2"*
  ret %"class.std::allocator.2"* %3
}

; Function Attrs: noinline nounwind uwtable
define linkonce_odr void @_ZNSt12_Vector_baseI4EdgeSaIS0_EED2Ev(%"struct.std::_Vector_base.1"* %0) unnamed_addr #4 comdat align 2 personality i8* bitcast (i32 (...)* @__gxx_personality_v0 to i8*) {
  %2 = getelementptr inbounds %"struct.std::_Vector_base.1", %"struct.std::_Vector_base.1"* %0, i32 0, i32 0
  %3 = getelementptr inbounds %"struct.std::_Vector_base<Edge, std::allocator<Edge> >::_Vector_impl", %"struct.std::_Vector_base<Edge, std::allocator<Edge> >::_Vector_impl"* %2, i32 0, i32 0
  %4 = load %struct.Edge*, %struct.Edge** %3, align 8
  %5 = getelementptr inbounds %"struct.std::_Vector_base.1", %"struct.std::_Vector_base.1"* %0, i32 0, i32 0
  %6 = getelementptr inbounds %"struct.std::_Vector_base<Edge, std::allocator<Edge> >::_Vector_impl", %"struct.std::_Vector_base<Edge, std::allocator<Edge> >::_Vector_impl"* %5, i32 0, i32 2
  %7 = load %struct.Edge*, %struct.Edge** %6, align 8
  %8 = getelementptr inbounds %"struct.std::_Vector_base.1", %"struct.std::_Vector_base.1"* %0, i32 0, i32 0
  %9 = getelementptr inbounds %"struct.std::_Vector_base<Edge, std::allocator<Edge> >::_Vector_impl", %"struct.std::_Vector_base<Edge, std::allocator<Edge> >::_Vector_impl"* %8, i32 0, i32 0
  %10 = load %struct.Edge*, %struct.Edge** %9, align 8
  %11 = ptrtoint %struct.Edge* %7 to i64
  %12 = ptrtoint %struct.Edge* %10 to i64
  %13 = sub i64 %11, %12
  %14 = sdiv exact i64 %13, 16
  invoke void @_ZNSt12_Vector_baseI4EdgeSaIS0_EE13_M_deallocateEPS0_m(%"struct.std::_Vector_base.1"* %0, %struct.Edge* %4, i64 %14)
          to label %15 unwind label %17

15:                                               ; preds = %1
  %16 = getelementptr inbounds %"struct.std::_Vector_base.1", %"struct.std::_Vector_base.1"* %0, i32 0, i32 0
  call void @_ZNSt12_Vector_baseI4EdgeSaIS0_EE12_Vector_implD2Ev(%"struct.std::_Vector_base<Edge, std::allocator<Edge> >::_Vector_impl"* %16) #3
  ret void

17:                                               ; preds = %1
  %18 = landingpad { i8*, i32 }
          catch i8* null
  %19 = extractvalue { i8*, i32 } %18, 0
  %20 = extractvalue { i8*, i32 } %18, 1
  %21 = getelementptr inbounds %"struct.std::_Vector_base.1", %"struct.std::_Vector_base.1"* %0, i32 0, i32 0
  call void @_ZNSt12_Vector_baseI4EdgeSaIS0_EE12_Vector_implD2Ev(%"struct.std::_Vector_base<Edge, std::allocator<Edge> >::_Vector_impl"* %21) #3
  br label %22

22:                                               ; preds = %17
  call void @__clang_call_terminate(i8* %19) #13
  unreachable
}

; Function Attrs: noinline noreturn nounwind
define linkonce_odr hidden void @__clang_call_terminate(i8* %0) #7 comdat {
  %2 = call i8* @__cxa_begin_catch(i8* %0) #3
  call void @_ZSt9terminatev() #13
  unreachable
}

declare i8* @__cxa_begin_catch(i8*)

declare void @_ZSt9terminatev()

; Function Attrs: noinline uwtable
define linkonce_odr void @_ZSt8_DestroyIP4EdgeEvT_S2_(%struct.Edge* %0, %struct.Edge* %1) #0 comdat {
  call void @_ZNSt12_Destroy_auxILb1EE9__destroyIP4EdgeEEvT_S4_(%struct.Edge* %0, %struct.Edge* %1)
  ret void
}

; Function Attrs: noinline nounwind uwtable
define linkonce_odr void @_ZNSt12_Destroy_auxILb1EE9__destroyIP4EdgeEEvT_S4_(%struct.Edge* %0, %struct.Edge* %1) #4 comdat align 2 {
  ret void
}

; Function Attrs: noinline uwtable
define linkonce_odr void @_ZNSt12_Vector_baseI4EdgeSaIS0_EE13_M_deallocateEPS0_m(%"struct.std::_Vector_base.1"* %0, %struct.Edge* %1, i64 %2) #0 comdat align 2 {
  %4 = icmp ne %struct.Edge* %1, null
  br i1 %4, label %5, label %8

5:                                                ; preds = %3
  %6 = getelementptr inbounds %"struct.std::_Vector_base.1", %"struct.std::_Vector_base.1"* %0, i32 0, i32 0
  %7 = bitcast %"struct.std::_Vector_base<Edge, std::allocator<Edge> >::_Vector_impl"* %6 to %"class.std::allocator.2"*
  call void @_ZNSt16allocator_traitsISaI4EdgeEE10deallocateERS1_PS0_m(%"class.std::allocator.2"* dereferenceable(1) %7, %struct.Edge* %1, i64 %2)
  br label %8

8:                                                ; preds = %5, %3
  ret void
}

; Function Attrs: noinline nounwind uwtable
define linkonce_odr void @_ZNSt12_Vector_baseI4EdgeSaIS0_EE12_Vector_implD2Ev(%"struct.std::_Vector_base<Edge, std::allocator<Edge> >::_Vector_impl"* %0) unnamed_addr #4 comdat align 2 {
  %2 = bitcast %"struct.std::_Vector_base<Edge, std::allocator<Edge> >::_Vector_impl"* %0 to %"class.std::allocator.2"*
  call void @_ZNSaI4EdgeED2Ev(%"class.std::allocator.2"* %2) #3
  ret void
}

; Function Attrs: noinline uwtable
define linkonce_odr void @_ZNSt16allocator_traitsISaI4EdgeEE10deallocateERS1_PS0_m(%"class.std::allocator.2"* dereferenceable(1) %0, %struct.Edge* %1, i64 %2) #0 comdat align 2 {
  %4 = bitcast %"class.std::allocator.2"* %0 to %"class.__gnu_cxx::new_allocator.3"*
  call void @_ZN9__gnu_cxx13new_allocatorI4EdgeE10deallocateEPS1_m(%"class.__gnu_cxx::new_allocator.3"* %4, %struct.Edge* %1, i64 %2)
  ret void
}

; Function Attrs: noinline nounwind uwtable
define linkonce_odr void @_ZN9__gnu_cxx13new_allocatorI4EdgeE10deallocateEPS1_m(%"class.__gnu_cxx::new_allocator.3"* %0, %struct.Edge* %1, i64 %2) #4 comdat align 2 {
  %4 = bitcast %struct.Edge* %1 to i8*
  call void @_ZdlPv(i8* %4) #3
  ret void
}

; Function Attrs: nobuiltin nounwind
declare void @_ZdlPv(i8*) #8

; Function Attrs: noinline nounwind uwtable
define linkonce_odr void @_ZNSaI4EdgeED2Ev(%"class.std::allocator.2"* %0) unnamed_addr #4 comdat align 2 {
  %2 = bitcast %"class.std::allocator.2"* %0 to %"class.__gnu_cxx::new_allocator.3"*
  call void @_ZN9__gnu_cxx13new_allocatorI4EdgeED2Ev(%"class.__gnu_cxx::new_allocator.3"* %2) #3
  ret void
}

; Function Attrs: noinline nounwind uwtable
define linkonce_odr void @_ZN9__gnu_cxx13new_allocatorI4EdgeED2Ev(%"class.__gnu_cxx::new_allocator.3"* %0) unnamed_addr #4 comdat align 2 {
  ret void
}

; Function Attrs: noinline nounwind uwtable
define linkonce_odr dereferenceable(16) %"struct.std::complex"* @_ZNSt7complexIdEmLIdEERS0_RKS_IT_E(%"struct.std::complex"* %0, %"struct.std::complex"* dereferenceable(16) %1) #4 comdat align 2 {
  %3 = alloca { double, double }, align 8
  %4 = call double @_ZNKSt7complexIdE4realB5cxx11Ev(%"struct.std::complex"* %1)
  %5 = getelementptr inbounds { double, double }, { double, double }* %3, i32 0, i32 0
  store double %4, double* %5, align 8
  %6 = call double @_ZNKSt7complexIdE4imagB5cxx11Ev(%"struct.std::complex"* %1)
  %7 = getelementptr inbounds { double, double }, { double, double }* %3, i32 0, i32 1
  store double %6, double* %7, align 8
  %8 = getelementptr inbounds { double, double }, { double, double }* %3, i32 0, i32 0
  %9 = load double, double* %8, align 8
  %10 = getelementptr inbounds { double, double }, { double, double }* %3, i32 0, i32 1
  %11 = load double, double* %10, align 8
  %12 = getelementptr inbounds %"struct.std::complex", %"struct.std::complex"* %0, i32 0, i32 0
  %13 = getelementptr inbounds { double, double }, { double, double }* %12, i32 0, i32 0
  %14 = load double, double* %13, align 8
  %15 = getelementptr inbounds { double, double }, { double, double }* %12, i32 0, i32 1
  %16 = load double, double* %15, align 8
  %17 = fmul double %14, %9
  %18 = fmul double %16, %11
  %19 = fmul double %14, %11
  %20 = fmul double %16, %9
  %21 = fsub double %17, %18
  %22 = fadd double %19, %20
  %23 = fcmp uno double %21, %21
  br i1 %23, label %24, label %30, !prof !2

24:                                               ; preds = %2
  %25 = fcmp uno double %22, %22
  br i1 %25, label %26, label %30, !prof !2

26:                                               ; preds = %24
  %27 = call { double, double } @__muldc3(double %14, double %16, double %9, double %11) #3
  %28 = extractvalue { double, double } %27, 0
  %29 = extractvalue { double, double } %27, 1
  br label %30

30:                                               ; preds = %26, %24, %2
  %31 = phi double [ %21, %2 ], [ %21, %24 ], [ %28, %26 ]
  %32 = phi double [ %22, %2 ], [ %22, %24 ], [ %29, %26 ]
  %33 = getelementptr inbounds { double, double }, { double, double }* %12, i32 0, i32 0
  %34 = getelementptr inbounds { double, double }, { double, double }* %12, i32 0, i32 1
  store double %31, double* %33, align 8
  store double %32, double* %34, align 8
  ret %"struct.std::complex"* %0
}

declare { double, double } @__muldc3(double, double, double, double)

; Function Attrs: noinline uwtable
define linkonce_odr double @_ZNSt12_Norm_helperILb1EE8_S_do_itIdEET_RKSt7complexIS2_E(%"struct.std::complex"* dereferenceable(16) %0) #0 comdat align 2 {
  %2 = call double @_ZSt3absIdET_RKSt7complexIS0_E(%"struct.std::complex"* dereferenceable(16) %0)
  %3 = fmul double %2, %2
  ret double %3
}

; Function Attrs: noinline nounwind uwtable
define linkonce_odr dereferenceable(16) %"struct.std::complex"* @_ZNSt7complexIdEmLEd(%"struct.std::complex"* %0, double %1) #4 comdat align 2 {
  %3 = getelementptr inbounds %"struct.std::complex", %"struct.std::complex"* %0, i32 0, i32 0
  %4 = getelementptr inbounds { double, double }, { double, double }* %3, i32 0, i32 0
  %5 = load double, double* %4, align 8
  %6 = getelementptr inbounds { double, double }, { double, double }* %3, i32 0, i32 1
  %7 = load double, double* %6, align 8
  %8 = fmul double %5, %1
  %9 = fmul double %7, %1
  %10 = getelementptr inbounds { double, double }, { double, double }* %3, i32 0, i32 0
  %11 = getelementptr inbounds { double, double }, { double, double }* %3, i32 0, i32 1
  store double %8, double* %10, align 8
  store double %9, double* %11, align 8
  ret %"struct.std::complex"* %0
}

; Function Attrs: noinline nounwind uwtable
define linkonce_odr dereferenceable(16) %"struct.std::complex"* @_ZNSt7complexIdEpLIdEERS0_RKS_IT_E(%"struct.std::complex"* %0, %"struct.std::complex"* dereferenceable(16) %1) #4 comdat align 2 {
  %3 = call double @_ZNKSt7complexIdE4realB5cxx11Ev(%"struct.std::complex"* %1)
  %4 = getelementptr inbounds %"struct.std::complex", %"struct.std::complex"* %0, i32 0, i32 0
  %5 = getelementptr inbounds { double, double }, { double, double }* %4, i32 0, i32 0
  %6 = load double, double* %5, align 8
  %7 = fadd double %6, %3
  store double %7, double* %5, align 8
  %8 = call double @_ZNKSt7complexIdE4imagB5cxx11Ev(%"struct.std::complex"* %1)
  %9 = getelementptr inbounds %"struct.std::complex", %"struct.std::complex"* %0, i32 0, i32 0
  %10 = getelementptr inbounds { double, double }, { double, double }* %9, i32 0, i32 1
  %11 = load double, double* %10, align 8
  %12 = fadd double %11, %8
  store double %12, double* %10, align 8
  ret %"struct.std::complex"* %0
}

; Function Attrs: noinline nounwind uwtable
define linkonce_odr void @_ZN9__gnu_cxx13new_allocatorIdEC2Ev(%"class.__gnu_cxx::new_allocator.8"* %0) unnamed_addr #4 comdat align 2 {
  ret void
}

; Function Attrs: noinline nounwind uwtable
define linkonce_odr void @_ZN9__gnu_cxx13new_allocatorIdED2Ev(%"class.__gnu_cxx::new_allocator.8"* %0) unnamed_addr #4 comdat align 2 {
  ret void
}

; Function Attrs: noinline uwtable
define linkonce_odr void @_ZNSt12_Vector_baseIdSaIdEEC2EmRKS0_(%"struct.std::_Vector_base.6"* %0, i64 %1, %"class.std::allocator.7"* dereferenceable(1) %2) unnamed_addr #0 comdat align 2 personality i8* bitcast (i32 (...)* @__gxx_personality_v0 to i8*) {
  %4 = getelementptr inbounds %"struct.std::_Vector_base.6", %"struct.std::_Vector_base.6"* %0, i32 0, i32 0
  call void @_ZNSt12_Vector_baseIdSaIdEE12_Vector_implC2ERKS0_(%"struct.std::_Vector_base<double, std::allocator<double> >::_Vector_impl"* %4, %"class.std::allocator.7"* dereferenceable(1) %2) #3
  invoke void @_ZNSt12_Vector_baseIdSaIdEE17_M_create_storageEm(%"struct.std::_Vector_base.6"* %0, i64 %1)
          to label %5 unwind label %6

5:                                                ; preds = %3
  ret void

6:                                                ; preds = %3
  %7 = landingpad { i8*, i32 }
          cleanup
  %8 = extractvalue { i8*, i32 } %7, 0
  %9 = extractvalue { i8*, i32 } %7, 1
  call void @_ZNSt12_Vector_baseIdSaIdEE12_Vector_implD2Ev(%"struct.std::_Vector_base<double, std::allocator<double> >::_Vector_impl"* %4) #3
  br label %10

10:                                               ; preds = %6
  %11 = insertvalue { i8*, i32 } undef, i8* %8, 0
  %12 = insertvalue { i8*, i32 } %11, i32 %9, 1
  resume { i8*, i32 } %12
}

; Function Attrs: noinline uwtable
define linkonce_odr void @_ZNSt6vectorIdSaIdEE18_M_fill_initializeEmRKd(%"class.std::vector.5"* %0, i64 %1, double* dereferenceable(8) %2) #0 comdat align 2 {
  %4 = bitcast %"class.std::vector.5"* %0 to %"struct.std::_Vector_base.6"*
  %5 = getelementptr inbounds %"struct.std::_Vector_base.6", %"struct.std::_Vector_base.6"* %4, i32 0, i32 0
  %6 = getelementptr inbounds %"struct.std::_Vector_base<double, std::allocator<double> >::_Vector_impl", %"struct.std::_Vector_base<double, std::allocator<double> >::_Vector_impl"* %5, i32 0, i32 0
  %7 = load double*, double** %6, align 8
  %8 = bitcast %"class.std::vector.5"* %0 to %"struct.std::_Vector_base.6"*
  %9 = call dereferenceable(1) %"class.std::allocator.7"* @_ZNSt12_Vector_baseIdSaIdEE19_M_get_Tp_allocatorEv(%"struct.std::_Vector_base.6"* %8) #3
  %10 = call double* @_ZSt24__uninitialized_fill_n_aIPdmddET_S1_T0_RKT1_RSaIT2_E(double* %7, i64 %1, double* dereferenceable(8) %2, %"class.std::allocator.7"* dereferenceable(1) %9)
  %11 = bitcast %"class.std::vector.5"* %0 to %"struct.std::_Vector_base.6"*
  %12 = getelementptr inbounds %"struct.std::_Vector_base.6", %"struct.std::_Vector_base.6"* %11, i32 0, i32 0
  %13 = getelementptr inbounds %"struct.std::_Vector_base<double, std::allocator<double> >::_Vector_impl", %"struct.std::_Vector_base<double, std::allocator<double> >::_Vector_impl"* %12, i32 0, i32 1
  store double* %10, double** %13, align 8
  ret void
}

; Function Attrs: noinline nounwind uwtable
define linkonce_odr void @_ZNSt12_Vector_baseIdSaIdEED2Ev(%"struct.std::_Vector_base.6"* %0) unnamed_addr #4 comdat align 2 personality i8* bitcast (i32 (...)* @__gxx_personality_v0 to i8*) {
  %2 = getelementptr inbounds %"struct.std::_Vector_base.6", %"struct.std::_Vector_base.6"* %0, i32 0, i32 0
  %3 = getelementptr inbounds %"struct.std::_Vector_base<double, std::allocator<double> >::_Vector_impl", %"struct.std::_Vector_base<double, std::allocator<double> >::_Vector_impl"* %2, i32 0, i32 0
  %4 = load double*, double** %3, align 8
  %5 = getelementptr inbounds %"struct.std::_Vector_base.6", %"struct.std::_Vector_base.6"* %0, i32 0, i32 0
  %6 = getelementptr inbounds %"struct.std::_Vector_base<double, std::allocator<double> >::_Vector_impl", %"struct.std::_Vector_base<double, std::allocator<double> >::_Vector_impl"* %5, i32 0, i32 2
  %7 = load double*, double** %6, align 8
  %8 = getelementptr inbounds %"struct.std::_Vector_base.6", %"struct.std::_Vector_base.6"* %0, i32 0, i32 0
  %9 = getelementptr inbounds %"struct.std::_Vector_base<double, std::allocator<double> >::_Vector_impl", %"struct.std::_Vector_base<double, std::allocator<double> >::_Vector_impl"* %8, i32 0, i32 0
  %10 = load double*, double** %9, align 8
  %11 = ptrtoint double* %7 to i64
  %12 = ptrtoint double* %10 to i64
  %13 = sub i64 %11, %12
  %14 = sdiv exact i64 %13, 8
  invoke void @_ZNSt12_Vector_baseIdSaIdEE13_M_deallocateEPdm(%"struct.std::_Vector_base.6"* %0, double* %4, i64 %14)
          to label %15 unwind label %17

15:                                               ; preds = %1
  %16 = getelementptr inbounds %"struct.std::_Vector_base.6", %"struct.std::_Vector_base.6"* %0, i32 0, i32 0
  call void @_ZNSt12_Vector_baseIdSaIdEE12_Vector_implD2Ev(%"struct.std::_Vector_base<double, std::allocator<double> >::_Vector_impl"* %16) #3
  ret void

17:                                               ; preds = %1
  %18 = landingpad { i8*, i32 }
          catch i8* null
  %19 = extractvalue { i8*, i32 } %18, 0
  %20 = extractvalue { i8*, i32 } %18, 1
  %21 = getelementptr inbounds %"struct.std::_Vector_base.6", %"struct.std::_Vector_base.6"* %0, i32 0, i32 0
  call void @_ZNSt12_Vector_baseIdSaIdEE12_Vector_implD2Ev(%"struct.std::_Vector_base<double, std::allocator<double> >::_Vector_impl"* %21) #3
  br label %22

22:                                               ; preds = %17
  call void @__clang_call_terminate(i8* %19) #13
  unreachable
}

; Function Attrs: noinline nounwind uwtable
define linkonce_odr void @_ZNSt12_Vector_baseIdSaIdEE12_Vector_implC2ERKS0_(%"struct.std::_Vector_base<double, std::allocator<double> >::_Vector_impl"* %0, %"class.std::allocator.7"* dereferenceable(1) %1) unnamed_addr #4 comdat align 2 {
  %3 = bitcast %"struct.std::_Vector_base<double, std::allocator<double> >::_Vector_impl"* %0 to %"class.std::allocator.7"*
  call void @_ZNSaIdEC2ERKS_(%"class.std::allocator.7"* %3, %"class.std::allocator.7"* dereferenceable(1) %1) #3
  %4 = getelementptr inbounds %"struct.std::_Vector_base<double, std::allocator<double> >::_Vector_impl", %"struct.std::_Vector_base<double, std::allocator<double> >::_Vector_impl"* %0, i32 0, i32 0
  store double* null, double** %4, align 8
  %5 = getelementptr inbounds %"struct.std::_Vector_base<double, std::allocator<double> >::_Vector_impl", %"struct.std::_Vector_base<double, std::allocator<double> >::_Vector_impl"* %0, i32 0, i32 1
  store double* null, double** %5, align 8
  %6 = getelementptr inbounds %"struct.std::_Vector_base<double, std::allocator<double> >::_Vector_impl", %"struct.std::_Vector_base<double, std::allocator<double> >::_Vector_impl"* %0, i32 0, i32 2
  store double* null, double** %6, align 8
  ret void
}

; Function Attrs: noinline uwtable
define linkonce_odr void @_ZNSt12_Vector_baseIdSaIdEE17_M_create_storageEm(%"struct.std::_Vector_base.6"* %0, i64 %1) #0 comdat align 2 {
  %3 = call double* @_ZNSt12_Vector_baseIdSaIdEE11_M_allocateEm(%"struct.std::_Vector_base.6"* %0, i64 %1)
  %4 = getelementptr inbounds %"struct.std::_Vector_base.6", %"struct.std::_Vector_base.6"* %0, i32 0, i32 0
  %5 = getelementptr inbounds %"struct.std::_Vector_base<double, std::allocator<double> >::_Vector_impl", %"struct.std::_Vector_base<double, std::allocator<double> >::_Vector_impl"* %4, i32 0, i32 0
  store double* %3, double** %5, align 8
  %6 = getelementptr inbounds %"struct.std::_Vector_base.6", %"struct.std::_Vector_base.6"* %0, i32 0, i32 0
  %7 = getelementptr inbounds %"struct.std::_Vector_base<double, std::allocator<double> >::_Vector_impl", %"struct.std::_Vector_base<double, std::allocator<double> >::_Vector_impl"* %6, i32 0, i32 0
  %8 = load double*, double** %7, align 8
  %9 = getelementptr inbounds %"struct.std::_Vector_base.6", %"struct.std::_Vector_base.6"* %0, i32 0, i32 0
  %10 = getelementptr inbounds %"struct.std::_Vector_base<double, std::allocator<double> >::_Vector_impl", %"struct.std::_Vector_base<double, std::allocator<double> >::_Vector_impl"* %9, i32 0, i32 1
  store double* %8, double** %10, align 8
  %11 = getelementptr inbounds %"struct.std::_Vector_base.6", %"struct.std::_Vector_base.6"* %0, i32 0, i32 0
  %12 = getelementptr inbounds %"struct.std::_Vector_base<double, std::allocator<double> >::_Vector_impl", %"struct.std::_Vector_base<double, std::allocator<double> >::_Vector_impl"* %11, i32 0, i32 0
  %13 = load double*, double** %12, align 8
  %14 = getelementptr inbounds double, double* %13, i64 %1
  %15 = getelementptr inbounds %"struct.std::_Vector_base.6", %"struct.std::_Vector_base.6"* %0, i32 0, i32 0
  %16 = getelementptr inbounds %"struct.std::_Vector_base<double, std::allocator<double> >::_Vector_impl", %"struct.std::_Vector_base<double, std::allocator<double> >::_Vector_impl"* %15, i32 0, i32 2
  store double* %14, double** %16, align 8
  ret void
}

; Function Attrs: noinline nounwind uwtable
define linkonce_odr void @_ZNSt12_Vector_baseIdSaIdEE12_Vector_implD2Ev(%"struct.std::_Vector_base<double, std::allocator<double> >::_Vector_impl"* %0) unnamed_addr #4 comdat align 2 {
  %2 = bitcast %"struct.std::_Vector_base<double, std::allocator<double> >::_Vector_impl"* %0 to %"class.std::allocator.7"*
  call void @_ZNSaIdED2Ev(%"class.std::allocator.7"* %2) #3
  ret void
}

; Function Attrs: noinline nounwind uwtable
define linkonce_odr void @_ZNSaIdEC2ERKS_(%"class.std::allocator.7"* %0, %"class.std::allocator.7"* dereferenceable(1) %1) unnamed_addr #4 comdat align 2 {
  %3 = bitcast %"class.std::allocator.7"* %0 to %"class.__gnu_cxx::new_allocator.8"*
  %4 = bitcast %"class.std::allocator.7"* %1 to %"class.__gnu_cxx::new_allocator.8"*
  call void @_ZN9__gnu_cxx13new_allocatorIdEC2ERKS1_(%"class.__gnu_cxx::new_allocator.8"* %3, %"class.__gnu_cxx::new_allocator.8"* dereferenceable(1) %4) #3
  ret void
}

; Function Attrs: noinline nounwind uwtable
define linkonce_odr void @_ZN9__gnu_cxx13new_allocatorIdEC2ERKS1_(%"class.__gnu_cxx::new_allocator.8"* %0, %"class.__gnu_cxx::new_allocator.8"* dereferenceable(1) %1) unnamed_addr #4 comdat align 2 {
  ret void
}

; Function Attrs: noinline uwtable
define linkonce_odr double* @_ZNSt12_Vector_baseIdSaIdEE11_M_allocateEm(%"struct.std::_Vector_base.6"* %0, i64 %1) #0 comdat align 2 {
  %3 = icmp ne i64 %1, 0
  br i1 %3, label %4, label %8

4:                                                ; preds = %2
  %5 = getelementptr inbounds %"struct.std::_Vector_base.6", %"struct.std::_Vector_base.6"* %0, i32 0, i32 0
  %6 = bitcast %"struct.std::_Vector_base<double, std::allocator<double> >::_Vector_impl"* %5 to %"class.std::allocator.7"*
  %7 = call double* @_ZNSt16allocator_traitsISaIdEE8allocateERS0_m(%"class.std::allocator.7"* dereferenceable(1) %6, i64 %1)
  br label %9

8:                                                ; preds = %2
  br label %9

9:                                                ; preds = %8, %4
  %10 = phi double* [ %7, %4 ], [ null, %8 ]
  ret double* %10
}

; Function Attrs: noinline uwtable
define linkonce_odr double* @_ZNSt16allocator_traitsISaIdEE8allocateERS0_m(%"class.std::allocator.7"* dereferenceable(1) %0, i64 %1) #0 comdat align 2 {
  %3 = bitcast %"class.std::allocator.7"* %0 to %"class.__gnu_cxx::new_allocator.8"*
  %4 = call double* @_ZN9__gnu_cxx13new_allocatorIdE8allocateEmPKv(%"class.__gnu_cxx::new_allocator.8"* %3, i64 %1, i8* null)
  ret double* %4
}

; Function Attrs: noinline uwtable
define linkonce_odr double* @_ZN9__gnu_cxx13new_allocatorIdE8allocateEmPKv(%"class.__gnu_cxx::new_allocator.8"* %0, i64 %1, i8* %2) #0 comdat align 2 {
  %4 = call i64 @_ZNK9__gnu_cxx13new_allocatorIdE8max_sizeEv(%"class.__gnu_cxx::new_allocator.8"* %0) #3
  %5 = icmp ugt i64 %1, %4
  br i1 %5, label %6, label %7

6:                                                ; preds = %3
  call void @_ZSt17__throw_bad_allocv() #14
  unreachable

7:                                                ; preds = %3
  %8 = mul i64 %1, 8
  %9 = call i8* @_Znwm(i64 %8)
  %10 = bitcast i8* %9 to double*
  ret double* %10
}

; Function Attrs: noinline nounwind uwtable
define linkonce_odr i64 @_ZNK9__gnu_cxx13new_allocatorIdE8max_sizeEv(%"class.__gnu_cxx::new_allocator.8"* %0) #4 comdat align 2 {
  ret i64 2305843009213693951
}

; Function Attrs: noreturn
declare void @_ZSt17__throw_bad_allocv() #9

; Function Attrs: nobuiltin
declare noalias i8* @_Znwm(i64) #10

; Function Attrs: noinline uwtable
define linkonce_odr double* @_ZSt24__uninitialized_fill_n_aIPdmddET_S1_T0_RKT1_RSaIT2_E(double* %0, i64 %1, double* dereferenceable(8) %2, %"class.std::allocator.7"* dereferenceable(1) %3) #0 comdat {
  %5 = call double* @_ZSt20uninitialized_fill_nIPdmdET_S1_T0_RKT1_(double* %0, i64 %1, double* dereferenceable(8) %2)
  ret double* %5
}

; Function Attrs: noinline nounwind uwtable
define linkonce_odr dereferenceable(1) %"class.std::allocator.7"* @_ZNSt12_Vector_baseIdSaIdEE19_M_get_Tp_allocatorEv(%"struct.std::_Vector_base.6"* %0) #4 comdat align 2 {
  %2 = getelementptr inbounds %"struct.std::_Vector_base.6", %"struct.std::_Vector_base.6"* %0, i32 0, i32 0
  %3 = bitcast %"struct.std::_Vector_base<double, std::allocator<double> >::_Vector_impl"* %2 to %"class.std::allocator.7"*
  ret %"class.std::allocator.7"* %3
}

; Function Attrs: noinline uwtable
define linkonce_odr double* @_ZSt20uninitialized_fill_nIPdmdET_S1_T0_RKT1_(double* %0, i64 %1, double* dereferenceable(8) %2) #0 comdat {
  %4 = call double* @_ZNSt22__uninitialized_fill_nILb1EE15__uninit_fill_nIPdmdEET_S3_T0_RKT1_(double* %0, i64 %1, double* dereferenceable(8) %2)
  ret double* %4
}

; Function Attrs: noinline uwtable
define linkonce_odr double* @_ZNSt22__uninitialized_fill_nILb1EE15__uninit_fill_nIPdmdEET_S3_T0_RKT1_(double* %0, i64 %1, double* dereferenceable(8) %2) #0 comdat align 2 {
  %4 = call double* @_ZSt6fill_nIPdmdET_S1_T0_RKT1_(double* %0, i64 %1, double* dereferenceable(8) %2)
  ret double* %4
}

; Function Attrs: noinline uwtable
define linkonce_odr double* @_ZSt6fill_nIPdmdET_S1_T0_RKT1_(double* %0, i64 %1, double* dereferenceable(8) %2) #0 comdat {
  %4 = call double* @_ZSt12__niter_baseIPdET_S1_(double* %0)
  %5 = call double* @_ZSt10__fill_n_aIPdmdEN9__gnu_cxx11__enable_ifIXsr11__is_scalarIT1_EE7__valueET_E6__typeES4_T0_RKS3_(double* %4, i64 %1, double* dereferenceable(8) %2)
  ret double* %5
}

; Function Attrs: noinline nounwind uwtable
define linkonce_odr double* @_ZSt10__fill_n_aIPdmdEN9__gnu_cxx11__enable_ifIXsr11__is_scalarIT1_EE7__valueET_E6__typeES4_T0_RKS3_(double* %0, i64 %1, double* dereferenceable(8) %2) #4 comdat {
  %4 = load double, double* %2, align 8
  br label %5

5:                                                ; preds = %8, %3
  %.01 = phi i64 [ %1, %3 ], [ %9, %8 ]
  %.0 = phi double* [ %0, %3 ], [ %10, %8 ]
  %6 = icmp ugt i64 %.01, 0
  br i1 %6, label %7, label %11

7:                                                ; preds = %5
  store double %4, double* %.0, align 8
  br label %8

8:                                                ; preds = %7
  %9 = add i64 %.01, -1
  %10 = getelementptr inbounds double, double* %.0, i32 1
  br label %5

11:                                               ; preds = %5
  ret double* %.0
}

; Function Attrs: noinline nounwind uwtable
define linkonce_odr double* @_ZSt12__niter_baseIPdET_S1_(double* %0) #4 comdat {
  ret double* %0
}

; Function Attrs: noinline uwtable
define linkonce_odr void @_ZNSt12_Vector_baseIdSaIdEE13_M_deallocateEPdm(%"struct.std::_Vector_base.6"* %0, double* %1, i64 %2) #0 comdat align 2 {
  %4 = icmp ne double* %1, null
  br i1 %4, label %5, label %8

5:                                                ; preds = %3
  %6 = getelementptr inbounds %"struct.std::_Vector_base.6", %"struct.std::_Vector_base.6"* %0, i32 0, i32 0
  %7 = bitcast %"struct.std::_Vector_base<double, std::allocator<double> >::_Vector_impl"* %6 to %"class.std::allocator.7"*
  call void @_ZNSt16allocator_traitsISaIdEE10deallocateERS0_Pdm(%"class.std::allocator.7"* dereferenceable(1) %7, double* %1, i64 %2)
  br label %8

8:                                                ; preds = %5, %3
  ret void
}

; Function Attrs: noinline uwtable
define linkonce_odr void @_ZNSt16allocator_traitsISaIdEE10deallocateERS0_Pdm(%"class.std::allocator.7"* dereferenceable(1) %0, double* %1, i64 %2) #0 comdat align 2 {
  %4 = bitcast %"class.std::allocator.7"* %0 to %"class.__gnu_cxx::new_allocator.8"*
  call void @_ZN9__gnu_cxx13new_allocatorIdE10deallocateEPdm(%"class.__gnu_cxx::new_allocator.8"* %4, double* %1, i64 %2)
  ret void
}

; Function Attrs: noinline nounwind uwtable
define linkonce_odr void @_ZN9__gnu_cxx13new_allocatorIdE10deallocateEPdm(%"class.__gnu_cxx::new_allocator.8"* %0, double* %1, i64 %2) #4 comdat align 2 {
  %4 = bitcast double* %1 to i8*
  call void @_ZdlPv(i8* %4) #3
  ret void
}

; Function Attrs: noinline uwtable
define linkonce_odr void @_ZSt8_DestroyIPddEvT_S1_RSaIT0_E(double* %0, double* %1, %"class.std::allocator.7"* dereferenceable(1) %2) #0 comdat {
  call void @_ZSt8_DestroyIPdEvT_S1_(double* %0, double* %1)
  ret void
}

; Function Attrs: noinline uwtable
define linkonce_odr void @_ZSt8_DestroyIPdEvT_S1_(double* %0, double* %1) #0 comdat {
  call void @_ZNSt12_Destroy_auxILb1EE9__destroyIPdEEvT_S3_(double* %0, double* %1)
  ret void
}

; Function Attrs: noinline nounwind uwtable
define linkonce_odr void @_ZNSt12_Destroy_auxILb1EE9__destroyIPdEEvT_S3_(double* %0, double* %1) #4 comdat align 2 {
  ret void
}

; Function Attrs: noinline nounwind uwtable
define linkonce_odr void @_ZNSt6vectorI4EdgeSaIS0_EEC2Ev(%"class.std::vector.0"* %0) unnamed_addr #4 comdat align 2 personality i8* bitcast (i32 (...)* @__gxx_personality_v0 to i8*) {
  %2 = bitcast %"class.std::vector.0"* %0 to %"struct.std::_Vector_base.1"*
  invoke void @_ZNSt12_Vector_baseI4EdgeSaIS0_EEC2Ev(%"struct.std::_Vector_base.1"* %2)
          to label %3 unwind label %4

3:                                                ; preds = %1
  ret void

4:                                                ; preds = %1
  %5 = landingpad { i8*, i32 }
          catch i8* null
  %6 = extractvalue { i8*, i32 } %5, 0
  call void @__clang_call_terminate(i8* %6) #13
  unreachable
}

; Function Attrs: noinline uwtable
define linkonce_odr void @_ZNSt12_Vector_baseI4EdgeSaIS0_EEC2Ev(%"struct.std::_Vector_base.1"* %0) unnamed_addr #0 comdat align 2 {
  %2 = getelementptr inbounds %"struct.std::_Vector_base.1", %"struct.std::_Vector_base.1"* %0, i32 0, i32 0
  call void @_ZNSt12_Vector_baseI4EdgeSaIS0_EE12_Vector_implC2Ev(%"struct.std::_Vector_base<Edge, std::allocator<Edge> >::_Vector_impl"* %2)
  ret void
}

; Function Attrs: noinline nounwind uwtable
define linkonce_odr void @_ZNSt12_Vector_baseI4EdgeSaIS0_EE12_Vector_implC2Ev(%"struct.std::_Vector_base<Edge, std::allocator<Edge> >::_Vector_impl"* %0) unnamed_addr #4 comdat align 2 {
  %2 = bitcast %"struct.std::_Vector_base<Edge, std::allocator<Edge> >::_Vector_impl"* %0 to %"class.std::allocator.2"*
  call void @_ZNSaI4EdgeEC2Ev(%"class.std::allocator.2"* %2) #3
  %3 = getelementptr inbounds %"struct.std::_Vector_base<Edge, std::allocator<Edge> >::_Vector_impl", %"struct.std::_Vector_base<Edge, std::allocator<Edge> >::_Vector_impl"* %0, i32 0, i32 0
  store %struct.Edge* null, %struct.Edge** %3, align 8
  %4 = getelementptr inbounds %"struct.std::_Vector_base<Edge, std::allocator<Edge> >::_Vector_impl", %"struct.std::_Vector_base<Edge, std::allocator<Edge> >::_Vector_impl"* %0, i32 0, i32 1
  store %struct.Edge* null, %struct.Edge** %4, align 8
  %5 = getelementptr inbounds %"struct.std::_Vector_base<Edge, std::allocator<Edge> >::_Vector_impl", %"struct.std::_Vector_base<Edge, std::allocator<Edge> >::_Vector_impl"* %0, i32 0, i32 2
  store %struct.Edge* null, %struct.Edge** %5, align 8
  ret void
}

; Function Attrs: noinline nounwind uwtable
define linkonce_odr void @_ZNSaI4EdgeEC2Ev(%"class.std::allocator.2"* %0) unnamed_addr #4 comdat align 2 {
  %2 = bitcast %"class.std::allocator.2"* %0 to %"class.__gnu_cxx::new_allocator.3"*
  call void @_ZN9__gnu_cxx13new_allocatorI4EdgeEC2Ev(%"class.__gnu_cxx::new_allocator.3"* %2) #3
  ret void
}

; Function Attrs: noinline nounwind uwtable
define linkonce_odr void @_ZN9__gnu_cxx13new_allocatorI4EdgeEC2Ev(%"class.__gnu_cxx::new_allocator.3"* %0) unnamed_addr #4 comdat align 2 {
  ret void
}

; Function Attrs: noinline nounwind uwtable
define linkonce_odr dereferenceable(16) %struct.Edge* @_ZSt4moveIR4EdgeEONSt16remove_referenceIT_E4typeEOS3_(%struct.Edge* dereferenceable(16) %0) #4 comdat {
  ret %struct.Edge* %0
}

; Function Attrs: noinline uwtable
define linkonce_odr void @_ZSt9push_heapIN9__gnu_cxx17__normal_iteratorIP4EdgeSt6vectorIS2_SaIS2_EEEESt4lessIS2_EEvT_SA_T0_(%struct.Edge* %0, %struct.Edge* %1) #0 comdat {
  %3 = alloca %"class.__gnu_cxx::__normal_iterator", align 8
  %4 = alloca %"class.__gnu_cxx::__normal_iterator", align 8
  %5 = alloca %"struct.std::less", align 1
  %6 = alloca %"struct.__gnu_cxx::__ops::_Iter_comp_val", align 1
  %7 = alloca %struct.Edge, align 8
  %8 = alloca %"class.__gnu_cxx::__normal_iterator", align 8
  %9 = alloca %"class.__gnu_cxx::__normal_iterator", align 8
  %10 = alloca %struct.Edge, align 8
  %11 = getelementptr inbounds %"class.__gnu_cxx::__normal_iterator", %"class.__gnu_cxx::__normal_iterator"* %3, i32 0, i32 0
  store %struct.Edge* %0, %struct.Edge** %11, align 8
  %12 = getelementptr inbounds %"class.__gnu_cxx::__normal_iterator", %"class.__gnu_cxx::__normal_iterator"* %4, i32 0, i32 0
  store %struct.Edge* %1, %struct.Edge** %12, align 8
  %13 = call dereferenceable(1) %"struct.std::less"* @_ZSt4moveIRSt4lessI4EdgeEEONSt16remove_referenceIT_E4typeEOS5_(%"struct.std::less"* dereferenceable(1) %5) #3
  call void @_ZN9__gnu_cxx5__ops14_Iter_comp_valISt4lessI4EdgeEEC2ES4_(%"struct.__gnu_cxx::__ops::_Iter_comp_val"* %6)
  %14 = call %struct.Edge* @_ZNK9__gnu_cxx17__normal_iteratorIP4EdgeSt6vectorIS1_SaIS1_EEEmiEl(%"class.__gnu_cxx::__normal_iterator"* %4, i64 1) #3
  %15 = getelementptr inbounds %"class.__gnu_cxx::__normal_iterator", %"class.__gnu_cxx::__normal_iterator"* %8, i32 0, i32 0
  store %struct.Edge* %14, %struct.Edge** %15, align 8
  %16 = call dereferenceable(16) %struct.Edge* @_ZNK9__gnu_cxx17__normal_iteratorIP4EdgeSt6vectorIS1_SaIS1_EEEdeEv(%"class.__gnu_cxx::__normal_iterator"* %8) #3
  %17 = call dereferenceable(16) %struct.Edge* @_ZSt4moveIR4EdgeEONSt16remove_referenceIT_E4typeEOS3_(%struct.Edge* dereferenceable(16) %16) #3
  %18 = bitcast %struct.Edge* %7 to i8*
  %19 = bitcast %struct.Edge* %17 to i8*
  call void @llvm.memcpy.p0i8.p0i8.i64(i8* align 8 %18, i8* align 8 %19, i64 16, i1 false)
  %20 = bitcast %"class.__gnu_cxx::__normal_iterator"* %9 to i8*
  %21 = bitcast %"class.__gnu_cxx::__normal_iterator"* %3 to i8*
  call void @llvm.memcpy.p0i8.p0i8.i64(i8* align 8 %20, i8* align 8 %21, i64 8, i1 false)
  %22 = call i64 @_ZN9__gnu_cxxmiIP4EdgeSt6vectorIS1_SaIS1_EEEENS_17__normal_iteratorIT_T0_E15difference_typeERKS9_SC_(%"class.__gnu_cxx::__normal_iterator"* dereferenceable(8) %4, %"class.__gnu_cxx::__normal_iterator"* dereferenceable(8) %3) #3
  %23 = sub nsw i64 %22, 1
  %24 = call dereferenceable(16) %struct.Edge* @_ZSt4moveIR4EdgeEONSt16remove_referenceIT_E4typeEOS3_(%struct.Edge* dereferenceable(16) %7) #3
  %25 = bitcast %struct.Edge* %10 to i8*
  %26 = bitcast %struct.Edge* %24 to i8*
  call void @llvm.memcpy.p0i8.p0i8.i64(i8* align 8 %25, i8* align 8 %26, i64 16, i1 false)
  %27 = getelementptr inbounds %"class.__gnu_cxx::__normal_iterator", %"class.__gnu_cxx::__normal_iterator"* %9, i32 0, i32 0
  %28 = load %struct.Edge*, %struct.Edge** %27, align 8
  %29 = bitcast %struct.Edge* %10 to { i64, double }*
  %30 = getelementptr inbounds { i64, double }, { i64, double }* %29, i32 0, i32 0
  %31 = load i64, i64* %30, align 8
  %32 = getelementptr inbounds { i64, double }, { i64, double }* %29, i32 0, i32 1
  %33 = load double, double* %32, align 8
  call void @_ZSt11__push_heapIN9__gnu_cxx17__normal_iteratorIP4EdgeSt6vectorIS2_SaIS2_EEEElS2_NS0_5__ops14_Iter_comp_valISt4lessIS2_EEEEvT_T0_SE_T1_RT2_(%struct.Edge* %28, i64 %23, i64 0, i64 %31, double %33, %"struct.__gnu_cxx::__ops::_Iter_comp_val"* dereferenceable(1) %6)
  ret void
}

; Function Attrs: noinline nounwind uwtable
define linkonce_odr %struct.Edge* @_ZNSt6vectorI4EdgeSaIS0_EE5beginEv(%"class.std::vector.0"* %0) #4 comdat align 2 {
  %2 = alloca %"class.__gnu_cxx::__normal_iterator", align 8
  %3 = bitcast %"class.std::vector.0"* %0 to %"struct.std::_Vector_base.1"*
  %4 = getelementptr inbounds %"struct.std::_Vector_base.1", %"struct.std::_Vector_base.1"* %3, i32 0, i32 0
  %5 = getelementptr inbounds %"struct.std::_Vector_base<Edge, std::allocator<Edge> >::_Vector_impl", %"struct.std::_Vector_base<Edge, std::allocator<Edge> >::_Vector_impl"* %4, i32 0, i32 0
  call void @_ZN9__gnu_cxx17__normal_iteratorIP4EdgeSt6vectorIS1_SaIS1_EEEC2ERKS2_(%"class.__gnu_cxx::__normal_iterator"* %2, %struct.Edge** dereferenceable(8) %5) #3
  %6 = getelementptr inbounds %"class.__gnu_cxx::__normal_iterator", %"class.__gnu_cxx::__normal_iterator"* %2, i32 0, i32 0
  %7 = load %struct.Edge*, %struct.Edge** %6, align 8
  ret %struct.Edge* %7
}

; Function Attrs: noinline nounwind uwtable
define linkonce_odr %struct.Edge* @_ZNSt6vectorI4EdgeSaIS0_EE3endEv(%"class.std::vector.0"* %0) #4 comdat align 2 {
  %2 = alloca %"class.__gnu_cxx::__normal_iterator", align 8
  %3 = bitcast %"class.std::vector.0"* %0 to %"struct.std::_Vector_base.1"*
  %4 = getelementptr inbounds %"struct.std::_Vector_base.1", %"struct.std::_Vector_base.1"* %3, i32 0, i32 0
  %5 = getelementptr inbounds %"struct.std::_Vector_base<Edge, std::allocator<Edge> >::_Vector_impl", %"struct.std::_Vector_base<Edge, std::allocator<Edge> >::_Vector_impl"* %4, i32 0, i32 1
  call void @_ZN9__gnu_cxx17__normal_iteratorIP4EdgeSt6vectorIS1_SaIS1_EEEC2ERKS2_(%"class.__gnu_cxx::__normal_iterator"* %2, %struct.Edge** dereferenceable(8) %5) #3
  %6 = getelementptr inbounds %"class.__gnu_cxx::__normal_iterator", %"class.__gnu_cxx::__normal_iterator"* %2, i32 0, i32 0
  %7 = load %struct.Edge*, %struct.Edge** %6, align 8
  ret %struct.Edge* %7
}

; Function Attrs: noinline nounwind uwtable
define linkonce_odr dereferenceable(1) %"struct.std::less"* @_ZSt4moveIRSt4lessI4EdgeEEONSt16remove_referenceIT_E4typeEOS5_(%"struct.std::less"* dereferenceable(1) %0) #4 comdat {
  ret %"struct.std::less"* %0
}

; Function Attrs: noinline nounwind uwtable
define linkonce_odr void @_ZN9__gnu_cxx5__ops14_Iter_comp_valISt4lessI4EdgeEEC2ES4_(%"struct.__gnu_cxx::__ops::_Iter_comp_val"* %0) unnamed_addr #4 comdat align 2 {
  %2 = alloca %"struct.std::less", align 1
  %3 = getelementptr inbounds %"struct.__gnu_cxx::__ops::_Iter_comp_val", %"struct.__gnu_cxx::__ops::_Iter_comp_val"* %0, i32 0, i32 0
  %4 = call dereferenceable(1) %"struct.std::less"* @_ZSt4moveIRSt4lessI4EdgeEEONSt16remove_referenceIT_E4typeEOS5_(%"struct.std::less"* dereferenceable(1) %2) #3
  ret void
}

; Function Attrs: noinline nounwind uwtable
define linkonce_odr %struct.Edge* @_ZNK9__gnu_cxx17__normal_iteratorIP4EdgeSt6vectorIS1_SaIS1_EEEmiEl(%"class.__gnu_cxx::__normal_iterator"* %0, i64 %1) #4 comdat align 2 {
  %3 = alloca %"class.__gnu_cxx::__normal_iterator", align 8
  %4 = alloca %struct.Edge*, align 8
  %5 = getelementptr inbounds %"class.__gnu_cxx::__normal_iterator", %"class.__gnu_cxx::__normal_iterator"* %0, i32 0, i32 0
  %6 = load %struct.Edge*, %struct.Edge** %5, align 8
  %7 = sub i64 0, %1
  %8 = getelementptr inbounds %struct.Edge, %struct.Edge* %6, i64 %7
  store %struct.Edge* %8, %struct.Edge** %4, align 8
  call void @_ZN9__gnu_cxx17__normal_iteratorIP4EdgeSt6vectorIS1_SaIS1_EEEC2ERKS2_(%"class.__gnu_cxx::__normal_iterator"* %3, %struct.Edge** dereferenceable(8) %4) #3
  %9 = getelementptr inbounds %"class.__gnu_cxx::__normal_iterator", %"class.__gnu_cxx::__normal_iterator"* %3, i32 0, i32 0
  %10 = load %struct.Edge*, %struct.Edge** %9, align 8
  ret %struct.Edge* %10
}

; Function Attrs: noinline nounwind uwtable
define linkonce_odr dereferenceable(16) %struct.Edge* @_ZNK9__gnu_cxx17__normal_iteratorIP4EdgeSt6vectorIS1_SaIS1_EEEdeEv(%"class.__gnu_cxx::__normal_iterator"* %0) #4 comdat align 2 {
  %2 = getelementptr inbounds %"class.__gnu_cxx::__normal_iterator", %"class.__gnu_cxx::__normal_iterator"* %0, i32 0, i32 0
  %3 = load %struct.Edge*, %struct.Edge** %2, align 8
  ret %struct.Edge* %3
}

; Function Attrs: noinline uwtable
define linkonce_odr void @_ZSt11__push_heapIN9__gnu_cxx17__normal_iteratorIP4EdgeSt6vectorIS2_SaIS2_EEEElS2_NS0_5__ops14_Iter_comp_valISt4lessIS2_EEEEvT_T0_SE_T1_RT2_(%struct.Edge* %0, i64 %1, i64 %2, i64 %3, double %4, %"struct.__gnu_cxx::__ops::_Iter_comp_val"* dereferenceable(1) %5) #0 comdat {
  %7 = alloca %"class.__gnu_cxx::__normal_iterator", align 8
  %8 = alloca %struct.Edge, align 8
  %9 = alloca %"class.__gnu_cxx::__normal_iterator", align 8
  %10 = alloca %"class.__gnu_cxx::__normal_iterator", align 8
  %11 = alloca %"class.__gnu_cxx::__normal_iterator", align 8
  %12 = alloca %"class.__gnu_cxx::__normal_iterator", align 8
  %13 = getelementptr inbounds %"class.__gnu_cxx::__normal_iterator", %"class.__gnu_cxx::__normal_iterator"* %7, i32 0, i32 0
  store %struct.Edge* %0, %struct.Edge** %13, align 8
  %14 = bitcast %struct.Edge* %8 to { i64, double }*
  %15 = getelementptr inbounds { i64, double }, { i64, double }* %14, i32 0, i32 0
  store i64 %3, i64* %15, align 8
  %16 = getelementptr inbounds { i64, double }, { i64, double }* %14, i32 0, i32 1
  store double %4, double* %16, align 8
  %17 = sub nsw i64 %1, 1
  %18 = sdiv i64 %17, 2
  br label %19

19:                                               ; preds = %29, %6
  %.01 = phi i64 [ %18, %6 ], [ %40, %29 ]
  %.0 = phi i64 [ %1, %6 ], [ %.01, %29 ]
  %20 = icmp sgt i64 %.0, %2
  br i1 %20, label %21, label %27

21:                                               ; preds = %19
  %22 = call %struct.Edge* @_ZNK9__gnu_cxx17__normal_iteratorIP4EdgeSt6vectorIS1_SaIS1_EEEplEl(%"class.__gnu_cxx::__normal_iterator"* %7, i64 %.01) #3
  %23 = getelementptr inbounds %"class.__gnu_cxx::__normal_iterator", %"class.__gnu_cxx::__normal_iterator"* %9, i32 0, i32 0
  store %struct.Edge* %22, %struct.Edge** %23, align 8
  %24 = getelementptr inbounds %"class.__gnu_cxx::__normal_iterator", %"class.__gnu_cxx::__normal_iterator"* %9, i32 0, i32 0
  %25 = load %struct.Edge*, %struct.Edge** %24, align 8
  %26 = call zeroext i1 @_ZN9__gnu_cxx5__ops14_Iter_comp_valISt4lessI4EdgeEEclINS_17__normal_iteratorIPS3_St6vectorIS3_SaIS3_EEEES3_EEbT_RT0_(%"struct.__gnu_cxx::__ops::_Iter_comp_val"* %5, %struct.Edge* %25, %struct.Edge* dereferenceable(16) %8)
  br label %27

27:                                               ; preds = %21, %19
  %28 = phi i1 [ false, %19 ], [ %26, %21 ]
  br i1 %28, label %29, label %41

29:                                               ; preds = %27
  %30 = call %struct.Edge* @_ZNK9__gnu_cxx17__normal_iteratorIP4EdgeSt6vectorIS1_SaIS1_EEEplEl(%"class.__gnu_cxx::__normal_iterator"* %7, i64 %.01) #3
  %31 = getelementptr inbounds %"class.__gnu_cxx::__normal_iterator", %"class.__gnu_cxx::__normal_iterator"* %10, i32 0, i32 0
  store %struct.Edge* %30, %struct.Edge** %31, align 8
  %32 = call dereferenceable(16) %struct.Edge* @_ZNK9__gnu_cxx17__normal_iteratorIP4EdgeSt6vectorIS1_SaIS1_EEEdeEv(%"class.__gnu_cxx::__normal_iterator"* %10) #3
  %33 = call dereferenceable(16) %struct.Edge* @_ZSt4moveIR4EdgeEONSt16remove_referenceIT_E4typeEOS3_(%struct.Edge* dereferenceable(16) %32) #3
  %34 = call %struct.Edge* @_ZNK9__gnu_cxx17__normal_iteratorIP4EdgeSt6vectorIS1_SaIS1_EEEplEl(%"class.__gnu_cxx::__normal_iterator"* %7, i64 %.0) #3
  %35 = getelementptr inbounds %"class.__gnu_cxx::__normal_iterator", %"class.__gnu_cxx::__normal_iterator"* %11, i32 0, i32 0
  store %struct.Edge* %34, %struct.Edge** %35, align 8
  %36 = call dereferenceable(16) %struct.Edge* @_ZNK9__gnu_cxx17__normal_iteratorIP4EdgeSt6vectorIS1_SaIS1_EEEdeEv(%"class.__gnu_cxx::__normal_iterator"* %11) #3
  %37 = bitcast %struct.Edge* %36 to i8*
  %38 = bitcast %struct.Edge* %33 to i8*
  call void @llvm.memcpy.p0i8.p0i8.i64(i8* align 8 %37, i8* align 8 %38, i64 16, i1 false)
  %39 = sub nsw i64 %.01, 1
  %40 = sdiv i64 %39, 2
  br label %19

41:                                               ; preds = %27
  %42 = call dereferenceable(16) %struct.Edge* @_ZSt4moveIR4EdgeEONSt16remove_referenceIT_E4typeEOS3_(%struct.Edge* dereferenceable(16) %8) #3
  %43 = call %struct.Edge* @_ZNK9__gnu_cxx17__normal_iteratorIP4EdgeSt6vectorIS1_SaIS1_EEEplEl(%"class.__gnu_cxx::__normal_iterator"* %7, i64 %.0) #3
  %44 = getelementptr inbounds %"class.__gnu_cxx::__normal_iterator", %"class.__gnu_cxx::__normal_iterator"* %12, i32 0, i32 0
  store %struct.Edge* %43, %struct.Edge** %44, align 8
  %45 = call dereferenceable(16) %struct.Edge* @_ZNK9__gnu_cxx17__normal_iteratorIP4EdgeSt6vectorIS1_SaIS1_EEEdeEv(%"class.__gnu_cxx::__normal_iterator"* %12) #3
  %46 = bitcast %struct.Edge* %45 to i8*
  %47 = bitcast %struct.Edge* %42 to i8*
  call void @llvm.memcpy.p0i8.p0i8.i64(i8* align 8 %46, i8* align 8 %47, i64 16, i1 false)
  ret void
}

; Function Attrs: noinline nounwind uwtable
define linkonce_odr i64 @_ZN9__gnu_cxxmiIP4EdgeSt6vectorIS1_SaIS1_EEEENS_17__normal_iteratorIT_T0_E15difference_typeERKS9_SC_(%"class.__gnu_cxx::__normal_iterator"* dereferenceable(8) %0, %"class.__gnu_cxx::__normal_iterator"* dereferenceable(8) %1) #4 comdat {
  %3 = call dereferenceable(8) %struct.Edge** @_ZNK9__gnu_cxx17__normal_iteratorIP4EdgeSt6vectorIS1_SaIS1_EEE4baseEv(%"class.__gnu_cxx::__normal_iterator"* %0) #3
  %4 = load %struct.Edge*, %struct.Edge** %3, align 8
  %5 = call dereferenceable(8) %struct.Edge** @_ZNK9__gnu_cxx17__normal_iteratorIP4EdgeSt6vectorIS1_SaIS1_EEE4baseEv(%"class.__gnu_cxx::__normal_iterator"* %1) #3
  %6 = load %struct.Edge*, %struct.Edge** %5, align 8
  %7 = ptrtoint %struct.Edge* %4 to i64
  %8 = ptrtoint %struct.Edge* %6 to i64
  %9 = sub i64 %7, %8
  %10 = sdiv exact i64 %9, 16
  ret i64 %10
}

; Function Attrs: noinline nounwind uwtable
define linkonce_odr void @_ZN9__gnu_cxx17__normal_iteratorIP4EdgeSt6vectorIS1_SaIS1_EEEC2ERKS2_(%"class.__gnu_cxx::__normal_iterator"* %0, %struct.Edge** dereferenceable(8) %1) unnamed_addr #4 comdat align 2 {
  %3 = getelementptr inbounds %"class.__gnu_cxx::__normal_iterator", %"class.__gnu_cxx::__normal_iterator"* %0, i32 0, i32 0
  %4 = load %struct.Edge*, %struct.Edge** %1, align 8
  store %struct.Edge* %4, %struct.Edge** %3, align 8
  ret void
}

; Function Attrs: noinline uwtable
define linkonce_odr zeroext i1 @_ZN9__gnu_cxx5__ops14_Iter_comp_valISt4lessI4EdgeEEclINS_17__normal_iteratorIPS3_St6vectorIS3_SaIS3_EEEES3_EEbT_RT0_(%"struct.__gnu_cxx::__ops::_Iter_comp_val"* %0, %struct.Edge* %1, %struct.Edge* dereferenceable(16) %2) #0 comdat align 2 {
  %4 = alloca %"class.__gnu_cxx::__normal_iterator", align 8
  %5 = getelementptr inbounds %"class.__gnu_cxx::__normal_iterator", %"class.__gnu_cxx::__normal_iterator"* %4, i32 0, i32 0
  store %struct.Edge* %1, %struct.Edge** %5, align 8
  %6 = getelementptr inbounds %"struct.__gnu_cxx::__ops::_Iter_comp_val", %"struct.__gnu_cxx::__ops::_Iter_comp_val"* %0, i32 0, i32 0
  %7 = call dereferenceable(16) %struct.Edge* @_ZNK9__gnu_cxx17__normal_iteratorIP4EdgeSt6vectorIS1_SaIS1_EEEdeEv(%"class.__gnu_cxx::__normal_iterator"* %4) #3
  %8 = call zeroext i1 @_ZNKSt4lessI4EdgeEclERKS0_S3_(%"struct.std::less"* %6, %struct.Edge* dereferenceable(16) %7, %struct.Edge* dereferenceable(16) %2)
  ret i1 %8
}

; Function Attrs: noinline nounwind uwtable
define linkonce_odr %struct.Edge* @_ZNK9__gnu_cxx17__normal_iteratorIP4EdgeSt6vectorIS1_SaIS1_EEEplEl(%"class.__gnu_cxx::__normal_iterator"* %0, i64 %1) #4 comdat align 2 {
  %3 = alloca %"class.__gnu_cxx::__normal_iterator", align 8
  %4 = alloca %struct.Edge*, align 8
  %5 = getelementptr inbounds %"class.__gnu_cxx::__normal_iterator", %"class.__gnu_cxx::__normal_iterator"* %0, i32 0, i32 0
  %6 = load %struct.Edge*, %struct.Edge** %5, align 8
  %7 = getelementptr inbounds %struct.Edge, %struct.Edge* %6, i64 %1
  store %struct.Edge* %7, %struct.Edge** %4, align 8
  call void @_ZN9__gnu_cxx17__normal_iteratorIP4EdgeSt6vectorIS1_SaIS1_EEEC2ERKS2_(%"class.__gnu_cxx::__normal_iterator"* %3, %struct.Edge** dereferenceable(8) %4) #3
  %8 = getelementptr inbounds %"class.__gnu_cxx::__normal_iterator", %"class.__gnu_cxx::__normal_iterator"* %3, i32 0, i32 0
  %9 = load %struct.Edge*, %struct.Edge** %8, align 8
  ret %struct.Edge* %9
}

; Function Attrs: noinline nounwind uwtable
define linkonce_odr zeroext i1 @_ZNKSt4lessI4EdgeEclERKS0_S3_(%"struct.std::less"* %0, %struct.Edge* dereferenceable(16) %1, %struct.Edge* dereferenceable(16) %2) #4 comdat align 2 {
  %4 = call zeroext i1 @_ZltRK4EdgeS1_(%struct.Edge* dereferenceable(16) %1, %struct.Edge* dereferenceable(16) %2)
  ret i1 %4
}

; Function Attrs: noinline nounwind uwtable
define linkonce_odr dereferenceable(8) %struct.Edge** @_ZNK9__gnu_cxx17__normal_iteratorIP4EdgeSt6vectorIS1_SaIS1_EEE4baseEv(%"class.__gnu_cxx::__normal_iterator"* %0) #4 comdat align 2 {
  %2 = getelementptr inbounds %"class.__gnu_cxx::__normal_iterator", %"class.__gnu_cxx::__normal_iterator"* %0, i32 0, i32 0
  ret %struct.Edge** %2
}

; Function Attrs: noinline nounwind uwtable
define linkonce_odr zeroext i1 @_ZNKSt6vectorI4EdgeSaIS0_EE5emptyEv(%"class.std::vector.0"* %0) #4 comdat align 2 {
  %2 = alloca %"class.__gnu_cxx::__normal_iterator.15", align 8
  %3 = alloca %"class.__gnu_cxx::__normal_iterator.15", align 8
  %4 = call %struct.Edge* @_ZNKSt6vectorI4EdgeSaIS0_EE5beginEv(%"class.std::vector.0"* %0) #3
  %5 = getelementptr inbounds %"class.__gnu_cxx::__normal_iterator.15", %"class.__gnu_cxx::__normal_iterator.15"* %2, i32 0, i32 0
  store %struct.Edge* %4, %struct.Edge** %5, align 8
  %6 = call %struct.Edge* @_ZNKSt6vectorI4EdgeSaIS0_EE3endEv(%"class.std::vector.0"* %0) #3
  %7 = getelementptr inbounds %"class.__gnu_cxx::__normal_iterator.15", %"class.__gnu_cxx::__normal_iterator.15"* %3, i32 0, i32 0
  store %struct.Edge* %6, %struct.Edge** %7, align 8
  %8 = call zeroext i1 @_ZN9__gnu_cxxeqIPK4EdgeSt6vectorIS1_SaIS1_EEEEbRKNS_17__normal_iteratorIT_T0_EESC_(%"class.__gnu_cxx::__normal_iterator.15"* dereferenceable(8) %2, %"class.__gnu_cxx::__normal_iterator.15"* dereferenceable(8) %3) #3
  ret i1 %8
}

; Function Attrs: noinline nounwind uwtable
define linkonce_odr zeroext i1 @_ZN9__gnu_cxxeqIPK4EdgeSt6vectorIS1_SaIS1_EEEEbRKNS_17__normal_iteratorIT_T0_EESC_(%"class.__gnu_cxx::__normal_iterator.15"* dereferenceable(8) %0, %"class.__gnu_cxx::__normal_iterator.15"* dereferenceable(8) %1) #4 comdat {
  %3 = call dereferenceable(8) %struct.Edge** @_ZNK9__gnu_cxx17__normal_iteratorIPK4EdgeSt6vectorIS1_SaIS1_EEE4baseEv(%"class.__gnu_cxx::__normal_iterator.15"* %0) #3
  %4 = load %struct.Edge*, %struct.Edge** %3, align 8
  %5 = call dereferenceable(8) %struct.Edge** @_ZNK9__gnu_cxx17__normal_iteratorIPK4EdgeSt6vectorIS1_SaIS1_EEE4baseEv(%"class.__gnu_cxx::__normal_iterator.15"* %1) #3
  %6 = load %struct.Edge*, %struct.Edge** %5, align 8
  %7 = icmp eq %struct.Edge* %4, %6
  ret i1 %7
}

; Function Attrs: noinline nounwind uwtable
define linkonce_odr %struct.Edge* @_ZNKSt6vectorI4EdgeSaIS0_EE5beginEv(%"class.std::vector.0"* %0) #4 comdat align 2 {
  %2 = alloca %"class.__gnu_cxx::__normal_iterator.15", align 8
  %3 = alloca %struct.Edge*, align 8
  %4 = bitcast %"class.std::vector.0"* %0 to %"struct.std::_Vector_base.1"*
  %5 = getelementptr inbounds %"struct.std::_Vector_base.1", %"struct.std::_Vector_base.1"* %4, i32 0, i32 0
  %6 = getelementptr inbounds %"struct.std::_Vector_base<Edge, std::allocator<Edge> >::_Vector_impl", %"struct.std::_Vector_base<Edge, std::allocator<Edge> >::_Vector_impl"* %5, i32 0, i32 0
  %7 = load %struct.Edge*, %struct.Edge** %6, align 8
  store %struct.Edge* %7, %struct.Edge** %3, align 8
  call void @_ZN9__gnu_cxx17__normal_iteratorIPK4EdgeSt6vectorIS1_SaIS1_EEEC2ERKS3_(%"class.__gnu_cxx::__normal_iterator.15"* %2, %struct.Edge** dereferenceable(8) %3) #3
  %8 = getelementptr inbounds %"class.__gnu_cxx::__normal_iterator.15", %"class.__gnu_cxx::__normal_iterator.15"* %2, i32 0, i32 0
  %9 = load %struct.Edge*, %struct.Edge** %8, align 8
  ret %struct.Edge* %9
}

; Function Attrs: noinline nounwind uwtable
define linkonce_odr %struct.Edge* @_ZNKSt6vectorI4EdgeSaIS0_EE3endEv(%"class.std::vector.0"* %0) #4 comdat align 2 {
  %2 = alloca %"class.__gnu_cxx::__normal_iterator.15", align 8
  %3 = alloca %struct.Edge*, align 8
  %4 = bitcast %"class.std::vector.0"* %0 to %"struct.std::_Vector_base.1"*
  %5 = getelementptr inbounds %"struct.std::_Vector_base.1", %"struct.std::_Vector_base.1"* %4, i32 0, i32 0
  %6 = getelementptr inbounds %"struct.std::_Vector_base<Edge, std::allocator<Edge> >::_Vector_impl", %"struct.std::_Vector_base<Edge, std::allocator<Edge> >::_Vector_impl"* %5, i32 0, i32 1
  %7 = load %struct.Edge*, %struct.Edge** %6, align 8
  store %struct.Edge* %7, %struct.Edge** %3, align 8
  call void @_ZN9__gnu_cxx17__normal_iteratorIPK4EdgeSt6vectorIS1_SaIS1_EEEC2ERKS3_(%"class.__gnu_cxx::__normal_iterator.15"* %2, %struct.Edge** dereferenceable(8) %3) #3
  %8 = getelementptr inbounds %"class.__gnu_cxx::__normal_iterator.15", %"class.__gnu_cxx::__normal_iterator.15"* %2, i32 0, i32 0
  %9 = load %struct.Edge*, %struct.Edge** %8, align 8
  ret %struct.Edge* %9
}

; Function Attrs: noinline nounwind uwtable
define linkonce_odr dereferenceable(8) %struct.Edge** @_ZNK9__gnu_cxx17__normal_iteratorIPK4EdgeSt6vectorIS1_SaIS1_EEE4baseEv(%"class.__gnu_cxx::__normal_iterator.15"* %0) #4 comdat align 2 {
  %2 = getelementptr inbounds %"class.__gnu_cxx::__normal_iterator.15", %"class.__gnu_cxx::__normal_iterator.15"* %0, i32 0, i32 0
  ret %struct.Edge** %2
}

; Function Attrs: noinline nounwind uwtable
define linkonce_odr void @_ZN9__gnu_cxx17__normal_iteratorIPK4EdgeSt6vectorIS1_SaIS1_EEEC2ERKS3_(%"class.__gnu_cxx::__normal_iterator.15"* %0, %struct.Edge** dereferenceable(8) %1) unnamed_addr #4 comdat align 2 {
  %3 = getelementptr inbounds %"class.__gnu_cxx::__normal_iterator.15", %"class.__gnu_cxx::__normal_iterator.15"* %0, i32 0, i32 0
  %4 = load %struct.Edge*, %struct.Edge** %1, align 8
  store %struct.Edge* %4, %struct.Edge** %3, align 8
  ret void
}

; Function Attrs: noinline nounwind uwtable
define linkonce_odr dereferenceable(16) %struct.Edge* @_ZNKSt6vectorI4EdgeSaIS0_EE5frontEv(%"class.std::vector.0"* %0) #4 comdat align 2 {
  %2 = alloca %"class.__gnu_cxx::__normal_iterator.15", align 8
  %3 = call %struct.Edge* @_ZNKSt6vectorI4EdgeSaIS0_EE5beginEv(%"class.std::vector.0"* %0) #3
  %4 = getelementptr inbounds %"class.__gnu_cxx::__normal_iterator.15", %"class.__gnu_cxx::__normal_iterator.15"* %2, i32 0, i32 0
  store %struct.Edge* %3, %struct.Edge** %4, align 8
  %5 = call dereferenceable(16) %struct.Edge* @_ZNK9__gnu_cxx17__normal_iteratorIPK4EdgeSt6vectorIS1_SaIS1_EEEdeEv(%"class.__gnu_cxx::__normal_iterator.15"* %2) #3
  ret %struct.Edge* %5
}

; Function Attrs: noinline nounwind uwtable
define linkonce_odr dereferenceable(16) %struct.Edge* @_ZNK9__gnu_cxx17__normal_iteratorIPK4EdgeSt6vectorIS1_SaIS1_EEEdeEv(%"class.__gnu_cxx::__normal_iterator.15"* %0) #4 comdat align 2 {
  %2 = getelementptr inbounds %"class.__gnu_cxx::__normal_iterator.15", %"class.__gnu_cxx::__normal_iterator.15"* %0, i32 0, i32 0
  %3 = load %struct.Edge*, %struct.Edge** %2, align 8
  ret %struct.Edge* %3
}

; Function Attrs: noinline uwtable
define linkonce_odr void @_ZSt8pop_heapIN9__gnu_cxx17__normal_iteratorIP4EdgeSt6vectorIS2_SaIS2_EEEESt4lessIS2_EEvT_SA_T0_(%struct.Edge* %0, %struct.Edge* %1) #0 comdat {
  %3 = alloca %"class.__gnu_cxx::__normal_iterator", align 8
  %4 = alloca %"class.__gnu_cxx::__normal_iterator", align 8
  %5 = alloca %"struct.std::less", align 1
  %6 = alloca %"struct.__gnu_cxx::__ops::_Iter_comp_iter", align 1
  %7 = alloca %"class.__gnu_cxx::__normal_iterator", align 8
  %8 = alloca %"class.__gnu_cxx::__normal_iterator", align 8
  %9 = alloca %"class.__gnu_cxx::__normal_iterator", align 8
  %10 = getelementptr inbounds %"class.__gnu_cxx::__normal_iterator", %"class.__gnu_cxx::__normal_iterator"* %3, i32 0, i32 0
  store %struct.Edge* %0, %struct.Edge** %10, align 8
  %11 = getelementptr inbounds %"class.__gnu_cxx::__normal_iterator", %"class.__gnu_cxx::__normal_iterator"* %4, i32 0, i32 0
  store %struct.Edge* %1, %struct.Edge** %11, align 8
  %12 = call i64 @_ZN9__gnu_cxxmiIP4EdgeSt6vectorIS1_SaIS1_EEEENS_17__normal_iteratorIT_T0_E15difference_typeERKS9_SC_(%"class.__gnu_cxx::__normal_iterator"* dereferenceable(8) %4, %"class.__gnu_cxx::__normal_iterator"* dereferenceable(8) %3) #3
  %13 = icmp sgt i64 %12, 1
  br i1 %13, label %14, label %29

14:                                               ; preds = %2
  %15 = call dereferenceable(1) %"struct.std::less"* @_ZSt4moveIRSt4lessI4EdgeEEONSt16remove_referenceIT_E4typeEOS5_(%"struct.std::less"* dereferenceable(1) %5) #3
  call void @_ZN9__gnu_cxx5__ops15_Iter_comp_iterISt4lessI4EdgeEEC2ES4_(%"struct.__gnu_cxx::__ops::_Iter_comp_iter"* %6)
  %16 = call dereferenceable(8) %"class.__gnu_cxx::__normal_iterator"* @_ZN9__gnu_cxx17__normal_iteratorIP4EdgeSt6vectorIS1_SaIS1_EEEmmEv(%"class.__gnu_cxx::__normal_iterator"* %4) #3
  %17 = bitcast %"class.__gnu_cxx::__normal_iterator"* %7 to i8*
  %18 = bitcast %"class.__gnu_cxx::__normal_iterator"* %3 to i8*
  call void @llvm.memcpy.p0i8.p0i8.i64(i8* align 8 %17, i8* align 8 %18, i64 8, i1 false)
  %19 = bitcast %"class.__gnu_cxx::__normal_iterator"* %8 to i8*
  %20 = bitcast %"class.__gnu_cxx::__normal_iterator"* %4 to i8*
  call void @llvm.memcpy.p0i8.p0i8.i64(i8* align 8 %19, i8* align 8 %20, i64 8, i1 false)
  %21 = bitcast %"class.__gnu_cxx::__normal_iterator"* %9 to i8*
  %22 = bitcast %"class.__gnu_cxx::__normal_iterator"* %4 to i8*
  call void @llvm.memcpy.p0i8.p0i8.i64(i8* align 8 %21, i8* align 8 %22, i64 8, i1 false)
  %23 = getelementptr inbounds %"class.__gnu_cxx::__normal_iterator", %"class.__gnu_cxx::__normal_iterator"* %7, i32 0, i32 0
  %24 = load %struct.Edge*, %struct.Edge** %23, align 8
  %25 = getelementptr inbounds %"class.__gnu_cxx::__normal_iterator", %"class.__gnu_cxx::__normal_iterator"* %8, i32 0, i32 0
  %26 = load %struct.Edge*, %struct.Edge** %25, align 8
  %27 = getelementptr inbounds %"class.__gnu_cxx::__normal_iterator", %"class.__gnu_cxx::__normal_iterator"* %9, i32 0, i32 0
  %28 = load %struct.Edge*, %struct.Edge** %27, align 8
  call void @_ZSt10__pop_heapIN9__gnu_cxx17__normal_iteratorIP4EdgeSt6vectorIS2_SaIS2_EEEENS0_5__ops15_Iter_comp_iterISt4lessIS2_EEEEvT_SD_SD_RT0_(%struct.Edge* %24, %struct.Edge* %26, %struct.Edge* %28, %"struct.__gnu_cxx::__ops::_Iter_comp_iter"* dereferenceable(1) %6)
  br label %29

29:                                               ; preds = %14, %2
  ret void
}

; Function Attrs: noinline nounwind uwtable
define linkonce_odr void @_ZNSt6vectorI4EdgeSaIS0_EE8pop_backEv(%"class.std::vector.0"* %0) #4 comdat align 2 personality i8* bitcast (i32 (...)* @__gxx_personality_v0 to i8*) {
  %2 = bitcast %"class.std::vector.0"* %0 to %"struct.std::_Vector_base.1"*
  %3 = getelementptr inbounds %"struct.std::_Vector_base.1", %"struct.std::_Vector_base.1"* %2, i32 0, i32 0
  %4 = getelementptr inbounds %"struct.std::_Vector_base<Edge, std::allocator<Edge> >::_Vector_impl", %"struct.std::_Vector_base<Edge, std::allocator<Edge> >::_Vector_impl"* %3, i32 0, i32 1
  %5 = load %struct.Edge*, %struct.Edge** %4, align 8
  %6 = getelementptr inbounds %struct.Edge, %struct.Edge* %5, i32 -1
  store %struct.Edge* %6, %struct.Edge** %4, align 8
  %7 = bitcast %"class.std::vector.0"* %0 to %"struct.std::_Vector_base.1"*
  %8 = getelementptr inbounds %"struct.std::_Vector_base.1", %"struct.std::_Vector_base.1"* %7, i32 0, i32 0
  %9 = bitcast %"struct.std::_Vector_base<Edge, std::allocator<Edge> >::_Vector_impl"* %8 to %"class.std::allocator.2"*
  %10 = bitcast %"class.std::vector.0"* %0 to %"struct.std::_Vector_base.1"*
  %11 = getelementptr inbounds %"struct.std::_Vector_base.1", %"struct.std::_Vector_base.1"* %10, i32 0, i32 0
  %12 = getelementptr inbounds %"struct.std::_Vector_base<Edge, std::allocator<Edge> >::_Vector_impl", %"struct.std::_Vector_base<Edge, std::allocator<Edge> >::_Vector_impl"* %11, i32 0, i32 1
  %13 = load %struct.Edge*, %struct.Edge** %12, align 8
  invoke void @_ZNSt16allocator_traitsISaI4EdgeEE7destroyIS0_EEvRS1_PT_(%"class.std::allocator.2"* dereferenceable(1) %9, %struct.Edge* %13)
          to label %14 unwind label %15

14:                                               ; preds = %1
  ret void

15:                                               ; preds = %1
  %16 = landingpad { i8*, i32 }
          catch i8* null
  %17 = extractvalue { i8*, i32 } %16, 0
  call void @__clang_call_terminate(i8* %17) #13
  unreachable
}

; Function Attrs: noinline nounwind uwtable
define linkonce_odr void @_ZN9__gnu_cxx5__ops15_Iter_comp_iterISt4lessI4EdgeEEC2ES4_(%"struct.__gnu_cxx::__ops::_Iter_comp_iter"* %0) unnamed_addr #4 comdat align 2 {
  %2 = alloca %"struct.std::less", align 1
  %3 = getelementptr inbounds %"struct.__gnu_cxx::__ops::_Iter_comp_iter", %"struct.__gnu_cxx::__ops::_Iter_comp_iter"* %0, i32 0, i32 0
  %4 = call dereferenceable(1) %"struct.std::less"* @_ZSt4moveIRSt4lessI4EdgeEEONSt16remove_referenceIT_E4typeEOS5_(%"struct.std::less"* dereferenceable(1) %2) #3
  ret void
}

; Function Attrs: noinline nounwind uwtable
define linkonce_odr dereferenceable(8) %"class.__gnu_cxx::__normal_iterator"* @_ZN9__gnu_cxx17__normal_iteratorIP4EdgeSt6vectorIS1_SaIS1_EEEmmEv(%"class.__gnu_cxx::__normal_iterator"* %0) #4 comdat align 2 {
  %2 = getelementptr inbounds %"class.__gnu_cxx::__normal_iterator", %"class.__gnu_cxx::__normal_iterator"* %0, i32 0, i32 0
  %3 = load %struct.Edge*, %struct.Edge** %2, align 8
  %4 = getelementptr inbounds %struct.Edge, %struct.Edge* %3, i32 -1
  store %struct.Edge* %4, %struct.Edge** %2, align 8
  ret %"class.__gnu_cxx::__normal_iterator"* %0
}

; Function Attrs: noinline uwtable
define linkonce_odr void @_ZSt10__pop_heapIN9__gnu_cxx17__normal_iteratorIP4EdgeSt6vectorIS2_SaIS2_EEEENS0_5__ops15_Iter_comp_iterISt4lessIS2_EEEEvT_SD_SD_RT0_(%struct.Edge* %0, %struct.Edge* %1, %struct.Edge* %2, %"struct.__gnu_cxx::__ops::_Iter_comp_iter"* dereferenceable(1) %3) #0 comdat {
  %5 = alloca %"class.__gnu_cxx::__normal_iterator", align 8
  %6 = alloca %"class.__gnu_cxx::__normal_iterator", align 8
  %7 = alloca %"class.__gnu_cxx::__normal_iterator", align 8
  %8 = alloca %struct.Edge, align 8
  %9 = alloca %"class.__gnu_cxx::__normal_iterator", align 8
  %10 = alloca %struct.Edge, align 8
  %11 = alloca %"struct.__gnu_cxx::__ops::_Iter_comp_iter", align 1
  %12 = getelementptr inbounds %"class.__gnu_cxx::__normal_iterator", %"class.__gnu_cxx::__normal_iterator"* %5, i32 0, i32 0
  store %struct.Edge* %0, %struct.Edge** %12, align 8
  %13 = getelementptr inbounds %"class.__gnu_cxx::__normal_iterator", %"class.__gnu_cxx::__normal_iterator"* %6, i32 0, i32 0
  store %struct.Edge* %1, %struct.Edge** %13, align 8
  %14 = getelementptr inbounds %"class.__gnu_cxx::__normal_iterator", %"class.__gnu_cxx::__normal_iterator"* %7, i32 0, i32 0
  store %struct.Edge* %2, %struct.Edge** %14, align 8
  %15 = call dereferenceable(16) %struct.Edge* @_ZNK9__gnu_cxx17__normal_iteratorIP4EdgeSt6vectorIS1_SaIS1_EEEdeEv(%"class.__gnu_cxx::__normal_iterator"* %7) #3
  %16 = call dereferenceable(16) %struct.Edge* @_ZSt4moveIR4EdgeEONSt16remove_referenceIT_E4typeEOS3_(%struct.Edge* dereferenceable(16) %15) #3
  %17 = bitcast %struct.Edge* %8 to i8*
  %18 = bitcast %struct.Edge* %16 to i8*
  call void @llvm.memcpy.p0i8.p0i8.i64(i8* align 8 %17, i8* align 8 %18, i64 16, i1 false)
  %19 = call dereferenceable(16) %struct.Edge* @_ZNK9__gnu_cxx17__normal_iteratorIP4EdgeSt6vectorIS1_SaIS1_EEEdeEv(%"class.__gnu_cxx::__normal_iterator"* %5) #3
  %20 = call dereferenceable(16) %struct.Edge* @_ZSt4moveIR4EdgeEONSt16remove_referenceIT_E4typeEOS3_(%struct.Edge* dereferenceable(16) %19) #3
  %21 = call dereferenceable(16) %struct.Edge* @_ZNK9__gnu_cxx17__normal_iteratorIP4EdgeSt6vectorIS1_SaIS1_EEEdeEv(%"class.__gnu_cxx::__normal_iterator"* %7) #3
  %22 = bitcast %struct.Edge* %21 to i8*
  %23 = bitcast %struct.Edge* %20 to i8*
  call void @llvm.memcpy.p0i8.p0i8.i64(i8* align 8 %22, i8* align 8 %23, i64 16, i1 false)
  %24 = bitcast %"class.__gnu_cxx::__normal_iterator"* %9 to i8*
  %25 = bitcast %"class.__gnu_cxx::__normal_iterator"* %5 to i8*
  call void @llvm.memcpy.p0i8.p0i8.i64(i8* align 8 %24, i8* align 8 %25, i64 8, i1 false)
  %26 = call i64 @_ZN9__gnu_cxxmiIP4EdgeSt6vectorIS1_SaIS1_EEEENS_17__normal_iteratorIT_T0_E15difference_typeERKS9_SC_(%"class.__gnu_cxx::__normal_iterator"* dereferenceable(8) %6, %"class.__gnu_cxx::__normal_iterator"* dereferenceable(8) %5) #3
  %27 = call dereferenceable(16) %struct.Edge* @_ZSt4moveIR4EdgeEONSt16remove_referenceIT_E4typeEOS3_(%struct.Edge* dereferenceable(16) %8) #3
  %28 = bitcast %struct.Edge* %10 to i8*
  %29 = bitcast %struct.Edge* %27 to i8*
  call void @llvm.memcpy.p0i8.p0i8.i64(i8* align 8 %28, i8* align 8 %29, i64 16, i1 false)
  %30 = bitcast %"struct.__gnu_cxx::__ops::_Iter_comp_iter"* %11 to i8*
  %31 = bitcast %"struct.__gnu_cxx::__ops::_Iter_comp_iter"* %3 to i8*
  call void @llvm.memcpy.p0i8.p0i8.i64(i8* align 1 %30, i8* align 1 %31, i64 1, i1 false)
  %32 = getelementptr inbounds %"class.__gnu_cxx::__normal_iterator", %"class.__gnu_cxx::__normal_iterator"* %9, i32 0, i32 0
  %33 = load %struct.Edge*, %struct.Edge** %32, align 8
  %34 = bitcast %struct.Edge* %10 to { i64, double }*
  %35 = getelementptr inbounds { i64, double }, { i64, double }* %34, i32 0, i32 0
  %36 = load i64, i64* %35, align 8
  %37 = getelementptr inbounds { i64, double }, { i64, double }* %34, i32 0, i32 1
  %38 = load double, double* %37, align 8
  call void @_ZSt13__adjust_heapIN9__gnu_cxx17__normal_iteratorIP4EdgeSt6vectorIS2_SaIS2_EEEElS2_NS0_5__ops15_Iter_comp_iterISt4lessIS2_EEEEvT_T0_SE_T1_T2_(%struct.Edge* %33, i64 0, i64 %26, i64 %36, double %38)
  ret void
}

; Function Attrs: noinline uwtable
define linkonce_odr void @_ZSt13__adjust_heapIN9__gnu_cxx17__normal_iteratorIP4EdgeSt6vectorIS2_SaIS2_EEEElS2_NS0_5__ops15_Iter_comp_iterISt4lessIS2_EEEEvT_T0_SE_T1_T2_(%struct.Edge* %0, i64 %1, i64 %2, i64 %3, double %4) #0 comdat {
  %6 = alloca %"class.__gnu_cxx::__normal_iterator", align 8
  %7 = alloca %struct.Edge, align 8
  %8 = alloca %"struct.__gnu_cxx::__ops::_Iter_comp_iter", align 1
  %9 = alloca %"class.__gnu_cxx::__normal_iterator", align 8
  %10 = alloca %"class.__gnu_cxx::__normal_iterator", align 8
  %11 = alloca %"class.__gnu_cxx::__normal_iterator", align 8
  %12 = alloca %"class.__gnu_cxx::__normal_iterator", align 8
  %13 = alloca %"class.__gnu_cxx::__normal_iterator", align 8
  %14 = alloca %"class.__gnu_cxx::__normal_iterator", align 8
  %15 = alloca %"struct.__gnu_cxx::__ops::_Iter_comp_val", align 1
  %16 = alloca %"class.__gnu_cxx::__normal_iterator", align 8
  %17 = alloca %struct.Edge, align 8
  %18 = getelementptr inbounds %"class.__gnu_cxx::__normal_iterator", %"class.__gnu_cxx::__normal_iterator"* %6, i32 0, i32 0
  store %struct.Edge* %0, %struct.Edge** %18, align 8
  %19 = bitcast %struct.Edge* %7 to { i64, double }*
  %20 = getelementptr inbounds { i64, double }, { i64, double }* %19, i32 0, i32 0
  store i64 %3, i64* %20, align 8
  %21 = getelementptr inbounds { i64, double }, { i64, double }* %19, i32 0, i32 1
  store double %4, double* %21, align 8
  br label %22

22:                                               ; preds = %41, %5
  %.01 = phi i64 [ %1, %5 ], [ %.12, %41 ]
  %.0 = phi i64 [ %1, %5 ], [ %.12, %41 ]
  %23 = sub nsw i64 %2, 1
  %24 = sdiv i64 %23, 2
  %25 = icmp slt i64 %.01, %24
  br i1 %25, label %26, label %51

26:                                               ; preds = %22
  %27 = add nsw i64 %.01, 1
  %28 = mul nsw i64 2, %27
  %29 = call %struct.Edge* @_ZNK9__gnu_cxx17__normal_iteratorIP4EdgeSt6vectorIS1_SaIS1_EEEplEl(%"class.__gnu_cxx::__normal_iterator"* %6, i64 %28) #3
  %30 = getelementptr inbounds %"class.__gnu_cxx::__normal_iterator", %"class.__gnu_cxx::__normal_iterator"* %9, i32 0, i32 0
  store %struct.Edge* %29, %struct.Edge** %30, align 8
  %31 = sub nsw i64 %28, 1
  %32 = call %struct.Edge* @_ZNK9__gnu_cxx17__normal_iteratorIP4EdgeSt6vectorIS1_SaIS1_EEEplEl(%"class.__gnu_cxx::__normal_iterator"* %6, i64 %31) #3
  %33 = getelementptr inbounds %"class.__gnu_cxx::__normal_iterator", %"class.__gnu_cxx::__normal_iterator"* %10, i32 0, i32 0
  store %struct.Edge* %32, %struct.Edge** %33, align 8
  %34 = getelementptr inbounds %"class.__gnu_cxx::__normal_iterator", %"class.__gnu_cxx::__normal_iterator"* %9, i32 0, i32 0
  %35 = load %struct.Edge*, %struct.Edge** %34, align 8
  %36 = getelementptr inbounds %"class.__gnu_cxx::__normal_iterator", %"class.__gnu_cxx::__normal_iterator"* %10, i32 0, i32 0
  %37 = load %struct.Edge*, %struct.Edge** %36, align 8
  %38 = call zeroext i1 @_ZN9__gnu_cxx5__ops15_Iter_comp_iterISt4lessI4EdgeEEclINS_17__normal_iteratorIPS3_St6vectorIS3_SaIS3_EEEESC_EEbT_T0_(%"struct.__gnu_cxx::__ops::_Iter_comp_iter"* %8, %struct.Edge* %35, %struct.Edge* %37)
  br i1 %38, label %39, label %41

39:                                               ; preds = %26
  %40 = add nsw i64 %28, -1
  br label %41

41:                                               ; preds = %39, %26
  %.12 = phi i64 [ %40, %39 ], [ %28, %26 ]
  %42 = call %struct.Edge* @_ZNK9__gnu_cxx17__normal_iteratorIP4EdgeSt6vectorIS1_SaIS1_EEEplEl(%"class.__gnu_cxx::__normal_iterator"* %6, i64 %.12) #3
  %43 = getelementptr inbounds %"class.__gnu_cxx::__normal_iterator", %"class.__gnu_cxx::__normal_iterator"* %11, i32 0, i32 0
  store %struct.Edge* %42, %struct.Edge** %43, align 8
  %44 = call dereferenceable(16) %struct.Edge* @_ZNK9__gnu_cxx17__normal_iteratorIP4EdgeSt6vectorIS1_SaIS1_EEEdeEv(%"class.__gnu_cxx::__normal_iterator"* %11) #3
  %45 = call dereferenceable(16) %struct.Edge* @_ZSt4moveIR4EdgeEONSt16remove_referenceIT_E4typeEOS3_(%struct.Edge* dereferenceable(16) %44) #3
  %46 = call %struct.Edge* @_ZNK9__gnu_cxx17__normal_iteratorIP4EdgeSt6vectorIS1_SaIS1_EEEplEl(%"class.__gnu_cxx::__normal_iterator"* %6, i64 %.0) #3
  %47 = getelementptr inbounds %"class.__gnu_cxx::__normal_iterator", %"class.__gnu_cxx::__normal_iterator"* %12, i32 0, i32 0
  store %struct.Edge* %46, %struct.Edge** %47, align 8
  %48 = call dereferenceable(16) %struct.Edge* @_ZNK9__gnu_cxx17__normal_iteratorIP4EdgeSt6vectorIS1_SaIS1_EEEdeEv(%"class.__gnu_cxx::__normal_iterator"* %12) #3
  %49 = bitcast %struct.Edge* %48 to i8*
  %50 = bitcast %struct.Edge* %45 to i8*
  call void @llvm.memcpy.p0i8.p0i8.i64(i8* align 8 %49, i8* align 8 %50, i64 16, i1 false)
  br label %22

51:                                               ; preds = %22
  %52 = and i64 %2, 1
  %53 = icmp eq i64 %52, 0
  br i1 %53, label %54, label %72

54:                                               ; preds = %51
  %55 = sub nsw i64 %2, 2
  %56 = sdiv i64 %55, 2
  %57 = icmp eq i64 %.01, %56
  br i1 %57, label %58, label %72

58:                                               ; preds = %54
  %59 = add nsw i64 %.01, 1
  %60 = mul nsw i64 2, %59
  %61 = sub nsw i64 %60, 1
  %62 = call %struct.Edge* @_ZNK9__gnu_cxx17__normal_iteratorIP4EdgeSt6vectorIS1_SaIS1_EEEplEl(%"class.__gnu_cxx::__normal_iterator"* %6, i64 %61) #3
  %63 = getelementptr inbounds %"class.__gnu_cxx::__normal_iterator", %"class.__gnu_cxx::__normal_iterator"* %13, i32 0, i32 0
  store %struct.Edge* %62, %struct.Edge** %63, align 8
  %64 = call dereferenceable(16) %struct.Edge* @_ZNK9__gnu_cxx17__normal_iteratorIP4EdgeSt6vectorIS1_SaIS1_EEEdeEv(%"class.__gnu_cxx::__normal_iterator"* %13) #3
  %65 = call dereferenceable(16) %struct.Edge* @_ZSt4moveIR4EdgeEONSt16remove_referenceIT_E4typeEOS3_(%struct.Edge* dereferenceable(16) %64) #3
  %66 = call %struct.Edge* @_ZNK9__gnu_cxx17__normal_iteratorIP4EdgeSt6vectorIS1_SaIS1_EEEplEl(%"class.__gnu_cxx::__normal_iterator"* %6, i64 %.0) #3
  %67 = getelementptr inbounds %"class.__gnu_cxx::__normal_iterator", %"class.__gnu_cxx::__normal_iterator"* %14, i32 0, i32 0
  store %struct.Edge* %66, %struct.Edge** %67, align 8
  %68 = call dereferenceable(16) %struct.Edge* @_ZNK9__gnu_cxx17__normal_iteratorIP4EdgeSt6vectorIS1_SaIS1_EEEdeEv(%"class.__gnu_cxx::__normal_iterator"* %14) #3
  %69 = bitcast %struct.Edge* %68 to i8*
  %70 = bitcast %struct.Edge* %65 to i8*
  call void @llvm.memcpy.p0i8.p0i8.i64(i8* align 8 %69, i8* align 8 %70, i64 16, i1 false)
  %71 = sub nsw i64 %60, 1
  br label %72

72:                                               ; preds = %58, %54, %51
  %.1 = phi i64 [ %71, %58 ], [ %.0, %54 ], [ %.0, %51 ]
  %73 = call dereferenceable(1) %"struct.__gnu_cxx::__ops::_Iter_comp_iter"* @_ZSt4moveIRN9__gnu_cxx5__ops15_Iter_comp_iterISt4lessI4EdgeEEEEONSt16remove_referenceIT_E4typeEOS9_(%"struct.__gnu_cxx::__ops::_Iter_comp_iter"* dereferenceable(1) %8) #3
  call void @_ZN9__gnu_cxx5__ops14_Iter_comp_valISt4lessI4EdgeEEC2EONS0_15_Iter_comp_iterIS4_EE(%"struct.__gnu_cxx::__ops::_Iter_comp_val"* %15, %"struct.__gnu_cxx::__ops::_Iter_comp_iter"* dereferenceable(1) %73)
  %74 = bitcast %"class.__gnu_cxx::__normal_iterator"* %16 to i8*
  %75 = bitcast %"class.__gnu_cxx::__normal_iterator"* %6 to i8*
  call void @llvm.memcpy.p0i8.p0i8.i64(i8* align 8 %74, i8* align 8 %75, i64 8, i1 false)
  %76 = call dereferenceable(16) %struct.Edge* @_ZSt4moveIR4EdgeEONSt16remove_referenceIT_E4typeEOS3_(%struct.Edge* dereferenceable(16) %7) #3
  %77 = bitcast %struct.Edge* %17 to i8*
  %78 = bitcast %struct.Edge* %76 to i8*
  call void @llvm.memcpy.p0i8.p0i8.i64(i8* align 8 %77, i8* align 8 %78, i64 16, i1 false)
  %79 = getelementptr inbounds %"class.__gnu_cxx::__normal_iterator", %"class.__gnu_cxx::__normal_iterator"* %16, i32 0, i32 0
  %80 = load %struct.Edge*, %struct.Edge** %79, align 8
  %81 = bitcast %struct.Edge* %17 to { i64, double }*
  %82 = getelementptr inbounds { i64, double }, { i64, double }* %81, i32 0, i32 0
  %83 = load i64, i64* %82, align 8
  %84 = getelementptr inbounds { i64, double }, { i64, double }* %81, i32 0, i32 1
  %85 = load double, double* %84, align 8
  call void @_ZSt11__push_heapIN9__gnu_cxx17__normal_iteratorIP4EdgeSt6vectorIS2_SaIS2_EEEElS2_NS0_5__ops14_Iter_comp_valISt4lessIS2_EEEEvT_T0_SE_T1_RT2_(%struct.Edge* %80, i64 %.1, i64 %1, i64 %83, double %85, %"struct.__gnu_cxx::__ops::_Iter_comp_val"* dereferenceable(1) %15)
  ret void
}

; Function Attrs: noinline nounwind uwtable
define linkonce_odr zeroext i1 @_ZN9__gnu_cxx5__ops15_Iter_comp_iterISt4lessI4EdgeEEclINS_17__normal_iteratorIPS3_St6vectorIS3_SaIS3_EEEESC_EEbT_T0_(%"struct.__gnu_cxx::__ops::_Iter_comp_iter"* %0, %struct.Edge* %1, %struct.Edge* %2) #4 comdat align 2 {
  %4 = alloca %"class.__gnu_cxx::__normal_iterator", align 8
  %5 = alloca %"class.__gnu_cxx::__normal_iterator", align 8
  %6 = getelementptr inbounds %"class.__gnu_cxx::__normal_iterator", %"class.__gnu_cxx::__normal_iterator"* %4, i32 0, i32 0
  store %struct.Edge* %1, %struct.Edge** %6, align 8
  %7 = getelementptr inbounds %"class.__gnu_cxx::__normal_iterator", %"class.__gnu_cxx::__normal_iterator"* %5, i32 0, i32 0
  store %struct.Edge* %2, %struct.Edge** %7, align 8
  %8 = getelementptr inbounds %"struct.__gnu_cxx::__ops::_Iter_comp_iter", %"struct.__gnu_cxx::__ops::_Iter_comp_iter"* %0, i32 0, i32 0
  %9 = call dereferenceable(16) %struct.Edge* @_ZNK9__gnu_cxx17__normal_iteratorIP4EdgeSt6vectorIS1_SaIS1_EEEdeEv(%"class.__gnu_cxx::__normal_iterator"* %4) #3
  %10 = call dereferenceable(16) %struct.Edge* @_ZNK9__gnu_cxx17__normal_iteratorIP4EdgeSt6vectorIS1_SaIS1_EEEdeEv(%"class.__gnu_cxx::__normal_iterator"* %5) #3
  %11 = call zeroext i1 @_ZNKSt4lessI4EdgeEclERKS0_S3_(%"struct.std::less"* %8, %struct.Edge* dereferenceable(16) %9, %struct.Edge* dereferenceable(16) %10)
  ret i1 %11
}

; Function Attrs: noinline nounwind uwtable
define linkonce_odr dereferenceable(1) %"struct.__gnu_cxx::__ops::_Iter_comp_iter"* @_ZSt4moveIRN9__gnu_cxx5__ops15_Iter_comp_iterISt4lessI4EdgeEEEEONSt16remove_referenceIT_E4typeEOS9_(%"struct.__gnu_cxx::__ops::_Iter_comp_iter"* dereferenceable(1) %0) #4 comdat {
  ret %"struct.__gnu_cxx::__ops::_Iter_comp_iter"* %0
}

; Function Attrs: noinline nounwind uwtable
define linkonce_odr void @_ZN9__gnu_cxx5__ops14_Iter_comp_valISt4lessI4EdgeEEC2EONS0_15_Iter_comp_iterIS4_EE(%"struct.__gnu_cxx::__ops::_Iter_comp_val"* %0, %"struct.__gnu_cxx::__ops::_Iter_comp_iter"* dereferenceable(1) %1) unnamed_addr #4 comdat align 2 {
  %3 = getelementptr inbounds %"struct.__gnu_cxx::__ops::_Iter_comp_val", %"struct.__gnu_cxx::__ops::_Iter_comp_val"* %0, i32 0, i32 0
  %4 = getelementptr inbounds %"struct.__gnu_cxx::__ops::_Iter_comp_iter", %"struct.__gnu_cxx::__ops::_Iter_comp_iter"* %1, i32 0, i32 0
  %5 = call dereferenceable(1) %"struct.std::less"* @_ZSt4moveIRSt4lessI4EdgeEEONSt16remove_referenceIT_E4typeEOS5_(%"struct.std::less"* dereferenceable(1) %4) #3
  ret void
}

; Function Attrs: noinline uwtable
define linkonce_odr void @_ZNSt16allocator_traitsISaI4EdgeEE7destroyIS0_EEvRS1_PT_(%"class.std::allocator.2"* dereferenceable(1) %0, %struct.Edge* %1) #0 comdat align 2 {
  %3 = bitcast %"class.std::allocator.2"* %0 to %"class.__gnu_cxx::new_allocator.3"*
  call void @_ZN9__gnu_cxx13new_allocatorI4EdgeE7destroyIS1_EEvPT_(%"class.__gnu_cxx::new_allocator.3"* %3, %struct.Edge* %1)
  ret void
}

; Function Attrs: noinline nounwind uwtable
define linkonce_odr void @_ZN9__gnu_cxx13new_allocatorI4EdgeE7destroyIS1_EEvPT_(%"class.__gnu_cxx::new_allocator.3"* %0, %struct.Edge* %1) #4 comdat align 2 {
  ret void
}

; Function Attrs: noinline uwtable
define linkonce_odr void @_ZNSt12_Vector_baseI1LSaIS0_EEC2Ev(%"struct.std::_Vector_base.11"* %0) unnamed_addr #0 comdat align 2 {
  %2 = getelementptr inbounds %"struct.std::_Vector_base.11", %"struct.std::_Vector_base.11"* %0, i32 0, i32 0
  call void @_ZNSt12_Vector_baseI1LSaIS0_EE12_Vector_implC2Ev(%"struct.std::_Vector_base<L, std::allocator<L> >::_Vector_impl"* %2)
  ret void
}

; Function Attrs: noinline nounwind uwtable
define linkonce_odr void @_ZNSt12_Vector_baseI1LSaIS0_EE12_Vector_implC2Ev(%"struct.std::_Vector_base<L, std::allocator<L> >::_Vector_impl"* %0) unnamed_addr #4 comdat align 2 {
  %2 = bitcast %"struct.std::_Vector_base<L, std::allocator<L> >::_Vector_impl"* %0 to %"class.std::allocator.12"*
  call void @_ZNSaI1LEC2Ev(%"class.std::allocator.12"* %2) #3
  %3 = getelementptr inbounds %"struct.std::_Vector_base<L, std::allocator<L> >::_Vector_impl", %"struct.std::_Vector_base<L, std::allocator<L> >::_Vector_impl"* %0, i32 0, i32 0
  store %struct.L* null, %struct.L** %3, align 8
  %4 = getelementptr inbounds %"struct.std::_Vector_base<L, std::allocator<L> >::_Vector_impl", %"struct.std::_Vector_base<L, std::allocator<L> >::_Vector_impl"* %0, i32 0, i32 1
  store %struct.L* null, %struct.L** %4, align 8
  %5 = getelementptr inbounds %"struct.std::_Vector_base<L, std::allocator<L> >::_Vector_impl", %"struct.std::_Vector_base<L, std::allocator<L> >::_Vector_impl"* %0, i32 0, i32 2
  store %struct.L* null, %struct.L** %5, align 8
  ret void
}

; Function Attrs: noinline nounwind uwtable
define linkonce_odr void @_ZNSaI1LEC2Ev(%"class.std::allocator.12"* %0) unnamed_addr #4 comdat align 2 {
  %2 = bitcast %"class.std::allocator.12"* %0 to %"class.__gnu_cxx::new_allocator.13"*
  call void @_ZN9__gnu_cxx13new_allocatorI1LEC2Ev(%"class.__gnu_cxx::new_allocator.13"* %2) #3
  ret void
}

; Function Attrs: noinline nounwind uwtable
define linkonce_odr void @_ZN9__gnu_cxx13new_allocatorI1LEC2Ev(%"class.__gnu_cxx::new_allocator.13"* %0) unnamed_addr #4 comdat align 2 {
  ret void
}

; Function Attrs: noinline uwtable
define linkonce_odr void @_ZSt8_DestroyIP1LS0_EvT_S2_RSaIT0_E(%struct.L* %0, %struct.L* %1, %"class.std::allocator.12"* dereferenceable(1) %2) #0 comdat {
  call void @_ZSt8_DestroyIP1LEvT_S2_(%struct.L* %0, %struct.L* %1)
  ret void
}

; Function Attrs: noinline nounwind uwtable
define linkonce_odr dereferenceable(1) %"class.std::allocator.12"* @_ZNSt12_Vector_baseI1LSaIS0_EE19_M_get_Tp_allocatorEv(%"struct.std::_Vector_base.11"* %0) #4 comdat align 2 {
  %2 = getelementptr inbounds %"struct.std::_Vector_base.11", %"struct.std::_Vector_base.11"* %0, i32 0, i32 0
  %3 = bitcast %"struct.std::_Vector_base<L, std::allocator<L> >::_Vector_impl"* %2 to %"class.std::allocator.12"*
  ret %"class.std::allocator.12"* %3
}

; Function Attrs: noinline nounwind uwtable
define linkonce_odr void @_ZNSt12_Vector_baseI1LSaIS0_EED2Ev(%"struct.std::_Vector_base.11"* %0) unnamed_addr #4 comdat align 2 personality i8* bitcast (i32 (...)* @__gxx_personality_v0 to i8*) {
  %2 = getelementptr inbounds %"struct.std::_Vector_base.11", %"struct.std::_Vector_base.11"* %0, i32 0, i32 0
  %3 = getelementptr inbounds %"struct.std::_Vector_base<L, std::allocator<L> >::_Vector_impl", %"struct.std::_Vector_base<L, std::allocator<L> >::_Vector_impl"* %2, i32 0, i32 0
  %4 = load %struct.L*, %struct.L** %3, align 8
  %5 = getelementptr inbounds %"struct.std::_Vector_base.11", %"struct.std::_Vector_base.11"* %0, i32 0, i32 0
  %6 = getelementptr inbounds %"struct.std::_Vector_base<L, std::allocator<L> >::_Vector_impl", %"struct.std::_Vector_base<L, std::allocator<L> >::_Vector_impl"* %5, i32 0, i32 2
  %7 = load %struct.L*, %struct.L** %6, align 8
  %8 = getelementptr inbounds %"struct.std::_Vector_base.11", %"struct.std::_Vector_base.11"* %0, i32 0, i32 0
  %9 = getelementptr inbounds %"struct.std::_Vector_base<L, std::allocator<L> >::_Vector_impl", %"struct.std::_Vector_base<L, std::allocator<L> >::_Vector_impl"* %8, i32 0, i32 0
  %10 = load %struct.L*, %struct.L** %9, align 8
  %11 = ptrtoint %struct.L* %7 to i64
  %12 = ptrtoint %struct.L* %10 to i64
  %13 = sub i64 %11, %12
  %14 = sdiv exact i64 %13, 32
  invoke void @_ZNSt12_Vector_baseI1LSaIS0_EE13_M_deallocateEPS0_m(%"struct.std::_Vector_base.11"* %0, %struct.L* %4, i64 %14)
          to label %15 unwind label %17

15:                                               ; preds = %1
  %16 = getelementptr inbounds %"struct.std::_Vector_base.11", %"struct.std::_Vector_base.11"* %0, i32 0, i32 0
  call void @_ZNSt12_Vector_baseI1LSaIS0_EE12_Vector_implD2Ev(%"struct.std::_Vector_base<L, std::allocator<L> >::_Vector_impl"* %16) #3
  ret void

17:                                               ; preds = %1
  %18 = landingpad { i8*, i32 }
          catch i8* null
  %19 = extractvalue { i8*, i32 } %18, 0
  %20 = extractvalue { i8*, i32 } %18, 1
  %21 = getelementptr inbounds %"struct.std::_Vector_base.11", %"struct.std::_Vector_base.11"* %0, i32 0, i32 0
  call void @_ZNSt12_Vector_baseI1LSaIS0_EE12_Vector_implD2Ev(%"struct.std::_Vector_base<L, std::allocator<L> >::_Vector_impl"* %21) #3
  br label %22

22:                                               ; preds = %17
  call void @__clang_call_terminate(i8* %19) #13
  unreachable
}

; Function Attrs: noinline uwtable
define linkonce_odr void @_ZSt8_DestroyIP1LEvT_S2_(%struct.L* %0, %struct.L* %1) #0 comdat {
  call void @_ZNSt12_Destroy_auxILb1EE9__destroyIP1LEEvT_S4_(%struct.L* %0, %struct.L* %1)
  ret void
}

; Function Attrs: noinline nounwind uwtable
define linkonce_odr void @_ZNSt12_Destroy_auxILb1EE9__destroyIP1LEEvT_S4_(%struct.L* %0, %struct.L* %1) #4 comdat align 2 {
  ret void
}

; Function Attrs: noinline uwtable
define linkonce_odr void @_ZNSt12_Vector_baseI1LSaIS0_EE13_M_deallocateEPS0_m(%"struct.std::_Vector_base.11"* %0, %struct.L* %1, i64 %2) #0 comdat align 2 {
  %4 = icmp ne %struct.L* %1, null
  br i1 %4, label %5, label %8

5:                                                ; preds = %3
  %6 = getelementptr inbounds %"struct.std::_Vector_base.11", %"struct.std::_Vector_base.11"* %0, i32 0, i32 0
  %7 = bitcast %"struct.std::_Vector_base<L, std::allocator<L> >::_Vector_impl"* %6 to %"class.std::allocator.12"*
  call void @_ZNSt16allocator_traitsISaI1LEE10deallocateERS1_PS0_m(%"class.std::allocator.12"* dereferenceable(1) %7, %struct.L* %1, i64 %2)
  br label %8

8:                                                ; preds = %5, %3
  ret void
}

; Function Attrs: noinline nounwind uwtable
define linkonce_odr void @_ZNSt12_Vector_baseI1LSaIS0_EE12_Vector_implD2Ev(%"struct.std::_Vector_base<L, std::allocator<L> >::_Vector_impl"* %0) unnamed_addr #4 comdat align 2 {
  %2 = bitcast %"struct.std::_Vector_base<L, std::allocator<L> >::_Vector_impl"* %0 to %"class.std::allocator.12"*
  call void @_ZNSaI1LED2Ev(%"class.std::allocator.12"* %2) #3
  ret void
}

; Function Attrs: noinline uwtable
define linkonce_odr void @_ZNSt16allocator_traitsISaI1LEE10deallocateERS1_PS0_m(%"class.std::allocator.12"* dereferenceable(1) %0, %struct.L* %1, i64 %2) #0 comdat align 2 {
  %4 = bitcast %"class.std::allocator.12"* %0 to %"class.__gnu_cxx::new_allocator.13"*
  call void @_ZN9__gnu_cxx13new_allocatorI1LE10deallocateEPS1_m(%"class.__gnu_cxx::new_allocator.13"* %4, %struct.L* %1, i64 %2)
  ret void
}

; Function Attrs: noinline nounwind uwtable
define linkonce_odr void @_ZN9__gnu_cxx13new_allocatorI1LE10deallocateEPS1_m(%"class.__gnu_cxx::new_allocator.13"* %0, %struct.L* %1, i64 %2) #4 comdat align 2 {
  %4 = bitcast %struct.L* %1 to i8*
  call void @_ZdlPv(i8* %4) #3
  ret void
}

; Function Attrs: noinline nounwind uwtable
define linkonce_odr void @_ZNSaI1LED2Ev(%"class.std::allocator.12"* %0) unnamed_addr #4 comdat align 2 {
  %2 = bitcast %"class.std::allocator.12"* %0 to %"class.__gnu_cxx::new_allocator.13"*
  call void @_ZN9__gnu_cxx13new_allocatorI1LED2Ev(%"class.__gnu_cxx::new_allocator.13"* %2) #3
  ret void
}

; Function Attrs: noinline nounwind uwtable
define linkonce_odr void @_ZN9__gnu_cxx13new_allocatorI1LED2Ev(%"class.__gnu_cxx::new_allocator.13"* %0) unnamed_addr #4 comdat align 2 {
  ret void
}

; Function Attrs: noinline uwtable
define linkonce_odr void @_ZNSt6vectorI1LSaIS0_EE12emplace_backIJS0_EEEvDpOT_(%"class.std::vector.10"* %0, %struct.L* dereferenceable(32) %1) #0 comdat align 2 {
  %3 = alloca %"class.__gnu_cxx::__normal_iterator.16", align 8
  %4 = bitcast %"class.std::vector.10"* %0 to %"struct.std::_Vector_base.11"*
  %5 = getelementptr inbounds %"struct.std::_Vector_base.11", %"struct.std::_Vector_base.11"* %4, i32 0, i32 0
  %6 = getelementptr inbounds %"struct.std::_Vector_base<L, std::allocator<L> >::_Vector_impl", %"struct.std::_Vector_base<L, std::allocator<L> >::_Vector_impl"* %5, i32 0, i32 1
  %7 = load %struct.L*, %struct.L** %6, align 8
  %8 = bitcast %"class.std::vector.10"* %0 to %"struct.std::_Vector_base.11"*
  %9 = getelementptr inbounds %"struct.std::_Vector_base.11", %"struct.std::_Vector_base.11"* %8, i32 0, i32 0
  %10 = getelementptr inbounds %"struct.std::_Vector_base<L, std::allocator<L> >::_Vector_impl", %"struct.std::_Vector_base<L, std::allocator<L> >::_Vector_impl"* %9, i32 0, i32 2
  %11 = load %struct.L*, %struct.L** %10, align 8
  %12 = icmp ne %struct.L* %7, %11
  br i1 %12, label %13, label %27

13:                                               ; preds = %2
  %14 = bitcast %"class.std::vector.10"* %0 to %"struct.std::_Vector_base.11"*
  %15 = getelementptr inbounds %"struct.std::_Vector_base.11", %"struct.std::_Vector_base.11"* %14, i32 0, i32 0
  %16 = bitcast %"struct.std::_Vector_base<L, std::allocator<L> >::_Vector_impl"* %15 to %"class.std::allocator.12"*
  %17 = bitcast %"class.std::vector.10"* %0 to %"struct.std::_Vector_base.11"*
  %18 = getelementptr inbounds %"struct.std::_Vector_base.11", %"struct.std::_Vector_base.11"* %17, i32 0, i32 0
  %19 = getelementptr inbounds %"struct.std::_Vector_base<L, std::allocator<L> >::_Vector_impl", %"struct.std::_Vector_base<L, std::allocator<L> >::_Vector_impl"* %18, i32 0, i32 1
  %20 = load %struct.L*, %struct.L** %19, align 8
  %21 = call dereferenceable(32) %struct.L* @_ZSt7forwardI1LEOT_RNSt16remove_referenceIS1_E4typeE(%struct.L* dereferenceable(32) %1) #3
  call void @_ZNSt16allocator_traitsISaI1LEE9constructIS0_JS0_EEEvRS1_PT_DpOT0_(%"class.std::allocator.12"* dereferenceable(1) %16, %struct.L* %20, %struct.L* dereferenceable(32) %21)
  %22 = bitcast %"class.std::vector.10"* %0 to %"struct.std::_Vector_base.11"*
  %23 = getelementptr inbounds %"struct.std::_Vector_base.11", %"struct.std::_Vector_base.11"* %22, i32 0, i32 0
  %24 = getelementptr inbounds %"struct.std::_Vector_base<L, std::allocator<L> >::_Vector_impl", %"struct.std::_Vector_base<L, std::allocator<L> >::_Vector_impl"* %23, i32 0, i32 1
  %25 = load %struct.L*, %struct.L** %24, align 8
  %26 = getelementptr inbounds %struct.L, %struct.L* %25, i32 1
  store %struct.L* %26, %struct.L** %24, align 8
  br label %33

27:                                               ; preds = %2
  %28 = call %struct.L* @_ZNSt6vectorI1LSaIS0_EE3endEv(%"class.std::vector.10"* %0) #3
  %29 = getelementptr inbounds %"class.__gnu_cxx::__normal_iterator.16", %"class.__gnu_cxx::__normal_iterator.16"* %3, i32 0, i32 0
  store %struct.L* %28, %struct.L** %29, align 8
  %30 = call dereferenceable(32) %struct.L* @_ZSt7forwardI1LEOT_RNSt16remove_referenceIS1_E4typeE(%struct.L* dereferenceable(32) %1) #3
  %31 = getelementptr inbounds %"class.__gnu_cxx::__normal_iterator.16", %"class.__gnu_cxx::__normal_iterator.16"* %3, i32 0, i32 0
  %32 = load %struct.L*, %struct.L** %31, align 8
  call void @_ZNSt6vectorI1LSaIS0_EE17_M_realloc_insertIJS0_EEEvN9__gnu_cxx17__normal_iteratorIPS0_S2_EEDpOT_(%"class.std::vector.10"* %0, %struct.L* %32, %struct.L* dereferenceable(32) %30)
  br label %33

33:                                               ; preds = %27, %13
  ret void
}

; Function Attrs: noinline nounwind uwtable
define linkonce_odr dereferenceable(32) %struct.L* @_ZSt4moveIR1LEONSt16remove_referenceIT_E4typeEOS3_(%struct.L* dereferenceable(32) %0) #4 comdat {
  ret %struct.L* %0
}

; Function Attrs: noinline uwtable
define linkonce_odr void @_ZNSt16allocator_traitsISaI1LEE9constructIS0_JS0_EEEvRS1_PT_DpOT0_(%"class.std::allocator.12"* dereferenceable(1) %0, %struct.L* %1, %struct.L* dereferenceable(32) %2) #0 comdat align 2 {
  %4 = bitcast %"class.std::allocator.12"* %0 to %"class.__gnu_cxx::new_allocator.13"*
  %5 = call dereferenceable(32) %struct.L* @_ZSt7forwardI1LEOT_RNSt16remove_referenceIS1_E4typeE(%struct.L* dereferenceable(32) %2) #3
  call void @_ZN9__gnu_cxx13new_allocatorI1LE9constructIS1_JS1_EEEvPT_DpOT0_(%"class.__gnu_cxx::new_allocator.13"* %4, %struct.L* %1, %struct.L* dereferenceable(32) %5)
  ret void
}

; Function Attrs: noinline nounwind uwtable
define linkonce_odr dereferenceable(32) %struct.L* @_ZSt7forwardI1LEOT_RNSt16remove_referenceIS1_E4typeE(%struct.L* dereferenceable(32) %0) #4 comdat {
  ret %struct.L* %0
}

; Function Attrs: noinline uwtable
define linkonce_odr void @_ZNSt6vectorI1LSaIS0_EE17_M_realloc_insertIJS0_EEEvN9__gnu_cxx17__normal_iteratorIPS0_S2_EEDpOT_(%"class.std::vector.10"* %0, %struct.L* %1, %struct.L* dereferenceable(32) %2) #0 comdat align 2 personality i8* bitcast (i32 (...)* @__gxx_personality_v0 to i8*) {
  %4 = alloca %"class.__gnu_cxx::__normal_iterator.16", align 8
  %5 = alloca %"class.__gnu_cxx::__normal_iterator.16", align 8
  %6 = getelementptr inbounds %"class.__gnu_cxx::__normal_iterator.16", %"class.__gnu_cxx::__normal_iterator.16"* %4, i32 0, i32 0
  store %struct.L* %1, %struct.L** %6, align 8
  %7 = call i64 @_ZNKSt6vectorI1LSaIS0_EE12_M_check_lenEmPKc(%"class.std::vector.10"* %0, i64 1, i8* getelementptr inbounds ([26 x i8], [26 x i8]* @.str.3, i32 0, i32 0))
  %8 = bitcast %"class.std::vector.10"* %0 to %"struct.std::_Vector_base.11"*
  %9 = getelementptr inbounds %"struct.std::_Vector_base.11", %"struct.std::_Vector_base.11"* %8, i32 0, i32 0
  %10 = getelementptr inbounds %"struct.std::_Vector_base<L, std::allocator<L> >::_Vector_impl", %"struct.std::_Vector_base<L, std::allocator<L> >::_Vector_impl"* %9, i32 0, i32 0
  %11 = load %struct.L*, %struct.L** %10, align 8
  %12 = bitcast %"class.std::vector.10"* %0 to %"struct.std::_Vector_base.11"*
  %13 = getelementptr inbounds %"struct.std::_Vector_base.11", %"struct.std::_Vector_base.11"* %12, i32 0, i32 0
  %14 = getelementptr inbounds %"struct.std::_Vector_base<L, std::allocator<L> >::_Vector_impl", %"struct.std::_Vector_base<L, std::allocator<L> >::_Vector_impl"* %13, i32 0, i32 1
  %15 = load %struct.L*, %struct.L** %14, align 8
  %16 = call %struct.L* @_ZNSt6vectorI1LSaIS0_EE5beginEv(%"class.std::vector.10"* %0) #3
  %17 = getelementptr inbounds %"class.__gnu_cxx::__normal_iterator.16", %"class.__gnu_cxx::__normal_iterator.16"* %5, i32 0, i32 0
  store %struct.L* %16, %struct.L** %17, align 8
  %18 = call i64 @_ZN9__gnu_cxxmiIP1LSt6vectorIS1_SaIS1_EEEENS_17__normal_iteratorIT_T0_E15difference_typeERKS9_SC_(%"class.__gnu_cxx::__normal_iterator.16"* dereferenceable(8) %4, %"class.__gnu_cxx::__normal_iterator.16"* dereferenceable(8) %5) #3
  %19 = bitcast %"class.std::vector.10"* %0 to %"struct.std::_Vector_base.11"*
  %20 = call %struct.L* @_ZNSt12_Vector_baseI1LSaIS0_EE11_M_allocateEm(%"struct.std::_Vector_base.11"* %19, i64 %7)
  %21 = bitcast %"class.std::vector.10"* %0 to %"struct.std::_Vector_base.11"*
  %22 = getelementptr inbounds %"struct.std::_Vector_base.11", %"struct.std::_Vector_base.11"* %21, i32 0, i32 0
  %23 = bitcast %"struct.std::_Vector_base<L, std::allocator<L> >::_Vector_impl"* %22 to %"class.std::allocator.12"*
  %24 = getelementptr inbounds %struct.L, %struct.L* %20, i64 %18
  %25 = call dereferenceable(32) %struct.L* @_ZSt7forwardI1LEOT_RNSt16remove_referenceIS1_E4typeE(%struct.L* dereferenceable(32) %2) #3
  invoke void @_ZNSt16allocator_traitsISaI1LEE9constructIS0_JS0_EEEvRS1_PT_DpOT0_(%"class.std::allocator.12"* dereferenceable(1) %23, %struct.L* %24, %struct.L* dereferenceable(32) %25)
          to label %26 unwind label %40

26:                                               ; preds = %3
  %27 = call dereferenceable(8) %struct.L** @_ZNK9__gnu_cxx17__normal_iteratorIP1LSt6vectorIS1_SaIS1_EEE4baseEv(%"class.__gnu_cxx::__normal_iterator.16"* %4) #3
  %28 = load %struct.L*, %struct.L** %27, align 8
  %29 = bitcast %"class.std::vector.10"* %0 to %"struct.std::_Vector_base.11"*
  %30 = call dereferenceable(1) %"class.std::allocator.12"* @_ZNSt12_Vector_baseI1LSaIS0_EE19_M_get_Tp_allocatorEv(%"struct.std::_Vector_base.11"* %29) #3
  %31 = invoke %struct.L* @_ZSt34__uninitialized_move_if_noexcept_aIP1LS1_SaIS0_EET0_T_S4_S3_RT1_(%struct.L* %11, %struct.L* %28, %struct.L* %20, %"class.std::allocator.12"* dereferenceable(1) %30)
          to label %32 unwind label %40

32:                                               ; preds = %26
  %33 = getelementptr inbounds %struct.L, %struct.L* %31, i32 1
  %34 = call dereferenceable(8) %struct.L** @_ZNK9__gnu_cxx17__normal_iteratorIP1LSt6vectorIS1_SaIS1_EEE4baseEv(%"class.__gnu_cxx::__normal_iterator.16"* %4) #3
  %35 = load %struct.L*, %struct.L** %34, align 8
  %36 = bitcast %"class.std::vector.10"* %0 to %"struct.std::_Vector_base.11"*
  %37 = call dereferenceable(1) %"class.std::allocator.12"* @_ZNSt12_Vector_baseI1LSaIS0_EE19_M_get_Tp_allocatorEv(%"struct.std::_Vector_base.11"* %36) #3
  %38 = invoke %struct.L* @_ZSt34__uninitialized_move_if_noexcept_aIP1LS1_SaIS0_EET0_T_S4_S3_RT1_(%struct.L* %35, %struct.L* %15, %struct.L* %33, %"class.std::allocator.12"* dereferenceable(1) %37)
          to label %39 unwind label %40

39:                                               ; preds = %32
  br label %65

40:                                               ; preds = %32, %26, %3
  %.0 = phi %struct.L* [ %33, %32 ], [ null, %26 ], [ %20, %3 ]
  %41 = landingpad { i8*, i32 }
          catch i8* null
  %42 = extractvalue { i8*, i32 } %41, 0
  %43 = extractvalue { i8*, i32 } %41, 1
  br label %44

44:                                               ; preds = %40
  %45 = call i8* @__cxa_begin_catch(i8* %42) #3
  %46 = icmp ne %struct.L* %.0, null
  br i1 %46, label %57, label %47

47:                                               ; preds = %44
  %48 = bitcast %"class.std::vector.10"* %0 to %"struct.std::_Vector_base.11"*
  %49 = getelementptr inbounds %"struct.std::_Vector_base.11", %"struct.std::_Vector_base.11"* %48, i32 0, i32 0
  %50 = bitcast %"struct.std::_Vector_base<L, std::allocator<L> >::_Vector_impl"* %49 to %"class.std::allocator.12"*
  %51 = getelementptr inbounds %struct.L, %struct.L* %20, i64 %18
  invoke void @_ZNSt16allocator_traitsISaI1LEE7destroyIS0_EEvRS1_PT_(%"class.std::allocator.12"* dereferenceable(1) %50, %struct.L* %51)
          to label %52 unwind label %53

52:                                               ; preds = %47
  br label %61

53:                                               ; preds = %63, %61, %57, %47
  %54 = landingpad { i8*, i32 }
          cleanup
  %55 = extractvalue { i8*, i32 } %54, 0
  %56 = extractvalue { i8*, i32 } %54, 1
  invoke void @__cxa_end_catch()
          to label %64 unwind label %90

57:                                               ; preds = %44
  %58 = bitcast %"class.std::vector.10"* %0 to %"struct.std::_Vector_base.11"*
  %59 = call dereferenceable(1) %"class.std::allocator.12"* @_ZNSt12_Vector_baseI1LSaIS0_EE19_M_get_Tp_allocatorEv(%"struct.std::_Vector_base.11"* %58) #3
  invoke void @_ZSt8_DestroyIP1LS0_EvT_S2_RSaIT0_E(%struct.L* %20, %struct.L* %.0, %"class.std::allocator.12"* dereferenceable(1) %59)
          to label %60 unwind label %53

60:                                               ; preds = %57
  br label %61

61:                                               ; preds = %60, %52
  %62 = bitcast %"class.std::vector.10"* %0 to %"struct.std::_Vector_base.11"*
  invoke void @_ZNSt12_Vector_baseI1LSaIS0_EE13_M_deallocateEPS0_m(%"struct.std::_Vector_base.11"* %62, %struct.L* %20, i64 %7)
          to label %63 unwind label %53

63:                                               ; preds = %61
  invoke void @__cxa_rethrow() #14
          to label %93 unwind label %53

64:                                               ; preds = %53
  br label %87

65:                                               ; preds = %39
  %66 = bitcast %"class.std::vector.10"* %0 to %"struct.std::_Vector_base.11"*
  %67 = call dereferenceable(1) %"class.std::allocator.12"* @_ZNSt12_Vector_baseI1LSaIS0_EE19_M_get_Tp_allocatorEv(%"struct.std::_Vector_base.11"* %66) #3
  call void @_ZSt8_DestroyIP1LS0_EvT_S2_RSaIT0_E(%struct.L* %11, %struct.L* %15, %"class.std::allocator.12"* dereferenceable(1) %67)
  %68 = bitcast %"class.std::vector.10"* %0 to %"struct.std::_Vector_base.11"*
  %69 = bitcast %"class.std::vector.10"* %0 to %"struct.std::_Vector_base.11"*
  %70 = getelementptr inbounds %"struct.std::_Vector_base.11", %"struct.std::_Vector_base.11"* %69, i32 0, i32 0
  %71 = getelementptr inbounds %"struct.std::_Vector_base<L, std::allocator<L> >::_Vector_impl", %"struct.std::_Vector_base<L, std::allocator<L> >::_Vector_impl"* %70, i32 0, i32 2
  %72 = load %struct.L*, %struct.L** %71, align 8
  %73 = ptrtoint %struct.L* %72 to i64
  %74 = ptrtoint %struct.L* %11 to i64
  %75 = sub i64 %73, %74
  %76 = sdiv exact i64 %75, 32
  call void @_ZNSt12_Vector_baseI1LSaIS0_EE13_M_deallocateEPS0_m(%"struct.std::_Vector_base.11"* %68, %struct.L* %11, i64 %76)
  %77 = bitcast %"class.std::vector.10"* %0 to %"struct.std::_Vector_base.11"*
  %78 = getelementptr inbounds %"struct.std::_Vector_base.11", %"struct.std::_Vector_base.11"* %77, i32 0, i32 0
  %79 = getelementptr inbounds %"struct.std::_Vector_base<L, std::allocator<L> >::_Vector_impl", %"struct.std::_Vector_base<L, std::allocator<L> >::_Vector_impl"* %78, i32 0, i32 0
  store %struct.L* %20, %struct.L** %79, align 8
  %80 = bitcast %"class.std::vector.10"* %0 to %"struct.std::_Vector_base.11"*
  %81 = getelementptr inbounds %"struct.std::_Vector_base.11", %"struct.std::_Vector_base.11"* %80, i32 0, i32 0
  %82 = getelementptr inbounds %"struct.std::_Vector_base<L, std::allocator<L> >::_Vector_impl", %"struct.std::_Vector_base<L, std::allocator<L> >::_Vector_impl"* %81, i32 0, i32 1
  store %struct.L* %38, %struct.L** %82, align 8
  %83 = getelementptr inbounds %struct.L, %struct.L* %20, i64 %7
  %84 = bitcast %"class.std::vector.10"* %0 to %"struct.std::_Vector_base.11"*
  %85 = getelementptr inbounds %"struct.std::_Vector_base.11", %"struct.std::_Vector_base.11"* %84, i32 0, i32 0
  %86 = getelementptr inbounds %"struct.std::_Vector_base<L, std::allocator<L> >::_Vector_impl", %"struct.std::_Vector_base<L, std::allocator<L> >::_Vector_impl"* %85, i32 0, i32 2
  store %struct.L* %83, %struct.L** %86, align 8
  ret void

87:                                               ; preds = %64
  %88 = insertvalue { i8*, i32 } undef, i8* %55, 0
  %89 = insertvalue { i8*, i32 } %88, i32 %56, 1
  resume { i8*, i32 } %89

90:                                               ; preds = %53
  %91 = landingpad { i8*, i32 }
          catch i8* null
  %92 = extractvalue { i8*, i32 } %91, 0
  call void @__clang_call_terminate(i8* %92) #13
  unreachable

93:                                               ; preds = %63
  unreachable
}

; Function Attrs: noinline nounwind uwtable
define linkonce_odr %struct.L* @_ZNSt6vectorI1LSaIS0_EE3endEv(%"class.std::vector.10"* %0) #4 comdat align 2 {
  %2 = alloca %"class.__gnu_cxx::__normal_iterator.16", align 8
  %3 = bitcast %"class.std::vector.10"* %0 to %"struct.std::_Vector_base.11"*
  %4 = getelementptr inbounds %"struct.std::_Vector_base.11", %"struct.std::_Vector_base.11"* %3, i32 0, i32 0
  %5 = getelementptr inbounds %"struct.std::_Vector_base<L, std::allocator<L> >::_Vector_impl", %"struct.std::_Vector_base<L, std::allocator<L> >::_Vector_impl"* %4, i32 0, i32 1
  call void @_ZN9__gnu_cxx17__normal_iteratorIP1LSt6vectorIS1_SaIS1_EEEC2ERKS2_(%"class.__gnu_cxx::__normal_iterator.16"* %2, %struct.L** dereferenceable(8) %5) #3
  %6 = getelementptr inbounds %"class.__gnu_cxx::__normal_iterator.16", %"class.__gnu_cxx::__normal_iterator.16"* %2, i32 0, i32 0
  %7 = load %struct.L*, %struct.L** %6, align 8
  ret %struct.L* %7
}

; Function Attrs: noinline nounwind uwtable
define linkonce_odr void @_ZN9__gnu_cxx13new_allocatorI1LE9constructIS1_JS1_EEEvPT_DpOT0_(%"class.__gnu_cxx::new_allocator.13"* %0, %struct.L* %1, %struct.L* dereferenceable(32) %2) #4 comdat align 2 {
  %4 = bitcast %struct.L* %1 to i8*
  %5 = bitcast i8* %4 to %struct.L*
  %6 = call dereferenceable(32) %struct.L* @_ZSt7forwardI1LEOT_RNSt16remove_referenceIS1_E4typeE(%struct.L* dereferenceable(32) %2) #3
  %7 = bitcast %struct.L* %5 to i8*
  %8 = bitcast %struct.L* %6 to i8*
  call void @llvm.memcpy.p0i8.p0i8.i64(i8* align 8 %7, i8* align 8 %8, i64 32, i1 false)
  ret void
}

; Function Attrs: noinline uwtable
define linkonce_odr i64 @_ZNKSt6vectorI1LSaIS0_EE12_M_check_lenEmPKc(%"class.std::vector.10"* %0, i64 %1, i8* %2) #0 comdat align 2 {
  %4 = alloca i64, align 8
  %5 = alloca i64, align 8
  store i64 %1, i64* %4, align 8
  %6 = call i64 @_ZNKSt6vectorI1LSaIS0_EE8max_sizeEv(%"class.std::vector.10"* %0) #3
  %7 = call i64 @_ZNKSt6vectorI1LSaIS0_EE4sizeEv(%"class.std::vector.10"* %0) #3
  %8 = sub i64 %6, %7
  %9 = load i64, i64* %4, align 8
  %10 = icmp ult i64 %8, %9
  br i1 %10, label %11, label %12

11:                                               ; preds = %3
  call void @_ZSt20__throw_length_errorPKc(i8* %2) #14
  unreachable

12:                                               ; preds = %3
  %13 = call i64 @_ZNKSt6vectorI1LSaIS0_EE4sizeEv(%"class.std::vector.10"* %0) #3
  %14 = call i64 @_ZNKSt6vectorI1LSaIS0_EE4sizeEv(%"class.std::vector.10"* %0) #3
  store i64 %14, i64* %5, align 8
  %15 = call dereferenceable(8) i64* @_ZSt3maxImERKT_S2_S2_(i64* dereferenceable(8) %5, i64* dereferenceable(8) %4)
  %16 = load i64, i64* %15, align 8
  %17 = add i64 %13, %16
  %18 = call i64 @_ZNKSt6vectorI1LSaIS0_EE4sizeEv(%"class.std::vector.10"* %0) #3
  %19 = icmp ult i64 %17, %18
  br i1 %19, label %23, label %20

20:                                               ; preds = %12
  %21 = call i64 @_ZNKSt6vectorI1LSaIS0_EE8max_sizeEv(%"class.std::vector.10"* %0) #3
  %22 = icmp ugt i64 %17, %21
  br i1 %22, label %23, label %25

23:                                               ; preds = %20, %12
  %24 = call i64 @_ZNKSt6vectorI1LSaIS0_EE8max_sizeEv(%"class.std::vector.10"* %0) #3
  br label %26

25:                                               ; preds = %20
  br label %26

26:                                               ; preds = %25, %23
  %27 = phi i64 [ %24, %23 ], [ %17, %25 ]
  ret i64 %27
}

; Function Attrs: noinline nounwind uwtable
define linkonce_odr i64 @_ZN9__gnu_cxxmiIP1LSt6vectorIS1_SaIS1_EEEENS_17__normal_iteratorIT_T0_E15difference_typeERKS9_SC_(%"class.__gnu_cxx::__normal_iterator.16"* dereferenceable(8) %0, %"class.__gnu_cxx::__normal_iterator.16"* dereferenceable(8) %1) #4 comdat {
  %3 = call dereferenceable(8) %struct.L** @_ZNK9__gnu_cxx17__normal_iteratorIP1LSt6vectorIS1_SaIS1_EEE4baseEv(%"class.__gnu_cxx::__normal_iterator.16"* %0) #3
  %4 = load %struct.L*, %struct.L** %3, align 8
  %5 = call dereferenceable(8) %struct.L** @_ZNK9__gnu_cxx17__normal_iteratorIP1LSt6vectorIS1_SaIS1_EEE4baseEv(%"class.__gnu_cxx::__normal_iterator.16"* %1) #3
  %6 = load %struct.L*, %struct.L** %5, align 8
  %7 = ptrtoint %struct.L* %4 to i64
  %8 = ptrtoint %struct.L* %6 to i64
  %9 = sub i64 %7, %8
  %10 = sdiv exact i64 %9, 32
  ret i64 %10
}

; Function Attrs: noinline nounwind uwtable
define linkonce_odr %struct.L* @_ZNSt6vectorI1LSaIS0_EE5beginEv(%"class.std::vector.10"* %0) #4 comdat align 2 {
  %2 = alloca %"class.__gnu_cxx::__normal_iterator.16", align 8
  %3 = bitcast %"class.std::vector.10"* %0 to %"struct.std::_Vector_base.11"*
  %4 = getelementptr inbounds %"struct.std::_Vector_base.11", %"struct.std::_Vector_base.11"* %3, i32 0, i32 0
  %5 = getelementptr inbounds %"struct.std::_Vector_base<L, std::allocator<L> >::_Vector_impl", %"struct.std::_Vector_base<L, std::allocator<L> >::_Vector_impl"* %4, i32 0, i32 0
  call void @_ZN9__gnu_cxx17__normal_iteratorIP1LSt6vectorIS1_SaIS1_EEEC2ERKS2_(%"class.__gnu_cxx::__normal_iterator.16"* %2, %struct.L** dereferenceable(8) %5) #3
  %6 = getelementptr inbounds %"class.__gnu_cxx::__normal_iterator.16", %"class.__gnu_cxx::__normal_iterator.16"* %2, i32 0, i32 0
  %7 = load %struct.L*, %struct.L** %6, align 8
  ret %struct.L* %7
}

; Function Attrs: noinline uwtable
define linkonce_odr %struct.L* @_ZNSt12_Vector_baseI1LSaIS0_EE11_M_allocateEm(%"struct.std::_Vector_base.11"* %0, i64 %1) #0 comdat align 2 {
  %3 = icmp ne i64 %1, 0
  br i1 %3, label %4, label %8

4:                                                ; preds = %2
  %5 = getelementptr inbounds %"struct.std::_Vector_base.11", %"struct.std::_Vector_base.11"* %0, i32 0, i32 0
  %6 = bitcast %"struct.std::_Vector_base<L, std::allocator<L> >::_Vector_impl"* %5 to %"class.std::allocator.12"*
  %7 = call %struct.L* @_ZNSt16allocator_traitsISaI1LEE8allocateERS1_m(%"class.std::allocator.12"* dereferenceable(1) %6, i64 %1)
  br label %9

8:                                                ; preds = %2
  br label %9

9:                                                ; preds = %8, %4
  %10 = phi %struct.L* [ %7, %4 ], [ null, %8 ]
  ret %struct.L* %10
}

; Function Attrs: noinline uwtable
define linkonce_odr %struct.L* @_ZSt34__uninitialized_move_if_noexcept_aIP1LS1_SaIS0_EET0_T_S4_S3_RT1_(%struct.L* %0, %struct.L* %1, %struct.L* %2, %"class.std::allocator.12"* dereferenceable(1) %3) #0 comdat {
  %5 = alloca %"class.std::move_iterator", align 8
  %6 = alloca %"class.std::move_iterator", align 8
  %7 = call %struct.L* @_ZSt32__make_move_if_noexcept_iteratorI1LSt13move_iteratorIPS0_EET0_PT_(%struct.L* %0)
  %8 = getelementptr inbounds %"class.std::move_iterator", %"class.std::move_iterator"* %5, i32 0, i32 0
  store %struct.L* %7, %struct.L** %8, align 8
  %9 = call %struct.L* @_ZSt32__make_move_if_noexcept_iteratorI1LSt13move_iteratorIPS0_EET0_PT_(%struct.L* %1)
  %10 = getelementptr inbounds %"class.std::move_iterator", %"class.std::move_iterator"* %6, i32 0, i32 0
  store %struct.L* %9, %struct.L** %10, align 8
  %11 = getelementptr inbounds %"class.std::move_iterator", %"class.std::move_iterator"* %5, i32 0, i32 0
  %12 = load %struct.L*, %struct.L** %11, align 8
  %13 = getelementptr inbounds %"class.std::move_iterator", %"class.std::move_iterator"* %6, i32 0, i32 0
  %14 = load %struct.L*, %struct.L** %13, align 8
  %15 = call %struct.L* @_ZSt22__uninitialized_copy_aISt13move_iteratorIP1LES2_S1_ET0_T_S5_S4_RSaIT1_E(%struct.L* %12, %struct.L* %14, %struct.L* %2, %"class.std::allocator.12"* dereferenceable(1) %3)
  ret %struct.L* %15
}

; Function Attrs: noinline nounwind uwtable
define linkonce_odr dereferenceable(8) %struct.L** @_ZNK9__gnu_cxx17__normal_iteratorIP1LSt6vectorIS1_SaIS1_EEE4baseEv(%"class.__gnu_cxx::__normal_iterator.16"* %0) #4 comdat align 2 {
  %2 = getelementptr inbounds %"class.__gnu_cxx::__normal_iterator.16", %"class.__gnu_cxx::__normal_iterator.16"* %0, i32 0, i32 0
  ret %struct.L** %2
}

; Function Attrs: noinline uwtable
define linkonce_odr void @_ZNSt16allocator_traitsISaI1LEE7destroyIS0_EEvRS1_PT_(%"class.std::allocator.12"* dereferenceable(1) %0, %struct.L* %1) #0 comdat align 2 {
  %3 = bitcast %"class.std::allocator.12"* %0 to %"class.__gnu_cxx::new_allocator.13"*
  call void @_ZN9__gnu_cxx13new_allocatorI1LE7destroyIS1_EEvPT_(%"class.__gnu_cxx::new_allocator.13"* %3, %struct.L* %1)
  ret void
}

declare void @__cxa_rethrow()

declare void @__cxa_end_catch()

; Function Attrs: noinline nounwind uwtable
define linkonce_odr i64 @_ZNKSt6vectorI1LSaIS0_EE8max_sizeEv(%"class.std::vector.10"* %0) #4 comdat align 2 {
  %2 = bitcast %"class.std::vector.10"* %0 to %"struct.std::_Vector_base.11"*
  %3 = call dereferenceable(1) %"class.std::allocator.12"* @_ZNKSt12_Vector_baseI1LSaIS0_EE19_M_get_Tp_allocatorEv(%"struct.std::_Vector_base.11"* %2) #3
  %4 = call i64 @_ZNSt16allocator_traitsISaI1LEE8max_sizeERKS1_(%"class.std::allocator.12"* dereferenceable(1) %3) #3
  ret i64 %4
}

; Function Attrs: noinline nounwind uwtable
define linkonce_odr i64 @_ZNKSt6vectorI1LSaIS0_EE4sizeEv(%"class.std::vector.10"* %0) #4 comdat align 2 {
  %2 = bitcast %"class.std::vector.10"* %0 to %"struct.std::_Vector_base.11"*
  %3 = getelementptr inbounds %"struct.std::_Vector_base.11", %"struct.std::_Vector_base.11"* %2, i32 0, i32 0
  %4 = getelementptr inbounds %"struct.std::_Vector_base<L, std::allocator<L> >::_Vector_impl", %"struct.std::_Vector_base<L, std::allocator<L> >::_Vector_impl"* %3, i32 0, i32 1
  %5 = load %struct.L*, %struct.L** %4, align 8
  %6 = bitcast %"class.std::vector.10"* %0 to %"struct.std::_Vector_base.11"*
  %7 = getelementptr inbounds %"struct.std::_Vector_base.11", %"struct.std::_Vector_base.11"* %6, i32 0, i32 0
  %8 = getelementptr inbounds %"struct.std::_Vector_base<L, std::allocator<L> >::_Vector_impl", %"struct.std::_Vector_base<L, std::allocator<L> >::_Vector_impl"* %7, i32 0, i32 0
  %9 = load %struct.L*, %struct.L** %8, align 8
  %10 = ptrtoint %struct.L* %5 to i64
  %11 = ptrtoint %struct.L* %9 to i64
  %12 = sub i64 %10, %11
  %13 = sdiv exact i64 %12, 32
  ret i64 %13
}

; Function Attrs: noreturn
declare void @_ZSt20__throw_length_errorPKc(i8*) #9

; Function Attrs: noinline nounwind uwtable
define linkonce_odr dereferenceable(8) i64* @_ZSt3maxImERKT_S2_S2_(i64* dereferenceable(8) %0, i64* dereferenceable(8) %1) #4 comdat {
  %3 = load i64, i64* %0, align 8
  %4 = load i64, i64* %1, align 8
  %5 = icmp ult i64 %3, %4
  br i1 %5, label %6, label %7

6:                                                ; preds = %2
  br label %8

7:                                                ; preds = %2
  br label %8

8:                                                ; preds = %7, %6
  %.0 = phi i64* [ %1, %6 ], [ %0, %7 ]
  ret i64* %.0
}

; Function Attrs: noinline nounwind uwtable
define linkonce_odr i64 @_ZNSt16allocator_traitsISaI1LEE8max_sizeERKS1_(%"class.std::allocator.12"* dereferenceable(1) %0) #4 comdat align 2 {
  %2 = bitcast %"class.std::allocator.12"* %0 to %"class.__gnu_cxx::new_allocator.13"*
  %3 = call i64 @_ZNK9__gnu_cxx13new_allocatorI1LE8max_sizeEv(%"class.__gnu_cxx::new_allocator.13"* %2) #3
  ret i64 %3
}

; Function Attrs: noinline nounwind uwtable
define linkonce_odr dereferenceable(1) %"class.std::allocator.12"* @_ZNKSt12_Vector_baseI1LSaIS0_EE19_M_get_Tp_allocatorEv(%"struct.std::_Vector_base.11"* %0) #4 comdat align 2 {
  %2 = getelementptr inbounds %"struct.std::_Vector_base.11", %"struct.std::_Vector_base.11"* %0, i32 0, i32 0
  %3 = bitcast %"struct.std::_Vector_base<L, std::allocator<L> >::_Vector_impl"* %2 to %"class.std::allocator.12"*
  ret %"class.std::allocator.12"* %3
}

; Function Attrs: noinline nounwind uwtable
define linkonce_odr i64 @_ZNK9__gnu_cxx13new_allocatorI1LE8max_sizeEv(%"class.__gnu_cxx::new_allocator.13"* %0) #4 comdat align 2 {
  ret i64 576460752303423487
}

; Function Attrs: noinline nounwind uwtable
define linkonce_odr void @_ZN9__gnu_cxx17__normal_iteratorIP1LSt6vectorIS1_SaIS1_EEEC2ERKS2_(%"class.__gnu_cxx::__normal_iterator.16"* %0, %struct.L** dereferenceable(8) %1) unnamed_addr #4 comdat align 2 {
  %3 = getelementptr inbounds %"class.__gnu_cxx::__normal_iterator.16", %"class.__gnu_cxx::__normal_iterator.16"* %0, i32 0, i32 0
  %4 = load %struct.L*, %struct.L** %1, align 8
  store %struct.L* %4, %struct.L** %3, align 8
  ret void
}

; Function Attrs: noinline uwtable
define linkonce_odr %struct.L* @_ZNSt16allocator_traitsISaI1LEE8allocateERS1_m(%"class.std::allocator.12"* dereferenceable(1) %0, i64 %1) #0 comdat align 2 {
  %3 = bitcast %"class.std::allocator.12"* %0 to %"class.__gnu_cxx::new_allocator.13"*
  %4 = call %struct.L* @_ZN9__gnu_cxx13new_allocatorI1LE8allocateEmPKv(%"class.__gnu_cxx::new_allocator.13"* %3, i64 %1, i8* null)
  ret %struct.L* %4
}

; Function Attrs: noinline uwtable
define linkonce_odr %struct.L* @_ZN9__gnu_cxx13new_allocatorI1LE8allocateEmPKv(%"class.__gnu_cxx::new_allocator.13"* %0, i64 %1, i8* %2) #0 comdat align 2 {
  %4 = call i64 @_ZNK9__gnu_cxx13new_allocatorI1LE8max_sizeEv(%"class.__gnu_cxx::new_allocator.13"* %0) #3
  %5 = icmp ugt i64 %1, %4
  br i1 %5, label %6, label %7

6:                                                ; preds = %3
  call void @_ZSt17__throw_bad_allocv() #14
  unreachable

7:                                                ; preds = %3
  %8 = mul i64 %1, 32
  %9 = call i8* @_Znwm(i64 %8)
  %10 = bitcast i8* %9 to %struct.L*
  ret %struct.L* %10
}

; Function Attrs: noinline uwtable
define linkonce_odr %struct.L* @_ZSt22__uninitialized_copy_aISt13move_iteratorIP1LES2_S1_ET0_T_S5_S4_RSaIT1_E(%struct.L* %0, %struct.L* %1, %struct.L* %2, %"class.std::allocator.12"* dereferenceable(1) %3) #0 comdat {
  %5 = alloca %"class.std::move_iterator", align 8
  %6 = alloca %"class.std::move_iterator", align 8
  %7 = alloca %"class.std::move_iterator", align 8
  %8 = alloca %"class.std::move_iterator", align 8
  %9 = getelementptr inbounds %"class.std::move_iterator", %"class.std::move_iterator"* %5, i32 0, i32 0
  store %struct.L* %0, %struct.L** %9, align 8
  %10 = getelementptr inbounds %"class.std::move_iterator", %"class.std::move_iterator"* %6, i32 0, i32 0
  store %struct.L* %1, %struct.L** %10, align 8
  %11 = bitcast %"class.std::move_iterator"* %7 to i8*
  %12 = bitcast %"class.std::move_iterator"* %5 to i8*
  call void @llvm.memcpy.p0i8.p0i8.i64(i8* align 8 %11, i8* align 8 %12, i64 8, i1 false)
  %13 = bitcast %"class.std::move_iterator"* %8 to i8*
  %14 = bitcast %"class.std::move_iterator"* %6 to i8*
  call void @llvm.memcpy.p0i8.p0i8.i64(i8* align 8 %13, i8* align 8 %14, i64 8, i1 false)
  %15 = getelementptr inbounds %"class.std::move_iterator", %"class.std::move_iterator"* %7, i32 0, i32 0
  %16 = load %struct.L*, %struct.L** %15, align 8
  %17 = getelementptr inbounds %"class.std::move_iterator", %"class.std::move_iterator"* %8, i32 0, i32 0
  %18 = load %struct.L*, %struct.L** %17, align 8
  %19 = call %struct.L* @_ZSt18uninitialized_copyISt13move_iteratorIP1LES2_ET0_T_S5_S4_(%struct.L* %16, %struct.L* %18, %struct.L* %2)
  ret %struct.L* %19
}

; Function Attrs: noinline uwtable
define linkonce_odr %struct.L* @_ZSt32__make_move_if_noexcept_iteratorI1LSt13move_iteratorIPS0_EET0_PT_(%struct.L* %0) #0 comdat {
  %2 = alloca %"class.std::move_iterator", align 8
  call void @_ZNSt13move_iteratorIP1LEC2ES1_(%"class.std::move_iterator"* %2, %struct.L* %0)
  %3 = getelementptr inbounds %"class.std::move_iterator", %"class.std::move_iterator"* %2, i32 0, i32 0
  %4 = load %struct.L*, %struct.L** %3, align 8
  ret %struct.L* %4
}

; Function Attrs: noinline uwtable
define linkonce_odr %struct.L* @_ZSt18uninitialized_copyISt13move_iteratorIP1LES2_ET0_T_S5_S4_(%struct.L* %0, %struct.L* %1, %struct.L* %2) #0 comdat {
  %4 = alloca %"class.std::move_iterator", align 8
  %5 = alloca %"class.std::move_iterator", align 8
  %6 = alloca %"class.std::move_iterator", align 8
  %7 = alloca %"class.std::move_iterator", align 8
  %8 = getelementptr inbounds %"class.std::move_iterator", %"class.std::move_iterator"* %4, i32 0, i32 0
  store %struct.L* %0, %struct.L** %8, align 8
  %9 = getelementptr inbounds %"class.std::move_iterator", %"class.std::move_iterator"* %5, i32 0, i32 0
  store %struct.L* %1, %struct.L** %9, align 8
  %10 = bitcast %"class.std::move_iterator"* %6 to i8*
  %11 = bitcast %"class.std::move_iterator"* %4 to i8*
  call void @llvm.memcpy.p0i8.p0i8.i64(i8* align 8 %10, i8* align 8 %11, i64 8, i1 false)
  %12 = bitcast %"class.std::move_iterator"* %7 to i8*
  %13 = bitcast %"class.std::move_iterator"* %5 to i8*
  call void @llvm.memcpy.p0i8.p0i8.i64(i8* align 8 %12, i8* align 8 %13, i64 8, i1 false)
  %14 = getelementptr inbounds %"class.std::move_iterator", %"class.std::move_iterator"* %6, i32 0, i32 0
  %15 = load %struct.L*, %struct.L** %14, align 8
  %16 = getelementptr inbounds %"class.std::move_iterator", %"class.std::move_iterator"* %7, i32 0, i32 0
  %17 = load %struct.L*, %struct.L** %16, align 8
  %18 = call %struct.L* @_ZNSt20__uninitialized_copyILb0EE13__uninit_copyISt13move_iteratorIP1LES4_EET0_T_S7_S6_(%struct.L* %15, %struct.L* %17, %struct.L* %2)
  ret %struct.L* %18
}

; Function Attrs: noinline uwtable
define linkonce_odr %struct.L* @_ZNSt20__uninitialized_copyILb0EE13__uninit_copyISt13move_iteratorIP1LES4_EET0_T_S7_S6_(%struct.L* %0, %struct.L* %1, %struct.L* %2) #0 comdat align 2 personality i8* bitcast (i32 (...)* @__gxx_personality_v0 to i8*) {
  %4 = alloca %"class.std::move_iterator", align 8
  %5 = alloca %"class.std::move_iterator", align 8
  %6 = getelementptr inbounds %"class.std::move_iterator", %"class.std::move_iterator"* %4, i32 0, i32 0
  store %struct.L* %0, %struct.L** %6, align 8
  %7 = getelementptr inbounds %"class.std::move_iterator", %"class.std::move_iterator"* %5, i32 0, i32 0
  store %struct.L* %1, %struct.L** %7, align 8
  br label %8

8:                                                ; preds = %18, %3
  %.0 = phi %struct.L* [ %2, %3 ], [ %19, %18 ]
  %9 = invoke zeroext i1 @_ZStneIP1LEbRKSt13move_iteratorIT_ES6_(%"class.std::move_iterator"* dereferenceable(8) %4, %"class.std::move_iterator"* dereferenceable(8) %5)
          to label %10 unwind label %20

10:                                               ; preds = %8
  br i1 %9, label %11, label %27

11:                                               ; preds = %10
  %12 = call %struct.L* @_ZSt11__addressofI1LEPT_RS1_(%struct.L* dereferenceable(32) %.0) #3
  %13 = invoke dereferenceable(32) %struct.L* @_ZNKSt13move_iteratorIP1LEdeEv(%"class.std::move_iterator"* %4)
          to label %14 unwind label %20

14:                                               ; preds = %11
  invoke void @_ZSt10_ConstructI1LJS0_EEvPT_DpOT0_(%struct.L* %12, %struct.L* dereferenceable(32) %13)
          to label %15 unwind label %20

15:                                               ; preds = %14
  br label %16

16:                                               ; preds = %15
  %17 = invoke dereferenceable(8) %"class.std::move_iterator"* @_ZNSt13move_iteratorIP1LEppEv(%"class.std::move_iterator"* %4)
          to label %18 unwind label %20

18:                                               ; preds = %16
  %19 = getelementptr inbounds %struct.L, %struct.L* %.0, i32 1
  br label %8

20:                                               ; preds = %16, %14, %11, %8
  %21 = landingpad { i8*, i32 }
          catch i8* null
  %22 = extractvalue { i8*, i32 } %21, 0
  %23 = extractvalue { i8*, i32 } %21, 1
  br label %24

24:                                               ; preds = %20
  %25 = call i8* @__cxa_begin_catch(i8* %22) #3
  invoke void @_ZSt8_DestroyIP1LEvT_S2_(%struct.L* %2, %struct.L* %.0)
          to label %26 unwind label %28

26:                                               ; preds = %24
  invoke void @__cxa_rethrow() #14
          to label %40 unwind label %28

27:                                               ; preds = %10
  ret %struct.L* %.0

28:                                               ; preds = %26, %24
  %29 = landingpad { i8*, i32 }
          cleanup
  %30 = extractvalue { i8*, i32 } %29, 0
  %31 = extractvalue { i8*, i32 } %29, 1
  invoke void @__cxa_end_catch()
          to label %32 unwind label %37

32:                                               ; preds = %28
  br label %34

33:                                               ; No predecessors!
  call void @llvm.trap()
  unreachable

34:                                               ; preds = %32
  %35 = insertvalue { i8*, i32 } undef, i8* %30, 0
  %36 = insertvalue { i8*, i32 } %35, i32 %31, 1
  resume { i8*, i32 } %36

37:                                               ; preds = %28
  %38 = landingpad { i8*, i32 }
          catch i8* null
  %39 = extractvalue { i8*, i32 } %38, 0
  call void @__clang_call_terminate(i8* %39) #13
  unreachable

40:                                               ; preds = %26
  unreachable
}

; Function Attrs: noinline uwtable
define linkonce_odr zeroext i1 @_ZStneIP1LEbRKSt13move_iteratorIT_ES6_(%"class.std::move_iterator"* dereferenceable(8) %0, %"class.std::move_iterator"* dereferenceable(8) %1) #0 comdat {
  %3 = call zeroext i1 @_ZSteqIP1LEbRKSt13move_iteratorIT_ES6_(%"class.std::move_iterator"* dereferenceable(8) %0, %"class.std::move_iterator"* dereferenceable(8) %1)
  %4 = xor i1 %3, true
  ret i1 %4
}

; Function Attrs: noinline nounwind uwtable
define linkonce_odr void @_ZSt10_ConstructI1LJS0_EEvPT_DpOT0_(%struct.L* %0, %struct.L* dereferenceable(32) %1) #4 comdat {
  %3 = bitcast %struct.L* %0 to i8*
  %4 = bitcast i8* %3 to %struct.L*
  %5 = call dereferenceable(32) %struct.L* @_ZSt7forwardI1LEOT_RNSt16remove_referenceIS1_E4typeE(%struct.L* dereferenceable(32) %1) #3
  %6 = bitcast %struct.L* %4 to i8*
  %7 = bitcast %struct.L* %5 to i8*
  call void @llvm.memcpy.p0i8.p0i8.i64(i8* align 8 %6, i8* align 8 %7, i64 32, i1 false)
  ret void
}

; Function Attrs: noinline nounwind uwtable
define linkonce_odr %struct.L* @_ZSt11__addressofI1LEPT_RS1_(%struct.L* dereferenceable(32) %0) #4 comdat {
  ret %struct.L* %0
}

; Function Attrs: noinline nounwind uwtable
define linkonce_odr dereferenceable(32) %struct.L* @_ZNKSt13move_iteratorIP1LEdeEv(%"class.std::move_iterator"* %0) #4 comdat align 2 {
  %2 = getelementptr inbounds %"class.std::move_iterator", %"class.std::move_iterator"* %0, i32 0, i32 0
  %3 = load %struct.L*, %struct.L** %2, align 8
  ret %struct.L* %3
}

; Function Attrs: noinline nounwind uwtable
define linkonce_odr dereferenceable(8) %"class.std::move_iterator"* @_ZNSt13move_iteratorIP1LEppEv(%"class.std::move_iterator"* %0) #4 comdat align 2 {
  %2 = getelementptr inbounds %"class.std::move_iterator", %"class.std::move_iterator"* %0, i32 0, i32 0
  %3 = load %struct.L*, %struct.L** %2, align 8
  %4 = getelementptr inbounds %struct.L, %struct.L* %3, i32 1
  store %struct.L* %4, %struct.L** %2, align 8
  ret %"class.std::move_iterator"* %0
}

; Function Attrs: cold noreturn nounwind
declare void @llvm.trap() #11

; Function Attrs: noinline uwtable
define linkonce_odr zeroext i1 @_ZSteqIP1LEbRKSt13move_iteratorIT_ES6_(%"class.std::move_iterator"* dereferenceable(8) %0, %"class.std::move_iterator"* dereferenceable(8) %1) #0 comdat {
  %3 = call %struct.L* @_ZNKSt13move_iteratorIP1LE4baseEv(%"class.std::move_iterator"* %0)
  %4 = call %struct.L* @_ZNKSt13move_iteratorIP1LE4baseEv(%"class.std::move_iterator"* %1)
  %5 = icmp eq %struct.L* %3, %4
  ret i1 %5
}

; Function Attrs: noinline nounwind uwtable
define linkonce_odr %struct.L* @_ZNKSt13move_iteratorIP1LE4baseEv(%"class.std::move_iterator"* %0) #4 comdat align 2 {
  %2 = getelementptr inbounds %"class.std::move_iterator", %"class.std::move_iterator"* %0, i32 0, i32 0
  %3 = load %struct.L*, %struct.L** %2, align 8
  ret %struct.L* %3
}

; Function Attrs: noinline nounwind uwtable
define linkonce_odr void @_ZNSt13move_iteratorIP1LEC2ES1_(%"class.std::move_iterator"* %0, %struct.L* %1) unnamed_addr #4 comdat align 2 {
  %3 = getelementptr inbounds %"class.std::move_iterator", %"class.std::move_iterator"* %0, i32 0, i32 0
  store %struct.L* %1, %struct.L** %3, align 8
  ret void
}

; Function Attrs: noinline nounwind uwtable
define linkonce_odr void @_ZN9__gnu_cxx13new_allocatorI1LE7destroyIS1_EEvPT_(%"class.__gnu_cxx::new_allocator.13"* %0, %struct.L* %1) #4 comdat align 2 {
  ret void
}

; Function Attrs: noinline nounwind uwtable
define linkonce_odr void @_ZN9__gnu_cxx13new_allocatorISt6vectorI4EdgeSaIS2_EEEC2Ev(%"class.__gnu_cxx::new_allocator"* %0) unnamed_addr #4 comdat align 2 {
  ret void
}

; Function Attrs: noinline nounwind uwtable
define linkonce_odr void @_ZN9__gnu_cxx13new_allocatorISt6vectorI4EdgeSaIS2_EEED2Ev(%"class.__gnu_cxx::new_allocator"* %0) unnamed_addr #4 comdat align 2 {
  ret void
}

; Function Attrs: noinline uwtable
define linkonce_odr void @_ZNSt12_Vector_baseISt6vectorI4EdgeSaIS1_EESaIS3_EEC2EmRKS4_(%"struct.std::_Vector_base"* %0, i64 %1, %"class.std::allocator"* dereferenceable(1) %2) unnamed_addr #0 comdat align 2 personality i8* bitcast (i32 (...)* @__gxx_personality_v0 to i8*) {
  %4 = getelementptr inbounds %"struct.std::_Vector_base", %"struct.std::_Vector_base"* %0, i32 0, i32 0
