; ModuleID = '/home/pedro/tcc/exDataset/codenet/data/selection/p00745/s935254605.ll'
source_filename = "/home/pedro/tcc/exDataset/codenet/data/selection/p00745/s935254605.cpp"
target datalayout = "e-m:e-i64:64-f80:128-n8:16:32:64-S128"
target triple = "x86_64-pc-linux-gnu"

%"class.std::ios_base::Init" = type { i8 }
%"struct.std::complex" = type { { double, double } }
%"class.std::basic_istream" = type { i32 (...)**, i64, %"class.std::basic_ios" }
%"class.std::basic_ios" = type { %"class.std::ios_base", %"class.std::basic_ostream"*, i8, i8, %"class.std::basic_streambuf"*, %"class.std::ctype"*, %"class.std::num_put"*, %"class.std::num_get"* }
%"class.std::ios_base" = type { i32 (...)**, i64, i64, i32, i32, i32, %"struct.std::ios_base::_Callback_list"*, %"struct.std::ios_base::_Words", [8 x %"struct.std::ios_base::_Words"], i32, %"struct.std::ios_base::_Words"*, %"class.std::locale" }
%"struct.std::ios_base::_Callback_list" = type { %"struct.std::ios_base::_Callback_list"*, void (i32, %"class.std::ios_base"*, i32)*, i32, i32 }
%"struct.std::ios_base::_Words" = type { i8*, i64 }
%"class.std::locale" = type { %"class.std::locale::_Impl"* }
%"class.std::locale::_Impl" = type { i32, %"class.std::locale::facet"**, i64, %"class.std::locale::facet"**, i8** }
%"class.std::locale::facet" = type <{ i32 (...)**, i32, [4 x i8] }>
%"class.std::basic_ostream" = type { i32 (...)**, %"class.std::basic_ios" }
%"class.std::basic_streambuf" = type { i32 (...)**, i8*, i8*, i8*, i8*, i8*, i8*, %"class.std::locale" }
%"class.std::ctype" = type <{ %"class.std::locale::facet.base", [4 x i8], %struct.__locale_struct*, i8, [7 x i8], i32*, i32*, i16*, i8, [256 x i8], [256 x i8], i8, [6 x i8] }>
%"class.std::locale::facet.base" = type <{ i32 (...)**, i32 }>
%struct.__locale_struct = type { [13 x %struct.__locale_data*], i16*, i32*, i32*, [13 x i8*] }
%struct.__locale_data = type opaque
%"class.std::num_put" = type { %"class.std::locale::facet.base", [4 x i8] }
%"class.std::num_get" = type { %"class.std::locale::facet.base", [4 x i8] }
%"class.std::vector" = type { %"struct.std::_Vector_base" }
%"struct.std::_Vector_base" = type { %"struct.std::_Vector_base<int, std::allocator<int> >::_Vector_impl" }
%"struct.std::_Vector_base<int, std::allocator<int> >::_Vector_impl" = type { i32*, i32*, i32* }
%"class.__gnu_cxx::__normal_iterator" = type { i32* }
%"class.__gnu_cxx::__normal_iterator.0" = type { i32* }
%"class.std::allocator" = type { i8 }
%"class.std::vector.1" = type { %"struct.std::_Bvector_base" }
%"struct.std::_Bvector_base" = type { %"struct.std::_Bvector_base<std::allocator<bool> >::_Bvector_impl" }
%"struct.std::_Bvector_base<std::allocator<bool> >::_Bvector_impl" = type { %"struct.std::_Bvector_base<std::allocator<bool> >::_Bvector_impl_data" }
%"struct.std::_Bvector_base<std::allocator<bool> >::_Bvector_impl_data" = type { %"struct.std::_Bit_iterator", %"struct.std::_Bit_iterator", i64* }
%"struct.std::_Bit_iterator" = type { %"struct.std::_Bit_iterator_base.base", [4 x i8] }
%"struct.std::_Bit_iterator_base.base" = type <{ i64*, i32 }>
%"class.std::allocator.5" = type { i8 }
%"struct.std::_Bit_reference" = type { i64*, i64 }
%"class.__gnu_cxx::new_allocator.6" = type { i8 }
%"struct.std::_Bit_iterator_base" = type <{ i64*, i32, [4 x i8] }>
%"class.__gnu_cxx::new_allocator" = type { i8 }
%"class.std::move_iterator" = type { i32* }
%"class.std::allocator.2" = type { i8 }
%"class.__gnu_cxx::new_allocator.3" = type { i8 }
%"struct.std::iterator" = type { i8 }

$_ZNKSt7complexIdE4realB5cxx11Ev = comdat any

$_ZNKSt7complexIdE4imagB5cxx11Ev = comdat any

$_ZNSt6vectorIiSaIiEEC2Ev = comdat any

$_ZSt4swapIdENSt9enable_ifIXsr6__and_ISt6__not_ISt15__is_tuple_likeIT_EESt21is_move_constructibleIS3_ESt18is_move_assignableIS3_EEE5valueEvE4typeERS3_SC_ = comdat any

$_ZNSt6vectorIiSaIiEE9push_backEOi = comdat any

$_ZSt7reverseIN9__gnu_cxx17__normal_iteratorIPiSt6vectorIiSaIiEEEEEvT_S7_ = comdat any

$_ZNSt6vectorIiSaIiEE5beginEv = comdat any

$_ZNSt6vectorIiSaIiEE3endEv = comdat any

$_ZNSt6vectorIiSaIiEE6insertIN9__gnu_cxx17__normal_iteratorIPiS1_EEvEES6_NS4_IPKiS1_EET_SA_ = comdat any

$_ZN9__gnu_cxx17__normal_iteratorIPKiSt6vectorIiSaIiEEEC2IPiEERKNS0_IT_NS_11__enable_ifIXsr3std10__are_sameIS9_S8_EE7__valueES5_E6__typeEEE = comdat any

$_ZNSt6vectorIiSaIiEED2Ev = comdat any

$_ZNKSt6vectorIiSaIiEE4sizeEv = comdat any

$_ZNSaIbEC2Ev = comdat any

$_ZNSt6vectorIbSaIbEEC2EmRKbRKS0_ = comdat any

$_ZNSaIbED2Ev = comdat any

$_ZNSt6vectorIiSaIiEEixEm = comdat any

$_ZNSt6vectorIbSaIbEEixEm = comdat any

$_ZNSt14_Bit_referenceaSEb = comdat any

$_ZNSt14_Bit_referenceaSERKS_ = comdat any

$_ZNKSt14_Bit_referencecvbEv = comdat any

$_ZNSt6vectorIiSaIiEE9push_backERKi = comdat any

$_ZNSt6vectorIiSaIiEEaSERKS1_ = comdat any

$_ZNSt6vectorIbSaIbEED2Ev = comdat any

$_ZSt3minIdERKT_S2_S2_ = comdat any

$_ZSt3absIdET_RKSt7complexIS0_E = comdat any

$_ZStmiIdESt7complexIT_ERKS2_S4_ = comdat any

$_ZStmlIdESt7complexIT_ERKS2_S4_ = comdat any

$_ZNSt7complexIdEC2Edd = comdat any

$_ZSt5polarIdESt7complexIT_ERKS1_S4_ = comdat any

$_ZSt4swapISt7complexIdEENSt9enable_ifIXsr6__and_ISt6__not_ISt15__is_tuple_likeIT_EESt21is_move_constructibleIS5_ESt18is_move_assignableIS5_EEE5valueEvE4typeERS5_SE_ = comdat any

$_ZNSt12_Vector_baseIiSaIiEEC2Ev = comdat any

$__clang_call_terminate = comdat any

$_ZNSt12_Vector_baseIiSaIiEE12_Vector_implC2Ev = comdat any

$_ZNSaIiEC2Ev = comdat any

$_ZN9__gnu_cxx13new_allocatorIiEC2Ev = comdat any

$_ZSt8_DestroyIPiiEvT_S1_RSaIT0_E = comdat any

$_ZNSt12_Vector_baseIiSaIiEE19_M_get_Tp_allocatorEv = comdat any

$_ZNSt12_Vector_baseIiSaIiEED2Ev = comdat any

$_ZSt8_DestroyIPiEvT_S1_ = comdat any

$_ZNSt12_Destroy_auxILb1EE9__destroyIPiEEvT_S3_ = comdat any

$_ZNSt12_Vector_baseIiSaIiEE13_M_deallocateEPim = comdat any

$_ZNSt12_Vector_baseIiSaIiEE12_Vector_implD2Ev = comdat any

$_ZNSt16allocator_traitsISaIiEE10deallocateERS0_Pim = comdat any

$_ZN9__gnu_cxx13new_allocatorIiE10deallocateEPim = comdat any

$_ZNSaIiED2Ev = comdat any

$_ZN9__gnu_cxx13new_allocatorIiED2Ev = comdat any

$_ZSt4moveIRdEONSt16remove_referenceIT_E4typeEOS2_ = comdat any

$_ZNSt6vectorIiSaIiEE12emplace_backIJiEEEvDpOT_ = comdat any

$_ZSt4moveIRiEONSt16remove_referenceIT_E4typeEOS2_ = comdat any

$_ZNSt16allocator_traitsISaIiEE9constructIiJiEEEvRS0_PT_DpOT0_ = comdat any

$_ZSt7forwardIiEOT_RNSt16remove_referenceIS0_E4typeE = comdat any

$_ZNSt6vectorIiSaIiEE17_M_realloc_insertIJiEEEvN9__gnu_cxx17__normal_iteratorIPiS1_EEDpOT_ = comdat any

$_ZN9__gnu_cxx13new_allocatorIiE9constructIiJiEEEvPT_DpOT0_ = comdat any

$_ZNKSt6vectorIiSaIiEE12_M_check_lenEmPKc = comdat any

$_ZN9__gnu_cxxmiIPiSt6vectorIiSaIiEEEENS_17__normal_iteratorIT_T0_E15difference_typeERKS8_SB_ = comdat any

$_ZNSt12_Vector_baseIiSaIiEE11_M_allocateEm = comdat any

$_ZSt34__uninitialized_move_if_noexcept_aIPiS0_SaIiEET0_T_S3_S2_RT1_ = comdat any

$_ZNK9__gnu_cxx17__normal_iteratorIPiSt6vectorIiSaIiEEE4baseEv = comdat any

$_ZNSt16allocator_traitsISaIiEE7destroyIiEEvRS0_PT_ = comdat any

$_ZNKSt6vectorIiSaIiEE8max_sizeEv = comdat any

$_ZSt3maxImERKT_S2_S2_ = comdat any

$_ZNSt16allocator_traitsISaIiEE8max_sizeERKS0_ = comdat any

$_ZNKSt12_Vector_baseIiSaIiEE19_M_get_Tp_allocatorEv = comdat any

$_ZNK9__gnu_cxx13new_allocatorIiE8max_sizeEv = comdat any

$_ZNSt16allocator_traitsISaIiEE8allocateERS0_m = comdat any

$_ZN9__gnu_cxx13new_allocatorIiE8allocateEmPKv = comdat any

$_ZSt22__uninitialized_copy_aISt13move_iteratorIPiES1_iET0_T_S4_S3_RSaIT1_E = comdat any

$_ZSt32__make_move_if_noexcept_iteratorIiSt13move_iteratorIPiEET0_PT_ = comdat any

$_ZSt18uninitialized_copyISt13move_iteratorIPiES1_ET0_T_S4_S3_ = comdat any

$_ZNSt20__uninitialized_copyILb1EE13__uninit_copyISt13move_iteratorIPiES3_EET0_T_S6_S5_ = comdat any

$_ZSt4copyISt13move_iteratorIPiES1_ET0_T_S4_S3_ = comdat any

$_ZSt14__copy_move_a2ILb1EPiS0_ET1_T0_S2_S1_ = comdat any

$_ZSt12__miter_baseIPiEDTcl12__miter_basecldtfp_4baseEEESt13move_iteratorIT_E = comdat any

$_ZSt13__copy_move_aILb1EPiS0_ET1_T0_S2_S1_ = comdat any

$_ZSt12__niter_baseIPiET_S1_ = comdat any

$_ZNSt11__copy_moveILb1ELb1ESt26random_access_iterator_tagE8__copy_mIiEEPT_PKS3_S6_S4_ = comdat any

$_ZSt12__miter_baseIPiET_S1_ = comdat any

$_ZNKSt13move_iteratorIPiE4baseEv = comdat any

$_ZNSt13move_iteratorIPiEC2ES0_ = comdat any

$_ZN9__gnu_cxx13new_allocatorIiE7destroyIiEEvPT_ = comdat any

$_ZN9__gnu_cxx17__normal_iteratorIPiSt6vectorIiSaIiEEEC2ERKS1_ = comdat any

$_ZSt9__reverseIN9__gnu_cxx17__normal_iteratorIPiSt6vectorIiSaIiEEEEEvT_S7_St26random_access_iterator_tag = comdat any

$_ZSt19__iterator_categoryIN9__gnu_cxx17__normal_iteratorIPiSt6vectorIiSaIiEEEEENSt15iterator_traitsIT_E17iterator_categoryERKS8_ = comdat any

$_ZN9__gnu_cxxeqIPiSt6vectorIiSaIiEEEEbRKNS_17__normal_iteratorIT_T0_EESA_ = comdat any

$_ZN9__gnu_cxx17__normal_iteratorIPiSt6vectorIiSaIiEEEmmEv = comdat any

$_ZN9__gnu_cxxltIPiSt6vectorIiSaIiEEEEbRKNS_17__normal_iteratorIT_T0_EESA_ = comdat any

$_ZSt9iter_swapIN9__gnu_cxx17__normal_iteratorIPiSt6vectorIiSaIiEEEES6_EvT_T0_ = comdat any

$_ZN9__gnu_cxx17__normal_iteratorIPiSt6vectorIiSaIiEEEppEv = comdat any

$_ZSt4swapIiENSt9enable_ifIXsr6__and_ISt6__not_ISt15__is_tuple_likeIT_EESt21is_move_constructibleIS3_ESt18is_move_assignableIS3_EEE5valueEvE4typeERS3_SC_ = comdat any

$_ZNK9__gnu_cxx17__normal_iteratorIPiSt6vectorIiSaIiEEEdeEv = comdat any

$_ZN9__gnu_cxxmiIPKiSt6vectorIiSaIiEEEENS_17__normal_iteratorIT_T0_E15difference_typeERKS9_SC_ = comdat any

$_ZNKSt6vectorIiSaIiEE6cbeginEv = comdat any

$_ZNSt6vectorIiSaIiEE18_M_insert_dispatchIN9__gnu_cxx17__normal_iteratorIPiS1_EEEEvS6_T_S7_St12__false_type = comdat any

$_ZNK9__gnu_cxx17__normal_iteratorIPiSt6vectorIiSaIiEEEplEl = comdat any

$_ZNK9__gnu_cxx17__normal_iteratorIPKiSt6vectorIiSaIiEEE4baseEv = comdat any

$_ZN9__gnu_cxx17__normal_iteratorIPKiSt6vectorIiSaIiEEEC2ERKS2_ = comdat any

$_ZNSt6vectorIiSaIiEE15_M_range_insertIN9__gnu_cxx17__normal_iteratorIPiS1_EEEEvS6_T_S7_St20forward_iterator_tag = comdat any

$_ZN9__gnu_cxxneIPiSt6vectorIiSaIiEEEEbRKNS_17__normal_iteratorIT_T0_EESA_ = comdat any

$_ZSt8distanceIN9__gnu_cxx17__normal_iteratorIPiSt6vectorIiSaIiEEEEENSt15iterator_traitsIT_E15difference_typeES8_S8_ = comdat any

$_ZSt22__uninitialized_move_aIPiS0_SaIiEET0_T_S3_S2_RT1_ = comdat any

$_ZSt13move_backwardIPiS0_ET0_T_S2_S1_ = comdat any

$_ZSt4copyIN9__gnu_cxx17__normal_iteratorIPiSt6vectorIiSaIiEEEES6_ET0_T_S8_S7_ = comdat any

$_ZSt7advanceIN9__gnu_cxx17__normal_iteratorIPiSt6vectorIiSaIiEEEEmEvRT_T0_ = comdat any

$_ZSt22__uninitialized_copy_aIN9__gnu_cxx17__normal_iteratorIPiSt6vectorIiSaIiEEEES2_iET0_T_S8_S7_RSaIT1_E = comdat any

$_ZSt10__distanceIN9__gnu_cxx17__normal_iteratorIPiSt6vectorIiSaIiEEEEENSt15iterator_traitsIT_E15difference_typeES8_S8_St26random_access_iterator_tag = comdat any

$_ZSt18make_move_iteratorIPiESt13move_iteratorIT_ES2_ = comdat any

$_ZSt23__copy_move_backward_a2ILb1EPiS0_ET1_T0_S2_S1_ = comdat any

$_ZSt22__copy_move_backward_aILb1EPiS0_ET1_T0_S2_S1_ = comdat any

$_ZNSt20__copy_move_backwardILb1ELb1ESt26random_access_iterator_tagE13__copy_move_bIiEEPT_PKS3_S6_S4_ = comdat any

$_ZSt14__copy_move_a2ILb0EN9__gnu_cxx17__normal_iteratorIPiSt6vectorIiSaIiEEEES6_ET1_T0_S8_S7_ = comdat any

$_ZSt12__miter_baseIN9__gnu_cxx17__normal_iteratorIPiSt6vectorIiSaIiEEEEET_S7_ = comdat any

$_ZSt13__copy_move_aILb0EPiS0_ET1_T0_S2_S1_ = comdat any

$_ZSt12__niter_baseIPiSt6vectorIiSaIiEEET_N9__gnu_cxx17__normal_iteratorIS4_T0_EE = comdat any

$_ZNSt11__copy_moveILb0ELb1ESt26random_access_iterator_tagE8__copy_mIiEEPT_PKS3_S6_S4_ = comdat any

$_ZSt9__advanceIN9__gnu_cxx17__normal_iteratorIPiSt6vectorIiSaIiEEEElEvRT_T0_St26random_access_iterator_tag = comdat any

$_ZN9__gnu_cxx17__normal_iteratorIPiSt6vectorIiSaIiEEEpLEl = comdat any

$_ZSt18uninitialized_copyIN9__gnu_cxx17__normal_iteratorIPiSt6vectorIiSaIiEEEES2_ET0_T_S8_S7_ = comdat any

$_ZNSt20__uninitialized_copyILb1EE13__uninit_copyIN9__gnu_cxx17__normal_iteratorIPiSt6vectorIiSaIiEEEES4_EET0_T_SA_S9_ = comdat any

$_ZSt4copyIN9__gnu_cxx17__normal_iteratorIPiSt6vectorIiSaIiEEEES2_ET0_T_S8_S7_ = comdat any

$_ZSt14__copy_move_a2ILb0EN9__gnu_cxx17__normal_iteratorIPiSt6vectorIiSaIiEEEES2_ET1_T0_S8_S7_ = comdat any

$_ZN9__gnu_cxx13new_allocatorIbEC2Ev = comdat any

$_ZN9__gnu_cxx13new_allocatorIbED2Ev = comdat any

$_ZNSt13_Bvector_baseISaIbEEC2ERKS0_ = comdat any

$_ZNSt6vectorIbSaIbEE13_M_initializeEm = comdat any

$_ZNSt6vectorIbSaIbEE19_M_initialize_valueEb = comdat any

$_ZNSt13_Bvector_baseISaIbEED2Ev = comdat any

$_ZNSaImEC2IbEERKSaIT_E = comdat any

$_ZNSt13_Bvector_baseISaIbEE13_Bvector_implC2ERKSaImE = comdat any

$_ZNSaImED2Ev = comdat any

$_ZN9__gnu_cxx13new_allocatorImEC2Ev = comdat any

$_ZNSaImEC2ERKS_ = comdat any

$_ZNSt13_Bvector_baseISaIbEE18_Bvector_impl_dataC2Ev = comdat any

$_ZN9__gnu_cxx13new_allocatorImEC2ERKS1_ = comdat any

$_ZNSt13_Bit_iteratorC2Ev = comdat any

$_ZNSt18_Bit_iterator_baseC2EPmj = comdat any

$_ZN9__gnu_cxx13new_allocatorImED2Ev = comdat any

$_ZNSt13_Bvector_baseISaIbEE11_M_allocateEm = comdat any

$_ZNSt13_Bvector_baseISaIbEE8_S_nwordEm = comdat any

$_ZSt11__addressofImEPT_RS0_ = comdat any

$_ZNSt13_Bit_iteratorC2EPmj = comdat any

$_ZNKSt13_Bit_iteratorplEl = comdat any

$_ZNSt16allocator_traitsISaImEE8allocateERS0_m = comdat any

$_ZN9__gnu_cxx13new_allocatorImE8allocateEmPKv = comdat any

$_ZNK9__gnu_cxx13new_allocatorImE8max_sizeEv = comdat any

$_ZNSt13_Bit_iteratorpLEl = comdat any

$_ZNSt18_Bit_iterator_base7_M_incrEl = comdat any

$_ZNKSt13_Bvector_baseISaIbEE13_Bvector_impl11_M_end_addrEv = comdat any

$_ZNSt13_Bvector_baseISaIbEE13_M_deallocateEv = comdat any

$_ZNSt13_Bvector_baseISaIbEE13_Bvector_implD2Ev = comdat any

$_ZNSt16allocator_traitsISaImEE10deallocateERS0_Pmm = comdat any

$_ZNSt13_Bvector_baseISaIbEE18_Bvector_impl_data8_M_resetEv = comdat any

$_ZN9__gnu_cxx13new_allocatorImE10deallocateEPmm = comdat any

$_ZNKSt13_Bit_iteratordeEv = comdat any

$_ZNSt14_Bit_referenceC2EPmm = comdat any

$_ZNSt16allocator_traitsISaIiEE9constructIiJRKiEEEvRS0_PT_DpOT0_ = comdat any

$_ZNSt6vectorIiSaIiEE17_M_realloc_insertIJRKiEEEvN9__gnu_cxx17__normal_iteratorIPiS1_EEDpOT_ = comdat any

$_ZN9__gnu_cxx13new_allocatorIiE9constructIiJRKiEEEvPT_DpOT0_ = comdat any

$_ZSt7forwardIRKiEOT_RNSt16remove_referenceIS2_E4typeE = comdat any

$_ZNKSt6vectorIiSaIiEE8capacityEv = comdat any

$_ZNSt6vectorIiSaIiEE20_M_allocate_and_copyIN9__gnu_cxx17__normal_iteratorIPKiS1_EEEEPimT_S9_ = comdat any

$_ZNKSt6vectorIiSaIiEE5beginEv = comdat any

$_ZNKSt6vectorIiSaIiEE3endEv = comdat any

$_ZSt8_DestroyIN9__gnu_cxx17__normal_iteratorIPiSt6vectorIiSaIiEEEEiEvT_S7_RSaIT0_E = comdat any

$_ZSt4copyIN9__gnu_cxx17__normal_iteratorIPKiSt6vectorIiSaIiEEEENS1_IPiS6_EEET0_T_SB_SA_ = comdat any

$_ZSt4copyIPiS0_ET0_T_S2_S1_ = comdat any

$_ZSt22__uninitialized_copy_aIPiS0_iET0_T_S2_S1_RSaIT1_E = comdat any

$_ZSt22__uninitialized_copy_aIN9__gnu_cxx17__normal_iteratorIPKiSt6vectorIiSaIiEEEEPiiET0_T_SA_S9_RSaIT1_E = comdat any

$_ZSt18uninitialized_copyIN9__gnu_cxx17__normal_iteratorIPKiSt6vectorIiSaIiEEEEPiET0_T_SA_S9_ = comdat any

$_ZNSt20__uninitialized_copyILb1EE13__uninit_copyIN9__gnu_cxx17__normal_iteratorIPKiSt6vectorIiSaIiEEEEPiEET0_T_SC_SB_ = comdat any

$_ZSt4copyIN9__gnu_cxx17__normal_iteratorIPKiSt6vectorIiSaIiEEEEPiET0_T_SA_S9_ = comdat any

$_ZSt14__copy_move_a2ILb0EN9__gnu_cxx17__normal_iteratorIPKiSt6vectorIiSaIiEEEEPiET1_T0_SA_S9_ = comdat any

$_ZSt12__miter_baseIN9__gnu_cxx17__normal_iteratorIPKiSt6vectorIiSaIiEEEEET_S8_ = comdat any

$_ZSt13__copy_move_aILb0EPKiPiET1_T0_S4_S3_ = comdat any

$_ZSt12__niter_baseIPKiSt6vectorIiSaIiEEET_N9__gnu_cxx17__normal_iteratorIS5_T0_EE = comdat any

$_ZSt8_DestroyIN9__gnu_cxx17__normal_iteratorIPiSt6vectorIiSaIiEEEEEvT_S7_ = comdat any

$_ZNSt12_Destroy_auxILb1EE9__destroyIN9__gnu_cxx17__normal_iteratorIPiSt6vectorIiSaIiEEEEEEvT_S9_ = comdat any

$_ZSt14__copy_move_a2ILb0EN9__gnu_cxx17__normal_iteratorIPKiSt6vectorIiSaIiEEEENS1_IPiS6_EEET1_T0_SB_SA_ = comdat any

$_ZSt14__copy_move_a2ILb0EPiS0_ET1_T0_S2_S1_ = comdat any

$_ZSt18uninitialized_copyIPiS0_ET0_T_S2_S1_ = comdat any

$_ZNSt20__uninitialized_copyILb1EE13__uninit_copyIPiS2_EET0_T_S4_S3_ = comdat any

$_ZNSt7complexIdEmIIdEERS0_RKS_IT_E = comdat any

$_ZSt13__complex_absCd = comdat any

$_ZNKSt7complexIdE5__repEv = comdat any

$_ZNSt7complexIdEmLIdEERS0_RKS_IT_E = comdat any

$_ZSt4moveIRSt7complexIdEEONSt16remove_referenceIT_E4typeEOS4_ = comdat any

@_ZStL8__ioinit = internal global %"class.std::ios_base::Init" zeroinitializer, align 1
@__dso_handle = external hidden global i8
@K = global i32 0, align 4
@N = global i32 0, align 4
@ps = global [100 x %"struct.std::complex"] zeroinitializer, align 16
@as = global [100 x %"struct.std::complex"] zeroinitializer, align 16
@_ZSt3cin = external global %"class.std::basic_istream", align 8
@.str = private unnamed_addr constant [7 x i8] c"%.12f\0A\00", align 1
@.str.1 = private unnamed_addr constant [26 x i8] c"vector::_M_realloc_insert\00", align 1
@.str.2 = private unnamed_addr constant [24 x i8] c"vector::_M_range_insert\00", align 1
@llvm.global_ctors = appending global [1 x { i32, void ()*, i8* }] [{ i32, void ()*, i8* } { i32 65535, void ()* @_GLOBAL__sub_I_s935254605.cpp, i8* null }]

; Function Attrs: noinline uwtable
define internal void @__cxx_global_var_init() #0 section ".text.startup" {
  call void @_ZNSt8ios_base4InitC1Ev(%"class.std::ios_base::Init"* @_ZStL8__ioinit)
  %1 = call i32 @__cxa_atexit(void (i8*)* bitcast (void (%"class.std::ios_base::Init"*)* @_ZNSt8ios_base4InitD1Ev to void (i8*)*), i8* getelementptr inbounds (%"class.std::ios_base::Init", %"class.std::ios_base::Init"* @_ZStL8__ioinit, i32 0, i32 0), i8* @__dso_handle) #3
  ret void
}

declare void @_ZNSt8ios_base4InitC1Ev(%"class.std::ios_base::Init"*) unnamed_addr #1

; Function Attrs: nounwind
declare void @_ZNSt8ios_base4InitD1Ev(%"class.std::ios_base::Init"*) unnamed_addr #2

; Function Attrs: nounwind
declare i32 @__cxa_atexit(void (i8*)*, i8*, i8*) #3

; Function Attrs: noinline uwtable
define zeroext i1 @_Z2upSt7complexIdES0_S0_(double %0, double %1, double %2, double %3, double %4, double %5) #0 {
  %7 = alloca %"struct.std::complex", align 8
  %8 = alloca %"struct.std::complex", align 8
  %9 = alloca %"struct.std::complex", align 8
  %10 = bitcast %"struct.std::complex"* %7 to { double, double }*
  %11 = getelementptr inbounds { double, double }, { double, double }* %10, i32 0, i32 0
  store double %0, double* %11, align 8
  %12 = getelementptr inbounds { double, double }, { double, double }* %10, i32 0, i32 1
  store double %1, double* %12, align 8
  %13 = bitcast %"struct.std::complex"* %8 to { double, double }*
  %14 = getelementptr inbounds { double, double }, { double, double }* %13, i32 0, i32 0
  store double %2, double* %14, align 8
  %15 = getelementptr inbounds { double, double }, { double, double }* %13, i32 0, i32 1
  store double %3, double* %15, align 8
  %16 = bitcast %"struct.std::complex"* %9 to { double, double }*
  %17 = getelementptr inbounds { double, double }, { double, double }* %16, i32 0, i32 0
  store double %4, double* %17, align 8
  %18 = getelementptr inbounds { double, double }, { double, double }* %16, i32 0, i32 1
  store double %5, double* %18, align 8
  %19 = call double @_ZNKSt7complexIdE4realB5cxx11Ev(%"struct.std::complex"* %7)
  %20 = call double @_ZNKSt7complexIdE4realB5cxx11Ev(%"struct.std::complex"* %8)
  %21 = call double @_ZNKSt7complexIdE4imagB5cxx11Ev(%"struct.std::complex"* %7)
  %22 = call double @_ZNKSt7complexIdE4imagB5cxx11Ev(%"struct.std::complex"* %8)
  %23 = call double @_ZNKSt7complexIdE4realB5cxx11Ev(%"struct.std::complex"* %9)
  %24 = call double @_ZNKSt7complexIdE4imagB5cxx11Ev(%"struct.std::complex"* %9)
  %25 = fsub double %22, %21
  %26 = fsub double %20, %19
  %27 = fdiv double %25, %26
  %28 = fsub double %23, %19
  %29 = fmul double %27, %28
  %30 = fadd double %21, %29
  %31 = fcmp ogt double %30, %24
  ret i1 %31
}

; Function Attrs: noinline nounwind uwtable
define linkonce_odr double @_ZNKSt7complexIdE4realB5cxx11Ev(%"struct.std::complex"* %0) #4 comdat align 2 {
  %2 = getelementptr inbounds %"struct.std::complex", %"struct.std::complex"* %0, i32 0, i32 0
  %3 = getelementptr inbounds { double, double }, { double, double }* %2, i32 0, i32 0
  %4 = load double, double* %3, align 8
  ret double %4
}

; Function Attrs: noinline nounwind uwtable
define linkonce_odr double @_ZNKSt7complexIdE4imagB5cxx11Ev(%"struct.std::complex"* %0) #4 comdat align 2 {
  %2 = getelementptr inbounds %"struct.std::complex", %"struct.std::complex"* %0, i32 0, i32 0
  %3 = getelementptr inbounds { double, double }, { double, double }* %2, i32 0, i32 1
  %4 = load double, double* %3, align 8
  ret double %4
}

; Function Attrs: noinline uwtable
define void @_Z7addpathRSt6vectorIiSaIiEESt7complexIdES4_(%"class.std::vector"* dereferenceable(24) %0, double %1, double %2, double %3, double %4) #0 personality i8* bitcast (i32 (...)* @__gxx_personality_v0 to i8*) {
  %6 = alloca %"struct.std::complex", align 8
  %7 = alloca %"struct.std::complex", align 8
  %8 = alloca %"class.std::vector", align 8
  %9 = alloca double, align 8
  %10 = alloca double, align 8
  %11 = alloca double, align 8
  %12 = alloca double, align 8
  %13 = alloca %"struct.std::complex", align 8
  %14 = alloca %"struct.std::complex", align 8
  %15 = alloca %"struct.std::complex", align 8
  %16 = alloca i32, align 4
  %17 = alloca i32, align 4
  %18 = alloca %"class.__gnu_cxx::__normal_iterator", align 8
  %19 = alloca %"class.__gnu_cxx::__normal_iterator", align 8
  %20 = alloca %"class.__gnu_cxx::__normal_iterator.0", align 8
  %21 = alloca %"class.__gnu_cxx::__normal_iterator", align 8
  %22 = alloca %"class.__gnu_cxx::__normal_iterator", align 8
  %23 = alloca %"class.__gnu_cxx::__normal_iterator", align 8
  %24 = alloca %"class.__gnu_cxx::__normal_iterator", align 8
  %25 = bitcast %"struct.std::complex"* %6 to { double, double }*
  %26 = getelementptr inbounds { double, double }, { double, double }* %25, i32 0, i32 0
  store double %1, double* %26, align 8
  %27 = getelementptr inbounds { double, double }, { double, double }* %25, i32 0, i32 1
  store double %2, double* %27, align 8
  %28 = bitcast %"struct.std::complex"* %7 to { double, double }*
  %29 = getelementptr inbounds { double, double }, { double, double }* %28, i32 0, i32 0
  store double %3, double* %29, align 8
  %30 = getelementptr inbounds { double, double }, { double, double }* %28, i32 0, i32 1
  store double %4, double* %30, align 8
  call void @_ZNSt6vectorIiSaIiEEC2Ev(%"class.std::vector"* %8) #3
  %31 = invoke double @_ZNKSt7complexIdE4realB5cxx11Ev(%"struct.std::complex"* %6)
          to label %32 unwind label %43

32:                                               ; preds = %5
  store double %31, double* %9, align 8
  %33 = invoke double @_ZNKSt7complexIdE4realB5cxx11Ev(%"struct.std::complex"* %7)
          to label %34 unwind label %43

34:                                               ; preds = %32
  store double %33, double* %10, align 8
  %35 = invoke double @_ZNKSt7complexIdE4imagB5cxx11Ev(%"struct.std::complex"* %6)
          to label %36 unwind label %43

36:                                               ; preds = %34
  store double %35, double* %11, align 8
  %37 = invoke double @_ZNKSt7complexIdE4imagB5cxx11Ev(%"struct.std::complex"* %7)
          to label %38 unwind label %43

38:                                               ; preds = %36
  store double %37, double* %12, align 8
  %39 = load double, double* %9, align 8
  %40 = load double, double* %10, align 8
  %41 = fcmp ogt double %39, %40
  br i1 %41, label %42, label %47

42:                                               ; preds = %38
  call void @_ZSt4swapIdENSt9enable_ifIXsr6__and_ISt6__not_ISt15__is_tuple_likeIT_EESt21is_move_constructibleIS3_ESt18is_move_assignableIS3_EEE5valueEvE4typeERS3_SC_(double* dereferenceable(8) %9, double* dereferenceable(8) %10) #3
  call void @_ZSt4swapIdENSt9enable_ifIXsr6__and_ISt6__not_ISt15__is_tuple_likeIT_EESt21is_move_constructibleIS3_ESt18is_move_assignableIS3_EEE5valueEvE4typeERS3_SC_(double* dereferenceable(8) %11, double* dereferenceable(8) %12) #3
  br label %47

43:                                               ; preds = %114, %104, %94, %91, %65, %55, %51, %36, %34, %32, %5
  %44 = landingpad { i8*, i32 }
          cleanup
  %45 = extractvalue { i8*, i32 } %44, 0
  %46 = extractvalue { i8*, i32 } %44, 1
  call void @_ZNSt6vectorIiSaIiEED2Ev(%"class.std::vector"* %8) #3
  br label %130

47:                                               ; preds = %42, %38
  %.01 = phi i8 [ 1, %42 ], [ 0, %38 ]
  br label %48

48:                                               ; preds = %100, %47
  %.0 = phi i32 [ 0, %47 ], [ %101, %100 ]
  %49 = load i32, i32* @N, align 4
  %50 = icmp slt i32 %.0, %49
  br i1 %50, label %51, label %102

51:                                               ; preds = %48
  %52 = sext i32 %.0 to i64
  %53 = getelementptr inbounds [100 x %"struct.std::complex"], [100 x %"struct.std::complex"]* @as, i64 0, i64 %52
  %54 = invoke double @_ZNKSt7complexIdE4realB5cxx11Ev(%"struct.std::complex"* %53)
          to label %55 unwind label %43

55:                                               ; preds = %51
  %56 = sext i32 %.0 to i64
  %57 = getelementptr inbounds [100 x %"struct.std::complex"], [100 x %"struct.std::complex"]* @as, i64 0, i64 %56
  %58 = invoke double @_ZNKSt7complexIdE4imagB5cxx11Ev(%"struct.std::complex"* %57)
          to label %59 unwind label %43

59:                                               ; preds = %55
  %60 = load double, double* %9, align 8
  %61 = fcmp olt double %60, %54
  br i1 %61, label %62, label %99

62:                                               ; preds = %59
  %63 = load double, double* %10, align 8
  %64 = fcmp olt double %54, %63
  br i1 %64, label %65, label %99

65:                                               ; preds = %62
  %66 = bitcast %"struct.std::complex"* %13 to i8*
  %67 = bitcast %"struct.std::complex"* %6 to i8*
  call void @llvm.memcpy.p0i8.p0i8.i64(i8* align 8 %66, i8* align 8 %67, i64 16, i1 false)
  %68 = bitcast %"struct.std::complex"* %14 to i8*
  %69 = bitcast %"struct.std::complex"* %7 to i8*
  call void @llvm.memcpy.p0i8.p0i8.i64(i8* align 8 %68, i8* align 8 %69, i64 16, i1 false)
  %70 = sext i32 %.0 to i64
  %71 = getelementptr inbounds [100 x %"struct.std::complex"], [100 x %"struct.std::complex"]* @as, i64 0, i64 %70
  %72 = bitcast %"struct.std::complex"* %15 to i8*
  %73 = bitcast %"struct.std::complex"* %71 to i8*
  call void @llvm.memcpy.p0i8.p0i8.i64(i8* align 8 %72, i8* align 8 %73, i64 16, i1 false)
  %74 = bitcast %"struct.std::complex"* %13 to { double, double }*
  %75 = getelementptr inbounds { double, double }, { double, double }* %74, i32 0, i32 0
  %76 = load double, double* %75, align 8
  %77 = getelementptr inbounds { double, double }, { double, double }* %74, i32 0, i32 1
  %78 = load double, double* %77, align 8
  %79 = bitcast %"struct.std::complex"* %14 to { double, double }*
  %80 = getelementptr inbounds { double, double }, { double, double }* %79, i32 0, i32 0
  %81 = load double, double* %80, align 8
  %82 = getelementptr inbounds { double, double }, { double, double }* %79, i32 0, i32 1
  %83 = load double, double* %82, align 8
  %84 = bitcast %"struct.std::complex"* %15 to { double, double }*
  %85 = getelementptr inbounds { double, double }, { double, double }* %84, i32 0, i32 0
  %86 = load double, double* %85, align 8
  %87 = getelementptr inbounds { double, double }, { double, double }* %84, i32 0, i32 1
  %88 = load double, double* %87, align 8
  %89 = invoke zeroext i1 @_Z2upSt7complexIdES0_S0_(double %76, double %78, double %81, double %83, double %86, double %88)
          to label %90 unwind label %43

90:                                               ; preds = %65
  br i1 %89, label %91, label %94

91:                                               ; preds = %90
  %92 = mul nsw i32 %.0, 2
  store i32 %92, i32* %16, align 4
  invoke void @_ZNSt6vectorIiSaIiEE9push_backEOi(%"class.std::vector"* %8, i32* dereferenceable(4) %16)
          to label %93 unwind label %43

93:                                               ; preds = %91
  br label %98

94:                                               ; preds = %90
  %95 = mul nsw i32 %.0, 2
  %96 = add nsw i32 %95, 1
  store i32 %96, i32* %17, align 4
  invoke void @_ZNSt6vectorIiSaIiEE9push_backEOi(%"class.std::vector"* %8, i32* dereferenceable(4) %17)
          to label %97 unwind label %43

97:                                               ; preds = %94
  br label %98

98:                                               ; preds = %97, %93
  br label %99

99:                                               ; preds = %98, %62, %59
  br label %100

100:                                              ; preds = %99
  %101 = add nsw i32 %.0, 1
  br label %48

102:                                              ; preds = %48
  %103 = trunc i8 %.01 to i1
  br i1 %103, label %104, label %114

104:                                              ; preds = %102
  %105 = call i32* @_ZNSt6vectorIiSaIiEE5beginEv(%"class.std::vector"* %8) #3
  %106 = getelementptr inbounds %"class.__gnu_cxx::__normal_iterator", %"class.__gnu_cxx::__normal_iterator"* %18, i32 0, i32 0
  store i32* %105, i32** %106, align 8
  %107 = call i32* @_ZNSt6vectorIiSaIiEE3endEv(%"class.std::vector"* %8) #3
  %108 = getelementptr inbounds %"class.__gnu_cxx::__normal_iterator", %"class.__gnu_cxx::__normal_iterator"* %19, i32 0, i32 0
  store i32* %107, i32** %108, align 8
  %109 = getelementptr inbounds %"class.__gnu_cxx::__normal_iterator", %"class.__gnu_cxx::__normal_iterator"* %18, i32 0, i32 0
  %110 = load i32*, i32** %109, align 8
  %111 = getelementptr inbounds %"class.__gnu_cxx::__normal_iterator", %"class.__gnu_cxx::__normal_iterator"* %19, i32 0, i32 0
  %112 = load i32*, i32** %111, align 8
  invoke void @_ZSt7reverseIN9__gnu_cxx17__normal_iteratorIPiSt6vectorIiSaIiEEEEEvT_S7_(i32* %110, i32* %112)
          to label %113 unwind label %43

113:                                              ; preds = %104
  br label %114

114:                                              ; preds = %113, %102
  %115 = call i32* @_ZNSt6vectorIiSaIiEE3endEv(%"class.std::vector"* %0) #3
  %116 = getelementptr inbounds %"class.__gnu_cxx::__normal_iterator", %"class.__gnu_cxx::__normal_iterator"* %21, i32 0, i32 0
  store i32* %115, i32** %116, align 8
  call void @_ZN9__gnu_cxx17__normal_iteratorIPKiSt6vectorIiSaIiEEEC2IPiEERKNS0_IT_NS_11__enable_ifIXsr3std10__are_sameIS9_S8_EE7__valueES5_E6__typeEEE(%"class.__gnu_cxx::__normal_iterator.0"* %20, %"class.__gnu_cxx::__normal_iterator"* dereferenceable(8) %21) #3
  %117 = call i32* @_ZNSt6vectorIiSaIiEE5beginEv(%"class.std::vector"* %8) #3
  %118 = getelementptr inbounds %"class.__gnu_cxx::__normal_iterator", %"class.__gnu_cxx::__normal_iterator"* %22, i32 0, i32 0
  store i32* %117, i32** %118, align 8
  %119 = call i32* @_ZNSt6vectorIiSaIiEE3endEv(%"class.std::vector"* %8) #3
  %120 = getelementptr inbounds %"class.__gnu_cxx::__normal_iterator", %"class.__gnu_cxx::__normal_iterator"* %23, i32 0, i32 0
  store i32* %119, i32** %120, align 8
  %121 = getelementptr inbounds %"class.__gnu_cxx::__normal_iterator.0", %"class.__gnu_cxx::__normal_iterator.0"* %20, i32 0, i32 0
  %122 = load i32*, i32** %121, align 8
  %123 = getelementptr inbounds %"class.__gnu_cxx::__normal_iterator", %"class.__gnu_cxx::__normal_iterator"* %22, i32 0, i32 0
  %124 = load i32*, i32** %123, align 8
  %125 = getelementptr inbounds %"class.__gnu_cxx::__normal_iterator", %"class.__gnu_cxx::__normal_iterator"* %23, i32 0, i32 0
  %126 = load i32*, i32** %125, align 8
  %127 = invoke i32* @_ZNSt6vectorIiSaIiEE6insertIN9__gnu_cxx17__normal_iteratorIPiS1_EEvEES6_NS4_IPKiS1_EET_SA_(%"class.std::vector"* %0, i32* %122, i32* %124, i32* %126)
          to label %128 unwind label %43

128:                                              ; preds = %114
  %129 = getelementptr inbounds %"class.__gnu_cxx::__normal_iterator", %"class.__gnu_cxx::__normal_iterator"* %24, i32 0, i32 0
  store i32* %127, i32** %129, align 8
  call void @_ZNSt6vectorIiSaIiEED2Ev(%"class.std::vector"* %8) #3
  ret void

130:                                              ; preds = %43
  %131 = insertvalue { i8*, i32 } undef, i8* %45, 0
  %132 = insertvalue { i8*, i32 } %131, i32 %46, 1
  resume { i8*, i32 } %132
}

; Function Attrs: noinline nounwind uwtable
define linkonce_odr void @_ZNSt6vectorIiSaIiEEC2Ev(%"class.std::vector"* %0) unnamed_addr #4 comdat align 2 personality i8* bitcast (i32 (...)* @__gxx_personality_v0 to i8*) {
  %2 = bitcast %"class.std::vector"* %0 to %"struct.std::_Vector_base"*
  invoke void @_ZNSt12_Vector_baseIiSaIiEEC2Ev(%"struct.std::_Vector_base"* %2)
          to label %3 unwind label %4

3:                                                ; preds = %1
  ret void

4:                                                ; preds = %1
  %5 = landingpad { i8*, i32 }
          catch i8* null
  %6 = extractvalue { i8*, i32 } %5, 0
  call void @__clang_call_terminate(i8* %6) #13
  unreachable
}

declare i32 @__gxx_personality_v0(...)

; Function Attrs: noinline nounwind uwtable
define linkonce_odr void @_ZSt4swapIdENSt9enable_ifIXsr6__and_ISt6__not_ISt15__is_tuple_likeIT_EESt21is_move_constructibleIS3_ESt18is_move_assignableIS3_EEE5valueEvE4typeERS3_SC_(double* dereferenceable(8) %0, double* dereferenceable(8) %1) #4 comdat {
  %3 = alloca double, align 8
  %4 = call dereferenceable(8) double* @_ZSt4moveIRdEONSt16remove_referenceIT_E4typeEOS2_(double* dereferenceable(8) %0) #3
  %5 = load double, double* %4, align 8
  store double %5, double* %3, align 8
  %6 = call dereferenceable(8) double* @_ZSt4moveIRdEONSt16remove_referenceIT_E4typeEOS2_(double* dereferenceable(8) %1) #3
  %7 = load double, double* %6, align 8
  store double %7, double* %0, align 8
  %8 = call dereferenceable(8) double* @_ZSt4moveIRdEONSt16remove_referenceIT_E4typeEOS2_(double* dereferenceable(8) %3) #3
  %9 = load double, double* %8, align 8
  store double %9, double* %1, align 8
  ret void
}

; Function Attrs: noinline uwtable
define linkonce_odr void @_ZNSt6vectorIiSaIiEE9push_backEOi(%"class.std::vector"* %0, i32* dereferenceable(4) %1) #0 comdat align 2 {
  %3 = call dereferenceable(4) i32* @_ZSt4moveIRiEONSt16remove_referenceIT_E4typeEOS2_(i32* dereferenceable(4) %1) #3
  call void @_ZNSt6vectorIiSaIiEE12emplace_backIJiEEEvDpOT_(%"class.std::vector"* %0, i32* dereferenceable(4) %3)
  ret void
}

; Function Attrs: noinline uwtable
define linkonce_odr void @_ZSt7reverseIN9__gnu_cxx17__normal_iteratorIPiSt6vectorIiSaIiEEEEEvT_S7_(i32* %0, i32* %1) #0 comdat {
  %3 = alloca %"class.__gnu_cxx::__normal_iterator", align 8
  %4 = alloca %"class.__gnu_cxx::__normal_iterator", align 8
  %5 = alloca %"class.__gnu_cxx::__normal_iterator", align 8
  %6 = alloca %"class.__gnu_cxx::__normal_iterator", align 8
  %7 = getelementptr inbounds %"class.__gnu_cxx::__normal_iterator", %"class.__gnu_cxx::__normal_iterator"* %3, i32 0, i32 0
  store i32* %0, i32** %7, align 8
  %8 = getelementptr inbounds %"class.__gnu_cxx::__normal_iterator", %"class.__gnu_cxx::__normal_iterator"* %4, i32 0, i32 0
  store i32* %1, i32** %8, align 8
  %9 = bitcast %"class.__gnu_cxx::__normal_iterator"* %5 to i8*
  %10 = bitcast %"class.__gnu_cxx::__normal_iterator"* %3 to i8*
  call void @llvm.memcpy.p0i8.p0i8.i64(i8* align 8 %9, i8* align 8 %10, i64 8, i1 false)
  %11 = bitcast %"class.__gnu_cxx::__normal_iterator"* %6 to i8*
  %12 = bitcast %"class.__gnu_cxx::__normal_iterator"* %4 to i8*
  call void @llvm.memcpy.p0i8.p0i8.i64(i8* align 8 %11, i8* align 8 %12, i64 8, i1 false)
  call void @_ZSt19__iterator_categoryIN9__gnu_cxx17__normal_iteratorIPiSt6vectorIiSaIiEEEEENSt15iterator_traitsIT_E17iterator_categoryERKS8_(%"class.__gnu_cxx::__normal_iterator"* dereferenceable(8) %3)
  %13 = getelementptr inbounds %"class.__gnu_cxx::__normal_iterator", %"class.__gnu_cxx::__normal_iterator"* %5, i32 0, i32 0
  %14 = load i32*, i32** %13, align 8
  %15 = getelementptr inbounds %"class.__gnu_cxx::__normal_iterator", %"class.__gnu_cxx::__normal_iterator"* %6, i32 0, i32 0
  %16 = load i32*, i32** %15, align 8
  call void @_ZSt9__reverseIN9__gnu_cxx17__normal_iteratorIPiSt6vectorIiSaIiEEEEEvT_S7_St26random_access_iterator_tag(i32* %14, i32* %16)
  ret void
}

; Function Attrs: noinline nounwind uwtable
define linkonce_odr i32* @_ZNSt6vectorIiSaIiEE5beginEv(%"class.std::vector"* %0) #4 comdat align 2 {
  %2 = alloca %"class.__gnu_cxx::__normal_iterator", align 8
  %3 = bitcast %"class.std::vector"* %0 to %"struct.std::_Vector_base"*
  %4 = getelementptr inbounds %"struct.std::_Vector_base", %"struct.std::_Vector_base"* %3, i32 0, i32 0
  %5 = getelementptr inbounds %"struct.std::_Vector_base<int, std::allocator<int> >::_Vector_impl", %"struct.std::_Vector_base<int, std::allocator<int> >::_Vector_impl"* %4, i32 0, i32 0
  call void @_ZN9__gnu_cxx17__normal_iteratorIPiSt6vectorIiSaIiEEEC2ERKS1_(%"class.__gnu_cxx::__normal_iterator"* %2, i32** dereferenceable(8) %5) #3
  %6 = getelementptr inbounds %"class.__gnu_cxx::__normal_iterator", %"class.__gnu_cxx::__normal_iterator"* %2, i32 0, i32 0
  %7 = load i32*, i32** %6, align 8
  ret i32* %7
}

; Function Attrs: noinline nounwind uwtable
define linkonce_odr i32* @_ZNSt6vectorIiSaIiEE3endEv(%"class.std::vector"* %0) #4 comdat align 2 {
  %2 = alloca %"class.__gnu_cxx::__normal_iterator", align 8
  %3 = bitcast %"class.std::vector"* %0 to %"struct.std::_Vector_base"*
  %4 = getelementptr inbounds %"struct.std::_Vector_base", %"struct.std::_Vector_base"* %3, i32 0, i32 0
  %5 = getelementptr inbounds %"struct.std::_Vector_base<int, std::allocator<int> >::_Vector_impl", %"struct.std::_Vector_base<int, std::allocator<int> >::_Vector_impl"* %4, i32 0, i32 1
  call void @_ZN9__gnu_cxx17__normal_iteratorIPiSt6vectorIiSaIiEEEC2ERKS1_(%"class.__gnu_cxx::__normal_iterator"* %2, i32** dereferenceable(8) %5) #3
  %6 = getelementptr inbounds %"class.__gnu_cxx::__normal_iterator", %"class.__gnu_cxx::__normal_iterator"* %2, i32 0, i32 0
  %7 = load i32*, i32** %6, align 8
  ret i32* %7
}

; Function Attrs: noinline uwtable
define linkonce_odr i32* @_ZNSt6vectorIiSaIiEE6insertIN9__gnu_cxx17__normal_iteratorIPiS1_EEvEES6_NS4_IPKiS1_EET_SA_(%"class.std::vector"* %0, i32* %1, i32* %2, i32* %3) #0 comdat align 2 {
  %5 = alloca %"class.__gnu_cxx::__normal_iterator", align 8
  %6 = alloca %"class.__gnu_cxx::__normal_iterator.0", align 8
  %7 = alloca %"class.__gnu_cxx::__normal_iterator", align 8
  %8 = alloca %"class.__gnu_cxx::__normal_iterator", align 8
  %9 = alloca %"class.__gnu_cxx::__normal_iterator.0", align 8
  %10 = alloca %"class.__gnu_cxx::__normal_iterator", align 8
  %11 = alloca %"class.__gnu_cxx::__normal_iterator", align 8
  %12 = alloca %"class.__gnu_cxx::__normal_iterator", align 8
  %13 = alloca %"class.__gnu_cxx::__normal_iterator", align 8
  %14 = alloca %"class.__gnu_cxx::__normal_iterator", align 8
  %15 = getelementptr inbounds %"class.__gnu_cxx::__normal_iterator.0", %"class.__gnu_cxx::__normal_iterator.0"* %6, i32 0, i32 0
  store i32* %1, i32** %15, align 8
  %16 = getelementptr inbounds %"class.__gnu_cxx::__normal_iterator", %"class.__gnu_cxx::__normal_iterator"* %7, i32 0, i32 0
  store i32* %2, i32** %16, align 8
  %17 = getelementptr inbounds %"class.__gnu_cxx::__normal_iterator", %"class.__gnu_cxx::__normal_iterator"* %8, i32 0, i32 0
  store i32* %3, i32** %17, align 8
  %18 = call i32* @_ZNKSt6vectorIiSaIiEE6cbeginEv(%"class.std::vector"* %0) #3
  %19 = getelementptr inbounds %"class.__gnu_cxx::__normal_iterator.0", %"class.__gnu_cxx::__normal_iterator.0"* %9, i32 0, i32 0
  store i32* %18, i32** %19, align 8
  %20 = call i64 @_ZN9__gnu_cxxmiIPKiSt6vectorIiSaIiEEEENS_17__normal_iteratorIT_T0_E15difference_typeERKS9_SC_(%"class.__gnu_cxx::__normal_iterator.0"* dereferenceable(8) %6, %"class.__gnu_cxx::__normal_iterator.0"* dereferenceable(8) %9) #3
  %21 = call i32* @_ZNSt6vectorIiSaIiEE5beginEv(%"class.std::vector"* %0) #3
  %22 = getelementptr inbounds %"class.__gnu_cxx::__normal_iterator", %"class.__gnu_cxx::__normal_iterator"* %11, i32 0, i32 0
  store i32* %21, i32** %22, align 8
  %23 = call i32* @_ZNK9__gnu_cxx17__normal_iteratorIPiSt6vectorIiSaIiEEEplEl(%"class.__gnu_cxx::__normal_iterator"* %11, i64 %20) #3
  %24 = getelementptr inbounds %"class.__gnu_cxx::__normal_iterator", %"class.__gnu_cxx::__normal_iterator"* %10, i32 0, i32 0
  store i32* %23, i32** %24, align 8
  %25 = bitcast %"class.__gnu_cxx::__normal_iterator"* %12 to i8*
  %26 = bitcast %"class.__gnu_cxx::__normal_iterator"* %7 to i8*
  call void @llvm.memcpy.p0i8.p0i8.i64(i8* align 8 %25, i8* align 8 %26, i64 8, i1 false)
  %27 = bitcast %"class.__gnu_cxx::__normal_iterator"* %13 to i8*
  %28 = bitcast %"class.__gnu_cxx::__normal_iterator"* %8 to i8*
  call void @llvm.memcpy.p0i8.p0i8.i64(i8* align 8 %27, i8* align 8 %28, i64 8, i1 false)
  %29 = getelementptr inbounds %"class.__gnu_cxx::__normal_iterator", %"class.__gnu_cxx::__normal_iterator"* %10, i32 0, i32 0
  %30 = load i32*, i32** %29, align 8
  %31 = getelementptr inbounds %"class.__gnu_cxx::__normal_iterator", %"class.__gnu_cxx::__normal_iterator"* %12, i32 0, i32 0
  %32 = load i32*, i32** %31, align 8
  %33 = getelementptr inbounds %"class.__gnu_cxx::__normal_iterator", %"class.__gnu_cxx::__normal_iterator"* %13, i32 0, i32 0
  %34 = load i32*, i32** %33, align 8
  call void @_ZNSt6vectorIiSaIiEE18_M_insert_dispatchIN9__gnu_cxx17__normal_iteratorIPiS1_EEEEvS6_T_S7_St12__false_type(%"class.std::vector"* %0, i32* %30, i32* %32, i32* %34)
  %35 = call i32* @_ZNSt6vectorIiSaIiEE5beginEv(%"class.std::vector"* %0) #3
  %36 = getelementptr inbounds %"class.__gnu_cxx::__normal_iterator", %"class.__gnu_cxx::__normal_iterator"* %14, i32 0, i32 0
  store i32* %35, i32** %36, align 8
  %37 = call i32* @_ZNK9__gnu_cxx17__normal_iteratorIPiSt6vectorIiSaIiEEEplEl(%"class.__gnu_cxx::__normal_iterator"* %14, i64 %20) #3
  %38 = getelementptr inbounds %"class.__gnu_cxx::__normal_iterator", %"class.__gnu_cxx::__normal_iterator"* %5, i32 0, i32 0
  store i32* %37, i32** %38, align 8
  %39 = getelementptr inbounds %"class.__gnu_cxx::__normal_iterator", %"class.__gnu_cxx::__normal_iterator"* %5, i32 0, i32 0
  %40 = load i32*, i32** %39, align 8
  ret i32* %40
}

; Function Attrs: noinline nounwind uwtable
define linkonce_odr void @_ZN9__gnu_cxx17__normal_iteratorIPKiSt6vectorIiSaIiEEEC2IPiEERKNS0_IT_NS_11__enable_ifIXsr3std10__are_sameIS9_S8_EE7__valueES5_E6__typeEEE(%"class.__gnu_cxx::__normal_iterator.0"* %0, %"class.__gnu_cxx::__normal_iterator"* dereferenceable(8) %1) unnamed_addr #4 comdat align 2 {
  %3 = getelementptr inbounds %"class.__gnu_cxx::__normal_iterator.0", %"class.__gnu_cxx::__normal_iterator.0"* %0, i32 0, i32 0
  %4 = call dereferenceable(8) i32** @_ZNK9__gnu_cxx17__normal_iteratorIPiSt6vectorIiSaIiEEE4baseEv(%"class.__gnu_cxx::__normal_iterator"* %1) #3
  %5 = load i32*, i32** %4, align 8
  store i32* %5, i32** %3, align 8
  ret void
}

; Function Attrs: noinline nounwind uwtable
define linkonce_odr void @_ZNSt6vectorIiSaIiEED2Ev(%"class.std::vector"* %0) unnamed_addr #4 comdat align 2 personality i8* bitcast (i32 (...)* @__gxx_personality_v0 to i8*) {
  %2 = bitcast %"class.std::vector"* %0 to %"struct.std::_Vector_base"*
  %3 = getelementptr inbounds %"struct.std::_Vector_base", %"struct.std::_Vector_base"* %2, i32 0, i32 0
  %4 = getelementptr inbounds %"struct.std::_Vector_base<int, std::allocator<int> >::_Vector_impl", %"struct.std::_Vector_base<int, std::allocator<int> >::_Vector_impl"* %3, i32 0, i32 0
  %5 = load i32*, i32** %4, align 8
  %6 = bitcast %"class.std::vector"* %0 to %"struct.std::_Vector_base"*
  %7 = getelementptr inbounds %"struct.std::_Vector_base", %"struct.std::_Vector_base"* %6, i32 0, i32 0
  %8 = getelementptr inbounds %"struct.std::_Vector_base<int, std::allocator<int> >::_Vector_impl", %"struct.std::_Vector_base<int, std::allocator<int> >::_Vector_impl"* %7, i32 0, i32 1
  %9 = load i32*, i32** %8, align 8
  %10 = bitcast %"class.std::vector"* %0 to %"struct.std::_Vector_base"*
  %11 = call dereferenceable(1) %"class.std::allocator"* @_ZNSt12_Vector_baseIiSaIiEE19_M_get_Tp_allocatorEv(%"struct.std::_Vector_base"* %10) #3
  invoke void @_ZSt8_DestroyIPiiEvT_S1_RSaIT0_E(i32* %5, i32* %9, %"class.std::allocator"* dereferenceable(1) %11)
          to label %12 unwind label %14

12:                                               ; preds = %1
  %13 = bitcast %"class.std::vector"* %0 to %"struct.std::_Vector_base"*
  call void @_ZNSt12_Vector_baseIiSaIiEED2Ev(%"struct.std::_Vector_base"* %13) #3
  ret void

14:                                               ; preds = %1
  %15 = landingpad { i8*, i32 }
          catch i8* null
  %16 = extractvalue { i8*, i32 } %15, 0
  %17 = extractvalue { i8*, i32 } %15, 1
  %18 = bitcast %"class.std::vector"* %0 to %"struct.std::_Vector_base"*
  call void @_ZNSt12_Vector_baseIiSaIiEED2Ev(%"struct.std::_Vector_base"* %18) #3
  br label %19

19:                                               ; preds = %14
  call void @__clang_call_terminate(i8* %16) #13
  unreachable
}

; Function Attrs: noinline uwtable
define zeroext i1 @_Z6cancelRSt6vectorIiSaIiEE(%"class.std::vector"* dereferenceable(24) %0) #0 personality i8* bitcast (i32 (...)* @__gxx_personality_v0 to i8*) {
  %2 = alloca %"class.std::vector.1", align 8
  %3 = alloca i8, align 1
  %4 = alloca %"class.std::allocator.5", align 1
  %5 = alloca %"struct.std::_Bit_reference", align 8
  %6 = alloca %"struct.std::_Bit_reference", align 8
  %7 = alloca %"class.std::vector", align 8
  %8 = alloca %"struct.std::_Bit_reference", align 8
  %9 = call i64 @_ZNKSt6vectorIiSaIiEE4sizeEv(%"class.std::vector"* %0) #3
  %10 = trunc i64 %9 to i32
  %11 = sext i32 %10 to i64
  store i8 0, i8* %3, align 1
  call void @_ZNSaIbEC2Ev(%"class.std::allocator.5"* %4) #3
  invoke void @_ZNSt6vectorIbSaIbEEC2EmRKbRKS0_(%"class.std::vector.1"* %2, i64 %11, i8* dereferenceable(1) %3, %"class.std::allocator.5"* dereferenceable(1) %4)
          to label %12 unwind label %46

12:                                               ; preds = %1
  call void @_ZNSaIbED2Ev(%"class.std::allocator.5"* %4) #3
  br label %13

13:                                               ; preds = %55, %12
  %.02 = phi i32 [ 0, %12 ], [ %56, %55 ]
  %.01 = phi i8 [ 0, %12 ], [ %.1, %55 ]
  %14 = sub nsw i32 %10, 1
  %15 = icmp slt i32 %.02, %14
  br i1 %15, label %16, label %57

16:                                               ; preds = %13
  %17 = sext i32 %.02 to i64
  %18 = call dereferenceable(4) i32* @_ZNSt6vectorIiSaIiEEixEm(%"class.std::vector"* %0, i64 %17) #3
  %19 = load i32, i32* %18, align 4
  %20 = add nsw i32 %.02, 1
  %21 = sext i32 %20 to i64
  %22 = call dereferenceable(4) i32* @_ZNSt6vectorIiSaIiEEixEm(%"class.std::vector"* %0, i64 %21) #3
  %23 = load i32, i32* %22, align 4
  %24 = icmp eq i32 %19, %23
  br i1 %24, label %25, label %54

25:                                               ; preds = %16
  %26 = add nsw i32 %.02, 1
  %27 = sext i32 %26 to i64
  %28 = invoke { i64*, i64 } @_ZNSt6vectorIbSaIbEEixEm(%"class.std::vector.1"* %2, i64 %27)
          to label %29 unwind label %50

29:                                               ; preds = %25
  %30 = bitcast %"struct.std::_Bit_reference"* %5 to { i64*, i64 }*
  %31 = getelementptr inbounds { i64*, i64 }, { i64*, i64 }* %30, i32 0, i32 0
  %32 = extractvalue { i64*, i64 } %28, 0
  store i64* %32, i64** %31, align 8
  %33 = getelementptr inbounds { i64*, i64 }, { i64*, i64 }* %30, i32 0, i32 1
  %34 = extractvalue { i64*, i64 } %28, 1
  store i64 %34, i64* %33, align 8
  %35 = call dereferenceable(16) %"struct.std::_Bit_reference"* @_ZNSt14_Bit_referenceaSEb(%"struct.std::_Bit_reference"* %5, i1 zeroext true) #3
  %36 = sext i32 %.02 to i64
  %37 = invoke { i64*, i64 } @_ZNSt6vectorIbSaIbEEixEm(%"class.std::vector.1"* %2, i64 %36)
          to label %38 unwind label %50

38:                                               ; preds = %29
  %39 = bitcast %"struct.std::_Bit_reference"* %6 to { i64*, i64 }*
  %40 = getelementptr inbounds { i64*, i64 }, { i64*, i64 }* %39, i32 0, i32 0
  %41 = extractvalue { i64*, i64 } %37, 0
  store i64* %41, i64** %40, align 8
  %42 = getelementptr inbounds { i64*, i64 }, { i64*, i64 }* %39, i32 0, i32 1
  %43 = extractvalue { i64*, i64 } %37, 1
  store i64 %43, i64* %42, align 8
  %44 = call dereferenceable(16) %"struct.std::_Bit_reference"* @_ZNSt14_Bit_referenceaSERKS_(%"struct.std::_Bit_reference"* %6, %"struct.std::_Bit_reference"* dereferenceable(16) %35) #3
  %45 = add nsw i32 %.02, 1
  br label %54

46:                                               ; preds = %1
  %47 = landingpad { i8*, i32 }
          cleanup
  %48 = extractvalue { i8*, i32 } %47, 0
  %49 = extractvalue { i8*, i32 } %47, 1
  call void @_ZNSaIbED2Ev(%"class.std::allocator.5"* %4) #3
  br label %86

50:                                               ; preds = %29, %25
  %51 = landingpad { i8*, i32 }
          cleanup
  %52 = extractvalue { i8*, i32 } %51, 0
  %53 = extractvalue { i8*, i32 } %51, 1
  br label %85

54:                                               ; preds = %38, %16
  %.13 = phi i32 [ %45, %38 ], [ %.02, %16 ]
  %.1 = phi i8 [ 1, %38 ], [ %.01, %16 ]
  br label %55

55:                                               ; preds = %54
  %56 = add nsw i32 %.13, 1
  br label %13

57:                                               ; preds = %13
  call void @_ZNSt6vectorIiSaIiEEC2Ev(%"class.std::vector"* %7) #3
  br label %58

58:                                               ; preds = %79, %57
  %.0 = phi i32 [ 0, %57 ], [ %80, %79 ]
  %59 = icmp slt i32 %.0, %10
  br i1 %59, label %60, label %81

60:                                               ; preds = %58
  %61 = sext i32 %.0 to i64
  %62 = invoke { i64*, i64 } @_ZNSt6vectorIbSaIbEEixEm(%"class.std::vector.1"* %2, i64 %61)
          to label %63 unwind label %74

63:                                               ; preds = %60
  %64 = bitcast %"struct.std::_Bit_reference"* %8 to { i64*, i64 }*
  %65 = getelementptr inbounds { i64*, i64 }, { i64*, i64 }* %64, i32 0, i32 0
  %66 = extractvalue { i64*, i64 } %62, 0
  store i64* %66, i64** %65, align 8
  %67 = getelementptr inbounds { i64*, i64 }, { i64*, i64 }* %64, i32 0, i32 1
  %68 = extractvalue { i64*, i64 } %62, 1
  store i64 %68, i64* %67, align 8
  %69 = call zeroext i1 @_ZNKSt14_Bit_referencecvbEv(%"struct.std::_Bit_reference"* %8) #3
  br i1 %69, label %78, label %70

70:                                               ; preds = %63
  %71 = sext i32 %.0 to i64
  %72 = call dereferenceable(4) i32* @_ZNSt6vectorIiSaIiEEixEm(%"class.std::vector"* %0, i64 %71) #3
  invoke void @_ZNSt6vectorIiSaIiEE9push_backERKi(%"class.std::vector"* %7, i32* dereferenceable(4) %72)
          to label %73 unwind label %74

73:                                               ; preds = %70
  br label %78

74:                                               ; preds = %81, %70, %60
  %75 = landingpad { i8*, i32 }
          cleanup
  %76 = extractvalue { i8*, i32 } %75, 0
  %77 = extractvalue { i8*, i32 } %75, 1
  call void @_ZNSt6vectorIiSaIiEED2Ev(%"class.std::vector"* %7) #3
  br label %85

78:                                               ; preds = %73, %63
  br label %79

79:                                               ; preds = %78
  %80 = add nsw i32 %.0, 1
  br label %58

81:                                               ; preds = %58
  %82 = invoke dereferenceable(24) %"class.std::vector"* @_ZNSt6vectorIiSaIiEEaSERKS1_(%"class.std::vector"* %0, %"class.std::vector"* dereferenceable(24) %7)
          to label %83 unwind label %74

83:                                               ; preds = %81
  %84 = trunc i8 %.01 to i1
  call void @_ZNSt6vectorIiSaIiEED2Ev(%"class.std::vector"* %7) #3
  call void @_ZNSt6vectorIbSaIbEED2Ev(%"class.std::vector.1"* %2) #3
  ret i1 %84

85:                                               ; preds = %74, %50
  %.06 = phi i32 [ %53, %50 ], [ %77, %74 ]
  %.04 = phi i8* [ %52, %50 ], [ %76, %74 ]
  call void @_ZNSt6vectorIbSaIbEED2Ev(%"class.std::vector.1"* %2) #3
  br label %86

86:                                               ; preds = %85, %46
  %.17 = phi i32 [ %.06, %85 ], [ %49, %46 ]
  %.15 = phi i8* [ %.04, %85 ], [ %48, %46 ]
  %87 = insertvalue { i8*, i32 } undef, i8* %.15, 0
  %88 = insertvalue { i8*, i32 } %87, i32 %.17, 1
  resume { i8*, i32 } %88
}

; Function Attrs: noinline nounwind uwtable
define linkonce_odr i64 @_ZNKSt6vectorIiSaIiEE4sizeEv(%"class.std::vector"* %0) #4 comdat align 2 {
  %2 = bitcast %"class.std::vector"* %0 to %"struct.std::_Vector_base"*
  %3 = getelementptr inbounds %"struct.std::_Vector_base", %"struct.std::_Vector_base"* %2, i32 0, i32 0
  %4 = getelementptr inbounds %"struct.std::_Vector_base<int, std::allocator<int> >::_Vector_impl", %"struct.std::_Vector_base<int, std::allocator<int> >::_Vector_impl"* %3, i32 0, i32 1
  %5 = load i32*, i32** %4, align 8
  %6 = bitcast %"class.std::vector"* %0 to %"struct.std::_Vector_base"*
  %7 = getelementptr inbounds %"struct.std::_Vector_base", %"struct.std::_Vector_base"* %6, i32 0, i32 0
  %8 = getelementptr inbounds %"struct.std::_Vector_base<int, std::allocator<int> >::_Vector_impl", %"struct.std::_Vector_base<int, std::allocator<int> >::_Vector_impl"* %7, i32 0, i32 0
  %9 = load i32*, i32** %8, align 8
  %10 = ptrtoint i32* %5 to i64
  %11 = ptrtoint i32* %9 to i64
  %12 = sub i64 %10, %11
  %13 = sdiv exact i64 %12, 4
  ret i64 %13
}

; Function Attrs: noinline nounwind uwtable
define linkonce_odr void @_ZNSaIbEC2Ev(%"class.std::allocator.5"* %0) unnamed_addr #4 comdat align 2 {
  %2 = bitcast %"class.std::allocator.5"* %0 to %"class.__gnu_cxx::new_allocator.6"*
  call void @_ZN9__gnu_cxx13new_allocatorIbEC2Ev(%"class.__gnu_cxx::new_allocator.6"* %2) #3
  ret void
}

; Function Attrs: noinline uwtable
define linkonce_odr void @_ZNSt6vectorIbSaIbEEC2EmRKbRKS0_(%"class.std::vector.1"* %0, i64 %1, i8* dereferenceable(1) %2, %"class.std::allocator.5"* dereferenceable(1) %3) unnamed_addr #0 comdat align 2 personality i8* bitcast (i32 (...)* @__gxx_personality_v0 to i8*) {
  %5 = bitcast %"class.std::vector.1"* %0 to %"struct.std::_Bvector_base"*
  call void @_ZNSt13_Bvector_baseISaIbEEC2ERKS0_(%"struct.std::_Bvector_base"* %5, %"class.std::allocator.5"* dereferenceable(1) %3)
  invoke void @_ZNSt6vectorIbSaIbEE13_M_initializeEm(%"class.std::vector.1"* %0, i64 %1)
          to label %6 unwind label %10

6:                                                ; preds = %4
  %7 = load i8, i8* %2, align 1
  %8 = trunc i8 %7 to i1
  invoke void @_ZNSt6vectorIbSaIbEE19_M_initialize_valueEb(%"class.std::vector.1"* %0, i1 zeroext %8)
          to label %9 unwind label %10

9:                                                ; preds = %6
  ret void

10:                                               ; preds = %6, %4
  %11 = landingpad { i8*, i32 }
          cleanup
  %12 = extractvalue { i8*, i32 } %11, 0
  %13 = extractvalue { i8*, i32 } %11, 1
  %14 = bitcast %"class.std::vector.1"* %0 to %"struct.std::_Bvector_base"*
  call void @_ZNSt13_Bvector_baseISaIbEED2Ev(%"struct.std::_Bvector_base"* %14) #3
  br label %15

15:                                               ; preds = %10
  %16 = insertvalue { i8*, i32 } undef, i8* %12, 0
  %17 = insertvalue { i8*, i32 } %16, i32 %13, 1
  resume { i8*, i32 } %17
}

; Function Attrs: noinline nounwind uwtable
define linkonce_odr void @_ZNSaIbED2Ev(%"class.std::allocator.5"* %0) unnamed_addr #4 comdat align 2 {
  %2 = bitcast %"class.std::allocator.5"* %0 to %"class.__gnu_cxx::new_allocator.6"*
  call void @_ZN9__gnu_cxx13new_allocatorIbED2Ev(%"class.__gnu_cxx::new_allocator.6"* %2) #3
  ret void
}

; Function Attrs: noinline nounwind uwtable
define linkonce_odr dereferenceable(4) i32* @_ZNSt6vectorIiSaIiEEixEm(%"class.std::vector"* %0, i64 %1) #4 comdat align 2 {
  %3 = bitcast %"class.std::vector"* %0 to %"struct.std::_Vector_base"*
  %4 = getelementptr inbounds %"struct.std::_Vector_base", %"struct.std::_Vector_base"* %3, i32 0, i32 0
  %5 = getelementptr inbounds %"struct.std::_Vector_base<int, std::allocator<int> >::_Vector_impl", %"struct.std::_Vector_base<int, std::allocator<int> >::_Vector_impl"* %4, i32 0, i32 0
  %6 = load i32*, i32** %5, align 8
  %7 = getelementptr inbounds i32, i32* %6, i64 %1
  ret i32* %7
}

; Function Attrs: noinline uwtable
define linkonce_odr { i64*, i64 } @_ZNSt6vectorIbSaIbEEixEm(%"class.std::vector.1"* %0, i64 %1) #0 comdat align 2 {
  %3 = alloca %"struct.std::_Bit_reference", align 8
  %4 = alloca %"struct.std::_Bit_iterator", align 8
  %5 = bitcast %"class.std::vector.1"* %0 to %"struct.std::_Bvector_base"*
  %6 = getelementptr inbounds %"struct.std::_Bvector_base", %"struct.std::_Bvector_base"* %5, i32 0, i32 0
  %7 = bitcast %"struct.std::_Bvector_base<std::allocator<bool> >::_Bvector_impl"* %6 to %"struct.std::_Bvector_base<std::allocator<bool> >::_Bvector_impl_data"*
  %8 = getelementptr inbounds %"struct.std::_Bvector_base<std::allocator<bool> >::_Bvector_impl_data", %"struct.std::_Bvector_base<std::allocator<bool> >::_Bvector_impl_data"* %7, i32 0, i32 0
  %9 = bitcast %"struct.std::_Bit_iterator"* %8 to %"struct.std::_Bit_iterator_base"*
  %10 = getelementptr inbounds %"struct.std::_Bit_iterator_base", %"struct.std::_Bit_iterator_base"* %9, i32 0, i32 0
  %11 = load i64*, i64** %10, align 8
  %12 = udiv i64 %1, 64
  %13 = getelementptr inbounds i64, i64* %11, i64 %12
  %14 = urem i64 %1, 64
  %15 = trunc i64 %14 to i32
  call void @_ZNSt13_Bit_iteratorC2EPmj(%"struct.std::_Bit_iterator"* %4, i64* %13, i32 %15)
  %16 = call { i64*, i64 } @_ZNKSt13_Bit_iteratordeEv(%"struct.std::_Bit_iterator"* %4)
  %17 = bitcast %"struct.std::_Bit_reference"* %3 to { i64*, i64 }*
  %18 = getelementptr inbounds { i64*, i64 }, { i64*, i64 }* %17, i32 0, i32 0
  %19 = extractvalue { i64*, i64 } %16, 0
  store i64* %19, i64** %18, align 8
  %20 = getelementptr inbounds { i64*, i64 }, { i64*, i64 }* %17, i32 0, i32 1
  %21 = extractvalue { i64*, i64 } %16, 1
  store i64 %21, i64* %20, align 8
  %22 = bitcast %"struct.std::_Bit_reference"* %3 to { i64*, i64 }*
  %23 = load { i64*, i64 }, { i64*, i64 }* %22, align 8
  ret { i64*, i64 } %23
}

; Function Attrs: noinline nounwind uwtable
define linkonce_odr dereferenceable(16) %"struct.std::_Bit_reference"* @_ZNSt14_Bit_referenceaSEb(%"struct.std::_Bit_reference"* %0, i1 zeroext %1) #4 comdat align 2 {
  %3 = zext i1 %1 to i8
  %4 = trunc i8 %3 to i1
  br i1 %4, label %5, label %12

5:                                                ; preds = %2
  %6 = getelementptr inbounds %"struct.std::_Bit_reference", %"struct.std::_Bit_reference"* %0, i32 0, i32 1
  %7 = load i64, i64* %6, align 8
  %8 = getelementptr inbounds %"struct.std::_Bit_reference", %"struct.std::_Bit_reference"* %0, i32 0, i32 0
  %9 = load i64*, i64** %8, align 8
  %10 = load i64, i64* %9, align 8
  %11 = or i64 %10, %7
  store i64 %11, i64* %9, align 8
  br label %20

12:                                               ; preds = %2
  %13 = getelementptr inbounds %"struct.std::_Bit_reference", %"struct.std::_Bit_reference"* %0, i32 0, i32 1
  %14 = load i64, i64* %13, align 8
  %15 = xor i64 %14, -1
  %16 = getelementptr inbounds %"struct.std::_Bit_reference", %"struct.std::_Bit_reference"* %0, i32 0, i32 0
  %17 = load i64*, i64** %16, align 8
  %18 = load i64, i64* %17, align 8
  %19 = and i64 %18, %15
  store i64 %19, i64* %17, align 8
  br label %20

20:                                               ; preds = %12, %5
  ret %"struct.std::_Bit_reference"* %0
}

; Function Attrs: noinline nounwind uwtable
define linkonce_odr dereferenceable(16) %"struct.std::_Bit_reference"* @_ZNSt14_Bit_referenceaSERKS_(%"struct.std::_Bit_reference"* %0, %"struct.std::_Bit_reference"* dereferenceable(16) %1) #4 comdat align 2 {
  %3 = call zeroext i1 @_ZNKSt14_Bit_referencecvbEv(%"struct.std::_Bit_reference"* %1) #3
  %4 = call dereferenceable(16) %"struct.std::_Bit_reference"* @_ZNSt14_Bit_referenceaSEb(%"struct.std::_Bit_reference"* %0, i1 zeroext %3) #3
  ret %"struct.std::_Bit_reference"* %4
}

; Function Attrs: noinline nounwind uwtable
define linkonce_odr zeroext i1 @_ZNKSt14_Bit_referencecvbEv(%"struct.std::_Bit_reference"* %0) #4 comdat align 2 {
  %2 = getelementptr inbounds %"struct.std::_Bit_reference", %"struct.std::_Bit_reference"* %0, i32 0, i32 0
  %3 = load i64*, i64** %2, align 8
  %4 = load i64, i64* %3, align 8
  %5 = getelementptr inbounds %"struct.std::_Bit_reference", %"struct.std::_Bit_reference"* %0, i32 0, i32 1
  %6 = load i64, i64* %5, align 8
  %7 = and i64 %4, %6
  %8 = icmp ne i64 %7, 0
  %9 = xor i1 %8, true
  %10 = xor i1 %9, true
  ret i1 %10
}

; Function Attrs: noinline uwtable
define linkonce_odr void @_ZNSt6vectorIiSaIiEE9push_backERKi(%"class.std::vector"* %0, i32* dereferenceable(4) %1) #0 comdat align 2 {
  %3 = alloca %"class.__gnu_cxx::__normal_iterator", align 8
  %4 = bitcast %"class.std::vector"* %0 to %"struct.std::_Vector_base"*
  %5 = getelementptr inbounds %"struct.std::_Vector_base", %"struct.std::_Vector_base"* %4, i32 0, i32 0
  %6 = getelementptr inbounds %"struct.std::_Vector_base<int, std::allocator<int> >::_Vector_impl", %"struct.std::_Vector_base<int, std::allocator<int> >::_Vector_impl"* %5, i32 0, i32 1
  %7 = load i32*, i32** %6, align 8
  %8 = bitcast %"class.std::vector"* %0 to %"struct.std::_Vector_base"*
  %9 = getelementptr inbounds %"struct.std::_Vector_base", %"struct.std::_Vector_base"* %8, i32 0, i32 0
  %10 = getelementptr inbounds %"struct.std::_Vector_base<int, std::allocator<int> >::_Vector_impl", %"struct.std::_Vector_base<int, std::allocator<int> >::_Vector_impl"* %9, i32 0, i32 2
  %11 = load i32*, i32** %10, align 8
  %12 = icmp ne i32* %7, %11
  br i1 %12, label %13, label %26

13:                                               ; preds = %2
  %14 = bitcast %"class.std::vector"* %0 to %"struct.std::_Vector_base"*
  %15 = getelementptr inbounds %"struct.std::_Vector_base", %"struct.std::_Vector_base"* %14, i32 0, i32 0
  %16 = bitcast %"struct.std::_Vector_base<int, std::allocator<int> >::_Vector_impl"* %15 to %"class.std::allocator"*
  %17 = bitcast %"class.std::vector"* %0 to %"struct.std::_Vector_base"*
  %18 = getelementptr inbounds %"struct.std::_Vector_base", %"struct.std::_Vector_base"* %17, i32 0, i32 0
  %19 = getelementptr inbounds %"struct.std::_Vector_base<int, std::allocator<int> >::_Vector_impl", %"struct.std::_Vector_base<int, std::allocator<int> >::_Vector_impl"* %18, i32 0, i32 1
  %20 = load i32*, i32** %19, align 8
  call void @_ZNSt16allocator_traitsISaIiEE9constructIiJRKiEEEvRS0_PT_DpOT0_(%"class.std::allocator"* dereferenceable(1) %16, i32* %20, i32* dereferenceable(4) %1)
  %21 = bitcast %"class.std::vector"* %0 to %"struct.std::_Vector_base"*
  %22 = getelementptr inbounds %"struct.std::_Vector_base", %"struct.std::_Vector_base"* %21, i32 0, i32 0
  %23 = getelementptr inbounds %"struct.std::_Vector_base<int, std::allocator<int> >::_Vector_impl", %"struct.std::_Vector_base<int, std::allocator<int> >::_Vector_impl"* %22, i32 0, i32 1
  %24 = load i32*, i32** %23, align 8
  %25 = getelementptr inbounds i32, i32* %24, i32 1
  store i32* %25, i32** %23, align 8
  br label %31

26:                                               ; preds = %2
  %27 = call i32* @_ZNSt6vectorIiSaIiEE3endEv(%"class.std::vector"* %0) #3
  %28 = getelementptr inbounds %"class.__gnu_cxx::__normal_iterator", %"class.__gnu_cxx::__normal_iterator"* %3, i32 0, i32 0
  store i32* %27, i32** %28, align 8
  %29 = getelementptr inbounds %"class.__gnu_cxx::__normal_iterator", %"class.__gnu_cxx::__normal_iterator"* %3, i32 0, i32 0
  %30 = load i32*, i32** %29, align 8
  call void @_ZNSt6vectorIiSaIiEE17_M_realloc_insertIJRKiEEEvN9__gnu_cxx17__normal_iteratorIPiS1_EEDpOT_(%"class.std::vector"* %0, i32* %30, i32* dereferenceable(4) %1)
  br label %31

31:                                               ; preds = %26, %13
  ret void
}

; Function Attrs: noinline uwtable
define linkonce_odr dereferenceable(24) %"class.std::vector"* @_ZNSt6vectorIiSaIiEEaSERKS1_(%"class.std::vector"* %0, %"class.std::vector"* dereferenceable(24) %1) #0 comdat align 2 {
  %3 = alloca %"class.__gnu_cxx::__normal_iterator.0", align 8
  %4 = alloca %"class.__gnu_cxx::__normal_iterator.0", align 8
  %5 = alloca %"class.__gnu_cxx::__normal_iterator", align 8
  %6 = alloca %"class.__gnu_cxx::__normal_iterator.0", align 8
  %7 = alloca %"class.__gnu_cxx::__normal_iterator.0", align 8
  %8 = alloca %"class.__gnu_cxx::__normal_iterator", align 8
  %9 = alloca %"class.__gnu_cxx::__normal_iterator", align 8
  %10 = icmp ne %"class.std::vector"* %1, %0
  br i1 %10, label %11, label %132

11:                                               ; preds = %2
  %12 = call i64 @_ZNKSt6vectorIiSaIiEE4sizeEv(%"class.std::vector"* %1) #3
  %13 = call i64 @_ZNKSt6vectorIiSaIiEE8capacityEv(%"class.std::vector"* %0) #3
  %14 = icmp ugt i64 %12, %13
  br i1 %14, label %15, label %63

15:                                               ; preds = %11
  %16 = call i32* @_ZNKSt6vectorIiSaIiEE5beginEv(%"class.std::vector"* %1) #3
  %17 = getelementptr inbounds %"class.__gnu_cxx::__normal_iterator.0", %"class.__gnu_cxx::__normal_iterator.0"* %3, i32 0, i32 0
  store i32* %16, i32** %17, align 8
  %18 = call i32* @_ZNKSt6vectorIiSaIiEE3endEv(%"class.std::vector"* %1) #3
  %19 = getelementptr inbounds %"class.__gnu_cxx::__normal_iterator.0", %"class.__gnu_cxx::__normal_iterator.0"* %4, i32 0, i32 0
  store i32* %18, i32** %19, align 8
  %20 = getelementptr inbounds %"class.__gnu_cxx::__normal_iterator.0", %"class.__gnu_cxx::__normal_iterator.0"* %3, i32 0, i32 0
  %21 = load i32*, i32** %20, align 8
  %22 = getelementptr inbounds %"class.__gnu_cxx::__normal_iterator.0", %"class.__gnu_cxx::__normal_iterator.0"* %4, i32 0, i32 0
  %23 = load i32*, i32** %22, align 8
  %24 = call i32* @_ZNSt6vectorIiSaIiEE20_M_allocate_and_copyIN9__gnu_cxx17__normal_iteratorIPKiS1_EEEEPimT_S9_(%"class.std::vector"* %0, i64 %12, i32* %21, i32* %23)
  %25 = bitcast %"class.std::vector"* %0 to %"struct.std::_Vector_base"*
  %26 = getelementptr inbounds %"struct.std::_Vector_base", %"struct.std::_Vector_base"* %25, i32 0, i32 0
  %27 = getelementptr inbounds %"struct.std::_Vector_base<int, std::allocator<int> >::_Vector_impl", %"struct.std::_Vector_base<int, std::allocator<int> >::_Vector_impl"* %26, i32 0, i32 0
  %28 = load i32*, i32** %27, align 8
  %29 = bitcast %"class.std::vector"* %0 to %"struct.std::_Vector_base"*
  %30 = getelementptr inbounds %"struct.std::_Vector_base", %"struct.std::_Vector_base"* %29, i32 0, i32 0
  %31 = getelementptr inbounds %"struct.std::_Vector_base<int, std::allocator<int> >::_Vector_impl", %"struct.std::_Vector_base<int, std::allocator<int> >::_Vector_impl"* %30, i32 0, i32 1
  %32 = load i32*, i32** %31, align 8
  %33 = bitcast %"class.std::vector"* %0 to %"struct.std::_Vector_base"*
  %34 = call dereferenceable(1) %"class.std::allocator"* @_ZNSt12_Vector_baseIiSaIiEE19_M_get_Tp_allocatorEv(%"struct.std::_Vector_base"* %33) #3
  call void @_ZSt8_DestroyIPiiEvT_S1_RSaIT0_E(i32* %28, i32* %32, %"class.std::allocator"* dereferenceable(1) %34)
  %35 = bitcast %"class.std::vector"* %0 to %"struct.std::_Vector_base"*
  %36 = bitcast %"class.std::vector"* %0 to %"struct.std::_Vector_base"*
  %37 = getelementptr inbounds %"struct.std::_Vector_base", %"struct.std::_Vector_base"* %36, i32 0, i32 0
  %38 = getelementptr inbounds %"struct.std::_Vector_base<int, std::allocator<int> >::_Vector_impl", %"struct.std::_Vector_base<int, std::allocator<int> >::_Vector_impl"* %37, i32 0, i32 0
  %39 = load i32*, i32** %38, align 8
  %40 = bitcast %"class.std::vector"* %0 to %"struct.std::_Vector_base"*
  %41 = getelementptr inbounds %"struct.std::_Vector_base", %"struct.std::_Vector_base"* %40, i32 0, i32 0
  %42 = getelementptr inbounds %"struct.std::_Vector_base<int, std::allocator<int> >::_Vector_impl", %"struct.std::_Vector_base<int, std::allocator<int> >::_Vector_impl"* %41, i32 0, i32 2
  %43 = load i32*, i32** %42, align 8
  %44 = bitcast %"class.std::vector"* %0 to %"struct.std::_Vector_base"*
  %45 = getelementptr inbounds %"struct.std::_Vector_base", %"struct.std::_Vector_base"* %44, i32 0, i32 0
  %46 = getelementptr inbounds %"struct.std::_Vector_base<int, std::allocator<int> >::_Vector_impl", %"struct.std::_Vector_base<int, std::allocator<int> >::_Vector_impl"* %45, i32 0, i32 0
  %47 = load i32*, i32** %46, align 8
  %48 = ptrtoint i32* %43 to i64
  %49 = ptrtoint i32* %47 to i64
  %50 = sub i64 %48, %49
  %51 = sdiv exact i64 %50, 4
  call void @_ZNSt12_Vector_baseIiSaIiEE13_M_deallocateEPim(%"struct.std::_Vector_base"* %35, i32* %39, i64 %51)
  %52 = bitcast %"class.std::vector"* %0 to %"struct.std::_Vector_base"*
  %53 = getelementptr inbounds %"struct.std::_Vector_base", %"struct.std::_Vector_base"* %52, i32 0, i32 0
  %54 = getelementptr inbounds %"struct.std::_Vector_base<int, std::allocator<int> >::_Vector_impl", %"struct.std::_Vector_base<int, std::allocator<int> >::_Vector_impl"* %53, i32 0, i32 0
  store i32* %24, i32** %54, align 8
  %55 = bitcast %"class.std::vector"* %0 to %"struct.std::_Vector_base"*
  %56 = getelementptr inbounds %"struct.std::_Vector_base", %"struct.std::_Vector_base"* %55, i32 0, i32 0
  %57 = getelementptr inbounds %"struct.std::_Vector_base<int, std::allocator<int> >::_Vector_impl", %"struct.std::_Vector_base<int, std::allocator<int> >::_Vector_impl"* %56, i32 0, i32 0
  %58 = load i32*, i32** %57, align 8
  %59 = getelementptr inbounds i32, i32* %58, i64 %12
  %60 = bitcast %"class.std::vector"* %0 to %"struct.std::_Vector_base"*
  %61 = getelementptr inbounds %"struct.std::_Vector_base", %"struct.std::_Vector_base"* %60, i32 0, i32 0
  %62 = getelementptr inbounds %"struct.std::_Vector_base<int, std::allocator<int> >::_Vector_impl", %"struct.std::_Vector_base<int, std::allocator<int> >::_Vector_impl"* %61, i32 0, i32 2
  store i32* %59, i32** %62, align 8
  br label %123

63:                                               ; preds = %11
  %64 = call i64 @_ZNKSt6vectorIiSaIiEE4sizeEv(%"class.std::vector"* %0) #3
  %65 = icmp uge i64 %64, %12
  br i1 %65, label %66, label %89

66:                                               ; preds = %63
  %67 = call i32* @_ZNKSt6vectorIiSaIiEE5beginEv(%"class.std::vector"* %1) #3
  %68 = getelementptr inbounds %"class.__gnu_cxx::__normal_iterator.0", %"class.__gnu_cxx::__normal_iterator.0"* %6, i32 0, i32 0
  store i32* %67, i32** %68, align 8
  %69 = call i32* @_ZNKSt6vectorIiSaIiEE3endEv(%"class.std::vector"* %1) #3
  %70 = getelementptr inbounds %"class.__gnu_cxx::__normal_iterator.0", %"class.__gnu_cxx::__normal_iterator.0"* %7, i32 0, i32 0
  store i32* %69, i32** %70, align 8
  %71 = call i32* @_ZNSt6vectorIiSaIiEE5beginEv(%"class.std::vector"* %0) #3
  %72 = getelementptr inbounds %"class.__gnu_cxx::__normal_iterator", %"class.__gnu_cxx::__normal_iterator"* %8, i32 0, i32 0
  store i32* %71, i32** %72, align 8
  %73 = getelementptr inbounds %"class.__gnu_cxx::__normal_iterator.0", %"class.__gnu_cxx::__normal_iterator.0"* %6, i32 0, i32 0
  %74 = load i32*, i32** %73, align 8
  %75 = getelementptr inbounds %"class.__gnu_cxx::__normal_iterator.0", %"class.__gnu_cxx::__normal_iterator.0"* %7, i32 0, i32 0
  %76 = load i32*, i32** %75, align 8
  %77 = getelementptr inbounds %"class.__gnu_cxx::__normal_iterator", %"class.__gnu_cxx::__normal_iterator"* %8, i32 0, i32 0
  %78 = load i32*, i32** %77, align 8
  %79 = call i32* @_ZSt4copyIN9__gnu_cxx17__normal_iteratorIPKiSt6vectorIiSaIiEEEENS1_IPiS6_EEET0_T_SB_SA_(i32* %74, i32* %76, i32* %78)
  %80 = getelementptr inbounds %"class.__gnu_cxx::__normal_iterator", %"class.__gnu_cxx::__normal_iterator"* %5, i32 0, i32 0
  store i32* %79, i32** %80, align 8
  %81 = call i32* @_ZNSt6vectorIiSaIiEE3endEv(%"class.std::vector"* %0) #3
  %82 = getelementptr inbounds %"class.__gnu_cxx::__normal_iterator", %"class.__gnu_cxx::__normal_iterator"* %9, i32 0, i32 0
  store i32* %81, i32** %82, align 8
  %83 = bitcast %"class.std::vector"* %0 to %"struct.std::_Vector_base"*
  %84 = call dereferenceable(1) %"class.std::allocator"* @_ZNSt12_Vector_baseIiSaIiEE19_M_get_Tp_allocatorEv(%"struct.std::_Vector_base"* %83) #3
  %85 = getelementptr inbounds %"class.__gnu_cxx::__normal_iterator", %"class.__gnu_cxx::__normal_iterator"* %5, i32 0, i32 0
  %86 = load i32*, i32** %85, align 8
  %87 = getelementptr inbounds %"class.__gnu_cxx::__normal_iterator", %"class.__gnu_cxx::__normal_iterator"* %9, i32 0, i32 0
  %88 = load i32*, i32** %87, align 8
  call void @_ZSt8_DestroyIN9__gnu_cxx17__normal_iteratorIPiSt6vectorIiSaIiEEEEiEvT_S7_RSaIT0_E(i32* %86, i32* %88, %"class.std::allocator"* dereferenceable(1) %84)
  br label %122

89:                                               ; preds = %63
  %90 = bitcast %"class.std::vector"* %1 to %"struct.std::_Vector_base"*
  %91 = getelementptr inbounds %"struct.std::_Vector_base", %"struct.std::_Vector_base"* %90, i32 0, i32 0
  %92 = getelementptr inbounds %"struct.std::_Vector_base<int, std::allocator<int> >::_Vector_impl", %"struct.std::_Vector_base<int, std::allocator<int> >::_Vector_impl"* %91, i32 0, i32 0
  %93 = load i32*, i32** %92, align 8
  %94 = bitcast %"class.std::vector"* %1 to %"struct.std::_Vector_base"*
  %95 = getelementptr inbounds %"struct.std::_Vector_base", %"struct.std::_Vector_base"* %94, i32 0, i32 0
  %96 = getelementptr inbounds %"struct.std::_Vector_base<int, std::allocator<int> >::_Vector_impl", %"struct.std::_Vector_base<int, std::allocator<int> >::_Vector_impl"* %95, i32 0, i32 0
  %97 = load i32*, i32** %96, align 8
  %98 = call i64 @_ZNKSt6vectorIiSaIiEE4sizeEv(%"class.std::vector"* %0) #3
  %99 = getelementptr inbounds i32, i32* %97, i64 %98
  %100 = bitcast %"class.std::vector"* %0 to %"struct.std::_Vector_base"*
  %101 = getelementptr inbounds %"struct.std::_Vector_base", %"struct.std::_Vector_base"* %100, i32 0, i32 0
  %102 = getelementptr inbounds %"struct.std::_Vector_base<int, std::allocator<int> >::_Vector_impl", %"struct.std::_Vector_base<int, std::allocator<int> >::_Vector_impl"* %101, i32 0, i32 0
  %103 = load i32*, i32** %102, align 8
  %104 = call i32* @_ZSt4copyIPiS0_ET0_T_S2_S1_(i32* %93, i32* %99, i32* %103)
  %105 = bitcast %"class.std::vector"* %1 to %"struct.std::_Vector_base"*
  %106 = getelementptr inbounds %"struct.std::_Vector_base", %"struct.std::_Vector_base"* %105, i32 0, i32 0
  %107 = getelementptr inbounds %"struct.std::_Vector_base<int, std::allocator<int> >::_Vector_impl", %"struct.std::_Vector_base<int, std::allocator<int> >::_Vector_impl"* %106, i32 0, i32 0
  %108 = load i32*, i32** %107, align 8
  %109 = call i64 @_ZNKSt6vectorIiSaIiEE4sizeEv(%"class.std::vector"* %0) #3
  %110 = getelementptr inbounds i32, i32* %108, i64 %109
  %111 = bitcast %"class.std::vector"* %1 to %"struct.std::_Vector_base"*
  %112 = getelementptr inbounds %"struct.std::_Vector_base", %"struct.std::_Vector_base"* %111, i32 0, i32 0
  %113 = getelementptr inbounds %"struct.std::_Vector_base<int, std::allocator<int> >::_Vector_impl", %"struct.std::_Vector_base<int, std::allocator<int> >::_Vector_impl"* %112, i32 0, i32 1
  %114 = load i32*, i32** %113, align 8
  %115 = bitcast %"class.std::vector"* %0 to %"struct.std::_Vector_base"*
  %116 = getelementptr inbounds %"struct.std::_Vector_base", %"struct.std::_Vector_base"* %115, i32 0, i32 0
  %117 = getelementptr inbounds %"struct.std::_Vector_base<int, std::allocator<int> >::_Vector_impl", %"struct.std::_Vector_base<int, std::allocator<int> >::_Vector_impl"* %116, i32 0, i32 1
  %118 = load i32*, i32** %117, align 8
  %119 = bitcast %"class.std::vector"* %0 to %"struct.std::_Vector_base"*
  %120 = call dereferenceable(1) %"class.std::allocator"* @_ZNSt12_Vector_baseIiSaIiEE19_M_get_Tp_allocatorEv(%"struct.std::_Vector_base"* %119) #3
  %121 = call i32* @_ZSt22__uninitialized_copy_aIPiS0_iET0_T_S2_S1_RSaIT1_E(i32* %110, i32* %114, i32* %118, %"class.std::allocator"* dereferenceable(1) %120)
  br label %122

122:                                              ; preds = %89, %66
  br label %123

123:                                              ; preds = %122, %15
  %124 = bitcast %"class.std::vector"* %0 to %"struct.std::_Vector_base"*
  %125 = getelementptr inbounds %"struct.std::_Vector_base", %"struct.std::_Vector_base"* %124, i32 0, i32 0
  %126 = getelementptr inbounds %"struct.std::_Vector_base<int, std::allocator<int> >::_Vector_impl", %"struct.std::_Vector_base<int, std::allocator<int> >::_Vector_impl"* %125, i32 0, i32 0
  %127 = load i32*, i32** %126, align 8
  %128 = getelementptr inbounds i32, i32* %127, i64 %12
  %129 = bitcast %"class.std::vector"* %0 to %"struct.std::_Vector_base"*
  %130 = getelementptr inbounds %"struct.std::_Vector_base", %"struct.std::_Vector_base"* %129, i32 0, i32 0
  %131 = getelementptr inbounds %"struct.std::_Vector_base<int, std::allocator<int> >::_Vector_impl", %"struct.std::_Vector_base<int, std::allocator<int> >::_Vector_impl"* %130, i32 0, i32 1
  store i32* %128, i32** %131, align 8
  br label %132

132:                                              ; preds = %123, %2
  ret %"class.std::vector"* %0
}

; Function Attrs: noinline nounwind uwtable
define linkonce_odr void @_ZNSt6vectorIbSaIbEED2Ev(%"class.std::vector.1"* %0) unnamed_addr #4 comdat align 2 {
  %2 = bitcast %"class.std::vector.1"* %0 to %"struct.std::_Bvector_base"*
  call void @_ZNSt13_Bvector_baseISaIbEED2Ev(%"struct.std::_Bvector_base"* %2) #3
  ret void
}

; Function Attrs: noinline nounwind uwtable
define { double, double } @_Z5pointi(i32 %0) #4 {
  %2 = alloca %"struct.std::complex", align 8
  %3 = sdiv i32 %0, 2
  %4 = sext i32 %3 to i64
  %5 = getelementptr inbounds [100 x %"struct.std::complex"], [100 x %"struct.std::complex"]* @as, i64 0, i64 %4
  %6 = bitcast %"struct.std::complex"* %2 to i8*
  %7 = bitcast %"struct.std::complex"* %5 to i8*
  call void @llvm.memcpy.p0i8.p0i8.i64(i8* align 8 %6, i8* align 8 %7, i64 16, i1 false)
  %8 = getelementptr inbounds %"struct.std::complex", %"struct.std::complex"* %2, i32 0, i32 0
  %9 = load { double, double }, { double, double }* %8, align 8
  ret { double, double } %9
}

; Function Attrs: noinline uwtable
define double @_Z7calclenSt7complexIdES0_RSt6vectorIiSaIiEE(double %0, double %1, double %2, double %3, %"class.std::vector"* dereferenceable(24) %4) #0 {
  %6 = alloca %"struct.std::complex", align 8
  %7 = alloca %"struct.std::complex", align 8
  %8 = alloca [110 x double], align 16
  %9 = alloca %"struct.std::complex", align 8
  %10 = alloca %"struct.std::complex", align 8
  %11 = alloca %"struct.std::complex", align 8
  %12 = alloca %"struct.std::complex", align 8
  %13 = alloca %"struct.std::complex", align 8
  %14 = alloca double, align 8
  %15 = alloca %"struct.std::complex", align 8
  %16 = bitcast %"struct.std::complex"* %6 to { double, double }*
  %17 = getelementptr inbounds { double, double }, { double, double }* %16, i32 0, i32 0
  store double %0, double* %17, align 8
  %18 = getelementptr inbounds { double, double }, { double, double }* %16, i32 0, i32 1
  store double %1, double* %18, align 8
  %19 = bitcast %"struct.std::complex"* %7 to { double, double }*
  %20 = getelementptr inbounds { double, double }, { double, double }* %19, i32 0, i32 0
  store double %2, double* %20, align 8
  %21 = getelementptr inbounds { double, double }, { double, double }* %19, i32 0, i32 1
  store double %3, double* %21, align 8
  %22 = call i64 @_ZNKSt6vectorIiSaIiEE4sizeEv(%"class.std::vector"* %4) #3
  %23 = trunc i64 %22 to i32
  br label %24

24:                                               ; preds = %30, %5
  %.02 = phi i32 [ 0, %5 ], [ %31, %30 ]
  %25 = add nsw i32 %23, 2
  %26 = icmp slt i32 %.02, %25
  br i1 %26, label %27, label %32

27:                                               ; preds = %24
  %28 = sext i32 %.02 to i64
  %29 = getelementptr inbounds [110 x double], [110 x double]* %8, i64 0, i64 %28
  store double 1.000000e+09, double* %29, align 8
  br label %30

30:                                               ; preds = %27
  %31 = add nsw i32 %.02, 1
  br label %24

32:                                               ; preds = %24
  %33 = getelementptr inbounds [110 x double], [110 x double]* %8, i64 0, i64 0
  store double 0.000000e+00, double* %33, align 16
  br label %34

34:                                               ; preds = %141, %32
  %.03 = phi i32 [ 0, %32 ], [ %142, %141 ]
  %35 = add nsw i32 %23, 1
  %36 = icmp slt i32 %.03, %35
  br i1 %36, label %37, label %143

37:                                               ; preds = %34
  %38 = icmp eq i32 %.03, %23
  br i1 %38, label %39, label %42

39:                                               ; preds = %37
  %40 = bitcast %"struct.std::complex"* %9 to i8*
  %41 = bitcast %"struct.std::complex"* %7 to i8*
  call void @llvm.memcpy.p0i8.p0i8.i64(i8* align 8 %40, i8* align 8 %41, i64 16, i1 false)
  br label %52

42:                                               ; preds = %37
  %43 = sext i32 %.03 to i64
  %44 = call dereferenceable(4) i32* @_ZNSt6vectorIiSaIiEEixEm(%"class.std::vector"* %4, i64 %43) #3
  %45 = load i32, i32* %44, align 4
  %46 = call { double, double } @_Z5pointi(i32 %45)
  %47 = getelementptr inbounds %"struct.std::complex", %"struct.std::complex"* %9, i32 0, i32 0
  %48 = getelementptr inbounds { double, double }, { double, double }* %47, i32 0, i32 0
  %49 = extractvalue { double, double } %46, 0
  store double %49, double* %48, align 8
  %50 = getelementptr inbounds { double, double }, { double, double }* %47, i32 0, i32 1
  %51 = extractvalue { double, double } %46, 1
  store double %51, double* %50, align 8
  br label %52

52:                                               ; preds = %42, %39
  br label %53

53:                                               ; preds = %138, %52
  %.04 = phi i32 [ 0, %52 ], [ %139, %138 ]
  %54 = add nsw i32 %.03, 1
  %55 = icmp slt i32 %.04, %54
  br i1 %55, label %56, label %140

56:                                               ; preds = %53
  %57 = icmp eq i32 %.04, 0
  br i1 %57, label %58, label %61

58:                                               ; preds = %56
  %59 = bitcast %"struct.std::complex"* %10 to i8*
  %60 = bitcast %"struct.std::complex"* %6 to i8*
  call void @llvm.memcpy.p0i8.p0i8.i64(i8* align 8 %59, i8* align 8 %60, i64 16, i1 false)
  br label %72

61:                                               ; preds = %56
  %62 = sub nsw i32 %.04, 1
  %63 = sext i32 %62 to i64
  %64 = call dereferenceable(4) i32* @_ZNSt6vectorIiSaIiEEixEm(%"class.std::vector"* %4, i64 %63) #3
  %65 = load i32, i32* %64, align 4
  %66 = call { double, double } @_Z5pointi(i32 %65)
  %67 = getelementptr inbounds %"struct.std::complex", %"struct.std::complex"* %10, i32 0, i32 0
  %68 = getelementptr inbounds { double, double }, { double, double }* %67, i32 0, i32 0
  %69 = extractvalue { double, double } %66, 0
  store double %69, double* %68, align 8
  %70 = getelementptr inbounds { double, double }, { double, double }* %67, i32 0, i32 1
  %71 = extractvalue { double, double } %66, 1
  store double %71, double* %70, align 8
  br label %72

72:                                               ; preds = %61, %58
  br label %73

73:                                               ; preds = %113, %72
  %.0 = phi i32 [ %.04, %72 ], [ %114, %113 ]
  %74 = icmp slt i32 %.0, %.03
  br i1 %74, label %75, label %115

75:                                               ; preds = %73
  %76 = bitcast %"struct.std::complex"* %11 to i8*
  %77 = bitcast %"struct.std::complex"* %10 to i8*
  call void @llvm.memcpy.p0i8.p0i8.i64(i8* align 8 %76, i8* align 8 %77, i64 16, i1 false)
  %78 = bitcast %"struct.std::complex"* %12 to i8*
  %79 = bitcast %"struct.std::complex"* %9 to i8*
  call void @llvm.memcpy.p0i8.p0i8.i64(i8* align 8 %78, i8* align 8 %79, i64 16, i1 false)
  %80 = sext i32 %.0 to i64
  %81 = call dereferenceable(4) i32* @_ZNSt6vectorIiSaIiEEixEm(%"class.std::vector"* %4, i64 %80) #3
  %82 = load i32, i32* %81, align 4
  %83 = call { double, double } @_Z5pointi(i32 %82)
  %84 = getelementptr inbounds %"struct.std::complex", %"struct.std::complex"* %13, i32 0, i32 0
  %85 = getelementptr inbounds { double, double }, { double, double }* %84, i32 0, i32 0
  %86 = extractvalue { double, double } %83, 0
  store double %86, double* %85, align 8
  %87 = getelementptr inbounds { double, double }, { double, double }* %84, i32 0, i32 1
  %88 = extractvalue { double, double } %83, 1
  store double %88, double* %87, align 8
  %89 = bitcast %"struct.std::complex"* %11 to { double, double }*
  %90 = getelementptr inbounds { double, double }, { double, double }* %89, i32 0, i32 0
  %91 = load double, double* %90, align 8
  %92 = getelementptr inbounds { double, double }, { double, double }* %89, i32 0, i32 1
  %93 = load double, double* %92, align 8
  %94 = bitcast %"struct.std::complex"* %12 to { double, double }*
  %95 = getelementptr inbounds { double, double }, { double, double }* %94, i32 0, i32 0
  %96 = load double, double* %95, align 8
  %97 = getelementptr inbounds { double, double }, { double, double }* %94, i32 0, i32 1
  %98 = load double, double* %97, align 8
  %99 = bitcast %"struct.std::complex"* %13 to { double, double }*
  %100 = getelementptr inbounds { double, double }, { double, double }* %99, i32 0, i32 0
  %101 = load double, double* %100, align 8
  %102 = getelementptr inbounds { double, double }, { double, double }* %99, i32 0, i32 1
  %103 = load double, double* %102, align 8
  %104 = call zeroext i1 @_Z2upSt7complexIdES0_S0_(double %91, double %93, double %96, double %98, double %101, double %103)
  %105 = zext i1 %104 to i32
  %106 = sext i32 %.0 to i64
  %107 = call dereferenceable(4) i32* @_ZNSt6vectorIiSaIiEEixEm(%"class.std::vector"* %4, i64 %106) #3
  %108 = load i32, i32* %107, align 4
  %109 = and i32 %108, 1
  %110 = icmp eq i32 %105, %109
  br i1 %110, label %111, label %112

111:                                              ; preds = %75
  br label %115

112:                                              ; preds = %75
  br label %113

113:                                              ; preds = %112
  %114 = add nsw i32 %.0, 1
  br label %73

115:                                              ; preds = %111, %73
  %.01 = phi i8 [ 0, %111 ], [ 1, %73 ]
  %116 = trunc i8 %.01 to i1
  br i1 %116, label %117, label %137

117:                                              ; preds = %115
  %118 = add nsw i32 %.03, 1
  %119 = sext i32 %118 to i64
  %120 = getelementptr inbounds [110 x double], [110 x double]* %8, i64 0, i64 %119
  %121 = sext i32 %.04 to i64
  %122 = getelementptr inbounds [110 x double], [110 x double]* %8, i64 0, i64 %121
  %123 = load double, double* %122, align 8
  %124 = call { double, double } @_ZStmiIdESt7complexIT_ERKS2_S4_(%"struct.std::complex"* dereferenceable(16) %10, %"struct.std::complex"* dereferenceable(16) %9)
  %125 = getelementptr inbounds %"struct.std::complex", %"struct.std::complex"* %15, i32 0, i32 0
  %126 = getelementptr inbounds { double, double }, { double, double }* %125, i32 0, i32 0
  %127 = extractvalue { double, double } %124, 0
  store double %127, double* %126, align 8
  %128 = getelementptr inbounds { double, double }, { double, double }* %125, i32 0, i32 1
  %129 = extractvalue { double, double } %124, 1
  store double %129, double* %128, align 8
  %130 = call double @_ZSt3absIdET_RKSt7complexIS0_E(%"struct.std::complex"* dereferenceable(16) %15)
  %131 = fadd double %123, %130
  store double %131, double* %14, align 8
  %132 = call dereferenceable(8) double* @_ZSt3minIdERKT_S2_S2_(double* dereferenceable(8) %120, double* dereferenceable(8) %14)
  %133 = load double, double* %132, align 8
  %134 = add nsw i32 %.03, 1
  %135 = sext i32 %134 to i64
  %136 = getelementptr inbounds [110 x double], [110 x double]* %8, i64 0, i64 %135
  store double %133, double* %136, align 8
  br label %137

137:                                              ; preds = %117, %115
  br label %138

138:                                              ; preds = %137
  %139 = add nsw i32 %.04, 1
  br label %53

140:                                              ; preds = %53
  br label %141

141:                                              ; preds = %140
  %142 = add nsw i32 %.03, 1
  br label %34

143:                                              ; preds = %34
  %144 = add nsw i32 %23, 1
  %145 = sext i32 %144 to i64
  %146 = getelementptr inbounds [110 x double], [110 x double]* %8, i64 0, i64 %145
  %147 = load double, double* %146, align 8
  ret double %147
}

; Function Attrs: noinline nounwind uwtable
define linkonce_odr dereferenceable(8) double* @_ZSt3minIdERKT_S2_S2_(double* dereferenceable(8) %0, double* dereferenceable(8) %1) #4 comdat {
  %3 = load double, double* %1, align 8
  %4 = load double, double* %0, align 8
  %5 = fcmp olt double %3, %4
  br i1 %5, label %6, label %7

6:                                                ; preds = %2
  br label %8

7:                                                ; preds = %2
  br label %8

8:                                                ; preds = %7, %6
  %.0 = phi double* [ %1, %6 ], [ %0, %7 ]
  ret double* %.0
}

; Function Attrs: noinline uwtable
define linkonce_odr double @_ZSt3absIdET_RKSt7complexIS0_E(%"struct.std::complex"* dereferenceable(16) %0) #0 comdat {
  %2 = alloca { double, double }, align 8
  %3 = call { double, double } @_ZNKSt7complexIdE5__repEv(%"struct.std::complex"* %0)
  %4 = extractvalue { double, double } %3, 0
  %5 = extractvalue { double, double } %3, 1
  %6 = getelementptr inbounds { double, double }, { double, double }* %2, i32 0, i32 0
  %7 = getelementptr inbounds { double, double }, { double, double }* %2, i32 0, i32 1
  store double %4, double* %6, align 8
  store double %5, double* %7, align 8
  %8 = getelementptr inbounds { double, double }, { double, double }* %2, i32 0, i32 0
  %9 = load double, double* %8, align 8
  %10 = getelementptr inbounds { double, double }, { double, double }* %2, i32 0, i32 1
  %11 = load double, double* %10, align 8
  %12 = call double @_ZSt13__complex_absCd(double %9, double %11)
  ret double %12
}

; Function Attrs: noinline uwtable
define linkonce_odr { double, double } @_ZStmiIdESt7complexIT_ERKS2_S4_(%"struct.std::complex"* dereferenceable(16) %0, %"struct.std::complex"* dereferenceable(16) %1) #0 comdat {
  %3 = alloca %"struct.std::complex", align 8
  %4 = bitcast %"struct.std::complex"* %3 to i8*
  %5 = bitcast %"struct.std::complex"* %0 to i8*
  call void @llvm.memcpy.p0i8.p0i8.i64(i8* align 8 %4, i8* align 8 %5, i64 16, i1 false)
  %6 = call dereferenceable(16) %"struct.std::complex"* @_ZNSt7complexIdEmIIdEERS0_RKS_IT_E(%"struct.std::complex"* %3, %"struct.std::complex"* dereferenceable(16) %1)
  %7 = getelementptr inbounds %"struct.std::complex", %"struct.std::complex"* %3, i32 0, i32 0
  %8 = load { double, double }, { double, double }* %7, align 8
  ret { double, double } %8
}

; Function Attrs: noinline norecurse uwtable
define i32 @main() #5 personality i8* bitcast (i32 (...)* @__gxx_personality_v0 to i8*) {
  %1 = alloca double, align 8
  %2 = alloca double, align 8
  %3 = alloca %"struct.std::complex", align 8
  %4 = alloca %"struct.std::complex", align 8
  %5 = alloca %"struct.std::complex", align 8
  %6 = alloca double, align 8
  %7 = alloca double, align 8
  %8 = alloca double, align 8
  %9 = alloca double, align 8
  %10 = alloca %"struct.std::complex", align 8
  %11 = alloca %"struct.std::complex", align 8
  %12 = alloca %"struct.std::complex", align 8
  %13 = alloca double, align 8
  %14 = alloca double, align 8
  %15 = alloca %"class.std::vector", align 8
  %16 = alloca %"struct.std::complex", align 8
  %17 = alloca %"struct.std::complex", align 8
  %18 = alloca %"class.std::vector", align 8
  %19 = alloca %"struct.std::complex", align 8
  %20 = alloca %"struct.std::complex", align 8
  %21 = alloca %"struct.std::complex", align 8
  %22 = alloca %"struct.std::complex", align 8
  %23 = alloca %"struct.std::complex", align 8
  %24 = alloca %"struct.std::complex", align 8
  br label %25

25:                                               ; preds = %253, %0
  %26 = call dereferenceable(280) %"class.std::basic_istream"* @_ZNSirsERi(%"class.std::basic_istream"* @_ZSt3cin, i32* dereferenceable(4) @K)
  %27 = call dereferenceable(280) %"class.std::basic_istream"* @_ZNSirsERi(%"class.std::basic_istream"* %26, i32* dereferenceable(4) @N)
  %28 = load i32, i32* @K, align 4
  %29 = icmp eq i32 %28, 0
  br i1 %29, label %30, label %31

30:                                               ; preds = %25
  br label %255

31:                                               ; preds = %25
  br label %32

32:                                               ; preds = %56, %31
  %.01 = phi i32 [ 0, %31 ], [ %57, %56 ]
  %33 = load i32, i32* @K, align 4
  %34 = icmp slt i32 %.01, %33
  br i1 %34, label %35, label %58

35:                                               ; preds = %32
  %36 = call dereferenceable(280) %"class.std::basic_istream"* @_ZNSirsERd(%"class.std::basic_istream"* @_ZSt3cin, double* dereferenceable(8) %1)
  %37 = call dereferenceable(280) %"class.std::basic_istream"* @_ZNSirsERd(%"class.std::basic_istream"* %36, double* dereferenceable(8) %2)
  %38 = load double, double* %1, align 8
  %39 = load double, double* %2, align 8
  call void @_ZNSt7complexIdEC2Edd(%"struct.std::complex"* %4, double %38, double %39)
  store double 1.000000e+00, double* %6, align 8
  store double 1.000000e+00, double* %7, align 8
  %40 = call { double, double } @_ZSt5polarIdESt7complexIT_ERKS1_S4_(double* dereferenceable(8) %6, double* dereferenceable(8) %7)
  %41 = getelementptr inbounds %"struct.std::complex", %"struct.std::complex"* %5, i32 0, i32 0
  %42 = getelementptr inbounds { double, double }, { double, double }* %41, i32 0, i32 0
  %43 = extractvalue { double, double } %40, 0
  store double %43, double* %42, align 8
  %44 = getelementptr inbounds { double, double }, { double, double }* %41, i32 0, i32 1
  %45 = extractvalue { double, double } %40, 1
  store double %45, double* %44, align 8
  %46 = call { double, double } @_ZStmlIdESt7complexIT_ERKS2_S4_(%"struct.std::complex"* dereferenceable(16) %4, %"struct.std::complex"* dereferenceable(16) %5)
  %47 = getelementptr inbounds %"struct.std::complex", %"struct.std::complex"* %3, i32 0, i32 0
  %48 = getelementptr inbounds { double, double }, { double, double }* %47, i32 0, i32 0
  %49 = extractvalue { double, double } %46, 0
  store double %49, double* %48, align 8
  %50 = getelementptr inbounds { double, double }, { double, double }* %47, i32 0, i32 1
  %51 = extractvalue { double, double } %46, 1
  store double %51, double* %50, align 8
  %52 = sext i32 %.01 to i64
  %53 = getelementptr inbounds [100 x %"struct.std::complex"], [100 x %"struct.std::complex"]* @ps, i64 0, i64 %52
  %54 = bitcast %"struct.std::complex"* %53 to i8*
  %55 = bitcast %"struct.std::complex"* %3 to i8*
  call void @llvm.memcpy.p0i8.p0i8.i64(i8* align 8 %54, i8* align 8 %55, i64 16, i1 false)
  br label %56

56:                                               ; preds = %35
  %57 = add nsw i32 %.01, 1
  br label %32

58:                                               ; preds = %32
  br label %59

59:                                               ; preds = %83, %58
  %.02 = phi i32 [ 0, %58 ], [ %84, %83 ]
  %60 = load i32, i32* @N, align 4
  %61 = icmp slt i32 %.02, %60
  br i1 %61, label %62, label %85

62:                                               ; preds = %59
  %63 = call dereferenceable(280) %"class.std::basic_istream"* @_ZNSirsERd(%"class.std::basic_istream"* @_ZSt3cin, double* dereferenceable(8) %8)
  %64 = call dereferenceable(280) %"class.std::basic_istream"* @_ZNSirsERd(%"class.std::basic_istream"* %63, double* dereferenceable(8) %9)
  %65 = load double, double* %8, align 8
  %66 = load double, double* %9, align 8
  call void @_ZNSt7complexIdEC2Edd(%"struct.std::complex"* %11, double %65, double %66)
  store double 1.000000e+00, double* %13, align 8
  store double 1.000000e+00, double* %14, align 8
  %67 = call { double, double } @_ZSt5polarIdESt7complexIT_ERKS1_S4_(double* dereferenceable(8) %13, double* dereferenceable(8) %14)
  %68 = getelementptr inbounds %"struct.std::complex", %"struct.std::complex"* %12, i32 0, i32 0
  %69 = getelementptr inbounds { double, double }, { double, double }* %68, i32 0, i32 0
  %70 = extractvalue { double, double } %67, 0
  store double %70, double* %69, align 8
  %71 = getelementptr inbounds { double, double }, { double, double }* %68, i32 0, i32 1
  %72 = extractvalue { double, double } %67, 1
  store double %72, double* %71, align 8
  %73 = call { double, double } @_ZStmlIdESt7complexIT_ERKS2_S4_(%"struct.std::complex"* dereferenceable(16) %11, %"struct.std::complex"* dereferenceable(16) %12)
  %74 = getelementptr inbounds %"struct.std::complex", %"struct.std::complex"* %10, i32 0, i32 0
  %75 = getelementptr inbounds { double, double }, { double, double }* %74, i32 0, i32 0
  %76 = extractvalue { double, double } %73, 0
  store double %76, double* %75, align 8
  %77 = getelementptr inbounds { double, double }, { double, double }* %74, i32 0, i32 1
  %78 = extractvalue { double, double } %73, 1
  store double %78, double* %77, align 8
  %79 = sext i32 %.02 to i64
  %80 = getelementptr inbounds [100 x %"struct.std::complex"], [100 x %"struct.std::complex"]* @as, i64 0, i64 %79
  %81 = bitcast %"struct.std::complex"* %80 to i8*
  %82 = bitcast %"struct.std::complex"* %10 to i8*
  call void @llvm.memcpy.p0i8.p0i8.i64(i8* align 8 %81, i8* align 8 %82, i64 16, i1 false)
  br label %83

83:                                               ; preds = %62
  %84 = add nsw i32 %.02, 1
  br label %59

85:                                               ; preds = %59
  br label %86

86:                                               ; preds = %114, %85
  %.03 = phi i32 [ 0, %85 ], [ %115, %114 ]
  %87 = load i32, i32* @N, align 4
  %88 = sub nsw i32 %87, 1
  %89 = icmp slt i32 %.03, %88
  br i1 %89, label %90, label %116

90:                                               ; preds = %86
  br label %91

91:                                               ; preds = %111, %90
  %.04 = phi i32 [ 0, %90 ], [ %112, %111 ]
  %92 = load i32, i32* @N, align 4
  %93 = sub nsw i32 %92, 1
  %94 = icmp slt i32 %.04, %93
  br i1 %94, label %95, label %113

95:                                               ; preds = %91
  %96 = sext i32 %.04 to i64
  %97 = getelementptr inbounds [100 x %"struct.std::complex"], [100 x %"struct.std::complex"]* @as, i64 0, i64 %96
  %98 = call double @_ZNKSt7complexIdE4realB5cxx11Ev(%"struct.std::complex"* %97)
  %99 = add nsw i32 %.04, 1
  %100 = sext i32 %99 to i64
  %101 = getelementptr inbounds [100 x %"struct.std::complex"], [100 x %"struct.std::complex"]* @as, i64 0, i64 %100
  %102 = call double @_ZNKSt7complexIdE4realB5cxx11Ev(%"struct.std::complex"* %101)
  %103 = fcmp ogt double %98, %102
  br i1 %103, label %104, label %110

104:                                              ; preds = %95
  %105 = sext i32 %.04 to i64
  %106 = getelementptr inbounds [100 x %"struct.std::complex"], [100 x %"struct.std::complex"]* @as, i64 0, i64 %105
  %107 = add nsw i32 %.04, 1
  %108 = sext i32 %107 to i64
  %109 = getelementptr inbounds [100 x %"struct.std::complex"], [100 x %"struct.std::complex"]* @as, i64 0, i64 %108
  call void @_ZSt4swapISt7complexIdEENSt9enable_ifIXsr6__and_ISt6__not_ISt15__is_tuple_likeIT_EESt21is_move_constructibleIS5_ESt18is_move_assignableIS5_EEE5valueEvE4typeERS5_SE_(%"struct.std::complex"* dereferenceable(16) %106, %"struct.std::complex"* dereferenceable(16) %109) #3
  br label %110

110:                                              ; preds = %104, %95
  br label %111

111:                                              ; preds = %110
  %112 = add nsw i32 %.04, 1
  br label %91

113:                                              ; preds = %91
  br label %114

114:                                              ; preds = %113
  %115 = add nsw i32 %.03, 1
  br label %86

116:                                              ; preds = %86
  call void @_ZNSt6vectorIiSaIiEEC2Ev(%"class.std::vector"* %15) #3
  br label %117

117:                                              ; preds = %142, %116
  %.05 = phi i32 [ 0, %116 ], [ %143, %142 ]
  %118 = load i32, i32* @K, align 4
  %119 = sub nsw i32 %118, 1
  %120 = icmp slt i32 %.05, %119
  br i1 %120, label %121, label %148

121:                                              ; preds = %117
  %122 = sext i32 %.05 to i64
  %123 = getelementptr inbounds [100 x %"struct.std::complex"], [100 x %"struct.std::complex"]* @ps, i64 0, i64 %122
  %124 = bitcast %"struct.std::complex"* %16 to i8*
  %125 = bitcast %"struct.std::complex"* %123 to i8*
  call void @llvm.memcpy.p0i8.p0i8.i64(i8* align 8 %124, i8* align 8 %125, i64 16, i1 false)
  %126 = add nsw i32 %.05, 1
  %127 = sext i32 %126 to i64
  %128 = getelementptr inbounds [100 x %"struct.std::complex"], [100 x %"struct.std::complex"]* @ps, i64 0, i64 %127
  %129 = bitcast %"struct.std::complex"* %17 to i8*
  %130 = bitcast %"struct.std::complex"* %128 to i8*
  call void @llvm.memcpy.p0i8.p0i8.i64(i8* align 8 %129, i8* align 8 %130, i64 16, i1 false)
  %131 = bitcast %"struct.std::complex"* %16 to { double, double }*
  %132 = getelementptr inbounds { double, double }, { double, double }* %131, i32 0, i32 0
  %133 = load double, double* %132, align 8
  %134 = getelementptr inbounds { double, double }, { double, double }* %131, i32 0, i32 1
  %135 = load double, double* %134, align 8
  %136 = bitcast %"struct.std::complex"* %17 to { double, double }*
  %137 = getelementptr inbounds { double, double }, { double, double }* %136, i32 0, i32 0
  %138 = load double, double* %137, align 8
  %139 = getelementptr inbounds { double, double }, { double, double }* %136, i32 0, i32 1
  %140 = load double, double* %139, align 8
  invoke void @_Z7addpathRSt6vectorIiSaIiEESt7complexIdES4_(%"class.std::vector"* dereferenceable(24) %15, double %133, double %135, double %138, double %140)
          to label %141 unwind label %144

141:                                              ; preds = %121
  br label %142

142:                                              ; preds = %141
  %143 = add nsw i32 %.05, 1
  br label %117

144:                                              ; preds = %251, %149, %121
  %145 = landingpad { i8*, i32 }
          cleanup
  %146 = extractvalue { i8*, i32 } %145, 0
  %147 = extractvalue { i8*, i32 } %145, 1
  br label %254

148:                                              ; preds = %117
  br label %149

149:                                              ; preds = %152, %148
  %150 = invoke zeroext i1 @_Z6cancelRSt6vectorIiSaIiEE(%"class.std::vector"* dereferenceable(24) %15)
          to label %151 unwind label %144

151:                                              ; preds = %149
  br i1 %150, label %152, label %153

152:                                              ; preds = %151
  br label %149

153:                                              ; preds = %151
  %154 = call i64 @_ZNKSt6vectorIiSaIiEE4sizeEv(%"class.std::vector"* %15) #3
  %155 = trunc i64 %154 to i32
  br label %156

156:                                              ; preds = %249, %153
  %.011 = phi i32 [ -1, %153 ], [ %.112, %249 ]
  %.09 = phi i32 [ 1, %153 ], [ %250, %249 ]
  %.08 = phi double [ 0.000000e+00, %153 ], [ %.1, %249 ]
  %157 = icmp sle i32 %.09, %155
  br i1 %157, label %158, label %251

158:                                              ; preds = %156
  %159 = icmp eq i32 %.09, %155
  br i1 %159, label %170, label %160

160:                                              ; preds = %158
  %161 = sext i32 %.09 to i64
  %162 = call dereferenceable(4) i32* @_ZNSt6vectorIiSaIiEEixEm(%"class.std::vector"* %15, i64 %161) #3
  %163 = load i32, i32* %162, align 4
  %164 = sub nsw i32 %.09, 1
  %165 = sext i32 %164 to i64
  %166 = call dereferenceable(4) i32* @_ZNSt6vectorIiSaIiEEixEm(%"class.std::vector"* %15, i64 %165) #3
  %167 = load i32, i32* %166, align 4
  %168 = xor i32 %163, %167
  %169 = icmp eq i32 %168, 1
  br i1 %169, label %170, label %248

170:                                              ; preds = %160, %158
  call void @_ZNSt6vectorIiSaIiEEC2Ev(%"class.std::vector"* %18) #3
  invoke void @_ZNSt7complexIdEC2Edd(%"struct.std::complex"* %19, double 0.000000e+00, double 0.000000e+00)
          to label %171 unwind label %176

171:                                              ; preds = %170
  invoke void @_ZNSt7complexIdEC2Edd(%"struct.std::complex"* %20, double 0.000000e+00, double 0.000000e+00)
          to label %172 unwind label %176

172:                                              ; preds = %171
  %173 = icmp eq i32 %.011, -1
  br i1 %173, label %174, label %180

174:                                              ; preds = %172
  %175 = bitcast %"struct.std::complex"* %19 to i8*
  call void @llvm.memcpy.p0i8.p0i8.i64(i8* align 8 %175, i8* align 8 bitcast ([100 x %"struct.std::complex"]* @ps to i8*), i64 16, i1 false)
  br label %193

176:                                              ; preds = %230, %224, %202, %180, %171, %170
  %177 = landingpad { i8*, i32 }
          cleanup
  %178 = extractvalue { i8*, i32 } %177, 0
  %179 = extractvalue { i8*, i32 } %177, 1
  call void @_ZNSt6vectorIiSaIiEED2Ev(%"class.std::vector"* %18) #3
  br label %254

180:                                              ; preds = %172
  %181 = sext i32 %.011 to i64
  %182 = call dereferenceable(4) i32* @_ZNSt6vectorIiSaIiEEixEm(%"class.std::vector"* %15, i64 %181) #3
  %183 = load i32, i32* %182, align 4
  %184 = invoke { double, double } @_Z5pointi(i32 %183)
          to label %185 unwind label %176

185:                                              ; preds = %180
  %186 = getelementptr inbounds %"struct.std::complex", %"struct.std::complex"* %21, i32 0, i32 0
  %187 = getelementptr inbounds { double, double }, { double, double }* %186, i32 0, i32 0
  %188 = extractvalue { double, double } %184, 0
  store double %188, double* %187, align 8
  %189 = getelementptr inbounds { double, double }, { double, double }* %186, i32 0, i32 1
  %190 = extractvalue { double, double } %184, 1
  store double %190, double* %189, align 8
  %191 = bitcast %"struct.std::complex"* %19 to i8*
  %192 = bitcast %"struct.std::complex"* %21 to i8*
  call void @llvm.memcpy.p0i8.p0i8.i64(i8* align 8 %191, i8* align 8 %192, i64 16, i1 false)
  br label %193

193:                                              ; preds = %185, %174
  %194 = icmp eq i32 %.09, %155
  br i1 %194, label %195, label %202

195:                                              ; preds = %193
  %196 = load i32, i32* @K, align 4
  %197 = sub nsw i32 %196, 1
  %198 = sext i32 %197 to i64
  %199 = getelementptr inbounds [100 x %"struct.std::complex"], [100 x %"struct.std::complex"]* @ps, i64 0, i64 %198
  %200 = bitcast %"struct.std::complex"* %20 to i8*
  %201 = bitcast %"struct.std::complex"* %199 to i8*
  call void @llvm.memcpy.p0i8.p0i8.i64(i8* align 8 %200, i8* align 8 %201, i64 16, i1 false)
  br label %215

202:                                              ; preds = %193
  %203 = sext i32 %.09 to i64
  %204 = call dereferenceable(4) i32* @_ZNSt6vectorIiSaIiEEixEm(%"class.std::vector"* %15, i64 %203) #3
  %205 = load i32, i32* %204, align 4
  %206 = invoke { double, double } @_Z5pointi(i32 %205)
          to label %207 unwind label %176

207:                                              ; preds = %202
  %208 = getelementptr inbounds %"struct.std::complex", %"struct.std::complex"* %22, i32 0, i32 0
  %209 = getelementptr inbounds { double, double }, { double, double }* %208, i32 0, i32 0
  %210 = extractvalue { double, double } %206, 0
  store double %210, double* %209, align 8
  %211 = getelementptr inbounds { double, double }, { double, double }* %208, i32 0, i32 1
  %212 = extractvalue { double, double } %206, 1
  store double %212, double* %211, align 8
  %213 = bitcast %"struct.std::complex"* %20 to i8*
  %214 = bitcast %"struct.std::complex"* %22 to i8*
  call void @llvm.memcpy.p0i8.p0i8.i64(i8* align 8 %213, i8* align 8 %214, i64 16, i1 false)
  br label %215

215:                                              ; preds = %207, %195
  %216 = icmp eq i32 %.09, %155
  br i1 %216, label %217, label %219

217:                                              ; preds = %215
  %218 = add nsw i32 %.09, 1
  br label %219

219:                                              ; preds = %217, %215
  %.110 = phi i32 [ %218, %217 ], [ %.09, %215 ]
  %220 = add nsw i32 %.011, 1
  br label %221

221:                                              ; preds = %228, %219
  %.0 = phi i32 [ %220, %219 ], [ %229, %228 ]
  %222 = sub nsw i32 %.110, 1
  %223 = icmp slt i32 %.0, %222
  br i1 %223, label %224, label %230

224:                                              ; preds = %221
  %225 = sext i32 %.0 to i64
  %226 = call dereferenceable(4) i32* @_ZNSt6vectorIiSaIiEEixEm(%"class.std::vector"* %15, i64 %225) #3
  invoke void @_ZNSt6vectorIiSaIiEE9push_backERKi(%"class.std::vector"* %18, i32* dereferenceable(4) %226)
          to label %227 unwind label %176

227:                                              ; preds = %224
  br label %228

228:                                              ; preds = %227
  %229 = add nsw i32 %.0, 1
  br label %221

230:                                              ; preds = %221
  %231 = bitcast %"struct.std::complex"* %23 to i8*
  %232 = bitcast %"struct.std::complex"* %19 to i8*
  call void @llvm.memcpy.p0i8.p0i8.i64(i8* align 8 %231, i8* align 8 %232, i64 16, i1 false)
  %233 = bitcast %"struct.std::complex"* %24 to i8*
  %234 = bitcast %"struct.std::complex"* %20 to i8*
  call void @llvm.memcpy.p0i8.p0i8.i64(i8* align 8 %233, i8* align 8 %234, i64 16, i1 false)
  %235 = bitcast %"struct.std::complex"* %23 to { double, double }*
  %236 = getelementptr inbounds { double, double }, { double, double }* %235, i32 0, i32 0
  %237 = load double, double* %236, align 8
  %238 = getelementptr inbounds { double, double }, { double, double }* %235, i32 0, i32 1
  %239 = load double, double* %238, align 8
  %240 = bitcast %"struct.std::complex"* %24 to { double, double }*
  %241 = getelementptr inbounds { double, double }, { double, double }* %240, i32 0, i32 0
  %242 = load double, double* %241, align 8
  %243 = getelementptr inbounds { double, double }, { double, double }* %240, i32 0, i32 1
  %244 = load double, double* %243, align 8
  %245 = invoke double @_Z7calclenSt7complexIdES0_RSt6vectorIiSaIiEE(double %237, double %239, double %242, double %244, %"class.std::vector"* dereferenceable(24) %18)
          to label %246 unwind label %176

246:                                              ; preds = %230
  %247 = fadd double %.08, %245
  call void @_ZNSt6vectorIiSaIiEED2Ev(%"class.std::vector"* %18) #3
  br label %248

248:                                              ; preds = %246, %160
  %.112 = phi i32 [ %.110, %246 ], [ %.011, %160 ]
  %.2 = phi i32 [ %.110, %246 ], [ %.09, %160 ]
  %.1 = phi double [ %247, %246 ], [ %.08, %160 ]
  br label %249

249:                                              ; preds = %248
  %250 = add nsw i32 %.2, 1
  br label %156

251:                                              ; preds = %156
  %252 = invoke i32 (i8*, ...) @printf(i8* getelementptr inbounds ([7 x i8], [7 x i8]* @.str, i32 0, i32 0), double %.08)
          to label %253 unwind label %144

253:                                              ; preds = %251
  call void @_ZNSt6vectorIiSaIiEED2Ev(%"class.std::vector"* %15) #3
  br label %25

254:                                              ; preds = %176, %144
  %.07 = phi i32 [ %147, %144 ], [ %179, %176 ]
  %.06 = phi i8* [ %146, %144 ], [ %178, %176 ]
  call void @_ZNSt6vectorIiSaIiEED2Ev(%"class.std::vector"* %15) #3
  br label %256

255:                                              ; preds = %30
  ret i32 0

256:                                              ; preds = %254
  %257 = insertvalue { i8*, i32 } undef, i8* %.06, 0
  %258 = insertvalue { i8*, i32 } %257, i32 %.07, 1
  resume { i8*, i32 } %258
}

declare dereferenceable(280) %"class.std::basic_istream"* @_ZNSirsERi(%"class.std::basic_istream"*, i32* dereferenceable(4)) #1

declare dereferenceable(280) %"class.std::basic_istream"* @_ZNSirsERd(%"class.std::basic_istream"*, double* dereferenceable(8)) #1

; Function Attrs: noinline uwtable
define linkonce_odr { double, double } @_ZStmlIdESt7complexIT_ERKS2_S4_(%"struct.std::complex"* dereferenceable(16) %0, %"struct.std::complex"* dereferenceable(16) %1) #0 comdat {
  %3 = alloca %"struct.std::complex", align 8
  %4 = bitcast %"struct.std::complex"* %3 to i8*
  %5 = bitcast %"struct.std::complex"* %0 to i8*
  call void @llvm.memcpy.p0i8.p0i8.i64(i8* align 8 %4, i8* align 8 %5, i64 16, i1 false)
  %6 = call dereferenceable(16) %"struct.std::complex"* @_ZNSt7complexIdEmLIdEERS0_RKS_IT_E(%"struct.std::complex"* %3, %"struct.std::complex"* dereferenceable(16) %1)
  %7 = getelementptr inbounds %"struct.std::complex", %"struct.std::complex"* %3, i32 0, i32 0
  %8 = load { double, double }, { double, double }* %7, align 8
  ret { double, double } %8
}

; Function Attrs: noinline nounwind uwtable
define linkonce_odr void @_ZNSt7complexIdEC2Edd(%"struct.std::complex"* %0, double %1, double %2) unnamed_addr #4 comdat align 2 {
  %4 = getelementptr inbounds %"struct.std::complex", %"struct.std::complex"* %0, i32 0, i32 0
  %5 = getelementptr inbounds { double, double }, { double, double }* %4, i32 0, i32 0
  %6 = getelementptr inbounds { double, double }, { double, double }* %4, i32 0, i32 1
  store double %1, double* %5, align 8
  store double %2, double* %6, align 8
  ret void
}

; Function Attrs: noinline uwtable
define linkonce_odr { double, double } @_ZSt5polarIdESt7complexIT_ERKS1_S4_(double* dereferenceable(8) %0, double* dereferenceable(8) %1) #0 comdat {
  %3 = alloca %"struct.std::complex", align 8
  %4 = load double, double* %0, align 8
  %5 = load double, double* %1, align 8
  %6 = call double @cos(double %5) #3
  %7 = fmul double %4, %6
  %8 = load double, double* %0, align 8
  %9 = load double, double* %1, align 8
  %10 = call double @sin(double %9) #3
  %11 = fmul double %8, %10
  call void @_ZNSt7complexIdEC2Edd(%"struct.std::complex"* %3, double %7, double %11)
  %12 = getelementptr inbounds %"struct.std::complex", %"struct.std::complex"* %3, i32 0, i32 0
  %13 = load { double, double }, { double, double }* %12, align 8
  ret { double, double } %13
}

; Function Attrs: noinline nounwind uwtable
define linkonce_odr void @_ZSt4swapISt7complexIdEENSt9enable_ifIXsr6__and_ISt6__not_ISt15__is_tuple_likeIT_EESt21is_move_constructibleIS5_ESt18is_move_assignableIS5_EEE5valueEvE4typeERS5_SE_(%"struct.std::complex"* dereferenceable(16) %0, %"struct.std::complex"* dereferenceable(16) %1) #4 comdat {
  %3 = alloca %"struct.std::complex", align 8
  %4 = call dereferenceable(16) %"struct.std::complex"* @_ZSt4moveIRSt7complexIdEEONSt16remove_referenceIT_E4typeEOS4_(%"struct.std::complex"* dereferenceable(16) %0) #3
  %5 = bitcast %"struct.std::complex"* %3 to i8*
  %6 = bitcast %"struct.std::complex"* %4 to i8*
  call void @llvm.memcpy.p0i8.p0i8.i64(i8* align 8 %5, i8* align 8 %6, i64 16, i1 false)
  %7 = call dereferenceable(16) %"struct.std::complex"* @_ZSt4moveIRSt7complexIdEEONSt16remove_referenceIT_E4typeEOS4_(%"struct.std::complex"* dereferenceable(16) %1) #3
  %8 = bitcast %"struct.std::complex"* %0 to i8*
  %9 = bitcast %"struct.std::complex"* %7 to i8*
  call void @llvm.memcpy.p0i8.p0i8.i64(i8* align 8 %8, i8* align 8 %9, i64 16, i1 false)
  %10 = call dereferenceable(16) %"struct.std::complex"* @_ZSt4moveIRSt7complexIdEEONSt16remove_referenceIT_E4typeEOS4_(%"struct.std::complex"* dereferenceable(16) %3) #3
  %11 = bitcast %"struct.std::complex"* %1 to i8*
  %12 = bitcast %"struct.std::complex"* %10 to i8*
  call void @llvm.memcpy.p0i8.p0i8.i64(i8* align 8 %11, i8* align 8 %12, i64 16, i1 false)
  ret void
}

declare i32 @printf(i8*, ...) #1

; Function Attrs: noinline uwtable
define linkonce_odr void @_ZNSt12_Vector_baseIiSaIiEEC2Ev(%"struct.std::_Vector_base"* %0) unnamed_addr #0 comdat align 2 {
  %2 = getelementptr inbounds %"struct.std::_Vector_base", %"struct.std::_Vector_base"* %0, i32 0, i32 0
  call void @_ZNSt12_Vector_baseIiSaIiEE12_Vector_implC2Ev(%"struct.std::_Vector_base<int, std::allocator<int> >::_Vector_impl"* %2)
  ret void
}

; Function Attrs: noinline noreturn nounwind
define linkonce_odr hidden void @__clang_call_terminate(i8* %0) #6 comdat {
  %2 = call i8* @__cxa_begin_catch(i8* %0) #3
  call void @_ZSt9terminatev() #13
  unreachable
}

declare i8* @__cxa_begin_catch(i8*)

declare void @_ZSt9terminatev()

; Function Attrs: noinline nounwind uwtable
define linkonce_odr void @_ZNSt12_Vector_baseIiSaIiEE12_Vector_implC2Ev(%"struct.std::_Vector_base<int, std::allocator<int> >::_Vector_impl"* %0) unnamed_addr #4 comdat align 2 {
  %2 = bitcast %"struct.std::_Vector_base<int, std::allocator<int> >::_Vector_impl"* %0 to %"class.std::allocator"*
  call void @_ZNSaIiEC2Ev(%"class.std::allocator"* %2) #3
  %3 = getelementptr inbounds %"struct.std::_Vector_base<int, std::allocator<int> >::_Vector_impl", %"struct.std::_Vector_base<int, std::allocator<int> >::_Vector_impl"* %0, i32 0, i32 0
  store i32* null, i32** %3, align 8
  %4 = getelementptr inbounds %"struct.std::_Vector_base<int, std::allocator<int> >::_Vector_impl", %"struct.std::_Vector_base<int, std::allocator<int> >::_Vector_impl"* %0, i32 0, i32 1
  store i32* null, i32** %4, align 8
  %5 = getelementptr inbounds %"struct.std::_Vector_base<int, std::allocator<int> >::_Vector_impl", %"struct.std::_Vector_base<int, std::allocator<int> >::_Vector_impl"* %0, i32 0, i32 2
  store i32* null, i32** %5, align 8
  ret void
}

; Function Attrs: noinline nounwind uwtable
define linkonce_odr void @_ZNSaIiEC2Ev(%"class.std::allocator"* %0) unnamed_addr #4 comdat align 2 {
  %2 = bitcast %"class.std::allocator"* %0 to %"class.__gnu_cxx::new_allocator"*
  call void @_ZN9__gnu_cxx13new_allocatorIiEC2Ev(%"class.__gnu_cxx::new_allocator"* %2) #3
  ret void
}

; Function Attrs: noinline nounwind uwtable
define linkonce_odr void @_ZN9__gnu_cxx13new_allocatorIiEC2Ev(%"class.__gnu_cxx::new_allocator"* %0) unnamed_addr #4 comdat align 2 {
  ret void
}

; Function Attrs: noinline uwtable
define linkonce_odr void @_ZSt8_DestroyIPiiEvT_S1_RSaIT0_E(i32* %0, i32* %1, %"class.std::allocator"* dereferenceable(1) %2) #0 comdat {
  call void @_ZSt8_DestroyIPiEvT_S1_(i32* %0, i32* %1)
  ret void
}

; Function Attrs: noinline nounwind uwtable
define linkonce_odr dereferenceable(1) %"class.std::allocator"* @_ZNSt12_Vector_baseIiSaIiEE19_M_get_Tp_allocatorEv(%"struct.std::_Vector_base"* %0) #4 comdat align 2 {
  %2 = getelementptr inbounds %"struct.std::_Vector_base", %"struct.std::_Vector_base"* %0, i32 0, i32 0
  %3 = bitcast %"struct.std::_Vector_base<int, std::allocator<int> >::_Vector_impl"* %2 to %"class.std::allocator"*
  ret %"class.std::allocator"* %3
}

; Function Attrs: noinline nounwind uwtable
define linkonce_odr void @_ZNSt12_Vector_baseIiSaIiEED2Ev(%"struct.std::_Vector_base"* %0) unnamed_addr #4 comdat align 2 personality i8* bitcast (i32 (...)* @__gxx_personality_v0 to i8*) {
  %2 = getelementptr inbounds %"struct.std::_Vector_base", %"struct.std::_Vector_base"* %0, i32 0, i32 0
  %3 = getelementptr inbounds %"struct.std::_Vector_base<int, std::allocator<int> >::_Vector_impl", %"struct.std::_Vector_base<int, std::allocator<int> >::_Vector_impl"* %2, i32 0, i32 0
  %4 = load i32*, i32** %3, align 8
  %5 = getelementptr inbounds %"struct.std::_Vector_base", %"struct.std::_Vector_base"* %0, i32 0, i32 0
  %6 = getelementptr inbounds %"struct.std::_Vector_base<int, std::allocator<int> >::_Vector_impl", %"struct.std::_Vector_base<int, std::allocator<int> >::_Vector_impl"* %5, i32 0, i32 2
  %7 = load i32*, i32** %6, align 8
  %8 = getelementptr inbounds %"struct.std::_Vector_base", %"struct.std::_Vector_base"* %0, i32 0, i32 0
  %9 = getelementptr inbounds %"struct.std::_Vector_base<int, std::allocator<int> >::_Vector_impl", %"struct.std::_Vector_base<int, std::allocator<int> >::_Vector_impl"* %8, i32 0, i32 0
  %10 = load i32*, i32** %9, align 8
  %11 = ptrtoint i32* %7 to i64
  %12 = ptrtoint i32* %10 to i64
  %13 = sub i64 %11, %12
  %14 = sdiv exact i64 %13, 4
  invoke void @_ZNSt12_Vector_baseIiSaIiEE13_M_deallocateEPim(%"struct.std::_Vector_base"* %0, i32* %4, i64 %14)
          to label %15 unwind label %17

15:                                               ; preds = %1
  %16 = getelementptr inbounds %"struct.std::_Vector_base", %"struct.std::_Vector_base"* %0, i32 0, i32 0
  call void @_ZNSt12_Vector_baseIiSaIiEE12_Vector_implD2Ev(%"struct.std::_Vector_base<int, std::allocator<int> >::_Vector_impl"* %16) #3
  ret void

17:                                               ; preds = %1
  %18 = landingpad { i8*, i32 }
          catch i8* null
  %19 = extractvalue { i8*, i32 } %18, 0
  %20 = extractvalue { i8*, i32 } %18, 1
  %21 = getelementptr inbounds %"struct.std::_Vector_base", %"struct.std::_Vector_base"* %0, i32 0, i32 0
  call void @_ZNSt12_Vector_baseIiSaIiEE12_Vector_implD2Ev(%"struct.std::_Vector_base<int, std::allocator<int> >::_Vector_impl"* %21) #3
  br label %22

22:                                               ; preds = %17
  call void @__clang_call_terminate(i8* %19) #13
  unreachable
}

; Function Attrs: noinline uwtable
define linkonce_odr void @_ZSt8_DestroyIPiEvT_S1_(i32* %0, i32* %1) #0 comdat {
  call void @_ZNSt12_Destroy_auxILb1EE9__destroyIPiEEvT_S3_(i32* %0, i32* %1)
  ret void
}

; Function Attrs: noinline nounwind uwtable
define linkonce_odr void @_ZNSt12_Destroy_auxILb1EE9__destroyIPiEEvT_S3_(i32* %0, i32* %1) #4 comdat align 2 {
  ret void
}

; Function Attrs: noinline uwtable
define linkonce_odr void @_ZNSt12_Vector_baseIiSaIiEE13_M_deallocateEPim(%"struct.std::_Vector_base"* %0, i32* %1, i64 %2) #0 comdat align 2 {
  %4 = icmp ne i32* %1, null
  br i1 %4, label %5, label %8

5:                                                ; preds = %3
  %6 = getelementptr inbounds %"struct.std::_Vector_base", %"struct.std::_Vector_base"* %0, i32 0, i32 0
  %7 = bitcast %"struct.std::_Vector_base<int, std::allocator<int> >::_Vector_impl"* %6 to %"class.std::allocator"*
  call void @_ZNSt16allocator_traitsISaIiEE10deallocateERS0_Pim(%"class.std::allocator"* dereferenceable(1) %7, i32* %1, i64 %2)
  br label %8

8:                                                ; preds = %5, %3
  ret void
}

; Function Attrs: noinline nounwind uwtable
define linkonce_odr void @_ZNSt12_Vector_baseIiSaIiEE12_Vector_implD2Ev(%"struct.std::_Vector_base<int, std::allocator<int> >::_Vector_impl"* %0) unnamed_addr #4 comdat align 2 {
  %2 = bitcast %"struct.std::_Vector_base<int, std::allocator<int> >::_Vector_impl"* %0 to %"class.std::allocator"*
  call void @_ZNSaIiED2Ev(%"class.std::allocator"* %2) #3
  ret void
}

; Function Attrs: noinline uwtable
define linkonce_odr void @_ZNSt16allocator_traitsISaIiEE10deallocateERS0_Pim(%"class.std::allocator"* dereferenceable(1) %0, i32* %1, i64 %2) #0 comdat align 2 {
  %4 = bitcast %"class.std::allocator"* %0 to %"class.__gnu_cxx::new_allocator"*
  call void @_ZN9__gnu_cxx13new_allocatorIiE10deallocateEPim(%"class.__gnu_cxx::new_allocator"* %4, i32* %1, i64 %2)
  ret void
}

; Function Attrs: noinline nounwind uwtable
define linkonce_odr void @_ZN9__gnu_cxx13new_allocatorIiE10deallocateEPim(%"class.__gnu_cxx::new_allocator"* %0, i32* %1, i64 %2) #4 comdat align 2 {
  %4 = bitcast i32* %1 to i8*
  call void @_ZdlPv(i8* %4) #3
  ret void
}

; Function Attrs: nobuiltin nounwind
declare void @_ZdlPv(i8*) #7

; Function Attrs: noinline nounwind uwtable
define linkonce_odr void @_ZNSaIiED2Ev(%"class.std::allocator"* %0) unnamed_addr #4 comdat align 2 {
  %2 = bitcast %"class.std::allocator"* %0 to %"class.__gnu_cxx::new_allocator"*
  call void @_ZN9__gnu_cxx13new_allocatorIiED2Ev(%"class.__gnu_cxx::new_allocator"* %2) #3
  ret void
}

; Function Attrs: noinline nounwind uwtable
define linkonce_odr void @_ZN9__gnu_cxx13new_allocatorIiED2Ev(%"class.__gnu_cxx::new_allocator"* %0) unnamed_addr #4 comdat align 2 {
  ret void
}

; Function Attrs: noinline nounwind uwtable
define linkonce_odr dereferenceable(8) double* @_ZSt4moveIRdEONSt16remove_referenceIT_E4typeEOS2_(double* dereferenceable(8) %0) #4 comdat {
  ret double* %0
}

; Function Attrs: noinline uwtable
define linkonce_odr void @_ZNSt6vectorIiSaIiEE12emplace_backIJiEEEvDpOT_(%"class.std::vector"* %0, i32* dereferenceable(4) %1) #0 comdat align 2 {
  %3 = alloca %"class.__gnu_cxx::__normal_iterator", align 8
  %4 = bitcast %"class.std::vector"* %0 to %"struct.std::_Vector_base"*
  %5 = getelementptr inbounds %"struct.std::_Vector_base", %"struct.std::_Vector_base"* %4, i32 0, i32 0
  %6 = getelementptr inbounds %"struct.std::_Vector_base<int, std::allocator<int> >::_Vector_impl", %"struct.std::_Vector_base<int, std::allocator<int> >::_Vector_impl"* %5, i32 0, i32 1
  %7 = load i32*, i32** %6, align 8
  %8 = bitcast %"class.std::vector"* %0 to %"struct.std::_Vector_base"*
  %9 = getelementptr inbounds %"struct.std::_Vector_base", %"struct.std::_Vector_base"* %8, i32 0, i32 0
  %10 = getelementptr inbounds %"struct.std::_Vector_base<int, std::allocator<int> >::_Vector_impl", %"struct.std::_Vector_base<int, std::allocator<int> >::_Vector_impl"* %9, i32 0, i32 2
  %11 = load i32*, i32** %10, align 8
  %12 = icmp ne i32* %7, %11
  br i1 %12, label %13, label %27

13:                                               ; preds = %2
  %14 = bitcast %"class.std::vector"* %0 to %"struct.std::_Vector_base"*
  %15 = getelementptr inbounds %"struct.std::_Vector_base", %"struct.std::_Vector_base"* %14, i32 0, i32 0
  %16 = bitcast %"struct.std::_Vector_base<int, std::allocator<int> >::_Vector_impl"* %15 to %"class.std::allocator"*
  %17 = bitcast %"class.std::vector"* %0 to %"struct.std::_Vector_base"*
  %18 = getelementptr inbounds %"struct.std::_Vector_base", %"struct.std::_Vector_base"* %17, i32 0, i32 0
  %19 = getelementptr inbounds %"struct.std::_Vector_base<int, std::allocator<int> >::_Vector_impl", %"struct.std::_Vector_base<int, std::allocator<int> >::_Vector_impl"* %18, i32 0, i32 1
  %20 = load i32*, i32** %19, align 8
  %21 = call dereferenceable(4) i32* @_ZSt7forwardIiEOT_RNSt16remove_referenceIS0_E4typeE(i32* dereferenceable(4) %1) #3
  call void @_ZNSt16allocator_traitsISaIiEE9constructIiJiEEEvRS0_PT_DpOT0_(%"class.std::allocator"* dereferenceable(1) %16, i32* %20, i32* dereferenceable(4) %21)
  %22 = bitcast %"class.std::vector"* %0 to %"struct.std::_Vector_base"*
  %23 = getelementptr inbounds %"struct.std::_Vector_base", %"struct.std::_Vector_base"* %22, i32 0, i32 0
  %24 = getelementptr inbounds %"struct.std::_Vector_base<int, std::allocator<int> >::_Vector_impl", %"struct.std::_Vector_base<int, std::allocator<int> >::_Vector_impl"* %23, i32 0, i32 1
  %25 = load i32*, i32** %24, align 8
  %26 = getelementptr inbounds i32, i32* %25, i32 1
  store i32* %26, i32** %24, align 8
  br label %33

27:                                               ; preds = %2
  %28 = call i32* @_ZNSt6vectorIiSaIiEE3endEv(%"class.std::vector"* %0) #3
  %29 = getelementptr inbounds %"class.__gnu_cxx::__normal_iterator", %"class.__gnu_cxx::__normal_iterator"* %3, i32 0, i32 0
  store i32* %28, i32** %29, align 8
  %30 = call dereferenceable(4) i32* @_ZSt7forwardIiEOT_RNSt16remove_referenceIS0_E4typeE(i32* dereferenceable(4) %1) #3
  %31 = getelementptr inbounds %"class.__gnu_cxx::__normal_iterator", %"class.__gnu_cxx::__normal_iterator"* %3, i32 0, i32 0
  %32 = load i32*, i32** %31, align 8
  call void @_ZNSt6vectorIiSaIiEE17_M_realloc_insertIJiEEEvN9__gnu_cxx17__normal_iteratorIPiS1_EEDpOT_(%"class.std::vector"* %0, i32* %32, i32* dereferenceable(4) %30)
  br label %33

33:                                               ; preds = %27, %13
  ret void
}

; Function Attrs: noinline nounwind uwtable
define linkonce_odr dereferenceable(4) i32* @_ZSt4moveIRiEONSt16remove_referenceIT_E4typeEOS2_(i32* dereferenceable(4) %0) #4 comdat {
  ret i32* %0
}

; Function Attrs: noinline uwtable
define linkonce_odr void @_ZNSt16allocator_traitsISaIiEE9constructIiJiEEEvRS0_PT_DpOT0_(%"class.std::allocator"* dereferenceable(1) %0, i32* %1, i32* dereferenceable(4) %2) #0 comdat align 2 {
  %4 = bitcast %"class.std::allocator"* %0 to %"class.__gnu_cxx::new_allocator"*
  %5 = call dereferenceable(4) i32* @_ZSt7forwardIiEOT_RNSt16remove_referenceIS0_E4typeE(i32* dereferenceable(4) %2) #3
  call void @_ZN9__gnu_cxx13new_allocatorIiE9constructIiJiEEEvPT_DpOT0_(%"class.__gnu_cxx::new_allocator"* %4, i32* %1, i32* dereferenceable(4) %5)
  ret void
}

; Function Attrs: noinline nounwind uwtable
define linkonce_odr dereferenceable(4) i32* @_ZSt7forwardIiEOT_RNSt16remove_referenceIS0_E4typeE(i32* dereferenceable(4) %0) #4 comdat {
  ret i32* %0
}

; Function Attrs: noinline uwtable
define linkonce_odr void @_ZNSt6vectorIiSaIiEE17_M_realloc_insertIJiEEEvN9__gnu_cxx17__normal_iteratorIPiS1_EEDpOT_(%"class.std::vector"* %0, i32* %1, i32* dereferenceable(4) %2) #0 comdat align 2 personality i8* bitcast (i32 (...)* @__gxx_personality_v0 to i8*) {
  %4 = alloca %"class.__gnu_cxx::__normal_iterator", align 8
  %5 = alloca %"class.__gnu_cxx::__normal_iterator", align 8
  %6 = getelementptr inbounds %"class.__gnu_cxx::__normal_iterator", %"class.__gnu_cxx::__normal_iterator"* %4, i32 0, i32 0
  store i32* %1, i32** %6, align 8
  %7 = call i64 @_ZNKSt6vectorIiSaIiEE12_M_check_lenEmPKc(%"class.std::vector"* %0, i64 1, i8* getelementptr inbounds ([26 x i8], [26 x i8]* @.str.1, i32 0, i32 0))
  %8 = bitcast %"class.std::vector"* %0 to %"struct.std::_Vector_base"*
  %9 = getelementptr inbounds %"struct.std::_Vector_base", %"struct.std::_Vector_base"* %8, i32 0, i32 0
  %10 = getelementptr inbounds %"struct.std::_Vector_base<int, std::allocator<int> >::_Vector_impl", %"struct.std::_Vector_base<int, std::allocator<int> >::_Vector_impl"* %9, i32 0, i32 0
  %11 = load i32*, i32** %10, align 8
  %12 = bitcast %"class.std::vector"* %0 to %"struct.std::_Vector_base"*
  %13 = getelementptr inbounds %"struct.std::_Vector_base", %"struct.std::_Vector_base"* %12, i32 0, i32 0
  %14 = getelementptr inbounds %"struct.std::_Vector_base<int, std::allocator<int> >::_Vector_impl", %"struct.std::_Vector_base<int, std::allocator<int> >::_Vector_impl"* %13, i32 0, i32 1
  %15 = load i32*, i32** %14, align 8
  %16 = call i32* @_ZNSt6vectorIiSaIiEE5beginEv(%"class.std::vector"* %0) #3
  %17 = getelementptr inbounds %"class.__gnu_cxx::__normal_iterator", %"class.__gnu_cxx::__normal_iterator"* %5, i32 0, i32 0
  store i32* %16, i32** %17, align 8
  %18 = call i64 @_ZN9__gnu_cxxmiIPiSt6vectorIiSaIiEEEENS_17__normal_iteratorIT_T0_E15difference_typeERKS8_SB_(%"class.__gnu_cxx::__normal_iterator"* dereferenceable(8) %4, %"class.__gnu_cxx::__normal_iterator"* dereferenceable(8) %5) #3
  %19 = bitcast %"class.std::vector"* %0 to %"struct.std::_Vector_base"*
  %20 = call i32* @_ZNSt12_Vector_baseIiSaIiEE11_M_allocateEm(%"struct.std::_Vector_base"* %19, i64 %7)
  %21 = bitcast %"class.std::vector"* %0 to %"struct.std::_Vector_base"*
  %22 = getelementptr inbounds %"struct.std::_Vector_base", %"struct.std::_Vector_base"* %21, i32 0, i32 0
  %23 = bitcast %"struct.std::_Vector_base<int, std::allocator<int> >::_Vector_impl"* %22 to %"class.std::allocator"*
  %24 = getelementptr inbounds i32, i32* %20, i64 %18
  %25 = call dereferenceable(4) i32* @_ZSt7forwardIiEOT_RNSt16remove_referenceIS0_E4typeE(i32* dereferenceable(4) %2) #3
  invoke void @_ZNSt16allocator_traitsISaIiEE9constructIiJiEEEvRS0_PT_DpOT0_(%"class.std::allocator"* dereferenceable(1) %23, i32* %24, i32* dereferenceable(4) %25)
          to label %26 unwind label %40

26:                                               ; preds = %3
  %27 = call dereferenceable(8) i32** @_ZNK9__gnu_cxx17__normal_iteratorIPiSt6vectorIiSaIiEEE4baseEv(%"class.__gnu_cxx::__normal_iterator"* %4) #3
  %28 = load i32*, i32** %27, align 8
  %29 = bitcast %"class.std::vector"* %0 to %"struct.std::_Vector_base"*
  %30 = call dereferenceable(1) %"class.std::allocator"* @_ZNSt12_Vector_baseIiSaIiEE19_M_get_Tp_allocatorEv(%"struct.std::_Vector_base"* %29) #3
  %31 = invoke i32* @_ZSt34__uninitialized_move_if_noexcept_aIPiS0_SaIiEET0_T_S3_S2_RT1_(i32* %11, i32* %28, i32* %20, %"class.std::allocator"* dereferenceable(1) %30)
          to label %32 unwind label %40

32:                                               ; preds = %26
  %33 = getelementptr inbounds i32, i32* %31, i32 1
  %34 = call dereferenceable(8) i32** @_ZNK9__gnu_cxx17__normal_iteratorIPiSt6vectorIiSaIiEEE4baseEv(%"class.__gnu_cxx::__normal_iterator"* %4) #3
  %35 = load i32*, i32** %34, align 8
  %36 = bitcast %"class.std::vector"* %0 to %"struct.std::_Vector_base"*
  %37 = call dereferenceable(1) %"class.std::allocator"* @_ZNSt12_Vector_baseIiSaIiEE19_M_get_Tp_allocatorEv(%"struct.std::_Vector_base"* %36) #3
  %38 = invoke i32* @_ZSt34__uninitialized_move_if_noexcept_aIPiS0_SaIiEET0_T_S3_S2_RT1_(i32* %35, i32* %15, i32* %33, %"class.std::allocator"* dereferenceable(1) %37)
          to label %39 unwind label %40

39:                                               ; preds = %32
  br label %65

40:                                               ; preds = %32, %26, %3
  %.0 = phi i32* [ %33, %32 ], [ null, %26 ], [ %20, %3 ]
  %41 = landingpad { i8*, i32 }
          catch i8* null
  %42 = extractvalue { i8*, i32 } %41, 0
  %43 = extractvalue { i8*, i32 } %41, 1
  br label %44

44:                                               ; preds = %40
  %45 = call i8* @__cxa_begin_catch(i8* %42) #3
  %46 = icmp ne i32* %.0, null
  br i1 %46, label %57, label %47

47:                                               ; preds = %44
  %48 = bitcast %"class.std::vector"* %0 to %"struct.std::_Vector_base"*
  %49 = getelementptr inbounds %"struct.std::_Vector_base", %"struct.std::_Vector_base"* %48, i32 0, i32 0
  %50 = bitcast %"struct.std::_Vector_base<int, std::allocator<int> >::_Vector_impl"* %49 to %"class.std::allocator"*
  %51 = getelementptr inbounds i32, i32* %20, i64 %18
  invoke void @_ZNSt16allocator_traitsISaIiEE7destroyIiEEvRS0_PT_(%"class.std::allocator"* dereferenceable(1) %50, i32* %51)
          to label %52 unwind label %53

52:                                               ; preds = %47
  br label %61

53:                                               ; preds = %63, %61, %57, %47
  %54 = landingpad { i8*, i32 }
          cleanup
  %55 = extractvalue { i8*, i32 } %54, 0
  %56 = extractvalue { i8*, i32 } %54, 1
  invoke void @__cxa_end_catch()
          to label %64 unwind label %90

57:                                               ; preds = %44
  %58 = bitcast %"class.std::vector"* %0 to %"struct.std::_Vector_base"*
  %59 = call dereferenceable(1) %"class.std::allocator"* @_ZNSt12_Vector_baseIiSaIiEE19_M_get_Tp_allocatorEv(%"struct.std::_Vector_base"* %58) #3
  invoke void @_ZSt8_DestroyIPiiEvT_S1_RSaIT0_E(i32* %20, i32* %.0, %"class.std::allocator"* dereferenceable(1) %59)
          to label %60 unwind label %53

60:                                               ; preds = %57
  br label %61

61:                                               ; preds = %60, %52
  %62 = bitcast %"class.std::vector"* %0 to %"struct.std::_Vector_base"*
  invoke void @_ZNSt12_Vector_baseIiSaIiEE13_M_deallocateEPim(%"struct.std::_Vector_base"* %62, i32* %20, i64 %7)
          to label %63 unwind label %53

63:                                               ; preds = %61
  invoke void @__cxa_rethrow() #14
          to label %93 unwind label %53

64:                                               ; preds = %53
  br label %87

65:                                               ; preds = %39
  %66 = bitcast %"class.std::vector"* %0 to %"struct.std::_Vector_base"*
  %67 = call dereferenceable(1) %"class.std::allocator"* @_ZNSt12_Vector_baseIiSaIiEE19_M_get_Tp_allocatorEv(%"struct.std::_Vector_base"* %66) #3
  call void @_ZSt8_DestroyIPiiEvT_S1_RSaIT0_E(i32* %11, i32* %15, %"class.std::allocator"* dereferenceable(1) %67)
  %68 = bitcast %"class.std::vector"* %0 to %"struct.std::_Vector_base"*
  %69 = bitcast %"class.std::vector"* %0 to %"struct.std::_Vector_base"*
  %70 = getelementptr inbounds %"struct.std::_Vector_base", %"struct.std::_Vector_base"* %69, i32 0, i32 0
  %71 = getelementptr inbounds %"struct.std::_Vector_base<int, std::allocator<int> >::_Vector_impl", %"struct.std::_Vector_base<int, std::allocator<int> >::_Vector_impl"* %70, i32 0, i32 2
  %72 = load i32*, i32** %71, align 8
  %73 = ptrtoint i32* %72 to i64
  %74 = ptrtoint i32* %11 to i64
  %75 = sub i64 %73, %74
  %76 = sdiv exact i64 %75, 4
  call void @_ZNSt12_Vector_baseIiSaIiEE13_M_deallocateEPim(%"struct.std::_Vector_base"* %68, i32* %11, i64 %76)
  %77 = bitcast %"class.std::vector"* %0 to %"struct.std::_Vector_base"*
  %78 = getelementptr inbounds %"struct.std::_Vector_base", %"struct.std::_Vector_base"* %77, i32 0, i32 0
  %79 = getelementptr inbounds %"struct.std::_Vector_base<int, std::allocator<int> >::_Vector_impl", %"struct.std::_Vector_base<int, std::allocator<int> >::_Vector_impl"* %78, i32 0, i32 0
  store i32* %20, i32** %79, align 8
  %80 = bitcast %"class.std::vector"* %0 to %"struct.std::_Vector_base"*
  %81 = getelementptr inbounds %"struct.std::_Vector_base", %"struct.std::_Vector_base"* %80, i32 0, i32 0
  %82 = getelementptr inbounds %"struct.std::_Vector_base<int, std::allocator<int> >::_Vector_impl", %"struct.std::_Vector_base<int, std::allocator<int> >::_Vector_impl"* %81, i32 0, i32 1
  store i32* %38, i32** %82, align 8
  %83 = getelementptr inbounds i32, i32* %20, i64 %7
  %84 = bitcast %"class.std::vector"* %0 to %"struct.std::_Vector_base"*
  %85 = getelementptr inbounds %"struct.std::_Vector_base", %"struct.std::_Vector_base"* %84, i32 0, i32 0
  %86 = getelementptr inbounds %"struct.std::_Vector_base<int, std::allocator<int> >::_Vector_impl", %"struct.std::_Vector_base<int, std::allocator<int> >::_Vector_impl"* %85, i32 0, i32 2
  store i32* %83, i32** %86, align 8
  ret void

87:                                               ; preds = %64
  %88 = insertvalue { i8*, i32 } undef, i8* %55, 0
  %89 = insertvalue { i8*, i32 } %88, i32 %56, 1
  resume { i8*, i32 } %89

90:                                               ; preds = %53
  %91 = landingpad { i8*, i32 }
          catch i8* null
  %92 = extractvalue { i8*, i32 } %91, 0
  call void @__clang_call_terminate(i8* %92) #13
  unreachable

93:                                               ; preds = %63
  unreachable
}

; Function Attrs: noinline nounwind uwtable
define linkonce_odr void @_ZN9__gnu_cxx13new_allocatorIiE9constructIiJiEEEvPT_DpOT0_(%"class.__gnu_cxx::new_allocator"* %0, i32* %1, i32* dereferenceable(4) %2) #4 comdat align 2 {
  %4 = bitcast i32* %1 to i8*
  %5 = bitcast i8* %4 to i32*
  %6 = call dereferenceable(4) i32* @_ZSt7forwardIiEOT_RNSt16remove_referenceIS0_E4typeE(i32* dereferenceable(4) %2) #3
  %7 = load i32, i32* %6, align 4
  store i32 %7, i32* %5, align 4
  ret void
}

; Function Attrs: noinline uwtable
define linkonce_odr i64 @_ZNKSt6vectorIiSaIiEE12_M_check_lenEmPKc(%"class.std::vector"* %0, i64 %1, i8* %2) #0 comdat align 2 {
  %4 = alloca i64, align 8
  %5 = alloca i64, align 8
  store i64 %1, i64* %4, align 8
  %6 = call i64 @_ZNKSt6vectorIiSaIiEE8max_sizeEv(%"class.std::vector"* %0) #3
  %7 = call i64 @_ZNKSt6vectorIiSaIiEE4sizeEv(%"class.std::vector"* %0) #3
  %8 = sub i64 %6, %7
  %9 = load i64, i64* %4, align 8
  %10 = icmp ult i64 %8, %9
  br i1 %10, label %11, label %12

11:                                               ; preds = %3
  call void @_ZSt20__throw_length_errorPKc(i8* %2) #14
  unreachable

12:                                               ; preds = %3
  %13 = call i64 @_ZNKSt6vectorIiSaIiEE4sizeEv(%"class.std::vector"* %0) #3
  %14 = call i64 @_ZNKSt6vectorIiSaIiEE4sizeEv(%"class.std::vector"* %0) #3
  store i64 %14, i64* %5, align 8
  %15 = call dereferenceable(8) i64* @_ZSt3maxImERKT_S2_S2_(i64* dereferenceable(8) %5, i64* dereferenceable(8) %4)
  %16 = load i64, i64* %15, align 8
  %17 = add i64 %13, %16
  %18 = call i64 @_ZNKSt6vectorIiSaIiEE4sizeEv(%"class.std::vector"* %0) #3
  %19 = icmp ult i64 %17, %18
  br i1 %19, label %23, label %20

20:                                               ; preds = %12
  %21 = call i64 @_ZNKSt6vectorIiSaIiEE8max_sizeEv(%"class.std::vector"* %0) #3
  %22 = icmp ugt i64 %17, %21
  br i1 %22, label %23, label %25

23:                                               ; preds = %20, %12
  %24 = call i64 @_ZNKSt6vectorIiSaIiEE8max_sizeEv(%"class.std::vector"* %0) #3
  br label %26

25:                                               ; preds = %20
  br label %26

26:                                               ; preds = %25, %23
  %27 = phi i64 [ %24, %23 ], [ %17, %25 ]
  ret i64 %27
}

; Function Attrs: noinline nounwind uwtable
define linkonce_odr i64 @_ZN9__gnu_cxxmiIPiSt6vectorIiSaIiEEEENS_17__normal_iteratorIT_T0_E15difference_typeERKS8_SB_(%"class.__gnu_cxx::__normal_iterator"* dereferenceable(8) %0, %"class.__gnu_cxx::__normal_iterator"* dereferenceable(8) %1) #4 comdat {
  %3 = call dereferenceable(8) i32** @_ZNK9__gnu_cxx17__normal_iteratorIPiSt6vectorIiSaIiEEE4baseEv(%"class.__gnu_cxx::__normal_iterator"* %0) #3
  %4 = load i32*, i32** %3, align 8
  %5 = call dereferenceable(8) i32** @_ZNK9__gnu_cxx17__normal_iteratorIPiSt6vectorIiSaIiEEE4baseEv(%"class.__gnu_cxx::__normal_iterator"* %1) #3
  %6 = load i32*, i32** %5, align 8
  %7 = ptrtoint i32* %4 to i64
  %8 = ptrtoint i32* %6 to i64
  %9 = sub i64 %7, %8
  %10 = sdiv exact i64 %9, 4
  ret i64 %10
}

; Function Attrs: noinline uwtable
define linkonce_odr i32* @_ZNSt12_Vector_baseIiSaIiEE11_M_allocateEm(%"struct.std::_Vector_base"* %0, i64 %1) #0 comdat align 2 {
  %3 = icmp ne i64 %1, 0
  br i1 %3, label %4, label %8

4:                                                ; preds = %2
  %5 = getelementptr inbounds %"struct.std::_Vector_base", %"struct.std::_Vector_base"* %0, i32 0, i32 0
  %6 = bitcast %"struct.std::_Vector_base<int, std::allocator<int> >::_Vector_impl"* %5 to %"class.std::allocator"*
  %7 = call i32* @_ZNSt16allocator_traitsISaIiEE8allocateERS0_m(%"class.std::allocator"* dereferenceable(1) %6, i64 %1)
  br label %9

8:                                                ; preds = %2
  br label %9

9:                                                ; preds = %8, %4
  %10 = phi i32* [ %7, %4 ], [ null, %8 ]
  ret i32* %10
}

; Function Attrs: noinline uwtable
define linkonce_odr i32* @_ZSt34__uninitialized_move_if_noexcept_aIPiS0_SaIiEET0_T_S3_S2_RT1_(i32* %0, i32* %1, i32* %2, %"class.std::allocator"* dereferenceable(1) %3) #0 comdat {
  %5 = alloca %"class.std::move_iterator", align 8
  %6 = alloca %"class.std::move_iterator", align 8
  %7 = call i32* @_ZSt32__make_move_if_noexcept_iteratorIiSt13move_iteratorIPiEET0_PT_(i32* %0)
  %8 = getelementptr inbounds %"class.std::move_iterator", %"class.std::move_iterator"* %5, i32 0, i32 0
  store i32* %7, i32** %8, align 8
  %9 = call i32* @_ZSt32__make_move_if_noexcept_iteratorIiSt13move_iteratorIPiEET0_PT_(i32* %1)
  %10 = getelementptr inbounds %"class.std::move_iterator", %"class.std::move_iterator"* %6, i32 0, i32 0
  store i32* %9, i32** %10, align 8
  %11 = getelementptr inbounds %"class.std::move_iterator", %"class.std::move_iterator"* %5, i32 0, i32 0
  %12 = load i32*, i32** %11, align 8
  %13 = getelementptr inbounds %"class.std::move_iterator", %"class.std::move_iterator"* %6, i32 0, i32 0
  %14 = load i32*, i32** %13, align 8
  %15 = call i32* @_ZSt22__uninitialized_copy_aISt13move_iteratorIPiES1_iET0_T_S4_S3_RSaIT1_E(i32* %12, i32* %14, i32* %2, %"class.std::allocator"* dereferenceable(1) %3)
  ret i32* %15
}

; Function Attrs: noinline nounwind uwtable
define linkonce_odr dereferenceable(8) i32** @_ZNK9__gnu_cxx17__normal_iteratorIPiSt6vectorIiSaIiEEE4baseEv(%"class.__gnu_cxx::__normal_iterator"* %0) #4 comdat align 2 {
  %2 = getelementptr inbounds %"class.__gnu_cxx::__normal_iterator", %"class.__gnu_cxx::__normal_iterator"* %0, i32 0, i32 0
  ret i32** %2
}

; Function Attrs: noinline uwtable
define linkonce_odr void @_ZNSt16allocator_traitsISaIiEE7destroyIiEEvRS0_PT_(%"class.std::allocator"* dereferenceable(1) %0, i32* %1) #0 comdat align 2 {
  %3 = bitcast %"class.std::allocator"* %0 to %"class.__gnu_cxx::new_allocator"*
  call void @_ZN9__gnu_cxx13new_allocatorIiE7destroyIiEEvPT_(%"class.__gnu_cxx::new_allocator"* %3, i32* %1)
  ret void
}

declare void @__cxa_rethrow()

declare void @__cxa_end_catch()

; Function Attrs: noinline nounwind uwtable
define linkonce_odr i64 @_ZNKSt6vectorIiSaIiEE8max_sizeEv(%"class.std::vector"* %0) #4 comdat align 2 {
  %2 = bitcast %"class.std::vector"* %0 to %"struct.std::_Vector_base"*
  %3 = call dereferenceable(1) %"class.std::allocator"* @_ZNKSt12_Vector_baseIiSaIiEE19_M_get_Tp_allocatorEv(%"struct.std::_Vector_base"* %2) #3
  %4 = call i64 @_ZNSt16allocator_traitsISaIiEE8max_sizeERKS0_(%"class.std::allocator"* dereferenceable(1) %3) #3
  ret i64 %4
}

; Function Attrs: noreturn
declare void @_ZSt20__throw_length_errorPKc(i8*) #8

; Function Attrs: noinline nounwind uwtable
define linkonce_odr dereferenceable(8) i64* @_ZSt3maxImERKT_S2_S2_(i64* dereferenceable(8) %0, i64* dereferenceable(8) %1) #4 comdat {
  %3 = load i64, i64* %0, align 8
  %4 = load i64, i64* %1, align 8
  %5 = icmp ult i64 %3, %4
  br i1 %5, label %6, label %7

6:                                                ; preds = %2
  br label %8

7:                                                ; preds = %2
  br label %8

8:                                                ; preds = %7, %6
  %.0 = phi i64* [ %1, %6 ], [ %0, %7 ]
  ret i64* %.0
}

; Function Attrs: noinline nounwind uwtable
define linkonce_odr i64 @_ZNSt16allocator_traitsISaIiEE8max_sizeERKS0_(%"class.std::allocator"* dereferenceable(1) %0) #4 comdat align 2 {
  %2 = bitcast %"class.std::allocator"* %0 to %"class.__gnu_cxx::new_allocator"*
  %3 = call i64 @_ZNK9__gnu_cxx13new_allocatorIiE8max_sizeEv(%"class.__gnu_cxx::new_allocator"* %2) #3
  ret i64 %3
}

; Function Attrs: noinline nounwind uwtable
define linkonce_odr dereferenceable(1) %"class.std::allocator"* @_ZNKSt12_Vector_baseIiSaIiEE19_M_get_Tp_allocatorEv(%"struct.std::_Vector_base"* %0) #4 comdat align 2 {
  %2 = getelementptr inbounds %"struct.std::_Vector_base", %"struct.std::_Vector_base"* %0, i32 0, i32 0
  %3 = bitcast %"struct.std::_Vector_base<int, std::allocator<int> >::_Vector_impl"* %2 to %"class.std::allocator"*
  ret %"class.std::allocator"* %3
}

; Function Attrs: noinline nounwind uwtable
define linkonce_odr i64 @_ZNK9__gnu_cxx13new_allocatorIiE8max_sizeEv(%"class.__gnu_cxx::new_allocator"* %0) #4 comdat align 2 {
  ret i64 4611686018427387903
}

; Function Attrs: noinline uwtable
define linkonce_odr i32* @_ZNSt16allocator_traitsISaIiEE8allocateERS0_m(%"class.std::allocator"* dereferenceable(1) %0, i64 %1) #0 comdat align 2 {
  %3 = bitcast %"class.std::allocator"* %0 to %"class.__gnu_cxx::new_allocator"*
  %4 = call i32* @_ZN9__gnu_cxx13new_allocatorIiE8allocateEmPKv(%"class.__gnu_cxx::new_allocator"* %3, i64 %1, i8* null)
  ret i32* %4
}

; Function Attrs: noinline uwtable
define linkonce_odr i32* @_ZN9__gnu_cxx13new_allocatorIiE8allocateEmPKv(%"class.__gnu_cxx::new_allocator"* %0, i64 %1, i8* %2) #0 comdat align 2 {
  %4 = call i64 @_ZNK9__gnu_cxx13new_allocatorIiE8max_sizeEv(%"class.__gnu_cxx::new_allocator"* %0) #3
  %5 = icmp ugt i64 %1, %4
  br i1 %5, label %6, label %7

6:                                                ; preds = %3
  call void @_ZSt17__throw_bad_allocv() #14
  unreachable

7:                                                ; preds = %3
  %8 = mul i64 %1, 4
  %9 = call i8* @_Znwm(i64 %8)
  %10 = bitcast i8* %9 to i32*
  ret i32* %10
}

; Function Attrs: noreturn
declare void @_ZSt17__throw_bad_allocv() #8

; Function Attrs: nobuiltin
declare noalias i8* @_Znwm(i64) #9

; Function Attrs: noinline uwtable
define linkonce_odr i32* @_ZSt22__uninitialized_copy_aISt13move_iteratorIPiES1_iET0_T_S4_S3_RSaIT1_E(i32* %0, i32* %1, i32* %2, %"class.std::allocator"* dereferenceable(1) %3) #0 comdat {
  %5 = alloca %"class.std::move_iterator", align 8
  %6 = alloca %"class.std::move_iterator", align 8
  %7 = alloca %"class.std::move_iterator", align 8
  %8 = alloca %"class.std::move_iterator", align 8
  %9 = getelementptr inbounds %"class.std::move_iterator", %"class.std::move_iterator"* %5, i32 0, i32 0
  store i32* %0, i32** %9, align 8
  %10 = getelementptr inbounds %"class.std::move_iterator", %"class.std::move_iterator"* %6, i32 0, i32 0
  store i32* %1, i32** %10, align 8
  %11 = bitcast %"class.std::move_iterator"* %7 to i8*
  %12 = bitcast %"class.std::move_iterator"* %5 to i8*
  call void @llvm.memcpy.p0i8.p0i8.i64(i8* align 8 %11, i8* align 8 %12, i64 8, i1 false)
  %13 = bitcast %"class.std::move_iterator"* %8 to i8*
  %14 = bitcast %"class.std::move_iterator"* %6 to i8*
  call void @llvm.memcpy.p0i8.p0i8.i64(i8* align 8 %13, i8* align 8 %14, i64 8, i1 false)
  %15 = getelementptr inbounds %"class.std::move_iterator", %"class.std::move_iterator"* %7, i32 0, i32 0
  %16 = load i32*, i32** %15, align 8
  %17 = getelementptr inbounds %"class.std::move_iterator", %"class.std::move_iterator"* %8, i32 0, i32 0
  %18 = load i32*, i32** %17, align 8
  %19 = call i32* @_ZSt18uninitialized_copyISt13move_iteratorIPiES1_ET0_T_S4_S3_(i32* %16, i32* %18, i32* %2)
  ret i32* %19
}

; Function Attrs: noinline uwtable
define linkonce_odr i32* @_ZSt32__make_move_if_noexcept_iteratorIiSt13move_iteratorIPiEET0_PT_(i32* %0) #0 comdat {
  %2 = alloca %"class.std::move_iterator", align 8
  call void @_ZNSt13move_iteratorIPiEC2ES0_(%"class.std::move_iterator"* %2, i32* %0)
  %3 = getelementptr inbounds %"class.std::move_iterator", %"class.std::move_iterator"* %2, i32 0, i32 0
  %4 = load i32*, i32** %3, align 8
  ret i32* %4
}

; Function Attrs: noinline uwtable
define linkonce_odr i32* @_ZSt18uninitialized_copyISt13move_iteratorIPiES1_ET0_T_S4_S3_(i32* %0, i32* %1, i32* %2) #0 comdat {
  %4 = alloca %"class.std::move_iterator", align 8
  %5 = alloca %"class.std::move_iterator", align 8
  %6 = alloca %"class.std::move_iterator", align 8
  %7 = alloca %"class.std::move_iterator", align 8
  %8 = getelementptr inbounds %"class.std::move_iterator", %"class.std::move_iterator"* %4, i32 0, i32 0
  store i32* %0, i32** %8, align 8
  %9 = getelementptr inbounds %"class.std::move_iterator", %"class.std::move_iterator"* %5, i32 0, i32 0
  store i32* %1, i32** %9, align 8
  %10 = bitcast %"class.std::move_iterator"* %6 to i8*
  %11 = bitcast %"class.std::move_iterator"* %4 to i8*
  call void @llvm.memcpy.p0i8.p0i8.i64(i8* align 8 %10, i8* align 8 %11, i64 8, i1 false)
  %12 = bitcast %"class.std::move_iterator"* %7 to i8*
  %13 = bitcast %"class.std::move_iterator"* %5 to i8*
  call void @llvm.memcpy.p0i8.p0i8.i64(i8* align 8 %12, i8* align 8 %13, i64 8, i1 false)
  %14 = getelementptr inbounds %"class.std::move_iterator", %"class.std::move_iterator"* %6, i32 0, i32 0
  %15 = load i32*, i32** %14, align 8
  %16 = getelementptr inbounds %"class.std::move_iterator", %"class.std::move_iterator"* %7, i32 0, i32 0
  %17 = load i32*, i32** %16, align 8
  %18 = call i32* @_ZNSt20__uninitialized_copyILb1EE13__uninit_copyISt13move_iteratorIPiES3_EET0_T_S6_S5_(i32* %15, i32* %17, i32* %2)
  ret i32* %18
}

; Function Attrs: noinline uwtable
define linkonce_odr i32* @_ZNSt20__uninitialized_copyILb1EE13__uninit_copyISt13move_iteratorIPiES3_EET0_T_S6_S5_(i32* %0, i32* %1, i32* %2) #0 comdat align 2 {
  %4 = alloca %"class.std::move_iterator", align 8
  %5 = alloca %"class.std::move_iterator", align 8
  %6 = alloca %"class.std::move_iterator", align 8
  %7 = alloca %"class.std::move_iterator", align 8
  %8 = getelementptr inbounds %"class.std::move_iterator", %"class.std::move_iterator"* %4, i32 0, i32 0
  store i32* %0, i32** %8, align 8
  %9 = getelementptr inbounds %"class.std::move_iterator", %"class.std::move_iterator"* %5, i32 0, i32 0
  store i32* %1, i32** %9, align 8
  %10 = bitcast %"class.std::move_iterator"* %6 to i8*
  %11 = bitcast %"class.std::move_iterator"* %4 to i8*
  call void @llvm.memcpy.p0i8.p0i8.i64(i8* align 8 %10, i8* align 8 %11, i64 8, i1 false)
  %12 = bitcast %"class.std::move_iterator"* %7 to i8*
  %13 = bitcast %"class.std::move_iterator"* %5 to i8*
  call void @llvm.memcpy.p0i8.p0i8.i64(i8* align 8 %12, i8* align 8 %13, i64 8, i1 false)
  %14 = getelementptr inbounds %"class.std::move_iterator", %"class.std::move_iterator"* %6, i32 0, i32 0
  %15 = load i32*, i32** %14, align 8
  %16 = getelementptr inbounds %"class.std::move_iterator", %"class.std::move_iterator"* %7, i32 0, i32 0
  %17 = load i32*, i32** %16, align 8
  %18 = call i32* @_ZSt4copyISt13move_iteratorIPiES1_ET0_T_S4_S3_(i32* %15, i32* %17, i32* %2)
  ret i32* %18
}

; Function Attrs: noinline uwtable
define linkonce_odr i32* @_ZSt4copyISt13move_iteratorIPiES1_ET0_T_S4_S3_(i32* %0, i32* %1, i32* %2) #0 comdat {
  %4 = alloca %"class.std::move_iterator", align 8
  %5 = alloca %"class.std::move_iterator", align 8
  %6 = alloca %"class.std::move_iterator", align 8
  %7 = alloca %"class.std::move_iterator", align 8
  %8 = getelementptr inbounds %"class.std::move_iterator", %"class.std::move_iterator"* %4, i32 0, i32 0
  store i32* %0, i32** %8, align 8
  %9 = getelementptr inbounds %"class.std::move_iterator", %"class.std::move_iterator"* %5, i32 0, i32 0
  store i32* %1, i32** %9, align 8
  %10 = bitcast %"class.std::move_iterator"* %6 to i8*
  %11 = bitcast %"class.std::move_iterator"* %4 to i8*
  call void @llvm.memcpy.p0i8.p0i8.i64(i8* align 8 %10, i8* align 8 %11, i64 8, i1 false)
  %12 = getelementptr inbounds %"class.std::move_iterator", %"class.std::move_iterator"* %6, i32 0, i32 0
  %13 = load i32*, i32** %12, align 8
  %14 = call i32* @_ZSt12__miter_baseIPiEDTcl12__miter_basecldtfp_4baseEEESt13move_iteratorIT_E(i32* %13)
  %15 = bitcast %"class.std::move_iterator"* %7 to i8*
  %16 = bitcast %"class.std::move_iterator"* %5 to i8*
  call void @llvm.memcpy.p0i8.p0i8.i64(i8* align 8 %15, i8* align 8 %16, i64 8, i1 false)
  %17 = getelementptr inbounds %"class.std::move_iterator", %"class.std::move_iterator"* %7, i32 0, i32 0
  %18 = load i32*, i32** %17, align 8
  %19 = call i32* @_ZSt12__miter_baseIPiEDTcl12__miter_basecldtfp_4baseEEESt13move_iteratorIT_E(i32* %18)
  %20 = call i32* @_ZSt14__copy_move_a2ILb1EPiS0_ET1_T0_S2_S1_(i32* %14, i32* %19, i32* %2)
  ret i32* %20
}

; Function Attrs: noinline uwtable
define linkonce_odr i32* @_ZSt14__copy_move_a2ILb1EPiS0_ET1_T0_S2_S1_(i32* %0, i32* %1, i32* %2) #0 comdat {
  %4 = call i32* @_ZSt12__niter_baseIPiET_S1_(i32* %0)
  %5 = call i32* @_ZSt12__niter_baseIPiET_S1_(i32* %1)
  %6 = call i32* @_ZSt12__niter_baseIPiET_S1_(i32* %2)
  %7 = call i32* @_ZSt13__copy_move_aILb1EPiS0_ET1_T0_S2_S1_(i32* %4, i32* %5, i32* %6)
  ret i32* %7
}

; Function Attrs: noinline uwtable
define linkonce_odr i32* @_ZSt12__miter_baseIPiEDTcl12__miter_basecldtfp_4baseEEESt13move_iteratorIT_E(i32* %0) #0 comdat {
  %2 = alloca %"class.std::move_iterator", align 8
  %3 = getelementptr inbounds %"class.std::move_iterator", %"class.std::move_iterator"* %2, i32 0, i32 0
  store i32* %0, i32** %3, align 8
  %4 = call i32* @_ZNKSt13move_iteratorIPiE4baseEv(%"class.std::move_iterator"* %2)
  %5 = call i32* @_ZSt12__miter_baseIPiET_S1_(i32* %4)
  ret i32* %5
}

; Function Attrs: noinline uwtable
define linkonce_odr i32* @_ZSt13__copy_move_aILb1EPiS0_ET1_T0_S2_S1_(i32* %0, i32* %1, i32* %2) #0 comdat {
  %4 = call i32* @_ZNSt11__copy_moveILb1ELb1ESt26random_access_iterator_tagE8__copy_mIiEEPT_PKS3_S6_S4_(i32* %0, i32* %1, i32* %2)
  ret i32* %4
}

; Function Attrs: noinline nounwind uwtable
define linkonce_odr i32* @_ZSt12__niter_baseIPiET_S1_(i32* %0) #4 comdat {
  ret i32* %0
}

; Function Attrs: noinline nounwind uwtable
define linkonce_odr i32* @_ZNSt11__copy_moveILb1ELb1ESt26random_access_iterator_tagE8__copy_mIiEEPT_PKS3_S6_S4_(i32* %0, i32* %1, i32* %2) #4 comdat align 2 {
  %4 = ptrtoint i32* %1 to i64
  %5 = ptrtoint i32* %0 to i64
  %6 = sub i64 %4, %5
  %7 = sdiv exact i64 %6, 4
  %8 = icmp ne i64 %7, 0
  br i1 %8, label %9, label %13

9:                                                ; preds = %3
  %10 = bitcast i32* %2 to i8*
  %11 = bitcast i32* %0 to i8*
  %12 = mul i64 4, %7
  call void @llvm.memmove.p0i8.p0i8.i64(i8* align 4 %10, i8* align 4 %11, i64 %12, i1 false)
  br label %13

13:                                               ; preds = %9, %3
  %14 = getelementptr inbounds i32, i32* %2, i64 %7
  ret i32* %14
}

; Function Attrs: noinline nounwind uwtable
define linkonce_odr i32* @_ZSt12__miter_baseIPiET_S1_(i32* %0) #4 comdat {
  ret i32* %0
}

; Function Attrs: noinline nounwind uwtable
define linkonce_odr i32* @_ZNKSt13move_iteratorIPiE4baseEv(%"class.std::move_iterator"* %0) #4 comdat align 2 {
  %2 = getelementptr inbounds %"class.std::move_iterator", %"class.std::move_iterator"* %0, i32 0, i32 0
  %3 = load i32*, i32** %2, align 8
  ret i32* %3
}

; Function Attrs: noinline nounwind uwtable
define linkonce_odr void @_ZNSt13move_iteratorIPiEC2ES0_(%"class.std::move_iterator"* %0, i32* %1) unnamed_addr #4 comdat align 2 {
  %3 = getelementptr inbounds %"class.std::move_iterator", %"class.std::move_iterator"* %0, i32 0, i32 0
  store i32* %1, i32** %3, align 8
  ret void
}

; Function Attrs: noinline nounwind uwtable
define linkonce_odr void @_ZN9__gnu_cxx13new_allocatorIiE7destroyIiEEvPT_(%"class.__gnu_cxx::new_allocator"* %0, i32* %1) #4 comdat align 2 {
  ret void
}

; Function Attrs: noinline nounwind uwtable
define linkonce_odr void @_ZN9__gnu_cxx17__normal_iteratorIPiSt6vectorIiSaIiEEEC2ERKS1_(%"class.__gnu_cxx::__normal_iterator"* %0, i32** dereferenceable(8) %1) unnamed_addr #4 comdat align 2 {
  %3 = getelementptr inbounds %"class.__gnu_cxx::__normal_iterator", %"class.__gnu_cxx::__normal_iterator"* %0, i32 0, i32 0
  %4 = load i32*, i32** %1, align 8
  store i32* %4, i32** %3, align 8
  ret void
}

; Function Attrs: noinline uwtable
define linkonce_odr void @_ZSt9__reverseIN9__gnu_cxx17__normal_iteratorIPiSt6vectorIiSaIiEEEEEvT_S7_St26random_access_iterator_tag(i32* %0, i32* %1) #0 comdat {
  %3 = alloca %"class.__gnu_cxx::__normal_iterator", align 8
  %4 = alloca %"class.__gnu_cxx::__normal_iterator", align 8
  %5 = alloca %"class.__gnu_cxx::__normal_iterator", align 8
  %6 = alloca %"class.__gnu_cxx::__normal_iterator", align 8
  %7 = getelementptr inbounds %"class.__gnu_cxx::__normal_iterator", %"class.__gnu_cxx::__normal_iterator"* %3, i32 0, i32 0
  store i32* %0, i32** %7, align 8
  %8 = getelementptr inbounds %"class.__gnu_cxx::__normal_iterator", %"class.__gnu_cxx::__normal_iterator"* %4, i32 0, i32 0
  store i32* %1, i32** %8, align 8
  %9 = call zeroext i1 @_ZN9__gnu_cxxeqIPiSt6vectorIiSaIiEEEEbRKNS_17__normal_iteratorIT_T0_EESA_(%"class.__gnu_cxx::__normal_iterator"* dereferenceable(8) %3, %"class.__gnu_cxx::__normal_iterator"* dereferenceable(8) %4) #3
  br i1 %9, label %10, label %11

10:                                               ; preds = %2
  br label %26

11:                                               ; preds = %2
  %12 = call dereferenceable(8) %"class.__gnu_cxx::__normal_iterator"* @_ZN9__gnu_cxx17__normal_iteratorIPiSt6vectorIiSaIiEEEmmEv(%"class.__gnu_cxx::__normal_iterator"* %4) #3
  br label %13

13:                                               ; preds = %15, %11
  %14 = call zeroext i1 @_ZN9__gnu_cxxltIPiSt6vectorIiSaIiEEEEbRKNS_17__normal_iteratorIT_T0_EESA_(%"class.__gnu_cxx::__normal_iterator"* dereferenceable(8) %3, %"class.__gnu_cxx::__normal_iterator"* dereferenceable(8) %4) #3
  br i1 %14, label %15, label %26

15:                                               ; preds = %13
  %16 = bitcast %"class.__gnu_cxx::__normal_iterator"* %5 to i8*
  %17 = bitcast %"class.__gnu_cxx::__normal_iterator"* %3 to i8*
  call void @llvm.memcpy.p0i8.p0i8.i64(i8* align 8 %16, i8* align 8 %17, i64 8, i1 false)
  %18 = bitcast %"class.__gnu_cxx::__normal_iterator"* %6 to i8*
  %19 = bitcast %"class.__gnu_cxx::__normal_iterator"* %4 to i8*
  call void @llvm.memcpy.p0i8.p0i8.i64(i8* align 8 %18, i8* align 8 %19, i64 8, i1 false)
  %20 = getelementptr inbounds %"class.__gnu_cxx::__normal_iterator", %"class.__gnu_cxx::__normal_iterator"* %5, i32 0, i32 0
  %21 = load i32*, i32** %20, align 8
  %22 = getelementptr inbounds %"class.__gnu_cxx::__normal_iterator", %"class.__gnu_cxx::__normal_iterator"* %6, i32 0, i32 0
  %23 = load i32*, i32** %22, align 8
  call void @_ZSt9iter_swapIN9__gnu_cxx17__normal_iteratorIPiSt6vectorIiSaIiEEEES6_EvT_T0_(i32* %21, i32* %23)
  %24 = call dereferenceable(8) %"class.__gnu_cxx::__normal_iterator"* @_ZN9__gnu_cxx17__normal_iteratorIPiSt6vectorIiSaIiEEEppEv(%"class.__gnu_cxx::__normal_iterator"* %3) #3
  %25 = call dereferenceable(8) %"class.__gnu_cxx::__normal_iterator"* @_ZN9__gnu_cxx17__normal_iteratorIPiSt6vectorIiSaIiEEEmmEv(%"class.__gnu_cxx::__normal_iterator"* %4) #3
  br label %13

26:                                               ; preds = %13, %10
  ret void
}

; Function Attrs: noinline nounwind uwtable
define linkonce_odr void @_ZSt19__iterator_categoryIN9__gnu_cxx17__normal_iteratorIPiSt6vectorIiSaIiEEEEENSt15iterator_traitsIT_E17iterator_categoryERKS8_(%"class.__gnu_cxx::__normal_iterator"* dereferenceable(8) %0) #4 comdat {
  ret void
}

; Function Attrs: noinline nounwind uwtable
define linkonce_odr zeroext i1 @_ZN9__gnu_cxxeqIPiSt6vectorIiSaIiEEEEbRKNS_17__normal_iteratorIT_T0_EESA_(%"class.__gnu_cxx::__normal_iterator"* dereferenceable(8) %0, %"class.__gnu_cxx::__normal_iterator"* dereferenceable(8) %1) #4 comdat {
  %3 = call dereferenceable(8) i32** @_ZNK9__gnu_cxx17__normal_iteratorIPiSt6vectorIiSaIiEEE4baseEv(%"class.__gnu_cxx::__normal_iterator"* %0) #3
  %4 = load i32*, i32** %3, align 8
  %5 = call dereferenceable(8) i32** @_ZNK9__gnu_cxx17__normal_iteratorIPiSt6vectorIiSaIiEEE4baseEv(%"class.__gnu_cxx::__normal_iterator"* %1) #3
  %6 = load i32*, i32** %5, align 8
  %7 = icmp eq i32* %4, %6
  ret i1 %7
}

; Function Attrs: noinline nounwind uwtable
define linkonce_odr dereferenceable(8) %"class.__gnu_cxx::__normal_iterator"* @_ZN9__gnu_cxx17__normal_iteratorIPiSt6vectorIiSaIiEEEmmEv(%"class.__gnu_cxx::__normal_iterator"* %0) #4 comdat align 2 {
  %2 = getelementptr inbounds %"class.__gnu_cxx::__normal_iterator", %"class.__gnu_cxx::__normal_iterator"* %0, i32 0, i32 0
  %3 = load i32*, i32** %2, align 8
  %4 = getelementptr inbounds i32, i32* %3, i32 -1
  store i32* %4, i32** %2, align 8
  ret %"class.__gnu_cxx::__normal_iterator"* %0
}

; Function Attrs: noinline nounwind uwtable
define linkonce_odr zeroext i1 @_ZN9__gnu_cxxltIPiSt6vectorIiSaIiEEEEbRKNS_17__normal_iteratorIT_T0_EESA_(%"class.__gnu_cxx::__normal_iterator"* dereferenceable(8) %0, %"class.__gnu_cxx::__normal_iterator"* dereferenceable(8) %1) #4 comdat {
  %3 = call dereferenceable(8) i32** @_ZNK9__gnu_cxx17__normal_iteratorIPiSt6vectorIiSaIiEEE4baseEv(%"class.__gnu_cxx::__normal_iterator"* %0) #3
  %4 = load i32*, i32** %3, align 8
  %5 = call dereferenceable(8) i32** @_ZNK9__gnu_cxx17__normal_iteratorIPiSt6vectorIiSaIiEEE4baseEv(%"class.__gnu_cxx::__normal_iterator"* %1) #3
  %6 = load i32*, i32** %5, align 8
  %7 = icmp ult i32* %4, %6
  ret i1 %7
}

; Function Attrs: noinline nounwind uwtable
define linkonce_odr void @_ZSt9iter_swapIN9__gnu_cxx17__normal_iteratorIPiSt6vectorIiSaIiEEEES6_EvT_T0_(i32* %0, i32* %1) #4 comdat {
  %3 = alloca %"class.__gnu_cxx::__normal_iterator", align 8
  %4 = alloca %"class.__gnu_cxx::__normal_iterator", align 8
  %5 = getelementptr inbounds %"class.__gnu_cxx::__normal_iterator", %"class.__gnu_cxx::__normal_iterator"* %3, i32 0, i32 0
  store i32* %0, i32** %5, align 8
  %6 = getelementptr inbounds %"class.__gnu_cxx::__normal_iterator", %"class.__gnu_cxx::__normal_iterator"* %4, i32 0, i32 0
  store i32* %1, i32** %6, align 8
  %7 = call dereferenceable(4) i32* @_ZNK9__gnu_cxx17__normal_iteratorIPiSt6vectorIiSaIiEEEdeEv(%"class.__gnu_cxx::__normal_iterator"* %3) #3
  %8 = call dereferenceable(4) i32* @_ZNK9__gnu_cxx17__normal_iteratorIPiSt6vectorIiSaIiEEEdeEv(%"class.__gnu_cxx::__normal_iterator"* %4) #3
  call void @_ZSt4swapIiENSt9enable_ifIXsr6__and_ISt6__not_ISt15__is_tuple_likeIT_EESt21is_move_constructibleIS3_ESt18is_move_assignableIS3_EEE5valueEvE4typeERS3_SC_(i32* dereferenceable(4) %7, i32* dereferenceable(4) %8) #3
  ret void
}

; Function Attrs: noinline nounwind uwtable
define linkonce_odr dereferenceable(8) %"class.__gnu_cxx::__normal_iterator"* @_ZN9__gnu_cxx17__normal_iteratorIPiSt6vectorIiSaIiEEEppEv(%"class.__gnu_cxx::__normal_iterator"* %0) #4 comdat align 2 {
  %2 = getelementptr inbounds %"class.__gnu_cxx::__normal_iterator", %"class.__gnu_cxx::__normal_iterator"* %0, i32 0, i32 0
  %3 = load i32*, i32** %2, align 8
  %4 = getelementptr inbounds i32, i32* %3, i32 1
  store i32* %4, i32** %2, align 8
  ret %"class.__gnu_cxx::__normal_iterator"* %0
}

; Function Attrs: noinline nounwind uwtable
define linkonce_odr void @_ZSt4swapIiENSt9enable_ifIXsr6__and_ISt6__not_ISt15__is_tuple_likeIT_EESt21is_move_constructibleIS3_ESt18is_move_assignableIS3_EEE5valueEvE4typeERS3_SC_(i32* dereferenceable(4) %0, i32* dereferenceable(4) %1) #4 comdat {
  %3 = alloca i32, align 4
  %4 = call dereferenceable(4) i32* @_ZSt4moveIRiEONSt16remove_referenceIT_E4typeEOS2_(i32* dereferenceable(4) %0) #3
  %5 = load i32, i32* %4, align 4
  store i32 %5, i32* %3, align 4
  %6 = call dereferenceable(4) i32* @_ZSt4moveIRiEONSt16remove_referenceIT_E4typeEOS2_(i32* dereferenceable(4) %1) #3
  %7 = load i32, i32* %6, align 4
  store i32 %7, i32* %0, align 4
  %8 = call dereferenceable(4) i32* @_ZSt4moveIRiEONSt16remove_referenceIT_E4typeEOS2_(i32* dereferenceable(4) %3) #3
  %9 = load i32, i32* %8, align 4
  store i32 %9, i32* %1, align 4
  ret void
}

; Function Attrs: noinline nounwind uwtable
define linkonce_odr dereferenceable(4) i32* @_ZNK9__gnu_cxx17__normal_iteratorIPiSt6vectorIiSaIiEEEdeEv(%"class.__gnu_cxx::__normal_iterator"* %0) #4 comdat align 2 {
  %2 = getelementptr inbounds %"class.__gnu_cxx::__normal_iterator", %"class.__gnu_cxx::__normal_iterator"* %0, i32 0, i32 0
  %3 = load i32*, i32** %2, align 8
  ret i32* %3
}

; Function Attrs: noinline nounwind uwtable
define linkonce_odr i64 @_ZN9__gnu_cxxmiIPKiSt6vectorIiSaIiEEEENS_17__normal_iteratorIT_T0_E15difference_typeERKS9_SC_(%"class.__gnu_cxx::__normal_iterator.0"* dereferenceable(8) %0, %"class.__gnu_cxx::__normal_iterator.0"* dereferenceable(8) %1) #4 comdat {
  %3 = call dereferenceable(8) i32** @_ZNK9__gnu_cxx17__normal_iteratorIPKiSt6vectorIiSaIiEEE4baseEv(%"class.__gnu_cxx::__normal_iterator.0"* %0) #3
  %4 = load i32*, i32** %3, align 8
  %5 = call dereferenceable(8) i32** @_ZNK9__gnu_cxx17__normal_iteratorIPKiSt6vectorIiSaIiEEE4baseEv(%"class.__gnu_cxx::__normal_iterator.0"* %1) #3
  %6 = load i32*, i32** %5, align 8
  %7 = ptrtoint i32* %4 to i64
  %8 = ptrtoint i32* %6 to i64
  %9 = sub i64 %7, %8
  %10 = sdiv exact i64 %9, 4
  ret i64 %10
}

; Function Attrs: noinline nounwind uwtable
define linkonce_odr i32* @_ZNKSt6vectorIiSaIiEE6cbeginEv(%"class.std::vector"* %0) #4 comdat align 2 {
  %2 = alloca %"class.__gnu_cxx::__normal_iterator.0", align 8
  %3 = alloca i32*, align 8
  %4 = bitcast %"class.std::vector"* %0 to %"struct.std::_Vector_base"*
  %5 = getelementptr inbounds %"struct.std::_Vector_base", %"struct.std::_Vector_base"* %4, i32 0, i32 0
  %6 = getelementptr inbounds %"struct.std::_Vector_base<int, std::allocator<int> >::_Vector_impl", %"struct.std::_Vector_base<int, std::allocator<int> >::_Vector_impl"* %5, i32 0, i32 0
  %7 = load i32*, i32** %6, align 8
  store i32* %7, i32** %3, align 8
  call void @_ZN9__gnu_cxx17__normal_iteratorIPKiSt6vectorIiSaIiEEEC2ERKS2_(%"class.__gnu_cxx::__normal_iterator.0"* %2, i32** dereferenceable(8) %3) #3
  %8 = getelementptr inbounds %"class.__gnu_cxx::__normal_iterator.0", %"class.__gnu_cxx::__normal_iterator.0"* %2, i32 0, i32 0
  %9 = load i32*, i32** %8, align 8
  ret i32* %9
}

; Function Attrs: noinline uwtable
define linkonce_odr void @_ZNSt6vectorIiSaIiEE18_M_insert_dispatchIN9__gnu_cxx17__normal_iteratorIPiS1_EEEEvS6_T_S7_St12__false_type(%"class.std::vector"* %0, i32* %1, i32* %2, i32* %3) #0 comdat align 2 {
  %5 = alloca %"class.__gnu_cxx::__normal_iterator", align 8
  %6 = alloca %"class.__gnu_cxx::__normal_iterator", align 8
  %7 = alloca %"class.__gnu_cxx::__normal_iterator", align 8
  %8 = alloca %"class.__gnu_cxx::__normal_iterator", align 8
  %9 = alloca %"class.__gnu_cxx::__normal_iterator", align 8
  %10 = alloca %"class.__gnu_cxx::__normal_iterator", align 8
  %11 = getelementptr inbounds %"class.__gnu_cxx::__normal_iterator", %"class.__gnu_cxx::__normal_iterator"* %5, i32 0, i32 0
  store i32* %1, i32** %11, align 8
  %12 = getelementptr inbounds %"class.__gnu_cxx::__normal_iterator", %"class.__gnu_cxx::__normal_iterator"* %6, i32 0, i32 0
  store i32* %2, i32** %12, align 8
  %13 = getelementptr inbounds %"class.__gnu_cxx::__normal_iterator", %"class.__gnu_cxx::__normal_iterator"* %7, i32 0, i32 0
  store i32* %3, i32** %13, align 8
  %14 = bitcast %"class.__gnu_cxx::__normal_iterator"* %8 to i8*
  %15 = bitcast %"class.__gnu_cxx::__normal_iterator"* %5 to i8*
  call void @llvm.memcpy.p0i8.p0i8.i64(i8* align 8 %14, i8* align 8 %15, i64 8, i1 false)
  %16 = bitcast %"class.__gnu_cxx::__normal_iterator"* %9 to i8*
  %17 = bitcast %"class.__gnu_cxx::__normal_iterator"* %6 to i8*
  call void @llvm.memcpy.p0i8.p0i8.i64(i8* align 8 %16, i8* align 8 %17, i64 8, i1 false)
  %18 = bitcast %"class.__gnu_cxx::__normal_iterator"* %10 to i8*
  %19 = bitcast %"class.__gnu_cxx::__normal_iterator"* %7 to i8*
  call void @llvm.memcpy.p0i8.p0i8.i64(i8* align 8 %18, i8* align 8 %19, i64 8, i1 false)
  call void @_ZSt19__iterator_categoryIN9__gnu_cxx17__normal_iteratorIPiSt6vectorIiSaIiEEEEENSt15iterator_traitsIT_E17iterator_categoryERKS8_(%"class.__gnu_cxx::__normal_iterator"* dereferenceable(8) %6)
  %20 = getelementptr inbounds %"class.__gnu_cxx::__normal_iterator", %"class.__gnu_cxx::__normal_iterator"* %8, i32 0, i32 0
  %21 = load i32*, i32** %20, align 8
  %22 = getelementptr inbounds %"class.__gnu_cxx::__normal_iterator", %"class.__gnu_cxx::__normal_iterator"* %9, i32 0, i32 0
  %23 = load i32*, i32** %22, align 8
  %24 = getelementptr inbounds %"class.__gnu_cxx::__normal_iterator", %"class.__gnu_cxx::__normal_iterator"* %10, i32 0, i32 0
  %25 = load i32*, i32** %24, align 8
  call void @_ZNSt6vectorIiSaIiEE15_M_range_insertIN9__gnu_cxx17__normal_iteratorIPiS1_EEEEvS6_T_S7_St20forward_iterator_tag(%"class.std::vector"* %0, i32* %21, i32* %23, i32* %25)
  ret void
}

; Function Attrs: noinline nounwind uwtable
define linkonce_odr i32* @_ZNK9__gnu_cxx17__normal_iteratorIPiSt6vectorIiSaIiEEEplEl(%"class.__gnu_cxx::__normal_iterator"* %0, i64 %1) #4 comdat align 2 {
  %3 = alloca %"class.__gnu_cxx::__normal_iterator", align 8
  %4 = alloca i32*, align 8
  %5 = getelementptr inbounds %"class.__gnu_cxx::__normal_iterator", %"class.__gnu_cxx::__normal_iterator"* %0, i32 0, i32 0
  %6 = load i32*, i32** %5, align 8
  %7 = getelementptr inbounds i32, i32* %6, i64 %1
  store i32* %7, i32** %4, align 8
  call void @_ZN9__gnu_cxx17__normal_iteratorIPiSt6vectorIiSaIiEEEC2ERKS1_(%"class.__gnu_cxx::__normal_iterator"* %3, i32** dereferenceable(8) %4) #3
  %8 = getelementptr inbounds %"class.__gnu_cxx::__normal_iterator", %"class.__gnu_cxx::__normal_iterator"* %3, i32 0, i32 0
  %9 = load i32*, i32** %8, align 8
  ret i32* %9
}

; Function Attrs: noinline nounwind uwtable
define linkonce_odr dereferenceable(8) i32** @_ZNK9__gnu_cxx17__normal_iteratorIPKiSt6vectorIiSaIiEEE4baseEv(%"class.__gnu_cxx::__normal_iterator.0"* %0) #4 comdat align 2 {
  %2 = getelementptr inbounds %"class.__gnu_cxx::__normal_iterator.0", %"class.__gnu_cxx::__normal_iterator.0"* %0, i32 0, i32 0
  ret i32** %2
}

; Function Attrs: noinline nounwind uwtable
define linkonce_odr void @_ZN9__gnu_cxx17__normal_iteratorIPKiSt6vectorIiSaIiEEEC2ERKS2_(%"class.__gnu_cxx::__normal_iterator.0"* %0, i32** dereferenceable(8) %1) unnamed_addr #4 comdat align 2 {
  %3 = getelementptr inbounds %"class.__gnu_cxx::__normal_iterator.0", %"class.__gnu_cxx::__normal_iterator.0"* %0, i32 0, i32 0
  %4 = load i32*, i32** %1, align 8
  store i32* %4, i32** %3, align 8
  ret void
}

; Function Attrs: noinline uwtable
define linkonce_odr void @_ZNSt6vectorIiSaIiEE15_M_range_insertIN9__gnu_cxx17__normal_iteratorIPiS1_EEEEvS6_T_S7_St20forward_iterator_tag(%"class.std::vector"* %0, i32* %1, i32* %2, i32* %3) #0 comdat align 2 personality i8* bitcast (i32 (...)* @__gxx_personality_v0 to i8*) {
  %5 = alloca %"class.__gnu_cxx::__normal_iterator", align 8
  %6 = alloca %"class.__gnu_cxx::__normal_iterator", align 8
  %7 = alloca %"class.__gnu_cxx::__normal_iterator", align 8
  %8 = alloca %"class.__gnu_cxx::__normal_iterator", align 8
  %9 = alloca %"class.__gnu_cxx::__normal_iterator", align 8
  %10 = alloca %"class.__gnu_cxx::__normal_iterator", align 8
  %11 = alloca %"class.__gnu_cxx::__normal_iterator", align 8
  %12 = alloca %"class.__gnu_cxx::__normal_iterator", align 8
  %13 = alloca %"class.__gnu_cxx::__normal_iterator", align 8
  %14 = alloca %"class.__gnu_cxx::__normal_iterator", align 8
  %15 = alloca %"class.__gnu_cxx::__normal_iterator", align 8
  %16 = alloca %"class.__gnu_cxx::__normal_iterator", align 8
  %17 = alloca %"class.__gnu_cxx::__normal_iterator", align 8
  %18 = alloca %"class.__gnu_cxx::__normal_iterator", align 8
  %19 = alloca %"class.__gnu_cxx::__normal_iterator", align 8
  %20 = alloca %"class.__gnu_cxx::__normal_iterator", align 8
  %21 = alloca %"class.__gnu_cxx::__normal_iterator", align 8
  %22 = alloca %"class.__gnu_cxx::__normal_iterator", align 8
  %23 = alloca %"class.__gnu_cxx::__normal_iterator", align 8
  %24 = getelementptr inbounds %"class.__gnu_cxx::__normal_iterator", %"class.__gnu_cxx::__normal_iterator"* %5, i32 0, i32 0
  store i32* %1, i32** %24, align 8
  %25 = getelementptr inbounds %"class.__gnu_cxx::__normal_iterator", %"class.__gnu_cxx::__normal_iterator"* %6, i32 0, i32 0
  store i32* %2, i32** %25, align 8
  %26 = getelementptr inbounds %"class.__gnu_cxx::__normal_iterator", %"class.__gnu_cxx::__normal_iterator"* %7, i32 0, i32 0
  store i32* %3, i32** %26, align 8
  %27 = call zeroext i1 @_ZN9__gnu_cxxneIPiSt6vectorIiSaIiEEEEbRKNS_17__normal_iteratorIT_T0_EESA_(%"class.__gnu_cxx::__normal_iterator"* dereferenceable(8) %6, %"class.__gnu_cxx::__normal_iterator"* dereferenceable(8) %7) #3
  br i1 %27, label %28, label %246

28:                                               ; preds = %4
  %29 = bitcast %"class.__gnu_cxx::__normal_iterator"* %8 to i8*
  %30 = bitcast %"class.__gnu_cxx::__normal_iterator"* %6 to i8*
  call void @llvm.memcpy.p0i8.p0i8.i64(i8* align 8 %29, i8* align 8 %30, i64 8, i1 false)
  %31 = bitcast %"class.__gnu_cxx::__normal_iterator"* %9 to i8*
  %32 = bitcast %"class.__gnu_cxx::__normal_iterator"* %7 to i8*
  call void @llvm.memcpy.p0i8.p0i8.i64(i8* align 8 %31, i8* align 8 %32, i64 8, i1 false)
  %33 = getelementptr inbounds %"class.__gnu_cxx::__normal_iterator", %"class.__gnu_cxx::__normal_iterator"* %8, i32 0, i32 0
  %34 = load i32*, i32** %33, align 8
  %35 = getelementptr inbounds %"class.__gnu_cxx::__normal_iterator", %"class.__gnu_cxx::__normal_iterator"* %9, i32 0, i32 0
  %36 = load i32*, i32** %35, align 8
  %37 = call i64 @_ZSt8distanceIN9__gnu_cxx17__normal_iteratorIPiSt6vectorIiSaIiEEEEENSt15iterator_traitsIT_E15difference_typeES8_S8_(i32* %34, i32* %36)
  %38 = bitcast %"class.std::vector"* %0 to %"struct.std::_Vector_base"*
  %39 = getelementptr inbounds %"struct.std::_Vector_base", %"struct.std::_Vector_base"* %38, i32 0, i32 0
  %40 = getelementptr inbounds %"struct.std::_Vector_base<int, std::allocator<int> >::_Vector_impl", %"struct.std::_Vector_base<int, std::allocator<int> >::_Vector_impl"* %39, i32 0, i32 2
  %41 = load i32*, i32** %40, align 8
  %42 = bitcast %"class.std::vector"* %0 to %"struct.std::_Vector_base"*
  %43 = getelementptr inbounds %"struct.std::_Vector_base", %"struct.std::_Vector_base"* %42, i32 0, i32 0
  %44 = getelementptr inbounds %"struct.std::_Vector_base<int, std::allocator<int> >::_Vector_impl", %"struct.std::_Vector_base<int, std::allocator<int> >::_Vector_impl"* %43, i32 0, i32 1
  %45 = load i32*, i32** %44, align 8
  %46 = ptrtoint i32* %41 to i64
  %47 = ptrtoint i32* %45 to i64
  %48 = sub i64 %46, %47
  %49 = sdiv exact i64 %48, 4
  %50 = icmp uge i64 %49, %37
  br i1 %50, label %51, label %155

51:                                               ; preds = %28
  %52 = call i32* @_ZNSt6vectorIiSaIiEE3endEv(%"class.std::vector"* %0) #3
  %53 = getelementptr inbounds %"class.__gnu_cxx::__normal_iterator", %"class.__gnu_cxx::__normal_iterator"* %10, i32 0, i32 0
  store i32* %52, i32** %53, align 8
  %54 = call i64 @_ZN9__gnu_cxxmiIPiSt6vectorIiSaIiEEEENS_17__normal_iteratorIT_T0_E15difference_typeERKS8_SB_(%"class.__gnu_cxx::__normal_iterator"* dereferenceable(8) %10, %"class.__gnu_cxx::__normal_iterator"* dereferenceable(8) %5) #3
  %55 = bitcast %"class.std::vector"* %0 to %"struct.std::_Vector_base"*
  %56 = getelementptr inbounds %"struct.std::_Vector_base", %"struct.std::_Vector_base"* %55, i32 0, i32 0
  %57 = getelementptr inbounds %"struct.std::_Vector_base<int, std::allocator<int> >::_Vector_impl", %"struct.std::_Vector_base<int, std::allocator<int> >::_Vector_impl"* %56, i32 0, i32 1
  %58 = load i32*, i32** %57, align 8
  %59 = icmp ugt i64 %54, %37
  br i1 %59, label %60, label %102

60:                                               ; preds = %51
  %61 = bitcast %"class.std::vector"* %0 to %"struct.std::_Vector_base"*
  %62 = getelementptr inbounds %"struct.std::_Vector_base", %"struct.std::_Vector_base"* %61, i32 0, i32 0
  %63 = getelementptr inbounds %"struct.std::_Vector_base<int, std::allocator<int> >::_Vector_impl", %"struct.std::_Vector_base<int, std::allocator<int> >::_Vector_impl"* %62, i32 0, i32 1
  %64 = load i32*, i32** %63, align 8
  %65 = sub i64 0, %37
  %66 = getelementptr inbounds i32, i32* %64, i64 %65
  %67 = bitcast %"class.std::vector"* %0 to %"struct.std::_Vector_base"*
  %68 = getelementptr inbounds %"struct.std::_Vector_base", %"struct.std::_Vector_base"* %67, i32 0, i32 0
  %69 = getelementptr inbounds %"struct.std::_Vector_base<int, std::allocator<int> >::_Vector_impl", %"struct.std::_Vector_base<int, std::allocator<int> >::_Vector_impl"* %68, i32 0, i32 1
  %70 = load i32*, i32** %69, align 8
  %71 = bitcast %"class.std::vector"* %0 to %"struct.std::_Vector_base"*
  %72 = getelementptr inbounds %"struct.std::_Vector_base", %"struct.std::_Vector_base"* %71, i32 0, i32 0
  %73 = getelementptr inbounds %"struct.std::_Vector_base<int, std::allocator<int> >::_Vector_impl", %"struct.std::_Vector_base<int, std::allocator<int> >::_Vector_impl"* %72, i32 0, i32 1
  %74 = load i32*, i32** %73, align 8
  %75 = bitcast %"class.std::vector"* %0 to %"struct.std::_Vector_base"*
  %76 = call dereferenceable(1) %"class.std::allocator"* @_ZNSt12_Vector_baseIiSaIiEE19_M_get_Tp_allocatorEv(%"struct.std::_Vector_base"* %75) #3
  %77 = call i32* @_ZSt22__uninitialized_move_aIPiS0_SaIiEET0_T_S3_S2_RT1_(i32* %66, i32* %70, i32* %74, %"class.std::allocator"* dereferenceable(1) %76)
  %78 = bitcast %"class.std::vector"* %0 to %"struct.std::_Vector_base"*
  %79 = getelementptr inbounds %"struct.std::_Vector_base", %"struct.std::_Vector_base"* %78, i32 0, i32 0
  %80 = getelementptr inbounds %"struct.std::_Vector_base<int, std::allocator<int> >::_Vector_impl", %"struct.std::_Vector_base<int, std::allocator<int> >::_Vector_impl"* %79, i32 0, i32 1
  %81 = load i32*, i32** %80, align 8
  %82 = getelementptr inbounds i32, i32* %81, i64 %37
  store i32* %82, i32** %80, align 8
  %83 = call dereferenceable(8) i32** @_ZNK9__gnu_cxx17__normal_iteratorIPiSt6vectorIiSaIiEEE4baseEv(%"class.__gnu_cxx::__normal_iterator"* %5) #3
  %84 = load i32*, i32** %83, align 8
  %85 = sub i64 0, %37
  %86 = getelementptr inbounds i32, i32* %58, i64 %85
  %87 = call i32* @_ZSt13move_backwardIPiS0_ET0_T_S2_S1_(i32* %84, i32* %86, i32* %58)
  %88 = bitcast %"class.__gnu_cxx::__normal_iterator"* %11 to i8*
  %89 = bitcast %"class.__gnu_cxx::__normal_iterator"* %6 to i8*
  call void @llvm.memcpy.p0i8.p0i8.i64(i8* align 8 %88, i8* align 8 %89, i64 8, i1 false)
  %90 = bitcast %"class.__gnu_cxx::__normal_iterator"* %12 to i8*
  %91 = bitcast %"class.__gnu_cxx::__normal_iterator"* %7 to i8*
  call void @llvm.memcpy.p0i8.p0i8.i64(i8* align 8 %90, i8* align 8 %91, i64 8, i1 false)
  %92 = bitcast %"class.__gnu_cxx::__normal_iterator"* %13 to i8*
  %93 = bitcast %"class.__gnu_cxx::__normal_iterator"* %5 to i8*
  call void @llvm.memcpy.p0i8.p0i8.i64(i8* align 8 %92, i8* align 8 %93, i64 8, i1 false)
  %94 = getelementptr inbounds %"class.__gnu_cxx::__normal_iterator", %"class.__gnu_cxx::__normal_iterator"* %11, i32 0, i32 0
  %95 = load i32*, i32** %94, align 8
  %96 = getelementptr inbounds %"class.__gnu_cxx::__normal_iterator", %"class.__gnu_cxx::__normal_iterator"* %12, i32 0, i32 0
  %97 = load i32*, i32** %96, align 8
  %98 = getelementptr inbounds %"class.__gnu_cxx::__normal_iterator", %"class.__gnu_cxx::__normal_iterator"* %13, i32 0, i32 0
  %99 = load i32*, i32** %98, align 8
  %100 = call i32* @_ZSt4copyIN9__gnu_cxx17__normal_iteratorIPiSt6vectorIiSaIiEEEES6_ET0_T_S8_S7_(i32* %95, i32* %97, i32* %99)
  %101 = getelementptr inbounds %"class.__gnu_cxx::__normal_iterator", %"class.__gnu_cxx::__normal_iterator"* %14, i32 0, i32 0
  store i32* %100, i32** %101, align 8
  br label %154

102:                                              ; preds = %51
  %103 = bitcast %"class.__gnu_cxx::__normal_iterator"* %15 to i8*
  %104 = bitcast %"class.__gnu_cxx::__normal_iterator"* %6 to i8*
  call void @llvm.memcpy.p0i8.p0i8.i64(i8* align 8 %103, i8* align 8 %104, i64 8, i1 false)
  call void @_ZSt7advanceIN9__gnu_cxx17__normal_iteratorIPiSt6vectorIiSaIiEEEEmEvRT_T0_(%"class.__gnu_cxx::__normal_iterator"* dereferenceable(8) %15, i64 %54)
  %105 = bitcast %"class.__gnu_cxx::__normal_iterator"* %16 to i8*
  %106 = bitcast %"class.__gnu_cxx::__normal_iterator"* %15 to i8*
  call void @llvm.memcpy.p0i8.p0i8.i64(i8* align 8 %105, i8* align 8 %106, i64 8, i1 false)
  %107 = bitcast %"class.__gnu_cxx::__normal_iterator"* %17 to i8*
  %108 = bitcast %"class.__gnu_cxx::__normal_iterator"* %7 to i8*
  call void @llvm.memcpy.p0i8.p0i8.i64(i8* align 8 %107, i8* align 8 %108, i64 8, i1 false)
  %109 = bitcast %"class.std::vector"* %0 to %"struct.std::_Vector_base"*
  %110 = getelementptr inbounds %"struct.std::_Vector_base", %"struct.std::_Vector_base"* %109, i32 0, i32 0
  %111 = getelementptr inbounds %"struct.std::_Vector_base<int, std::allocator<int> >::_Vector_impl", %"struct.std::_Vector_base<int, std::allocator<int> >::_Vector_impl"* %110, i32 0, i32 1
  %112 = load i32*, i32** %111, align 8
  %113 = bitcast %"class.std::vector"* %0 to %"struct.std::_Vector_base"*
  %114 = call dereferenceable(1) %"class.std::allocator"* @_ZNSt12_Vector_baseIiSaIiEE19_M_get_Tp_allocatorEv(%"struct.std::_Vector_base"* %113) #3
  %115 = getelementptr inbounds %"class.__gnu_cxx::__normal_iterator", %"class.__gnu_cxx::__normal_iterator"* %16, i32 0, i32 0
  %116 = load i32*, i32** %115, align 8
  %117 = getelementptr inbounds %"class.__gnu_cxx::__normal_iterator", %"class.__gnu_cxx::__normal_iterator"* %17, i32 0, i32 0
  %118 = load i32*, i32** %117, align 8
  %119 = call i32* @_ZSt22__uninitialized_copy_aIN9__gnu_cxx17__normal_iteratorIPiSt6vectorIiSaIiEEEES2_iET0_T_S8_S7_RSaIT1_E(i32* %116, i32* %118, i32* %112, %"class.std::allocator"* dereferenceable(1) %114)
  %120 = sub i64 %37, %54
  %121 = bitcast %"class.std::vector"* %0 to %"struct.std::_Vector_base"*
  %122 = getelementptr inbounds %"struct.std::_Vector_base", %"struct.std::_Vector_base"* %121, i32 0, i32 0
  %123 = getelementptr inbounds %"struct.std::_Vector_base<int, std::allocator<int> >::_Vector_impl", %"struct.std::_Vector_base<int, std::allocator<int> >::_Vector_impl"* %122, i32 0, i32 1
  %124 = load i32*, i32** %123, align 8
  %125 = getelementptr inbounds i32, i32* %124, i64 %120
  store i32* %125, i32** %123, align 8
  %126 = call dereferenceable(8) i32** @_ZNK9__gnu_cxx17__normal_iteratorIPiSt6vectorIiSaIiEEE4baseEv(%"class.__gnu_cxx::__normal_iterator"* %5) #3
  %127 = load i32*, i32** %126, align 8
  %128 = bitcast %"class.std::vector"* %0 to %"struct.std::_Vector_base"*
  %129 = getelementptr inbounds %"struct.std::_Vector_base", %"struct.std::_Vector_base"* %128, i32 0, i32 0
  %130 = getelementptr inbounds %"struct.std::_Vector_base<int, std::allocator<int> >::_Vector_impl", %"struct.std::_Vector_base<int, std::allocator<int> >::_Vector_impl"* %129, i32 0, i32 1
  %131 = load i32*, i32** %130, align 8
  %132 = bitcast %"class.std::vector"* %0 to %"struct.std::_Vector_base"*
  %133 = call dereferenceable(1) %"class.std::allocator"* @_ZNSt12_Vector_baseIiSaIiEE19_M_get_Tp_allocatorEv(%"struct.std::_Vector_base"* %132) #3
  %134 = call i32* @_ZSt22__uninitialized_move_aIPiS0_SaIiEET0_T_S3_S2_RT1_(i32* %127, i32* %58, i32* %131, %"class.std::allocator"* dereferenceable(1) %133)
  %135 = bitcast %"class.std::vector"* %0 to %"struct.std::_Vector_base"*
  %136 = getelementptr inbounds %"struct.std::_Vector_base", %"struct.std::_Vector_base"* %135, i32 0, i32 0
  %137 = getelementptr inbounds %"struct.std::_Vector_base<int, std::allocator<int> >::_Vector_impl", %"struct.std::_Vector_base<int, std::allocator<int> >::_Vector_impl"* %136, i32 0, i32 1
  %138 = load i32*, i32** %137, align 8
  %139 = getelementptr inbounds i32, i32* %138, i64 %54
  store i32* %139, i32** %137, align 8
  %140 = bitcast %"class.__gnu_cxx::__normal_iterator"* %18 to i8*
  %141 = bitcast %"class.__gnu_cxx::__normal_iterator"* %6 to i8*
  call void @llvm.memcpy.p0i8.p0i8.i64(i8* align 8 %140, i8* align 8 %141, i64 8, i1 false)
  %142 = bitcast %"class.__gnu_cxx::__normal_iterator"* %19 to i8*
  %143 = bitcast %"class.__gnu_cxx::__normal_iterator"* %15 to i8*
  call void @llvm.memcpy.p0i8.p0i8.i64(i8* align 8 %142, i8* align 8 %143, i64 8, i1 false)
  %144 = bitcast %"class.__gnu_cxx::__normal_iterator"* %20 to i8*
  %145 = bitcast %"class.__gnu_cxx::__normal_iterator"* %5 to i8*
  call void @llvm.memcpy.p0i8.p0i8.i64(i8* align 8 %144, i8* align 8 %145, i64 8, i1 false)
  %146 = getelementptr inbounds %"class.__gnu_cxx::__normal_iterator", %"class.__gnu_cxx::__normal_iterator"* %18, i32 0, i32 0
  %147 = load i32*, i32** %146, align 8
  %148 = getelementptr inbounds %"class.__gnu_cxx::__normal_iterator", %"class.__gnu_cxx::__normal_iterator"* %19, i32 0, i32 0
  %149 = load i32*, i32** %148, align 8
  %150 = getelementptr inbounds %"class.__gnu_cxx::__normal_iterator", %"class.__gnu_cxx::__normal_iterator"* %20, i32 0, i32 0
  %151 = load i32*, i32** %150, align 8
  %152 = call i32* @_ZSt4copyIN9__gnu_cxx17__normal_iteratorIPiSt6vectorIiSaIiEEEES6_ET0_T_S8_S7_(i32* %147, i32* %149, i32* %151)
  %153 = getelementptr inbounds %"class.__gnu_cxx::__normal_iterator", %"class.__gnu_cxx::__normal_iterator"* %21, i32 0, i32 0
  store i32* %152, i32** %153, align 8
  br label %154

154:                                              ; preds = %102, %60
  br label %245

155:                                              ; preds = %28
  %156 = call i64 @_ZNKSt6vectorIiSaIiEE12_M_check_lenEmPKc(%"class.std::vector"* %0, i64 %37, i8* getelementptr inbounds ([24 x i8], [24 x i8]* @.str.2, i32 0, i32 0))
  %157 = bitcast %"class.std::vector"* %0 to %"struct.std::_Vector_base"*
  %158 = call i32* @_ZNSt12_Vector_baseIiSaIiEE11_M_allocateEm(%"struct.std::_Vector_base"* %157, i64 %156)
  %159 = bitcast %"class.std::vector"* %0 to %"struct.std::_Vector_base"*
  %160 = getelementptr inbounds %"struct.std::_Vector_base", %"struct.std::_Vector_base"* %159, i32 0, i32 0
  %161 = getelementptr inbounds %"struct.std::_Vector_base<int, std::allocator<int> >::_Vector_impl", %"struct.std::_Vector_base<int, std::allocator<int> >::_Vector_impl"* %160, i32 0, i32 0
  %162 = load i32*, i32** %161, align 8
  %163 = call dereferenceable(8) i32** @_ZNK9__gnu_cxx17__normal_iteratorIPiSt6vectorIiSaIiEEE4baseEv(%"class.__gnu_cxx::__normal_iterator"* %5) #3
  %164 = load i32*, i32** %163, align 8
  %165 = bitcast %"class.std::vector"* %0 to %"struct.std::_Vector_base"*
  %166 = call dereferenceable(1) %"class.std::allocator"* @_ZNSt12_Vector_baseIiSaIiEE19_M_get_Tp_allocatorEv(%"struct.std::_Vector_base"* %165) #3
  %167 = invoke i32* @_ZSt34__uninitialized_move_if_noexcept_aIPiS0_SaIiEET0_T_S3_S2_RT1_(i32* %162, i32* %164, i32* %158, %"class.std::allocator"* dereferenceable(1) %166)
          to label %168 unwind label %191

168:                                              ; preds = %155
  %169 = bitcast %"class.__gnu_cxx::__normal_iterator"* %22 to i8*
  %170 = bitcast %"class.__gnu_cxx::__normal_iterator"* %6 to i8*
  call void @llvm.memcpy.p0i8.p0i8.i64(i8* align 8 %169, i8* align 8 %170, i64 8, i1 false)
  %171 = bitcast %"class.__gnu_cxx::__normal_iterator"* %23 to i8*
  %172 = bitcast %"class.__gnu_cxx::__normal_iterator"* %7 to i8*
  call void @llvm.memcpy.p0i8.p0i8.i64(i8* align 8 %171, i8* align 8 %172, i64 8, i1 false)
  %173 = bitcast %"class.std::vector"* %0 to %"struct.std::_Vector_base"*
  %174 = call dereferenceable(1) %"class.std::allocator"* @_ZNSt12_Vector_baseIiSaIiEE19_M_get_Tp_allocatorEv(%"struct.std::_Vector_base"* %173) #3
  %175 = getelementptr inbounds %"class.__gnu_cxx::__normal_iterator", %"class.__gnu_cxx::__normal_iterator"* %22, i32 0, i32 0
  %176 = load i32*, i32** %175, align 8
  %177 = getelementptr inbounds %"class.__gnu_cxx::__normal_iterator", %"class.__gnu_cxx::__normal_iterator"* %23, i32 0, i32 0
  %178 = load i32*, i32** %177, align 8
  %179 = invoke i32* @_ZSt22__uninitialized_copy_aIN9__gnu_cxx17__normal_iteratorIPiSt6vectorIiSaIiEEEES2_iET0_T_S8_S7_RSaIT1_E(i32* %176, i32* %178, i32* %167, %"class.std::allocator"* dereferenceable(1) %174)
          to label %180 unwind label %191

180:                                              ; preds = %168
  %181 = call dereferenceable(8) i32** @_ZNK9__gnu_cxx17__normal_iteratorIPiSt6vectorIiSaIiEEE4baseEv(%"class.__gnu_cxx::__normal_iterator"* %5) #3
  %182 = load i32*, i32** %181, align 8
  %183 = bitcast %"class.std::vector"* %0 to %"struct.std::_Vector_base"*
  %184 = getelementptr inbounds %"struct.std::_Vector_base", %"struct.std::_Vector_base"* %183, i32 0, i32 0
  %185 = getelementptr inbounds %"struct.std::_Vector_base<int, std::allocator<int> >::_Vector_impl", %"struct.std::_Vector_base<int, std::allocator<int> >::_Vector_impl"* %184, i32 0, i32 1
  %186 = load i32*, i32** %185, align 8
  %187 = bitcast %"class.std::vector"* %0 to %"struct.std::_Vector_base"*
  %188 = call dereferenceable(1) %"class.std::allocator"* @_ZNSt12_Vector_baseIiSaIiEE19_M_get_Tp_allocatorEv(%"struct.std::_Vector_base"* %187) #3
  %189 = invoke i32* @_ZSt34__uninitialized_move_if_noexcept_aIPiS0_SaIiEET0_T_S3_S2_RT1_(i32* %182, i32* %186, i32* %179, %"class.std::allocator"* dereferenceable(1) %188)
          to label %190 unwind label %191

190:                                              ; preds = %180
  br label %207

191:                                              ; preds = %180, %168, %155
  %.0 = phi i32* [ %179, %180 ], [ %167, %168 ], [ %158, %155 ]
  %192 = landingpad { i8*, i32 }
          catch i8* null
  %193 = extractvalue { i8*, i32 } %192, 0
  %194 = extractvalue { i8*, i32 } %192, 1
  br label %195

195:                                              ; preds = %191
  %196 = call i8* @__cxa_begin_catch(i8* %193) #3
  %197 = bitcast %"class.std::vector"* %0 to %"struct.std::_Vector_base"*
  %198 = call dereferenceable(1) %"class.std::allocator"* @_ZNSt12_Vector_baseIiSaIiEE19_M_get_Tp_allocatorEv(%"struct.std::_Vector_base"* %197) #3
  invoke void @_ZSt8_DestroyIPiiEvT_S1_RSaIT0_E(i32* %158, i32* %.0, %"class.std::allocator"* dereferenceable(1) %198)
          to label %199 unwind label %202

199:                                              ; preds = %195
  %200 = bitcast %"class.std::vector"* %0 to %"struct.std::_Vector_base"*
  invoke void @_ZNSt12_Vector_baseIiSaIiEE13_M_deallocateEPim(%"struct.std::_Vector_base"* %200, i32* %158, i64 %156)
          to label %201 unwind label %202

201:                                              ; preds = %199
  invoke void @__cxa_rethrow() #14
          to label %253 unwind label %202

202:                                              ; preds = %201, %199, %195
  %203 = landingpad { i8*, i32 }
          cleanup
  %204 = extractvalue { i8*, i32 } %203, 0
  %205 = extractvalue { i8*, i32 } %203, 1
  invoke void @__cxa_end_catch()
          to label %206 unwind label %250

206:                                              ; preds = %202
  br label %247

207:                                              ; preds = %190
  %208 = bitcast %"class.std::vector"* %0 to %"struct.std::_Vector_base"*
  %209 = getelementptr inbounds %"struct.std::_Vector_base", %"struct.std::_Vector_base"* %208, i32 0, i32 0
  %210 = getelementptr inbounds %"struct.std::_Vector_base<int, std::allocator<int> >::_Vector_impl", %"struct.std::_Vector_base<int, std::allocator<int> >::_Vector_impl"* %209, i32 0, i32 0
  %211 = load i32*, i32** %210, align 8
  %212 = bitcast %"class.std::vector"* %0 to %"struct.std::_Vector_base"*
  %213 = getelementptr inbounds %"struct.std::_Vector_base", %"struct.std::_Vector_base"* %212, i32 0, i32 0
  %214 = getelementptr inbounds %"struct.std::_Vector_base<int, std::allocator<int> >::_Vector_impl", %"struct.std::_Vector_base<int, std::allocator<int> >::_Vector_impl"* %213, i32 0, i32 1
  %215 = load i32*, i32** %214, align 8
  %216 = bitcast %"class.std::vector"* %0 to %"struct.std::_Vector_base"*
  %217 = call dereferenceable(1) %"class.std::allocator"* @_ZNSt12_Vector_baseIiSaIiEE19_M_get_Tp_allocatorEv(%"struct.std::_Vector_base"* %216) #3
  call void @_ZSt8_DestroyIPiiEvT_S1_RSaIT0_E(i32* %211, i32* %215, %"class.std::allocator"* dereferenceable(1) %217)
  %218 = bitcast %"class.std::vector"* %0 to %"struct.std::_Vector_base"*
  %219 = bitcast %"class.std::vector"* %0 to %"struct.std::_Vector_base"*
  %220 = getelementptr inbounds %"struct.std::_Vector_base", %"struct.std::_Vector_base"* %219, i32 0, i32 0
  %221 = getelementptr inbounds %"struct.std::_Vector_base<int, std::allocator<int> >::_Vector_impl", %"struct.std::_Vector_base<int, std::allocator<int> >::_Vector_impl"* %220, i32 0, i32 0
  %222 = load i32*, i32** %221, align 8
  %223 = bitcast %"class.std::vector"* %0 to %"struct.std::_Vector_base"*
  %224 = getelementptr inbounds %"struct.std::_Vector_base", %"struct.std::_Vector_base"* %223, i32 0, i32 0
  %225 = getelementptr inbounds %"struct.std::_Vector_base<int, std::allocator<int> >::_Vector_impl", %"struct.std::_Vector_base<int, std::allocator<int> >::_Vector_impl"* %224, i32 0, i32 2
  %226 = load i32*, i32** %225, align 8
  %227 = bitcast %"class.std::vector"* %0 to %"struct.std::_Vector_base"*
  %228 = getelementptr inbounds %"struct.std::_Vector_base", %"struct.std::_Vector_base"* %227, i32 0, i32 0
  %229 = getelementptr inbounds %"struct.std::_Vector_base<int, std::allocator<int> >::_Vector_impl", %"struct.std::_Vector_base<int, std::allocator<int> >::_Vector_impl"* %228, i32 0, i32 0
  %230 = load i32*, i32** %229, align 8
  %231 = ptrtoint i32* %226 to i64
  %232 = ptrtoint i32* %230 to i64
  %233 = sub i64 %231, %232
  %234 = sdiv exact i64 %233, 4
  call void @_ZNSt12_Vector_baseIiSaIiEE13_M_deallocateEPim(%"struct.std::_Vector_base"* %218, i32* %222, i64 %234)
  %235 = bitcast %"class.std::vector"* %0 to %"struct.std::_Vector_base"*
  %236 = getelementptr inbounds %"struct.std::_Vector_base", %"struct.std::_Vector_base"* %235, i32 0, i32 0
  %237 = getelementptr inbounds %"struct.std::_Vector_base<int, std::allocator<int> >::_Vector_impl", %"struct.std::_Vector_base<int, std::allocator<int> >::_Vector_impl"* %236, i32 0, i32 0
  store i32* %158, i32** %237, align 8
  %238 = bitcast %"class.std::vector"* %0 to %"struct.std::_Vector_base"*
  %239 = getelementptr inbounds %"struct.std::_Vector_base", %"struct.std::_Vector_base"* %238, i32 0, i32 0
  %240 = getelementptr inbounds %"struct.std::_Vector_base<int, std::allocator<int> >::_Vector_impl", %"struct.std::_Vector_base<int, std::allocator<int> >::_Vector_impl"* %239, i32 0, i32 1
  store i32* %189, i32** %240, align 8
  %241 = getelementptr inbounds i32, i32* %158, i64 %156
  %242 = bitcast %"class.std::vector"* %0 to %"struct.std::_Vector_base"*
  %243 = getelementptr inbounds %"struct.std::_Vector_base", %"struct.std::_Vector_base"* %242, i32 0, i32 0
  %244 = getelementptr inbounds %"struct.std::_Vector_base<int, std::allocator<int> >::_Vector_impl", %"struct.std::_Vector_base<int, std::allocator<int> >::_Vector_impl"* %243, i32 0, i32 2
  store i32* %241, i32** %244, align 8
  br label %245

245:                                              ; preds = %207, %154
  br label %246

246:                                              ; preds = %245, %4
  ret void

247:                                              ; preds = %206
  %248 = insertvalue { i8*, i32 } undef, i8* %204, 0
  %249 = insertvalue { i8*, i32 } %248, i32 %205, 1
  resume { i8*, i32 } %249

250:                                              ; preds = %202
  %251 = landingpad { i8*, i32 }
          catch i8* null
  %252 = extractvalue { i8*, i32 } %251, 0
  call void @__clang_call_terminate(i8* %252) #13
  unreachable

253:                                              ; preds = %201
  unreachable
}

; Function Attrs: noinline nounwind uwtable
define linkonce_odr zeroext i1 @_ZN9__gnu_cxxneIPiSt6vectorIiSaIiEEEEbRKNS_17__normal_iteratorIT_T0_EESA_(%"class.__gnu_cxx::__normal_iterator"* dereferenceable(8) %0, %"class.__gnu_cxx::__normal_iterator"* dereferenceable(8) %1) #4 comdat {
  %3 = call dereferenceable(8) i32** @_ZNK9__gnu_cxx17__normal_iteratorIPiSt6vectorIiSaIiEEE4baseEv(%"class.__gnu_cxx::__normal_iterator"* %0) #3
  %4 = load i32*, i32** %3, align 8
  %5 = call dereferenceable(8) i32** @_ZNK9__gnu_cxx17__normal_iteratorIPiSt6vectorIiSaIiEEE4baseEv(%"class.__gnu_cxx::__normal_iterator"* %1) #3
  %6 = load i32*, i32** %5, align 8
  %7 = icmp ne i32* %4, %6
  ret i1 %7
}

; Function Attrs: noinline uwtable
define linkonce_odr i64 @_ZSt8distanceIN9__gnu_cxx17__normal_iteratorIPiSt6vectorIiSaIiEEEEENSt15iterator_traitsIT_E15difference_typeES8_S8_(i32* %0, i32* %1) #0 comdat {
  %3 = alloca %"class.__gnu_cxx::__normal_iterator", align 8
  %4 = alloca %"class.__gnu_cxx::__normal_iterator", align 8
  %5 = alloca %"class.__gnu_cxx::__normal_iterator", align 8
  %6 = alloca %"class.__gnu_cxx::__normal_iterator", align 8
  %7 = getelementptr inbounds %"class.__gnu_cxx::__normal_iterator", %"class.__gnu_cxx::__normal_iterator"* %3, i32 0, i32 0
  store i32* %0, i32** %7, align 8
  %8 = getelementptr inbounds %"class.__gnu_cxx::__normal_iterator", %"class.__gnu_cxx::__normal_iterator"* %4, i32 0, i32 0
  store i32* %1, i32** %8, align 8
  %9 = bitcast %"class.__gnu_cxx::__normal_iterator"* %5 to i8*
  %10 = bitcast %"class.__gnu_cxx::__normal_iterator"* %3 to i8*
  call void @llvm.memcpy.p0i8.p0i8.i64(i8* align 8 %9, i8* align 8 %10, i64 8, i1 false)
  %11 = bitcast %"class.__gnu_cxx::__normal_iterator"* %6 to i8*
  %12 = bitcast %"class.__gnu_cxx::__normal_iterator"* %4 to i8*
  call void @llvm.memcpy.p0i8.p0i8.i64(i8* align 8 %11, i8* align 8 %12, i64 8, i1 false)
  call void @_ZSt19__iterator_categoryIN9__gnu_cxx17__normal_iteratorIPiSt6vectorIiSaIiEEEEENSt15iterator_traitsIT_E17iterator_categoryERKS8_(%"class.__gnu_cxx::__normal_iterator"* dereferenceable(8) %3)
  %13 = getelementptr inbounds %"class.__gnu_cxx::__normal_iterator", %"class.__gnu_cxx::__normal_iterator"* %5, i32 0, i32 0
  %14 = load i32*, i32** %13, align 8
  %15 = getelementptr inbounds %"class.__gnu_cxx::__normal_iterator", %"class.__gnu_cxx::__normal_iterator"* %6, i32 0, i32 0
  %16 = load i32*, i32** %15, align 8
  %17 = call i64 @_ZSt10__distanceIN9__gnu_cxx17__normal_iteratorIPiSt6vectorIiSaIiEEEEENSt15iterator_traitsIT_E15difference_typeES8_S8_St26random_access_iterator_tag(i32* %14, i32* %16)
  ret i64 %17
}

; Function Attrs: noinline uwtable
define linkonce_odr i32* @_ZSt22__uninitialized_move_aIPiS0_SaIiEET0_T_S3_S2_RT1_(i32* %0, i32* %1, i32* %2, %"class.std::allocator"* dereferenceable(1) %3) #0 comdat {
  %5 = alloca %"class.std::move_iterator", align 8
  %6 = alloca %"class.std::move_iterator", align 8
  %7 = call i32* @_ZSt18make_move_iteratorIPiESt13move_iteratorIT_ES2_(i32* %0)
  %8 = getelementptr inbounds %"class.std::move_iterator", %"class.std::move_iterator"* %5, i32 0, i32 0
  store i32* %7, i32** %8, align 8
  %9 = call i32* @_ZSt18make_move_iteratorIPiESt13move_iteratorIT_ES2_(i32* %1)
  %10 = getelementptr inbounds %"class.std::move_iterator", %"class.std::move_iterator"* %6, i32 0, i32 0
  store i32* %9, i32** %10, align 8
  %11 = getelementptr inbounds %"class.std::move_iterator", %"class.std::move_iterator"* %5, i32 0, i32 0
  %12 = load i32*, i32** %11, align 8
  %13 = getelementptr inbounds %"class.std::move_iterator", %"class.std::move_iterator"* %6, i32 0, i32 0
  %14 = load i32*, i32** %13, align 8
  %15 = call i32* @_ZSt22__uninitialized_copy_aISt13move_iteratorIPiES1_iET0_T_S4_S3_RSaIT1_E(i32* %12, i32* %14, i32* %2, %"class.std::allocator"* dereferenceable(1) %3)
  ret i32* %15
}

; Function Attrs: noinline uwtable
define linkonce_odr i32* @_ZSt13move_backwardIPiS0_ET0_T_S2_S1_(i32* %0, i32* %1, i32* %2) #0 comdat {
  %4 = call i32* @_ZSt12__miter_baseIPiET_S1_(i32* %0)
  %5 = call i32* @_ZSt12__miter_baseIPiET_S1_(i32* %1)
  %6 = call i32* @_ZSt23__copy_move_backward_a2ILb1EPiS0_ET1_T0_S2_S1_(i32* %4, i32* %5, i32* %2)
  ret i32* %6
}

; Function Attrs: noinline uwtable
define linkonce_odr i32* @_ZSt4copyIN9__gnu_cxx17__normal_iteratorIPiSt6vectorIiSaIiEEEES6_ET0_T_S8_S7_(i32* %0, i32* %1, i32* %2) #0 comdat {
  %4 = alloca %"class.__gnu_cxx::__normal_iterator", align 8
  %5 = alloca %"class.__gnu_cxx::__normal_iterator", align 8
  %6 = alloca %"class.__gnu_cxx::__normal_iterator", align 8
  %7 = alloca %"class.__gnu_cxx::__normal_iterator", align 8
  %8 = alloca %"class.__gnu_cxx::__normal_iterator", align 8
  %9 = alloca %"class.__gnu_cxx::__normal_iterator", align 8
  %10 = alloca %"class.__gnu_cxx::__normal_iterator", align 8
  %11 = alloca %"class.__gnu_cxx::__normal_iterator", align 8
  %12 = alloca %"class.__gnu_cxx::__normal_iterator", align 8
  %13 = getelementptr inbounds %"class.__gnu_cxx::__normal_iterator", %"class.__gnu_cxx::__normal_iterator"* %5, i32 0, i32 0
  store i32* %0, i32** %13, align 8
  %14 = getelementptr inbounds %"class.__gnu_cxx::__normal_iterator", %"class.__gnu_cxx::__normal_iterator"* %6, i32 0, i32 0
  store i32* %1, i32** %14, align 8
  %15 = getelementptr inbounds %"class.__gnu_cxx::__normal_iterator", %"class.__gnu_cxx::__normal_iterator"* %7, i32 0, i32 0
  store i32* %2, i32** %15, align 8
  %16 = bitcast %"class.__gnu_cxx::__normal_iterator"* %9 to i8*
  %17 = bitcast %"class.__gnu_cxx::__normal_iterator"* %5 to i8*
  call void @llvm.memcpy.p0i8.p0i8.i64(i8* align 8 %16, i8* align 8 %17, i64 8, i1 false)
  %18 = getelementptr inbounds %"class.__gnu_cxx::__normal_iterator", %"class.__gnu_cxx::__normal_iterator"* %9, i32 0, i32 0
  %19 = load i32*, i32** %18, align 8
  %20 = call i32* @_ZSt12__miter_baseIN9__gnu_cxx17__normal_iteratorIPiSt6vectorIiSaIiEEEEET_S7_(i32* %19)
  %21 = getelementptr inbounds %"class.__gnu_cxx::__normal_iterator", %"class.__gnu_cxx::__normal_iterator"* %8, i32 0, i32 0
  store i32* %20, i32** %21, align 8
  %22 = bitcast %"class.__gnu_cxx::__normal_iterator"* %11 to i8*
  %23 = bitcast %"class.__gnu_cxx::__normal_iterator"* %6 to i8*
  call void @llvm.memcpy.p0i8.p0i8.i64(i8* align 8 %22, i8* align 8 %23, i64 8, i1 false)
  %24 = getelementptr inbounds %"class.__gnu_cxx::__normal_iterator", %"class.__gnu_cxx::__normal_iterator"* %11, i32 0, i32 0
  %25 = load i32*, i32** %24, align 8
  %26 = call i32* @_ZSt12__miter_baseIN9__gnu_cxx17__normal_iteratorIPiSt6vectorIiSaIiEEEEET_S7_(i32* %25)
  %27 = getelementptr inbounds %"class.__gnu_cxx::__normal_iterator", %"class.__gnu_cxx::__normal_iterator"* %10, i32 0, i32 0
  store i32* %26, i32** %27, align 8
  %28 = bitcast %"class.__gnu_cxx::__normal_iterator"* %12 to i8*
  %29 = bitcast %"class.__gnu_cxx::__normal_iterator"* %7 to i8*
  call void @llvm.memcpy.p0i8.p0i8.i64(i8* align 8 %28, i8* align 8 %29, i64 8, i1 false)
  %30 = getelementptr inbounds %"class.__gnu_cxx::__normal_iterator", %"class.__gnu_cxx::__normal_iterator"* %8, i32 0, i32 0
  %31 = load i32*, i32** %30, align 8
  %32 = getelementptr inbounds %"class.__gnu_cxx::__normal_iterator", %"class.__gnu_cxx::__normal_iterator"* %10, i32 0, i32 0
  %33 = load i32*, i32** %32, align 8
  %34 = getelementptr inbounds %"class.__gnu_cxx::__normal_iterator", %"class.__gnu_cxx::__normal_iterator"* %12, i32 0, i32 0
  %35 = load i32*, i32** %34, align 8
  %36 = call i32* @_ZSt14__copy_move_a2ILb0EN9__gnu_cxx17__normal_iteratorIPiSt6vectorIiSaIiEEEES6_ET1_T0_S8_S7_(i32* %31, i32* %33, i32* %35)
  %37 = getelementptr inbounds %"class.__gnu_cxx::__normal_iterator", %"class.__gnu_cxx::__normal_iterator"* %4, i32 0, i32 0
  store i32* %36, i32** %37, align 8
  %38 = getelementptr inbounds %"class.__gnu_cxx::__normal_iterator", %"class.__gnu_cxx::__normal_iterator"* %4, i32 0, i32 0
  %39 = load i32*, i32** %38, align 8
  ret i32* %39
}

; Function Attrs: noinline uwtable
define linkonce_odr void @_ZSt7advanceIN9__gnu_cxx17__normal_iteratorIPiSt6vectorIiSaIiEEEEmEvRT_T0_(%"class.__gnu_cxx::__normal_iterator"* dereferenceable(8) %0, i64 %1) #0 comdat {
  call void @_ZSt19__iterator_categoryIN9__gnu_cxx17__normal_iteratorIPiSt6vectorIiSaIiEEEEENSt15iterator_traitsIT_E17iterator_categoryERKS8_(%"class.__gnu_cxx::__normal_iterator"* dereferenceable(8) %0)
  call void @_ZSt9__advanceIN9__gnu_cxx17__normal_iteratorIPiSt6vectorIiSaIiEEEElEvRT_T0_St26random_access_iterator_tag(%"class.__gnu_cxx::__normal_iterator"* dereferenceable(8) %0, i64 %1)
  ret void
}

; Function Attrs: noinline uwtable
define linkonce_odr i32* @_ZSt22__uninitialized_copy_aIN9__gnu_cxx17__normal_iteratorIPiSt6vectorIiSaIiEEEES2_iET0_T_S8_S7_RSaIT1_E(i32* %0, i32* %1, i32* %2, %"class.std::allocator"* dereferenceable(1) %3) #0 comdat {
  %5 = alloca %"class.__gnu_cxx::__normal_iterator", align 8
  %6 = alloca %"class.__gnu_cxx::__normal_iterator", align 8
  %7 = alloca %"class.__gnu_cxx::__normal_iterator", align 8
  %8 = alloca %"class.__gnu_cxx::__normal_iterator", align 8
  %9 = getelementptr inbounds %"class.__gnu_cxx::__normal_iterator", %"class.__gnu_cxx::__normal_iterator"* %5, i32 0, i32 0
  store i32* %0, i32** %9, align 8
  %10 = getelementptr inbounds %"class.__gnu_cxx::__normal_iterator", %"class.__gnu_cxx::__normal_iterator"* %6, i32 0, i32 0
  store i32* %1, i32** %10, align 8
  %11 = bitcast %"class.__gnu_cxx::__normal_iterator"* %7 to i8*
  %12 = bitcast %"class.__gnu_cxx::__normal_iterator"* %5 to i8*
  call void @llvm.memcpy.p0i8.p0i8.i64(i8* align 8 %11, i8* align 8 %12, i64 8, i1 false)
  %13 = bitcast %"class.__gnu_cxx::__normal_iterator"* %8 to i8*
  %14 = bitcast %"class.__gnu_cxx::__normal_iterator"* %6 to i8*
  call void @llvm.memcpy.p0i8.p0i8.i64(i8* align 8 %13, i8* align 8 %14, i64 8, i1 false)
  %15 = getelementptr inbounds %"class.__gnu_cxx::__normal_iterator", %"class.__gnu_cxx::__normal_iterator"* %7, i32 0, i32 0
  %16 = load i32*, i32** %15, align 8
  %17 = getelementptr inbounds %"class.__gnu_cxx::__normal_iterator", %"class.__gnu_cxx::__normal_iterator"* %8, i32 0, i32 0
  %18 = load i32*, i32** %17, align 8
  %19 = call i32* @_ZSt18uninitialized_copyIN9__gnu_cxx17__normal_iteratorIPiSt6vectorIiSaIiEEEES2_ET0_T_S8_S7_(i32* %16, i32* %18, i32* %2)
  ret i32* %19
}

; Function Attrs: noinline nounwind uwtable
define linkonce_odr i64 @_ZSt10__distanceIN9__gnu_cxx17__normal_iteratorIPiSt6vectorIiSaIiEEEEENSt15iterator_traitsIT_E15difference_typeES8_S8_St26random_access_iterator_tag(i32* %0, i32* %1) #4 comdat {
  %3 = alloca %"class.__gnu_cxx::__normal_iterator", align 8
  %4 = alloca %"class.__gnu_cxx::__normal_iterator", align 8
  %5 = getelementptr inbounds %"class.__gnu_cxx::__normal_iterator", %"class.__gnu_cxx::__normal_iterator"* %3, i32 0, i32 0
  store i32* %0, i32** %5, align 8
  %6 = getelementptr inbounds %"class.__gnu_cxx::__normal_iterator", %"class.__gnu_cxx::__normal_iterator"* %4, i32 0, i32 0
  store i32* %1, i32** %6, align 8
  %7 = call i64 @_ZN9__gnu_cxxmiIPiSt6vectorIiSaIiEEEENS_17__normal_iteratorIT_T0_E15difference_typeERKS8_SB_(%"class.__gnu_cxx::__normal_iterator"* dereferenceable(8) %4, %"class.__gnu_cxx::__normal_iterator"* dereferenceable(8) %3) #3
  ret i64 %7
}

; Function Attrs: noinline uwtable
define linkonce_odr i32* @_ZSt18make_move_iteratorIPiESt13move_iteratorIT_ES2_(i32* %0) #0 comdat {
  %2 = alloca %"class.std::move_iterator", align 8
  call void @_ZNSt13move_iteratorIPiEC2ES0_(%"class.std::move_iterator"* %2, i32* %0)
  %3 = getelementptr inbounds %"class.std::move_iterator", %"class.std::move_iterator"* %2, i32 0, i32 0
  %4 = load i32*, i32** %3, align 8
  ret i32* %4
}

; Function Attrs: noinline uwtable
define linkonce_odr i32* @_ZSt23__copy_move_backward_a2ILb1EPiS0_ET1_T0_S2_S1_(i32* %0, i32* %1, i32* %2) #0 comdat {
  %4 = call i32* @_ZSt12__niter_baseIPiET_S1_(i32* %0)
  %5 = call i32* @_ZSt12__niter_baseIPiET_S1_(i32* %1)
  %6 = call i32* @_ZSt12__niter_baseIPiET_S1_(i32* %2)
  %7 = call i32* @_ZSt22__copy_move_backward_aILb1EPiS0_ET1_T0_S2_S1_(i32* %4, i32* %5, i32* %6)
  ret i32* %7
}

; Function Attrs: noinline uwtable
define linkonce_odr i32* @_ZSt22__copy_move_backward_aILb1EPiS0_ET1_T0_S2_S1_(i32* %0, i32* %1, i32* %2) #0 comdat {
  %4 = call i32* @_ZNSt20__copy_move_backwardILb1ELb1ESt26random_access_iterator_tagE13__copy_move_bIiEEPT_PKS3_S6_S4_(i32* %0, i32* %1, i32* %2)
  ret i32* %4
}

; Function Attrs: noinline nounwind uwtable
define linkonce_odr i32* @_ZNSt20__copy_move_backwardILb1ELb1ESt26random_access_iterator_tagE13__copy_move_bIiEEPT_PKS3_S6_S4_(i32* %0, i32* %1, i32* %2) #4 comdat align 2 {
  %4 = ptrtoint i32* %1 to i64
  %5 = ptrtoint i32* %0 to i64
  %6 = sub i64 %4, %5
  %7 = sdiv exact i64 %6, 4
  %8 = icmp ne i64 %7, 0
  br i1 %8, label %9, label %15

9:                                                ; preds = %3
  %10 = sub i64 0, %7
  %11 = getelementptr inbounds i32, i32* %2, i64 %10
  %12 = bitcast i32* %11 to i8*
  %13 = bitcast i32* %0 to i8*
  %14 = mul i64 4, %7
  call void @llvm.memmove.p0i8.p0i8.i64(i8* align 4 %12, i8* align 4 %13, i64 %14, i1 false)
  br label %15

15:                                               ; preds = %9, %3
  %16 = sub i64 0, %7
  %17 = getelementptr inbounds i32, i32* %2, i64 %16
  ret i32* %17
}

; Function Attrs: noinline uwtable
define linkonce_odr i32* @_ZSt14__copy_move_a2ILb0EN9__gnu_cxx17__normal_iteratorIPiSt6vectorIiSaIiEEEES6_ET1_T0_S8_S7_(i32* %0, i32* %1, i32* %2) #0 comdat {
  %4 = alloca %"class.__gnu_cxx::__normal_iterator", align 8
  %5 = alloca %"class.__gnu_cxx::__normal_iterator", align 8
  %6 = alloca %"class.__gnu_cxx::__normal_iterator", align 8
  %7 = alloca %"class.__gnu_cxx::__normal_iterator", align 8
  %8 = alloca i32*, align 8
  %9 = alloca %"class.__gnu_cxx::__normal_iterator", align 8
  %10 = alloca %"class.__gnu_cxx::__normal_iterator", align 8
  %11 = alloca %"class.__gnu_cxx::__normal_iterator", align 8
  %12 = getelementptr inbounds %"class.__gnu_cxx::__normal_iterator", %"class.__gnu_cxx::__normal_iterator"* %5, i32 0, i32 0
  store i32* %0, i32** %12, align 8
  %13 = getelementptr inbounds %"class.__gnu_cxx::__normal_iterator", %"class.__gnu_cxx::__normal_iterator"* %6, i32 0, i32 0
  store i32* %1, i32** %13, align 8
  %14 = getelementptr inbounds %"class.__gnu_cxx::__normal_iterator", %"class.__gnu_cxx::__normal_iterator"* %7, i32 0, i32 0
  store i32* %2, i32** %14, align 8
  %15 = bitcast %"class.__gnu_cxx::__normal_iterator"* %9 to i8*
  %16 = bitcast %"class.__gnu_cxx::__normal_iterator"* %5 to i8*
  call void @llvm.memcpy.p0i8.p0i8.i64(i8* align 8 %15, i8* align 8 %16, i64 8, i1 false)
  %17 = getelementptr inbounds %"class.__gnu_cxx::__normal_iterator", %"class.__gnu_cxx::__normal_iterator"* %9, i32 0, i32 0
  %18 = load i32*, i32** %17, align 8
  %19 = call i32* @_ZSt12__niter_baseIPiSt6vectorIiSaIiEEET_N9__gnu_cxx17__normal_iteratorIS4_T0_EE(i32* %18)
  %20 = bitcast %"class.__gnu_cxx::__normal_iterator"* %10 to i8*
  %21 = bitcast %"class.__gnu_cxx::__normal_iterator"* %6 to i8*
  call void @llvm.memcpy.p0i8.p0i8.i64(i8* align 8 %20, i8* align 8 %21, i64 8, i1 false)
  %22 = getelementptr inbounds %"class.__gnu_cxx::__normal_iterator", %"class.__gnu_cxx::__normal_iterator"* %10, i32 0, i32 0
  %23 = load i32*, i32** %22, align 8
  %24 = call i32* @_ZSt12__niter_baseIPiSt6vectorIiSaIiEEET_N9__gnu_cxx17__normal_iteratorIS4_T0_EE(i32* %23)
  %25 = bitcast %"class.__gnu_cxx::__normal_iterator"* %11 to i8*
  %26 = bitcast %"class.__gnu_cxx::__normal_iterator"* %7 to i8*
  call void @llvm.memcpy.p0i8.p0i8.i64(i8* align 8 %25, i8* align 8 %26, i64 8, i1 false)
  %27 = getelementptr inbounds %"class.__gnu_cxx::__normal_iterator", %"class.__gnu_cxx::__normal_iterator"* %11, i32 0, i32 0
  %28 = load i32*, i32** %27, align 8
  %29 = call i32* @_ZSt12__niter_baseIPiSt6vectorIiSaIiEEET_N9__gnu_cxx17__normal_iteratorIS4_T0_EE(i32* %28)
  %30 = call i32* @_ZSt13__copy_move_aILb0EPiS0_ET1_T0_S2_S1_(i32* %19, i32* %24, i32* %29)
  store i32* %30, i32** %8, align 8
  call void @_ZN9__gnu_cxx17__normal_iteratorIPiSt6vectorIiSaIiEEEC2ERKS1_(%"class.__gnu_cxx::__normal_iterator"* %4, i32** dereferenceable(8) %8) #3
  %31 = getelementptr inbounds %"class.__gnu_cxx::__normal_iterator", %"class.__gnu_cxx::__normal_iterator"* %4, i32 0, i32 0
  %32 = load i32*, i32** %31, align 8
  ret i32* %32
}

; Function Attrs: noinline nounwind uwtable
define linkonce_odr i32* @_ZSt12__miter_baseIN9__gnu_cxx17__normal_iteratorIPiSt6vectorIiSaIiEEEEET_S7_(i32* %0) #4 comdat {
  %2 = alloca %"class.__gnu_cxx::__normal_iterator", align 8
  %3 = alloca %"class.__gnu_cxx::__normal_iterator", align 8
  %4 = getelementptr inbounds %"class.__gnu_cxx::__normal_iterator", %"class.__gnu_cxx::__normal_iterator"* %3, i32 0, i32 0
  store i32* %0, i32** %4, align 8
  %5 = bitcast %"class.__gnu_cxx::__normal_iterator"* %2 to i8*
  %6 = bitcast %"class.__gnu_cxx::__normal_iterator"* %3 to i8*
  call void @llvm.memcpy.p0i8.p0i8.i64(i8* align 8 %5, i8* align 8 %6, i64 8, i1 false)
  %7 = getelementptr inbounds %"class.__gnu_cxx::__normal_iterator", %"class.__gnu_cxx::__normal_iterator"* %2, i32 0, i32 0
  %8 = load i32*, i32** %7, align 8
  ret i32* %8
}

; Function Attrs: noinline uwtable
define linkonce_odr i32* @_ZSt13__copy_move_aILb0EPiS0_ET1_T0_S2_S1_(i32* %0, i32* %1, i32* %2) #0 comdat {
  %4 = call i32* @_ZNSt11__copy_moveILb0ELb1ESt26random_access_iterator_tagE8__copy_mIiEEPT_PKS3_S6_S4_(i32* %0, i32* %1, i32* %2)
  ret i32* %4
}

; Function Attrs: noinline nounwind uwtable
define linkonce_odr i32* @_ZSt12__niter_baseIPiSt6vectorIiSaIiEEET_N9__gnu_cxx17__normal_iteratorIS4_T0_EE(i32* %0) #4 comdat {
  %2 = alloca %"class.__gnu_cxx::__normal_iterator", align 8
  %3 = getelementptr inbounds %"class.__gnu_cxx::__normal_iterator", %"class.__gnu_cxx::__normal_iterator"* %2, i32 0, i32 0
  store i32* %0, i32** %3, align 8
  %4 = call dereferenceable(8) i32** @_ZNK9__gnu_cxx17__normal_iteratorIPiSt6vectorIiSaIiEEE4baseEv(%"class.__gnu_cxx::__normal_iterator"* %2) #3
  %5 = load i32*, i32** %4, align 8
  ret i32* %5
}

; Function Attrs: noinline nounwind uwtable
define linkonce_odr i32* @_ZNSt11__copy_moveILb0ELb1ESt26random_access_iterator_tagE8__copy_mIiEEPT_PKS3_S6_S4_(i32* %0, i32* %1, i32* %2) #4 comdat align 2 {
  %4 = ptrtoint i32* %1 to i64
  %5 = ptrtoint i32* %0 to i64
  %6 = sub i64 %4, %5
  %7 = sdiv exact i64 %6, 4
  %8 = icmp ne i64 %7, 0
  br i1 %8, label %9, label %13

9:                                                ; preds = %3
  %10 = bitcast i32* %2 to i8*
  %11 = bitcast i32* %0 to i8*
  %12 = mul i64 4, %7
  call void @llvm.memmove.p0i8.p0i8.i64(i8* align 4 %10, i8* align 4 %11, i64 %12, i1 false)
  br label %13

13:                                               ; preds = %9, %3
  %14 = getelementptr inbounds i32, i32* %2, i64 %7
  ret i32* %14
}

; Function Attrs: noinline nounwind uwtable
define linkonce_odr void @_ZSt9__advanceIN9__gnu_cxx17__normal_iteratorIPiSt6vectorIiSaIiEEEElEvRT_T0_St26random_access_iterator_tag(%"class.__gnu_cxx::__normal_iterator"* dereferenceable(8) %0, i64 %1) #4 comdat {
  %3 = call dereferenceable(8) %"class.__gnu_cxx::__normal_iterator"* @_ZN9__gnu_cxx17__normal_iteratorIPiSt6vectorIiSaIiEEEpLEl(%"class.__gnu_cxx::__normal_iterator"* %0, i64 %1) #3
  ret void
}

; Function Attrs: noinline nounwind uwtable
define linkonce_odr dereferenceable(8) %"class.__gnu_cxx::__normal_iterator"* @_ZN9__gnu_cxx17__normal_iteratorIPiSt6vectorIiSaIiEEEpLEl(%"class.__gnu_cxx::__normal_iterator"* %0, i64 %1) #4 comdat align 2 {
  %3 = getelementptr inbounds %"class.__gnu_cxx::__normal_iterator", %"class.__gnu_cxx::__normal_iterator"* %0, i32 0, i32 0
  %4 = load i32*, i32** %3, align 8
  %5 = getelementptr inbounds i32, i32* %4, i64 %1
  store i32* %5, i32** %3, align 8
  ret %"class.__gnu_cxx::__normal_iterator"* %0
}

; Function Attrs: noinline uwtable
define linkonce_odr i32* @_ZSt18uninitialized_copyIN9__gnu_cxx17__normal_iteratorIPiSt6vectorIiSaIiEEEES2_ET0_T_S8_S7_(i32* %0, i32* %1, i32* %2) #0 comdat {
  %4 = alloca %"class.__gnu_cxx::__normal_iterator", align 8
  %5 = alloca %"class.__gnu_cxx::__normal_iterator", align 8
  %6 = alloca %"class.__gnu_cxx::__normal_iterator", align 8
  %7 = alloca %"class.__gnu_cxx::__normal_iterator", align 8
  %8 = getelementptr inbounds %"class.__gnu_cxx::__normal_iterator", %"class.__gnu_cxx::__normal_iterator"* %4, i32 0, i32 0
  store i32* %0, i32** %8, align 8
  %9 = getelementptr inbounds %"class.__gnu_cxx::__normal_iterator", %"class.__gnu_cxx::__normal_iterator"* %5, i32 0, i32 0
  store i32* %1, i32** %9, align 8
  %10 = bitcast %"class.__gnu_cxx::__normal_iterator"* %6 to i8*
  %11 = bitcast %"class.__gnu_cxx::__normal_iterator"* %4 to i8*
  call void @llvm.memcpy.p0i8.p0i8.i64(i8* align 8 %10, i8* align 8 %11, i64 8, i1 false)
  %12 = bitcast %"class.__gnu_cxx::__normal_iterator"* %7 to i8*
  %13 = bitcast %"class.__gnu_cxx::__normal_iterator"* %5 to i8*
  call void @llvm.memcpy.p0i8.p0i8.i64(i8* align 8 %12, i8* align 8 %13, i64 8, i1 false)
  %14 = getelementptr inbounds %"class.__gnu_cxx::__normal_iterator", %"class.__gnu_cxx::__normal_iterator"* %6, i32 0, i32 0
  %15 = load i32*, i32** %14, align 8
  %16 = getelementptr inbounds %"class.__gnu_cxx::__normal_iterator", %"class.__gnu_cxx::__normal_iterator"* %7, i32 0, i32 0
  %17 = load i32*, i32** %16, align 8
  %18 = call i32* @_ZNSt20__uninitialized_copyILb1EE13__uninit_copyIN9__gnu_cxx17__normal_iteratorIPiSt6vectorIiSaIiEEEES4_EET0_T_SA_S9_(i32* %15, i32* %17, i32* %2)
  ret i32* %18
}

; Function Attrs: noinline uwtable
define linkonce_odr i32* @_ZNSt20__uninitialized_copyILb1EE13__uninit_copyIN9__gnu_cxx17__normal_iteratorIPiSt6vectorIiSaIiEEEES4_EET0_T_SA_S9_(i32* %0, i32* %1, i32* %2) #0 comdat align 2 {
  %4 = alloca %"class.__gnu_cxx::__normal_iterator", align 8
  %5 = alloca %"class.__gnu_cxx::__normal_iterator", align 8
  %6 = alloca %"class.__gnu_cxx::__normal_iterator", align 8
  %7 = alloca %"class.__gnu_cxx::__normal_iterator", align 8
  %8 = getelementptr inbounds %"class.__gnu_cxx::__normal_iterator", %"class.__gnu_cxx::__normal_iterator"* %4, i32 0, i32 0
  store i32* %0, i32** %8, align 8
  %9 = getelementptr inbounds %"class.__gnu_cxx::__normal_iterator", %"class.__gnu_cxx::__normal_iterator"* %5, i32 0, i32 0
  store i32* %1, i32** %9, align 8
  %10 = bitcast %"class.__gnu_cxx::__normal_iterator"* %6 to i8*
  %11 = bitcast %"class.__gnu_cxx::__normal_iterator"* %4 to i8*
  call void @llvm.memcpy.p0i8.p0i8.i64(i8* align 8 %10, i8* align 8 %11, i64 8, i1 false)
  %12 = bitcast %"class.__gnu_cxx::__normal_iterator"* %7 to i8*
  %13 = bitcast %"class.__gnu_cxx::__normal_iterator"* %5 to i8*
  call void @llvm.memcpy.p0i8.p0i8.i64(i8* align 8 %12, i8* align 8 %13, i64 8, i1 false)
  %14 = getelementptr inbounds %"class.__gnu_cxx::__normal_iterator", %"class.__gnu_cxx::__normal_iterator"* %6, i32 0, i32 0
  %15 = load i32*, i32** %14, align 8
  %16 = getelementptr inbounds %"class.__gnu_cxx::__normal_iterator", %"class.__gnu_cxx::__normal_iterator"* %7, i32 0, i32 0
  %17 = load i32*, i32** %16, align 8
  %18 = call i32* @_ZSt4copyIN9__gnu_cxx17__normal_iteratorIPiSt6vectorIiSaIiEEEES2_ET0_T_S8_S7_(i32* %15, i32* %17, i32* %2)
  ret i32* %18
}

; Function Attrs: noinline uwtable
define linkonce_odr i32* @_ZSt4copyIN9__gnu_cxx17__normal_iteratorIPiSt6vectorIiSaIiEEEES2_ET0_T_S8_S7_(i32* %0, i32* %1, i32* %2) #0 comdat {
  %4 = alloca %"class.__gnu_cxx::__normal_iterator", align 8
  %5 = alloca %"class.__gnu_cxx::__normal_iterator", align 8
  %6 = alloca %"class.__gnu_cxx::__normal_iterator", align 8
  %7 = alloca %"class.__gnu_cxx::__normal_iterator", align 8
  %8 = alloca %"class.__gnu_cxx::__normal_iterator", align 8
  %9 = alloca %"class.__gnu_cxx::__normal_iterator", align 8
  %10 = getelementptr inbounds %"class.__gnu_cxx::__normal_iterator", %"class.__gnu_cxx::__normal_iterator"* %4, i32 0, i32 0
  store i32* %0, i32** %10, align 8
  %11 = getelementptr inbounds %"class.__gnu_cxx::__normal_iterator", %"class.__gnu_cxx::__normal_iterator"* %5, i32 0, i32 0
  store i32* %1, i32** %11, align 8
  %12 = bitcast %"class.__gnu_cxx::__normal_iterator"* %7 to i8*
  %13 = bitcast %"class.__gnu_cxx::__normal_iterator"* %4 to i8*
  call void @llvm.memcpy.p0i8.p0i8.i64(i8* align 8 %12, i8* align 8 %13, i64 8, i1 false)
  %14 = getelementptr inbounds %"class.__gnu_cxx::__normal_iterator", %"class.__gnu_cxx::__normal_iterator"* %7, i32 0, i32 0
  %15 = load i32*, i32** %14, align 8
  %16 = call i32* @_ZSt12__miter_baseIN9__gnu_cxx17__normal_iteratorIPiSt6vectorIiSaIiEEEEET_S7_(i32* %15)
  %17 = getelementptr inbounds %"class.__gnu_cxx::__normal_iterator", %"class.__gnu_cxx::__normal_iterator"* %6, i32 0, i32 0
  store i32* %16, i32** %17, align 8
  %18 = bitcast %"class.__gnu_cxx::__normal_iterator"* %9 to i8*
  %19 = bitcast %"class.__gnu_cxx::__normal_iterator"* %5 to i8*
  call void @llvm.memcpy.p0i8.p0i8.i64(i8* align 8 %18, i8* align 8 %19, i64 8, i1 false)
  %20 = getelementptr inbounds %"class.__gnu_cxx::__normal_iterator", %"class.__gnu_cxx::__normal_iterator"* %9, i32 0, i32 0
  %21 = load i32*, i32** %20, align 8
  %22 = call i32* @_ZSt12__miter_baseIN9__gnu_cxx17__normal_iteratorIPiSt6vectorIiSaIiEEEEET_S7_(i32* %21)
  %23 = getelementptr inbounds %"class.__gnu_cxx::__normal_iterator", %"class.__gnu_cxx::__normal_iterator"* %8, i32 0, i32 0
  store i32* %22, i32** %23, align 8
  %24 = getelementptr inbounds %"class.__gnu_cxx::__normal_iterator", %"class.__gnu_cxx::__normal_iterator"* %6, i32 0, i32 0
  %25 = load i32*, i32** %24, align 8
  %26 = getelementptr inbounds %"class.__gnu_cxx::__normal_iterator", %"class.__gnu_cxx::__normal_iterator"* %8, i32 0, i32 0
  %27 = load i32*, i32** %26, align 8
  %28 = call i32* @_ZSt14__copy_move_a2ILb0EN9__gnu_cxx17__normal_iteratorIPiSt6vectorIiSaIiEEEES2_ET1_T0_S8_S7_(i32* %25, i32* %27, i32* %2)
  ret i32* %28
}

; Function Attrs: noinline uwtable
define linkonce_odr i32* @_ZSt14__copy_move_a2ILb0EN9__gnu_cxx17__normal_iteratorIPiSt6vectorIiSaIiEEEES2_ET1_T0_S8_S7_(i32* %0, i32* %1, i32* %2) #0 comdat {
  %4 = alloca %"class.__gnu_cxx::__normal_iterator", align 8
  %5 = alloca %"class.__gnu_cxx::__normal_iterator", align 8
  %6 = alloca %"class.__gnu_cxx::__normal_iterator", align 8
  %7 = alloca %"class.__gnu_cxx::__normal_iterator", align 8
  %8 = getelementptr inbounds %"class.__gnu_cxx::__normal_iterator", %"class.__gnu_cxx::__normal_iterator"* %4, i32 0, i32 0
  store i32* %0, i32** %8, align 8
  %9 = getelementptr inbounds %"class.__gnu_cxx::__normal_iterator", %"class.__gnu_cxx::__normal_iterator"* %5, i32 0, i32 0
  store i32* %1, i32** %9, align 8
  %10 = bitcast %"class.__gnu_cxx::__normal_iterator"* %6 to i8*
  %11 = bitcast %"class.__gnu_cxx::__normal_iterator"* %4 to i8*
  call void @llvm.memcpy.p0i8.p0i8.i64(i8* align 8 %10, i8* align 8 %11, i64 8, i1 false)
  %12 = getelementptr inbounds %"class.__gnu_cxx::__normal_iterator", %"class.__gnu_cxx::__normal_iterator"* %6, i32 0, i32 0
  %13 = load i32*, i32** %12, align 8
  %14 = call i32* @_ZSt12__niter_baseIPiSt6vectorIiSaIiEEET_N9__gnu_cxx17__normal_iteratorIS4_T0_EE(i32* %13)
  %15 = bitcast %"class.__gnu_cxx::__normal_iterator"* %7 to i8*
  %16 = bitcast %"class.__gnu_cxx::__normal_iterator"* %5 to i8*
  call void @llvm.memcpy.p0i8.p0i8.i64(i8* align 8 %15, i8* align 8 %16, i64 8, i1 false)
  %17 = getelementptr inbounds %"class.__gnu_cxx::__normal_iterator", %"class.__gnu_cxx::__normal_iterator"* %7, i32 0, i32 0
  %18 = load i32*, i32** %17, align 8
  %19 = call i32* @_ZSt12__niter_baseIPiSt6vectorIiSaIiEEET_N9__gnu_cxx17__normal_iteratorIS4_T0_EE(i32* %18)
  %20 = call i32* @_ZSt12__niter_baseIPiET_S1_(i32* %2)
  %21 = call i32* @_ZSt13__copy_move_aILb0EPiS0_ET1_T0_S2_S1_(i32* %14, i32* %19, i32* %20)
  ret i32* %21
}

; Function Attrs: noinline nounwind uwtable
define linkonce_odr void @_ZN9__gnu_cxx13new_allocatorIbEC2Ev(%"class.__gnu_cxx::new_allocator.6"* %0) unnamed_addr #4 comdat align 2 {
  ret void
}

; Function Attrs: noinline nounwind uwtable
define linkonce_odr void @_ZN9__gnu_cxx13new_allocatorIbED2Ev(%"class.__gnu_cxx::new_allocator.6"* %0) unnamed_addr #4 comdat align 2 {
  ret void
}

; Function Attrs: noinline nounwind uwtable
define linkonce_odr void @_ZNSt13_Bvector_baseISaIbEEC2ERKS0_(%"struct.std::_Bvector_base"* %0, %"class.std::allocator.5"* dereferenceable(1) %1) unnamed_addr #4 comdat align 2 {
  %3 = alloca %"class.std::allocator.2", align 1
  %4 = getelementptr inbounds %"struct.std::_Bvector_base", %"struct.std::_Bvector_base"* %0, i32 0, i32 0
  call void @_ZNSaImEC2IbEERKSaIT_E(%"class.std::allocator.2"* %3, %"class.std::allocator.5"* dereferenceable(1) %1) #3
  call void @_ZNSt13_Bvector_baseISaIbEE13_Bvector_implC2ERKSaImE(%"struct.std::_Bvector_base<std::allocator<bool> >::_Bvector_impl"* %4, %"class.std::allocator.2"* dereferenceable(1) %3) #3
  call void @_ZNSaImED2Ev(%"class.std::allocator.2"* %3) #3
  ret void
}

; Function Attrs: noinline uwtable
define linkonce_odr void @_ZNSt6vectorIbSaIbEE13_M_initializeEm(%"class.std::vector.1"* %0, i64 %1) #0 comdat align 2 {
  %3 = alloca %"struct.std::_Bit_iterator", align 8
  %4 = alloca %"struct.std::_Bit_iterator", align 8
  %5 = alloca %"struct.std::_Bit_iterator", align 8
  %6 = icmp ne i64 %1, 0
  br i1 %6, label %7, label %23

7:                                                ; preds = %2
  %8 = bitcast %"class.std::vector.1"* %0 to %"struct.std::_Bvector_base"*
  %9 = call i64* @_ZNSt13_Bvector_baseISaIbEE11_M_allocateEm(%"struct.std::_Bvector_base"* %8, i64 %1)
  %10 = call i64 @_ZNSt13_Bvector_baseISaIbEE8_S_nwordEm(i64 %1)
  %11 = getelementptr inbounds i64, i64* %9, i64 %10
  %12 = bitcast %"class.std::vector.1"* %0 to %"struct.std::_Bvector_base"*
  %13 = getelementptr inbounds %"struct.std::_Bvector_base", %"struct.std::_Bvector_base"* %12, i32 0, i32 0
  %14 = bitcast %"struct.std::_Bvector_base<std::allocator<bool> >::_Bvector_impl"* %13 to %"struct.std::_Bvector_base<std::allocator<bool> >::_Bvector_impl_data"*
  %15 = getelementptr inbounds %"struct.std::_Bvector_base<std::allocator<bool> >::_Bvector_impl_data", %"struct.std::_Bvector_base<std::allocator<bool> >::_Bvector_impl_data"* %14, i32 0, i32 2
  store i64* %11, i64** %15, align 8
  %16 = call i64* @_ZSt11__addressofImEPT_RS0_(i64* dereferenceable(8) %9) #3
  call void @_ZNSt13_Bit_iteratorC2EPmj(%"struct.std::_Bit_iterator"* %3, i64* %16, i32 0)
  %17 = bitcast %"class.std::vector.1"* %0 to %"struct.std::_Bvector_base"*
  %18 = getelementptr inbounds %"struct.std::_Bvector_base", %"struct.std::_Bvector_base"* %17, i32 0, i32 0
  %19 = bitcast %"struct.std::_Bvector_base<std::allocator<bool> >::_Bvector_impl"* %18 to %"struct.std::_Bvector_base<std::allocator<bool> >::_Bvector_impl_data"*
  %20 = getelementptr inbounds %"struct.std::_Bvector_base<std::allocator<bool> >::_Bvector_impl_data", %"struct.std::_Bvector_base<std::allocator<bool> >::_Bvector_impl_data"* %19, i32 0, i32 0
  %21 = bitcast %"struct.std::_Bit_iterator"* %20 to i8*
  %22 = bitcast %"struct.std::_Bit_iterator"* %3 to i8*
  call void @llvm.memcpy.p0i8.p0i8.i64(i8* align 8 %21, i8* align 8 %22, i64 12, i1 false)
  br label %34

23:                                               ; preds = %2
  %24 = bitcast %"class.std::vector.1"* %0 to %"struct.std::_Bvector_base"*
  %25 = getelementptr inbounds %"struct.std::_Bvector_base", %"struct.std::_Bvector_base"* %24, i32 0, i32 0
  %26 = bitcast %"struct.std::_Bvector_base<std::allocator<bool> >::_Bvector_impl"* %25 to %"struct.std::_Bvector_base<std::allocator<bool> >::_Bvector_impl_data"*
  %27 = getelementptr inbounds %"struct.std::_Bvector_base<std::allocator<bool> >::_Bvector_impl_data", %"struct.std::_Bvector_base<std::allocator<bool> >::_Bvector_impl_data"* %26, i32 0, i32 2
  store i64* null, i64** %27, align 8
  call void @_ZNSt13_Bit_iteratorC2EPmj(%"struct.std::_Bit_iterator"* %4, i64* null, i32 0)
  %28 = bitcast %"class.std::vector.1"* %0 to %"struct.std::_Bvector_base"*
  %29 = getelementptr inbounds %"struct.std::_Bvector_base", %"struct.std::_Bvector_base"* %28, i32 0, i32 0
  %30 = bitcast %"struct.std::_Bvector_base<std::allocator<bool> >::_Bvector_impl"* %29 to %"struct.std::_Bvector_base<std::allocator<bool> >::_Bvector_impl_data"*
  %31 = getelementptr inbounds %"struct.std::_Bvector_base<std::allocator<bool> >::_Bvector_impl_data", %"struct.std::_Bvector_base<std::allocator<bool> >::_Bvector_impl_data"* %30, i32 0, i32 0
  %32 = bitcast %"struct.std::_Bit_iterator"* %31 to i8*
  %33 = bitcast %"struct.std::_Bit_iterator"* %4 to i8*
  call void @llvm.memcpy.p0i8.p0i8.i64(i8* align 8 %32, i8* align 8 %33, i64 12, i1 false)
  br label %34

34:                                               ; preds = %23, %7
  %35 = bitcast %"class.std::vector.1"* %0 to %"struct.std::_Bvector_base"*
  %36 = getelementptr inbounds %"struct.std::_Bvector_base", %"struct.std::_Bvector_base"* %35, i32 0, i32 0
  %37 = bitcast %"struct.std::_Bvector_base<std::allocator<bool> >::_Bvector_impl"* %36 to %"struct.std::_Bvector_base<std::allocator<bool> >::_Bvector_impl_data"*
  %38 = getelementptr inbounds %"struct.std::_Bvector_base<std::allocator<bool> >::_Bvector_impl_data", %"struct.std::_Bvector_base<std::allocator<bool> >::_Bvector_impl_data"* %37, i32 0, i32 0
  %39 = call { i64*, i32 } @_ZNKSt13_Bit_iteratorplEl(%"struct.std::_Bit_iterator"* %38, i64 %1)
  %40 = bitcast %"struct.std::_Bit_iterator"* %5 to { i64*, i32 }*
  %41 = getelementptr inbounds { i64*, i32 }, { i64*, i32 }* %40, i32 0, i32 0
  %42 = extractvalue { i64*, i32 } %39, 0
  store i64* %42, i64** %41, align 8
  %43 = getelementptr inbounds { i64*, i32 }, { i64*, i32 }* %40, i32 0, i32 1
  %44 = extractvalue { i64*, i32 } %39, 1
  store i32 %44, i32* %43, align 8
  %45 = bitcast %"class.std::vector.1"* %0 to %"struct.std::_Bvector_base"*
  %46 = getelementptr inbounds %"struct.std::_Bvector_base", %"struct.std::_Bvector_base"* %45, i32 0, i32 0
  %47 = bitcast %"struct.std::_Bvector_base<std::allocator<bool> >::_Bvector_impl"* %46 to %"struct.std::_Bvector_base<std::allocator<bool> >::_Bvector_impl_data"*
  %48 = getelementptr inbounds %"struct.std::_Bvector_base<std::allocator<bool> >::_Bvector_impl_data", %"struct.std::_Bvector_base<std::allocator<bool> >::_Bvector_impl_data"* %47, i32 0, i32 1
  %49 = bitcast %"struct.std::_Bit_iterator"* %48 to i8*
  %50 = bitcast %"struct.std::_Bit_iterator"* %5 to i8*
  call void @llvm.memcpy.p0i8.p0i8.i64(i8* align 8 %49, i8* align 8 %50, i64 12, i1 false)
  ret void
}

; Function Attrs: noinline nounwind uwtable
define linkonce_odr void @_ZNSt6vectorIbSaIbEE19_M_initialize_valueEb(%"class.std::vector.1"* %0, i1 zeroext %1) #4 comdat align 2 {
  %3 = zext i1 %1 to i8
  %4 = bitcast %"class.std::vector.1"* %0 to %"struct.std::_Bvector_base"*
  %5 = getelementptr inbounds %"struct.std::_Bvector_base", %"struct.std::_Bvector_base"* %4, i32 0, i32 0
  %6 = bitcast %"struct.std::_Bvector_base<std::allocator<bool> >::_Bvector_impl"* %5 to %"struct.std::_Bvector_base<std::allocator<bool> >::_Bvector_impl_data"*
  %7 = getelementptr inbounds %"struct.std::_Bvector_base<std::allocator<bool> >::_Bvector_impl_data", %"struct.std::_Bvector_base<std::allocator<bool> >::_Bvector_impl_data"* %6, i32 0, i32 0
  %8 = bitcast %"struct.std::_Bit_iterator"* %7 to %"struct.std::_Bit_iterator_base"*
  %9 = getelementptr inbounds %"struct.std::_Bit_iterator_base", %"struct.std::_Bit_iterator_base"* %8, i32 0, i32 0
  %10 = load i64*, i64** %9, align 8
  %11 = icmp ne i64* %10, null
  br i1 %11, label %12, label %26

12:                                               ; preds = %2
  %13 = bitcast i64* %10 to i8*
  %14 = trunc i8 %3 to i1
  %15 = zext i1 %14 to i64
  %16 = select i1 %14, i32 -1, i32 0
  %17 = trunc i32 %16 to i8
  %18 = bitcast %"class.std::vector.1"* %0 to %"struct.std::_Bvector_base"*
  %19 = getelementptr inbounds %"struct.std::_Bvector_base", %"struct.std::_Bvector_base"* %18, i32 0, i32 0
  %20 = call i64* @_ZNKSt13_Bvector_baseISaIbEE13_Bvector_impl11_M_end_addrEv(%"struct.std::_Bvector_base<std::allocator<bool> >::_Bvector_impl"* %19) #3
  %21 = ptrtoint i64* %20 to i64
  %22 = ptrtoint i64* %10 to i64
  %23 = sub i64 %21, %22
  %24 = sdiv exact i64 %23, 8
  %25 = mul i64 %24, 8
  call void @llvm.memset.p0i8.i64(i8* align 8 %13, i8 %17, i64 %25, i1 false)
  br label %26

26:                                               ; preds = %12, %2
  ret void
}

; Function Attrs: noinline nounwind uwtable
define linkonce_odr void @_ZNSt13_Bvector_baseISaIbEED2Ev(%"struct.std::_Bvector_base"* %0) unnamed_addr #4 comdat align 2 personality i8* bitcast (i32 (...)* @__gxx_personality_v0 to i8*) {
  invoke void @_ZNSt13_Bvector_baseISaIbEE13_M_deallocateEv(%"struct.std::_Bvector_base"* %0)
          to label %2 unwind label %4

2:                                                ; preds = %1
  %3 = getelementptr inbounds %"struct.std::_Bvector_base", %"struct.std::_Bvector_base"* %0, i32 0, i32 0
  call void @_ZNSt13_Bvector_baseISaIbEE13_Bvector_implD2Ev(%"struct.std::_Bvector_base<std::allocator<bool> >::_Bvector_impl"* %3) #3
  ret void

4:                                                ; preds = %1
  %5 = landingpad { i8*, i32 }
          cleanup
          filter [0 x i8*] zeroinitializer
  %6 = extractvalue { i8*, i32 } %5, 0
  %7 = extractvalue { i8*, i32 } %5, 1
  %8 = getelementptr inbounds %"struct.std::_Bvector_base", %"struct.std::_Bvector_base"* %0, i32 0, i32 0
  call void @_ZNSt13_Bvector_baseISaIbEE13_Bvector_implD2Ev(%"struct.std::_Bvector_base<std::allocator<bool> >::_Bvector_impl"* %8) #3
  br label %9

9:                                                ; preds = %4
  call void @__cxa_call_unexpected(i8* %6) #14
  unreachable
}

; Function Attrs: noinline nounwind uwtable
define linkonce_odr void @_ZNSaImEC2IbEERKSaIT_E(%"class.std::allocator.2"* %0, %"class.std::allocator.5"* dereferenceable(1) %1) unnamed_addr #4 comdat align 2 {
  %3 = bitcast %"class.std::allocator.2"* %0 to %"class.__gnu_cxx::new_allocator.3"*
  call void @_ZN9__gnu_cxx13new_allocatorImEC2Ev(%"class.__gnu_cxx::new_allocator.3"* %3) #3
  ret void
}

; Function Attrs: noinline nounwind uwtable
define linkonce_odr void @_ZNSt13_Bvector_baseISaIbEE13_Bvector_implC2ERKSaImE(%"struct.std::_Bvector_base<std::allocator<bool> >::_Bvector_impl"* %0, %"class.std::allocator.2"* dereferenceable(1) %1) unnamed_addr #4 comdat align 2 {
  %3 = bitcast %"struct.std::_Bvector_base<std::allocator<bool> >::_Bvector_impl"* %0 to %"class.std::allocator.2"*
  call void @_ZNSaImEC2ERKS_(%"class.std::allocator.2"* %3, %"class.std::allocator.2"* dereferenceable(1) %1) #3
  %4 = bitcast %"struct.std::_Bvector_base<std::allocator<bool> >::_Bvector_impl"* %0 to %"struct.std::_Bvector_base<std::allocator<bool> >::_Bvector_impl_data"*
  call void @_ZNSt13_Bvector_baseISaIbEE18_Bvector_impl_dataC2Ev(%"struct.std::_Bvector_base<std::allocator<bool> >::_Bvector_impl_data"* %4) #3
  ret void
}

; Function Attrs: noinline nounwind uwtable
define linkonce_odr void @_ZNSaImED2Ev(%"class.std::allocator.2"* %0) unnamed_addr #4 comdat align 2 {
  %2 = bitcast %"class.std::allocator.2"* %0 to %"class.__gnu_cxx::new_allocator.3"*
  call void @_ZN9__gnu_cxx13new_allocatorImED2Ev(%"class.__gnu_cxx::new_allocator.3"* %2) #3
  ret void
}

; Function Attrs: noinline nounwind uwtable
define linkonce_odr void @_ZN9__gnu_cxx13new_allocatorImEC2Ev(%"class.__gnu_cxx::new_allocator.3"* %0) unnamed_addr #4 comdat align 2 {
  ret void
}

; Function Attrs: noinline nounwind uwtable
define linkonce_odr void @_ZNSaImEC2ERKS_(%"class.std::allocator.2"* %0, %"class.std::allocator.2"* dereferenceable(1) %1) unnamed_addr #4 comdat align 2 {
  %3 = bitcast %"class.std::allocator.2"* %0 to %"class.__gnu_cxx::new_allocator.3"*
  %4 = bitcast %"class.std::allocator.2"* %1 to %"class.__gnu_cxx::new_allocator.3"*
  call void @_ZN9__gnu_cxx13new_allocatorImEC2ERKS1_(%"class.__gnu_cxx::new_allocator.3"* %3, %"class.__gnu_cxx::new_allocator.3"* dereferenceable(1) %4) #3
  ret void
}

; Function Attrs: noinline nounwind uwtable
define linkonce_odr void @_ZNSt13_Bvector_baseISaIbEE18_Bvector_impl_dataC2Ev(%"struct.std::_Bvector_base<std::allocator<bool> >::_Bvector_impl_data"* %0) unnamed_addr #4 comdat align 2 personality i8* bitcast (i32 (...)* @__gxx_personality_v0 to i8*) {
  %2 = getelementptr inbounds %"struct.std::_Bvector_base<std::allocator<bool> >::_Bvector_impl_data", %"struct.std::_Bvector_base<std::allocator<bool> >::_Bvector_impl_data"* %0, i32 0, i32 0
  invoke void @_ZNSt13_Bit_iteratorC2Ev(%"struct.std::_Bit_iterator"* %2)
          to label %3 unwind label %7

3:                                                ; preds = %1
  %4 = getelementptr inbounds %"struct.std::_Bvector_base<std::allocator<bool> >::_Bvector_impl_data", %"struct.std::_Bvector_base<std::allocator<bool> >::_Bvector_impl_data"* %0, i32 0, i32 1
  invoke void @_ZNSt13_Bit_iteratorC2Ev(%"struct.std::_Bit_iterator"* %4)
          to label %5 unwind label %7

5:                                                ; preds = %3
  %6 = getelementptr inbounds %"struct.std::_Bvector_base<std::allocator<bool> >::_Bvector_impl_data", %"struct.std::_Bvector_base<std::allocator<bool> >::_Bvector_impl_data"* %0, i32 0, i32 2
  store i64* null, i64** %6, align 8
  ret void

7:                                                ; preds = %3, %1
  %8 = landingpad { i8*, i32 }
          catch i8* null
  %9 = extractvalue { i8*, i32 } %8, 0
  call void @__clang_call_terminate(i8* %9) #13
  unreachable
}

; Function Attrs: noinline nounwind uwtable
define linkonce_odr void @_ZN9__gnu_cxx13new_allocatorImEC2ERKS1_(%"class.__gnu_cxx::new_allocator.3"* %0, %"class.__gnu_cxx::new_allocator.3"* dereferenceable(1) %1) unnamed_addr #4 comdat align 2 {
  ret void
}

; Function Attrs: noinline uwtable
define linkonce_odr void @_ZNSt13_Bit_iteratorC2Ev(%"struct.std::_Bit_iterator"* %0) unnamed_addr #0 comdat align 2 {
  %2 = bitcast %"struct.std::_Bit_iterator"* %0 to %"struct.std::_Bit_iterator_base"*
  call void @_ZNSt18_Bit_iterator_baseC2EPmj(%"struct.std::_Bit_iterator_base"* %2, i64* null, i32 0)
  ret void
}

; Function Attrs: noinline nounwind uwtable
define linkonce_odr void @_ZNSt18_Bit_iterator_baseC2EPmj(%"struct.std::_Bit_iterator_base"* %0, i64* %1, i32 %2) unnamed_addr #4 comdat align 2 {
  %4 = bitcast %"struct.std::_Bit_iterator_base"* %0 to %"struct.std::iterator"*
  %5 = getelementptr inbounds %"struct.std::_Bit_iterator_base", %"struct.std::_Bit_iterator_base"* %0, i32 0, i32 0
  store i64* %1, i64** %5, align 8
  %6 = getelementptr inbounds %"struct.std::_Bit_iterator_base", %"struct.std::_Bit_iterator_base"* %0, i32 0, i32 1
  store i32 %2, i32* %6, align 8
  ret void
}

; Function Attrs: noinline nounwind uwtable
define linkonce_odr void @_ZN9__gnu_cxx13new_allocatorImED2Ev(%"class.__gnu_cxx::new_allocator.3"* %0) unnamed_addr #4 comdat align 2 {
  ret void
}

; Function Attrs: noinline uwtable
define linkonce_odr i64* @_ZNSt13_Bvector_baseISaIbEE11_M_allocateEm(%"struct.std::_Bvector_base"* %0, i64 %1) #0 comdat align 2 {
  %3 = getelementptr inbounds %"struct.std::_Bvector_base", %"struct.std::_Bvector_base"* %0, i32 0, i32 0
  %4 = bitcast %"struct.std::_Bvector_base<std::allocator<bool> >::_Bvector_impl"* %3 to %"class.std::allocator.2"*
  %5 = call i64 @_ZNSt13_Bvector_baseISaIbEE8_S_nwordEm(i64 %1)
  %6 = call i64* @_ZNSt16allocator_traitsISaImEE8allocateERS0_m(%"class.std::allocator.2"* dereferenceable(1) %4, i64 %5)
  ret i64* %6
}

; Function Attrs: noinline nounwind uwtable
define linkonce_odr i64 @_ZNSt13_Bvector_baseISaIbEE8_S_nwordEm(i64 %0) #4 comdat align 2 {
  %2 = add i64 %0, 64
  %3 = sub i64 %2, 1
  %4 = udiv i64 %3, 64
  ret i64 %4
}

; Function Attrs: noinline nounwind uwtable
define linkonce_odr i64* @_ZSt11__addressofImEPT_RS0_(i64* dereferenceable(8) %0) #4 comdat {
  ret i64* %0
}

; Function Attrs: noinline nounwind uwtable
define linkonce_odr void @_ZNSt13_Bit_iteratorC2EPmj(%"struct.std::_Bit_iterator"* %0, i64* %1, i32 %2) unnamed_addr #4 comdat align 2 {
  %4 = bitcast %"struct.std::_Bit_iterator"* %0 to %"struct.std::_Bit_iterator_base"*
  call void @_ZNSt18_Bit_iterator_baseC2EPmj(%"struct.std::_Bit_iterator_base"* %4, i64* %1, i32 %2)
  ret void
}

; Function Attrs: noinline uwtable
define linkonce_odr { i64*, i32 } @_ZNKSt13_Bit_iteratorplEl(%"struct.std::_Bit_iterator"* %0, i64 %1) #0 comdat align 2 {
  %3 = alloca %"struct.std::_Bit_iterator", align 8
  %4 = alloca %"struct.std::_Bit_iterator", align 8
  %5 = bitcast %"struct.std::_Bit_iterator"* %4 to i8*
  %6 = bitcast %"struct.std::_Bit_iterator"* %0 to i8*
  call void @llvm.memcpy.p0i8.p0i8.i64(i8* align 8 %5, i8* align 8 %6, i64 16, i1 false)
  %7 = call dereferenceable(16) %"struct.std::_Bit_iterator"* @_ZNSt13_Bit_iteratorpLEl(%"struct.std::_Bit_iterator"* %4, i64 %1)
  %8 = bitcast %"struct.std::_Bit_iterator"* %3 to i8*
  %9 = bitcast %"struct.std::_Bit_iterator"* %7 to i8*
  call void @llvm.memcpy.p0i8.p0i8.i64(i8* align 8 %8, i8* align 8 %9, i64 16, i1 false)
  %10 = bitcast %"struct.std::_Bit_iterator"* %3 to { i64*, i32 }*
  %11 = load { i64*, i32 }, { i64*, i32 }* %10, align 8
  ret { i64*, i32 } %11
}

; Function Attrs: noinline uwtable
define linkonce_odr i64* @_ZNSt16allocator_traitsISaImEE8allocateERS0_m(%"class.std::allocator.2"* dereferenceable(1) %0, i64 %1) #0 comdat align 2 {
  %3 = bitcast %"class.std::allocator.2"* %0 to %"class.__gnu_cxx::new_allocator.3"*
  %4 = call i64* @_ZN9__gnu_cxx13new_allocatorImE8allocateEmPKv(%"class.__gnu_cxx::new_allocator.3"* %3, i64 %1, i8* null)
  ret i64* %4
}

; Function Attrs: noinline uwtable
define linkonce_odr i64* @_ZN9__gnu_cxx13new_allocatorImE8allocateEmPKv(%"class.__gnu_cxx::new_allocator.3"* %0, i64 %1, i8* %2) #0 comdat align 2 {
  %4 = call i64 @_ZNK9__gnu_cxx13new_allocatorImE8max_sizeEv(%"class.__gnu_cxx::new_allocator.3"* %0) #3
  %5 = icmp ugt i64 %1, %4
  br i1 %5, label %6, label %7

6:                                                ; preds = %3
  call void @_ZSt17__throw_bad_allocv() #14
  unreachable

7:                                                ; preds = %3
  %8 = mul i64 %1, 8
  %9 = call i8* @_Znwm(i64 %8)
  %10 = bitcast i8* %9 to i64*
  ret i64* %10
}

; Function Attrs: noinline nounwind uwtable
define linkonce_odr i64 @_ZNK9__gnu_cxx13new_allocatorImE8max_sizeEv(%"class.__gnu_cxx::new_allocator.3"* %0) #4 comdat align 2 {
  ret i64 2305843009213693951
}

; Function Attrs: noinline uwtable
define linkonce_odr dereferenceable(16) %"struct.std::_Bit_iterator"* @_ZNSt13_Bit_iteratorpLEl(%"struct.std::_Bit_iterator"* %0, i64 %1) #0 comdat align 2 {
  %3 = bitcast %"struct.std::_Bit_iterator"* %0 to %"struct.std::_Bit_iterator_base"*
  call void @_ZNSt18_Bit_iterator_base7_M_incrEl(%"struct.std::_Bit_iterator_base"* %3, i64 %1)
  ret %"struct.std::_Bit_iterator"* %0
}

; Function Attrs: noinline nounwind uwtable
define linkonce_odr void @_ZNSt18_Bit_iterator_base7_M_incrEl(%"struct.std::_Bit_iterator_base"* %0, i64 %1) #4 comdat align 2 {
  %3 = getelementptr inbounds %"struct.std::_Bit_iterator_base", %"struct.std::_Bit_iterator_base"* %0, i32 0, i32 1
  %4 = load i32, i32* %3, align 8
  %5 = zext i32 %4 to i64
  %6 = add nsw i64 %1, %5
  %7 = sdiv i64 %6, 64
  %8 = getelementptr inbounds %"struct.std::_Bit_iterator_base", %"struct.std::_Bit_iterator_base"* %0, i32 0, i32 0
  %9 = load i64*, i64** %8, align 8
  %10 = getelementptr inbounds i64, i64* %9, i64 %7
  store i64* %10, i64** %8, align 8
  %11 = srem i64 %6, 64
  %12 = icmp slt i64 %11, 0
  br i1 %12, label %13, label %18

13:                                               ; preds = %2
  %14 = add nsw i64 %11, 64
  %15 = getelementptr inbounds %"struct.std::_Bit_iterator_base", %"struct.std::_Bit_iterator_base"* %0, i32 0, i32 0
  %16 = load i64*, i64** %15, align 8
  %17 = getelementptr inbounds i64, i64* %16, i32 -1
  store i64* %17, i64** %15, align 8
  br label %18

18:                                               ; preds = %13, %2
  %.0 = phi i64 [ %14, %13 ], [ %11, %2 ]
  %19 = trunc i64 %.0 to i32
  %20 = getelementptr inbounds %"struct.std::_Bit_iterator_base", %"struct.std::_Bit_iterator_base"* %0, i32 0, i32 1
  store i32 %19, i32* %20, align 8
  ret void
}

; Function Attrs: noinline nounwind uwtable
define linkonce_odr i64* @_ZNKSt13_Bvector_baseISaIbEE13_Bvector_impl11_M_end_addrEv(%"struct.std::_Bvector_base<std::allocator<bool> >::_Bvector_impl"* %0) #4 comdat align 2 {
  %2 = bitcast %"struct.std::_Bvector_base<std::allocator<bool> >::_Bvector_impl"* %0 to %"struct.std::_Bvector_base<std::allocator<bool> >::_Bvector_impl_data"*
  %3 = getelementptr inbounds %"struct.std::_Bvector_base<std::allocator<bool> >::_Bvector_impl_data", %"struct.std::_Bvector_base<std::allocator<bool> >::_Bvector_impl_data"* %2, i32 0, i32 2
  %4 = load i64*, i64** %3, align 8
  %5 = icmp ne i64* %4, null
  br i1 %5, label %6, label %13

6:                                                ; preds = %1
  %7 = bitcast %"struct.std::_Bvector_base<std::allocator<bool> >::_Bvector_impl"* %0 to %"struct.std::_Bvector_base<std::allocator<bool> >::_Bvector_impl_data"*
  %8 = getelementptr inbounds %"struct.std::_Bvector_base<std::allocator<bool> >::_Bvector_impl_data", %"struct.std::_Bvector_base<std::allocator<bool> >::_Bvector_impl_data"* %7, i32 0, i32 2
  %9 = load i64*, i64** %8, align 8
  %10 = getelementptr inbounds i64, i64* %9, i64 -1
  %11 = call i64* @_ZSt11__addressofImEPT_RS0_(i64* dereferenceable(8) %10) #3
  %12 = getelementptr inbounds i64, i64* %11, i64 1
  br label %14

13:                                               ; preds = %1
  br label %14

14:                                               ; preds = %13, %6
  %.0 = phi i64* [ %12, %6 ], [ null, %13 ]
  ret i64* %.0
}

; Function Attrs: noinline uwtable
define linkonce_odr void @_ZNSt13_Bvector_baseISaIbEE13_M_deallocateEv(%"struct.std::_Bvector_base"* %0) #0 comdat align 2 {
  %2 = getelementptr inbounds %"struct.std::_Bvector_base", %"struct.std::_Bvector_base"* %0, i32 0, i32 0
  %3 = bitcast %"struct.std::_Bvector_base<std::allocator<bool> >::_Bvector_impl"* %2 to %"struct.std::_Bvector_base<std::allocator<bool> >::_Bvector_impl_data"*
  %4 = getelementptr inbounds %"struct.std::_Bvector_base<std::allocator<bool> >::_Bvector_impl_data", %"struct.std::_Bvector_base<std::allocator<bool> >::_Bvector_impl_data"* %3, i32 0, i32 0
  %5 = bitcast %"struct.std::_Bit_iterator"* %4 to %"struct.std::_Bit_iterator_base"*
  %6 = getelementptr inbounds %"struct.std::_Bit_iterator_base", %"struct.std::_Bit_iterator_base"* %5, i32 0, i32 0
  %7 = load i64*, i64** %6, align 8
  %8 = icmp ne i64* %7, null
  br i1 %8, label %9, label %32

9:                                                ; preds = %1
  %10 = getelementptr inbounds %"struct.std::_Bvector_base", %"struct.std::_Bvector_base"* %0, i32 0, i32 0
  %11 = call i64* @_ZNKSt13_Bvector_baseISaIbEE13_Bvector_impl11_M_end_addrEv(%"struct.std::_Bvector_base<std::allocator<bool> >::_Bvector_impl"* %10) #3
  %12 = getelementptr inbounds %"struct.std::_Bvector_base", %"struct.std::_Bvector_base"* %0, i32 0, i32 0
  %13 = bitcast %"struct.std::_Bvector_base<std::allocator<bool> >::_Bvector_impl"* %12 to %"struct.std::_Bvector_base<std::allocator<bool> >::_Bvector_impl_data"*
