; ModuleID = '/home/pedro/tcc/exDataset/codenet/data/selection/p00701/s423367356.ll'
source_filename = "/home/pedro/tcc/exDataset/codenet/data/selection/p00701/s423367356.cpp"
target datalayout = "e-m:e-i64:64-f80:128-n8:16:32:64-S128"
target triple = "x86_64-pc-linux-gnu"

%"class.std::ios_base::Init" = type { i8 }
%"struct.std::pair" = type { i32, i32 }
%"class.std::basic_istream" = type { i32 (...)**, i64, %"class.std::basic_ios" }
%"class.std::basic_ios" = type { %"class.std::ios_base", %"class.std::basic_ostream"*, i8, i8, %"class.std::basic_streambuf"*, %"class.std::ctype"*, %"class.std::num_put"*, %"class.std::num_get"* }
%"class.std::ios_base" = type { i32 (...)**, i64, i64, i32, i32, i32, %"struct.std::ios_base::_Callback_list"*, %"struct.std::ios_base::_Words", [8 x %"struct.std::ios_base::_Words"], i32, %"struct.std::ios_base::_Words"*, %"class.std::locale" }
%"struct.std::ios_base::_Callback_list" = type { %"struct.std::ios_base::_Callback_list"*, void (i32, %"class.std::ios_base"*, i32)*, i32, i32 }
%"struct.std::ios_base::_Words" = type { i8*, i64 }
%"class.std::locale" = type { %"class.std::locale::_Impl"* }
%"class.std::locale::_Impl" = type { i32, %"class.std::locale::facet"**, i64, %"class.std::locale::facet"**, i8** }
%"class.std::locale::facet" = type <{ i32 (...)**, i32, [4 x i8] }>
%"class.std::basic_ostream" = type { i32 (...)**, %"class.std::basic_ios" }
%"class.std::basic_streambuf" = type { i32 (...)**, i8*, i8*, i8*, i8*, i8*, i8*, %"class.std::locale" }
%"class.std::ctype" = type <{ %"class.std::locale::facet.base", [4 x i8], %struct.__locale_struct*, i8, [7 x i8], i32*, i32*, i16*, i8, [256 x i8], [256 x i8], i8, [6 x i8] }>
%"class.std::locale::facet.base" = type <{ i32 (...)**, i32 }>
%struct.__locale_struct = type { [13 x %struct.__locale_data*], i16*, i32*, i32*, [13 x i8*] }
%struct.__locale_data = type opaque
%"class.std::num_put" = type { %"class.std::locale::facet.base", [4 x i8] }
%"class.std::num_get" = type { %"class.std::locale::facet.base", [4 x i8] }
%"class.std::__pair_base" = type { i8 }
%"struct.__gnu_cxx::__ops::_Iter_less_iter" = type { i8 }
%"struct.__gnu_cxx::__ops::_Iter_less_val" = type { i8 }
%"struct.__gnu_cxx::__ops::_Val_less_iter" = type { i8 }

$_ZSt9make_pairIiiESt4pairINSt17__decay_and_stripIT_E6__typeENS1_IT0_E6__typeEEOS2_OS5_ = comdat any

$_ZNSt4pairIiiEaSEOS0_ = comdat any

$_ZSt4fillIPiiEvT_S1_RKT0_ = comdat any

$_ZSt9make_pairIRiiESt4pairINSt17__decay_and_stripIT_E6__typeENS2_IT0_E6__typeEEOS3_OS6_ = comdat any

$_ZSt4sortIPiEvT_S1_ = comdat any

$_ZSt7forwardIiEOT_RNSt16remove_referenceIS0_E4typeE = comdat any

$_ZNSt4pairIiiEC2IiiLb1EEEOT_OT0_ = comdat any

$_ZSt7forwardIRiEOT_RNSt16remove_referenceIS1_E4typeE = comdat any

$_ZNSt4pairIiiEC2IRiiLb1EEEOT_OT0_ = comdat any

$_ZSt8__fill_aIPiiEN9__gnu_cxx11__enable_ifIXsr11__is_scalarIT0_EE7__valueEvE6__typeET_S6_RKS3_ = comdat any

$_ZSt12__niter_baseIPiET_S1_ = comdat any

$_ZSt6__sortIPiN9__gnu_cxx5__ops15_Iter_less_iterEEvT_S4_T0_ = comdat any

$_ZN9__gnu_cxx5__ops16__iter_less_iterEv = comdat any

$_ZSt16__introsort_loopIPilN9__gnu_cxx5__ops15_Iter_less_iterEEvT_S4_T0_T1_ = comdat any

$_ZSt4__lgl = comdat any

$_ZSt22__final_insertion_sortIPiN9__gnu_cxx5__ops15_Iter_less_iterEEvT_S4_T0_ = comdat any

$_ZSt14__partial_sortIPiN9__gnu_cxx5__ops15_Iter_less_iterEEvT_S4_S4_T0_ = comdat any

$_ZSt27__unguarded_partition_pivotIPiN9__gnu_cxx5__ops15_Iter_less_iterEET_S4_S4_T0_ = comdat any

$_ZSt13__heap_selectIPiN9__gnu_cxx5__ops15_Iter_less_iterEEvT_S4_S4_T0_ = comdat any

$_ZSt11__sort_heapIPiN9__gnu_cxx5__ops15_Iter_less_iterEEvT_S4_RT0_ = comdat any

$_ZSt11__make_heapIPiN9__gnu_cxx5__ops15_Iter_less_iterEEvT_S4_RT0_ = comdat any

$_ZNK9__gnu_cxx5__ops15_Iter_less_iterclIPiS3_EEbT_T0_ = comdat any

$_ZSt10__pop_heapIPiN9__gnu_cxx5__ops15_Iter_less_iterEEvT_S4_S4_RT0_ = comdat any

$_ZSt4moveIRiEONSt16remove_referenceIT_E4typeEOS2_ = comdat any

$_ZSt13__adjust_heapIPiliN9__gnu_cxx5__ops15_Iter_less_iterEEvT_T0_S5_T1_T2_ = comdat any

$_ZSt4moveIRN9__gnu_cxx5__ops15_Iter_less_iterEEONSt16remove_referenceIT_E4typeEOS5_ = comdat any

$_ZN9__gnu_cxx5__ops14_Iter_less_valC2ENS0_15_Iter_less_iterE = comdat any

$_ZSt11__push_heapIPiliN9__gnu_cxx5__ops14_Iter_less_valEEvT_T0_S5_T1_RT2_ = comdat any

$_ZNK9__gnu_cxx5__ops14_Iter_less_valclIPiiEEbT_RT0_ = comdat any

$_ZSt22__move_median_to_firstIPiN9__gnu_cxx5__ops15_Iter_less_iterEEvT_S4_S4_S4_T0_ = comdat any

$_ZSt21__unguarded_partitionIPiN9__gnu_cxx5__ops15_Iter_less_iterEET_S4_S4_S4_T0_ = comdat any

$_ZSt9iter_swapIPiS0_EvT_T0_ = comdat any

$_ZSt4swapIiENSt9enable_ifIXsr6__and_ISt6__not_ISt15__is_tuple_likeIT_EESt21is_move_constructibleIS3_ESt18is_move_assignableIS3_EEE5valueEvE4typeERS3_SC_ = comdat any

$_ZSt16__insertion_sortIPiN9__gnu_cxx5__ops15_Iter_less_iterEEvT_S4_T0_ = comdat any

$_ZSt26__unguarded_insertion_sortIPiN9__gnu_cxx5__ops15_Iter_less_iterEEvT_S4_T0_ = comdat any

$_ZSt13move_backwardIPiS0_ET0_T_S2_S1_ = comdat any

$_ZSt25__unguarded_linear_insertIPiN9__gnu_cxx5__ops14_Val_less_iterEEvT_T0_ = comdat any

$_ZN9__gnu_cxx5__ops15__val_comp_iterENS0_15_Iter_less_iterE = comdat any

$_ZSt23__copy_move_backward_a2ILb1EPiS0_ET1_T0_S2_S1_ = comdat any

$_ZSt12__miter_baseIPiET_S1_ = comdat any

$_ZSt22__copy_move_backward_aILb1EPiS0_ET1_T0_S2_S1_ = comdat any

$_ZNSt20__copy_move_backwardILb1ELb1ESt26random_access_iterator_tagE13__copy_move_bIiEEPT_PKS3_S6_S4_ = comdat any

$_ZNK9__gnu_cxx5__ops14_Val_less_iterclIiPiEEbRT_T0_ = comdat any

@_ZStL8__ioinit = internal global %"class.std::ios_base::Init" zeroinitializer, align 1
@__dso_handle = external hidden global i8
@m = global i32 0, align 4
@I = global i32 0, align 4
@J = global i32 0, align 4
@p = global [10000 x [100 x i32]] zeroinitializer, align 16
@s = global [10000 x i32] zeroinitializer, align 16
@P = global i32 0, align 4
@pos = global [101 x %"struct.std::pair"] zeroinitializer, align 16
@_ZSt3cin = external global %"class.std::basic_istream", align 8
@_ZSt4cout = external global %"class.std::basic_ostream", align 8
@.str = private unnamed_addr constant [2 x i8] c"\0A\00", align 1
@.str.1 = private unnamed_addr constant [6 x i8] c"\0Aend\0A\00", align 1
@llvm.global_ctors = appending global [1 x { i32, void ()*, i8* }] [{ i32, void ()*, i8* } { i32 65535, void ()* @_GLOBAL__sub_I_s423367356.cpp, i8* null }]

; Function Attrs: noinline uwtable
define internal void @__cxx_global_var_init() #0 section ".text.startup" {
  call void @_ZNSt8ios_base4InitC1Ev(%"class.std::ios_base::Init"* @_ZStL8__ioinit)
  %1 = call i32 @__cxa_atexit(void (i8*)* bitcast (void (%"class.std::ios_base::Init"*)* @_ZNSt8ios_base4InitD1Ev to void (i8*)*), i8* getelementptr inbounds (%"class.std::ios_base::Init", %"class.std::ios_base::Init"* @_ZStL8__ioinit, i32 0, i32 0), i8* @__dso_handle) #3
  ret void
}

declare void @_ZNSt8ios_base4InitC1Ev(%"class.std::ios_base::Init"*) unnamed_addr #1

; Function Attrs: nounwind
declare void @_ZNSt8ios_base4InitD1Ev(%"class.std::ios_base::Init"*) unnamed_addr #2

; Function Attrs: nounwind
declare i32 @__cxa_atexit(void (i8*)*, i8*, i8*) #3

; Function Attrs: noinline uwtable
define void @_Z7destroyiiPSt4pairIiiE(i32 %0, i32 %1, %"struct.std::pair"* %2) #0 {
  %4 = alloca %"struct.std::pair", align 4
  %5 = alloca i32, align 4
  %6 = alloca i32, align 4
  %7 = sext i32 %0 to i64
  %8 = getelementptr inbounds [10000 x [100 x i32]], [10000 x [100 x i32]]* @p, i64 0, i64 %7
  %9 = sext i32 %1 to i64
  %10 = getelementptr inbounds [100 x i32], [100 x i32]* %8, i64 0, i64 %9
  store i32 0, i32* %10, align 4
  %11 = add nsw i32 %1, 1
  br label %12

12:                                               ; preds = %46, %3
  %.0 = phi i32 [ %11, %3 ], [ %47, %46 ]
  %13 = sext i32 %0 to i64
  %14 = getelementptr inbounds [10000 x i32], [10000 x i32]* @s, i64 0, i64 %13
  %15 = load i32, i32* %14, align 4
  %16 = icmp slt i32 %.0, %15
  br i1 %16, label %17, label %48

17:                                               ; preds = %12
  %18 = sext i32 %0 to i64
  %19 = getelementptr inbounds [10000 x [100 x i32]], [10000 x [100 x i32]]* @p, i64 0, i64 %18
  %20 = sext i32 %.0 to i64
  %21 = getelementptr inbounds [100 x i32], [100 x i32]* %19, i64 0, i64 %20
  %22 = load i32, i32* %21, align 4
  %23 = load i32, i32* @P, align 4
  %24 = sext i32 %23 to i64
  %25 = getelementptr inbounds [10000 x [100 x i32]], [10000 x [100 x i32]]* @p, i64 0, i64 %24
  %26 = getelementptr inbounds [100 x i32], [100 x i32]* %25, i64 0, i64 0
  store i32 %22, i32* %26, align 16
  %27 = load i32, i32* @P, align 4
  %28 = sext i32 %27 to i64
  %29 = getelementptr inbounds [10000 x i32], [10000 x i32]* @s, i64 0, i64 %28
  store i32 1, i32* %29, align 4
  %30 = load i32, i32* @P, align 4
  %31 = add nsw i32 %30, 1
  store i32 %31, i32* @P, align 4
  store i32 %30, i32* %5, align 4
  store i32 0, i32* %6, align 4
  %32 = call i64 @_ZSt9make_pairIiiESt4pairINSt17__decay_and_stripIT_E6__typeENS1_IT0_E6__typeEEOS2_OS5_(i32* dereferenceable(4) %5, i32* dereferenceable(4) %6)
  %33 = bitcast %"struct.std::pair"* %4 to i64*
  store i64 %32, i64* %33, align 4
  %34 = load i32, i32* @P, align 4
  %35 = sext i32 %34 to i64
  %36 = getelementptr inbounds [10000 x [100 x i32]], [10000 x [100 x i32]]* @p, i64 0, i64 %35
  %37 = getelementptr inbounds [100 x i32], [100 x i32]* %36, i64 0, i64 0
  %38 = load i32, i32* %37, align 16
  %39 = sext i32 %38 to i64
  %40 = getelementptr inbounds %"struct.std::pair", %"struct.std::pair"* %2, i64 %39
  %41 = call dereferenceable(8) %"struct.std::pair"* @_ZNSt4pairIiiEaSEOS0_(%"struct.std::pair"* %40, %"struct.std::pair"* dereferenceable(8) %4) #3
  %42 = sext i32 %0 to i64
  %43 = getelementptr inbounds [10000 x [100 x i32]], [10000 x [100 x i32]]* @p, i64 0, i64 %42
  %44 = sext i32 %.0 to i64
  %45 = getelementptr inbounds [100 x i32], [100 x i32]* %43, i64 0, i64 %44
  store i32 0, i32* %45, align 4
  br label %46

46:                                               ; preds = %17
  %47 = add nsw i32 %.0, 1
  br label %12

48:                                               ; preds = %12
  %49 = sext i32 %0 to i64
  %50 = getelementptr inbounds [10000 x i32], [10000 x i32]* @s, i64 0, i64 %49
  store i32 %1, i32* %50, align 4
  ret void
}

; Function Attrs: noinline uwtable
define linkonce_odr i64 @_ZSt9make_pairIiiESt4pairINSt17__decay_and_stripIT_E6__typeENS1_IT0_E6__typeEEOS2_OS5_(i32* dereferenceable(4) %0, i32* dereferenceable(4) %1) #0 comdat {
  %3 = alloca %"struct.std::pair", align 4
  %4 = call dereferenceable(4) i32* @_ZSt7forwardIiEOT_RNSt16remove_referenceIS0_E4typeE(i32* dereferenceable(4) %0) #3
  %5 = call dereferenceable(4) i32* @_ZSt7forwardIiEOT_RNSt16remove_referenceIS0_E4typeE(i32* dereferenceable(4) %1) #3
  call void @_ZNSt4pairIiiEC2IiiLb1EEEOT_OT0_(%"struct.std::pair"* %3, i32* dereferenceable(4) %4, i32* dereferenceable(4) %5)
  %6 = bitcast %"struct.std::pair"* %3 to i64*
  %7 = load i64, i64* %6, align 4
  ret i64 %7
}

; Function Attrs: noinline nounwind uwtable
define linkonce_odr dereferenceable(8) %"struct.std::pair"* @_ZNSt4pairIiiEaSEOS0_(%"struct.std::pair"* %0, %"struct.std::pair"* dereferenceable(8) %1) #4 comdat align 2 {
  %3 = getelementptr inbounds %"struct.std::pair", %"struct.std::pair"* %1, i32 0, i32 0
  %4 = call dereferenceable(4) i32* @_ZSt7forwardIiEOT_RNSt16remove_referenceIS0_E4typeE(i32* dereferenceable(4) %3) #3
  %5 = load i32, i32* %4, align 4
  %6 = getelementptr inbounds %"struct.std::pair", %"struct.std::pair"* %0, i32 0, i32 0
  store i32 %5, i32* %6, align 4
  %7 = getelementptr inbounds %"struct.std::pair", %"struct.std::pair"* %1, i32 0, i32 1
  %8 = call dereferenceable(4) i32* @_ZSt7forwardIiEOT_RNSt16remove_referenceIS0_E4typeE(i32* dereferenceable(4) %7) #3
  %9 = load i32, i32* %8, align 4
  %10 = getelementptr inbounds %"struct.std::pair", %"struct.std::pair"* %0, i32 0, i32 1
  store i32 %9, i32* %10, align 4
  ret %"struct.std::pair"* %0
}

; Function Attrs: noinline norecurse uwtable
define i32 @main() #5 {
  %1 = alloca i32, align 4
  %2 = alloca i32, align 4
  %3 = alloca i32, align 4
  %4 = alloca %"struct.std::pair", align 4
  %5 = alloca i32, align 4
  %6 = alloca i32, align 4
  %7 = alloca %"struct.std::pair", align 4
  %8 = alloca i32, align 4
  %9 = alloca i32, align 4
  %10 = alloca i32, align 4
  %11 = alloca %"struct.std::pair", align 4
  %12 = alloca i32, align 4
  %13 = alloca %"struct.std::pair", align 4
  %14 = alloca i32, align 4
  br label %15

15:                                               ; preds = %208, %0
  %16 = call dereferenceable(280) %"class.std::basic_istream"* @_ZNSirsERi(%"class.std::basic_istream"* @_ZSt3cin, i32* dereferenceable(4) @m)
  %17 = bitcast %"class.std::basic_istream"* %16 to i8**
  %18 = load i8*, i8** %17, align 8
  %19 = getelementptr i8, i8* %18, i64 -24
  %20 = bitcast i8* %19 to i64*
  %21 = load i64, i64* %20, align 8
  %22 = bitcast %"class.std::basic_istream"* %16 to i8*
  %23 = getelementptr inbounds i8, i8* %22, i64 %21
  %24 = bitcast i8* %23 to %"class.std::basic_ios"*
  %25 = call zeroext i1 @_ZNKSt9basic_iosIcSt11char_traitsIcEEcvbEv(%"class.std::basic_ios"* %24)
  br i1 %25, label %26, label %29

26:                                               ; preds = %15
  %27 = load i32, i32* @m, align 4
  %28 = icmp ne i32 %27, 0
  br label %29

29:                                               ; preds = %26, %15
  %30 = phi i1 [ false, %15 ], [ %28, %26 ]
  br i1 %30, label %31, label %209

31:                                               ; preds = %29
  br label %32

32:                                               ; preds = %42, %31
  %.01 = phi i32 [ 0, %31 ], [ %43, %42 ]
  %33 = icmp slt i32 %.01, 10000
  br i1 %33, label %34, label %44

34:                                               ; preds = %32
  %35 = sext i32 %.01 to i64
  %36 = getelementptr inbounds [10000 x [100 x i32]], [10000 x [100 x i32]]* @p, i64 0, i64 %35
  %37 = getelementptr inbounds [100 x i32], [100 x i32]* %36, i32 0, i32 0
  %38 = sext i32 %.01 to i64
  %39 = getelementptr inbounds [10000 x [100 x i32]], [10000 x [100 x i32]]* @p, i64 0, i64 %38
  %40 = getelementptr inbounds [100 x i32], [100 x i32]* %39, i32 0, i32 0
  %41 = getelementptr inbounds i32, i32* %40, i64 100
  store i32 0, i32* %1, align 4
  call void @_ZSt4fillIPiiEvT_S1_RKT0_(i32* %37, i32* %41, i32* dereferenceable(4) %1)
  br label %42

42:                                               ; preds = %34
  %43 = add nsw i32 %.01, 1
  br label %32

44:                                               ; preds = %32
  store i32 0, i32* %2, align 4
  call void @_ZSt4fillIPiiEvT_S1_RKT0_(i32* getelementptr inbounds ([10000 x i32], [10000 x i32]* @s, i32 0, i32 0), i32* getelementptr inbounds ([10000 x i32], [10000 x i32]* @s, i64 1, i64 0), i32* dereferenceable(4) %2)
  store i32 0, i32* %3, align 4
  br label %45

45:                                               ; preds = %66, %44
  %46 = load i32, i32* %3, align 4
  %47 = load i32, i32* @m, align 4
  %48 = icmp slt i32 %46, %47
  br i1 %48, label %49, label %69

49:                                               ; preds = %45
  %50 = load i32, i32* %3, align 4
  %51 = add nsw i32 %50, 1
  %52 = load i32, i32* %3, align 4
  %53 = sext i32 %52 to i64
  %54 = getelementptr inbounds [10000 x [100 x i32]], [10000 x [100 x i32]]* @p, i64 0, i64 %53
  %55 = getelementptr inbounds [100 x i32], [100 x i32]* %54, i64 0, i64 0
  store i32 %51, i32* %55, align 16
  %56 = load i32, i32* %3, align 4
  %57 = sext i32 %56 to i64
  %58 = getelementptr inbounds [10000 x i32], [10000 x i32]* @s, i64 0, i64 %57
  store i32 1, i32* %58, align 4
  store i32 0, i32* %5, align 4
  %59 = call i64 @_ZSt9make_pairIRiiESt4pairINSt17__decay_and_stripIT_E6__typeENS2_IT0_E6__typeEEOS3_OS6_(i32* dereferenceable(4) %3, i32* dereferenceable(4) %5)
  %60 = bitcast %"struct.std::pair"* %4 to i64*
  store i64 %59, i64* %60, align 4
  %61 = load i32, i32* %3, align 4
  %62 = add nsw i32 %61, 1
  %63 = sext i32 %62 to i64
  %64 = getelementptr inbounds [101 x %"struct.std::pair"], [101 x %"struct.std::pair"]* @pos, i64 0, i64 %63
  %65 = call dereferenceable(8) %"struct.std::pair"* @_ZNSt4pairIiiEaSEOS0_(%"struct.std::pair"* %64, %"struct.std::pair"* dereferenceable(8) %4) #3
  br label %66

66:                                               ; preds = %49
  %67 = load i32, i32* %3, align 4
  %68 = add nsw i32 %67, 1
  store i32 %68, i32* %3, align 4
  br label %45

69:                                               ; preds = %45
  %70 = load i32, i32* @m, align 4
  store i32 %70, i32* @P, align 4
  br label %71

71:                                               ; preds = %187, %141, %92, %69
  %72 = call dereferenceable(280) %"class.std::basic_istream"* @_ZNSirsERi(%"class.std::basic_istream"* @_ZSt3cin, i32* dereferenceable(4) @I)
  %73 = call dereferenceable(280) %"class.std::basic_istream"* @_ZNSirsERi(%"class.std::basic_istream"* %72, i32* dereferenceable(4) @J)
  %74 = bitcast %"class.std::basic_istream"* %73 to i8**
  %75 = load i8*, i8** %74, align 8
  %76 = getelementptr i8, i8* %75, i64 -24
  %77 = bitcast i8* %76 to i64*
  %78 = load i64, i64* %77, align 8
  %79 = bitcast %"class.std::basic_istream"* %73 to i8*
  %80 = getelementptr inbounds i8, i8* %79, i64 %78
  %81 = bitcast i8* %80 to %"class.std::basic_ios"*
  %82 = call zeroext i1 @_ZNKSt9basic_iosIcSt11char_traitsIcEEcvbEv(%"class.std::basic_ios"* %81)
  br i1 %82, label %83, label %86

83:                                               ; preds = %71
  %84 = load i32, i32* @I, align 4
  %85 = icmp ne i32 %84, 0
  br label %86

86:                                               ; preds = %83, %71
  %87 = phi i1 [ false, %71 ], [ %85, %83 ]
  br i1 %87, label %88, label %188

88:                                               ; preds = %86
  %89 = load i32, i32* @I, align 4
  %90 = load i32, i32* @J, align 4
  %91 = icmp eq i32 %89, %90
  br i1 %91, label %92, label %93

92:                                               ; preds = %88
  br label %71

93:                                               ; preds = %88
  %94 = load i32, i32* @I, align 4
  %95 = sext i32 %94 to i64
  %96 = getelementptr inbounds [101 x %"struct.std::pair"], [101 x %"struct.std::pair"]* @pos, i64 0, i64 %95
  %97 = getelementptr inbounds %"struct.std::pair", %"struct.std::pair"* %96, i32 0, i32 0
  %98 = load i32, i32* %97, align 8
  %99 = load i32, i32* @I, align 4
  %100 = sext i32 %99 to i64
  %101 = getelementptr inbounds [101 x %"struct.std::pair"], [101 x %"struct.std::pair"]* @pos, i64 0, i64 %100
  %102 = getelementptr inbounds %"struct.std::pair", %"struct.std::pair"* %101, i32 0, i32 1
  %103 = load i32, i32* %102, align 4
  %104 = load i32, i32* @J, align 4
  %105 = sext i32 %104 to i64
  %106 = getelementptr inbounds [101 x %"struct.std::pair"], [101 x %"struct.std::pair"]* @pos, i64 0, i64 %105
  %107 = getelementptr inbounds %"struct.std::pair", %"struct.std::pair"* %106, i32 0, i32 0
  %108 = load i32, i32* %107, align 8
  store i32 %108, i32* %6, align 4
  %109 = load i32, i32* @J, align 4
  %110 = sext i32 %109 to i64
  %111 = getelementptr inbounds [101 x %"struct.std::pair"], [101 x %"struct.std::pair"]* @pos, i64 0, i64 %110
  %112 = getelementptr inbounds %"struct.std::pair", %"struct.std::pair"* %111, i32 0, i32 1
  %113 = load i32, i32* %112, align 4
  %114 = load i32, i32* @J, align 4
  %115 = icmp ne i32 %114, 0
  br i1 %115, label %136, label %116

116:                                              ; preds = %93
  %117 = icmp ne i32 %103, 0
  br i1 %117, label %118, label %135

118:                                              ; preds = %116
  call void @_Z7destroyiiPSt4pairIiiE(i32 %98, i32 %103, %"struct.std::pair"* getelementptr inbounds ([101 x %"struct.std::pair"], [101 x %"struct.std::pair"]* @pos, i32 0, i32 0))
  %119 = load i32, i32* @I, align 4
  %120 = load i32, i32* @P, align 4
  %121 = sext i32 %120 to i64
  %122 = getelementptr inbounds [10000 x [100 x i32]], [10000 x [100 x i32]]* @p, i64 0, i64 %121
  %123 = getelementptr inbounds [100 x i32], [100 x i32]* %122, i64 0, i64 0
  store i32 %119, i32* %123, align 16
  %124 = load i32, i32* @P, align 4
  %125 = sext i32 %124 to i64
  %126 = getelementptr inbounds [10000 x i32], [10000 x i32]* @s, i64 0, i64 %125
  store i32 1, i32* %126, align 4
  %127 = load i32, i32* @P, align 4
  %128 = add nsw i32 %127, 1
  store i32 %128, i32* @P, align 4
  store i32 %127, i32* %8, align 4
  store i32 0, i32* %9, align 4
  %129 = call i64 @_ZSt9make_pairIiiESt4pairINSt17__decay_and_stripIT_E6__typeENS1_IT0_E6__typeEEOS2_OS5_(i32* dereferenceable(4) %8, i32* dereferenceable(4) %9)
  %130 = bitcast %"struct.std::pair"* %7 to i64*
  store i64 %129, i64* %130, align 4
  %131 = load i32, i32* @I, align 4
  %132 = sext i32 %131 to i64
  %133 = getelementptr inbounds [101 x %"struct.std::pair"], [101 x %"struct.std::pair"]* @pos, i64 0, i64 %132
  %134 = call dereferenceable(8) %"struct.std::pair"* @_ZNSt4pairIiiEaSEOS0_(%"struct.std::pair"* %133, %"struct.std::pair"* dereferenceable(8) %7) #3
  br label %135

135:                                              ; preds = %118, %116
  br label %187

136:                                              ; preds = %93
  %137 = load i32, i32* %6, align 4
  %138 = icmp eq i32 %98, %137
  br i1 %138, label %139, label %164

139:                                              ; preds = %136
  %140 = icmp sgt i32 %103, %113
  br i1 %140, label %141, label %142

141:                                              ; preds = %139
  br label %71

142:                                              ; preds = %139
  %143 = load i32, i32* @P, align 4
  %144 = add nsw i32 %143, %113
  %145 = sub nsw i32 %144, %103
  %146 = sub nsw i32 %145, 1
  store i32 %146, i32* %10, align 4
  call void @_Z7destroyiiPSt4pairIiiE(i32 %98, i32 %103, %"struct.std::pair"* getelementptr inbounds ([101 x %"struct.std::pair"], [101 x %"struct.std::pair"]* @pos, i32 0, i32 0))
  %147 = load i32, i32* @I, align 4
  %148 = load i32, i32* %10, align 4
  %149 = sext i32 %148 to i64
  %150 = getelementptr inbounds [10000 x [100 x i32]], [10000 x [100 x i32]]* @p, i64 0, i64 %149
  %151 = getelementptr inbounds [100 x i32], [100 x i32]* %150, i64 0, i64 1
  store i32 %147, i32* %151, align 4
  %152 = load i32, i32* %10, align 4
  %153 = sext i32 %152 to i64
  %154 = getelementptr inbounds [10000 x i32], [10000 x i32]* @s, i64 0, i64 %153
  %155 = load i32, i32* %154, align 4
  %156 = add nsw i32 %155, 1
  store i32 %156, i32* %154, align 4
  store i32 1, i32* %12, align 4
  %157 = call i64 @_ZSt9make_pairIRiiESt4pairINSt17__decay_and_stripIT_E6__typeENS2_IT0_E6__typeEEOS3_OS6_(i32* dereferenceable(4) %10, i32* dereferenceable(4) %12)
  %158 = bitcast %"struct.std::pair"* %11 to i64*
  store i64 %157, i64* %158, align 4
  %159 = load i32, i32* @I, align 4
  %160 = sext i32 %159 to i64
  %161 = getelementptr inbounds [101 x %"struct.std::pair"], [101 x %"struct.std::pair"]* @pos, i64 0, i64 %160
  %162 = call dereferenceable(8) %"struct.std::pair"* @_ZNSt4pairIiiEaSEOS0_(%"struct.std::pair"* %161, %"struct.std::pair"* dereferenceable(8) %11) #3
  br label %163

163:                                              ; preds = %142
  br label %186

164:                                              ; preds = %136
  call void @_Z7destroyiiPSt4pairIiiE(i32 %98, i32 %103, %"struct.std::pair"* getelementptr inbounds ([101 x %"struct.std::pair"], [101 x %"struct.std::pair"]* @pos, i32 0, i32 0))
  %165 = load i32, i32* @I, align 4
  %166 = load i32, i32* %6, align 4
  %167 = sext i32 %166 to i64
  %168 = getelementptr inbounds [10000 x [100 x i32]], [10000 x [100 x i32]]* @p, i64 0, i64 %167
  %169 = load i32, i32* %6, align 4
  %170 = sext i32 %169 to i64
  %171 = getelementptr inbounds [10000 x i32], [10000 x i32]* @s, i64 0, i64 %170
  %172 = load i32, i32* %171, align 4
  %173 = sext i32 %172 to i64
  %174 = getelementptr inbounds [100 x i32], [100 x i32]* %168, i64 0, i64 %173
  store i32 %165, i32* %174, align 4
  %175 = load i32, i32* %6, align 4
  %176 = sext i32 %175 to i64
  %177 = getelementptr inbounds [10000 x i32], [10000 x i32]* @s, i64 0, i64 %176
  %178 = load i32, i32* %177, align 4
  %179 = add nsw i32 %178, 1
  store i32 %179, i32* %177, align 4
  store i32 %178, i32* %14, align 4
  %180 = call i64 @_ZSt9make_pairIRiiESt4pairINSt17__decay_and_stripIT_E6__typeENS2_IT0_E6__typeEEOS3_OS6_(i32* dereferenceable(4) %6, i32* dereferenceable(4) %14)
  %181 = bitcast %"struct.std::pair"* %13 to i64*
  store i64 %180, i64* %181, align 4
  %182 = load i32, i32* @I, align 4
  %183 = sext i32 %182 to i64
  %184 = getelementptr inbounds [101 x %"struct.std::pair"], [101 x %"struct.std::pair"]* @pos, i64 0, i64 %183
  %185 = call dereferenceable(8) %"struct.std::pair"* @_ZNSt4pairIiiEaSEOS0_(%"struct.std::pair"* %184, %"struct.std::pair"* dereferenceable(8) %13) #3
  br label %186

186:                                              ; preds = %164, %163
  br label %187

187:                                              ; preds = %186, %135
  br label %71

188:                                              ; preds = %86
  call void @_ZSt4sortIPiEvT_S1_(i32* getelementptr inbounds ([10000 x i32], [10000 x i32]* @s, i32 0, i32 0), i32* getelementptr inbounds ([10000 x i32], [10000 x i32]* @s, i64 1, i64 0))
  br label %189

189:                                              ; preds = %206, %188
  %.0 = phi i32 [ 0, %188 ], [ %207, %206 ]
  %190 = icmp slt i32 %.0, 10000
  br i1 %190, label %191, label %208

191:                                              ; preds = %189
  %192 = sext i32 %.0 to i64
  %193 = getelementptr inbounds [10000 x i32], [10000 x i32]* @s, i64 0, i64 %192
  %194 = load i32, i32* %193, align 4
  %195 = icmp ne i32 %194, 0
  br i1 %195, label %196, label %205

196:                                              ; preds = %191
  %197 = sext i32 %.0 to i64
  %198 = getelementptr inbounds [10000 x i32], [10000 x i32]* @s, i64 0, i64 %197
  %199 = load i32, i32* %198, align 4
  %200 = call dereferenceable(272) %"class.std::basic_ostream"* @_ZNSolsEi(%"class.std::basic_ostream"* @_ZSt4cout, i32 %199)
  %201 = icmp slt i32 %.0, 9999
  %202 = zext i1 %201 to i64
  %203 = select i1 %201, i8* getelementptr inbounds ([2 x i8], [2 x i8]* @.str, i32 0, i32 0), i8* getelementptr inbounds ([6 x i8], [6 x i8]* @.str.1, i32 0, i32 0)
  %204 = call dereferenceable(272) %"class.std::basic_ostream"* @_ZStlsISt11char_traitsIcEERSt13basic_ostreamIcT_ES5_PKc(%"class.std::basic_ostream"* dereferenceable(272) %200, i8* %203)
  br label %205

205:                                              ; preds = %196, %191
  br label %206

206:                                              ; preds = %205
  %207 = add nsw i32 %.0, 1
  br label %189

208:                                              ; preds = %189
  br label %15

209:                                              ; preds = %29
  ret i32 0
}

declare dereferenceable(280) %"class.std::basic_istream"* @_ZNSirsERi(%"class.std::basic_istream"*, i32* dereferenceable(4)) #1

declare zeroext i1 @_ZNKSt9basic_iosIcSt11char_traitsIcEEcvbEv(%"class.std::basic_ios"*) #1

; Function Attrs: noinline uwtable
define linkonce_odr void @_ZSt4fillIPiiEvT_S1_RKT0_(i32* %0, i32* %1, i32* dereferenceable(4) %2) #0 comdat {
  %4 = call i32* @_ZSt12__niter_baseIPiET_S1_(i32* %0)
  %5 = call i32* @_ZSt12__niter_baseIPiET_S1_(i32* %1)
  call void @_ZSt8__fill_aIPiiEN9__gnu_cxx11__enable_ifIXsr11__is_scalarIT0_EE7__valueEvE6__typeET_S6_RKS3_(i32* %4, i32* %5, i32* dereferenceable(4) %2)
  ret void
}

; Function Attrs: noinline uwtable
define linkonce_odr i64 @_ZSt9make_pairIRiiESt4pairINSt17__decay_and_stripIT_E6__typeENS2_IT0_E6__typeEEOS3_OS6_(i32* dereferenceable(4) %0, i32* dereferenceable(4) %1) #0 comdat {
  %3 = alloca %"struct.std::pair", align 4
  %4 = call dereferenceable(4) i32* @_ZSt7forwardIRiEOT_RNSt16remove_referenceIS1_E4typeE(i32* dereferenceable(4) %0) #3
  %5 = call dereferenceable(4) i32* @_ZSt7forwardIiEOT_RNSt16remove_referenceIS0_E4typeE(i32* dereferenceable(4) %1) #3
  call void @_ZNSt4pairIiiEC2IRiiLb1EEEOT_OT0_(%"struct.std::pair"* %3, i32* dereferenceable(4) %4, i32* dereferenceable(4) %5)
  %6 = bitcast %"struct.std::pair"* %3 to i64*
  %7 = load i64, i64* %6, align 4
  ret i64 %7
}

; Function Attrs: noinline uwtable
define linkonce_odr void @_ZSt4sortIPiEvT_S1_(i32* %0, i32* %1) #0 comdat {
  call void @_ZN9__gnu_cxx5__ops16__iter_less_iterEv()
  call void @_ZSt6__sortIPiN9__gnu_cxx5__ops15_Iter_less_iterEEvT_S4_T0_(i32* %0, i32* %1)
  ret void
}

declare dereferenceable(272) %"class.std::basic_ostream"* @_ZStlsISt11char_traitsIcEERSt13basic_ostreamIcT_ES5_PKc(%"class.std::basic_ostream"* dereferenceable(272), i8*) #1

declare dereferenceable(272) %"class.std::basic_ostream"* @_ZNSolsEi(%"class.std::basic_ostream"*, i32) #1

; Function Attrs: noinline nounwind uwtable
define linkonce_odr dereferenceable(4) i32* @_ZSt7forwardIiEOT_RNSt16remove_referenceIS0_E4typeE(i32* dereferenceable(4) %0) #4 comdat {
  ret i32* %0
}

; Function Attrs: noinline nounwind uwtable
define linkonce_odr void @_ZNSt4pairIiiEC2IiiLb1EEEOT_OT0_(%"struct.std::pair"* %0, i32* dereferenceable(4) %1, i32* dereferenceable(4) %2) unnamed_addr #4 comdat align 2 {
  %4 = bitcast %"struct.std::pair"* %0 to %"class.std::__pair_base"*
  %5 = getelementptr inbounds %"struct.std::pair", %"struct.std::pair"* %0, i32 0, i32 0
  %6 = call dereferenceable(4) i32* @_ZSt7forwardIiEOT_RNSt16remove_referenceIS0_E4typeE(i32* dereferenceable(4) %1) #3
  %7 = load i32, i32* %6, align 4
  store i32 %7, i32* %5, align 4
  %8 = getelementptr inbounds %"struct.std::pair", %"struct.std::pair"* %0, i32 0, i32 1
  %9 = call dereferenceable(4) i32* @_ZSt7forwardIiEOT_RNSt16remove_referenceIS0_E4typeE(i32* dereferenceable(4) %2) #3
  %10 = load i32, i32* %9, align 4
  store i32 %10, i32* %8, align 4
  ret void
}

; Function Attrs: noinline nounwind uwtable
define linkonce_odr dereferenceable(4) i32* @_ZSt7forwardIRiEOT_RNSt16remove_referenceIS1_E4typeE(i32* dereferenceable(4) %0) #4 comdat {
  ret i32* %0
}

; Function Attrs: noinline nounwind uwtable
define linkonce_odr void @_ZNSt4pairIiiEC2IRiiLb1EEEOT_OT0_(%"struct.std::pair"* %0, i32* dereferenceable(4) %1, i32* dereferenceable(4) %2) unnamed_addr #4 comdat align 2 {
  %4 = bitcast %"struct.std::pair"* %0 to %"class.std::__pair_base"*
  %5 = getelementptr inbounds %"struct.std::pair", %"struct.std::pair"* %0, i32 0, i32 0
  %6 = call dereferenceable(4) i32* @_ZSt7forwardIRiEOT_RNSt16remove_referenceIS1_E4typeE(i32* dereferenceable(4) %1) #3
  %7 = load i32, i32* %6, align 4
  store i32 %7, i32* %5, align 4
  %8 = getelementptr inbounds %"struct.std::pair", %"struct.std::pair"* %0, i32 0, i32 1
  %9 = call dereferenceable(4) i32* @_ZSt7forwardIiEOT_RNSt16remove_referenceIS0_E4typeE(i32* dereferenceable(4) %2) #3
  %10 = load i32, i32* %9, align 4
  store i32 %10, i32* %8, align 4
  ret void
}

; Function Attrs: noinline nounwind uwtable
define linkonce_odr void @_ZSt8__fill_aIPiiEN9__gnu_cxx11__enable_ifIXsr11__is_scalarIT0_EE7__valueEvE6__typeET_S6_RKS3_(i32* %0, i32* %1, i32* dereferenceable(4) %2) #4 comdat {
  %4 = load i32, i32* %2, align 4
  br label %5

5:                                                ; preds = %8, %3
  %.0 = phi i32* [ %0, %3 ], [ %9, %8 ]
  %6 = icmp ne i32* %.0, %1
  br i1 %6, label %7, label %10

7:                                                ; preds = %5
  store i32 %4, i32* %.0, align 4
  br label %8

8:                                                ; preds = %7
  %9 = getelementptr inbounds i32, i32* %.0, i32 1
  br label %5

10:                                               ; preds = %5
  ret void
}

; Function Attrs: noinline nounwind uwtable
define linkonce_odr i32* @_ZSt12__niter_baseIPiET_S1_(i32* %0) #4 comdat {
  ret i32* %0
}

; Function Attrs: noinline uwtable
define linkonce_odr void @_ZSt6__sortIPiN9__gnu_cxx5__ops15_Iter_less_iterEEvT_S4_T0_(i32* %0, i32* %1) #0 comdat {
  %3 = icmp ne i32* %0, %1
  br i1 %3, label %4, label %11

4:                                                ; preds = %2
  %5 = ptrtoint i32* %1 to i64
  %6 = ptrtoint i32* %0 to i64
  %7 = sub i64 %5, %6
  %8 = sdiv exact i64 %7, 4
  %9 = call i64 @_ZSt4__lgl(i64 %8)
  %10 = mul nsw i64 %9, 2
  call void @_ZSt16__introsort_loopIPilN9__gnu_cxx5__ops15_Iter_less_iterEEvT_S4_T0_T1_(i32* %0, i32* %1, i64 %10)
  call void @_ZSt22__final_insertion_sortIPiN9__gnu_cxx5__ops15_Iter_less_iterEEvT_S4_T0_(i32* %0, i32* %1)
  br label %11

11:                                               ; preds = %4, %2
  ret void
}

; Function Attrs: noinline nounwind uwtable
define linkonce_odr void @_ZN9__gnu_cxx5__ops16__iter_less_iterEv() #4 comdat {
  ret void
}

; Function Attrs: noinline uwtable
define linkonce_odr void @_ZSt16__introsort_loopIPilN9__gnu_cxx5__ops15_Iter_less_iterEEvT_S4_T0_T1_(i32* %0, i32* %1, i64 %2) #0 comdat {
  br label %4

4:                                                ; preds = %13, %3
  %.01 = phi i32* [ %1, %3 ], [ %15, %13 ]
  %.0 = phi i64 [ %2, %3 ], [ %14, %13 ]
  %5 = ptrtoint i32* %.01 to i64
  %6 = ptrtoint i32* %0 to i64
  %7 = sub i64 %5, %6
  %8 = sdiv exact i64 %7, 4
  %9 = icmp sgt i64 %8, 16
  br i1 %9, label %10, label %16

10:                                               ; preds = %4
  %11 = icmp eq i64 %.0, 0
  br i1 %11, label %12, label %13

12:                                               ; preds = %10
  call void @_ZSt14__partial_sortIPiN9__gnu_cxx5__ops15_Iter_less_iterEEvT_S4_S4_T0_(i32* %0, i32* %.01, i32* %.01)
  br label %16

13:                                               ; preds = %10
  %14 = add nsw i64 %.0, -1
  %15 = call i32* @_ZSt27__unguarded_partition_pivotIPiN9__gnu_cxx5__ops15_Iter_less_iterEET_S4_S4_T0_(i32* %0, i32* %.01)
  call void @_ZSt16__introsort_loopIPilN9__gnu_cxx5__ops15_Iter_less_iterEEvT_S4_T0_T1_(i32* %15, i32* %.01, i64 %14)
  br label %4

16:                                               ; preds = %12, %4
  ret void
}

; Function Attrs: noinline nounwind uwtable
define linkonce_odr i64 @_ZSt4__lgl(i64 %0) #4 comdat {
  %2 = call i64 @llvm.ctlz.i64(i64 %0, i1 true)
  %3 = trunc i64 %2 to i32
  %4 = sub nsw i32 63, %3
  %5 = sext i32 %4 to i64
  ret i64 %5
}

; Function Attrs: noinline uwtable
define linkonce_odr void @_ZSt22__final_insertion_sortIPiN9__gnu_cxx5__ops15_Iter_less_iterEEvT_S4_T0_(i32* %0, i32* %1) #0 comdat {
  %3 = ptrtoint i32* %1 to i64
  %4 = ptrtoint i32* %0 to i64
  %5 = sub i64 %3, %4
  %6 = sdiv exact i64 %5, 4
  %7 = icmp sgt i64 %6, 16
  br i1 %7, label %8, label %11

8:                                                ; preds = %2
  %9 = getelementptr inbounds i32, i32* %0, i64 16
  call void @_ZSt16__insertion_sortIPiN9__gnu_cxx5__ops15_Iter_less_iterEEvT_S4_T0_(i32* %0, i32* %9)
  %10 = getelementptr inbounds i32, i32* %0, i64 16
  call void @_ZSt26__unguarded_insertion_sortIPiN9__gnu_cxx5__ops15_Iter_less_iterEEvT_S4_T0_(i32* %10, i32* %1)
  br label %12

11:                                               ; preds = %2
  call void @_ZSt16__insertion_sortIPiN9__gnu_cxx5__ops15_Iter_less_iterEEvT_S4_T0_(i32* %0, i32* %1)
  br label %12

12:                                               ; preds = %11, %8
  ret void
}

; Function Attrs: noinline uwtable
define linkonce_odr void @_ZSt14__partial_sortIPiN9__gnu_cxx5__ops15_Iter_less_iterEEvT_S4_S4_T0_(i32* %0, i32* %1, i32* %2) #0 comdat {
  %4 = alloca %"struct.__gnu_cxx::__ops::_Iter_less_iter", align 1
  call void @_ZSt13__heap_selectIPiN9__gnu_cxx5__ops15_Iter_less_iterEEvT_S4_S4_T0_(i32* %0, i32* %1, i32* %2)
  call void @_ZSt11__sort_heapIPiN9__gnu_cxx5__ops15_Iter_less_iterEEvT_S4_RT0_(i32* %0, i32* %1, %"struct.__gnu_cxx::__ops::_Iter_less_iter"* dereferenceable(1) %4)
  ret void
}

; Function Attrs: noinline uwtable
define linkonce_odr i32* @_ZSt27__unguarded_partition_pivotIPiN9__gnu_cxx5__ops15_Iter_less_iterEET_S4_S4_T0_(i32* %0, i32* %1) #0 comdat {
  %3 = ptrtoint i32* %1 to i64
  %4 = ptrtoint i32* %0 to i64
  %5 = sub i64 %3, %4
  %6 = sdiv exact i64 %5, 4
  %7 = sdiv i64 %6, 2
  %8 = getelementptr inbounds i32, i32* %0, i64 %7
  %9 = getelementptr inbounds i32, i32* %0, i64 1
  %10 = getelementptr inbounds i32, i32* %1, i64 -1
  call void @_ZSt22__move_median_to_firstIPiN9__gnu_cxx5__ops15_Iter_less_iterEEvT_S4_S4_S4_T0_(i32* %0, i32* %9, i32* %8, i32* %10)
  %11 = getelementptr inbounds i32, i32* %0, i64 1
  %12 = call i32* @_ZSt21__unguarded_partitionIPiN9__gnu_cxx5__ops15_Iter_less_iterEET_S4_S4_S4_T0_(i32* %11, i32* %1, i32* %0)
  ret i32* %12
}

; Function Attrs: noinline uwtable
define linkonce_odr void @_ZSt13__heap_selectIPiN9__gnu_cxx5__ops15_Iter_less_iterEEvT_S4_S4_T0_(i32* %0, i32* %1, i32* %2) #0 comdat {
  %4 = alloca %"struct.__gnu_cxx::__ops::_Iter_less_iter", align 1
  call void @_ZSt11__make_heapIPiN9__gnu_cxx5__ops15_Iter_less_iterEEvT_S4_RT0_(i32* %0, i32* %1, %"struct.__gnu_cxx::__ops::_Iter_less_iter"* dereferenceable(1) %4)
  br label %5

5:                                                ; preds = %11, %3
  %.0 = phi i32* [ %1, %3 ], [ %12, %11 ]
  %6 = icmp ult i32* %.0, %2
  br i1 %6, label %7, label %13

7:                                                ; preds = %5
  %8 = call zeroext i1 @_ZNK9__gnu_cxx5__ops15_Iter_less_iterclIPiS3_EEbT_T0_(%"struct.__gnu_cxx::__ops::_Iter_less_iter"* %4, i32* %.0, i32* %0)
  br i1 %8, label %9, label %10

9:                                                ; preds = %7
  call void @_ZSt10__pop_heapIPiN9__gnu_cxx5__ops15_Iter_less_iterEEvT_S4_S4_RT0_(i32* %0, i32* %1, i32* %.0, %"struct.__gnu_cxx::__ops::_Iter_less_iter"* dereferenceable(1) %4)
  br label %10

10:                                               ; preds = %9, %7
  br label %11

11:                                               ; preds = %10
  %12 = getelementptr inbounds i32, i32* %.0, i32 1
  br label %5

13:                                               ; preds = %5
  ret void
}

; Function Attrs: noinline uwtable
define linkonce_odr void @_ZSt11__sort_heapIPiN9__gnu_cxx5__ops15_Iter_less_iterEEvT_S4_RT0_(i32* %0, i32* %1, %"struct.__gnu_cxx::__ops::_Iter_less_iter"* dereferenceable(1) %2) #0 comdat {
  br label %4

4:                                                ; preds = %10, %3
  %.0 = phi i32* [ %1, %3 ], [ %11, %10 ]
  %5 = ptrtoint i32* %.0 to i64
  %6 = ptrtoint i32* %0 to i64
  %7 = sub i64 %5, %6
  %8 = sdiv exact i64 %7, 4
  %9 = icmp sgt i64 %8, 1
  br i1 %9, label %10, label %12

10:                                               ; preds = %4
  %11 = getelementptr inbounds i32, i32* %.0, i32 -1
  call void @_ZSt10__pop_heapIPiN9__gnu_cxx5__ops15_Iter_less_iterEEvT_S4_S4_RT0_(i32* %0, i32* %11, i32* %11, %"struct.__gnu_cxx::__ops::_Iter_less_iter"* dereferenceable(1) %2)
  br label %4

12:                                               ; preds = %4
  ret void
}

; Function Attrs: noinline uwtable
define linkonce_odr void @_ZSt11__make_heapIPiN9__gnu_cxx5__ops15_Iter_less_iterEEvT_S4_RT0_(i32* %0, i32* %1, %"struct.__gnu_cxx::__ops::_Iter_less_iter"* dereferenceable(1) %2) #0 comdat {
  %4 = alloca i32, align 4
  %5 = ptrtoint i32* %1 to i64
  %6 = ptrtoint i32* %0 to i64
  %7 = sub i64 %5, %6
  %8 = sdiv exact i64 %7, 4
  %9 = icmp slt i64 %8, 2
  br i1 %9, label %10, label %11

10:                                               ; preds = %3
  br label %28

11:                                               ; preds = %3
  %12 = ptrtoint i32* %1 to i64
  %13 = ptrtoint i32* %0 to i64
  %14 = sub i64 %12, %13
  %15 = sdiv exact i64 %14, 4
  %16 = sub nsw i64 %15, 2
  %17 = sdiv i64 %16, 2
  br label %18

18:                                               ; preds = %26, %11
  %.0 = phi i64 [ %17, %11 ], [ %27, %26 ]
  %19 = getelementptr inbounds i32, i32* %0, i64 %.0
  %20 = call dereferenceable(4) i32* @_ZSt4moveIRiEONSt16remove_referenceIT_E4typeEOS2_(i32* dereferenceable(4) %19) #3
  %21 = load i32, i32* %20, align 4
  store i32 %21, i32* %4, align 4
  %22 = call dereferenceable(4) i32* @_ZSt4moveIRiEONSt16remove_referenceIT_E4typeEOS2_(i32* dereferenceable(4) %4) #3
  %23 = load i32, i32* %22, align 4
  call void @_ZSt13__adjust_heapIPiliN9__gnu_cxx5__ops15_Iter_less_iterEEvT_T0_S5_T1_T2_(i32* %0, i64 %.0, i64 %15, i32 %23)
  %24 = icmp eq i64 %.0, 0
  br i1 %24, label %25, label %26

25:                                               ; preds = %18
  br label %28

26:                                               ; preds = %18
  %27 = add nsw i64 %.0, -1
  br label %18

28:                                               ; preds = %25, %10
  ret void
}

; Function Attrs: noinline nounwind uwtable
define linkonce_odr zeroext i1 @_ZNK9__gnu_cxx5__ops15_Iter_less_iterclIPiS3_EEbT_T0_(%"struct.__gnu_cxx::__ops::_Iter_less_iter"* %0, i32* %1, i32* %2) #4 comdat align 2 {
  %4 = load i32, i32* %1, align 4
  %5 = load i32, i32* %2, align 4
  %6 = icmp slt i32 %4, %5
  ret i1 %6
}

; Function Attrs: noinline uwtable
define linkonce_odr void @_ZSt10__pop_heapIPiN9__gnu_cxx5__ops15_Iter_less_iterEEvT_S4_S4_RT0_(i32* %0, i32* %1, i32* %2, %"struct.__gnu_cxx::__ops::_Iter_less_iter"* dereferenceable(1) %3) #0 comdat {
  %5 = alloca i32, align 4
  %6 = call dereferenceable(4) i32* @_ZSt4moveIRiEONSt16remove_referenceIT_E4typeEOS2_(i32* dereferenceable(4) %2) #3
  %7 = load i32, i32* %6, align 4
  store i32 %7, i32* %5, align 4
  %8 = call dereferenceable(4) i32* @_ZSt4moveIRiEONSt16remove_referenceIT_E4typeEOS2_(i32* dereferenceable(4) %0) #3
  %9 = load i32, i32* %8, align 4
  store i32 %9, i32* %2, align 4
  %10 = ptrtoint i32* %1 to i64
  %11 = ptrtoint i32* %0 to i64
  %12 = sub i64 %10, %11
  %13 = sdiv exact i64 %12, 4
  %14 = call dereferenceable(4) i32* @_ZSt4moveIRiEONSt16remove_referenceIT_E4typeEOS2_(i32* dereferenceable(4) %5) #3
  %15 = load i32, i32* %14, align 4
  call void @_ZSt13__adjust_heapIPiliN9__gnu_cxx5__ops15_Iter_less_iterEEvT_T0_S5_T1_T2_(i32* %0, i64 0, i64 %13, i32 %15)
  ret void
}

; Function Attrs: noinline nounwind uwtable
define linkonce_odr dereferenceable(4) i32* @_ZSt4moveIRiEONSt16remove_referenceIT_E4typeEOS2_(i32* dereferenceable(4) %0) #4 comdat {
  ret i32* %0
}

; Function Attrs: noinline uwtable
define linkonce_odr void @_ZSt13__adjust_heapIPiliN9__gnu_cxx5__ops15_Iter_less_iterEEvT_T0_S5_T1_T2_(i32* %0, i64 %1, i64 %2, i32 %3) #0 comdat {
  %5 = alloca %"struct.__gnu_cxx::__ops::_Iter_less_iter", align 1
  %6 = alloca i32, align 4
  %7 = alloca %"struct.__gnu_cxx::__ops::_Iter_less_val", align 1
  store i32 %3, i32* %6, align 4
  br label %8

8:                                                ; preds = %21, %4
  %.01 = phi i64 [ %1, %4 ], [ %.1, %21 ]
  %.0 = phi i64 [ %1, %4 ], [ %.1, %21 ]
  %9 = sub nsw i64 %2, 1
  %10 = sdiv i64 %9, 2
  %11 = icmp slt i64 %.0, %10
  br i1 %11, label %12, label %26

12:                                               ; preds = %8
  %13 = add nsw i64 %.0, 1
  %14 = mul nsw i64 2, %13
  %15 = getelementptr inbounds i32, i32* %0, i64 %14
  %16 = sub nsw i64 %14, 1
  %17 = getelementptr inbounds i32, i32* %0, i64 %16
  %18 = call zeroext i1 @_ZNK9__gnu_cxx5__ops15_Iter_less_iterclIPiS3_EEbT_T0_(%"struct.__gnu_cxx::__ops::_Iter_less_iter"* %5, i32* %15, i32* %17)
  br i1 %18, label %19, label %21

19:                                               ; preds = %12
  %20 = add nsw i64 %14, -1
  br label %21

21:                                               ; preds = %19, %12
  %.1 = phi i64 [ %20, %19 ], [ %14, %12 ]
  %22 = getelementptr inbounds i32, i32* %0, i64 %.1
  %23 = call dereferenceable(4) i32* @_ZSt4moveIRiEONSt16remove_referenceIT_E4typeEOS2_(i32* dereferenceable(4) %22) #3
  %24 = load i32, i32* %23, align 4
  %25 = getelementptr inbounds i32, i32* %0, i64 %.01
  store i32 %24, i32* %25, align 4
  br label %8

26:                                               ; preds = %8
  %27 = and i64 %2, 1
  %28 = icmp eq i64 %27, 0
  br i1 %28, label %29, label %42

29:                                               ; preds = %26
  %30 = sub nsw i64 %2, 2
  %31 = sdiv i64 %30, 2
  %32 = icmp eq i64 %.0, %31
  br i1 %32, label %33, label %42

33:                                               ; preds = %29
  %34 = add nsw i64 %.0, 1
  %35 = mul nsw i64 2, %34
  %36 = sub nsw i64 %35, 1
  %37 = getelementptr inbounds i32, i32* %0, i64 %36
  %38 = call dereferenceable(4) i32* @_ZSt4moveIRiEONSt16remove_referenceIT_E4typeEOS2_(i32* dereferenceable(4) %37) #3
  %39 = load i32, i32* %38, align 4
  %40 = getelementptr inbounds i32, i32* %0, i64 %.01
  store i32 %39, i32* %40, align 4
  %41 = sub nsw i64 %35, 1
  br label %42

42:                                               ; preds = %33, %29, %26
  %.12 = phi i64 [ %41, %33 ], [ %.01, %29 ], [ %.01, %26 ]
  %43 = call dereferenceable(1) %"struct.__gnu_cxx::__ops::_Iter_less_iter"* @_ZSt4moveIRN9__gnu_cxx5__ops15_Iter_less_iterEEONSt16remove_referenceIT_E4typeEOS5_(%"struct.__gnu_cxx::__ops::_Iter_less_iter"* dereferenceable(1) %5) #3
  call void @_ZN9__gnu_cxx5__ops14_Iter_less_valC2ENS0_15_Iter_less_iterE(%"struct.__gnu_cxx::__ops::_Iter_less_val"* %7)
  %44 = call dereferenceable(4) i32* @_ZSt4moveIRiEONSt16remove_referenceIT_E4typeEOS2_(i32* dereferenceable(4) %6) #3
  %45 = load i32, i32* %44, align 4
  call void @_ZSt11__push_heapIPiliN9__gnu_cxx5__ops14_Iter_less_valEEvT_T0_S5_T1_RT2_(i32* %0, i64 %.12, i64 %1, i32 %45, %"struct.__gnu_cxx::__ops::_Iter_less_val"* dereferenceable(1) %7)
  ret void
}

; Function Attrs: noinline nounwind uwtable
define linkonce_odr dereferenceable(1) %"struct.__gnu_cxx::__ops::_Iter_less_iter"* @_ZSt4moveIRN9__gnu_cxx5__ops15_Iter_less_iterEEONSt16remove_referenceIT_E4typeEOS5_(%"struct.__gnu_cxx::__ops::_Iter_less_iter"* dereferenceable(1) %0) #4 comdat {
  ret %"struct.__gnu_cxx::__ops::_Iter_less_iter"* %0
}

; Function Attrs: noinline nounwind uwtable
define linkonce_odr void @_ZN9__gnu_cxx5__ops14_Iter_less_valC2ENS0_15_Iter_less_iterE(%"struct.__gnu_cxx::__ops::_Iter_less_val"* %0) unnamed_addr #4 comdat align 2 {
  ret void
}

; Function Attrs: noinline uwtable
define linkonce_odr void @_ZSt11__push_heapIPiliN9__gnu_cxx5__ops14_Iter_less_valEEvT_T0_S5_T1_RT2_(i32* %0, i64 %1, i64 %2, i32 %3, %"struct.__gnu_cxx::__ops::_Iter_less_val"* dereferenceable(1) %4) #0 comdat {
  %6 = alloca i32, align 4
  store i32 %3, i32* %6, align 4
  %7 = sub nsw i64 %1, 1
  %8 = sdiv i64 %7, 2
  br label %9

9:                                                ; preds = %16, %5
  %.01 = phi i64 [ %1, %5 ], [ %.0, %16 ]
  %.0 = phi i64 [ %8, %5 ], [ %22, %16 ]
  %10 = icmp sgt i64 %.01, %2
  br i1 %10, label %11, label %14

11:                                               ; preds = %9
  %12 = getelementptr inbounds i32, i32* %0, i64 %.0
  %13 = call zeroext i1 @_ZNK9__gnu_cxx5__ops14_Iter_less_valclIPiiEEbT_RT0_(%"struct.__gnu_cxx::__ops::_Iter_less_val"* %4, i32* %12, i32* dereferenceable(4) %6)
  br label %14

14:                                               ; preds = %11, %9
  %15 = phi i1 [ false, %9 ], [ %13, %11 ]
  br i1 %15, label %16, label %23

16:                                               ; preds = %14
  %17 = getelementptr inbounds i32, i32* %0, i64 %.0
  %18 = call dereferenceable(4) i32* @_ZSt4moveIRiEONSt16remove_referenceIT_E4typeEOS2_(i32* dereferenceable(4) %17) #3
  %19 = load i32, i32* %18, align 4
  %20 = getelementptr inbounds i32, i32* %0, i64 %.01
  store i32 %19, i32* %20, align 4
  %21 = sub nsw i64 %.0, 1
  %22 = sdiv i64 %21, 2
  br label %9

23:                                               ; preds = %14
  %24 = call dereferenceable(4) i32* @_ZSt4moveIRiEONSt16remove_referenceIT_E4typeEOS2_(i32* dereferenceable(4) %6) #3
  %25 = load i32, i32* %24, align 4
  %26 = getelementptr inbounds i32, i32* %0, i64 %.01
  store i32 %25, i32* %26, align 4
  ret void
}

; Function Attrs: noinline nounwind uwtable
define linkonce_odr zeroext i1 @_ZNK9__gnu_cxx5__ops14_Iter_less_valclIPiiEEbT_RT0_(%"struct.__gnu_cxx::__ops::_Iter_less_val"* %0, i32* %1, i32* dereferenceable(4) %2) #4 comdat align 2 {
  %4 = load i32, i32* %1, align 4
  %5 = load i32, i32* %2, align 4
  %6 = icmp slt i32 %4, %5
  ret i1 %6
}

; Function Attrs: noinline uwtable
define linkonce_odr void @_ZSt22__move_median_to_firstIPiN9__gnu_cxx5__ops15_Iter_less_iterEEvT_S4_S4_S4_T0_(i32* %0, i32* %1, i32* %2, i32* %3) #0 comdat {
  %5 = alloca %"struct.__gnu_cxx::__ops::_Iter_less_iter", align 1
  %6 = call zeroext i1 @_ZNK9__gnu_cxx5__ops15_Iter_less_iterclIPiS3_EEbT_T0_(%"struct.__gnu_cxx::__ops::_Iter_less_iter"* %5, i32* %1, i32* %2)
  br i1 %6, label %7, label %16

7:                                                ; preds = %4
  %8 = call zeroext i1 @_ZNK9__gnu_cxx5__ops15_Iter_less_iterclIPiS3_EEbT_T0_(%"struct.__gnu_cxx::__ops::_Iter_less_iter"* %5, i32* %2, i32* %3)
  br i1 %8, label %9, label %10

9:                                                ; preds = %7
  call void @_ZSt9iter_swapIPiS0_EvT_T0_(i32* %0, i32* %2)
  br label %15

10:                                               ; preds = %7
  %11 = call zeroext i1 @_ZNK9__gnu_cxx5__ops15_Iter_less_iterclIPiS3_EEbT_T0_(%"struct.__gnu_cxx::__ops::_Iter_less_iter"* %5, i32* %1, i32* %3)
  br i1 %11, label %12, label %13

12:                                               ; preds = %10
  call void @_ZSt9iter_swapIPiS0_EvT_T0_(i32* %0, i32* %3)
  br label %14

13:                                               ; preds = %10
  call void @_ZSt9iter_swapIPiS0_EvT_T0_(i32* %0, i32* %1)
  br label %14

14:                                               ; preds = %13, %12
  br label %15

15:                                               ; preds = %14, %9
  br label %25

16:                                               ; preds = %4
  %17 = call zeroext i1 @_ZNK9__gnu_cxx5__ops15_Iter_less_iterclIPiS3_EEbT_T0_(%"struct.__gnu_cxx::__ops::_Iter_less_iter"* %5, i32* %1, i32* %3)
  br i1 %17, label %18, label %19

18:                                               ; preds = %16
  call void @_ZSt9iter_swapIPiS0_EvT_T0_(i32* %0, i32* %1)
  br label %24

19:                                               ; preds = %16
  %20 = call zeroext i1 @_ZNK9__gnu_cxx5__ops15_Iter_less_iterclIPiS3_EEbT_T0_(%"struct.__gnu_cxx::__ops::_Iter_less_iter"* %5, i32* %2, i32* %3)
  br i1 %20, label %21, label %22

21:                                               ; preds = %19
  call void @_ZSt9iter_swapIPiS0_EvT_T0_(i32* %0, i32* %3)
  br label %23

22:                                               ; preds = %19
  call void @_ZSt9iter_swapIPiS0_EvT_T0_(i32* %0, i32* %2)
  br label %23

23:                                               ; preds = %22, %21
  br label %24

24:                                               ; preds = %23, %18
  br label %25

25:                                               ; preds = %24, %15
  ret void
}

; Function Attrs: noinline nounwind uwtable
define linkonce_odr i32* @_ZSt21__unguarded_partitionIPiN9__gnu_cxx5__ops15_Iter_less_iterEET_S4_S4_S4_T0_(i32* %0, i32* %1, i32* %2) #4 comdat {
  %4 = alloca %"struct.__gnu_cxx::__ops::_Iter_less_iter", align 1
  br label %5

5:                                                ; preds = %19, %3
  %.01 = phi i32* [ %1, %3 ], [ %.12, %19 ]
  %.0 = phi i32* [ %0, %3 ], [ %20, %19 ]
  br label %6

6:                                                ; preds = %8, %5
  %.1 = phi i32* [ %.0, %5 ], [ %9, %8 ]
  %7 = call zeroext i1 @_ZNK9__gnu_cxx5__ops15_Iter_less_iterclIPiS3_EEbT_T0_(%"struct.__gnu_cxx::__ops::_Iter_less_iter"* %4, i32* %.1, i32* %2)
  br i1 %7, label %8, label %10

8:                                                ; preds = %6
  %9 = getelementptr inbounds i32, i32* %.1, i32 1
  br label %6

10:                                               ; preds = %6
  %11 = getelementptr inbounds i32, i32* %.01, i32 -1
  br label %12

12:                                               ; preds = %14, %10
  %.12 = phi i32* [ %11, %10 ], [ %15, %14 ]
  %13 = call zeroext i1 @_ZNK9__gnu_cxx5__ops15_Iter_less_iterclIPiS3_EEbT_T0_(%"struct.__gnu_cxx::__ops::_Iter_less_iter"* %4, i32* %2, i32* %.12)
  br i1 %13, label %14, label %16

14:                                               ; preds = %12
  %15 = getelementptr inbounds i32, i32* %.12, i32 -1
  br label %12

16:                                               ; preds = %12
  %17 = icmp ult i32* %.1, %.12
  br i1 %17, label %19, label %18

18:                                               ; preds = %16
  ret i32* %.1

19:                                               ; preds = %16
  call void @_ZSt9iter_swapIPiS0_EvT_T0_(i32* %.1, i32* %.12)
  %20 = getelementptr inbounds i32, i32* %.1, i32 1
  br label %5
}

; Function Attrs: noinline nounwind uwtable
define linkonce_odr void @_ZSt9iter_swapIPiS0_EvT_T0_(i32* %0, i32* %1) #4 comdat {
  call void @_ZSt4swapIiENSt9enable_ifIXsr6__and_ISt6__not_ISt15__is_tuple_likeIT_EESt21is_move_constructibleIS3_ESt18is_move_assignableIS3_EEE5valueEvE4typeERS3_SC_(i32* dereferenceable(4) %0, i32* dereferenceable(4) %1) #3
  ret void
}

; Function Attrs: noinline nounwind uwtable
define linkonce_odr void @_ZSt4swapIiENSt9enable_ifIXsr6__and_ISt6__not_ISt15__is_tuple_likeIT_EESt21is_move_constructibleIS3_ESt18is_move_assignableIS3_EEE5valueEvE4typeERS3_SC_(i32* dereferenceable(4) %0, i32* dereferenceable(4) %1) #4 comdat {
  %3 = alloca i32, align 4
  %4 = call dereferenceable(4) i32* @_ZSt4moveIRiEONSt16remove_referenceIT_E4typeEOS2_(i32* dereferenceable(4) %0) #3
  %5 = load i32, i32* %4, align 4
  store i32 %5, i32* %3, align 4
  %6 = call dereferenceable(4) i32* @_ZSt4moveIRiEONSt16remove_referenceIT_E4typeEOS2_(i32* dereferenceable(4) %1) #3
  %7 = load i32, i32* %6, align 4
  store i32 %7, i32* %0, align 4
  %8 = call dereferenceable(4) i32* @_ZSt4moveIRiEONSt16remove_referenceIT_E4typeEOS2_(i32* dereferenceable(4) %3) #3
  %9 = load i32, i32* %8, align 4
  store i32 %9, i32* %1, align 4
  ret void
}

; Function Attrs: nocallback nofree nosync nounwind readnone speculatable willreturn
declare i64 @llvm.ctlz.i64(i64, i1 immarg) #6

; Function Attrs: noinline uwtable
define linkonce_odr void @_ZSt16__insertion_sortIPiN9__gnu_cxx5__ops15_Iter_less_iterEEvT_S4_T0_(i32* %0, i32* %1) #0 comdat {
  %3 = alloca %"struct.__gnu_cxx::__ops::_Iter_less_iter", align 1
  %4 = alloca i32, align 4
  %5 = icmp eq i32* %0, %1
  br i1 %5, label %6, label %7

6:                                                ; preds = %2
  br label %24

7:                                                ; preds = %2
  %8 = getelementptr inbounds i32, i32* %0, i64 1
  br label %9

9:                                                ; preds = %22, %7
  %.0 = phi i32* [ %8, %7 ], [ %23, %22 ]
  %10 = icmp ne i32* %.0, %1
  br i1 %10, label %11, label %24

11:                                               ; preds = %9
  %12 = call zeroext i1 @_ZNK9__gnu_cxx5__ops15_Iter_less_iterclIPiS3_EEbT_T0_(%"struct.__gnu_cxx::__ops::_Iter_less_iter"* %3, i32* %.0, i32* %0)
  br i1 %12, label %13, label %20

13:                                               ; preds = %11
  %14 = call dereferenceable(4) i32* @_ZSt4moveIRiEONSt16remove_referenceIT_E4typeEOS2_(i32* dereferenceable(4) %.0) #3
  %15 = load i32, i32* %14, align 4
  store i32 %15, i32* %4, align 4
  %16 = getelementptr inbounds i32, i32* %.0, i64 1
  %17 = call i32* @_ZSt13move_backwardIPiS0_ET0_T_S2_S1_(i32* %0, i32* %.0, i32* %16)
  %18 = call dereferenceable(4) i32* @_ZSt4moveIRiEONSt16remove_referenceIT_E4typeEOS2_(i32* dereferenceable(4) %4) #3
  %19 = load i32, i32* %18, align 4
  store i32 %19, i32* %0, align 4
  br label %21

20:                                               ; preds = %11
  call void @_ZN9__gnu_cxx5__ops15__val_comp_iterENS0_15_Iter_less_iterE()
  call void @_ZSt25__unguarded_linear_insertIPiN9__gnu_cxx5__ops14_Val_less_iterEEvT_T0_(i32* %.0)
  br label %21

21:                                               ; preds = %20, %13
  br label %22

22:                                               ; preds = %21
  %23 = getelementptr inbounds i32, i32* %.0, i32 1
  br label %9

24:                                               ; preds = %9, %6
  ret void
}

; Function Attrs: noinline uwtable
define linkonce_odr void @_ZSt26__unguarded_insertion_sortIPiN9__gnu_cxx5__ops15_Iter_less_iterEEvT_S4_T0_(i32* %0, i32* %1) #0 comdat {
  br label %3

3:                                                ; preds = %6, %2
  %.0 = phi i32* [ %0, %2 ], [ %7, %6 ]
  %4 = icmp ne i32* %.0, %1
  br i1 %4, label %5, label %8

5:                                                ; preds = %3
  call void @_ZN9__gnu_cxx5__ops15__val_comp_iterENS0_15_Iter_less_iterE()
  call void @_ZSt25__unguarded_linear_insertIPiN9__gnu_cxx5__ops14_Val_less_iterEEvT_T0_(i32* %.0)
  br label %6

6:                                                ; preds = %5
  %7 = getelementptr inbounds i32, i32* %.0, i32 1
  br label %3

8:                                                ; preds = %3
  ret void
}

; Function Attrs: noinline uwtable
define linkonce_odr i32* @_ZSt13move_backwardIPiS0_ET0_T_S2_S1_(i32* %0, i32* %1, i32* %2) #0 comdat {
  %4 = call i32* @_ZSt12__miter_baseIPiET_S1_(i32* %0)
  %5 = call i32* @_ZSt12__miter_baseIPiET_S1_(i32* %1)
  %6 = call i32* @_ZSt23__copy_move_backward_a2ILb1EPiS0_ET1_T0_S2_S1_(i32* %4, i32* %5, i32* %2)
  ret i32* %6
}

; Function Attrs: noinline uwtable
define linkonce_odr void @_ZSt25__unguarded_linear_insertIPiN9__gnu_cxx5__ops14_Val_less_iterEEvT_T0_(i32* %0) #0 comdat {
  %2 = alloca %"struct.__gnu_cxx::__ops::_Val_less_iter", align 1
  %3 = alloca i32, align 4
  %4 = call dereferenceable(4) i32* @_ZSt4moveIRiEONSt16remove_referenceIT_E4typeEOS2_(i32* dereferenceable(4) %0) #3
  %5 = load i32, i32* %4, align 4
  store i32 %5, i32* %3, align 4
  %6 = getelementptr inbounds i32, i32* %0, i32 -1
  br label %7

7:                                                ; preds = %9, %1
  %.01 = phi i32* [ %6, %1 ], [ %12, %9 ]
  %.0 = phi i32* [ %0, %1 ], [ %.01, %9 ]
  %8 = call zeroext i1 @_ZNK9__gnu_cxx5__ops14_Val_less_iterclIiPiEEbRT_T0_(%"struct.__gnu_cxx::__ops::_Val_less_iter"* %2, i32* dereferenceable(4) %3, i32* %.01)
  br i1 %8, label %9, label %13

9:                                                ; preds = %7
  %10 = call dereferenceable(4) i32* @_ZSt4moveIRiEONSt16remove_referenceIT_E4typeEOS2_(i32* dereferenceable(4) %.01) #3
  %11 = load i32, i32* %10, align 4
  store i32 %11, i32* %.0, align 4
  %12 = getelementptr inbounds i32, i32* %.01, i32 -1
  br label %7

13:                                               ; preds = %7
  %14 = call dereferenceable(4) i32* @_ZSt4moveIRiEONSt16remove_referenceIT_E4typeEOS2_(i32* dereferenceable(4) %3) #3
  %15 = load i32, i32* %14, align 4
  store i32 %15, i32* %.0, align 4
  ret void
}

; Function Attrs: noinline nounwind uwtable
define linkonce_odr void @_ZN9__gnu_cxx5__ops15__val_comp_iterENS0_15_Iter_less_iterE() #4 comdat {
  ret void
}

; Function Attrs: noinline uwtable
define linkonce_odr i32* @_ZSt23__copy_move_backward_a2ILb1EPiS0_ET1_T0_S2_S1_(i32* %0, i32* %1, i32* %2) #0 comdat {
  %4 = call i32* @_ZSt12__niter_baseIPiET_S1_(i32* %0)
  %5 = call i32* @_ZSt12__niter_baseIPiET_S1_(i32* %1)
  %6 = call i32* @_ZSt12__niter_baseIPiET_S1_(i32* %2)
  %7 = call i32* @_ZSt22__copy_move_backward_aILb1EPiS0_ET1_T0_S2_S1_(i32* %4, i32* %5, i32* %6)
  ret i32* %7
}

; Function Attrs: noinline nounwind uwtable
define linkonce_odr i32* @_ZSt12__miter_baseIPiET_S1_(i32* %0) #4 comdat {
  ret i32* %0
}

; Function Attrs: noinline uwtable
define linkonce_odr i32* @_ZSt22__copy_move_backward_aILb1EPiS0_ET1_T0_S2_S1_(i32* %0, i32* %1, i32* %2) #0 comdat {
  %4 = call i32* @_ZNSt20__copy_move_backwardILb1ELb1ESt26random_access_iterator_tagE13__copy_move_bIiEEPT_PKS3_S6_S4_(i32* %0, i32* %1, i32* %2)
  ret i32* %4
}

; Function Attrs: noinline nounwind uwtable
define linkonce_odr i32* @_ZNSt20__copy_move_backwardILb1ELb1ESt26random_access_iterator_tagE13__copy_move_bIiEEPT_PKS3_S6_S4_(i32* %0, i32* %1, i32* %2) #4 comdat align 2 {
  %4 = ptrtoint i32* %1 to i64
  %5 = ptrtoint i32* %0 to i64
  %6 = sub i64 %4, %5
  %7 = sdiv exact i64 %6, 4
  %8 = icmp ne i64 %7, 0
  br i1 %8, label %9, label %15

9:                                                ; preds = %3
  %10 = sub i64 0, %7
  %11 = getelementptr inbounds i32, i32* %2, i64 %10
  %12 = bitcast i32* %11 to i8*
  %13 = bitcast i32* %0 to i8*
  %14 = mul i64 4, %7
  call void @llvm.memmove.p0i8.p0i8.i64(i8* align 4 %12, i8* align 4 %13, i64 %14, i1 false)
  br label %15

15:                                               ; preds = %9, %3
  %16 = sub i64 0, %7
  %17 = getelementptr inbounds i32, i32* %2, i64 %16
  ret i32* %17
}

; Function Attrs: noinline nounwind uwtable
define linkonce_odr zeroext i1 @_ZNK9__gnu_cxx5__ops14_Val_less_iterclIiPiEEbRT_T0_(%"struct.__gnu_cxx::__ops::_Val_less_iter"* %0, i32* dereferenceable(4) %1, i32* %2) #4 comdat align 2 {
  %4 = load i32, i32* %1, align 4
  %5 = load i32, i32* %2, align 4
  %6 = icmp slt i32 %4, %5
  ret i1 %6
}

; Function Attrs: noinline uwtable
define internal void @_GLOBAL__sub_I_s423367356.cpp() #0 section ".text.startup" {
  call void @__cxx_global_var_init()
  ret void
}

; Function Attrs: argmemonly nocallback nofree nounwind willreturn
declare void @llvm.memmove.p0i8.p0i8.i64(i8* nocapture writeonly, i8* nocapture readonly, i64, i1 immarg) #7

attributes #0 = { noinline uwtable "correctly-rounded-divide-sqrt-fp-math"="false" "disable-tail-calls"="false" "less-precise-fpmad"="false" "no-frame-pointer-elim"="true" "no-frame-pointer-elim-non-leaf" "no-infs-fp-math"="false" "no-jump-tables"="false" "no-nans-fp-math"="false" "no-signed-zeros-fp-math"="false" "no-trapping-math"="false" "stack-protector-buffer-size"="8" "target-cpu"="x86-64" "target-features"="+fxsr,+mmx,+sse,+sse2,+x87" "unsafe-fp-math"="false" "use-soft-float"="false" }
attributes #1 = { "correctly-rounded-divide-sqrt-fp-math"="false" "disable-tail-calls"="false" "less-precise-fpmad"="false" "no-frame-pointer-elim"="true" "no-frame-pointer-elim-non-leaf" "no-infs-fp-math"="false" "no-nans-fp-math"="false" "no-signed-zeros-fp-math"="false" "no-trapping-math"="false" "stack-protector-buffer-size"="8" "target-cpu"="x86-64" "target-features"="+fxsr,+mmx,+sse,+sse2,+x87" "unsafe-fp-math"="false" "use-soft-float"="false" }
attributes #2 = { nounwind "correctly-rounded-divide-sqrt-fp-math"="false" "disable-tail-calls"="false" "less-precise-fpmad"="false" "no-frame-pointer-elim"="true" "no-frame-pointer-elim-non-leaf" "no-infs-fp-math"="false" "no-nans-fp-math"="false" "no-signed-zeros-fp-math"="false" "no-trapping-math"="false" "stack-protector-buffer-size"="8" "target-cpu"="x86-64" "target-features"="+fxsr,+mmx,+sse,+sse2,+x87" "unsafe-fp-math"="false" "use-soft-float"="false" }
attributes #3 = { nounwind }
attributes #4 = { noinline nounwind uwtable "correctly-rounded-divide-sqrt-fp-math"="false" "disable-tail-calls"="false" "less-precise-fpmad"="false" "no-frame-pointer-elim"="true" "no-frame-pointer-elim-non-leaf" "no-infs-fp-math"="false" "no-jump-tables"="false" "no-nans-fp-math"="false" "no-signed-zeros-fp-math"="false" "no-trapping-math"="false" "stack-protector-buffer-size"="8" "target-cpu"="x86-64" "target-features"="+fxsr,+mmx,+sse,+sse2,+x87" "unsafe-fp-math"="false" "use-soft-float"="false" }
attributes #5 = { noinline norecurse uwtable "correctly-rounded-divide-sqrt-fp-math"="false" "disable-tail-calls"="false" "less-precise-fpmad"="false" "no-frame-pointer-elim"="true" "no-frame-pointer-elim-non-leaf" "no-infs-fp-math"="false" "no-jump-tables"="false" "no-nans-fp-math"="false" "no-signed-zeros-fp-math"="false" "no-trapping-math"="false" "stack-protector-buffer-size"="8" "target-cpu"="x86-64" "target-features"="+fxsr,+mmx,+sse,+sse2,+x87" "unsafe-fp-math"="false" "use-soft-float"="false" }
attributes #6 = { nocallback nofree nosync nounwind readnone speculatable willreturn }
attributes #7 = { argmemonly nocallback nofree nounwind willreturn }

!llvm.module.flags = !{!0}
!llvm.ident = !{!1}

!0 = !{i32 1, !"wchar_size", i32 4}
!1 = !{!"clang version 6.0.0-1ubuntu2 (tags/RELEASE_600/final)"}
