; ModuleID = '/home/pedro/tcc/exDataset/codenet/data/selection/p00834/s176518813.ll'
source_filename = "/home/pedro/tcc/exDataset/codenet/data/selection/p00834/s176518813.cpp"
target datalayout = "e-m:e-i64:64-f80:128-n8:16:32:64-S128"
target triple = "x86_64-pc-linux-gnu"

%"class.std::ios_base::Init" = type { i8 }
%"class.std::basic_istream" = type { i32 (...)**, i64, %"class.std::basic_ios" }
%"class.std::basic_ios" = type { %"class.std::ios_base", %"class.std::basic_ostream"*, i8, i8, %"class.std::basic_streambuf"*, %"class.std::ctype"*, %"class.std::num_put"*, %"class.std::num_get"* }
%"class.std::ios_base" = type { i32 (...)**, i64, i64, i32, i32, i32, %"struct.std::ios_base::_Callback_list"*, %"struct.std::ios_base::_Words", [8 x %"struct.std::ios_base::_Words"], i32, %"struct.std::ios_base::_Words"*, %"class.std::locale" }
%"struct.std::ios_base::_Callback_list" = type { %"struct.std::ios_base::_Callback_list"*, void (i32, %"class.std::ios_base"*, i32)*, i32, i32 }
%"struct.std::ios_base::_Words" = type { i8*, i64 }
%"class.std::locale" = type { %"class.std::locale::_Impl"* }
%"class.std::locale::_Impl" = type { i32, %"class.std::locale::facet"**, i64, %"class.std::locale::facet"**, i8** }
%"class.std::locale::facet" = type <{ i32 (...)**, i32, [4 x i8] }>
%"class.std::basic_ostream" = type { i32 (...)**, %"class.std::basic_ios" }
%"class.std::basic_streambuf" = type { i32 (...)**, i8*, i8*, i8*, i8*, i8*, i8*, %"class.std::locale" }
%"class.std::ctype" = type <{ %"class.std::locale::facet.base", [4 x i8], %struct.__locale_struct*, i8, [7 x i8], i32*, i32*, i16*, i8, [256 x i8], [256 x i8], i8, [6 x i8] }>
%"class.std::locale::facet.base" = type <{ i32 (...)**, i32 }>
%struct.__locale_struct = type { [13 x %struct.__locale_data*], i16*, i32*, i32*, [13 x i8*] }
%struct.__locale_data = type opaque
%"class.std::num_put" = type { %"class.std::locale::facet.base", [4 x i8] }
%"class.std::num_get" = type { %"class.std::locale::facet.base", [4 x i8] }
%"class.std::vector" = type { %"struct.std::_Vector_base" }
%"struct.std::_Vector_base" = type { %"struct.std::_Vector_base<double, std::allocator<double> >::_Vector_impl" }
%"struct.std::_Vector_base<double, std::allocator<double> >::_Vector_impl" = type { double*, double*, double* }
%"class.std::initializer_list" = type { double*, i64 }
%"class.std::allocator" = type { i8 }
%"class.__gnu_cxx::__normal_iterator" = type { double* }
%"class.std::vector.0" = type { %"struct.std::_Vector_base.1" }
%"struct.std::_Vector_base.1" = type { %"struct.std::_Vector_base<int, std::allocator<int> >::_Vector_impl" }
%"struct.std::_Vector_base<int, std::allocator<int> >::_Vector_impl" = type { i32*, i32*, i32* }
%"class.std::initializer_list.5" = type { i32*, i64 }
%"class.std::allocator.2" = type { i8 }
%"class.__gnu_cxx::new_allocator" = type { i8 }
%"class.__gnu_cxx::new_allocator.3" = type { i8 }
%"class.__gnu_cxx::__normal_iterator.6" = type { i32* }
%"class.std::move_iterator" = type { double* }
%"struct.__gnu_cxx::__ops::_Iter_less_iter" = type { i8 }
%"struct.__gnu_cxx::__ops::_Iter_less_val" = type { i8 }
%"struct.__gnu_cxx::__ops::_Val_less_iter" = type { i8 }
%"class.std::move_iterator.7" = type { i32* }

$_ZNSaIdEC2Ev = comdat any

$_ZNSt6vectorIdSaIdEEC2ESt16initializer_listIdERKS0_ = comdat any

$_ZNSaIdED2Ev = comdat any

$_ZNSt6vectorIdSaIdEE9push_backEOd = comdat any

$_ZSt3maxIiERKT_S2_S2_ = comdat any

$_ZSt3minIiERKT_S2_S2_ = comdat any

$_ZNSt6vectorIdSaIdEE9push_backERKd = comdat any

$_ZSt4sortIN9__gnu_cxx17__normal_iteratorIPdSt6vectorIdSaIdEEEEEvT_S7_ = comdat any

$_ZSt5beginISt6vectorIdSaIdEEEDTcldtfp_5beginEERT_ = comdat any

$_ZSt3endISt6vectorIdSaIdEEEDTcldtfp_3endEERT_ = comdat any

$_ZNSaIiEC2Ev = comdat any

$_ZNSt6vectorIiSaIiEEC2ESt16initializer_listIiERKS0_ = comdat any

$_ZNSaIiED2Ev = comdat any

$_ZNKSt6vectorIdSaIdEE4sizeEv = comdat any

$_ZNSt6vectorIdSaIdEEixEm = comdat any

$_ZSt4iotaIPiiEvT_S1_T0_ = comdat any

$_ZSt5beginIiLm123EEPT_RAT0__S0_ = comdat any

$_ZSt3endIiLm123EEPT_RAT0__S0_ = comdat any

$_ZNSt6vectorIiSaIiEE4backEv = comdat any

$_ZNSt6vectorIiSaIiEE9push_backERKi = comdat any

$_ZNKSt6vectorIiSaIiEE4sizeEv = comdat any

$_ZNSt6vectorIiSaIiEEixEm = comdat any

$_ZNSt6vectorIiSaIiEED2Ev = comdat any

$_ZNSt6vectorIdSaIdEED2Ev = comdat any

$_ZN9__gnu_cxx13new_allocatorIdEC2Ev = comdat any

$_ZN9__gnu_cxx13new_allocatorIdED2Ev = comdat any

$_ZNSt12_Vector_baseIdSaIdEEC2ERKS0_ = comdat any

$_ZNSt6vectorIdSaIdEE19_M_range_initializeIPKdEEvT_S5_St20forward_iterator_tag = comdat any

$_ZNKSt16initializer_listIdE5beginEv = comdat any

$_ZNKSt16initializer_listIdE3endEv = comdat any

$_ZNSt12_Vector_baseIdSaIdEED2Ev = comdat any

$_ZNSt12_Vector_baseIdSaIdEE12_Vector_implC2ERKS0_ = comdat any

$_ZNSaIdEC2ERKS_ = comdat any

$_ZN9__gnu_cxx13new_allocatorIdEC2ERKS1_ = comdat any

$_ZSt8distanceIPKdENSt15iterator_traitsIT_E15difference_typeES3_S3_ = comdat any

$_ZNSt12_Vector_baseIdSaIdEE11_M_allocateEm = comdat any

$_ZSt22__uninitialized_copy_aIPKdPddET0_T_S4_S3_RSaIT1_E = comdat any

$_ZNSt12_Vector_baseIdSaIdEE19_M_get_Tp_allocatorEv = comdat any

$_ZSt10__distanceIPKdENSt15iterator_traitsIT_E15difference_typeES3_S3_St26random_access_iterator_tag = comdat any

$_ZSt19__iterator_categoryIPKdENSt15iterator_traitsIT_E17iterator_categoryERKS3_ = comdat any

$_ZNSt16allocator_traitsISaIdEE8allocateERS0_m = comdat any

$_ZN9__gnu_cxx13new_allocatorIdE8allocateEmPKv = comdat any

$_ZNK9__gnu_cxx13new_allocatorIdE8max_sizeEv = comdat any

$_ZSt18uninitialized_copyIPKdPdET0_T_S4_S3_ = comdat any

$_ZNSt20__uninitialized_copyILb1EE13__uninit_copyIPKdPdEET0_T_S6_S5_ = comdat any

$_ZSt4copyIPKdPdET0_T_S4_S3_ = comdat any

$_ZSt14__copy_move_a2ILb0EPKdPdET1_T0_S4_S3_ = comdat any

$_ZSt12__miter_baseIPKdET_S2_ = comdat any

$_ZSt13__copy_move_aILb0EPKdPdET1_T0_S4_S3_ = comdat any

$_ZSt12__niter_baseIPKdET_S2_ = comdat any

$_ZSt12__niter_baseIPdET_S1_ = comdat any

$_ZNSt11__copy_moveILb0ELb1ESt26random_access_iterator_tagE8__copy_mIdEEPT_PKS3_S6_S4_ = comdat any

$_ZNKSt16initializer_listIdE4sizeEv = comdat any

$_ZNSt12_Vector_baseIdSaIdEE13_M_deallocateEPdm = comdat any

$_ZNSt12_Vector_baseIdSaIdEE12_Vector_implD2Ev = comdat any

$__clang_call_terminate = comdat any

$_ZNSt16allocator_traitsISaIdEE10deallocateERS0_Pdm = comdat any

$_ZN9__gnu_cxx13new_allocatorIdE10deallocateEPdm = comdat any

$_ZSt8_DestroyIPddEvT_S1_RSaIT0_E = comdat any

$_ZSt8_DestroyIPdEvT_S1_ = comdat any

$_ZNSt12_Destroy_auxILb1EE9__destroyIPdEEvT_S3_ = comdat any

$_ZNSt6vectorIdSaIdEE12emplace_backIJdEEEvDpOT_ = comdat any

$_ZSt4moveIRdEONSt16remove_referenceIT_E4typeEOS2_ = comdat any

$_ZNSt16allocator_traitsISaIdEE9constructIdJdEEEvRS0_PT_DpOT0_ = comdat any

$_ZSt7forwardIdEOT_RNSt16remove_referenceIS0_E4typeE = comdat any

$_ZNSt6vectorIdSaIdEE17_M_realloc_insertIJdEEEvN9__gnu_cxx17__normal_iteratorIPdS1_EEDpOT_ = comdat any

$_ZNSt6vectorIdSaIdEE3endEv = comdat any

$_ZN9__gnu_cxx13new_allocatorIdE9constructIdJdEEEvPT_DpOT0_ = comdat any

$_ZNKSt6vectorIdSaIdEE12_M_check_lenEmPKc = comdat any

$_ZN9__gnu_cxxmiIPdSt6vectorIdSaIdEEEENS_17__normal_iteratorIT_T0_E15difference_typeERKS8_SB_ = comdat any

$_ZNSt6vectorIdSaIdEE5beginEv = comdat any

$_ZSt34__uninitialized_move_if_noexcept_aIPdS0_SaIdEET0_T_S3_S2_RT1_ = comdat any

$_ZNK9__gnu_cxx17__normal_iteratorIPdSt6vectorIdSaIdEEE4baseEv = comdat any

$_ZNSt16allocator_traitsISaIdEE7destroyIdEEvRS0_PT_ = comdat any

$_ZNKSt6vectorIdSaIdEE8max_sizeEv = comdat any

$_ZSt3maxImERKT_S2_S2_ = comdat any

$_ZNSt16allocator_traitsISaIdEE8max_sizeERKS0_ = comdat any

$_ZNKSt12_Vector_baseIdSaIdEE19_M_get_Tp_allocatorEv = comdat any

$_ZN9__gnu_cxx17__normal_iteratorIPdSt6vectorIdSaIdEEEC2ERKS1_ = comdat any

$_ZSt22__uninitialized_copy_aISt13move_iteratorIPdES1_dET0_T_S4_S3_RSaIT1_E = comdat any

$_ZSt32__make_move_if_noexcept_iteratorIdSt13move_iteratorIPdEET0_PT_ = comdat any

$_ZSt18uninitialized_copyISt13move_iteratorIPdES1_ET0_T_S4_S3_ = comdat any

$_ZNSt20__uninitialized_copyILb1EE13__uninit_copyISt13move_iteratorIPdES3_EET0_T_S6_S5_ = comdat any

$_ZSt4copyISt13move_iteratorIPdES1_ET0_T_S4_S3_ = comdat any

$_ZSt14__copy_move_a2ILb1EPdS0_ET1_T0_S2_S1_ = comdat any

$_ZSt12__miter_baseIPdEDTcl12__miter_basecldtfp_4baseEEESt13move_iteratorIT_E = comdat any

$_ZSt13__copy_move_aILb1EPdS0_ET1_T0_S2_S1_ = comdat any

$_ZNSt11__copy_moveILb1ELb1ESt26random_access_iterator_tagE8__copy_mIdEEPT_PKS3_S6_S4_ = comdat any

$_ZSt12__miter_baseIPdET_S1_ = comdat any

$_ZNKSt13move_iteratorIPdE4baseEv = comdat any

$_ZNSt13move_iteratorIPdEC2ES0_ = comdat any

$_ZN9__gnu_cxx13new_allocatorIdE7destroyIdEEvPT_ = comdat any

$_ZNSt16allocator_traitsISaIdEE9constructIdJRKdEEEvRS0_PT_DpOT0_ = comdat any

$_ZNSt6vectorIdSaIdEE17_M_realloc_insertIJRKdEEEvN9__gnu_cxx17__normal_iteratorIPdS1_EEDpOT_ = comdat any

$_ZN9__gnu_cxx13new_allocatorIdE9constructIdJRKdEEEvPT_DpOT0_ = comdat any

$_ZSt7forwardIRKdEOT_RNSt16remove_referenceIS2_E4typeE = comdat any

$_ZSt6__sortIN9__gnu_cxx17__normal_iteratorIPdSt6vectorIdSaIdEEEENS0_5__ops15_Iter_less_iterEEvT_S9_T0_ = comdat any

$_ZN9__gnu_cxx5__ops16__iter_less_iterEv = comdat any

$_ZN9__gnu_cxxneIPdSt6vectorIdSaIdEEEEbRKNS_17__normal_iteratorIT_T0_EESA_ = comdat any

$_ZSt16__introsort_loopIN9__gnu_cxx17__normal_iteratorIPdSt6vectorIdSaIdEEEElNS0_5__ops15_Iter_less_iterEEvT_S9_T0_T1_ = comdat any

$_ZSt4__lgl = comdat any

$_ZSt22__final_insertion_sortIN9__gnu_cxx17__normal_iteratorIPdSt6vectorIdSaIdEEEENS0_5__ops15_Iter_less_iterEEvT_S9_T0_ = comdat any

$_ZSt14__partial_sortIN9__gnu_cxx17__normal_iteratorIPdSt6vectorIdSaIdEEEENS0_5__ops15_Iter_less_iterEEvT_S9_S9_T0_ = comdat any

$_ZSt27__unguarded_partition_pivotIN9__gnu_cxx17__normal_iteratorIPdSt6vectorIdSaIdEEEENS0_5__ops15_Iter_less_iterEET_S9_S9_T0_ = comdat any

$_ZSt13__heap_selectIN9__gnu_cxx17__normal_iteratorIPdSt6vectorIdSaIdEEEENS0_5__ops15_Iter_less_iterEEvT_S9_S9_T0_ = comdat any

$_ZSt11__sort_heapIN9__gnu_cxx17__normal_iteratorIPdSt6vectorIdSaIdEEEENS0_5__ops15_Iter_less_iterEEvT_S9_RT0_ = comdat any

$_ZSt11__make_heapIN9__gnu_cxx17__normal_iteratorIPdSt6vectorIdSaIdEEEENS0_5__ops15_Iter_less_iterEEvT_S9_RT0_ = comdat any

$_ZN9__gnu_cxxltIPdSt6vectorIdSaIdEEEEbRKNS_17__normal_iteratorIT_T0_EESA_ = comdat any

$_ZNK9__gnu_cxx5__ops15_Iter_less_iterclINS_17__normal_iteratorIPdSt6vectorIdSaIdEEEES8_EEbT_T0_ = comdat any

$_ZSt10__pop_heapIN9__gnu_cxx17__normal_iteratorIPdSt6vectorIdSaIdEEEENS0_5__ops15_Iter_less_iterEEvT_S9_S9_RT0_ = comdat any

$_ZN9__gnu_cxx17__normal_iteratorIPdSt6vectorIdSaIdEEEppEv = comdat any

$_ZNK9__gnu_cxx17__normal_iteratorIPdSt6vectorIdSaIdEEEplEl = comdat any

$_ZNK9__gnu_cxx17__normal_iteratorIPdSt6vectorIdSaIdEEEdeEv = comdat any

$_ZSt13__adjust_heapIN9__gnu_cxx17__normal_iteratorIPdSt6vectorIdSaIdEEEEldNS0_5__ops15_Iter_less_iterEEvT_T0_SA_T1_T2_ = comdat any

$_ZSt4moveIRN9__gnu_cxx5__ops15_Iter_less_iterEEONSt16remove_referenceIT_E4typeEOS5_ = comdat any

$_ZN9__gnu_cxx5__ops14_Iter_less_valC2ENS0_15_Iter_less_iterE = comdat any

$_ZSt11__push_heapIN9__gnu_cxx17__normal_iteratorIPdSt6vectorIdSaIdEEEEldNS0_5__ops14_Iter_less_valEEvT_T0_SA_T1_RT2_ = comdat any

$_ZNK9__gnu_cxx5__ops14_Iter_less_valclINS_17__normal_iteratorIPdSt6vectorIdSaIdEEEEdEEbT_RT0_ = comdat any

$_ZN9__gnu_cxx17__normal_iteratorIPdSt6vectorIdSaIdEEEmmEv = comdat any

$_ZSt22__move_median_to_firstIN9__gnu_cxx17__normal_iteratorIPdSt6vectorIdSaIdEEEENS0_5__ops15_Iter_less_iterEEvT_S9_S9_S9_T0_ = comdat any

$_ZNK9__gnu_cxx17__normal_iteratorIPdSt6vectorIdSaIdEEEmiEl = comdat any

$_ZSt21__unguarded_partitionIN9__gnu_cxx17__normal_iteratorIPdSt6vectorIdSaIdEEEENS0_5__ops15_Iter_less_iterEET_S9_S9_S9_T0_ = comdat any

$_ZSt9iter_swapIN9__gnu_cxx17__normal_iteratorIPdSt6vectorIdSaIdEEEES6_EvT_T0_ = comdat any

$_ZSt4swapIdENSt9enable_ifIXsr6__and_ISt6__not_ISt15__is_tuple_likeIT_EESt21is_move_constructibleIS3_ESt18is_move_assignableIS3_EEE5valueEvE4typeERS3_SC_ = comdat any

$_ZSt16__insertion_sortIN9__gnu_cxx17__normal_iteratorIPdSt6vectorIdSaIdEEEENS0_5__ops15_Iter_less_iterEEvT_S9_T0_ = comdat any

$_ZSt26__unguarded_insertion_sortIN9__gnu_cxx17__normal_iteratorIPdSt6vectorIdSaIdEEEENS0_5__ops15_Iter_less_iterEEvT_S9_T0_ = comdat any

$_ZN9__gnu_cxxeqIPdSt6vectorIdSaIdEEEEbRKNS_17__normal_iteratorIT_T0_EESA_ = comdat any

$_ZSt13move_backwardIN9__gnu_cxx17__normal_iteratorIPdSt6vectorIdSaIdEEEES6_ET0_T_S8_S7_ = comdat any

$_ZSt25__unguarded_linear_insertIN9__gnu_cxx17__normal_iteratorIPdSt6vectorIdSaIdEEEENS0_5__ops14_Val_less_iterEEvT_T0_ = comdat any

$_ZN9__gnu_cxx5__ops15__val_comp_iterENS0_15_Iter_less_iterE = comdat any

$_ZSt23__copy_move_backward_a2ILb1EN9__gnu_cxx17__normal_iteratorIPdSt6vectorIdSaIdEEEES6_ET1_T0_S8_S7_ = comdat any

$_ZSt12__miter_baseIN9__gnu_cxx17__normal_iteratorIPdSt6vectorIdSaIdEEEEET_S7_ = comdat any

$_ZSt22__copy_move_backward_aILb1EPdS0_ET1_T0_S2_S1_ = comdat any

$_ZSt12__niter_baseIPdSt6vectorIdSaIdEEET_N9__gnu_cxx17__normal_iteratorIS4_T0_EE = comdat any

$_ZNSt20__copy_move_backwardILb1ELb1ESt26random_access_iterator_tagE13__copy_move_bIdEEPT_PKS3_S6_S4_ = comdat any

$_ZNK9__gnu_cxx5__ops14_Val_less_iterclIdNS_17__normal_iteratorIPdSt6vectorIdSaIdEEEEEEbRT_T0_ = comdat any

$_ZN9__gnu_cxx13new_allocatorIiEC2Ev = comdat any

$_ZN9__gnu_cxx13new_allocatorIiED2Ev = comdat any

$_ZNSt12_Vector_baseIiSaIiEEC2ERKS0_ = comdat any

$_ZNSt6vectorIiSaIiEE19_M_range_initializeIPKiEEvT_S5_St20forward_iterator_tag = comdat any

$_ZNKSt16initializer_listIiE5beginEv = comdat any

$_ZNKSt16initializer_listIiE3endEv = comdat any

$_ZNSt12_Vector_baseIiSaIiEED2Ev = comdat any

$_ZNSt12_Vector_baseIiSaIiEE12_Vector_implC2ERKS0_ = comdat any

$_ZNSaIiEC2ERKS_ = comdat any

$_ZN9__gnu_cxx13new_allocatorIiEC2ERKS1_ = comdat any

$_ZSt8distanceIPKiENSt15iterator_traitsIT_E15difference_typeES3_S3_ = comdat any

$_ZNSt12_Vector_baseIiSaIiEE11_M_allocateEm = comdat any

$_ZSt22__uninitialized_copy_aIPKiPiiET0_T_S4_S3_RSaIT1_E = comdat any

$_ZNSt12_Vector_baseIiSaIiEE19_M_get_Tp_allocatorEv = comdat any

$_ZSt10__distanceIPKiENSt15iterator_traitsIT_E15difference_typeES3_S3_St26random_access_iterator_tag = comdat any

$_ZSt19__iterator_categoryIPKiENSt15iterator_traitsIT_E17iterator_categoryERKS3_ = comdat any

$_ZNSt16allocator_traitsISaIiEE8allocateERS0_m = comdat any

$_ZN9__gnu_cxx13new_allocatorIiE8allocateEmPKv = comdat any

$_ZNK9__gnu_cxx13new_allocatorIiE8max_sizeEv = comdat any

$_ZSt18uninitialized_copyIPKiPiET0_T_S4_S3_ = comdat any

$_ZNSt20__uninitialized_copyILb1EE13__uninit_copyIPKiPiEET0_T_S6_S5_ = comdat any

$_ZSt4copyIPKiPiET0_T_S4_S3_ = comdat any

$_ZSt14__copy_move_a2ILb0EPKiPiET1_T0_S4_S3_ = comdat any

$_ZSt12__miter_baseIPKiET_S2_ = comdat any

$_ZSt13__copy_move_aILb0EPKiPiET1_T0_S4_S3_ = comdat any

$_ZSt12__niter_baseIPKiET_S2_ = comdat any

$_ZSt12__niter_baseIPiET_S1_ = comdat any

$_ZNSt11__copy_moveILb0ELb1ESt26random_access_iterator_tagE8__copy_mIiEEPT_PKS3_S6_S4_ = comdat any

$_ZNKSt16initializer_listIiE4sizeEv = comdat any

$_ZNSt12_Vector_baseIiSaIiEE13_M_deallocateEPim = comdat any

$_ZNSt12_Vector_baseIiSaIiEE12_Vector_implD2Ev = comdat any

$_ZNSt16allocator_traitsISaIiEE10deallocateERS0_Pim = comdat any

$_ZN9__gnu_cxx13new_allocatorIiE10deallocateEPim = comdat any

$_ZSt8_DestroyIPiiEvT_S1_RSaIT0_E = comdat any

$_ZSt8_DestroyIPiEvT_S1_ = comdat any

$_ZNSt12_Destroy_auxILb1EE9__destroyIPiEEvT_S3_ = comdat any

$_ZNSt6vectorIiSaIiEE3endEv = comdat any

$_ZNK9__gnu_cxx17__normal_iteratorIPiSt6vectorIiSaIiEEEmiEl = comdat any

$_ZNK9__gnu_cxx17__normal_iteratorIPiSt6vectorIiSaIiEEEdeEv = comdat any

$_ZN9__gnu_cxx17__normal_iteratorIPiSt6vectorIiSaIiEEEC2ERKS1_ = comdat any

$_ZNSt16allocator_traitsISaIiEE9constructIiJRKiEEEvRS0_PT_DpOT0_ = comdat any

$_ZNSt6vectorIiSaIiEE17_M_realloc_insertIJRKiEEEvN9__gnu_cxx17__normal_iteratorIPiS1_EEDpOT_ = comdat any

$_ZN9__gnu_cxx13new_allocatorIiE9constructIiJRKiEEEvPT_DpOT0_ = comdat any

$_ZSt7forwardIRKiEOT_RNSt16remove_referenceIS2_E4typeE = comdat any

$_ZNKSt6vectorIiSaIiEE12_M_check_lenEmPKc = comdat any

$_ZN9__gnu_cxxmiIPiSt6vectorIiSaIiEEEENS_17__normal_iteratorIT_T0_E15difference_typeERKS8_SB_ = comdat any

$_ZNSt6vectorIiSaIiEE5beginEv = comdat any

$_ZSt34__uninitialized_move_if_noexcept_aIPiS0_SaIiEET0_T_S3_S2_RT1_ = comdat any

$_ZNK9__gnu_cxx17__normal_iteratorIPiSt6vectorIiSaIiEEE4baseEv = comdat any

$_ZNSt16allocator_traitsISaIiEE7destroyIiEEvRS0_PT_ = comdat any

$_ZNKSt6vectorIiSaIiEE8max_sizeEv = comdat any

$_ZNSt16allocator_traitsISaIiEE8max_sizeERKS0_ = comdat any

$_ZNKSt12_Vector_baseIiSaIiEE19_M_get_Tp_allocatorEv = comdat any

$_ZSt22__uninitialized_copy_aISt13move_iteratorIPiES1_iET0_T_S4_S3_RSaIT1_E = comdat any

$_ZSt32__make_move_if_noexcept_iteratorIiSt13move_iteratorIPiEET0_PT_ = comdat any

$_ZSt18uninitialized_copyISt13move_iteratorIPiES1_ET0_T_S4_S3_ = comdat any

$_ZNSt20__uninitialized_copyILb1EE13__uninit_copyISt13move_iteratorIPiES3_EET0_T_S6_S5_ = comdat any

$_ZSt4copyISt13move_iteratorIPiES1_ET0_T_S4_S3_ = comdat any

$_ZSt14__copy_move_a2ILb1EPiS0_ET1_T0_S2_S1_ = comdat any

$_ZSt12__miter_baseIPiEDTcl12__miter_basecldtfp_4baseEEESt13move_iteratorIT_E = comdat any

$_ZSt13__copy_move_aILb1EPiS0_ET1_T0_S2_S1_ = comdat any

$_ZNSt11__copy_moveILb1ELb1ESt26random_access_iterator_tagE8__copy_mIiEEPT_PKS3_S6_S4_ = comdat any

$_ZSt12__miter_baseIPiET_S1_ = comdat any

$_ZNKSt13move_iteratorIPiE4baseEv = comdat any

$_ZNSt13move_iteratorIPiEC2ES0_ = comdat any

$_ZN9__gnu_cxx13new_allocatorIiE7destroyIiEEvPT_ = comdat any

@_ZStL8__ioinit = internal global %"class.std::ios_base::Init" zeroinitializer, align 1
@__dso_handle = external hidden global i8
@par = global [123 x i32] zeroinitializer, align 16
@x = global [123 x i32] zeroinitializer, align 16
@y = global [123 x i32] zeroinitializer, align 16
@z = global [123 x i32] zeroinitializer, align 16
@r = global [123 x i32] zeroinitializer, align 16
@_ZSt3cin = external global %"class.std::basic_istream", align 8
@.ref.tmp = private constant [2 x double] [double 0.000000e+00, double 1.000000e+09], align 8
@.ref.tmp.1 = private constant [1 x i32] zeroinitializer, align 4
@_ZSt4cout = external global %"class.std::basic_ostream", align 8
@.str = private unnamed_addr constant [26 x i8] c"vector::_M_realloc_insert\00", align 1
@llvm.global_ctors = appending global [1 x { i32, void ()*, i8* }] [{ i32, void ()*, i8* } { i32 65535, void ()* @_GLOBAL__sub_I_s176518813.cpp, i8* null }]

; Function Attrs: noinline uwtable
define internal void @__cxx_global_var_init() #0 section ".text.startup" {
  call void @_ZNSt8ios_base4InitC1Ev(%"class.std::ios_base::Init"* @_ZStL8__ioinit)
  %1 = call i32 @__cxa_atexit(void (i8*)* bitcast (void (%"class.std::ios_base::Init"*)* @_ZNSt8ios_base4InitD1Ev to void (i8*)*), i8* getelementptr inbounds (%"class.std::ios_base::Init", %"class.std::ios_base::Init"* @_ZStL8__ioinit, i32 0, i32 0), i8* @__dso_handle) #3
  ret void
}

declare void @_ZNSt8ios_base4InitC1Ev(%"class.std::ios_base::Init"*) unnamed_addr #1

; Function Attrs: nounwind
declare void @_ZNSt8ios_base4InitD1Ev(%"class.std::ios_base::Init"*) unnamed_addr #2

; Function Attrs: nounwind
declare i32 @__cxa_atexit(void (i8*)*, i8*, i8*) #3

; Function Attrs: noinline uwtable
define i32 @_Z4findi(i32 %0) #0 {
  %2 = sext i32 %0 to i64
  %3 = getelementptr inbounds [123 x i32], [123 x i32]* @par, i64 0, i64 %2
  %4 = load i32, i32* %3, align 4
  %5 = icmp eq i32 %4, %0
  br i1 %5, label %6, label %7

6:                                                ; preds = %1
  br label %14

7:                                                ; preds = %1
  %8 = sext i32 %0 to i64
  %9 = getelementptr inbounds [123 x i32], [123 x i32]* @par, i64 0, i64 %8
  %10 = load i32, i32* %9, align 4
  %11 = call i32 @_Z4findi(i32 %10)
  %12 = sext i32 %0 to i64
  %13 = getelementptr inbounds [123 x i32], [123 x i32]* @par, i64 0, i64 %12
  store i32 %11, i32* %13, align 4
  br label %14

14:                                               ; preds = %7, %6
  %15 = phi i32 [ %0, %6 ], [ %11, %7 ]
  ret i32 %15
}

; Function Attrs: noinline uwtable
define void @_Z5uniteii(i32 %0, i32 %1) #0 {
  %3 = call i32 @_Z4findi(i32 %1)
  %4 = call i32 @_Z4findi(i32 %0)
  %5 = sext i32 %4 to i64
  %6 = getelementptr inbounds [123 x i32], [123 x i32]* @par, i64 0, i64 %5
  store i32 %3, i32* %6, align 4
  ret void
}

; Function Attrs: noinline nounwind uwtable
define double @_Z3sqrd(double %0) #4 {
  %2 = fmul double %0, %0
  ret double %2
}

; Function Attrs: noinline nounwind uwtable
define double @_Z4distiid(i32 %0, i32 %1, double %2) #4 {
  %4 = sext i32 %0 to i64
  %5 = getelementptr inbounds [123 x i32], [123 x i32]* @r, i64 0, i64 %4
  %6 = load i32, i32* %5, align 4
  %7 = sext i32 %0 to i64
  %8 = getelementptr inbounds [123 x i32], [123 x i32]* @r, i64 0, i64 %7
  %9 = load i32, i32* %8, align 4
  %10 = mul nsw i32 %6, %9
  %11 = sitofp i32 %10 to double
  %12 = sext i32 %0 to i64
  %13 = getelementptr inbounds [123 x i32], [123 x i32]* @z, i64 0, i64 %12
  %14 = load i32, i32* %13, align 4
  %15 = sitofp i32 %14 to double
  %16 = fsub double %15, %2
  %17 = call double @_Z3sqrd(double %16)
  %18 = fsub double %11, %17
  %19 = call double @sqrt(double %18) #3
  %20 = sext i32 %1 to i64
  %21 = getelementptr inbounds [123 x i32], [123 x i32]* @r, i64 0, i64 %20
  %22 = load i32, i32* %21, align 4
  %23 = sext i32 %1 to i64
  %24 = getelementptr inbounds [123 x i32], [123 x i32]* @r, i64 0, i64 %23
  %25 = load i32, i32* %24, align 4
  %26 = mul nsw i32 %22, %25
  %27 = sitofp i32 %26 to double
  %28 = sext i32 %1 to i64
  %29 = getelementptr inbounds [123 x i32], [123 x i32]* @z, i64 0, i64 %28
  %30 = load i32, i32* %29, align 4
  %31 = sitofp i32 %30 to double
  %32 = fsub double %31, %2
  %33 = call double @_Z3sqrd(double %32)
  %34 = fsub double %27, %33
  %35 = call double @sqrt(double %34) #3
  %36 = fadd double %19, %35
  ret double %36
}

; Function Attrs: nounwind
declare double @sqrt(double) #2

; Function Attrs: noinline nounwind uwtable
define double @_Z5crossiid(i32 %0, i32 %1, double %2) #4 {
  %4 = call double @_Z4distiid(i32 %0, i32 %1, double %2)
  %5 = sext i32 %0 to i64
  %6 = getelementptr inbounds [123 x i32], [123 x i32]* @x, i64 0, i64 %5
  %7 = load i32, i32* %6, align 4
  %8 = sext i32 %1 to i64
  %9 = getelementptr inbounds [123 x i32], [123 x i32]* @x, i64 0, i64 %8
  %10 = load i32, i32* %9, align 4
  %11 = sub nsw i32 %7, %10
  %12 = sitofp i32 %11 to double
  %13 = call double @_Z3sqrd(double %12)
  %14 = sext i32 %0 to i64
  %15 = getelementptr inbounds [123 x i32], [123 x i32]* @y, i64 0, i64 %14
  %16 = load i32, i32* %15, align 4
  %17 = sext i32 %1 to i64
  %18 = getelementptr inbounds [123 x i32], [123 x i32]* @y, i64 0, i64 %17
  %19 = load i32, i32* %18, align 4
  %20 = sub nsw i32 %16, %19
  %21 = sitofp i32 %20 to double
  %22 = call double @_Z3sqrd(double %21)
  %23 = fadd double %13, %22
  %24 = fmul double %4, %4
  %25 = fsub double %23, %24
  %26 = fcmp olt double %25, 0.000000e+00
  %27 = uitofp i1 %26 to double
  ret double %27
}

; Function Attrs: noinline norecurse uwtable
define i32 @main() #5 personality i8* bitcast (i32 (...)* @__gxx_personality_v0 to i8*) {
  %1 = alloca i32, align 4
  %2 = alloca %"class.std::vector", align 8
  %3 = alloca %"class.std::initializer_list", align 8
  %4 = alloca %"class.std::allocator", align 1
  %5 = alloca double, align 8
  %6 = alloca double, align 8
  %7 = alloca i32, align 4
  %8 = alloca i32, align 4
  %9 = alloca i32, align 4
  %10 = alloca i32, align 4
  %11 = alloca double, align 8
  %12 = alloca double, align 8
  %13 = alloca %"class.__gnu_cxx::__normal_iterator", align 8
  %14 = alloca %"class.__gnu_cxx::__normal_iterator", align 8
  %15 = alloca %"class.std::vector.0", align 8
  %16 = alloca %"class.std::initializer_list.5", align 8
  %17 = alloca %"class.std::allocator.2", align 1
  %18 = alloca [123 x i8], align 16
  %19 = alloca i32, align 4
  br label %20

20:                                               ; preds = %383, %0
  %21 = call dereferenceable(280) %"class.std::basic_istream"* @_ZNSirsERi(%"class.std::basic_istream"* @_ZSt3cin, i32* dereferenceable(4) %1)
  %22 = load i32, i32* %1, align 4
  %23 = icmp ne i32 %22, 0
  br i1 %23, label %24, label %385

24:                                               ; preds = %20
  %25 = getelementptr inbounds %"class.std::initializer_list", %"class.std::initializer_list"* %3, i32 0, i32 0
  store double* getelementptr inbounds ([2 x double], [2 x double]* @.ref.tmp, i64 0, i64 0), double** %25, align 8
  %26 = getelementptr inbounds %"class.std::initializer_list", %"class.std::initializer_list"* %3, i32 0, i32 1
  store i64 2, i64* %26, align 8
  call void @_ZNSaIdEC2Ev(%"class.std::allocator"* %4) #3
  %27 = bitcast %"class.std::initializer_list"* %3 to { double*, i64 }*
  %28 = getelementptr inbounds { double*, i64 }, { double*, i64 }* %27, i32 0, i32 0
  %29 = load double*, double** %28, align 8
  %30 = getelementptr inbounds { double*, i64 }, { double*, i64 }* %27, i32 0, i32 1
  %31 = load i64, i64* %30, align 8
  invoke void @_ZNSt6vectorIdSaIdEEC2ESt16initializer_listIdERKS0_(%"class.std::vector"* %2, double* %29, i64 %31, %"class.std::allocator"* dereferenceable(1) %4)
          to label %32 unwind label %170

32:                                               ; preds = %24
  call void @_ZNSaIdED2Ev(%"class.std::allocator"* %4) #3
  br label %33

33:                                               ; preds = %215, %32
  %.04 = phi i32 [ 0, %32 ], [ %216, %215 ]
  %34 = load i32, i32* %1, align 4
  %35 = icmp slt i32 %.04, %34
  br i1 %35, label %36, label %217

36:                                               ; preds = %33
  %37 = sext i32 %.04 to i64
  %38 = getelementptr inbounds [123 x i32], [123 x i32]* @x, i64 0, i64 %37
  %39 = invoke dereferenceable(280) %"class.std::basic_istream"* @_ZNSirsERi(%"class.std::basic_istream"* @_ZSt3cin, i32* dereferenceable(4) %38)
          to label %40 unwind label %174

40:                                               ; preds = %36
  %41 = sext i32 %.04 to i64
  %42 = getelementptr inbounds [123 x i32], [123 x i32]* @y, i64 0, i64 %41
  %43 = invoke dereferenceable(280) %"class.std::basic_istream"* @_ZNSirsERi(%"class.std::basic_istream"* %39, i32* dereferenceable(4) %42)
          to label %44 unwind label %174

44:                                               ; preds = %40
  %45 = sext i32 %.04 to i64
  %46 = getelementptr inbounds [123 x i32], [123 x i32]* @z, i64 0, i64 %45
  %47 = invoke dereferenceable(280) %"class.std::basic_istream"* @_ZNSirsERi(%"class.std::basic_istream"* %43, i32* dereferenceable(4) %46)
          to label %48 unwind label %174

48:                                               ; preds = %44
  %49 = sext i32 %.04 to i64
  %50 = getelementptr inbounds [123 x i32], [123 x i32]* @r, i64 0, i64 %49
  %51 = invoke dereferenceable(280) %"class.std::basic_istream"* @_ZNSirsERi(%"class.std::basic_istream"* %47, i32* dereferenceable(4) %50)
          to label %52 unwind label %174

52:                                               ; preds = %48
  %53 = sext i32 %.04 to i64
  %54 = getelementptr inbounds [123 x i32], [123 x i32]* @z, i64 0, i64 %53
  %55 = load i32, i32* %54, align 4
  %56 = sext i32 %.04 to i64
  %57 = getelementptr inbounds [123 x i32], [123 x i32]* @r, i64 0, i64 %56
  %58 = load i32, i32* %57, align 4
  %59 = add nsw i32 %55, %58
  %60 = sitofp i32 %59 to double
  store double %60, double* %5, align 8
  invoke void @_ZNSt6vectorIdSaIdEE9push_backEOd(%"class.std::vector"* %2, double* dereferenceable(8) %5)
          to label %61 unwind label %174

61:                                               ; preds = %52
  %62 = sext i32 %.04 to i64
  %63 = getelementptr inbounds [123 x i32], [123 x i32]* @z, i64 0, i64 %62
  %64 = load i32, i32* %63, align 4
  %65 = sext i32 %.04 to i64
  %66 = getelementptr inbounds [123 x i32], [123 x i32]* @r, i64 0, i64 %65
  %67 = load i32, i32* %66, align 4
  %68 = sub nsw i32 %64, %67
  %69 = sitofp i32 %68 to double
  store double %69, double* %6, align 8
  invoke void @_ZNSt6vectorIdSaIdEE9push_backEOd(%"class.std::vector"* %2, double* dereferenceable(8) %6)
          to label %70 unwind label %174

70:                                               ; preds = %61
  br label %71

71:                                               ; preds = %212, %70
  %.05 = phi i32 [ 0, %70 ], [ %213, %212 ]
  %72 = icmp slt i32 %.05, %.04
  br i1 %72, label %73, label %214

73:                                               ; preds = %71
  %74 = sext i32 %.04 to i64
  %75 = getelementptr inbounds [123 x i32], [123 x i32]* @x, i64 0, i64 %74
  %76 = load i32, i32* %75, align 4
  %77 = sext i32 %.05 to i64
  %78 = getelementptr inbounds [123 x i32], [123 x i32]* @x, i64 0, i64 %77
  %79 = load i32, i32* %78, align 4
  %80 = sub nsw i32 %76, %79
  %81 = sitofp i32 %80 to double
  %82 = invoke double @_Z3sqrd(double %81)
          to label %83 unwind label %174

83:                                               ; preds = %73
  %84 = sext i32 %.04 to i64
  %85 = getelementptr inbounds [123 x i32], [123 x i32]* @y, i64 0, i64 %84
  %86 = load i32, i32* %85, align 4
  %87 = sext i32 %.05 to i64
  %88 = getelementptr inbounds [123 x i32], [123 x i32]* @y, i64 0, i64 %87
  %89 = load i32, i32* %88, align 4
  %90 = sub nsw i32 %86, %89
  %91 = sitofp i32 %90 to double
  %92 = invoke double @_Z3sqrd(double %91)
          to label %93 unwind label %174

93:                                               ; preds = %83
  %94 = fadd double %82, %92
  %95 = sext i32 %.04 to i64
  %96 = getelementptr inbounds [123 x i32], [123 x i32]* @z, i64 0, i64 %95
  %97 = load i32, i32* %96, align 4
  %98 = sext i32 %.05 to i64
  %99 = getelementptr inbounds [123 x i32], [123 x i32]* @z, i64 0, i64 %98
  %100 = load i32, i32* %99, align 4
  %101 = sub nsw i32 %97, %100
  %102 = sitofp i32 %101 to double
  %103 = invoke double @_Z3sqrd(double %102)
          to label %104 unwind label %174

104:                                              ; preds = %93
  %105 = fadd double %94, %103
  %106 = sext i32 %.04 to i64
  %107 = getelementptr inbounds [123 x i32], [123 x i32]* @r, i64 0, i64 %106
  %108 = load i32, i32* %107, align 4
  %109 = sext i32 %.05 to i64
  %110 = getelementptr inbounds [123 x i32], [123 x i32]* @r, i64 0, i64 %109
  %111 = load i32, i32* %110, align 4
  %112 = add nsw i32 %108, %111
  %113 = sitofp i32 %112 to double
  %114 = invoke double @_Z3sqrd(double %113)
          to label %115 unwind label %174

115:                                              ; preds = %104
  %116 = fcmp olt double %105, %114
  br i1 %116, label %117, label %211

117:                                              ; preds = %115
  %118 = sext i32 %.04 to i64
  %119 = getelementptr inbounds [123 x i32], [123 x i32]* @z, i64 0, i64 %118
  %120 = load i32, i32* %119, align 4
  %121 = sext i32 %.04 to i64
  %122 = getelementptr inbounds [123 x i32], [123 x i32]* @r, i64 0, i64 %121
  %123 = load i32, i32* %122, align 4
  %124 = sub nsw i32 %120, %123
  store i32 %124, i32* %7, align 4
  %125 = sext i32 %.05 to i64
  %126 = getelementptr inbounds [123 x i32], [123 x i32]* @z, i64 0, i64 %125
  %127 = load i32, i32* %126, align 4
  %128 = sext i32 %.05 to i64
  %129 = getelementptr inbounds [123 x i32], [123 x i32]* @r, i64 0, i64 %128
  %130 = load i32, i32* %129, align 4
  %131 = sub nsw i32 %127, %130
  store i32 %131, i32* %8, align 4
  %132 = invoke dereferenceable(4) i32* @_ZSt3maxIiERKT_S2_S2_(i32* dereferenceable(4) %7, i32* dereferenceable(4) %8)
          to label %133 unwind label %174

133:                                              ; preds = %117
  %134 = load i32, i32* %132, align 4
  %135 = sext i32 %.04 to i64
  %136 = getelementptr inbounds [123 x i32], [123 x i32]* @z, i64 0, i64 %135
  %137 = load i32, i32* %136, align 4
  %138 = sext i32 %.04 to i64
  %139 = getelementptr inbounds [123 x i32], [123 x i32]* @r, i64 0, i64 %138
  %140 = load i32, i32* %139, align 4
  %141 = add nsw i32 %137, %140
  store i32 %141, i32* %9, align 4
  %142 = sext i32 %.05 to i64
  %143 = getelementptr inbounds [123 x i32], [123 x i32]* @z, i64 0, i64 %142
  %144 = load i32, i32* %143, align 4
  %145 = sext i32 %.05 to i64
  %146 = getelementptr inbounds [123 x i32], [123 x i32]* @r, i64 0, i64 %145
  %147 = load i32, i32* %146, align 4
  %148 = add nsw i32 %144, %147
  store i32 %148, i32* %10, align 4
  %149 = invoke dereferenceable(4) i32* @_ZSt3minIiERKT_S2_S2_(i32* dereferenceable(4) %9, i32* dereferenceable(4) %10)
          to label %150 unwind label %174

150:                                              ; preds = %133
  %151 = load i32, i32* %149, align 4
  %152 = sitofp i32 %134 to double
  %153 = sitofp i32 %151 to double
  br label %154

154:                                              ; preds = %180, %150
  %.012 = phi i32 [ 0, %150 ], [ %181, %180 ]
  %.010 = phi double [ %153, %150 ], [ %.111, %180 ]
  %.08 = phi double [ %152, %150 ], [ %.19, %180 ]
  %155 = icmp slt i32 %.012, 99
  br i1 %155, label %156, label %182

156:                                              ; preds = %154
  %157 = fsub double %.010, %.08
  %158 = fdiv double %157, 3.000000e+00
  %159 = fadd double %158, %.08
  %160 = fsub double %.010, %.08
  %161 = fmul double %160, 2.000000e+00
  %162 = fdiv double %161, 3.000000e+00
  %163 = fadd double %162, %.08
  %164 = invoke double @_Z4distiid(i32 %.04, i32 %.05, double %159)
          to label %165 unwind label %174

165:                                              ; preds = %156
  %166 = invoke double @_Z4distiid(i32 %.04, i32 %.05, double %163)
          to label %167 unwind label %174

167:                                              ; preds = %165
  %168 = fcmp olt double %164, %166
  br i1 %168, label %169, label %178

169:                                              ; preds = %167
  br label %179

170:                                              ; preds = %24
  %171 = landingpad { i8*, i32 }
          cleanup
  %172 = extractvalue { i8*, i32 } %171, 0
  %173 = extractvalue { i8*, i32 } %171, 1
  call void @_ZNSaIdED2Ev(%"class.std::allocator"* %4) #3
  br label %386

174:                                              ; preds = %222, %219, %217, %209, %208, %196, %187, %165, %156, %133, %117, %104, %93, %83, %73, %61, %52, %48, %44, %40, %36
  %175 = landingpad { i8*, i32 }
          cleanup
  %176 = extractvalue { i8*, i32 } %175, 0
  %177 = extractvalue { i8*, i32 } %175, 1
  br label %384

178:                                              ; preds = %167
  br label %179

179:                                              ; preds = %178, %169
  %.111 = phi double [ %.010, %169 ], [ %163, %178 ]
  %.19 = phi double [ %159, %169 ], [ %.08, %178 ]
  br label %180

180:                                              ; preds = %179
  %181 = add nsw i32 %.012, 1
  br label %154

182:                                              ; preds = %154
  %183 = sitofp i32 %134 to double
  store double %183, double* %11, align 8
  store double %.08, double* %12, align 8
  %184 = sitofp i32 %151 to double
  br label %185

185:                                              ; preds = %206, %182
  %.019 = phi i32 [ 0, %182 ], [ %207, %206 ]
  %.017 = phi double [ %184, %182 ], [ %.118, %206 ]
  %.015 = phi double [ %.08, %182 ], [ %.116, %206 ]
  %186 = icmp slt i32 %.019, 99
  br i1 %186, label %187, label %208

187:                                              ; preds = %185
  %188 = load double, double* %11, align 8
  %189 = fadd double %.015, %188
  %190 = fdiv double %189, 2.000000e+00
  %191 = invoke double @_Z5crossiid(i32 %.04, i32 %.05, double %190)
          to label %192 unwind label %174

192:                                              ; preds = %187
  %193 = fcmp une double %191, 0.000000e+00
  br i1 %193, label %194, label %195

194:                                              ; preds = %192
  br label %196

195:                                              ; preds = %192
  store double %190, double* %11, align 8
  br label %196

196:                                              ; preds = %195, %194
  %.116 = phi double [ %190, %194 ], [ %.015, %195 ]
  %197 = load double, double* %12, align 8
  %198 = fadd double %197, %.017
  %199 = fdiv double %198, 2.000000e+00
  %200 = invoke double @_Z5crossiid(i32 %.04, i32 %.05, double %199)
          to label %201 unwind label %174

201:                                              ; preds = %196
  %202 = fcmp une double %200, 0.000000e+00
  br i1 %202, label %203, label %204

203:                                              ; preds = %201
  store double %199, double* %12, align 8
  br label %205

204:                                              ; preds = %201
  br label %205

205:                                              ; preds = %204, %203
  %.118 = phi double [ %.017, %203 ], [ %199, %204 ]
  br label %206

206:                                              ; preds = %205
  %207 = add nsw i32 %.019, 1
  br label %185

208:                                              ; preds = %185
  invoke void @_ZNSt6vectorIdSaIdEE9push_backERKd(%"class.std::vector"* %2, double* dereferenceable(8) %11)
          to label %209 unwind label %174

209:                                              ; preds = %208
  invoke void @_ZNSt6vectorIdSaIdEE9push_backERKd(%"class.std::vector"* %2, double* dereferenceable(8) %12)
          to label %210 unwind label %174

210:                                              ; preds = %209
  br label %211

211:                                              ; preds = %210, %115
  br label %212

212:                                              ; preds = %211
  %213 = add nsw i32 %.05, 1
  br label %71

214:                                              ; preds = %71
  br label %215

215:                                              ; preds = %214
  %216 = add nsw i32 %.04, 1
  br label %33

217:                                              ; preds = %33
  %218 = invoke double* @_ZSt5beginISt6vectorIdSaIdEEEDTcldtfp_5beginEERT_(%"class.std::vector"* dereferenceable(24) %2)
          to label %219 unwind label %174

219:                                              ; preds = %217
  %220 = getelementptr inbounds %"class.__gnu_cxx::__normal_iterator", %"class.__gnu_cxx::__normal_iterator"* %13, i32 0, i32 0
  store double* %218, double** %220, align 8
  %221 = invoke double* @_ZSt3endISt6vectorIdSaIdEEEDTcldtfp_3endEERT_(%"class.std::vector"* dereferenceable(24) %2)
          to label %222 unwind label %174

222:                                              ; preds = %219
  %223 = getelementptr inbounds %"class.__gnu_cxx::__normal_iterator", %"class.__gnu_cxx::__normal_iterator"* %14, i32 0, i32 0
  store double* %221, double** %223, align 8
  %224 = getelementptr inbounds %"class.__gnu_cxx::__normal_iterator", %"class.__gnu_cxx::__normal_iterator"* %13, i32 0, i32 0
  %225 = load double*, double** %224, align 8
  %226 = getelementptr inbounds %"class.__gnu_cxx::__normal_iterator", %"class.__gnu_cxx::__normal_iterator"* %14, i32 0, i32 0
  %227 = load double*, double** %226, align 8
  invoke void @_ZSt4sortIN9__gnu_cxx17__normal_iteratorIPdSt6vectorIdSaIdEEEEEvT_S7_(double* %225, double* %227)
          to label %228 unwind label %174

228:                                              ; preds = %222
  %229 = getelementptr inbounds %"class.std::initializer_list.5", %"class.std::initializer_list.5"* %16, i32 0, i32 0
  store i32* getelementptr inbounds ([1 x i32], [1 x i32]* @.ref.tmp.1, i64 0, i64 0), i32** %229, align 8
  %230 = getelementptr inbounds %"class.std::initializer_list.5", %"class.std::initializer_list.5"* %16, i32 0, i32 1
  store i64 1, i64* %230, align 8
  call void @_ZNSaIiEC2Ev(%"class.std::allocator.2"* %17) #3
  %231 = bitcast %"class.std::initializer_list.5"* %16 to { i32*, i64 }*
  %232 = getelementptr inbounds { i32*, i64 }, { i32*, i64 }* %231, i32 0, i32 0
  %233 = load i32*, i32** %232, align 8
  %234 = getelementptr inbounds { i32*, i64 }, { i32*, i64 }* %231, i32 0, i32 1
  %235 = load i64, i64* %234, align 8
  invoke void @_ZNSt6vectorIiSaIiEEC2ESt16initializer_listIiERKS0_(%"class.std::vector.0"* %15, i32* %233, i64 %235, %"class.std::allocator.2"* dereferenceable(1) %17)
          to label %236 unwind label %303

236:                                              ; preds = %228
  call void @_ZNSaIiED2Ev(%"class.std::allocator.2"* %17) #3
  br label %237

237:                                              ; preds = %353, %236
  %.014 = phi i32 [ 0, %236 ], [ %354, %353 ]
  %238 = sext i32 %.014 to i64
  %239 = call i64 @_ZNKSt6vectorIdSaIdEE4sizeEv(%"class.std::vector"* %2) #3
  %240 = sub i64 %239, 1
  %241 = icmp ult i64 %238, %240
  br i1 %241, label %242, label %355

242:                                              ; preds = %237
  %243 = sext i32 %.014 to i64
  %244 = call dereferenceable(8) double* @_ZNSt6vectorIdSaIdEEixEm(%"class.std::vector"* %2, i64 %243) #3
  %245 = load double, double* %244, align 8
  %246 = add nsw i32 %.014, 1
  %247 = sext i32 %246 to i64
  %248 = call dereferenceable(8) double* @_ZNSt6vectorIdSaIdEEixEm(%"class.std::vector"* %2, i64 %247) #3
  %249 = load double, double* %248, align 8
  %250 = fadd double %245, %249
  %251 = fdiv double %250, 2.000000e+00
  %252 = invoke i32* @_ZSt5beginIiLm123EEPT_RAT0__S0_([123 x i32]* dereferenceable(492) @par)
          to label %253 unwind label %307

253:                                              ; preds = %242
  %254 = invoke i32* @_ZSt3endIiLm123EEPT_RAT0__S0_([123 x i32]* dereferenceable(492) @par)
          to label %255 unwind label %307

255:                                              ; preds = %253
  invoke void @_ZSt4iotaIPiiEvT_S1_T0_(i32* %252, i32* %254, i32 0)
          to label %256 unwind label %307

256:                                              ; preds = %255
  br label %257

257:                                              ; preds = %319, %256
  %.013 = phi i32 [ 0, %256 ], [ %320, %319 ]
  %258 = load i32, i32* %1, align 4
  %259 = icmp slt i32 %.013, %258
  br i1 %259, label %260, label %321

260:                                              ; preds = %257
  %261 = sext i32 %.013 to i64
  %262 = getelementptr inbounds [123 x i32], [123 x i32]* @r, i64 0, i64 %261
  %263 = load i32, i32* %262, align 4
  %264 = sext i32 %.013 to i64
  %265 = getelementptr inbounds [123 x i32], [123 x i32]* @r, i64 0, i64 %264
  %266 = load i32, i32* %265, align 4
  %267 = mul nsw i32 %263, %266
  %268 = sitofp i32 %267 to double
  %269 = sext i32 %.013 to i64
  %270 = getelementptr inbounds [123 x i32], [123 x i32]* @z, i64 0, i64 %269
  %271 = load i32, i32* %270, align 4
  %272 = sitofp i32 %271 to double
  %273 = fsub double %272, %251
  %274 = invoke double @_Z3sqrd(double %273)
          to label %275 unwind label %307

275:                                              ; preds = %260
  %276 = fcmp ogt double %268, %274
  br i1 %276, label %277, label %315

277:                                              ; preds = %275
  br label %278

278:                                              ; preds = %312, %277
  %.07 = phi i32 [ 0, %277 ], [ %313, %312 ]
  %279 = icmp slt i32 %.07, %.013
  br i1 %279, label %280, label %314

280:                                              ; preds = %278
  %281 = sext i32 %.07 to i64
  %282 = getelementptr inbounds [123 x i32], [123 x i32]* @r, i64 0, i64 %281
  %283 = load i32, i32* %282, align 4
  %284 = sext i32 %.07 to i64
  %285 = getelementptr inbounds [123 x i32], [123 x i32]* @r, i64 0, i64 %284
  %286 = load i32, i32* %285, align 4
  %287 = mul nsw i32 %283, %286
  %288 = sitofp i32 %287 to double
  %289 = sext i32 %.07 to i64
  %290 = getelementptr inbounds [123 x i32], [123 x i32]* @z, i64 0, i64 %289
  %291 = load i32, i32* %290, align 4
  %292 = sitofp i32 %291 to double
  %293 = fsub double %292, %251
  %294 = invoke double @_Z3sqrd(double %293)
          to label %295 unwind label %307

295:                                              ; preds = %280
  %296 = fcmp ogt double %288, %294
  br i1 %296, label %297, label %311

297:                                              ; preds = %295
  %298 = invoke double @_Z5crossiid(i32 %.013, i32 %.07, double %251)
          to label %299 unwind label %307

299:                                              ; preds = %297
  %300 = fcmp une double %298, 0.000000e+00
  br i1 %300, label %301, label %311

301:                                              ; preds = %299
  invoke void @_Z5uniteii(i32 %.013, i32 %.07)
          to label %302 unwind label %307

302:                                              ; preds = %301
  br label %311

303:                                              ; preds = %228
  %304 = landingpad { i8*, i32 }
          cleanup
  %305 = extractvalue { i8*, i32 } %304, 0
  %306 = extractvalue { i8*, i32 } %304, 1
  call void @_ZNSaIiED2Ev(%"class.std::allocator.2"* %17) #3
  br label %384

307:                                              ; preds = %381, %367, %359, %355, %350, %331, %301, %297, %280, %260, %255, %253, %242
  %308 = landingpad { i8*, i32 }
          cleanup
  %309 = extractvalue { i8*, i32 } %308, 0
  %310 = extractvalue { i8*, i32 } %308, 1
  call void @_ZNSt6vectorIiSaIiEED2Ev(%"class.std::vector.0"* %15) #3
  br label %384

311:                                              ; preds = %302, %299, %295
  br label %312

312:                                              ; preds = %311
  %313 = add nsw i32 %.07, 1
  br label %278

314:                                              ; preds = %278
  br label %318

315:                                              ; preds = %275
  %316 = sext i32 %.013 to i64
  %317 = getelementptr inbounds [123 x i32], [123 x i32]* @par, i64 0, i64 %316
  store i32 -1, i32* %317, align 4
  br label %318

318:                                              ; preds = %315, %314
  br label %319

319:                                              ; preds = %318
  %320 = add nsw i32 %.013, 1
  br label %257

321:                                              ; preds = %257
  %322 = bitcast [123 x i8]* %18 to i8*
  call void @llvm.memset.p0i8.i64(i8* align 16 %322, i8 0, i64 123, i1 false)
  store i32 0, i32* %19, align 4
  br label %323

323:                                              ; preds = %343, %321
  %.06 = phi i32 [ 0, %321 ], [ %344, %343 ]
  %324 = load i32, i32* %1, align 4
  %325 = icmp slt i32 %.06, %324
  br i1 %325, label %326, label %345

326:                                              ; preds = %323
  %327 = sext i32 %.06 to i64
  %328 = getelementptr inbounds [123 x i32], [123 x i32]* @par, i64 0, i64 %327
  %329 = load i32, i32* %328, align 4
  %330 = icmp sge i32 %329, 0
  br i1 %330, label %331, label %342

331:                                              ; preds = %326
  %332 = invoke i32 @_Z4findi(i32 %.06)
          to label %333 unwind label %307

333:                                              ; preds = %331
  %334 = sext i32 %332 to i64
  %335 = getelementptr inbounds [123 x i8], [123 x i8]* %18, i64 0, i64 %334
  %336 = load i8, i8* %335, align 1
  %337 = trunc i8 %336 to i1
  store i8 1, i8* %335, align 1
  %338 = xor i1 %337, true
  %339 = zext i1 %338 to i32
  %340 = load i32, i32* %19, align 4
  %341 = add nsw i32 %340, %339
  store i32 %341, i32* %19, align 4
  br label %342

342:                                              ; preds = %333, %326
  br label %343

343:                                              ; preds = %342
  %344 = add nsw i32 %.06, 1
  br label %323

345:                                              ; preds = %323
  %346 = load i32, i32* %19, align 4
  %347 = call dereferenceable(4) i32* @_ZNSt6vectorIiSaIiEE4backEv(%"class.std::vector.0"* %15) #3
  %348 = load i32, i32* %347, align 4
  %349 = icmp ne i32 %346, %348
  br i1 %349, label %350, label %352

350:                                              ; preds = %345
  invoke void @_ZNSt6vectorIiSaIiEE9push_backERKi(%"class.std::vector.0"* %15, i32* dereferenceable(4) %19)
          to label %351 unwind label %307

351:                                              ; preds = %350
  br label %352

352:                                              ; preds = %351, %345
  br label %353

353:                                              ; preds = %352
  %354 = add nsw i32 %.014, 1
  br label %237

355:                                              ; preds = %237
  %356 = call i64 @_ZNKSt6vectorIiSaIiEE4sizeEv(%"class.std::vector.0"* %15) #3
  %357 = sub i64 %356, 1
  %358 = invoke dereferenceable(272) %"class.std::basic_ostream"* @_ZNSolsEm(%"class.std::basic_ostream"* @_ZSt4cout, i64 %357)
          to label %359 unwind label %307

359:                                              ; preds = %355
  %360 = invoke dereferenceable(272) %"class.std::basic_ostream"* @_ZNSolsEPFRSoS_E(%"class.std::basic_ostream"* %358, %"class.std::basic_ostream"* (%"class.std::basic_ostream"*)* @_ZSt4endlIcSt11char_traitsIcEERSt13basic_ostreamIT_T0_ES6_)
          to label %361 unwind label %307

361:                                              ; preds = %359
  br label %362

362:                                              ; preds = %379, %361
  %.0 = phi i32 [ 0, %361 ], [ %380, %379 ]
  %363 = sext i32 %.0 to i64
  %364 = call i64 @_ZNKSt6vectorIiSaIiEE4sizeEv(%"class.std::vector.0"* %15) #3
  %365 = sub i64 %364, 1
  %366 = icmp ult i64 %363, %365
  br i1 %366, label %367, label %381

367:                                              ; preds = %362
  %368 = add nsw i32 %.0, 1
  %369 = sext i32 %368 to i64
  %370 = call dereferenceable(4) i32* @_ZNSt6vectorIiSaIiEEixEm(%"class.std::vector.0"* %15, i64 %369) #3
  %371 = load i32, i32* %370, align 4
  %372 = sext i32 %.0 to i64
  %373 = call dereferenceable(4) i32* @_ZNSt6vectorIiSaIiEEixEm(%"class.std::vector.0"* %15, i64 %372) #3
  %374 = load i32, i32* %373, align 4
  %375 = sub nsw i32 %371, %374
  %376 = icmp eq i32 %375, 1
  %377 = invoke dereferenceable(272) %"class.std::basic_ostream"* @_ZNSolsEb(%"class.std::basic_ostream"* @_ZSt4cout, i1 zeroext %376)
          to label %378 unwind label %307

378:                                              ; preds = %367
  br label %379

379:                                              ; preds = %378
  %380 = add nsw i32 %.0, 1
  br label %362

381:                                              ; preds = %362
  %382 = invoke dereferenceable(272) %"class.std::basic_ostream"* @_ZNSolsEPFRSoS_E(%"class.std::basic_ostream"* @_ZSt4cout, %"class.std::basic_ostream"* (%"class.std::basic_ostream"*)* @_ZSt4endlIcSt11char_traitsIcEERSt13basic_ostreamIT_T0_ES6_)
          to label %383 unwind label %307

383:                                              ; preds = %381
  call void @_ZNSt6vectorIiSaIiEED2Ev(%"class.std::vector.0"* %15) #3
  call void @_ZNSt6vectorIdSaIdEED2Ev(%"class.std::vector"* %2) #3
  br label %20

384:                                              ; preds = %307, %303, %174
  %.02 = phi i32 [ %177, %174 ], [ %310, %307 ], [ %306, %303 ]
  %.01 = phi i8* [ %176, %174 ], [ %309, %307 ], [ %305, %303 ]
  call void @_ZNSt6vectorIdSaIdEED2Ev(%"class.std::vector"* %2) #3
  br label %386

385:                                              ; preds = %20
  ret i32 0

386:                                              ; preds = %384, %170
  %.13 = phi i32 [ %.02, %384 ], [ %173, %170 ]
  %.1 = phi i8* [ %.01, %384 ], [ %172, %170 ]
  %387 = insertvalue { i8*, i32 } undef, i8* %.1, 0
  %388 = insertvalue { i8*, i32 } %387, i32 %.13, 1
  resume { i8*, i32 } %388
}

declare dereferenceable(280) %"class.std::basic_istream"* @_ZNSirsERi(%"class.std::basic_istream"*, i32* dereferenceable(4)) #1

; Function Attrs: noinline nounwind uwtable
define linkonce_odr void @_ZNSaIdEC2Ev(%"class.std::allocator"* %0) unnamed_addr #4 comdat align 2 {
  %2 = bitcast %"class.std::allocator"* %0 to %"class.__gnu_cxx::new_allocator"*
  call void @_ZN9__gnu_cxx13new_allocatorIdEC2Ev(%"class.__gnu_cxx::new_allocator"* %2) #3
  ret void
}

; Function Attrs: noinline uwtable
define linkonce_odr void @_ZNSt6vectorIdSaIdEEC2ESt16initializer_listIdERKS0_(%"class.std::vector"* %0, double* %1, i64 %2, %"class.std::allocator"* dereferenceable(1) %3) unnamed_addr #0 comdat align 2 personality i8* bitcast (i32 (...)* @__gxx_personality_v0 to i8*) {
  %5 = alloca %"class.std::initializer_list", align 8
  %6 = bitcast %"class.std::initializer_list"* %5 to { double*, i64 }*
  %7 = getelementptr inbounds { double*, i64 }, { double*, i64 }* %6, i32 0, i32 0
  store double* %1, double** %7, align 8
  %8 = getelementptr inbounds { double*, i64 }, { double*, i64 }* %6, i32 0, i32 1
  store i64 %2, i64* %8, align 8
  %9 = bitcast %"class.std::vector"* %0 to %"struct.std::_Vector_base"*
  call void @_ZNSt12_Vector_baseIdSaIdEEC2ERKS0_(%"struct.std::_Vector_base"* %9, %"class.std::allocator"* dereferenceable(1) %3) #3
  %10 = call double* @_ZNKSt16initializer_listIdE5beginEv(%"class.std::initializer_list"* %5) #3
  %11 = call double* @_ZNKSt16initializer_listIdE3endEv(%"class.std::initializer_list"* %5) #3
  invoke void @_ZNSt6vectorIdSaIdEE19_M_range_initializeIPKdEEvT_S5_St20forward_iterator_tag(%"class.std::vector"* %0, double* %10, double* %11)
          to label %12 unwind label %13

12:                                               ; preds = %4
  ret void

13:                                               ; preds = %4
  %14 = landingpad { i8*, i32 }
          cleanup
  %15 = extractvalue { i8*, i32 } %14, 0
  %16 = extractvalue { i8*, i32 } %14, 1
  %17 = bitcast %"class.std::vector"* %0 to %"struct.std::_Vector_base"*
  call void @_ZNSt12_Vector_baseIdSaIdEED2Ev(%"struct.std::_Vector_base"* %17) #3
  br label %18

18:                                               ; preds = %13
  %19 = insertvalue { i8*, i32 } undef, i8* %15, 0
  %20 = insertvalue { i8*, i32 } %19, i32 %16, 1
  resume { i8*, i32 } %20
}

declare i32 @__gxx_personality_v0(...)

; Function Attrs: noinline nounwind uwtable
define linkonce_odr void @_ZNSaIdED2Ev(%"class.std::allocator"* %0) unnamed_addr #4 comdat align 2 {
  %2 = bitcast %"class.std::allocator"* %0 to %"class.__gnu_cxx::new_allocator"*
  call void @_ZN9__gnu_cxx13new_allocatorIdED2Ev(%"class.__gnu_cxx::new_allocator"* %2) #3
  ret void
}

; Function Attrs: noinline uwtable
define linkonce_odr void @_ZNSt6vectorIdSaIdEE9push_backEOd(%"class.std::vector"* %0, double* dereferenceable(8) %1) #0 comdat align 2 {
  %3 = call dereferenceable(8) double* @_ZSt4moveIRdEONSt16remove_referenceIT_E4typeEOS2_(double* dereferenceable(8) %1) #3
  call void @_ZNSt6vectorIdSaIdEE12emplace_backIJdEEEvDpOT_(%"class.std::vector"* %0, double* dereferenceable(8) %3)
  ret void
}

; Function Attrs: noinline nounwind uwtable
define linkonce_odr dereferenceable(4) i32* @_ZSt3maxIiERKT_S2_S2_(i32* dereferenceable(4) %0, i32* dereferenceable(4) %1) #4 comdat {
  %3 = load i32, i32* %0, align 4
  %4 = load i32, i32* %1, align 4
  %5 = icmp slt i32 %3, %4
  br i1 %5, label %6, label %7

6:                                                ; preds = %2
  br label %8

7:                                                ; preds = %2
  br label %8

8:                                                ; preds = %7, %6
  %.0 = phi i32* [ %1, %6 ], [ %0, %7 ]
  ret i32* %.0
}

; Function Attrs: noinline nounwind uwtable
define linkonce_odr dereferenceable(4) i32* @_ZSt3minIiERKT_S2_S2_(i32* dereferenceable(4) %0, i32* dereferenceable(4) %1) #4 comdat {
  %3 = load i32, i32* %1, align 4
  %4 = load i32, i32* %0, align 4
  %5 = icmp slt i32 %3, %4
  br i1 %5, label %6, label %7

6:                                                ; preds = %2
  br label %8

7:                                                ; preds = %2
  br label %8

8:                                                ; preds = %7, %6
  %.0 = phi i32* [ %1, %6 ], [ %0, %7 ]
  ret i32* %.0
}

; Function Attrs: noinline uwtable
define linkonce_odr void @_ZNSt6vectorIdSaIdEE9push_backERKd(%"class.std::vector"* %0, double* dereferenceable(8) %1) #0 comdat align 2 {
  %3 = alloca %"class.__gnu_cxx::__normal_iterator", align 8
  %4 = bitcast %"class.std::vector"* %0 to %"struct.std::_Vector_base"*
  %5 = getelementptr inbounds %"struct.std::_Vector_base", %"struct.std::_Vector_base"* %4, i32 0, i32 0
  %6 = getelementptr inbounds %"struct.std::_Vector_base<double, std::allocator<double> >::_Vector_impl", %"struct.std::_Vector_base<double, std::allocator<double> >::_Vector_impl"* %5, i32 0, i32 1
  %7 = load double*, double** %6, align 8
  %8 = bitcast %"class.std::vector"* %0 to %"struct.std::_Vector_base"*
  %9 = getelementptr inbounds %"struct.std::_Vector_base", %"struct.std::_Vector_base"* %8, i32 0, i32 0
  %10 = getelementptr inbounds %"struct.std::_Vector_base<double, std::allocator<double> >::_Vector_impl", %"struct.std::_Vector_base<double, std::allocator<double> >::_Vector_impl"* %9, i32 0, i32 2
  %11 = load double*, double** %10, align 8
  %12 = icmp ne double* %7, %11
  br i1 %12, label %13, label %26

13:                                               ; preds = %2
  %14 = bitcast %"class.std::vector"* %0 to %"struct.std::_Vector_base"*
  %15 = getelementptr inbounds %"struct.std::_Vector_base", %"struct.std::_Vector_base"* %14, i32 0, i32 0
  %16 = bitcast %"struct.std::_Vector_base<double, std::allocator<double> >::_Vector_impl"* %15 to %"class.std::allocator"*
  %17 = bitcast %"class.std::vector"* %0 to %"struct.std::_Vector_base"*
  %18 = getelementptr inbounds %"struct.std::_Vector_base", %"struct.std::_Vector_base"* %17, i32 0, i32 0
  %19 = getelementptr inbounds %"struct.std::_Vector_base<double, std::allocator<double> >::_Vector_impl", %"struct.std::_Vector_base<double, std::allocator<double> >::_Vector_impl"* %18, i32 0, i32 1
  %20 = load double*, double** %19, align 8
  call void @_ZNSt16allocator_traitsISaIdEE9constructIdJRKdEEEvRS0_PT_DpOT0_(%"class.std::allocator"* dereferenceable(1) %16, double* %20, double* dereferenceable(8) %1)
  %21 = bitcast %"class.std::vector"* %0 to %"struct.std::_Vector_base"*
  %22 = getelementptr inbounds %"struct.std::_Vector_base", %"struct.std::_Vector_base"* %21, i32 0, i32 0
  %23 = getelementptr inbounds %"struct.std::_Vector_base<double, std::allocator<double> >::_Vector_impl", %"struct.std::_Vector_base<double, std::allocator<double> >::_Vector_impl"* %22, i32 0, i32 1
  %24 = load double*, double** %23, align 8
  %25 = getelementptr inbounds double, double* %24, i32 1
  store double* %25, double** %23, align 8
  br label %31

26:                                               ; preds = %2
  %27 = call double* @_ZNSt6vectorIdSaIdEE3endEv(%"class.std::vector"* %0) #3
  %28 = getelementptr inbounds %"class.__gnu_cxx::__normal_iterator", %"class.__gnu_cxx::__normal_iterator"* %3, i32 0, i32 0
  store double* %27, double** %28, align 8
  %29 = getelementptr inbounds %"class.__gnu_cxx::__normal_iterator", %"class.__gnu_cxx::__normal_iterator"* %3, i32 0, i32 0
  %30 = load double*, double** %29, align 8
  call void @_ZNSt6vectorIdSaIdEE17_M_realloc_insertIJRKdEEEvN9__gnu_cxx17__normal_iteratorIPdS1_EEDpOT_(%"class.std::vector"* %0, double* %30, double* dereferenceable(8) %1)
  br label %31

31:                                               ; preds = %26, %13
  ret void
}

; Function Attrs: noinline uwtable
define linkonce_odr void @_ZSt4sortIN9__gnu_cxx17__normal_iteratorIPdSt6vectorIdSaIdEEEEEvT_S7_(double* %0, double* %1) #0 comdat {
  %3 = alloca %"class.__gnu_cxx::__normal_iterator", align 8
  %4 = alloca %"class.__gnu_cxx::__normal_iterator", align 8
  %5 = alloca %"class.__gnu_cxx::__normal_iterator", align 8
  %6 = alloca %"class.__gnu_cxx::__normal_iterator", align 8
  %7 = getelementptr inbounds %"class.__gnu_cxx::__normal_iterator", %"class.__gnu_cxx::__normal_iterator"* %3, i32 0, i32 0
  store double* %0, double** %7, align 8
  %8 = getelementptr inbounds %"class.__gnu_cxx::__normal_iterator", %"class.__gnu_cxx::__normal_iterator"* %4, i32 0, i32 0
  store double* %1, double** %8, align 8
  %9 = bitcast %"class.__gnu_cxx::__normal_iterator"* %5 to i8*
  %10 = bitcast %"class.__gnu_cxx::__normal_iterator"* %3 to i8*
  call void @llvm.memcpy.p0i8.p0i8.i64(i8* align 8 %9, i8* align 8 %10, i64 8, i1 false)
  %11 = bitcast %"class.__gnu_cxx::__normal_iterator"* %6 to i8*
  %12 = bitcast %"class.__gnu_cxx::__normal_iterator"* %4 to i8*
  call void @llvm.memcpy.p0i8.p0i8.i64(i8* align 8 %11, i8* align 8 %12, i64 8, i1 false)
  call void @_ZN9__gnu_cxx5__ops16__iter_less_iterEv()
  %13 = getelementptr inbounds %"class.__gnu_cxx::__normal_iterator", %"class.__gnu_cxx::__normal_iterator"* %5, i32 0, i32 0
  %14 = load double*, double** %13, align 8
  %15 = getelementptr inbounds %"class.__gnu_cxx::__normal_iterator", %"class.__gnu_cxx::__normal_iterator"* %6, i32 0, i32 0
  %16 = load double*, double** %15, align 8
  call void @_ZSt6__sortIN9__gnu_cxx17__normal_iteratorIPdSt6vectorIdSaIdEEEENS0_5__ops15_Iter_less_iterEEvT_S9_T0_(double* %14, double* %16)
  ret void
}

; Function Attrs: noinline nounwind uwtable
define linkonce_odr double* @_ZSt5beginISt6vectorIdSaIdEEEDTcldtfp_5beginEERT_(%"class.std::vector"* dereferenceable(24) %0) #4 comdat {
  %2 = alloca %"class.__gnu_cxx::__normal_iterator", align 8
  %3 = call double* @_ZNSt6vectorIdSaIdEE5beginEv(%"class.std::vector"* %0) #3
  %4 = getelementptr inbounds %"class.__gnu_cxx::__normal_iterator", %"class.__gnu_cxx::__normal_iterator"* %2, i32 0, i32 0
  store double* %3, double** %4, align 8
  %5 = getelementptr inbounds %"class.__gnu_cxx::__normal_iterator", %"class.__gnu_cxx::__normal_iterator"* %2, i32 0, i32 0
  %6 = load double*, double** %5, align 8
  ret double* %6
}

; Function Attrs: noinline nounwind uwtable
define linkonce_odr double* @_ZSt3endISt6vectorIdSaIdEEEDTcldtfp_3endEERT_(%"class.std::vector"* dereferenceable(24) %0) #4 comdat {
  %2 = alloca %"class.__gnu_cxx::__normal_iterator", align 8
  %3 = call double* @_ZNSt6vectorIdSaIdEE3endEv(%"class.std::vector"* %0) #3
  %4 = getelementptr inbounds %"class.__gnu_cxx::__normal_iterator", %"class.__gnu_cxx::__normal_iterator"* %2, i32 0, i32 0
  store double* %3, double** %4, align 8
  %5 = getelementptr inbounds %"class.__gnu_cxx::__normal_iterator", %"class.__gnu_cxx::__normal_iterator"* %2, i32 0, i32 0
  %6 = load double*, double** %5, align 8
  ret double* %6
}

; Function Attrs: noinline nounwind uwtable
define linkonce_odr void @_ZNSaIiEC2Ev(%"class.std::allocator.2"* %0) unnamed_addr #4 comdat align 2 {
  %2 = bitcast %"class.std::allocator.2"* %0 to %"class.__gnu_cxx::new_allocator.3"*
  call void @_ZN9__gnu_cxx13new_allocatorIiEC2Ev(%"class.__gnu_cxx::new_allocator.3"* %2) #3
  ret void
}

; Function Attrs: noinline uwtable
define linkonce_odr void @_ZNSt6vectorIiSaIiEEC2ESt16initializer_listIiERKS0_(%"class.std::vector.0"* %0, i32* %1, i64 %2, %"class.std::allocator.2"* dereferenceable(1) %3) unnamed_addr #0 comdat align 2 personality i8* bitcast (i32 (...)* @__gxx_personality_v0 to i8*) {
  %5 = alloca %"class.std::initializer_list.5", align 8
  %6 = bitcast %"class.std::initializer_list.5"* %5 to { i32*, i64 }*
  %7 = getelementptr inbounds { i32*, i64 }, { i32*, i64 }* %6, i32 0, i32 0
  store i32* %1, i32** %7, align 8
  %8 = getelementptr inbounds { i32*, i64 }, { i32*, i64 }* %6, i32 0, i32 1
  store i64 %2, i64* %8, align 8
  %9 = bitcast %"class.std::vector.0"* %0 to %"struct.std::_Vector_base.1"*
  call void @_ZNSt12_Vector_baseIiSaIiEEC2ERKS0_(%"struct.std::_Vector_base.1"* %9, %"class.std::allocator.2"* dereferenceable(1) %3) #3
  %10 = call i32* @_ZNKSt16initializer_listIiE5beginEv(%"class.std::initializer_list.5"* %5) #3
  %11 = call i32* @_ZNKSt16initializer_listIiE3endEv(%"class.std::initializer_list.5"* %5) #3
  invoke void @_ZNSt6vectorIiSaIiEE19_M_range_initializeIPKiEEvT_S5_St20forward_iterator_tag(%"class.std::vector.0"* %0, i32* %10, i32* %11)
          to label %12 unwind label %13

12:                                               ; preds = %4
  ret void

13:                                               ; preds = %4
  %14 = landingpad { i8*, i32 }
          cleanup
  %15 = extractvalue { i8*, i32 } %14, 0
  %16 = extractvalue { i8*, i32 } %14, 1
  %17 = bitcast %"class.std::vector.0"* %0 to %"struct.std::_Vector_base.1"*
  call void @_ZNSt12_Vector_baseIiSaIiEED2Ev(%"struct.std::_Vector_base.1"* %17) #3
  br label %18

18:                                               ; preds = %13
  %19 = insertvalue { i8*, i32 } undef, i8* %15, 0
  %20 = insertvalue { i8*, i32 } %19, i32 %16, 1
  resume { i8*, i32 } %20
}

; Function Attrs: noinline nounwind uwtable
define linkonce_odr void @_ZNSaIiED2Ev(%"class.std::allocator.2"* %0) unnamed_addr #4 comdat align 2 {
  %2 = bitcast %"class.std::allocator.2"* %0 to %"class.__gnu_cxx::new_allocator.3"*
  call void @_ZN9__gnu_cxx13new_allocatorIiED2Ev(%"class.__gnu_cxx::new_allocator.3"* %2) #3
  ret void
}

; Function Attrs: noinline nounwind uwtable
define linkonce_odr i64 @_ZNKSt6vectorIdSaIdEE4sizeEv(%"class.std::vector"* %0) #4 comdat align 2 {
  %2 = bitcast %"class.std::vector"* %0 to %"struct.std::_Vector_base"*
  %3 = getelementptr inbounds %"struct.std::_Vector_base", %"struct.std::_Vector_base"* %2, i32 0, i32 0
  %4 = getelementptr inbounds %"struct.std::_Vector_base<double, std::allocator<double> >::_Vector_impl", %"struct.std::_Vector_base<double, std::allocator<double> >::_Vector_impl"* %3, i32 0, i32 1
  %5 = load double*, double** %4, align 8
  %6 = bitcast %"class.std::vector"* %0 to %"struct.std::_Vector_base"*
  %7 = getelementptr inbounds %"struct.std::_Vector_base", %"struct.std::_Vector_base"* %6, i32 0, i32 0
  %8 = getelementptr inbounds %"struct.std::_Vector_base<double, std::allocator<double> >::_Vector_impl", %"struct.std::_Vector_base<double, std::allocator<double> >::_Vector_impl"* %7, i32 0, i32 0
  %9 = load double*, double** %8, align 8
  %10 = ptrtoint double* %5 to i64
  %11 = ptrtoint double* %9 to i64
  %12 = sub i64 %10, %11
  %13 = sdiv exact i64 %12, 8
  ret i64 %13
}

; Function Attrs: noinline nounwind uwtable
define linkonce_odr dereferenceable(8) double* @_ZNSt6vectorIdSaIdEEixEm(%"class.std::vector"* %0, i64 %1) #4 comdat align 2 {
  %3 = bitcast %"class.std::vector"* %0 to %"struct.std::_Vector_base"*
  %4 = getelementptr inbounds %"struct.std::_Vector_base", %"struct.std::_Vector_base"* %3, i32 0, i32 0
  %5 = getelementptr inbounds %"struct.std::_Vector_base<double, std::allocator<double> >::_Vector_impl", %"struct.std::_Vector_base<double, std::allocator<double> >::_Vector_impl"* %4, i32 0, i32 0
  %6 = load double*, double** %5, align 8
  %7 = getelementptr inbounds double, double* %6, i64 %1
  ret double* %7
}

; Function Attrs: noinline nounwind uwtable
define linkonce_odr void @_ZSt4iotaIPiiEvT_S1_T0_(i32* %0, i32* %1, i32 %2) #4 comdat {
  br label %4

4:                                                ; preds = %8, %3
  %.01 = phi i32 [ %2, %3 ], [ %7, %8 ]
  %.0 = phi i32* [ %0, %3 ], [ %9, %8 ]
  %5 = icmp ne i32* %.0, %1
  br i1 %5, label %6, label %10

6:                                                ; preds = %4
  store i32 %.01, i32* %.0, align 4
  %7 = add nsw i32 %.01, 1
  br label %8

8:                                                ; preds = %6
  %9 = getelementptr inbounds i32, i32* %.0, i32 1
  br label %4

10:                                               ; preds = %4
  ret void
}

; Function Attrs: noinline nounwind uwtable
define linkonce_odr i32* @_ZSt5beginIiLm123EEPT_RAT0__S0_([123 x i32]* dereferenceable(492) %0) #4 comdat {
  %2 = getelementptr inbounds [123 x i32], [123 x i32]* %0, i32 0, i32 0
  ret i32* %2
}

; Function Attrs: noinline nounwind uwtable
define linkonce_odr i32* @_ZSt3endIiLm123EEPT_RAT0__S0_([123 x i32]* dereferenceable(492) %0) #4 comdat {
  %2 = getelementptr inbounds [123 x i32], [123 x i32]* %0, i32 0, i32 0
  %3 = getelementptr inbounds i32, i32* %2, i64 123
  ret i32* %3
}

; Function Attrs: noinline nounwind uwtable
define linkonce_odr dereferenceable(4) i32* @_ZNSt6vectorIiSaIiEE4backEv(%"class.std::vector.0"* %0) #4 comdat align 2 {
  %2 = alloca %"class.__gnu_cxx::__normal_iterator.6", align 8
  %3 = alloca %"class.__gnu_cxx::__normal_iterator.6", align 8
  %4 = call i32* @_ZNSt6vectorIiSaIiEE3endEv(%"class.std::vector.0"* %0) #3
  %5 = getelementptr inbounds %"class.__gnu_cxx::__normal_iterator.6", %"class.__gnu_cxx::__normal_iterator.6"* %2, i32 0, i32 0
  store i32* %4, i32** %5, align 8
  %6 = call i32* @_ZNK9__gnu_cxx17__normal_iteratorIPiSt6vectorIiSaIiEEEmiEl(%"class.__gnu_cxx::__normal_iterator.6"* %2, i64 1) #3
  %7 = getelementptr inbounds %"class.__gnu_cxx::__normal_iterator.6", %"class.__gnu_cxx::__normal_iterator.6"* %3, i32 0, i32 0
  store i32* %6, i32** %7, align 8
  %8 = call dereferenceable(4) i32* @_ZNK9__gnu_cxx17__normal_iteratorIPiSt6vectorIiSaIiEEEdeEv(%"class.__gnu_cxx::__normal_iterator.6"* %3) #3
  ret i32* %8
}

; Function Attrs: noinline uwtable
define linkonce_odr void @_ZNSt6vectorIiSaIiEE9push_backERKi(%"class.std::vector.0"* %0, i32* dereferenceable(4) %1) #0 comdat align 2 {
  %3 = alloca %"class.__gnu_cxx::__normal_iterator.6", align 8
  %4 = bitcast %"class.std::vector.0"* %0 to %"struct.std::_Vector_base.1"*
  %5 = getelementptr inbounds %"struct.std::_Vector_base.1", %"struct.std::_Vector_base.1"* %4, i32 0, i32 0
  %6 = getelementptr inbounds %"struct.std::_Vector_base<int, std::allocator<int> >::_Vector_impl", %"struct.std::_Vector_base<int, std::allocator<int> >::_Vector_impl"* %5, i32 0, i32 1
  %7 = load i32*, i32** %6, align 8
  %8 = bitcast %"class.std::vector.0"* %0 to %"struct.std::_Vector_base.1"*
  %9 = getelementptr inbounds %"struct.std::_Vector_base.1", %"struct.std::_Vector_base.1"* %8, i32 0, i32 0
  %10 = getelementptr inbounds %"struct.std::_Vector_base<int, std::allocator<int> >::_Vector_impl", %"struct.std::_Vector_base<int, std::allocator<int> >::_Vector_impl"* %9, i32 0, i32 2
  %11 = load i32*, i32** %10, align 8
  %12 = icmp ne i32* %7, %11
  br i1 %12, label %13, label %26

13:                                               ; preds = %2
  %14 = bitcast %"class.std::vector.0"* %0 to %"struct.std::_Vector_base.1"*
  %15 = getelementptr inbounds %"struct.std::_Vector_base.1", %"struct.std::_Vector_base.1"* %14, i32 0, i32 0
  %16 = bitcast %"struct.std::_Vector_base<int, std::allocator<int> >::_Vector_impl"* %15 to %"class.std::allocator.2"*
  %17 = bitcast %"class.std::vector.0"* %0 to %"struct.std::_Vector_base.1"*
  %18 = getelementptr inbounds %"struct.std::_Vector_base.1", %"struct.std::_Vector_base.1"* %17, i32 0, i32 0
  %19 = getelementptr inbounds %"struct.std::_Vector_base<int, std::allocator<int> >::_Vector_impl", %"struct.std::_Vector_base<int, std::allocator<int> >::_Vector_impl"* %18, i32 0, i32 1
  %20 = load i32*, i32** %19, align 8
  call void @_ZNSt16allocator_traitsISaIiEE9constructIiJRKiEEEvRS0_PT_DpOT0_(%"class.std::allocator.2"* dereferenceable(1) %16, i32* %20, i32* dereferenceable(4) %1)
  %21 = bitcast %"class.std::vector.0"* %0 to %"struct.std::_Vector_base.1"*
  %22 = getelementptr inbounds %"struct.std::_Vector_base.1", %"struct.std::_Vector_base.1"* %21, i32 0, i32 0
  %23 = getelementptr inbounds %"struct.std::_Vector_base<int, std::allocator<int> >::_Vector_impl", %"struct.std::_Vector_base<int, std::allocator<int> >::_Vector_impl"* %22, i32 0, i32 1
  %24 = load i32*, i32** %23, align 8
  %25 = getelementptr inbounds i32, i32* %24, i32 1
  store i32* %25, i32** %23, align 8
  br label %31

26:                                               ; preds = %2
  %27 = call i32* @_ZNSt6vectorIiSaIiEE3endEv(%"class.std::vector.0"* %0) #3
  %28 = getelementptr inbounds %"class.__gnu_cxx::__normal_iterator.6", %"class.__gnu_cxx::__normal_iterator.6"* %3, i32 0, i32 0
  store i32* %27, i32** %28, align 8
  %29 = getelementptr inbounds %"class.__gnu_cxx::__normal_iterator.6", %"class.__gnu_cxx::__normal_iterator.6"* %3, i32 0, i32 0
  %30 = load i32*, i32** %29, align 8
  call void @_ZNSt6vectorIiSaIiEE17_M_realloc_insertIJRKiEEEvN9__gnu_cxx17__normal_iteratorIPiS1_EEDpOT_(%"class.std::vector.0"* %0, i32* %30, i32* dereferenceable(4) %1)
  br label %31

31:                                               ; preds = %26, %13
  ret void
}

declare dereferenceable(272) %"class.std::basic_ostream"* @_ZNSolsEm(%"class.std::basic_ostream"*, i64) #1

; Function Attrs: noinline nounwind uwtable
define linkonce_odr i64 @_ZNKSt6vectorIiSaIiEE4sizeEv(%"class.std::vector.0"* %0) #4 comdat align 2 {
  %2 = bitcast %"class.std::vector.0"* %0 to %"struct.std::_Vector_base.1"*
  %3 = getelementptr inbounds %"struct.std::_Vector_base.1", %"struct.std::_Vector_base.1"* %2, i32 0, i32 0
  %4 = getelementptr inbounds %"struct.std::_Vector_base<int, std::allocator<int> >::_Vector_impl", %"struct.std::_Vector_base<int, std::allocator<int> >::_Vector_impl"* %3, i32 0, i32 1
  %5 = load i32*, i32** %4, align 8
  %6 = bitcast %"class.std::vector.0"* %0 to %"struct.std::_Vector_base.1"*
  %7 = getelementptr inbounds %"struct.std::_Vector_base.1", %"struct.std::_Vector_base.1"* %6, i32 0, i32 0
  %8 = getelementptr inbounds %"struct.std::_Vector_base<int, std::allocator<int> >::_Vector_impl", %"struct.std::_Vector_base<int, std::allocator<int> >::_Vector_impl"* %7, i32 0, i32 0
  %9 = load i32*, i32** %8, align 8
  %10 = ptrtoint i32* %5 to i64
  %11 = ptrtoint i32* %9 to i64
  %12 = sub i64 %10, %11
  %13 = sdiv exact i64 %12, 4
  ret i64 %13
}

declare dereferenceable(272) %"class.std::basic_ostream"* @_ZNSolsEPFRSoS_E(%"class.std::basic_ostream"*, %"class.std::basic_ostream"* (%"class.std::basic_ostream"*)*) #1

declare dereferenceable(272) %"class.std::basic_ostream"* @_ZSt4endlIcSt11char_traitsIcEERSt13basic_ostreamIT_T0_ES6_(%"class.std::basic_ostream"* dereferenceable(272)) #1

declare dereferenceable(272) %"class.std::basic_ostream"* @_ZNSolsEb(%"class.std::basic_ostream"*, i1 zeroext) #1

; Function Attrs: noinline nounwind uwtable
define linkonce_odr dereferenceable(4) i32* @_ZNSt6vectorIiSaIiEEixEm(%"class.std::vector.0"* %0, i64 %1) #4 comdat align 2 {
  %3 = bitcast %"class.std::vector.0"* %0 to %"struct.std::_Vector_base.1"*
  %4 = getelementptr inbounds %"struct.std::_Vector_base.1", %"struct.std::_Vector_base.1"* %3, i32 0, i32 0
  %5 = getelementptr inbounds %"struct.std::_Vector_base<int, std::allocator<int> >::_Vector_impl", %"struct.std::_Vector_base<int, std::allocator<int> >::_Vector_impl"* %4, i32 0, i32 0
  %6 = load i32*, i32** %5, align 8
  %7 = getelementptr inbounds i32, i32* %6, i64 %1
  ret i32* %7
}

; Function Attrs: noinline nounwind uwtable
define linkonce_odr void @_ZNSt6vectorIiSaIiEED2Ev(%"class.std::vector.0"* %0) unnamed_addr #4 comdat align 2 personality i8* bitcast (i32 (...)* @__gxx_personality_v0 to i8*) {
  %2 = bitcast %"class.std::vector.0"* %0 to %"struct.std::_Vector_base.1"*
  %3 = getelementptr inbounds %"struct.std::_Vector_base.1", %"struct.std::_Vector_base.1"* %2, i32 0, i32 0
  %4 = getelementptr inbounds %"struct.std::_Vector_base<int, std::allocator<int> >::_Vector_impl", %"struct.std::_Vector_base<int, std::allocator<int> >::_Vector_impl"* %3, i32 0, i32 0
  %5 = load i32*, i32** %4, align 8
  %6 = bitcast %"class.std::vector.0"* %0 to %"struct.std::_Vector_base.1"*
  %7 = getelementptr inbounds %"struct.std::_Vector_base.1", %"struct.std::_Vector_base.1"* %6, i32 0, i32 0
  %8 = getelementptr inbounds %"struct.std::_Vector_base<int, std::allocator<int> >::_Vector_impl", %"struct.std::_Vector_base<int, std::allocator<int> >::_Vector_impl"* %7, i32 0, i32 1
  %9 = load i32*, i32** %8, align 8
  %10 = bitcast %"class.std::vector.0"* %0 to %"struct.std::_Vector_base.1"*
  %11 = call dereferenceable(1) %"class.std::allocator.2"* @_ZNSt12_Vector_baseIiSaIiEE19_M_get_Tp_allocatorEv(%"struct.std::_Vector_base.1"* %10) #3
  invoke void @_ZSt8_DestroyIPiiEvT_S1_RSaIT0_E(i32* %5, i32* %9, %"class.std::allocator.2"* dereferenceable(1) %11)
          to label %12 unwind label %14

12:                                               ; preds = %1
  %13 = bitcast %"class.std::vector.0"* %0 to %"struct.std::_Vector_base.1"*
  call void @_ZNSt12_Vector_baseIiSaIiEED2Ev(%"struct.std::_Vector_base.1"* %13) #3
  ret void

14:                                               ; preds = %1
  %15 = landingpad { i8*, i32 }
          catch i8* null
  %16 = extractvalue { i8*, i32 } %15, 0
  %17 = extractvalue { i8*, i32 } %15, 1
  %18 = bitcast %"class.std::vector.0"* %0 to %"struct.std::_Vector_base.1"*
  call void @_ZNSt12_Vector_baseIiSaIiEED2Ev(%"struct.std::_Vector_base.1"* %18) #3
  br label %19

19:                                               ; preds = %14
  call void @__clang_call_terminate(i8* %16) #13
  unreachable
}

; Function Attrs: noinline nounwind uwtable
define linkonce_odr void @_ZNSt6vectorIdSaIdEED2Ev(%"class.std::vector"* %0) unnamed_addr #4 comdat align 2 personality i8* bitcast (i32 (...)* @__gxx_personality_v0 to i8*) {
  %2 = bitcast %"class.std::vector"* %0 to %"struct.std::_Vector_base"*
  %3 = getelementptr inbounds %"struct.std::_Vector_base", %"struct.std::_Vector_base"* %2, i32 0, i32 0
  %4 = getelementptr inbounds %"struct.std::_Vector_base<double, std::allocator<double> >::_Vector_impl", %"struct.std::_Vector_base<double, std::allocator<double> >::_Vector_impl"* %3, i32 0, i32 0
  %5 = load double*, double** %4, align 8
  %6 = bitcast %"class.std::vector"* %0 to %"struct.std::_Vector_base"*
  %7 = getelementptr inbounds %"struct.std::_Vector_base", %"struct.std::_Vector_base"* %6, i32 0, i32 0
  %8 = getelementptr inbounds %"struct.std::_Vector_base<double, std::allocator<double> >::_Vector_impl", %"struct.std::_Vector_base<double, std::allocator<double> >::_Vector_impl"* %7, i32 0, i32 1
  %9 = load double*, double** %8, align 8
  %10 = bitcast %"class.std::vector"* %0 to %"struct.std::_Vector_base"*
  %11 = call dereferenceable(1) %"class.std::allocator"* @_ZNSt12_Vector_baseIdSaIdEE19_M_get_Tp_allocatorEv(%"struct.std::_Vector_base"* %10) #3
  invoke void @_ZSt8_DestroyIPddEvT_S1_RSaIT0_E(double* %5, double* %9, %"class.std::allocator"* dereferenceable(1) %11)
          to label %12 unwind label %14

12:                                               ; preds = %1
  %13 = bitcast %"class.std::vector"* %0 to %"struct.std::_Vector_base"*
  call void @_ZNSt12_Vector_baseIdSaIdEED2Ev(%"struct.std::_Vector_base"* %13) #3
  ret void

14:                                               ; preds = %1
  %15 = landingpad { i8*, i32 }
          catch i8* null
  %16 = extractvalue { i8*, i32 } %15, 0
  %17 = extractvalue { i8*, i32 } %15, 1
  %18 = bitcast %"class.std::vector"* %0 to %"struct.std::_Vector_base"*
  call void @_ZNSt12_Vector_baseIdSaIdEED2Ev(%"struct.std::_Vector_base"* %18) #3
  br label %19

19:                                               ; preds = %14
  call void @__clang_call_terminate(i8* %16) #13
  unreachable
}

; Function Attrs: noinline nounwind uwtable
define linkonce_odr void @_ZN9__gnu_cxx13new_allocatorIdEC2Ev(%"class.__gnu_cxx::new_allocator"* %0) unnamed_addr #4 comdat align 2 {
  ret void
}

; Function Attrs: noinline nounwind uwtable
define linkonce_odr void @_ZN9__gnu_cxx13new_allocatorIdED2Ev(%"class.__gnu_cxx::new_allocator"* %0) unnamed_addr #4 comdat align 2 {
  ret void
}

; Function Attrs: noinline nounwind uwtable
define linkonce_odr void @_ZNSt12_Vector_baseIdSaIdEEC2ERKS0_(%"struct.std::_Vector_base"* %0, %"class.std::allocator"* dereferenceable(1) %1) unnamed_addr #4 comdat align 2 {
  %3 = getelementptr inbounds %"struct.std::_Vector_base", %"struct.std::_Vector_base"* %0, i32 0, i32 0
  call void @_ZNSt12_Vector_baseIdSaIdEE12_Vector_implC2ERKS0_(%"struct.std::_Vector_base<double, std::allocator<double> >::_Vector_impl"* %3, %"class.std::allocator"* dereferenceable(1) %1) #3
  ret void
}

; Function Attrs: noinline uwtable
define linkonce_odr void @_ZNSt6vectorIdSaIdEE19_M_range_initializeIPKdEEvT_S5_St20forward_iterator_tag(%"class.std::vector"* %0, double* %1, double* %2) #0 comdat align 2 {
  %4 = call i64 @_ZSt8distanceIPKdENSt15iterator_traitsIT_E15difference_typeES3_S3_(double* %1, double* %2)
  %5 = bitcast %"class.std::vector"* %0 to %"struct.std::_Vector_base"*
  %6 = call double* @_ZNSt12_Vector_baseIdSaIdEE11_M_allocateEm(%"struct.std::_Vector_base"* %5, i64 %4)
  %7 = bitcast %"class.std::vector"* %0 to %"struct.std::_Vector_base"*
  %8 = getelementptr inbounds %"struct.std::_Vector_base", %"struct.std::_Vector_base"* %7, i32 0, i32 0
  %9 = getelementptr inbounds %"struct.std::_Vector_base<double, std::allocator<double> >::_Vector_impl", %"struct.std::_Vector_base<double, std::allocator<double> >::_Vector_impl"* %8, i32 0, i32 0
  store double* %6, double** %9, align 8
  %10 = bitcast %"class.std::vector"* %0 to %"struct.std::_Vector_base"*
  %11 = getelementptr inbounds %"struct.std::_Vector_base", %"struct.std::_Vector_base"* %10, i32 0, i32 0
  %12 = getelementptr inbounds %"struct.std::_Vector_base<double, std::allocator<double> >::_Vector_impl", %"struct.std::_Vector_base<double, std::allocator<double> >::_Vector_impl"* %11, i32 0, i32 0
  %13 = load double*, double** %12, align 8
  %14 = getelementptr inbounds double, double* %13, i64 %4
  %15 = bitcast %"class.std::vector"* %0 to %"struct.std::_Vector_base"*
  %16 = getelementptr inbounds %"struct.std::_Vector_base", %"struct.std::_Vector_base"* %15, i32 0, i32 0
  %17 = getelementptr inbounds %"struct.std::_Vector_base<double, std::allocator<double> >::_Vector_impl", %"struct.std::_Vector_base<double, std::allocator<double> >::_Vector_impl"* %16, i32 0, i32 2
  store double* %14, double** %17, align 8
  %18 = bitcast %"class.std::vector"* %0 to %"struct.std::_Vector_base"*
  %19 = getelementptr inbounds %"struct.std::_Vector_base", %"struct.std::_Vector_base"* %18, i32 0, i32 0
  %20 = getelementptr inbounds %"struct.std::_Vector_base<double, std::allocator<double> >::_Vector_impl", %"struct.std::_Vector_base<double, std::allocator<double> >::_Vector_impl"* %19, i32 0, i32 0
  %21 = load double*, double** %20, align 8
  %22 = bitcast %"class.std::vector"* %0 to %"struct.std::_Vector_base"*
  %23 = call dereferenceable(1) %"class.std::allocator"* @_ZNSt12_Vector_baseIdSaIdEE19_M_get_Tp_allocatorEv(%"struct.std::_Vector_base"* %22) #3
  %24 = call double* @_ZSt22__uninitialized_copy_aIPKdPddET0_T_S4_S3_RSaIT1_E(double* %1, double* %2, double* %21, %"class.std::allocator"* dereferenceable(1) %23)
  %25 = bitcast %"class.std::vector"* %0 to %"struct.std::_Vector_base"*
  %26 = getelementptr inbounds %"struct.std::_Vector_base", %"struct.std::_Vector_base"* %25, i32 0, i32 0
  %27 = getelementptr inbounds %"struct.std::_Vector_base<double, std::allocator<double> >::_Vector_impl", %"struct.std::_Vector_base<double, std::allocator<double> >::_Vector_impl"* %26, i32 0, i32 1
  store double* %24, double** %27, align 8
  ret void
}

; Function Attrs: noinline nounwind uwtable
define linkonce_odr double* @_ZNKSt16initializer_listIdE5beginEv(%"class.std::initializer_list"* %0) #4 comdat align 2 {
  %2 = getelementptr inbounds %"class.std::initializer_list", %"class.std::initializer_list"* %0, i32 0, i32 0
  %3 = load double*, double** %2, align 8
  ret double* %3
}

; Function Attrs: noinline nounwind uwtable
define linkonce_odr double* @_ZNKSt16initializer_listIdE3endEv(%"class.std::initializer_list"* %0) #4 comdat align 2 {
  %2 = call double* @_ZNKSt16initializer_listIdE5beginEv(%"class.std::initializer_list"* %0) #3
  %3 = call i64 @_ZNKSt16initializer_listIdE4sizeEv(%"class.std::initializer_list"* %0) #3
  %4 = getelementptr inbounds double, double* %2, i64 %3
  ret double* %4
}

; Function Attrs: noinline nounwind uwtable
define linkonce_odr void @_ZNSt12_Vector_baseIdSaIdEED2Ev(%"struct.std::_Vector_base"* %0) unnamed_addr #4 comdat align 2 personality i8* bitcast (i32 (...)* @__gxx_personality_v0 to i8*) {
  %2 = getelementptr inbounds %"struct.std::_Vector_base", %"struct.std::_Vector_base"* %0, i32 0, i32 0
  %3 = getelementptr inbounds %"struct.std::_Vector_base<double, std::allocator<double> >::_Vector_impl", %"struct.std::_Vector_base<double, std::allocator<double> >::_Vector_impl"* %2, i32 0, i32 0
  %4 = load double*, double** %3, align 8
  %5 = getelementptr inbounds %"struct.std::_Vector_base", %"struct.std::_Vector_base"* %0, i32 0, i32 0
  %6 = getelementptr inbounds %"struct.std::_Vector_base<double, std::allocator<double> >::_Vector_impl", %"struct.std::_Vector_base<double, std::allocator<double> >::_Vector_impl"* %5, i32 0, i32 2
  %7 = load double*, double** %6, align 8
  %8 = getelementptr inbounds %"struct.std::_Vector_base", %"struct.std::_Vector_base"* %0, i32 0, i32 0
  %9 = getelementptr inbounds %"struct.std::_Vector_base<double, std::allocator<double> >::_Vector_impl", %"struct.std::_Vector_base<double, std::allocator<double> >::_Vector_impl"* %8, i32 0, i32 0
  %10 = load double*, double** %9, align 8
  %11 = ptrtoint double* %7 to i64
  %12 = ptrtoint double* %10 to i64
  %13 = sub i64 %11, %12
  %14 = sdiv exact i64 %13, 8
  invoke void @_ZNSt12_Vector_baseIdSaIdEE13_M_deallocateEPdm(%"struct.std::_Vector_base"* %0, double* %4, i64 %14)
          to label %15 unwind label %17

15:                                               ; preds = %1
  %16 = getelementptr inbounds %"struct.std::_Vector_base", %"struct.std::_Vector_base"* %0, i32 0, i32 0
  call void @_ZNSt12_Vector_baseIdSaIdEE12_Vector_implD2Ev(%"struct.std::_Vector_base<double, std::allocator<double> >::_Vector_impl"* %16) #3
  ret void

17:                                               ; preds = %1
  %18 = landingpad { i8*, i32 }
          catch i8* null
  %19 = extractvalue { i8*, i32 } %18, 0
  %20 = extractvalue { i8*, i32 } %18, 1
  %21 = getelementptr inbounds %"struct.std::_Vector_base", %"struct.std::_Vector_base"* %0, i32 0, i32 0
  call void @_ZNSt12_Vector_baseIdSaIdEE12_Vector_implD2Ev(%"struct.std::_Vector_base<double, std::allocator<double> >::_Vector_impl"* %21) #3
  br label %22

22:                                               ; preds = %17
  call void @__clang_call_terminate(i8* %19) #13
  unreachable
}

; Function Attrs: noinline nounwind uwtable
define linkonce_odr void @_ZNSt12_Vector_baseIdSaIdEE12_Vector_implC2ERKS0_(%"struct.std::_Vector_base<double, std::allocator<double> >::_Vector_impl"* %0, %"class.std::allocator"* dereferenceable(1) %1) unnamed_addr #4 comdat align 2 {
  %3 = bitcast %"struct.std::_Vector_base<double, std::allocator<double> >::_Vector_impl"* %0 to %"class.std::allocator"*
  call void @_ZNSaIdEC2ERKS_(%"class.std::allocator"* %3, %"class.std::allocator"* dereferenceable(1) %1) #3
  %4 = getelementptr inbounds %"struct.std::_Vector_base<double, std::allocator<double> >::_Vector_impl", %"struct.std::_Vector_base<double, std::allocator<double> >::_Vector_impl"* %0, i32 0, i32 0
  store double* null, double** %4, align 8
  %5 = getelementptr inbounds %"struct.std::_Vector_base<double, std::allocator<double> >::_Vector_impl", %"struct.std::_Vector_base<double, std::allocator<double> >::_Vector_impl"* %0, i32 0, i32 1
  store double* null, double** %5, align 8
  %6 = getelementptr inbounds %"struct.std::_Vector_base<double, std::allocator<double> >::_Vector_impl", %"struct.std::_Vector_base<double, std::allocator<double> >::_Vector_impl"* %0, i32 0, i32 2
  store double* null, double** %6, align 8
  ret void
}

; Function Attrs: noinline nounwind uwtable
define linkonce_odr void @_ZNSaIdEC2ERKS_(%"class.std::allocator"* %0, %"class.std::allocator"* dereferenceable(1) %1) unnamed_addr #4 comdat align 2 {
  %3 = bitcast %"class.std::allocator"* %0 to %"class.__gnu_cxx::new_allocator"*
  %4 = bitcast %"class.std::allocator"* %1 to %"class.__gnu_cxx::new_allocator"*
  call void @_ZN9__gnu_cxx13new_allocatorIdEC2ERKS1_(%"class.__gnu_cxx::new_allocator"* %3, %"class.__gnu_cxx::new_allocator"* dereferenceable(1) %4) #3
  ret void
}

; Function Attrs: noinline nounwind uwtable
define linkonce_odr void @_ZN9__gnu_cxx13new_allocatorIdEC2ERKS1_(%"class.__gnu_cxx::new_allocator"* %0, %"class.__gnu_cxx::new_allocator"* dereferenceable(1) %1) unnamed_addr #4 comdat align 2 {
  ret void
}

; Function Attrs: noinline uwtable
define linkonce_odr i64 @_ZSt8distanceIPKdENSt15iterator_traitsIT_E15difference_typeES3_S3_(double* %0, double* %1) #0 comdat {
  %3 = alloca double*, align 8
  store double* %0, double** %3, align 8
  %4 = load double*, double** %3, align 8
  call void @_ZSt19__iterator_categoryIPKdENSt15iterator_traitsIT_E17iterator_categoryERKS3_(double** dereferenceable(8) %3)
  %5 = call i64 @_ZSt10__distanceIPKdENSt15iterator_traitsIT_E15difference_typeES3_S3_St26random_access_iterator_tag(double* %4, double* %1)
  ret i64 %5
}

; Function Attrs: noinline uwtable
define linkonce_odr double* @_ZNSt12_Vector_baseIdSaIdEE11_M_allocateEm(%"struct.std::_Vector_base"* %0, i64 %1) #0 comdat align 2 {
  %3 = icmp ne i64 %1, 0
  br i1 %3, label %4, label %8

4:                                                ; preds = %2
  %5 = getelementptr inbounds %"struct.std::_Vector_base", %"struct.std::_Vector_base"* %0, i32 0, i32 0
  %6 = bitcast %"struct.std::_Vector_base<double, std::allocator<double> >::_Vector_impl"* %5 to %"class.std::allocator"*
  %7 = call double* @_ZNSt16allocator_traitsISaIdEE8allocateERS0_m(%"class.std::allocator"* dereferenceable(1) %6, i64 %1)
  br label %9

8:                                                ; preds = %2
  br label %9

9:                                                ; preds = %8, %4
  %10 = phi double* [ %7, %4 ], [ null, %8 ]
  ret double* %10
}

; Function Attrs: noinline uwtable
define linkonce_odr double* @_ZSt22__uninitialized_copy_aIPKdPddET0_T_S4_S3_RSaIT1_E(double* %0, double* %1, double* %2, %"class.std::allocator"* dereferenceable(1) %3) #0 comdat {
  %5 = call double* @_ZSt18uninitialized_copyIPKdPdET0_T_S4_S3_(double* %0, double* %1, double* %2)
  ret double* %5
}

; Function Attrs: noinline nounwind uwtable
define linkonce_odr dereferenceable(1) %"class.std::allocator"* @_ZNSt12_Vector_baseIdSaIdEE19_M_get_Tp_allocatorEv(%"struct.std::_Vector_base"* %0) #4 comdat align 2 {
  %2 = getelementptr inbounds %"struct.std::_Vector_base", %"struct.std::_Vector_base"* %0, i32 0, i32 0
  %3 = bitcast %"struct.std::_Vector_base<double, std::allocator<double> >::_Vector_impl"* %2 to %"class.std::allocator"*
  ret %"class.std::allocator"* %3
}

; Function Attrs: noinline nounwind uwtable
define linkonce_odr i64 @_ZSt10__distanceIPKdENSt15iterator_traitsIT_E15difference_typeES3_S3_St26random_access_iterator_tag(double* %0, double* %1) #4 comdat {
  %3 = ptrtoint double* %1 to i64
  %4 = ptrtoint double* %0 to i64
  %5 = sub i64 %3, %4
  %6 = sdiv exact i64 %5, 8
  ret i64 %6
}

; Function Attrs: noinline nounwind uwtable
define linkonce_odr void @_ZSt19__iterator_categoryIPKdENSt15iterator_traitsIT_E17iterator_categoryERKS3_(double** dereferenceable(8) %0) #4 comdat {
  ret void
}

; Function Attrs: noinline uwtable
define linkonce_odr double* @_ZNSt16allocator_traitsISaIdEE8allocateERS0_m(%"class.std::allocator"* dereferenceable(1) %0, i64 %1) #0 comdat align 2 {
  %3 = bitcast %"class.std::allocator"* %0 to %"class.__gnu_cxx::new_allocator"*
  %4 = call double* @_ZN9__gnu_cxx13new_allocatorIdE8allocateEmPKv(%"class.__gnu_cxx::new_allocator"* %3, i64 %1, i8* null)
  ret double* %4
}

; Function Attrs: noinline uwtable
define linkonce_odr double* @_ZN9__gnu_cxx13new_allocatorIdE8allocateEmPKv(%"class.__gnu_cxx::new_allocator"* %0, i64 %1, i8* %2) #0 comdat align 2 {
  %4 = call i64 @_ZNK9__gnu_cxx13new_allocatorIdE8max_sizeEv(%"class.__gnu_cxx::new_allocator"* %0) #3
  %5 = icmp ugt i64 %1, %4
  br i1 %5, label %6, label %7

6:                                                ; preds = %3
  call void @_ZSt17__throw_bad_allocv() #14
  unreachable

7:                                                ; preds = %3
  %8 = mul i64 %1, 8
  %9 = call i8* @_Znwm(i64 %8)
  %10 = bitcast i8* %9 to double*
  ret double* %10
}

; Function Attrs: noinline nounwind uwtable
define linkonce_odr i64 @_ZNK9__gnu_cxx13new_allocatorIdE8max_sizeEv(%"class.__gnu_cxx::new_allocator"* %0) #4 comdat align 2 {
  ret i64 2305843009213693951
}

; Function Attrs: noreturn
declare void @_ZSt17__throw_bad_allocv() #6

; Function Attrs: nobuiltin
declare noalias i8* @_Znwm(i64) #7

; Function Attrs: noinline uwtable
define linkonce_odr double* @_ZSt18uninitialized_copyIPKdPdET0_T_S4_S3_(double* %0, double* %1, double* %2) #0 comdat {
  %4 = call double* @_ZNSt20__uninitialized_copyILb1EE13__uninit_copyIPKdPdEET0_T_S6_S5_(double* %0, double* %1, double* %2)
  ret double* %4
}

; Function Attrs: noinline uwtable
define linkonce_odr double* @_ZNSt20__uninitialized_copyILb1EE13__uninit_copyIPKdPdEET0_T_S6_S5_(double* %0, double* %1, double* %2) #0 comdat align 2 {
  %4 = call double* @_ZSt4copyIPKdPdET0_T_S4_S3_(double* %0, double* %1, double* %2)
  ret double* %4
}

; Function Attrs: noinline uwtable
define linkonce_odr double* @_ZSt4copyIPKdPdET0_T_S4_S3_(double* %0, double* %1, double* %2) #0 comdat {
  %4 = call double* @_ZSt12__miter_baseIPKdET_S2_(double* %0)
  %5 = call double* @_ZSt12__miter_baseIPKdET_S2_(double* %1)
  %6 = call double* @_ZSt14__copy_move_a2ILb0EPKdPdET1_T0_S4_S3_(double* %4, double* %5, double* %2)
  ret double* %6
}

; Function Attrs: noinline uwtable
define linkonce_odr double* @_ZSt14__copy_move_a2ILb0EPKdPdET1_T0_S4_S3_(double* %0, double* %1, double* %2) #0 comdat {
  %4 = call double* @_ZSt12__niter_baseIPKdET_S2_(double* %0)
  %5 = call double* @_ZSt12__niter_baseIPKdET_S2_(double* %1)
  %6 = call double* @_ZSt12__niter_baseIPdET_S1_(double* %2)
  %7 = call double* @_ZSt13__copy_move_aILb0EPKdPdET1_T0_S4_S3_(double* %4, double* %5, double* %6)
  ret double* %7
}

; Function Attrs: noinline nounwind uwtable
define linkonce_odr double* @_ZSt12__miter_baseIPKdET_S2_(double* %0) #4 comdat {
  ret double* %0
}

; Function Attrs: noinline uwtable
define linkonce_odr double* @_ZSt13__copy_move_aILb0EPKdPdET1_T0_S4_S3_(double* %0, double* %1, double* %2) #0 comdat {
  %4 = call double* @_ZNSt11__copy_moveILb0ELb1ESt26random_access_iterator_tagE8__copy_mIdEEPT_PKS3_S6_S4_(double* %0, double* %1, double* %2)
  ret double* %4
}

; Function Attrs: noinline nounwind uwtable
define linkonce_odr double* @_ZSt12__niter_baseIPKdET_S2_(double* %0) #4 comdat {
  ret double* %0
}

; Function Attrs: noinline nounwind uwtable
define linkonce_odr double* @_ZSt12__niter_baseIPdET_S1_(double* %0) #4 comdat {
  ret double* %0
}

; Function Attrs: noinline nounwind uwtable
define linkonce_odr double* @_ZNSt11__copy_moveILb0ELb1ESt26random_access_iterator_tagE8__copy_mIdEEPT_PKS3_S6_S4_(double* %0, double* %1, double* %2) #4 comdat align 2 {
  %4 = ptrtoint double* %1 to i64
  %5 = ptrtoint double* %0 to i64
  %6 = sub i64 %4, %5
  %7 = sdiv exact i64 %6, 8
  %8 = icmp ne i64 %7, 0
  br i1 %8, label %9, label %13

9:                                                ; preds = %3
  %10 = bitcast double* %2 to i8*
  %11 = bitcast double* %0 to i8*
  %12 = mul i64 8, %7
  call void @llvm.memmove.p0i8.p0i8.i64(i8* align 8 %10, i8* align 8 %11, i64 %12, i1 false)
  br label %13

13:                                               ; preds = %9, %3
  %14 = getelementptr inbounds double, double* %2, i64 %7
  ret double* %14
}

; Function Attrs: noinline nounwind uwtable
define linkonce_odr i64 @_ZNKSt16initializer_listIdE4sizeEv(%"class.std::initializer_list"* %0) #4 comdat align 2 {
  %2 = getelementptr inbounds %"class.std::initializer_list", %"class.std::initializer_list"* %0, i32 0, i32 1
  %3 = load i64, i64* %2, align 8
  ret i64 %3
}

; Function Attrs: noinline uwtable
define linkonce_odr void @_ZNSt12_Vector_baseIdSaIdEE13_M_deallocateEPdm(%"struct.std::_Vector_base"* %0, double* %1, i64 %2) #0 comdat align 2 {
  %4 = icmp ne double* %1, null
  br i1 %4, label %5, label %8

5:                                                ; preds = %3
  %6 = getelementptr inbounds %"struct.std::_Vector_base", %"struct.std::_Vector_base"* %0, i32 0, i32 0
  %7 = bitcast %"struct.std::_Vector_base<double, std::allocator<double> >::_Vector_impl"* %6 to %"class.std::allocator"*
  call void @_ZNSt16allocator_traitsISaIdEE10deallocateERS0_Pdm(%"class.std::allocator"* dereferenceable(1) %7, double* %1, i64 %2)
  br label %8

8:                                                ; preds = %5, %3
  ret void
}

; Function Attrs: noinline nounwind uwtable
define linkonce_odr void @_ZNSt12_Vector_baseIdSaIdEE12_Vector_implD2Ev(%"struct.std::_Vector_base<double, std::allocator<double> >::_Vector_impl"* %0) unnamed_addr #4 comdat align 2 {
  %2 = bitcast %"struct.std::_Vector_base<double, std::allocator<double> >::_Vector_impl"* %0 to %"class.std::allocator"*
  call void @_ZNSaIdED2Ev(%"class.std::allocator"* %2) #3
  ret void
}

; Function Attrs: noinline noreturn nounwind
define linkonce_odr hidden void @__clang_call_terminate(i8* %0) #8 comdat {
  %2 = call i8* @__cxa_begin_catch(i8* %0) #3
  call void @_ZSt9terminatev() #13
  unreachable
}

declare i8* @__cxa_begin_catch(i8*)

declare void @_ZSt9terminatev()

; Function Attrs: noinline uwtable
define linkonce_odr void @_ZNSt16allocator_traitsISaIdEE10deallocateERS0_Pdm(%"class.std::allocator"* dereferenceable(1) %0, double* %1, i64 %2) #0 comdat align 2 {
  %4 = bitcast %"class.std::allocator"* %0 to %"class.__gnu_cxx::new_allocator"*
  call void @_ZN9__gnu_cxx13new_allocatorIdE10deallocateEPdm(%"class.__gnu_cxx::new_allocator"* %4, double* %1, i64 %2)
  ret void
}

; Function Attrs: noinline nounwind uwtable
define linkonce_odr void @_ZN9__gnu_cxx13new_allocatorIdE10deallocateEPdm(%"class.__gnu_cxx::new_allocator"* %0, double* %1, i64 %2) #4 comdat align 2 {
  %4 = bitcast double* %1 to i8*
  call void @_ZdlPv(i8* %4) #3
  ret void
}

; Function Attrs: nobuiltin nounwind
declare void @_ZdlPv(i8*) #9

; Function Attrs: noinline uwtable
define linkonce_odr void @_ZSt8_DestroyIPddEvT_S1_RSaIT0_E(double* %0, double* %1, %"class.std::allocator"* dereferenceable(1) %2) #0 comdat {
  call void @_ZSt8_DestroyIPdEvT_S1_(double* %0, double* %1)
  ret void
}

; Function Attrs: noinline uwtable
define linkonce_odr void @_ZSt8_DestroyIPdEvT_S1_(double* %0, double* %1) #0 comdat {
  call void @_ZNSt12_Destroy_auxILb1EE9__destroyIPdEEvT_S3_(double* %0, double* %1)
  ret void
}

; Function Attrs: noinline nounwind uwtable
define linkonce_odr void @_ZNSt12_Destroy_auxILb1EE9__destroyIPdEEvT_S3_(double* %0, double* %1) #4 comdat align 2 {
  ret void
}

; Function Attrs: noinline uwtable
define linkonce_odr void @_ZNSt6vectorIdSaIdEE12emplace_backIJdEEEvDpOT_(%"class.std::vector"* %0, double* dereferenceable(8) %1) #0 comdat align 2 {
  %3 = alloca %"class.__gnu_cxx::__normal_iterator", align 8
  %4 = bitcast %"class.std::vector"* %0 to %"struct.std::_Vector_base"*
  %5 = getelementptr inbounds %"struct.std::_Vector_base", %"struct.std::_Vector_base"* %4, i32 0, i32 0
  %6 = getelementptr inbounds %"struct.std::_Vector_base<double, std::allocator<double> >::_Vector_impl", %"struct.std::_Vector_base<double, std::allocator<double> >::_Vector_impl"* %5, i32 0, i32 1
  %7 = load double*, double** %6, align 8
  %8 = bitcast %"class.std::vector"* %0 to %"struct.std::_Vector_base"*
  %9 = getelementptr inbounds %"struct.std::_Vector_base", %"struct.std::_Vector_base"* %8, i32 0, i32 0
  %10 = getelementptr inbounds %"struct.std::_Vector_base<double, std::allocator<double> >::_Vector_impl", %"struct.std::_Vector_base<double, std::allocator<double> >::_Vector_impl"* %9, i32 0, i32 2
  %11 = load double*, double** %10, align 8
  %12 = icmp ne double* %7, %11
  br i1 %12, label %13, label %27

13:                                               ; preds = %2
  %14 = bitcast %"class.std::vector"* %0 to %"struct.std::_Vector_base"*
  %15 = getelementptr inbounds %"struct.std::_Vector_base", %"struct.std::_Vector_base"* %14, i32 0, i32 0
  %16 = bitcast %"struct.std::_Vector_base<double, std::allocator<double> >::_Vector_impl"* %15 to %"class.std::allocator"*
  %17 = bitcast %"class.std::vector"* %0 to %"struct.std::_Vector_base"*
  %18 = getelementptr inbounds %"struct.std::_Vector_base", %"struct.std::_Vector_base"* %17, i32 0, i32 0
  %19 = getelementptr inbounds %"struct.std::_Vector_base<double, std::allocator<double> >::_Vector_impl", %"struct.std::_Vector_base<double, std::allocator<double> >::_Vector_impl"* %18, i32 0, i32 1
  %20 = load double*, double** %19, align 8
  %21 = call dereferenceable(8) double* @_ZSt7forwardIdEOT_RNSt16remove_referenceIS0_E4typeE(double* dereferenceable(8) %1) #3
  call void @_ZNSt16allocator_traitsISaIdEE9constructIdJdEEEvRS0_PT_DpOT0_(%"class.std::allocator"* dereferenceable(1) %16, double* %20, double* dereferenceable(8) %21)
  %22 = bitcast %"class.std::vector"* %0 to %"struct.std::_Vector_base"*
  %23 = getelementptr inbounds %"struct.std::_Vector_base", %"struct.std::_Vector_base"* %22, i32 0, i32 0
  %24 = getelementptr inbounds %"struct.std::_Vector_base<double, std::allocator<double> >::_Vector_impl", %"struct.std::_Vector_base<double, std::allocator<double> >::_Vector_impl"* %23, i32 0, i32 1
  %25 = load double*, double** %24, align 8
  %26 = getelementptr inbounds double, double* %25, i32 1
  store double* %26, double** %24, align 8
  br label %33

27:                                               ; preds = %2
  %28 = call double* @_ZNSt6vectorIdSaIdEE3endEv(%"class.std::vector"* %0) #3
  %29 = getelementptr inbounds %"class.__gnu_cxx::__normal_iterator", %"class.__gnu_cxx::__normal_iterator"* %3, i32 0, i32 0
  store double* %28, double** %29, align 8
  %30 = call dereferenceable(8) double* @_ZSt7forwardIdEOT_RNSt16remove_referenceIS0_E4typeE(double* dereferenceable(8) %1) #3
  %31 = getelementptr inbounds %"class.__gnu_cxx::__normal_iterator", %"class.__gnu_cxx::__normal_iterator"* %3, i32 0, i32 0
  %32 = load double*, double** %31, align 8
  call void @_ZNSt6vectorIdSaIdEE17_M_realloc_insertIJdEEEvN9__gnu_cxx17__normal_iteratorIPdS1_EEDpOT_(%"class.std::vector"* %0, double* %32, double* dereferenceable(8) %30)
  br label %33

33:                                               ; preds = %27, %13
  ret void
}

; Function Attrs: noinline nounwind uwtable
define linkonce_odr dereferenceable(8) double* @_ZSt4moveIRdEONSt16remove_referenceIT_E4typeEOS2_(double* dereferenceable(8) %0) #4 comdat {
  ret double* %0
}

; Function Attrs: noinline uwtable
define linkonce_odr void @_ZNSt16allocator_traitsISaIdEE9constructIdJdEEEvRS0_PT_DpOT0_(%"class.std::allocator"* dereferenceable(1) %0, double* %1, double* dereferenceable(8) %2) #0 comdat align 2 {
  %4 = bitcast %"class.std::allocator"* %0 to %"class.__gnu_cxx::new_allocator"*
  %5 = call dereferenceable(8) double* @_ZSt7forwardIdEOT_RNSt16remove_referenceIS0_E4typeE(double* dereferenceable(8) %2) #3
  call void @_ZN9__gnu_cxx13new_allocatorIdE9constructIdJdEEEvPT_DpOT0_(%"class.__gnu_cxx::new_allocator"* %4, double* %1, double* dereferenceable(8) %5)
  ret void
}

; Function Attrs: noinline nounwind uwtable
define linkonce_odr dereferenceable(8) double* @_ZSt7forwardIdEOT_RNSt16remove_referenceIS0_E4typeE(double* dereferenceable(8) %0) #4 comdat {
  ret double* %0
}

; Function Attrs: noinline uwtable
define linkonce_odr void @_ZNSt6vectorIdSaIdEE17_M_realloc_insertIJdEEEvN9__gnu_cxx17__normal_iteratorIPdS1_EEDpOT_(%"class.std::vector"* %0, double* %1, double* dereferenceable(8) %2) #0 comdat align 2 personality i8* bitcast (i32 (...)* @__gxx_personality_v0 to i8*) {
  %4 = alloca %"class.__gnu_cxx::__normal_iterator", align 8
  %5 = alloca %"class.__gnu_cxx::__normal_iterator", align 8
  %6 = getelementptr inbounds %"class.__gnu_cxx::__normal_iterator", %"class.__gnu_cxx::__normal_iterator"* %4, i32 0, i32 0
  store double* %1, double** %6, align 8
  %7 = call i64 @_ZNKSt6vectorIdSaIdEE12_M_check_lenEmPKc(%"class.std::vector"* %0, i64 1, i8* getelementptr inbounds ([26 x i8], [26 x i8]* @.str, i32 0, i32 0))
  %8 = bitcast %"class.std::vector"* %0 to %"struct.std::_Vector_base"*
  %9 = getelementptr inbounds %"struct.std::_Vector_base", %"struct.std::_Vector_base"* %8, i32 0, i32 0
  %10 = getelementptr inbounds %"struct.std::_Vector_base<double, std::allocator<double> >::_Vector_impl", %"struct.std::_Vector_base<double, std::allocator<double> >::_Vector_impl"* %9, i32 0, i32 0
  %11 = load double*, double** %10, align 8
  %12 = bitcast %"class.std::vector"* %0 to %"struct.std::_Vector_base"*
  %13 = getelementptr inbounds %"struct.std::_Vector_base", %"struct.std::_Vector_base"* %12, i32 0, i32 0
  %14 = getelementptr inbounds %"struct.std::_Vector_base<double, std::allocator<double> >::_Vector_impl", %"struct.std::_Vector_base<double, std::allocator<double> >::_Vector_impl"* %13, i32 0, i32 1
  %15 = load double*, double** %14, align 8
  %16 = call double* @_ZNSt6vectorIdSaIdEE5beginEv(%"class.std::vector"* %0) #3
  %17 = getelementptr inbounds %"class.__gnu_cxx::__normal_iterator", %"class.__gnu_cxx::__normal_iterator"* %5, i32 0, i32 0
  store double* %16, double** %17, align 8
  %18 = call i64 @_ZN9__gnu_cxxmiIPdSt6vectorIdSaIdEEEENS_17__normal_iteratorIT_T0_E15difference_typeERKS8_SB_(%"class.__gnu_cxx::__normal_iterator"* dereferenceable(8) %4, %"class.__gnu_cxx::__normal_iterator"* dereferenceable(8) %5) #3
  %19 = bitcast %"class.std::vector"* %0 to %"struct.std::_Vector_base"*
  %20 = call double* @_ZNSt12_Vector_baseIdSaIdEE11_M_allocateEm(%"struct.std::_Vector_base"* %19, i64 %7)
  %21 = bitcast %"class.std::vector"* %0 to %"struct.std::_Vector_base"*
  %22 = getelementptr inbounds %"struct.std::_Vector_base", %"struct.std::_Vector_base"* %21, i32 0, i32 0
  %23 = bitcast %"struct.std::_Vector_base<double, std::allocator<double> >::_Vector_impl"* %22 to %"class.std::allocator"*
  %24 = getelementptr inbounds double, double* %20, i64 %18
  %25 = call dereferenceable(8) double* @_ZSt7forwardIdEOT_RNSt16remove_referenceIS0_E4typeE(double* dereferenceable(8) %2) #3
  invoke void @_ZNSt16allocator_traitsISaIdEE9constructIdJdEEEvRS0_PT_DpOT0_(%"class.std::allocator"* dereferenceable(1) %23, double* %24, double* dereferenceable(8) %25)
          to label %26 unwind label %40

26:                                               ; preds = %3
  %27 = call dereferenceable(8) double** @_ZNK9__gnu_cxx17__normal_iteratorIPdSt6vectorIdSaIdEEE4baseEv(%"class.__gnu_cxx::__normal_iterator"* %4) #3
  %28 = load double*, double** %27, align 8
  %29 = bitcast %"class.std::vector"* %0 to %"struct.std::_Vector_base"*
  %30 = call dereferenceable(1) %"class.std::allocator"* @_ZNSt12_Vector_baseIdSaIdEE19_M_get_Tp_allocatorEv(%"struct.std::_Vector_base"* %29) #3
  %31 = invoke double* @_ZSt34__uninitialized_move_if_noexcept_aIPdS0_SaIdEET0_T_S3_S2_RT1_(double* %11, double* %28, double* %20, %"class.std::allocator"* dereferenceable(1) %30)
          to label %32 unwind label %40

32:                                               ; preds = %26
  %33 = getelementptr inbounds double, double* %31, i32 1
  %34 = call dereferenceable(8) double** @_ZNK9__gnu_cxx17__normal_iteratorIPdSt6vectorIdSaIdEEE4baseEv(%"class.__gnu_cxx::__normal_iterator"* %4) #3
  %35 = load double*, double** %34, align 8
  %36 = bitcast %"class.std::vector"* %0 to %"struct.std::_Vector_base"*
  %37 = call dereferenceable(1) %"class.std::allocator"* @_ZNSt12_Vector_baseIdSaIdEE19_M_get_Tp_allocatorEv(%"struct.std::_Vector_base"* %36) #3
  %38 = invoke double* @_ZSt34__uninitialized_move_if_noexcept_aIPdS0_SaIdEET0_T_S3_S2_RT1_(double* %35, double* %15, double* %33, %"class.std::allocator"* dereferenceable(1) %37)
          to label %39 unwind label %40

39:                                               ; preds = %32
  br label %65

40:                                               ; preds = %32, %26, %3
  %.0 = phi double* [ %33, %32 ], [ null, %26 ], [ %20, %3 ]
  %41 = landingpad { i8*, i32 }
          catch i8* null
  %42 = extractvalue { i8*, i32 } %41, 0
  %43 = extractvalue { i8*, i32 } %41, 1
  br label %44

44:                                               ; preds = %40
  %45 = call i8* @__cxa_begin_catch(i8* %42) #3
  %46 = icmp ne double* %.0, null
  br i1 %46, label %57, label %47

47:                                               ; preds = %44
  %48 = bitcast %"class.std::vector"* %0 to %"struct.std::_Vector_base"*
  %49 = getelementptr inbounds %"struct.std::_Vector_base", %"struct.std::_Vector_base"* %48, i32 0, i32 0
  %50 = bitcast %"struct.std::_Vector_base<double, std::allocator<double> >::_Vector_impl"* %49 to %"class.std::allocator"*
  %51 = getelementptr inbounds double, double* %20, i64 %18
  invoke void @_ZNSt16allocator_traitsISaIdEE7destroyIdEEvRS0_PT_(%"class.std::allocator"* dereferenceable(1) %50, double* %51)
          to label %52 unwind label %53

52:                                               ; preds = %47
  br label %61

53:                                               ; preds = %63, %61, %57, %47
  %54 = landingpad { i8*, i32 }
          cleanup
  %55 = extractvalue { i8*, i32 } %54, 0
  %56 = extractvalue { i8*, i32 } %54, 1
  invoke void @__cxa_end_catch()
          to label %64 unwind label %90

57:                                               ; preds = %44
  %58 = bitcast %"class.std::vector"* %0 to %"struct.std::_Vector_base"*
  %59 = call dereferenceable(1) %"class.std::allocator"* @_ZNSt12_Vector_baseIdSaIdEE19_M_get_Tp_allocatorEv(%"struct.std::_Vector_base"* %58) #3
  invoke void @_ZSt8_DestroyIPddEvT_S1_RSaIT0_E(double* %20, double* %.0, %"class.std::allocator"* dereferenceable(1) %59)
          to label %60 unwind label %53

60:                                               ; preds = %57
  br label %61

61:                                               ; preds = %60, %52
  %62 = bitcast %"class.std::vector"* %0 to %"struct.std::_Vector_base"*
  invoke void @_ZNSt12_Vector_baseIdSaIdEE13_M_deallocateEPdm(%"struct.std::_Vector_base"* %62, double* %20, i64 %7)
          to label %63 unwind label %53

63:                                               ; preds = %61
  invoke void @__cxa_rethrow() #14
          to label %93 unwind label %53

64:                                               ; preds = %53
  br label %87

65:                                               ; preds = %39
  %66 = bitcast %"class.std::vector"* %0 to %"struct.std::_Vector_base"*
  %67 = call dereferenceable(1) %"class.std::allocator"* @_ZNSt12_Vector_baseIdSaIdEE19_M_get_Tp_allocatorEv(%"struct.std::_Vector_base"* %66) #3
  call void @_ZSt8_DestroyIPddEvT_S1_RSaIT0_E(double* %11, double* %15, %"class.std::allocator"* dereferenceable(1) %67)
  %68 = bitcast %"class.std::vector"* %0 to %"struct.std::_Vector_base"*
  %69 = bitcast %"class.std::vector"* %0 to %"struct.std::_Vector_base"*
  %70 = getelementptr inbounds %"struct.std::_Vector_base", %"struct.std::_Vector_base"* %69, i32 0, i32 0
  %71 = getelementptr inbounds %"struct.std::_Vector_base<double, std::allocator<double> >::_Vector_impl", %"struct.std::_Vector_base<double, std::allocator<double> >::_Vector_impl"* %70, i32 0, i32 2
  %72 = load double*, double** %71, align 8
  %73 = ptrtoint double* %72 to i64
  %74 = ptrtoint double* %11 to i64
  %75 = sub i64 %73, %74
  %76 = sdiv exact i64 %75, 8
  call void @_ZNSt12_Vector_baseIdSaIdEE13_M_deallocateEPdm(%"struct.std::_Vector_base"* %68, double* %11, i64 %76)
  %77 = bitcast %"class.std::vector"* %0 to %"struct.std::_Vector_base"*
  %78 = getelementptr inbounds %"struct.std::_Vector_base", %"struct.std::_Vector_base"* %77, i32 0, i32 0
  %79 = getelementptr inbounds %"struct.std::_Vector_base<double, std::allocator<double> >::_Vector_impl", %"struct.std::_Vector_base<double, std::allocator<double> >::_Vector_impl"* %78, i32 0, i32 0
  store double* %20, double** %79, align 8
  %80 = bitcast %"class.std::vector"* %0 to %"struct.std::_Vector_base"*
  %81 = getelementptr inbounds %"struct.std::_Vector_base", %"struct.std::_Vector_base"* %80, i32 0, i32 0
  %82 = getelementptr inbounds %"struct.std::_Vector_base<double, std::allocator<double> >::_Vector_impl", %"struct.std::_Vector_base<double, std::allocator<double> >::_Vector_impl"* %81, i32 0, i32 1
  store double* %38, double** %82, align 8
  %83 = getelementptr inbounds double, double* %20, i64 %7
  %84 = bitcast %"class.std::vector"* %0 to %"struct.std::_Vector_base"*
  %85 = getelementptr inbounds %"struct.std::_Vector_base", %"struct.std::_Vector_base"* %84, i32 0, i32 0
  %86 = getelementptr inbounds %"struct.std::_Vector_base<double, std::allocator<double> >::_Vector_impl", %"struct.std::_Vector_base<double, std::allocator<double> >::_Vector_impl"* %85, i32 0, i32 2
  store double* %83, double** %86, align 8
  ret void

87:                                               ; preds = %64
  %88 = insertvalue { i8*, i32 } undef, i8* %55, 0
  %89 = insertvalue { i8*, i32 } %88, i32 %56, 1
  resume { i8*, i32 } %89

90:                                               ; preds = %53
  %91 = landingpad { i8*, i32 }
          catch i8* null
  %92 = extractvalue { i8*, i32 } %91, 0
  call void @__clang_call_terminate(i8* %92) #13
  unreachable

93:                                               ; preds = %63
  unreachable
}

; Function Attrs: noinline nounwind uwtable
define linkonce_odr double* @_ZNSt6vectorIdSaIdEE3endEv(%"class.std::vector"* %0) #4 comdat align 2 {
  %2 = alloca %"class.__gnu_cxx::__normal_iterator", align 8
  %3 = bitcast %"class.std::vector"* %0 to %"struct.std::_Vector_base"*
  %4 = getelementptr inbounds %"struct.std::_Vector_base", %"struct.std::_Vector_base"* %3, i32 0, i32 0
  %5 = getelementptr inbounds %"struct.std::_Vector_base<double, std::allocator<double> >::_Vector_impl", %"struct.std::_Vector_base<double, std::allocator<double> >::_Vector_impl"* %4, i32 0, i32 1
  call void @_ZN9__gnu_cxx17__normal_iteratorIPdSt6vectorIdSaIdEEEC2ERKS1_(%"class.__gnu_cxx::__normal_iterator"* %2, double** dereferenceable(8) %5) #3
  %6 = getelementptr inbounds %"class.__gnu_cxx::__normal_iterator", %"class.__gnu_cxx::__normal_iterator"* %2, i32 0, i32 0
  %7 = load double*, double** %6, align 8
  ret double* %7
}

; Function Attrs: noinline nounwind uwtable
define linkonce_odr void @_ZN9__gnu_cxx13new_allocatorIdE9constructIdJdEEEvPT_DpOT0_(%"class.__gnu_cxx::new_allocator"* %0, double* %1, double* dereferenceable(8) %2) #4 comdat align 2 {
  %4 = bitcast double* %1 to i8*
  %5 = bitcast i8* %4 to double*
  %6 = call dereferenceable(8) double* @_ZSt7forwardIdEOT_RNSt16remove_referenceIS0_E4typeE(double* dereferenceable(8) %2) #3
  %7 = load double, double* %6, align 8
  store double %7, double* %5, align 8
  ret void
}

; Function Attrs: noinline uwtable
define linkonce_odr i64 @_ZNKSt6vectorIdSaIdEE12_M_check_lenEmPKc(%"class.std::vector"* %0, i64 %1, i8* %2) #0 comdat align 2 {
  %4 = alloca i64, align 8
  %5 = alloca i64, align 8
  store i64 %1, i64* %4, align 8
  %6 = call i64 @_ZNKSt6vectorIdSaIdEE8max_sizeEv(%"class.std::vector"* %0) #3
  %7 = call i64 @_ZNKSt6vectorIdSaIdEE4sizeEv(%"class.std::vector"* %0) #3
  %8 = sub i64 %6, %7
  %9 = load i64, i64* %4, align 8
  %10 = icmp ult i64 %8, %9
  br i1 %10, label %11, label %12

11:                                               ; preds = %3
  call void @_ZSt20__throw_length_errorPKc(i8* %2) #14
  unreachable

12:                                               ; preds = %3
  %13 = call i64 @_ZNKSt6vectorIdSaIdEE4sizeEv(%"class.std::vector"* %0) #3
  %14 = call i64 @_ZNKSt6vectorIdSaIdEE4sizeEv(%"class.std::vector"* %0) #3
  store i64 %14, i64* %5, align 8
  %15 = call dereferenceable(8) i64* @_ZSt3maxImERKT_S2_S2_(i64* dereferenceable(8) %5, i64* dereferenceable(8) %4)
  %16 = load i64, i64* %15, align 8
  %17 = add i64 %13, %16
  %18 = call i64 @_ZNKSt6vectorIdSaIdEE4sizeEv(%"class.std::vector"* %0) #3
  %19 = icmp ult i64 %17, %18
  br i1 %19, label %23, label %20

20:                                               ; preds = %12
  %21 = call i64 @_ZNKSt6vectorIdSaIdEE8max_sizeEv(%"class.std::vector"* %0) #3
  %22 = icmp ugt i64 %17, %21
  br i1 %22, label %23, label %25

23:                                               ; preds = %20, %12
  %24 = call i64 @_ZNKSt6vectorIdSaIdEE8max_sizeEv(%"class.std::vector"* %0) #3
  br label %26

25:                                               ; preds = %20
  br label %26

26:                                               ; preds = %25, %23
  %27 = phi i64 [ %24, %23 ], [ %17, %25 ]
  ret i64 %27
}

; Function Attrs: noinline nounwind uwtable
define linkonce_odr i64 @_ZN9__gnu_cxxmiIPdSt6vectorIdSaIdEEEENS_17__normal_iteratorIT_T0_E15difference_typeERKS8_SB_(%"class.__gnu_cxx::__normal_iterator"* dereferenceable(8) %0, %"class.__gnu_cxx::__normal_iterator"* dereferenceable(8) %1) #4 comdat {
  %3 = call dereferenceable(8) double** @_ZNK9__gnu_cxx17__normal_iteratorIPdSt6vectorIdSaIdEEE4baseEv(%"class.__gnu_cxx::__normal_iterator"* %0) #3
  %4 = load double*, double** %3, align 8
  %5 = call dereferenceable(8) double** @_ZNK9__gnu_cxx17__normal_iteratorIPdSt6vectorIdSaIdEEE4baseEv(%"class.__gnu_cxx::__normal_iterator"* %1) #3
  %6 = load double*, double** %5, align 8
  %7 = ptrtoint double* %4 to i64
  %8 = ptrtoint double* %6 to i64
  %9 = sub i64 %7, %8
  %10 = sdiv exact i64 %9, 8
  ret i64 %10
}

; Function Attrs: noinline nounwind uwtable
define linkonce_odr double* @_ZNSt6vectorIdSaIdEE5beginEv(%"class.std::vector"* %0) #4 comdat align 2 {
  %2 = alloca %"class.__gnu_cxx::__normal_iterator", align 8
  %3 = bitcast %"class.std::vector"* %0 to %"struct.std::_Vector_base"*
  %4 = getelementptr inbounds %"struct.std::_Vector_base", %"struct.std::_Vector_base"* %3, i32 0, i32 0
  %5 = getelementptr inbounds %"struct.std::_Vector_base<double, std::allocator<double> >::_Vector_impl", %"struct.std::_Vector_base<double, std::allocator<double> >::_Vector_impl"* %4, i32 0, i32 0
  call void @_ZN9__gnu_cxx17__normal_iteratorIPdSt6vectorIdSaIdEEEC2ERKS1_(%"class.__gnu_cxx::__normal_iterator"* %2, double** dereferenceable(8) %5) #3
  %6 = getelementptr inbounds %"class.__gnu_cxx::__normal_iterator", %"class.__gnu_cxx::__normal_iterator"* %2, i32 0, i32 0
  %7 = load double*, double** %6, align 8
  ret double* %7
}

; Function Attrs: noinline uwtable
define linkonce_odr double* @_ZSt34__uninitialized_move_if_noexcept_aIPdS0_SaIdEET0_T_S3_S2_RT1_(double* %0, double* %1, double* %2, %"class.std::allocator"* dereferenceable(1) %3) #0 comdat {
  %5 = alloca %"class.std::move_iterator", align 8
  %6 = alloca %"class.std::move_iterator", align 8
  %7 = call double* @_ZSt32__make_move_if_noexcept_iteratorIdSt13move_iteratorIPdEET0_PT_(double* %0)
  %8 = getelementptr inbounds %"class.std::move_iterator", %"class.std::move_iterator"* %5, i32 0, i32 0
  store double* %7, double** %8, align 8
  %9 = call double* @_ZSt32__make_move_if_noexcept_iteratorIdSt13move_iteratorIPdEET0_PT_(double* %1)
  %10 = getelementptr inbounds %"class.std::move_iterator", %"class.std::move_iterator"* %6, i32 0, i32 0
  store double* %9, double** %10, align 8
  %11 = getelementptr inbounds %"class.std::move_iterator", %"class.std::move_iterator"* %5, i32 0, i32 0
  %12 = load double*, double** %11, align 8
  %13 = getelementptr inbounds %"class.std::move_iterator", %"class.std::move_iterator"* %6, i32 0, i32 0
  %14 = load double*, double** %13, align 8
  %15 = call double* @_ZSt22__uninitialized_copy_aISt13move_iteratorIPdES1_dET0_T_S4_S3_RSaIT1_E(double* %12, double* %14, double* %2, %"class.std::allocator"* dereferenceable(1) %3)
  ret double* %15
}

; Function Attrs: noinline nounwind uwtable
define linkonce_odr dereferenceable(8) double** @_ZNK9__gnu_cxx17__normal_iteratorIPdSt6vectorIdSaIdEEE4baseEv(%"class.__gnu_cxx::__normal_iterator"* %0) #4 comdat align 2 {
  %2 = getelementptr inbounds %"class.__gnu_cxx::__normal_iterator", %"class.__gnu_cxx::__normal_iterator"* %0, i32 0, i32 0
  ret double** %2
}

; Function Attrs: noinline uwtable
define linkonce_odr void @_ZNSt16allocator_traitsISaIdEE7destroyIdEEvRS0_PT_(%"class.std::allocator"* dereferenceable(1) %0, double* %1) #0 comdat align 2 {
  %3 = bitcast %"class.std::allocator"* %0 to %"class.__gnu_cxx::new_allocator"*
  call void @_ZN9__gnu_cxx13new_allocatorIdE7destroyIdEEvPT_(%"class.__gnu_cxx::new_allocator"* %3, double* %1)
  ret void
}

declare void @__cxa_rethrow()

declare void @__cxa_end_catch()

; Function Attrs: noinline nounwind uwtable
define linkonce_odr i64 @_ZNKSt6vectorIdSaIdEE8max_sizeEv(%"class.std::vector"* %0) #4 comdat align 2 {
  %2 = bitcast %"class.std::vector"* %0 to %"struct.std::_Vector_base"*
  %3 = call dereferenceable(1) %"class.std::allocator"* @_ZNKSt12_Vector_baseIdSaIdEE19_M_get_Tp_allocatorEv(%"struct.std::_Vector_base"* %2) #3
  %4 = call i64 @_ZNSt16allocator_traitsISaIdEE8max_sizeERKS0_(%"class.std::allocator"* dereferenceable(1) %3) #3
  ret i64 %4
}

; Function Attrs: noreturn
declare void @_ZSt20__throw_length_errorPKc(i8*) #6

; Function Attrs: noinline nounwind uwtable
define linkonce_odr dereferenceable(8) i64* @_ZSt3maxImERKT_S2_S2_(i64* dereferenceable(8) %0, i64* dereferenceable(8) %1) #4 comdat {
  %3 = load i64, i64* %0, align 8
  %4 = load i64, i64* %1, align 8
  %5 = icmp ult i64 %3, %4
  br i1 %5, label %6, label %7

6:                                                ; preds = %2
  br label %8

7:                                                ; preds = %2
  br label %8

8:                                                ; preds = %7, %6
  %.0 = phi i64* [ %1, %6 ], [ %0, %7 ]
  ret i64* %.0
}

; Function Attrs: noinline nounwind uwtable
define linkonce_odr i64 @_ZNSt16allocator_traitsISaIdEE8max_sizeERKS0_(%"class.std::allocator"* dereferenceable(1) %0) #4 comdat align 2 {
  %2 = bitcast %"class.std::allocator"* %0 to %"class.__gnu_cxx::new_allocator"*
  %3 = call i64 @_ZNK9__gnu_cxx13new_allocatorIdE8max_sizeEv(%"class.__gnu_cxx::new_allocator"* %2) #3
  ret i64 %3
}

; Function Attrs: noinline nounwind uwtable
define linkonce_odr dereferenceable(1) %"class.std::allocator"* @_ZNKSt12_Vector_baseIdSaIdEE19_M_get_Tp_allocatorEv(%"struct.std::_Vector_base"* %0) #4 comdat align 2 {
  %2 = getelementptr inbounds %"struct.std::_Vector_base", %"struct.std::_Vector_base"* %0, i32 0, i32 0
  %3 = bitcast %"struct.std::_Vector_base<double, std::allocator<double> >::_Vector_impl"* %2 to %"class.std::allocator"*
  ret %"class.std::allocator"* %3
}

; Function Attrs: noinline nounwind uwtable
define linkonce_odr void @_ZN9__gnu_cxx17__normal_iteratorIPdSt6vectorIdSaIdEEEC2ERKS1_(%"class.__gnu_cxx::__normal_iterator"* %0, double** dereferenceable(8) %1) unnamed_addr #4 comdat align 2 {
  %3 = getelementptr inbounds %"class.__gnu_cxx::__normal_iterator", %"class.__gnu_cxx::__normal_iterator"* %0, i32 0, i32 0
  %4 = load double*, double** %1, align 8
  store double* %4, double** %3, align 8
  ret void
}

; Function Attrs: noinline uwtable
define linkonce_odr double* @_ZSt22__uninitialized_copy_aISt13move_iteratorIPdES1_dET0_T_S4_S3_RSaIT1_E(double* %0, double* %1, double* %2, %"class.std::allocator"* dereferenceable(1) %3) #0 comdat {
  %5 = alloca %"class.std::move_iterator", align 8
  %6 = alloca %"class.std::move_iterator", align 8
  %7 = alloca %"class.std::move_iterator", align 8
  %8 = alloca %"class.std::move_iterator", align 8
  %9 = getelementptr inbounds %"class.std::move_iterator", %"class.std::move_iterator"* %5, i32 0, i32 0
  store double* %0, double** %9, align 8
  %10 = getelementptr inbounds %"class.std::move_iterator", %"class.std::move_iterator"* %6, i32 0, i32 0
  store double* %1, double** %10, align 8
  %11 = bitcast %"class.std::move_iterator"* %7 to i8*
  %12 = bitcast %"class.std::move_iterator"* %5 to i8*
  call void @llvm.memcpy.p0i8.p0i8.i64(i8* align 8 %11, i8* align 8 %12, i64 8, i1 false)
  %13 = bitcast %"class.std::move_iterator"* %8 to i8*
  %14 = bitcast %"class.std::move_iterator"* %6 to i8*
  call void @llvm.memcpy.p0i8.p0i8.i64(i8* align 8 %13, i8* align 8 %14, i64 8, i1 false)
  %15 = getelementptr inbounds %"class.std::move_iterator", %"class.std::move_iterator"* %7, i32 0, i32 0
  %16 = load double*, double** %15, align 8
  %17 = getelementptr inbounds %"class.std::move_iterator", %"class.std::move_iterator"* %8, i32 0, i32 0
  %18 = load double*, double** %17, align 8
  %19 = call double* @_ZSt18uninitialized_copyISt13move_iteratorIPdES1_ET0_T_S4_S3_(double* %16, double* %18, double* %2)
  ret double* %19
}

; Function Attrs: noinline uwtable
define linkonce_odr double* @_ZSt32__make_move_if_noexcept_iteratorIdSt13move_iteratorIPdEET0_PT_(double* %0) #0 comdat {
  %2 = alloca %"class.std::move_iterator", align 8
  call void @_ZNSt13move_iteratorIPdEC2ES0_(%"class.std::move_iterator"* %2, double* %0)
  %3 = getelementptr inbounds %"class.std::move_iterator", %"class.std::move_iterator"* %2, i32 0, i32 0
  %4 = load double*, double** %3, align 8
  ret double* %4
}

; Function Attrs: noinline uwtable
define linkonce_odr double* @_ZSt18uninitialized_copyISt13move_iteratorIPdES1_ET0_T_S4_S3_(double* %0, double* %1, double* %2) #0 comdat {
  %4 = alloca %"class.std::move_iterator", align 8
  %5 = alloca %"class.std::move_iterator", align 8
  %6 = alloca %"class.std::move_iterator", align 8
  %7 = alloca %"class.std::move_iterator", align 8
  %8 = getelementptr inbounds %"class.std::move_iterator", %"class.std::move_iterator"* %4, i32 0, i32 0
  store double* %0, double** %8, align 8
  %9 = getelementptr inbounds %"class.std::move_iterator", %"class.std::move_iterator"* %5, i32 0, i32 0
  store double* %1, double** %9, align 8
  %10 = bitcast %"class.std::move_iterator"* %6 to i8*
  %11 = bitcast %"class.std::move_iterator"* %4 to i8*
  call void @llvm.memcpy.p0i8.p0i8.i64(i8* align 8 %10, i8* align 8 %11, i64 8, i1 false)
  %12 = bitcast %"class.std::move_iterator"* %7 to i8*
  %13 = bitcast %"class.std::move_iterator"* %5 to i8*
  call void @llvm.memcpy.p0i8.p0i8.i64(i8* align 8 %12, i8* align 8 %13, i64 8, i1 false)
  %14 = getelementptr inbounds %"class.std::move_iterator", %"class.std::move_iterator"* %6, i32 0, i32 0
  %15 = load double*, double** %14, align 8
  %16 = getelementptr inbounds %"class.std::move_iterator", %"class.std::move_iterator"* %7, i32 0, i32 0
  %17 = load double*, double** %16, align 8
  %18 = call double* @_ZNSt20__uninitialized_copyILb1EE13__uninit_copyISt13move_iteratorIPdES3_EET0_T_S6_S5_(double* %15, double* %17, double* %2)
  ret double* %18
}

; Function Attrs: noinline uwtable
define linkonce_odr double* @_ZNSt20__uninitialized_copyILb1EE13__uninit_copyISt13move_iteratorIPdES3_EET0_T_S6_S5_(double* %0, double* %1, double* %2) #0 comdat align 2 {
  %4 = alloca %"class.std::move_iterator", align 8
  %5 = alloca %"class.std::move_iterator", align 8
  %6 = alloca %"class.std::move_iterator", align 8
  %7 = alloca %"class.std::move_iterator", align 8
  %8 = getelementptr inbounds %"class.std::move_iterator", %"class.std::move_iterator"* %4, i32 0, i32 0
  store double* %0, double** %8, align 8
  %9 = getelementptr inbounds %"class.std::move_iterator", %"class.std::move_iterator"* %5, i32 0, i32 0
  store double* %1, double** %9, align 8
  %10 = bitcast %"class.std::move_iterator"* %6 to i8*
  %11 = bitcast %"class.std::move_iterator"* %4 to i8*
  call void @llvm.memcpy.p0i8.p0i8.i64(i8* align 8 %10, i8* align 8 %11, i64 8, i1 false)
  %12 = bitcast %"class.std::move_iterator"* %7 to i8*
  %13 = bitcast %"class.std::move_iterator"* %5 to i8*
  call void @llvm.memcpy.p0i8.p0i8.i64(i8* align 8 %12, i8* align 8 %13, i64 8, i1 false)
  %14 = getelementptr inbounds %"class.std::move_iterator", %"class.std::move_iterator"* %6, i32 0, i32 0
  %15 = load double*, double** %14, align 8
  %16 = getelementptr inbounds %"class.std::move_iterator", %"class.std::move_iterator"* %7, i32 0, i32 0
  %17 = load double*, double** %16, align 8
  %18 = call double* @_ZSt4copyISt13move_iteratorIPdES1_ET0_T_S4_S3_(double* %15, double* %17, double* %2)
  ret double* %18
}

; Function Attrs: noinline uwtable
define linkonce_odr double* @_ZSt4copyISt13move_iteratorIPdES1_ET0_T_S4_S3_(double* %0, double* %1, double* %2) #0 comdat {
  %4 = alloca %"class.std::move_iterator", align 8
  %5 = alloca %"class.std::move_iterator", align 8
  %6 = alloca %"class.std::move_iterator", align 8
  %7 = alloca %"class.std::move_iterator", align 8
  %8 = getelementptr inbounds %"class.std::move_iterator", %"class.std::move_iterator"* %4, i32 0, i32 0
  store double* %0, double** %8, align 8
  %9 = getelementptr inbounds %"class.std::move_iterator", %"class.std::move_iterator"* %5, i32 0, i32 0
  store double* %1, double** %9, align 8
  %10 = bitcast %"class.std::move_iterator"* %6 to i8*
  %11 = bitcast %"class.std::move_iterator"* %4 to i8*
  call void @llvm.memcpy.p0i8.p0i8.i64(i8* align 8 %10, i8* align 8 %11, i64 8, i1 false)
  %12 = getelementptr inbounds %"class.std::move_iterator", %"class.std::move_iterator"* %6, i32 0, i32 0
  %13 = load double*, double** %12, align 8
  %14 = call double* @_ZSt12__miter_baseIPdEDTcl12__miter_basecldtfp_4baseEEESt13move_iteratorIT_E(double* %13)
  %15 = bitcast %"class.std::move_iterator"* %7 to i8*
  %16 = bitcast %"class.std::move_iterator"* %5 to i8*
  call void @llvm.memcpy.p0i8.p0i8.i64(i8* align 8 %15, i8* align 8 %16, i64 8, i1 false)
  %17 = getelementptr inbounds %"class.std::move_iterator", %"class.std::move_iterator"* %7, i32 0, i32 0
  %18 = load double*, double** %17, align 8
  %19 = call double* @_ZSt12__miter_baseIPdEDTcl12__miter_basecldtfp_4baseEEESt13move_iteratorIT_E(double* %18)
  %20 = call double* @_ZSt14__copy_move_a2ILb1EPdS0_ET1_T0_S2_S1_(double* %14, double* %19, double* %2)
  ret double* %20
}

; Function Attrs: noinline uwtable
define linkonce_odr double* @_ZSt14__copy_move_a2ILb1EPdS0_ET1_T0_S2_S1_(double* %0, double* %1, double* %2) #0 comdat {
  %4 = call double* @_ZSt12__niter_baseIPdET_S1_(double* %0)
  %5 = call double* @_ZSt12__niter_baseIPdET_S1_(double* %1)
  %6 = call double* @_ZSt12__niter_baseIPdET_S1_(double* %2)
  %7 = call double* @_ZSt13__copy_move_aILb1EPdS0_ET1_T0_S2_S1_(double* %4, double* %5, double* %6)
  ret double* %7
}

; Function Attrs: noinline uwtable
define linkonce_odr double* @_ZSt12__miter_baseIPdEDTcl12__miter_basecldtfp_4baseEEESt13move_iteratorIT_E(double* %0) #0 comdat {
  %2 = alloca %"class.std::move_iterator", align 8
  %3 = getelementptr inbounds %"class.std::move_iterator", %"class.std::move_iterator"* %2, i32 0, i32 0
  store double* %0, double** %3, align 8
  %4 = call double* @_ZNKSt13move_iteratorIPdE4baseEv(%"class.std::move_iterator"* %2)
  %5 = call double* @_ZSt12__miter_baseIPdET_S1_(double* %4)
  ret double* %5
}

; Function Attrs: noinline uwtable
define linkonce_odr double* @_ZSt13__copy_move_aILb1EPdS0_ET1_T0_S2_S1_(double* %0, double* %1, double* %2) #0 comdat {
  %4 = call double* @_ZNSt11__copy_moveILb1ELb1ESt26random_access_iterator_tagE8__copy_mIdEEPT_PKS3_S6_S4_(double* %0, double* %1, double* %2)
  ret double* %4
}

; Function Attrs: noinline nounwind uwtable
define linkonce_odr double* @_ZNSt11__copy_moveILb1ELb1ESt26random_access_iterator_tagE8__copy_mIdEEPT_PKS3_S6_S4_(double* %0, double* %1, double* %2) #4 comdat align 2 {
  %4 = ptrtoint double* %1 to i64
  %5 = ptrtoint double* %0 to i64
  %6 = sub i64 %4, %5
  %7 = sdiv exact i64 %6, 8
  %8 = icmp ne i64 %7, 0
  br i1 %8, label %9, label %13

9:                                                ; preds = %3
  %10 = bitcast double* %2 to i8*
  %11 = bitcast double* %0 to i8*
  %12 = mul i64 8, %7
  call void @llvm.memmove.p0i8.p0i8.i64(i8* align 8 %10, i8* align 8 %11, i64 %12, i1 false)
  br label %13

13:                                               ; preds = %9, %3
  %14 = getelementptr inbounds double, double* %2, i64 %7
  ret double* %14
}

; Function Attrs: noinline nounwind uwtable
define linkonce_odr double* @_ZSt12__miter_baseIPdET_S1_(double* %0) #4 comdat {
  ret double* %0
}

; Function Attrs: noinline nounwind uwtable
define linkonce_odr double* @_ZNKSt13move_iteratorIPdE4baseEv(%"class.std::move_iterator"* %0) #4 comdat align 2 {
  %2 = getelementptr inbounds %"class.std::move_iterator", %"class.std::move_iterator"* %0, i32 0, i32 0
  %3 = load double*, double** %2, align 8
  ret double* %3
}

; Function Attrs: noinline nounwind uwtable
define linkonce_odr void @_ZNSt13move_iteratorIPdEC2ES0_(%"class.std::move_iterator"* %0, double* %1) unnamed_addr #4 comdat align 2 {
  %3 = getelementptr inbounds %"class.std::move_iterator", %"class.std::move_iterator"* %0, i32 0, i32 0
  store double* %1, double** %3, align 8
  ret void
}

; Function Attrs: noinline nounwind uwtable
define linkonce_odr void @_ZN9__gnu_cxx13new_allocatorIdE7destroyIdEEvPT_(%"class.__gnu_cxx::new_allocator"* %0, double* %1) #4 comdat align 2 {
  ret void
}

; Function Attrs: noinline uwtable
define linkonce_odr void @_ZNSt16allocator_traitsISaIdEE9constructIdJRKdEEEvRS0_PT_DpOT0_(%"class.std::allocator"* dereferenceable(1) %0, double* %1, double* dereferenceable(8) %2) #0 comdat align 2 {
  %4 = bitcast %"class.std::allocator"* %0 to %"class.__gnu_cxx::new_allocator"*
  %5 = call dereferenceable(8) double* @_ZSt7forwardIRKdEOT_RNSt16remove_referenceIS2_E4typeE(double* dereferenceable(8) %2) #3
  call void @_ZN9__gnu_cxx13new_allocatorIdE9constructIdJRKdEEEvPT_DpOT0_(%"class.__gnu_cxx::new_allocator"* %4, double* %1, double* dereferenceable(8) %5)
  ret void
}

; Function Attrs: noinline uwtable
define linkonce_odr void @_ZNSt6vectorIdSaIdEE17_M_realloc_insertIJRKdEEEvN9__gnu_cxx17__normal_iteratorIPdS1_EEDpOT_(%"class.std::vector"* %0, double* %1, double* dereferenceable(8) %2) #0 comdat align 2 personality i8* bitcast (i32 (...)* @__gxx_personality_v0 to i8*) {
  %4 = alloca %"class.__gnu_cxx::__normal_iterator", align 8
  %5 = alloca %"class.__gnu_cxx::__normal_iterator", align 8
  %6 = getelementptr inbounds %"class.__gnu_cxx::__normal_iterator", %"class.__gnu_cxx::__normal_iterator"* %4, i32 0, i32 0
  store double* %1, double** %6, align 8
  %7 = call i64 @_ZNKSt6vectorIdSaIdEE12_M_check_lenEmPKc(%"class.std::vector"* %0, i64 1, i8* getelementptr inbounds ([26 x i8], [26 x i8]* @.str, i32 0, i32 0))
  %8 = bitcast %"class.std::vector"* %0 to %"struct.std::_Vector_base"*
  %9 = getelementptr inbounds %"struct.std::_Vector_base", %"struct.std::_Vector_base"* %8, i32 0, i32 0
  %10 = getelementptr inbounds %"struct.std::_Vector_base<double, std::allocator<double> >::_Vector_impl", %"struct.std::_Vector_base<double, std::allocator<double> >::_Vector_impl"* %9, i32 0, i32 0
  %11 = load double*, double** %10, align 8
  %12 = bitcast %"class.std::vector"* %0 to %"struct.std::_Vector_base"*
  %13 = getelementptr inbounds %"struct.std::_Vector_base", %"struct.std::_Vector_base"* %12, i32 0, i32 0
  %14 = getelementptr inbounds %"struct.std::_Vector_base<double, std::allocator<double> >::_Vector_impl", %"struct.std::_Vector_base<double, std::allocator<double> >::_Vector_impl"* %13, i32 0, i32 1
  %15 = load double*, double** %14, align 8
  %16 = call double* @_ZNSt6vectorIdSaIdEE5beginEv(%"class.std::vector"* %0) #3
  %17 = getelementptr inbounds %"class.__gnu_cxx::__normal_iterator", %"class.__gnu_cxx::__normal_iterator"* %5, i32 0, i32 0
  store double* %16, double** %17, align 8
  %18 = call i64 @_ZN9__gnu_cxxmiIPdSt6vectorIdSaIdEEEENS_17__normal_iteratorIT_T0_E15difference_typeERKS8_SB_(%"class.__gnu_cxx::__normal_iterator"* dereferenceable(8) %4, %"class.__gnu_cxx::__normal_iterator"* dereferenceable(8) %5) #3
  %19 = bitcast %"class.std::vector"* %0 to %"struct.std::_Vector_base"*
  %20 = call double* @_ZNSt12_Vector_baseIdSaIdEE11_M_allocateEm(%"struct.std::_Vector_base"* %19, i64 %7)
  %21 = bitcast %"class.std::vector"* %0 to %"struct.std::_Vector_base"*
  %22 = getelementptr inbounds %"struct.std::_Vector_base", %"struct.std::_Vector_base"* %21, i32 0, i32 0
  %23 = bitcast %"struct.std::_Vector_base<double, std::allocator<double> >::_Vector_impl"* %22 to %"class.std::allocator"*
  %24 = getelementptr inbounds double, double* %20, i64 %18
  %25 = call dereferenceable(8) double* @_ZSt7forwardIRKdEOT_RNSt16remove_referenceIS2_E4typeE(double* dereferenceable(8) %2) #3
  invoke void @_ZNSt16allocator_traitsISaIdEE9constructIdJRKdEEEvRS0_PT_DpOT0_(%"class.std::allocator"* dereferenceable(1) %23, double* %24, double* dereferenceable(8) %25)
          to label %26 unwind label %40

26:                                               ; preds = %3
  %27 = call dereferenceable(8) double** @_ZNK9__gnu_cxx17__normal_iteratorIPdSt6vectorIdSaIdEEE4baseEv(%"class.__gnu_cxx::__normal_iterator"* %4) #3
  %28 = load double*, double** %27, align 8
  %29 = bitcast %"class.std::vector"* %0 to %"struct.std::_Vector_base"*
  %30 = call dereferenceable(1) %"class.std::allocator"* @_ZNSt12_Vector_baseIdSaIdEE19_M_get_Tp_allocatorEv(%"struct.std::_Vector_base"* %29) #3
  %31 = invoke double* @_ZSt34__uninitialized_move_if_noexcept_aIPdS0_SaIdEET0_T_S3_S2_RT1_(double* %11, double* %28, double* %20, %"class.std::allocator"* dereferenceable(1) %30)
          to label %32 unwind label %40

32:                                               ; preds = %26
  %33 = getelementptr inbounds double, double* %31, i32 1
  %34 = call dereferenceable(8) double** @_ZNK9__gnu_cxx17__normal_iteratorIPdSt6vectorIdSaIdEEE4baseEv(%"class.__gnu_cxx::__normal_iterator"* %4) #3
  %35 = load double*, double** %34, align 8
  %36 = bitcast %"class.std::vector"* %0 to %"struct.std::_Vector_base"*
  %37 = call dereferenceable(1) %"class.std::allocator"* @_ZNSt12_Vector_baseIdSaIdEE19_M_get_Tp_allocatorEv(%"struct.std::_Vector_base"* %36) #3
  %38 = invoke double* @_ZSt34__uninitialized_move_if_noexcept_aIPdS0_SaIdEET0_T_S3_S2_RT1_(double* %35, double* %15, double* %33, %"class.std::allocator"* dereferenceable(1) %37)
          to label %39 unwind label %40

39:                                               ; preds = %32
  br label %65

40:                                               ; preds = %32, %26, %3
  %.0 = phi double* [ %33, %32 ], [ null, %26 ], [ %20, %3 ]
  %41 = landingpad { i8*, i32 }
          catch i8* null
  %42 = extractvalue { i8*, i32 } %41, 0
  %43 = extractvalue { i8*, i32 } %41, 1
  br label %44

44:                                               ; preds = %40
  %45 = call i8* @__cxa_begin_catch(i8* %42) #3
  %46 = icmp ne double* %.0, null
  br i1 %46, label %57, label %47

47:                                               ; preds = %44
  %48 = bitcast %"class.std::vector"* %0 to %"struct.std::_Vector_base"*
  %49 = getelementptr inbounds %"struct.std::_Vector_base", %"struct.std::_Vector_base"* %48, i32 0, i32 0
  %50 = bitcast %"struct.std::_Vector_base<double, std::allocator<double> >::_Vector_impl"* %49 to %"class.std::allocator"*
  %51 = getelementptr inbounds double, double* %20, i64 %18
  invoke void @_ZNSt16allocator_traitsISaIdEE7destroyIdEEvRS0_PT_(%"class.std::allocator"* dereferenceable(1) %50, double* %51)
          to label %52 unwind label %53

52:                                               ; preds = %47
  br label %61

53:                                               ; preds = %63, %61, %57, %47
  %54 = landingpad { i8*, i32 }
          cleanup
  %55 = extractvalue { i8*, i32 } %54, 0
  %56 = extractvalue { i8*, i32 } %54, 1
  invoke void @__cxa_end_catch()
          to label %64 unwind label %90

57:                                               ; preds = %44
  %58 = bitcast %"class.std::vector"* %0 to %"struct.std::_Vector_base"*
  %59 = call dereferenceable(1) %"class.std::allocator"* @_ZNSt12_Vector_baseIdSaIdEE19_M_get_Tp_allocatorEv(%"struct.std::_Vector_base"* %58) #3
  invoke void @_ZSt8_DestroyIPddEvT_S1_RSaIT0_E(double* %20, double* %.0, %"class.std::allocator"* dereferenceable(1) %59)
          to label %60 unwind label %53

60:                                               ; preds = %57
  br label %61

61:                                               ; preds = %60, %52
  %62 = bitcast %"class.std::vector"* %0 to %"struct.std::_Vector_base"*
  invoke void @_ZNSt12_Vector_baseIdSaIdEE13_M_deallocateEPdm(%"struct.std::_Vector_base"* %62, double* %20, i64 %7)
          to label %63 unwind label %53

63:                                               ; preds = %61
  invoke void @__cxa_rethrow() #14
          to label %93 unwind label %53

64:                                               ; preds = %53
  br label %87

65:                                               ; preds = %39
  %66 = bitcast %"class.std::vector"* %0 to %"struct.std::_Vector_base"*
  %67 = call dereferenceable(1) %"class.std::allocator"* @_ZNSt12_Vector_baseIdSaIdEE19_M_get_Tp_allocatorEv(%"struct.std::_Vector_base"* %66) #3
  call void @_ZSt8_DestroyIPddEvT_S1_RSaIT0_E(double* %11, double* %15, %"class.std::allocator"* dereferenceable(1) %67)
  %68 = bitcast %"class.std::vector"* %0 to %"struct.std::_Vector_base"*
  %69 = bitcast %"class.std::vector"* %0 to %"struct.std::_Vector_base"*
  %70 = getelementptr inbounds %"struct.std::_Vector_base", %"struct.std::_Vector_base"* %69, i32 0, i32 0
  %71 = getelementptr inbounds %"struct.std::_Vector_base<double, std::allocator<double> >::_Vector_impl", %"struct.std::_Vector_base<double, std::allocator<double> >::_Vector_impl"* %70, i32 0, i32 2
  %72 = load double*, double** %71, align 8
  %73 = ptrtoint double* %72 to i64
  %74 = ptrtoint double* %11 to i64
  %75 = sub i64 %73, %74
  %76 = sdiv exact i64 %75, 8
  call void @_ZNSt12_Vector_baseIdSaIdEE13_M_deallocateEPdm(%"struct.std::_Vector_base"* %68, double* %11, i64 %76)
  %77 = bitcast %"class.std::vector"* %0 to %"struct.std::_Vector_base"*
  %78 = getelementptr inbounds %"struct.std::_Vector_base", %"struct.std::_Vector_base"* %77, i32 0, i32 0
  %79 = getelementptr inbounds %"struct.std::_Vector_base<double, std::allocator<double> >::_Vector_impl", %"struct.std::_Vector_base<double, std::allocator<double> >::_Vector_impl"* %78, i32 0, i32 0
  store double* %20, double** %79, align 8
  %80 = bitcast %"class.std::vector"* %0 to %"struct.std::_Vector_base"*
  %81 = getelementptr inbounds %"struct.std::_Vector_base", %"struct.std::_Vector_base"* %80, i32 0, i32 0
  %82 = getelementptr inbounds %"struct.std::_Vector_base<double, std::allocator<double> >::_Vector_impl", %"struct.std::_Vector_base<double, std::allocator<double> >::_Vector_impl"* %81, i32 0, i32 1
  store double* %38, double** %82, align 8
  %83 = getelementptr inbounds double, double* %20, i64 %7
  %84 = bitcast %"class.std::vector"* %0 to %"struct.std::_Vector_base"*
  %85 = getelementptr inbounds %"struct.std::_Vector_base", %"struct.std::_Vector_base"* %84, i32 0, i32 0
  %86 = getelementptr inbounds %"struct.std::_Vector_base<double, std::allocator<double> >::_Vector_impl", %"struct.std::_Vector_base<double, std::allocator<double> >::_Vector_impl"* %85, i32 0, i32 2
  store double* %83, double** %86, align 8
  ret void

87:                                               ; preds = %64
  %88 = insertvalue { i8*, i32 } undef, i8* %55, 0
  %89 = insertvalue { i8*, i32 } %88, i32 %56, 1
  resume { i8*, i32 } %89

90:                                               ; preds = %53
  %91 = landingpad { i8*, i32 }
          catch i8* null
  %92 = extractvalue { i8*, i32 } %91, 0
  call void @__clang_call_terminate(i8* %92) #13
  unreachable

93:                                               ; preds = %63
  unreachable
}

; Function Attrs: noinline nounwind uwtable
define linkonce_odr void @_ZN9__gnu_cxx13new_allocatorIdE9constructIdJRKdEEEvPT_DpOT0_(%"class.__gnu_cxx::new_allocator"* %0, double* %1, double* dereferenceable(8) %2) #4 comdat align 2 {
  %4 = bitcast double* %1 to i8*
  %5 = bitcast i8* %4 to double*
  %6 = call dereferenceable(8) double* @_ZSt7forwardIRKdEOT_RNSt16remove_referenceIS2_E4typeE(double* dereferenceable(8) %2) #3
  %7 = load double, double* %6, align 8
  store double %7, double* %5, align 8
  ret void
}

; Function Attrs: noinline nounwind uwtable
define linkonce_odr dereferenceable(8) double* @_ZSt7forwardIRKdEOT_RNSt16remove_referenceIS2_E4typeE(double* dereferenceable(8) %0) #4 comdat {
  ret double* %0
}

; Function Attrs: noinline uwtable
define linkonce_odr void @_ZSt6__sortIN9__gnu_cxx17__normal_iteratorIPdSt6vectorIdSaIdEEEENS0_5__ops15_Iter_less_iterEEvT_S9_T0_(double* %0, double* %1) #0 comdat {
  %3 = alloca %"class.__gnu_cxx::__normal_iterator", align 8
  %4 = alloca %"class.__gnu_cxx::__normal_iterator", align 8
  %5 = alloca %"class.__gnu_cxx::__normal_iterator", align 8
  %6 = alloca %"class.__gnu_cxx::__normal_iterator", align 8
  %7 = alloca %"class.__gnu_cxx::__normal_iterator", align 8
  %8 = alloca %"class.__gnu_cxx::__normal_iterator", align 8
  %9 = getelementptr inbounds %"class.__gnu_cxx::__normal_iterator", %"class.__gnu_cxx::__normal_iterator"* %3, i32 0, i32 0
  store double* %0, double** %9, align 8
  %10 = getelementptr inbounds %"class.__gnu_cxx::__normal_iterator", %"class.__gnu_cxx::__normal_iterator"* %4, i32 0, i32 0
  store double* %1, double** %10, align 8
  %11 = call zeroext i1 @_ZN9__gnu_cxxneIPdSt6vectorIdSaIdEEEEbRKNS_17__normal_iteratorIT_T0_EESA_(%"class.__gnu_cxx::__normal_iterator"* dereferenceable(8) %3, %"class.__gnu_cxx::__normal_iterator"* dereferenceable(8) %4) #3
  br i1 %11, label %12, label %32

12:                                               ; preds = %2
  %13 = bitcast %"class.__gnu_cxx::__normal_iterator"* %5 to i8*
  %14 = bitcast %"class.__gnu_cxx::__normal_iterator"* %3 to i8*
  call void @llvm.memcpy.p0i8.p0i8.i64(i8* align 8 %13, i8* align 8 %14, i64 8, i1 false)
  %15 = bitcast %"class.__gnu_cxx::__normal_iterator"* %6 to i8*
  %16 = bitcast %"class.__gnu_cxx::__normal_iterator"* %4 to i8*
  call void @llvm.memcpy.p0i8.p0i8.i64(i8* align 8 %15, i8* align 8 %16, i64 8, i1 false)
  %17 = call i64 @_ZN9__gnu_cxxmiIPdSt6vectorIdSaIdEEEENS_17__normal_iteratorIT_T0_E15difference_typeERKS8_SB_(%"class.__gnu_cxx::__normal_iterator"* dereferenceable(8) %4, %"class.__gnu_cxx::__normal_iterator"* dereferenceable(8) %3) #3
  %18 = call i64 @_ZSt4__lgl(i64 %17)
  %19 = mul nsw i64 %18, 2
  %20 = getelementptr inbounds %"class.__gnu_cxx::__normal_iterator", %"class.__gnu_cxx::__normal_iterator"* %5, i32 0, i32 0
  %21 = load double*, double** %20, align 8
  %22 = getelementptr inbounds %"class.__gnu_cxx::__normal_iterator", %"class.__gnu_cxx::__normal_iterator"* %6, i32 0, i32 0
  %23 = load double*, double** %22, align 8
  call void @_ZSt16__introsort_loopIN9__gnu_cxx17__normal_iteratorIPdSt6vectorIdSaIdEEEElNS0_5__ops15_Iter_less_iterEEvT_S9_T0_T1_(double* %21, double* %23, i64 %19)
  %24 = bitcast %"class.__gnu_cxx::__normal_iterator"* %7 to i8*
  %25 = bitcast %"class.__gnu_cxx::__normal_iterator"* %3 to i8*
  call void @llvm.memcpy.p0i8.p0i8.i64(i8* align 8 %24, i8* align 8 %25, i64 8, i1 false)
  %26 = bitcast %"class.__gnu_cxx::__normal_iterator"* %8 to i8*
  %27 = bitcast %"class.__gnu_cxx::__normal_iterator"* %4 to i8*
  call void @llvm.memcpy.p0i8.p0i8.i64(i8* align 8 %26, i8* align 8 %27, i64 8, i1 false)
  %28 = getelementptr inbounds %"class.__gnu_cxx::__normal_iterator", %"class.__gnu_cxx::__normal_iterator"* %7, i32 0, i32 0
  %29 = load double*, double** %28, align 8
  %30 = getelementptr inbounds %"class.__gnu_cxx::__normal_iterator", %"class.__gnu_cxx::__normal_iterator"* %8, i32 0, i32 0
  %31 = load double*, double** %30, align 8
  call void @_ZSt22__final_insertion_sortIN9__gnu_cxx17__normal_iteratorIPdSt6vectorIdSaIdEEEENS0_5__ops15_Iter_less_iterEEvT_S9_T0_(double* %29, double* %31)
  br label %32

32:                                               ; preds = %12, %2
  ret void
}

; Function Attrs: noinline nounwind uwtable
define linkonce_odr void @_ZN9__gnu_cxx5__ops16__iter_less_iterEv() #4 comdat {
  ret void
}

; Function Attrs: noinline nounwind uwtable
define linkonce_odr zeroext i1 @_ZN9__gnu_cxxneIPdSt6vectorIdSaIdEEEEbRKNS_17__normal_iteratorIT_T0_EESA_(%"class.__gnu_cxx::__normal_iterator"* dereferenceable(8) %0, %"class.__gnu_cxx::__normal_iterator"* dereferenceable(8) %1) #4 comdat {
  %3 = call dereferenceable(8) double** @_ZNK9__gnu_cxx17__normal_iteratorIPdSt6vectorIdSaIdEEE4baseEv(%"class.__gnu_cxx::__normal_iterator"* %0) #3
  %4 = load double*, double** %3, align 8
  %5 = call dereferenceable(8) double** @_ZNK9__gnu_cxx17__normal_iteratorIPdSt6vectorIdSaIdEEE4baseEv(%"class.__gnu_cxx::__normal_iterator"* %1) #3
  %6 = load double*, double** %5, align 8
  %7 = icmp ne double* %4, %6
  ret i1 %7
}

; Function Attrs: noinline uwtable
define linkonce_odr void @_ZSt16__introsort_loopIN9__gnu_cxx17__normal_iteratorIPdSt6vectorIdSaIdEEEElNS0_5__ops15_Iter_less_iterEEvT_S9_T0_T1_(double* %0, double* %1, i64 %2) #0 comdat {
  %4 = alloca %"class.__gnu_cxx::__normal_iterator", align 8
  %5 = alloca %"class.__gnu_cxx::__normal_iterator", align 8
  %6 = alloca %"class.__gnu_cxx::__normal_iterator", align 8
  %7 = alloca %"class.__gnu_cxx::__normal_iterator", align 8
  %8 = alloca %"class.__gnu_cxx::__normal_iterator", align 8
  %9 = alloca %"class.__gnu_cxx::__normal_iterator", align 8
  %10 = alloca %"class.__gnu_cxx::__normal_iterator", align 8
  %11 = alloca %"class.__gnu_cxx::__normal_iterator", align 8
  %12 = alloca %"class.__gnu_cxx::__normal_iterator", align 8
  %13 = alloca %"class.__gnu_cxx::__normal_iterator", align 8
  %14 = getelementptr inbounds %"class.__gnu_cxx::__normal_iterator", %"class.__gnu_cxx::__normal_iterator"* %4, i32 0, i32 0
  store double* %0, double** %14, align 8
  %15 = getelementptr inbounds %"class.__gnu_cxx::__normal_iterator", %"class.__gnu_cxx::__normal_iterator"* %5, i32 0, i32 0
  store double* %1, double** %15, align 8
  br label %16

16:                                               ; preds = %34, %3
  %.0 = phi i64 [ %2, %3 ], [ %35, %34 ]
  %17 = call i64 @_ZN9__gnu_cxxmiIPdSt6vectorIdSaIdEEEENS_17__normal_iteratorIT_T0_E15difference_typeERKS8_SB_(%"class.__gnu_cxx::__normal_iterator"* dereferenceable(8) %5, %"class.__gnu_cxx::__normal_iterator"* dereferenceable(8) %4) #3
  %18 = icmp sgt i64 %17, 16
  br i1 %18, label %19, label %56

19:                                               ; preds = %16
  %20 = icmp eq i64 %.0, 0
  br i1 %20, label %21, label %34

21:                                               ; preds = %19
  %22 = bitcast %"class.__gnu_cxx::__normal_iterator"* %6 to i8*
  %23 = bitcast %"class.__gnu_cxx::__normal_iterator"* %4 to i8*
  call void @llvm.memcpy.p0i8.p0i8.i64(i8* align 8 %22, i8* align 8 %23, i64 8, i1 false)
  %24 = bitcast %"class.__gnu_cxx::__normal_iterator"* %7 to i8*
  %25 = bitcast %"class.__gnu_cxx::__normal_iterator"* %5 to i8*
  call void @llvm.memcpy.p0i8.p0i8.i64(i8* align 8 %24, i8* align 8 %25, i64 8, i1 false)
  %26 = bitcast %"class.__gnu_cxx::__normal_iterator"* %8 to i8*
  %27 = bitcast %"class.__gnu_cxx::__normal_iterator"* %5 to i8*
  call void @llvm.memcpy.p0i8.p0i8.i64(i8* align 8 %26, i8* align 8 %27, i64 8, i1 false)
  %28 = getelementptr inbounds %"class.__gnu_cxx::__normal_iterator", %"class.__gnu_cxx::__normal_iterator"* %6, i32 0, i32 0
  %29 = load double*, double** %28, align 8
  %30 = getelementptr inbounds %"class.__gnu_cxx::__normal_iterator", %"class.__gnu_cxx::__normal_iterator"* %7, i32 0, i32 0
  %31 = load double*, double** %30, align 8
  %32 = getelementptr inbounds %"class.__gnu_cxx::__normal_iterator", %"class.__gnu_cxx::__normal_iterator"* %8, i32 0, i32 0
  %33 = load double*, double** %32, align 8
  call void @_ZSt14__partial_sortIN9__gnu_cxx17__normal_iteratorIPdSt6vectorIdSaIdEEEENS0_5__ops15_Iter_less_iterEEvT_S9_S9_T0_(double* %29, double* %31, double* %33)
  br label %56

34:                                               ; preds = %19
  %35 = add nsw i64 %.0, -1
  %36 = bitcast %"class.__gnu_cxx::__normal_iterator"* %10 to i8*
  %37 = bitcast %"class.__gnu_cxx::__normal_iterator"* %4 to i8*
  call void @llvm.memcpy.p0i8.p0i8.i64(i8* align 8 %36, i8* align 8 %37, i64 8, i1 false)
  %38 = bitcast %"class.__gnu_cxx::__normal_iterator"* %11 to i8*
  %39 = bitcast %"class.__gnu_cxx::__normal_iterator"* %5 to i8*
  call void @llvm.memcpy.p0i8.p0i8.i64(i8* align 8 %38, i8* align 8 %39, i64 8, i1 false)
  %40 = getelementptr inbounds %"class.__gnu_cxx::__normal_iterator", %"class.__gnu_cxx::__normal_iterator"* %10, i32 0, i32 0
  %41 = load double*, double** %40, align 8
  %42 = getelementptr inbounds %"class.__gnu_cxx::__normal_iterator", %"class.__gnu_cxx::__normal_iterator"* %11, i32 0, i32 0
  %43 = load double*, double** %42, align 8
  %44 = call double* @_ZSt27__unguarded_partition_pivotIN9__gnu_cxx17__normal_iteratorIPdSt6vectorIdSaIdEEEENS0_5__ops15_Iter_less_iterEET_S9_S9_T0_(double* %41, double* %43)
  %45 = getelementptr inbounds %"class.__gnu_cxx::__normal_iterator", %"class.__gnu_cxx::__normal_iterator"* %9, i32 0, i32 0
  store double* %44, double** %45, align 8
  %46 = bitcast %"class.__gnu_cxx::__normal_iterator"* %12 to i8*
  %47 = bitcast %"class.__gnu_cxx::__normal_iterator"* %9 to i8*
  call void @llvm.memcpy.p0i8.p0i8.i64(i8* align 8 %46, i8* align 8 %47, i64 8, i1 false)
  %48 = bitcast %"class.__gnu_cxx::__normal_iterator"* %13 to i8*
  %49 = bitcast %"class.__gnu_cxx::__normal_iterator"* %5 to i8*
  call void @llvm.memcpy.p0i8.p0i8.i64(i8* align 8 %48, i8* align 8 %49, i64 8, i1 false)
  %50 = getelementptr inbounds %"class.__gnu_cxx::__normal_iterator", %"class.__gnu_cxx::__normal_iterator"* %12, i32 0, i32 0
  %51 = load double*, double** %50, align 8
  %52 = getelementptr inbounds %"class.__gnu_cxx::__normal_iterator", %"class.__gnu_cxx::__normal_iterator"* %13, i32 0, i32 0
  %53 = load double*, double** %52, align 8
  call void @_ZSt16__introsort_loopIN9__gnu_cxx17__normal_iteratorIPdSt6vectorIdSaIdEEEElNS0_5__ops15_Iter_less_iterEEvT_S9_T0_T1_(double* %51, double* %53, i64 %35)
  %54 = bitcast %"class.__gnu_cxx::__normal_iterator"* %5 to i8*
  %55 = bitcast %"class.__gnu_cxx::__normal_iterator"* %9 to i8*
  call void @llvm.memcpy.p0i8.p0i8.i64(i8* align 8 %54, i8* align 8 %55, i64 8, i1 false)
  br label %16

56:                                               ; preds = %21, %16
  ret void
}

; Function Attrs: noinline nounwind uwtable
define linkonce_odr i64 @_ZSt4__lgl(i64 %0) #4 comdat {
  %2 = call i64 @llvm.ctlz.i64(i64 %0, i1 true)
  %3 = trunc i64 %2 to i32
  %4 = sub nsw i32 63, %3
  %5 = sext i32 %4 to i64
  ret i64 %5
}

; Function Attrs: noinline uwtable
define linkonce_odr void @_ZSt22__final_insertion_sortIN9__gnu_cxx17__normal_iteratorIPdSt6vectorIdSaIdEEEENS0_5__ops15_Iter_less_iterEEvT_S9_T0_(double* %0, double* %1) #0 comdat {
  %3 = alloca %"class.__gnu_cxx::__normal_iterator", align 8
  %4 = alloca %"class.__gnu_cxx::__normal_iterator", align 8
  %5 = alloca %"class.__gnu_cxx::__normal_iterator", align 8
  %6 = alloca %"class.__gnu_cxx::__normal_iterator", align 8
  %7 = alloca %"class.__gnu_cxx::__normal_iterator", align 8
  %8 = alloca %"class.__gnu_cxx::__normal_iterator", align 8
  %9 = alloca %"class.__gnu_cxx::__normal_iterator", align 8
  %10 = alloca %"class.__gnu_cxx::__normal_iterator", align 8
  %11 = getelementptr inbounds %"class.__gnu_cxx::__normal_iterator", %"class.__gnu_cxx::__normal_iterator"* %3, i32 0, i32 0
  store double* %0, double** %11, align 8
  %12 = getelementptr inbounds %"class.__gnu_cxx::__normal_iterator", %"class.__gnu_cxx::__normal_iterator"* %4, i32 0, i32 0
  store double* %1, double** %12, align 8
  %13 = call i64 @_ZN9__gnu_cxxmiIPdSt6vectorIdSaIdEEEENS_17__normal_iteratorIT_T0_E15difference_typeERKS8_SB_(%"class.__gnu_cxx::__normal_iterator"* dereferenceable(8) %4, %"class.__gnu_cxx::__normal_iterator"* dereferenceable(8) %3) #3
  %14 = icmp sgt i64 %13, 16
  br i1 %14, label %15, label %32

15:                                               ; preds = %2
  %16 = bitcast %"class.__gnu_cxx::__normal_iterator"* %5 to i8*
  %17 = bitcast %"class.__gnu_cxx::__normal_iterator"* %3 to i8*
  call void @llvm.memcpy.p0i8.p0i8.i64(i8* align 8 %16, i8* align 8 %17, i64 8, i1 false)
  %18 = call double* @_ZNK9__gnu_cxx17__normal_iteratorIPdSt6vectorIdSaIdEEEplEl(%"class.__gnu_cxx::__normal_iterator"* %3, i64 16) #3
  %19 = getelementptr inbounds %"class.__gnu_cxx::__normal_iterator", %"class.__gnu_cxx::__normal_iterator"* %6, i32 0, i32 0
  store double* %18, double** %19, align 8
  %20 = getelementptr inbounds %"class.__gnu_cxx::__normal_iterator", %"class.__gnu_cxx::__normal_iterator"* %5, i32 0, i32 0
  %21 = load double*, double** %20, align 8
  %22 = getelementptr inbounds %"class.__gnu_cxx::__normal_iterator", %"class.__gnu_cxx::__normal_iterator"* %6, i32 0, i32 0
  %23 = load double*, double** %22, align 8
  call void @_ZSt16__insertion_sortIN9__gnu_cxx17__normal_iteratorIPdSt6vectorIdSaIdEEEENS0_5__ops15_Iter_less_iterEEvT_S9_T0_(double* %21, double* %23)
  %24 = call double* @_ZNK9__gnu_cxx17__normal_iteratorIPdSt6vectorIdSaIdEEEplEl(%"class.__gnu_cxx::__normal_iterator"* %3, i64 16) #3
  %25 = getelementptr inbounds %"class.__gnu_cxx::__normal_iterator", %"class.__gnu_cxx::__normal_iterator"* %7, i32 0, i32 0
  store double* %24, double** %25, align 8
  %26 = bitcast %"class.__gnu_cxx::__normal_iterator"* %8 to i8*
  %27 = bitcast %"class.__gnu_cxx::__normal_iterator"* %4 to i8*
  call void @llvm.memcpy.p0i8.p0i8.i64(i8* align 8 %26, i8* align 8 %27, i64 8, i1 false)
  %28 = getelementptr inbounds %"class.__gnu_cxx::__normal_iterator", %"class.__gnu_cxx::__normal_iterator"* %7, i32 0, i32 0
  %29 = load double*, double** %28, align 8
  %30 = getelementptr inbounds %"class.__gnu_cxx::__normal_iterator", %"class.__gnu_cxx::__normal_iterator"* %8, i32 0, i32 0
  %31 = load double*, double** %30, align 8
  call void @_ZSt26__unguarded_insertion_sortIN9__gnu_cxx17__normal_iteratorIPdSt6vectorIdSaIdEEEENS0_5__ops15_Iter_less_iterEEvT_S9_T0_(double* %29, double* %31)
  br label %41

32:                                               ; preds = %2
  %33 = bitcast %"class.__gnu_cxx::__normal_iterator"* %9 to i8*
  %34 = bitcast %"class.__gnu_cxx::__normal_iterator"* %3 to i8*
  call void @llvm.memcpy.p0i8.p0i8.i64(i8* align 8 %33, i8* align 8 %34, i64 8, i1 false)
  %35 = bitcast %"class.__gnu_cxx::__normal_iterator"* %10 to i8*
  %36 = bitcast %"class.__gnu_cxx::__normal_iterator"* %4 to i8*
  call void @llvm.memcpy.p0i8.p0i8.i64(i8* align 8 %35, i8* align 8 %36, i64 8, i1 false)
  %37 = getelementptr inbounds %"class.__gnu_cxx::__normal_iterator", %"class.__gnu_cxx::__normal_iterator"* %9, i32 0, i32 0
  %38 = load double*, double** %37, align 8
  %39 = getelementptr inbounds %"class.__gnu_cxx::__normal_iterator", %"class.__gnu_cxx::__normal_iterator"* %10, i32 0, i32 0
  %40 = load double*, double** %39, align 8
  call void @_ZSt16__insertion_sortIN9__gnu_cxx17__normal_iteratorIPdSt6vectorIdSaIdEEEENS0_5__ops15_Iter_less_iterEEvT_S9_T0_(double* %38, double* %40)
  br label %41

41:                                               ; preds = %32, %15
  ret void
}

; Function Attrs: noinline uwtable
define linkonce_odr void @_ZSt14__partial_sortIN9__gnu_cxx17__normal_iteratorIPdSt6vectorIdSaIdEEEENS0_5__ops15_Iter_less_iterEEvT_S9_S9_T0_(double* %0, double* %1, double* %2) #0 comdat {
  %4 = alloca %"class.__gnu_cxx::__normal_iterator", align 8
  %5 = alloca %"class.__gnu_cxx::__normal_iterator", align 8
  %6 = alloca %"class.__gnu_cxx::__normal_iterator", align 8
  %7 = alloca %"struct.__gnu_cxx::__ops::_Iter_less_iter", align 1
  %8 = alloca %"class.__gnu_cxx::__normal_iterator", align 8
  %9 = alloca %"class.__gnu_cxx::__normal_iterator", align 8
  %10 = alloca %"class.__gnu_cxx::__normal_iterator", align 8
  %11 = alloca %"class.__gnu_cxx::__normal_iterator", align 8
  %12 = alloca %"class.__gnu_cxx::__normal_iterator", align 8
  %13 = getelementptr inbounds %"class.__gnu_cxx::__normal_iterator", %"class.__gnu_cxx::__normal_iterator"* %4, i32 0, i32 0
  store double* %0, double** %13, align 8
  %14 = getelementptr inbounds %"class.__gnu_cxx::__normal_iterator", %"class.__gnu_cxx::__normal_iterator"* %5, i32 0, i32 0
  store double* %1, double** %14, align 8
  %15 = getelementptr inbounds %"class.__gnu_cxx::__normal_iterator", %"class.__gnu_cxx::__normal_iterator"* %6, i32 0, i32 0
  store double* %2, double** %15, align 8
  %16 = bitcast %"class.__gnu_cxx::__normal_iterator"* %8 to i8*
  %17 = bitcast %"class.__gnu_cxx::__normal_iterator"* %4 to i8*
  call void @llvm.memcpy.p0i8.p0i8.i64(i8* align 8 %16, i8* align 8 %17, i64 8, i1 false)
  %18 = bitcast %"class.__gnu_cxx::__normal_iterator"* %9 to i8*
  %19 = bitcast %"class.__gnu_cxx::__normal_iterator"* %5 to i8*
  call void @llvm.memcpy.p0i8.p0i8.i64(i8* align 8 %18, i8* align 8 %19, i64 8, i1 false)
  %20 = bitcast %"class.__gnu_cxx::__normal_iterator"* %10 to i8*
  %21 = bitcast %"class.__gnu_cxx::__normal_iterator"* %6 to i8*
  call void @llvm.memcpy.p0i8.p0i8.i64(i8* align 8 %20, i8* align 8 %21, i64 8, i1 false)
  %22 = getelementptr inbounds %"class.__gnu_cxx::__normal_iterator", %"class.__gnu_cxx::__normal_iterator"* %8, i32 0, i32 0
  %23 = load double*, double** %22, align 8
  %24 = getelementptr inbounds %"class.__gnu_cxx::__normal_iterator", %"class.__gnu_cxx::__normal_iterator"* %9, i32 0, i32 0
  %25 = load double*, double** %24, align 8
  %26 = getelementptr inbounds %"class.__gnu_cxx::__normal_iterator", %"class.__gnu_cxx::__normal_iterator"* %10, i32 0, i32 0
  %27 = load double*, double** %26, align 8
  call void @_ZSt13__heap_selectIN9__gnu_cxx17__normal_iteratorIPdSt6vectorIdSaIdEEEENS0_5__ops15_Iter_less_iterEEvT_S9_S9_T0_(double* %23, double* %25, double* %27)
  %28 = bitcast %"class.__gnu_cxx::__normal_iterator"* %11 to i8*
  %29 = bitcast %"class.__gnu_cxx::__normal_iterator"* %4 to i8*
  call void @llvm.memcpy.p0i8.p0i8.i64(i8* align 8 %28, i8* align 8 %29, i64 8, i1 false)
  %30 = bitcast %"class.__gnu_cxx::__normal_iterator"* %12 to i8*
  %31 = bitcast %"class.__gnu_cxx::__normal_iterator"* %5 to i8*
  call void @llvm.memcpy.p0i8.p0i8.i64(i8* align 8 %30, i8* align 8 %31, i64 8, i1 false)
  %32 = getelementptr inbounds %"class.__gnu_cxx::__normal_iterator", %"class.__gnu_cxx::__normal_iterator"* %11, i32 0, i32 0
  %33 = load double*, double** %32, align 8
  %34 = getelementptr inbounds %"class.__gnu_cxx::__normal_iterator", %"class.__gnu_cxx::__normal_iterator"* %12, i32 0, i32 0
  %35 = load double*, double** %34, align 8
  call void @_ZSt11__sort_heapIN9__gnu_cxx17__normal_iteratorIPdSt6vectorIdSaIdEEEENS0_5__ops15_Iter_less_iterEEvT_S9_RT0_(double* %33, double* %35, %"struct.__gnu_cxx::__ops::_Iter_less_iter"* dereferenceable(1) %7)
  ret void
}

; Function Attrs: noinline uwtable
define linkonce_odr double* @_ZSt27__unguarded_partition_pivotIN9__gnu_cxx17__normal_iteratorIPdSt6vectorIdSaIdEEEENS0_5__ops15_Iter_less_iterEET_S9_S9_T0_(double* %0, double* %1) #0 comdat {
  %3 = alloca %"class.__gnu_cxx::__normal_iterator", align 8
  %4 = alloca %"class.__gnu_cxx::__normal_iterator", align 8
  %5 = alloca %"class.__gnu_cxx::__normal_iterator", align 8
  %6 = alloca %"class.__gnu_cxx::__normal_iterator", align 8
  %7 = alloca %"class.__gnu_cxx::__normal_iterator", align 8
  %8 = alloca %"class.__gnu_cxx::__normal_iterator", align 8
  %9 = alloca %"class.__gnu_cxx::__normal_iterator", align 8
  %10 = alloca %"class.__gnu_cxx::__normal_iterator", align 8
  %11 = alloca %"class.__gnu_cxx::__normal_iterator", align 8
  %12 = alloca %"class.__gnu_cxx::__normal_iterator", align 8
  %13 = alloca %"class.__gnu_cxx::__normal_iterator", align 8
  %14 = getelementptr inbounds %"class.__gnu_cxx::__normal_iterator", %"class.__gnu_cxx::__normal_iterator"* %4, i32 0, i32 0
  store double* %0, double** %14, align 8
  %15 = getelementptr inbounds %"class.__gnu_cxx::__normal_iterator", %"class.__gnu_cxx::__normal_iterator"* %5, i32 0, i32 0
  store double* %1, double** %15, align 8
  %16 = call i64 @_ZN9__gnu_cxxmiIPdSt6vectorIdSaIdEEEENS_17__normal_iteratorIT_T0_E15difference_typeERKS8_SB_(%"class.__gnu_cxx::__normal_iterator"* dereferenceable(8) %5, %"class.__gnu_cxx::__normal_iterator"* dereferenceable(8) %4) #3
  %17 = sdiv i64 %16, 2
  %18 = call double* @_ZNK9__gnu_cxx17__normal_iteratorIPdSt6vectorIdSaIdEEEplEl(%"class.__gnu_cxx::__normal_iterator"* %4, i64 %17) #3
  %19 = getelementptr inbounds %"class.__gnu_cxx::__normal_iterator", %"class.__gnu_cxx::__normal_iterator"* %6, i32 0, i32 0
  store double* %18, double** %19, align 8
  %20 = bitcast %"class.__gnu_cxx::__normal_iterator"* %7 to i8*
  %21 = bitcast %"class.__gnu_cxx::__normal_iterator"* %4 to i8*
  call void @llvm.memcpy.p0i8.p0i8.i64(i8* align 8 %20, i8* align 8 %21, i64 8, i1 false)
  %22 = call double* @_ZNK9__gnu_cxx17__normal_iteratorIPdSt6vectorIdSaIdEEEplEl(%"class.__gnu_cxx::__normal_iterator"* %4, i64 1) #3
  %23 = getelementptr inbounds %"class.__gnu_cxx::__normal_iterator", %"class.__gnu_cxx::__normal_iterator"* %8, i32 0, i32 0
  store double* %22, double** %23, align 8
  %24 = bitcast %"class.__gnu_cxx::__normal_iterator"* %9 to i8*
  %25 = bitcast %"class.__gnu_cxx::__normal_iterator"* %6 to i8*
  call void @llvm.memcpy.p0i8.p0i8.i64(i8* align 8 %24, i8* align 8 %25, i64 8, i1 false)
  %26 = call double* @_ZNK9__gnu_cxx17__normal_iteratorIPdSt6vectorIdSaIdEEEmiEl(%"class.__gnu_cxx::__normal_iterator"* %5, i64 1) #3
  %27 = getelementptr inbounds %"class.__gnu_cxx::__normal_iterator", %"class.__gnu_cxx::__normal_iterator"* %10, i32 0, i32 0
  store double* %26, double** %27, align 8
  %28 = getelementptr inbounds %"class.__gnu_cxx::__normal_iterator", %"class.__gnu_cxx::__normal_iterator"* %7, i32 0, i32 0
  %29 = load double*, double** %28, align 8
  %30 = getelementptr inbounds %"class.__gnu_cxx::__normal_iterator", %"class.__gnu_cxx::__normal_iterator"* %8, i32 0, i32 0
  %31 = load double*, double** %30, align 8
  %32 = getelementptr inbounds %"class.__gnu_cxx::__normal_iterator", %"class.__gnu_cxx::__normal_iterator"* %9, i32 0, i32 0
  %33 = load double*, double** %32, align 8
  %34 = getelementptr inbounds %"class.__gnu_cxx::__normal_iterator", %"class.__gnu_cxx::__normal_iterator"* %10, i32 0, i32 0
  %35 = load double*, double** %34, align 8
  call void @_ZSt22__move_median_to_firstIN9__gnu_cxx17__normal_iteratorIPdSt6vectorIdSaIdEEEENS0_5__ops15_Iter_less_iterEEvT_S9_S9_S9_T0_(double* %29, double* %31, double* %33, double* %35)
  %36 = call double* @_ZNK9__gnu_cxx17__normal_iteratorIPdSt6vectorIdSaIdEEEplEl(%"class.__gnu_cxx::__normal_iterator"* %4, i64 1) #3
  %37 = getelementptr inbounds %"class.__gnu_cxx::__normal_iterator", %"class.__gnu_cxx::__normal_iterator"* %11, i32 0, i32 0
  store double* %36, double** %37, align 8
  %38 = bitcast %"class.__gnu_cxx::__normal_iterator"* %12 to i8*
  %39 = bitcast %"class.__gnu_cxx::__normal_iterator"* %5 to i8*
  call void @llvm.memcpy.p0i8.p0i8.i64(i8* align 8 %38, i8* align 8 %39, i64 8, i1 false)
  %40 = bitcast %"class.__gnu_cxx::__normal_iterator"* %13 to i8*
  %41 = bitcast %"class.__gnu_cxx::__normal_iterator"* %4 to i8*
  call void @llvm.memcpy.p0i8.p0i8.i64(i8* align 8 %40, i8* align 8 %41, i64 8, i1 false)
  %42 = getelementptr inbounds %"class.__gnu_cxx::__normal_iterator", %"class.__gnu_cxx::__normal_iterator"* %11, i32 0, i32 0
  %43 = load double*, double** %42, align 8
  %44 = getelementptr inbounds %"class.__gnu_cxx::__normal_iterator", %"class.__gnu_cxx::__normal_iterator"* %12, i32 0, i32 0
  %45 = load double*, double** %44, align 8
  %46 = getelementptr inbounds %"class.__gnu_cxx::__normal_iterator", %"class.__gnu_cxx::__normal_iterator"* %13, i32 0, i32 0
  %47 = load double*, double** %46, align 8
  %48 = call double* @_ZSt21__unguarded_partitionIN9__gnu_cxx17__normal_iteratorIPdSt6vectorIdSaIdEEEENS0_5__ops15_Iter_less_iterEET_S9_S9_S9_T0_(double* %43, double* %45, double* %47)
  %49 = getelementptr inbounds %"class.__gnu_cxx::__normal_iterator", %"class.__gnu_cxx::__normal_iterator"* %3, i32 0, i32 0
  store double* %48, double** %49, align 8
  %50 = getelementptr inbounds %"class.__gnu_cxx::__normal_iterator", %"class.__gnu_cxx::__normal_iterator"* %3, i32 0, i32 0
  %51 = load double*, double** %50, align 8
  ret double* %51
}

; Function Attrs: noinline uwtable
define linkonce_odr void @_ZSt13__heap_selectIN9__gnu_cxx17__normal_iteratorIPdSt6vectorIdSaIdEEEENS0_5__ops15_Iter_less_iterEEvT_S9_S9_T0_(double* %0, double* %1, double* %2) #0 comdat {
  %4 = alloca %"class.__gnu_cxx::__normal_iterator", align 8
  %5 = alloca %"class.__gnu_cxx::__normal_iterator", align 8
  %6 = alloca %"class.__gnu_cxx::__normal_iterator", align 8
  %7 = alloca %"struct.__gnu_cxx::__ops::_Iter_less_iter", align 1
  %8 = alloca %"class.__gnu_cxx::__normal_iterator", align 8
  %9 = alloca %"class.__gnu_cxx::__normal_iterator", align 8
  %10 = alloca %"class.__gnu_cxx::__normal_iterator", align 8
  %11 = alloca %"class.__gnu_cxx::__normal_iterator", align 8
  %12 = alloca %"class.__gnu_cxx::__normal_iterator", align 8
  %13 = alloca %"class.__gnu_cxx::__normal_iterator", align 8
  %14 = alloca %"class.__gnu_cxx::__normal_iterator", align 8
  %15 = alloca %"class.__gnu_cxx::__normal_iterator", align 8
  %16 = getelementptr inbounds %"class.__gnu_cxx::__normal_iterator", %"class.__gnu_cxx::__normal_iterator"* %4, i32 0, i32 0
  store double* %0, double** %16, align 8
  %17 = getelementptr inbounds %"class.__gnu_cxx::__normal_iterator", %"class.__gnu_cxx::__normal_iterator"* %5, i32 0, i32 0
  store double* %1, double** %17, align 8
  %18 = getelementptr inbounds %"class.__gnu_cxx::__normal_iterator", %"class.__gnu_cxx::__normal_iterator"* %6, i32 0, i32 0
  store double* %2, double** %18, align 8
  %19 = bitcast %"class.__gnu_cxx::__normal_iterator"* %8 to i8*
  %20 = bitcast %"class.__gnu_cxx::__normal_iterator"* %4 to i8*
  call void @llvm.memcpy.p0i8.p0i8.i64(i8* align 8 %19, i8* align 8 %20, i64 8, i1 false)
  %21 = bitcast %"class.__gnu_cxx::__normal_iterator"* %9 to i8*
  %22 = bitcast %"class.__gnu_cxx::__normal_iterator"* %5 to i8*
  call void @llvm.memcpy.p0i8.p0i8.i64(i8* align 8 %21, i8* align 8 %22, i64 8, i1 false)
  %23 = getelementptr inbounds %"class.__gnu_cxx::__normal_iterator", %"class.__gnu_cxx::__normal_iterator"* %8, i32 0, i32 0
  %24 = load double*, double** %23, align 8
  %25 = getelementptr inbounds %"class.__gnu_cxx::__normal_iterator", %"class.__gnu_cxx::__normal_iterator"* %9, i32 0, i32 0
  %26 = load double*, double** %25, align 8
  call void @_ZSt11__make_heapIN9__gnu_cxx17__normal_iteratorIPdSt6vectorIdSaIdEEEENS0_5__ops15_Iter_less_iterEEvT_S9_RT0_(double* %24, double* %26, %"struct.__gnu_cxx::__ops::_Iter_less_iter"* dereferenceable(1) %7)
  %27 = bitcast %"class.__gnu_cxx::__normal_iterator"* %10 to i8*
  %28 = bitcast %"class.__gnu_cxx::__normal_iterator"* %5 to i8*
  call void @llvm.memcpy.p0i8.p0i8.i64(i8* align 8 %27, i8* align 8 %28, i64 8, i1 false)
  br label %29

29:                                               ; preds = %55, %3
  %30 = call zeroext i1 @_ZN9__gnu_cxxltIPdSt6vectorIdSaIdEEEEbRKNS_17__normal_iteratorIT_T0_EESA_(%"class.__gnu_cxx::__normal_iterator"* dereferenceable(8) %10, %"class.__gnu_cxx::__normal_iterator"* dereferenceable(8) %6) #3
  br i1 %30, label %31, label %57

31:                                               ; preds = %29
  %32 = bitcast %"class.__gnu_cxx::__normal_iterator"* %11 to i8*
  %33 = bitcast %"class.__gnu_cxx::__normal_iterator"* %10 to i8*
  call void @llvm.memcpy.p0i8.p0i8.i64(i8* align 8 %32, i8* align 8 %33, i64 8, i1 false)
  %34 = bitcast %"class.__gnu_cxx::__normal_iterator"* %12 to i8*
  %35 = bitcast %"class.__gnu_cxx::__normal_iterator"* %4 to i8*
  call void @llvm.memcpy.p0i8.p0i8.i64(i8* align 8 %34, i8* align 8 %35, i64 8, i1 false)
  %36 = getelementptr inbounds %"class.__gnu_cxx::__normal_iterator", %"class.__gnu_cxx::__normal_iterator"* %11, i32 0, i32 0
  %37 = load double*, double** %36, align 8
  %38 = getelementptr inbounds %"class.__gnu_cxx::__normal_iterator", %"class.__gnu_cxx::__normal_iterator"* %12, i32 0, i32 0
  %39 = load double*, double** %38, align 8
  %40 = call zeroext i1 @_ZNK9__gnu_cxx5__ops15_Iter_less_iterclINS_17__normal_iteratorIPdSt6vectorIdSaIdEEEES8_EEbT_T0_(%"struct.__gnu_cxx::__ops::_Iter_less_iter"* %7, double* %37, double* %39)
  br i1 %40, label %41, label %54

41:                                               ; preds = %31
  %42 = bitcast %"class.__gnu_cxx::__normal_iterator"* %13 to i8*
  %43 = bitcast %"class.__gnu_cxx::__normal_iterator"* %4 to i8*
  call void @llvm.memcpy.p0i8.p0i8.i64(i8* align 8 %42, i8* align 8 %43, i64 8, i1 false)
  %44 = bitcast %"class.__gnu_cxx::__normal_iterator"* %14 to i8*
  %45 = bitcast %"class.__gnu_cxx::__normal_iterator"* %5 to i8*
  call void @llvm.memcpy.p0i8.p0i8.i64(i8* align 8 %44, i8* align 8 %45, i64 8, i1 false)
  %46 = bitcast %"class.__gnu_cxx::__normal_iterator"* %15 to i8*
  %47 = bitcast %"class.__gnu_cxx::__normal_iterator"* %10 to i8*
  call void @llvm.memcpy.p0i8.p0i8.i64(i8* align 8 %46, i8* align 8 %47, i64 8, i1 false)
  %48 = getelementptr inbounds %"class.__gnu_cxx::__normal_iterator", %"class.__gnu_cxx::__normal_iterator"* %13, i32 0, i32 0
  %49 = load double*, double** %48, align 8
  %50 = getelementptr inbounds %"class.__gnu_cxx::__normal_iterator", %"class.__gnu_cxx::__normal_iterator"* %14, i32 0, i32 0
  %51 = load double*, double** %50, align 8
  %52 = getelementptr inbounds %"class.__gnu_cxx::__normal_iterator", %"class.__gnu_cxx::__normal_iterator"* %15, i32 0, i32 0
  %53 = load double*, double** %52, align 8
  call void @_ZSt10__pop_heapIN9__gnu_cxx17__normal_iteratorIPdSt6vectorIdSaIdEEEENS0_5__ops15_Iter_less_iterEEvT_S9_S9_RT0_(double* %49, double* %51, double* %53, %"struct.__gnu_cxx::__ops::_Iter_less_iter"* dereferenceable(1) %7)
  br label %54

54:                                               ; preds = %41, %31
  br label %55

55:                                               ; preds = %54
  %56 = call dereferenceable(8) %"class.__gnu_cxx::__normal_iterator"* @_ZN9__gnu_cxx17__normal_iteratorIPdSt6vectorIdSaIdEEEppEv(%"class.__gnu_cxx::__normal_iterator"* %10) #3
  br label %29

57:                                               ; preds = %29
  ret void
}

; Function Attrs: noinline uwtable
define linkonce_odr void @_ZSt11__sort_heapIN9__gnu_cxx17__normal_iteratorIPdSt6vectorIdSaIdEEEENS0_5__ops15_Iter_less_iterEEvT_S9_RT0_(double* %0, double* %1, %"struct.__gnu_cxx::__ops::_Iter_less_iter"* dereferenceable(1) %2) #0 comdat {
  %4 = alloca %"class.__gnu_cxx::__normal_iterator", align 8
  %5 = alloca %"class.__gnu_cxx::__normal_iterator", align 8
  %6 = alloca %"class.__gnu_cxx::__normal_iterator", align 8
  %7 = alloca %"class.__gnu_cxx::__normal_iterator", align 8
  %8 = alloca %"class.__gnu_cxx::__normal_iterator", align 8
  %9 = getelementptr inbounds %"class.__gnu_cxx::__normal_iterator", %"class.__gnu_cxx::__normal_iterator"* %4, i32 0, i32 0
  store double* %0, double** %9, align 8
  %10 = getelementptr inbounds %"class.__gnu_cxx::__normal_iterator", %"class.__gnu_cxx::__normal_iterator"* %5, i32 0, i32 0
  store double* %1, double** %10, align 8
  br label %11

11:                                               ; preds = %14, %3
  %12 = call i64 @_ZN9__gnu_cxxmiIPdSt6vectorIdSaIdEEEENS_17__normal_iteratorIT_T0_E15difference_typeERKS8_SB_(%"class.__gnu_cxx::__normal_iterator"* dereferenceable(8) %5, %"class.__gnu_cxx::__normal_iterator"* dereferenceable(8) %4) #3
  %13 = icmp sgt i64 %12, 1
  br i1 %13, label %14, label %28

14:                                               ; preds = %11
  %15 = call dereferenceable(8) %"class.__gnu_cxx::__normal_iterator"* @_ZN9__gnu_cxx17__normal_iteratorIPdSt6vectorIdSaIdEEEmmEv(%"class.__gnu_cxx::__normal_iterator"* %5) #3
  %16 = bitcast %"class.__gnu_cxx::__normal_iterator"* %6 to i8*
  %17 = bitcast %"class.__gnu_cxx::__normal_iterator"* %4 to i8*
  call void @llvm.memcpy.p0i8.p0i8.i64(i8* align 8 %16, i8* align 8 %17, i64 8, i1 false)
  %18 = bitcast %"class.__gnu_cxx::__normal_iterator"* %7 to i8*
  %19 = bitcast %"class.__gnu_cxx::__normal_iterator"* %5 to i8*
  call void @llvm.memcpy.p0i8.p0i8.i64(i8* align 8 %18, i8* align 8 %19, i64 8, i1 false)
  %20 = bitcast %"class.__gnu_cxx::__normal_iterator"* %8 to i8*
  %21 = bitcast %"class.__gnu_cxx::__normal_iterator"* %5 to i8*
  call void @llvm.memcpy.p0i8.p0i8.i64(i8* align 8 %20, i8* align 8 %21, i64 8, i1 false)
  %22 = getelementptr inbounds %"class.__gnu_cxx::__normal_iterator", %"class.__gnu_cxx::__normal_iterator"* %6, i32 0, i32 0
  %23 = load double*, double** %22, align 8
  %24 = getelementptr inbounds %"class.__gnu_cxx::__normal_iterator", %"class.__gnu_cxx::__normal_iterator"* %7, i32 0, i32 0
  %25 = load double*, double** %24, align 8
  %26 = getelementptr inbounds %"class.__gnu_cxx::__normal_iterator", %"class.__gnu_cxx::__normal_iterator"* %8, i32 0, i32 0
  %27 = load double*, double** %26, align 8
  call void @_ZSt10__pop_heapIN9__gnu_cxx17__normal_iteratorIPdSt6vectorIdSaIdEEEENS0_5__ops15_Iter_less_iterEEvT_S9_S9_RT0_(double* %23, double* %25, double* %27, %"struct.__gnu_cxx::__ops::_Iter_less_iter"* dereferenceable(1) %2)
  br label %11

28:                                               ; preds = %11
  ret void
}

; Function Attrs: noinline uwtable
define linkonce_odr void @_ZSt11__make_heapIN9__gnu_cxx17__normal_iteratorIPdSt6vectorIdSaIdEEEENS0_5__ops15_Iter_less_iterEEvT_S9_RT0_(double* %0, double* %1, %"struct.__gnu_cxx::__ops::_Iter_less_iter"* dereferenceable(1) %2) #0 comdat {
  %4 = alloca %"class.__gnu_cxx::__normal_iterator", align 8
  %5 = alloca %"class.__gnu_cxx::__normal_iterator", align 8
  %6 = alloca double, align 8
  %7 = alloca %"class.__gnu_cxx::__normal_iterator", align 8
  %8 = alloca %"class.__gnu_cxx::__normal_iterator", align 8
  %9 = getelementptr inbounds %"class.__gnu_cxx::__normal_iterator", %"class.__gnu_cxx::__normal_iterator"* %4, i32 0, i32 0
  store double* %0, double** %9, align 8
  %10 = getelementptr inbounds %"class.__gnu_cxx::__normal_iterator", %"class.__gnu_cxx::__normal_iterator"* %5, i32 0, i32 0
  store double* %1, double** %10, align 8
  %11 = call i64 @_ZN9__gnu_cxxmiIPdSt6vectorIdSaIdEEEENS_17__normal_iteratorIT_T0_E15difference_typeERKS8_SB_(%"class.__gnu_cxx::__normal_iterator"* dereferenceable(8) %5, %"class.__gnu_cxx::__normal_iterator"* dereferenceable(8) %4) #3
  %12 = icmp slt i64 %11, 2
  br i1 %12, label %13, label %14

13:                                               ; preds = %3
  br label %34

14:                                               ; preds = %3
  %15 = call i64 @_ZN9__gnu_cxxmiIPdSt6vectorIdSaIdEEEENS_17__normal_iteratorIT_T0_E15difference_typeERKS8_SB_(%"class.__gnu_cxx::__normal_iterator"* dereferenceable(8) %5, %"class.__gnu_cxx::__normal_iterator"* dereferenceable(8) %4) #3
  %16 = sub nsw i64 %15, 2
  %17 = sdiv i64 %16, 2
  br label %18

18:                                               ; preds = %32, %14
  %.0 = phi i64 [ %17, %14 ], [ %33, %32 ]
  %19 = call double* @_ZNK9__gnu_cxx17__normal_iteratorIPdSt6vectorIdSaIdEEEplEl(%"class.__gnu_cxx::__normal_iterator"* %4, i64 %.0) #3
  %20 = getelementptr inbounds %"class.__gnu_cxx::__normal_iterator", %"class.__gnu_cxx::__normal_iterator"* %7, i32 0, i32 0
  store double* %19, double** %20, align 8
  %21 = call dereferenceable(8) double* @_ZNK9__gnu_cxx17__normal_iteratorIPdSt6vectorIdSaIdEEEdeEv(%"class.__gnu_cxx::__normal_iterator"* %7) #3
  %22 = call dereferenceable(8) double* @_ZSt4moveIRdEONSt16remove_referenceIT_E4typeEOS2_(double* dereferenceable(8) %21) #3
  %23 = load double, double* %22, align 8
  store double %23, double* %6, align 8
  %24 = bitcast %"class.__gnu_cxx::__normal_iterator"* %8 to i8*
  %25 = bitcast %"class.__gnu_cxx::__normal_iterator"* %4 to i8*
  call void @llvm.memcpy.p0i8.p0i8.i64(i8* align 8 %24, i8* align 8 %25, i64 8, i1 false)
  %26 = call dereferenceable(8) double* @_ZSt4moveIRdEONSt16remove_referenceIT_E4typeEOS2_(double* dereferenceable(8) %6) #3
  %27 = load double, double* %26, align 8
  %28 = getelementptr inbounds %"class.__gnu_cxx::__normal_iterator", %"class.__gnu_cxx::__normal_iterator"* %8, i32 0, i32 0
  %29 = load double*, double** %28, align 8
  call void @_ZSt13__adjust_heapIN9__gnu_cxx17__normal_iteratorIPdSt6vectorIdSaIdEEEEldNS0_5__ops15_Iter_less_iterEEvT_T0_SA_T1_T2_(double* %29, i64 %.0, i64 %15, double %27)
  %30 = icmp eq i64 %.0, 0
  br i1 %30, label %31, label %32

31:                                               ; preds = %18
  br label %34

32:                                               ; preds = %18
  %33 = add nsw i64 %.0, -1
  br label %18

34:                                               ; preds = %31, %13
  ret void
}

; Function Attrs: noinline nounwind uwtable
define linkonce_odr zeroext i1 @_ZN9__gnu_cxxltIPdSt6vectorIdSaIdEEEEbRKNS_17__normal_iteratorIT_T0_EESA_(%"class.__gnu_cxx::__normal_iterator"* dereferenceable(8) %0, %"class.__gnu_cxx::__normal_iterator"* dereferenceable(8) %1) #4 comdat {
  %3 = call dereferenceable(8) double** @_ZNK9__gnu_cxx17__normal_iteratorIPdSt6vectorIdSaIdEEE4baseEv(%"class.__gnu_cxx::__normal_iterator"* %0) #3
  %4 = load double*, double** %3, align 8
  %5 = call dereferenceable(8) double** @_ZNK9__gnu_cxx17__normal_iteratorIPdSt6vectorIdSaIdEEE4baseEv(%"class.__gnu_cxx::__normal_iterator"* %1) #3
  %6 = load double*, double** %5, align 8
  %7 = icmp ult double* %4, %6
  ret i1 %7
}

; Function Attrs: noinline nounwind uwtable
define linkonce_odr zeroext i1 @_ZNK9__gnu_cxx5__ops15_Iter_less_iterclINS_17__normal_iteratorIPdSt6vectorIdSaIdEEEES8_EEbT_T0_(%"struct.__gnu_cxx::__ops::_Iter_less_iter"* %0, double* %1, double* %2) #4 comdat align 2 {
  %4 = alloca %"class.__gnu_cxx::__normal_iterator", align 8
  %5 = alloca %"class.__gnu_cxx::__normal_iterator", align 8
  %6 = getelementptr inbounds %"class.__gnu_cxx::__normal_iterator", %"class.__gnu_cxx::__normal_iterator"* %4, i32 0, i32 0
  store double* %1, double** %6, align 8
  %7 = getelementptr inbounds %"class.__gnu_cxx::__normal_iterator", %"class.__gnu_cxx::__normal_iterator"* %5, i32 0, i32 0
  store double* %2, double** %7, align 8
  %8 = call dereferenceable(8) double* @_ZNK9__gnu_cxx17__normal_iteratorIPdSt6vectorIdSaIdEEEdeEv(%"class.__gnu_cxx::__normal_iterator"* %4) #3
  %9 = load double, double* %8, align 8
  %10 = call dereferenceable(8) double* @_ZNK9__gnu_cxx17__normal_iteratorIPdSt6vectorIdSaIdEEEdeEv(%"class.__gnu_cxx::__normal_iterator"* %5) #3
  %11 = load double, double* %10, align 8
  %12 = fcmp olt double %9, %11
  ret i1 %12
}

; Function Attrs: noinline uwtable
define linkonce_odr void @_ZSt10__pop_heapIN9__gnu_cxx17__normal_iteratorIPdSt6vectorIdSaIdEEEENS0_5__ops15_Iter_less_iterEEvT_S9_S9_RT0_(double* %0, double* %1, double* %2, %"struct.__gnu_cxx::__ops::_Iter_less_iter"* dereferenceable(1) %3) #0 comdat {
  %5 = alloca %"class.__gnu_cxx::__normal_iterator", align 8
  %6 = alloca %"class.__gnu_cxx::__normal_iterator", align 8
  %7 = alloca %"class.__gnu_cxx::__normal_iterator", align 8
  %8 = alloca double, align 8
  %9 = alloca %"class.__gnu_cxx::__normal_iterator", align 8
  %10 = getelementptr inbounds %"class.__gnu_cxx::__normal_iterator", %"class.__gnu_cxx::__normal_iterator"* %5, i32 0, i32 0
  store double* %0, double** %10, align 8
  %11 = getelementptr inbounds %"class.__gnu_cxx::__normal_iterator", %"class.__gnu_cxx::__normal_iterator"* %6, i32 0, i32 0
  store double* %1, double** %11, align 8
  %12 = getelementptr inbounds %"class.__gnu_cxx::__normal_iterator", %"class.__gnu_cxx::__normal_iterator"* %7, i32 0, i32 0
  store double* %2, double** %12, align 8
  %13 = call dereferenceable(8) double* @_ZNK9__gnu_cxx17__normal_iteratorIPdSt6vectorIdSaIdEEEdeEv(%"class.__gnu_cxx::__normal_iterator"* %7) #3
  %14 = call dereferenceable(8) double* @_ZSt4moveIRdEONSt16remove_referenceIT_E4typeEOS2_(double* dereferenceable(8) %13) #3
  %15 = load double, double* %14, align 8
  store double %15, double* %8, align 8
  %16 = call dereferenceable(8) double* @_ZNK9__gnu_cxx17__normal_iteratorIPdSt6vectorIdSaIdEEEdeEv(%"class.__gnu_cxx::__normal_iterator"* %5) #3
  %17 = call dereferenceable(8) double* @_ZSt4moveIRdEONSt16remove_referenceIT_E4typeEOS2_(double* dereferenceable(8) %16) #3
  %18 = load double, double* %17, align 8
  %19 = call dereferenceable(8) double* @_ZNK9__gnu_cxx17__normal_iteratorIPdSt6vectorIdSaIdEEEdeEv(%"class.__gnu_cxx::__normal_iterator"* %7) #3
  store double %18, double* %19, align 8
  %20 = bitcast %"class.__gnu_cxx::__normal_iterator"* %9 to i8*
  %21 = bitcast %"class.__gnu_cxx::__normal_iterator"* %5 to i8*
  call void @llvm.memcpy.p0i8.p0i8.i64(i8* align 8 %20, i8* align 8 %21, i64 8, i1 false)
  %22 = call i64 @_ZN9__gnu_cxxmiIPdSt6vectorIdSaIdEEEENS_17__normal_iteratorIT_T0_E15difference_typeERKS8_SB_(%"class.__gnu_cxx::__normal_iterator"* dereferenceable(8) %6, %"class.__gnu_cxx::__normal_iterator"* dereferenceable(8) %5) #3
  %23 = call dereferenceable(8) double* @_ZSt4moveIRdEONSt16remove_referenceIT_E4typeEOS2_(double* dereferenceable(8) %8) #3
  %24 = load double, double* %23, align 8
  %25 = getelementptr inbounds %"class.__gnu_cxx::__normal_iterator", %"class.__gnu_cxx::__normal_iterator"* %9, i32 0, i32 0
  %26 = load double*, double** %25, align 8
  call void @_ZSt13__adjust_heapIN9__gnu_cxx17__normal_iteratorIPdSt6vectorIdSaIdEEEEldNS0_5__ops15_Iter_less_iterEEvT_T0_SA_T1_T2_(double* %26, i64 0, i64 %22, double %24)
  ret void
}

; Function Attrs: noinline nounwind uwtable
define linkonce_odr dereferenceable(8) %"class.__gnu_cxx::__normal_iterator"* @_ZN9__gnu_cxx17__normal_iteratorIPdSt6vectorIdSaIdEEEppEv(%"class.__gnu_cxx::__normal_iterator"* %0) #4 comdat align 2 {
  %2 = getelementptr inbounds %"class.__gnu_cxx::__normal_iterator", %"class.__gnu_cxx::__normal_iterator"* %0, i32 0, i32 0
  %3 = load double*, double** %2, align 8
  %4 = getelementptr inbounds double, double* %3, i32 1
  store double* %4, double** %2, align 8
  ret %"class.__gnu_cxx::__normal_iterator"* %0
}

; Function Attrs: noinline nounwind uwtable
define linkonce_odr double* @_ZNK9__gnu_cxx17__normal_iteratorIPdSt6vectorIdSaIdEEEplEl(%"class.__gnu_cxx::__normal_iterator"* %0, i64 %1) #4 comdat align 2 {
  %3 = alloca %"class.__gnu_cxx::__normal_iterator", align 8
  %4 = alloca double*, align 8
  %5 = getelementptr inbounds %"class.__gnu_cxx::__normal_iterator", %"class.__gnu_cxx::__normal_iterator"* %0, i32 0, i32 0
  %6 = load double*, double** %5, align 8
  %7 = getelementptr inbounds double, double* %6, i64 %1
  store double* %7, double** %4, align 8
  call void @_ZN9__gnu_cxx17__normal_iteratorIPdSt6vectorIdSaIdEEEC2ERKS1_(%"class.__gnu_cxx::__normal_iterator"* %3, double** dereferenceable(8) %4) #3
  %8 = getelementptr inbounds %"class.__gnu_cxx::__normal_iterator", %"class.__gnu_cxx::__normal_iterator"* %3, i32 0, i32 0
  %9 = load double*, double** %8, align 8
  ret double* %9
}

; Function Attrs: noinline nounwind uwtable
define linkonce_odr dereferenceable(8) double* @_ZNK9__gnu_cxx17__normal_iteratorIPdSt6vectorIdSaIdEEEdeEv(%"class.__gnu_cxx::__normal_iterator"* %0) #4 comdat align 2 {
  %2 = getelementptr inbounds %"class.__gnu_cxx::__normal_iterator", %"class.__gnu_cxx::__normal_iterator"* %0, i32 0, i32 0
  %3 = load double*, double** %2, align 8
  ret double* %3
}

; Function Attrs: noinline uwtable
define linkonce_odr void @_ZSt13__adjust_heapIN9__gnu_cxx17__normal_iteratorIPdSt6vectorIdSaIdEEEEldNS0_5__ops15_Iter_less_iterEEvT_T0_SA_T1_T2_(double* %0, i64 %1, i64 %2, double %3) #0 comdat {
  %5 = alloca %"class.__gnu_cxx::__normal_iterator", align 8
  %6 = alloca %"struct.__gnu_cxx::__ops::_Iter_less_iter", align 1
  %7 = alloca double, align 8
  %8 = alloca %"class.__gnu_cxx::__normal_iterator", align 8
  %9 = alloca %"class.__gnu_cxx::__normal_iterator", align 8
  %10 = alloca %"class.__gnu_cxx::__normal_iterator", align 8
  %11 = alloca %"class.__gnu_cxx::__normal_iterator", align 8
  %12 = alloca %"class.__gnu_cxx::__normal_iterator", align 8
  %13 = alloca %"class.__gnu_cxx::__normal_iterator", align 8
  %14 = alloca %"struct.__gnu_cxx::__ops::_Iter_less_val", align 1
  %15 = alloca %"class.__gnu_cxx::__normal_iterator", align 8
  %16 = getelementptr inbounds %"class.__gnu_cxx::__normal_iterator", %"class.__gnu_cxx::__normal_iterator"* %5, i32 0, i32 0
  store double* %0, double** %16, align 8
  store double %3, double* %7, align 8
  br label %17

17:                                               ; preds = %36, %4
  %.01 = phi i64 [ %1, %4 ], [ %.12, %36 ]
  %.0 = phi i64 [ %1, %4 ], [ %.12, %36 ]
  %18 = sub nsw i64 %2, 1
  %19 = sdiv i64 %18, 2
  %20 = icmp slt i64 %.01, %19
  br i1 %20, label %21, label %45

21:                                               ; preds = %17
  %22 = add nsw i64 %.01, 1
  %23 = mul nsw i64 2, %22
  %24 = call double* @_ZNK9__gnu_cxx17__normal_iteratorIPdSt6vectorIdSaIdEEEplEl(%"class.__gnu_cxx::__normal_iterator"* %5, i64 %23) #3
  %25 = getelementptr inbounds %"class.__gnu_cxx::__normal_iterator", %"class.__gnu_cxx::__normal_iterator"* %8, i32 0, i32 0
  store double* %24, double** %25, align 8
  %26 = sub nsw i64 %23, 1
  %27 = call double* @_ZNK9__gnu_cxx17__normal_iteratorIPdSt6vectorIdSaIdEEEplEl(%"class.__gnu_cxx::__normal_iterator"* %5, i64 %26) #3
  %28 = getelementptr inbounds %"class.__gnu_cxx::__normal_iterator", %"class.__gnu_cxx::__normal_iterator"* %9, i32 0, i32 0
  store double* %27, double** %28, align 8
  %29 = getelementptr inbounds %"class.__gnu_cxx::__normal_iterator", %"class.__gnu_cxx::__normal_iterator"* %8, i32 0, i32 0
  %30 = load double*, double** %29, align 8
  %31 = getelementptr inbounds %"class.__gnu_cxx::__normal_iterator", %"class.__gnu_cxx::__normal_iterator"* %9, i32 0, i32 0
  %32 = load double*, double** %31, align 8
  %33 = call zeroext i1 @_ZNK9__gnu_cxx5__ops15_Iter_less_iterclINS_17__normal_iteratorIPdSt6vectorIdSaIdEEEES8_EEbT_T0_(%"struct.__gnu_cxx::__ops::_Iter_less_iter"* %6, double* %30, double* %32)
  br i1 %33, label %34, label %36

34:                                               ; preds = %21
  %35 = add nsw i64 %23, -1
  br label %36

36:                                               ; preds = %34, %21
  %.12 = phi i64 [ %35, %34 ], [ %23, %21 ]
  %37 = call double* @_ZNK9__gnu_cxx17__normal_iteratorIPdSt6vectorIdSaIdEEEplEl(%"class.__gnu_cxx::__normal_iterator"* %5, i64 %.12) #3
  %38 = getelementptr inbounds %"class.__gnu_cxx::__normal_iterator", %"class.__gnu_cxx::__normal_iterator"* %10, i32 0, i32 0
  store double* %37, double** %38, align 8
  %39 = call dereferenceable(8) double* @_ZNK9__gnu_cxx17__normal_iteratorIPdSt6vectorIdSaIdEEEdeEv(%"class.__gnu_cxx::__normal_iterator"* %10) #3
  %40 = call dereferenceable(8) double* @_ZSt4moveIRdEONSt16remove_referenceIT_E4typeEOS2_(double* dereferenceable(8) %39) #3
  %41 = load double, double* %40, align 8
  %42 = call double* @_ZNK9__gnu_cxx17__normal_iteratorIPdSt6vectorIdSaIdEEEplEl(%"class.__gnu_cxx::__normal_iterator"* %5, i64 %.0) #3
  %43 = getelementptr inbounds %"class.__gnu_cxx::__normal_iterator", %"class.__gnu_cxx::__normal_iterator"* %11, i32 0, i32 0
  store double* %42, double** %43, align 8
  %44 = call dereferenceable(8) double* @_ZNK9__gnu_cxx17__normal_iteratorIPdSt6vectorIdSaIdEEEdeEv(%"class.__gnu_cxx::__normal_iterator"* %11) #3
  store double %41, double* %44, align 8
  br label %17

45:                                               ; preds = %17
  %46 = and i64 %2, 1
  %47 = icmp eq i64 %46, 0
  br i1 %47, label %48, label %65

48:                                               ; preds = %45
  %49 = sub nsw i64 %2, 2
  %50 = sdiv i64 %49, 2
  %51 = icmp eq i64 %.01, %50
  br i1 %51, label %52, label %65

52:                                               ; preds = %48
  %53 = add nsw i64 %.01, 1
  %54 = mul nsw i64 2, %53
  %55 = sub nsw i64 %54, 1
  %56 = call double* @_ZNK9__gnu_cxx17__normal_iteratorIPdSt6vectorIdSaIdEEEplEl(%"class.__gnu_cxx::__normal_iterator"* %5, i64 %55) #3
  %57 = getelementptr inbounds %"class.__gnu_cxx::__normal_iterator", %"class.__gnu_cxx::__normal_iterator"* %12, i32 0, i32 0
  store double* %56, double** %57, align 8
  %58 = call dereferenceable(8) double* @_ZNK9__gnu_cxx17__normal_iteratorIPdSt6vectorIdSaIdEEEdeEv(%"class.__gnu_cxx::__normal_iterator"* %12) #3
  %59 = call dereferenceable(8) double* @_ZSt4moveIRdEONSt16remove_referenceIT_E4typeEOS2_(double* dereferenceable(8) %58) #3
  %60 = load double, double* %59, align 8
  %61 = call double* @_ZNK9__gnu_cxx17__normal_iteratorIPdSt6vectorIdSaIdEEEplEl(%"class.__gnu_cxx::__normal_iterator"* %5, i64 %.0) #3
  %62 = getelementptr inbounds %"class.__gnu_cxx::__normal_iterator", %"class.__gnu_cxx::__normal_iterator"* %13, i32 0, i32 0
  store double* %61, double** %62, align 8
  %63 = call dereferenceable(8) double* @_ZNK9__gnu_cxx17__normal_iteratorIPdSt6vectorIdSaIdEEEdeEv(%"class.__gnu_cxx::__normal_iterator"* %13) #3
  store double %60, double* %63, align 8
  %64 = sub nsw i64 %54, 1
  br label %65

65:                                               ; preds = %52, %48, %45
  %.1 = phi i64 [ %64, %52 ], [ %.0, %48 ], [ %.0, %45 ]
  %66 = call dereferenceable(1) %"struct.__gnu_cxx::__ops::_Iter_less_iter"* @_ZSt4moveIRN9__gnu_cxx5__ops15_Iter_less_iterEEONSt16remove_referenceIT_E4typeEOS5_(%"struct.__gnu_cxx::__ops::_Iter_less_iter"* dereferenceable(1) %6) #3
  call void @_ZN9__gnu_cxx5__ops14_Iter_less_valC2ENS0_15_Iter_less_iterE(%"struct.__gnu_cxx::__ops::_Iter_less_val"* %14)
  %67 = bitcast %"class.__gnu_cxx::__normal_iterator"* %15 to i8*
  %68 = bitcast %"class.__gnu_cxx::__normal_iterator"* %5 to i8*
  call void @llvm.memcpy.p0i8.p0i8.i64(i8* align 8 %67, i8* align 8 %68, i64 8, i1 false)
  %69 = call dereferenceable(8) double* @_ZSt4moveIRdEONSt16remove_referenceIT_E4typeEOS2_(double* dereferenceable(8) %7) #3
  %70 = load double, double* %69, align 8
  %71 = getelementptr inbounds %"class.__gnu_cxx::__normal_iterator", %"class.__gnu_cxx::__normal_iterator"* %15, i32 0, i32 0
  %72 = load double*, double** %71, align 8
  call void @_ZSt11__push_heapIN9__gnu_cxx17__normal_iteratorIPdSt6vectorIdSaIdEEEEldNS0_5__ops14_Iter_less_valEEvT_T0_SA_T1_RT2_(double* %72, i64 %.1, i64 %1, double %70, %"struct.__gnu_cxx::__ops::_Iter_less_val"* dereferenceable(1) %14)
  ret void
}

; Function Attrs: noinline nounwind uwtable
define linkonce_odr dereferenceable(1) %"struct.__gnu_cxx::__ops::_Iter_less_iter"* @_ZSt4moveIRN9__gnu_cxx5__ops15_Iter_less_iterEEONSt16remove_referenceIT_E4typeEOS5_(%"struct.__gnu_cxx::__ops::_Iter_less_iter"* dereferenceable(1) %0) #4 comdat {
  ret %"struct.__gnu_cxx::__ops::_Iter_less_iter"* %0
}

; Function Attrs: noinline nounwind uwtable
define linkonce_odr void @_ZN9__gnu_cxx5__ops14_Iter_less_valC2ENS0_15_Iter_less_iterE(%"struct.__gnu_cxx::__ops::_Iter_less_val"* %0) unnamed_addr #4 comdat align 2 {
  ret void
}

; Function Attrs: noinline uwtable
define linkonce_odr void @_ZSt11__push_heapIN9__gnu_cxx17__normal_iteratorIPdSt6vectorIdSaIdEEEEldNS0_5__ops14_Iter_less_valEEvT_T0_SA_T1_RT2_(double* %0, i64 %1, i64 %2, double %3, %"struct.__gnu_cxx::__ops::_Iter_less_val"* dereferenceable(1) %4) #0 comdat {
  %6 = alloca %"class.__gnu_cxx::__normal_iterator", align 8
  %7 = alloca double, align 8
  %8 = alloca %"class.__gnu_cxx::__normal_iterator", align 8
  %9 = alloca %"class.__gnu_cxx::__normal_iterator", align 8
  %10 = alloca %"class.__gnu_cxx::__normal_iterator", align 8
  %11 = alloca %"class.__gnu_cxx::__normal_iterator", align 8
  %12 = getelementptr inbounds %"class.__gnu_cxx::__normal_iterator", %"class.__gnu_cxx::__normal_iterator"* %6, i32 0, i32 0
  store double* %0, double** %12, align 8
  store double %3, double* %7, align 8
  %13 = sub nsw i64 %1, 1
  %14 = sdiv i64 %13, 2
  br label %15

15:                                               ; preds = %25, %5
  %.01 = phi i64 [ %14, %5 ], [ %35, %25 ]
  %.0 = phi i64 [ %1, %5 ], [ %.01, %25 ]
  %16 = icmp sgt i64 %.0, %2
  br i1 %16, label %17, label %23

17:                                               ; preds = %15
  %18 = call double* @_ZNK9__gnu_cxx17__normal_iteratorIPdSt6vectorIdSaIdEEEplEl(%"class.__gnu_cxx::__normal_iterator"* %6, i64 %.01) #3
  %19 = getelementptr inbounds %"class.__gnu_cxx::__normal_iterator", %"class.__gnu_cxx::__normal_iterator"* %8, i32 0, i32 0
  store double* %18, double** %19, align 8
  %20 = getelementptr inbounds %"class.__gnu_cxx::__normal_iterator", %"class.__gnu_cxx::__normal_iterator"* %8, i32 0, i32 0
  %21 = load double*, double** %20, align 8
  %22 = call zeroext i1 @_ZNK9__gnu_cxx5__ops14_Iter_less_valclINS_17__normal_iteratorIPdSt6vectorIdSaIdEEEEdEEbT_RT0_(%"struct.__gnu_cxx::__ops::_Iter_less_val"* %4, double* %21, double* dereferenceable(8) %7)
  br label %23

23:                                               ; preds = %17, %15
  %24 = phi i1 [ false, %15 ], [ %22, %17 ]
  br i1 %24, label %25, label %36

25:                                               ; preds = %23
  %26 = call double* @_ZNK9__gnu_cxx17__normal_iteratorIPdSt6vectorIdSaIdEEEplEl(%"class.__gnu_cxx::__normal_iterator"* %6, i64 %.01) #3
  %27 = getelementptr inbounds %"class.__gnu_cxx::__normal_iterator", %"class.__gnu_cxx::__normal_iterator"* %9, i32 0, i32 0
  store double* %26, double** %27, align 8
  %28 = call dereferenceable(8) double* @_ZNK9__gnu_cxx17__normal_iteratorIPdSt6vectorIdSaIdEEEdeEv(%"class.__gnu_cxx::__normal_iterator"* %9) #3
  %29 = call dereferenceable(8) double* @_ZSt4moveIRdEONSt16remove_referenceIT_E4typeEOS2_(double* dereferenceable(8) %28) #3
  %30 = load double, double* %29, align 8
  %31 = call double* @_ZNK9__gnu_cxx17__normal_iteratorIPdSt6vectorIdSaIdEEEplEl(%"class.__gnu_cxx::__normal_iterator"* %6, i64 %.0) #3
  %32 = getelementptr inbounds %"class.__gnu_cxx::__normal_iterator", %"class.__gnu_cxx::__normal_iterator"* %10, i32 0, i32 0
  store double* %31, double** %32, align 8
  %33 = call dereferenceable(8) double* @_ZNK9__gnu_cxx17__normal_iteratorIPdSt6vectorIdSaIdEEEdeEv(%"class.__gnu_cxx::__normal_iterator"* %10) #3
  store double %30, double* %33, align 8
  %34 = sub nsw i64 %.01, 1
  %35 = sdiv i64 %34, 2
  br label %15

36:                                               ; preds = %23
  %37 = call dereferenceable(8) double* @_ZSt4moveIRdEONSt16remove_referenceIT_E4typeEOS2_(double* dereferenceable(8) %7) #3
  %38 = load double, double* %37, align 8
  %39 = call double* @_ZNK9__gnu_cxx17__normal_iteratorIPdSt6vectorIdSaIdEEEplEl(%"class.__gnu_cxx::__normal_iterator"* %6, i64 %.0) #3
  %40 = getelementptr inbounds %"class.__gnu_cxx::__normal_iterator", %"class.__gnu_cxx::__normal_iterator"* %11, i32 0, i32 0
  store double* %39, double** %40, align 8
  %41 = call dereferenceable(8) double* @_ZNK9__gnu_cxx17__normal_iteratorIPdSt6vectorIdSaIdEEEdeEv(%"class.__gnu_cxx::__normal_iterator"* %11) #3
  store double %38, double* %41, align 8
  ret void
}

; Function Attrs: noinline nounwind uwtable
define linkonce_odr zeroext i1 @_ZNK9__gnu_cxx5__ops14_Iter_less_valclINS_17__normal_iteratorIPdSt6vectorIdSaIdEEEEdEEbT_RT0_(%"struct.__gnu_cxx::__ops::_Iter_less_val"* %0, double* %1, double* dereferenceable(8) %2) #4 comdat align 2 {
  %4 = alloca %"class.__gnu_cxx::__normal_iterator", align 8
  %5 = getelementptr inbounds %"class.__gnu_cxx::__normal_iterator", %"class.__gnu_cxx::__normal_iterator"* %4, i32 0, i32 0
  store double* %1, double** %5, align 8
  %6 = call dereferenceable(8) double* @_ZNK9__gnu_cxx17__normal_iteratorIPdSt6vectorIdSaIdEEEdeEv(%"class.__gnu_cxx::__normal_iterator"* %4) #3
  %7 = load double, double* %6, align 8
  %8 = load double, double* %2, align 8
  %9 = fcmp olt double %7, %8
  ret i1 %9
}

; Function Attrs: noinline nounwind uwtable
define linkonce_odr dereferenceable(8) %"class.__gnu_cxx::__normal_iterator"* @_ZN9__gnu_cxx17__normal_iteratorIPdSt6vectorIdSaIdEEEmmEv(%"class.__gnu_cxx::__normal_iterator"* %0) #4 comdat align 2 {
  %2 = getelementptr inbounds %"class.__gnu_cxx::__normal_iterator", %"class.__gnu_cxx::__normal_iterator"* %0, i32 0, i32 0
  %3 = load double*, double** %2, align 8
  %4 = getelementptr inbounds double, double* %3, i32 -1
  store double* %4, double** %2, align 8
  ret %"class.__gnu_cxx::__normal_iterator"* %0
}

; Function Attrs: noinline uwtable
define linkonce_odr void @_ZSt22__move_median_to_firstIN9__gnu_cxx17__normal_iteratorIPdSt6vectorIdSaIdEEEENS0_5__ops15_Iter_less_iterEEvT_S9_S9_S9_T0_(double* %0, double* %1, double* %2, double* %3) #0 comdat {
  %5 = alloca %"class.__gnu_cxx::__normal_iterator", align 8
  %6 = alloca %"class.__gnu_cxx::__normal_iterator", align 8
  %7 = alloca %"class.__gnu_cxx::__normal_iterator", align 8
  %8 = alloca %"class.__gnu_cxx::__normal_iterator", align 8
  %9 = alloca %"struct.__gnu_cxx::__ops::_Iter_less_iter", align 1
  %10 = alloca %"class.__gnu_cxx::__normal_iterator", align 8
  %11 = alloca %"class.__gnu_cxx::__normal_iterator", align 8
  %12 = alloca %"class.__gnu_cxx::__normal_iterator", align 8
  %13 = alloca %"class.__gnu_cxx::__normal_iterator", align 8
  %14 = alloca %"class.__gnu_cxx::__normal_iterator", align 8
  %15 = alloca %"class.__gnu_cxx::__normal_iterator", align 8
  %16 = alloca %"class.__gnu_cxx::__normal_iterator", align 8
  %17 = alloca %"class.__gnu_cxx::__normal_iterator", align 8
  %18 = alloca %"class.__gnu_cxx::__normal_iterator", align 8
  %19 = alloca %"class.__gnu_cxx::__normal_iterator", align 8
  %20 = alloca %"class.__gnu_cxx::__normal_iterator", align 8
  %21 = alloca %"class.__gnu_cxx::__normal_iterator", align 8
  %22 = alloca %"class.__gnu_cxx::__normal_iterator", align 8
  %23 = alloca %"class.__gnu_cxx::__normal_iterator", align 8
  %24 = alloca %"class.__gnu_cxx::__normal_iterator", align 8
  %25 = alloca %"class.__gnu_cxx::__normal_iterator", align 8
  %26 = alloca %"class.__gnu_cxx::__normal_iterator", align 8
  %27 = alloca %"class.__gnu_cxx::__normal_iterator", align 8
  %28 = alloca %"class.__gnu_cxx::__normal_iterator", align 8
  %29 = alloca %"class.__gnu_cxx::__normal_iterator", align 8
  %30 = alloca %"class.__gnu_cxx::__normal_iterator", align 8
  %31 = alloca %"class.__gnu_cxx::__normal_iterator", align 8
  %32 = getelementptr inbounds %"class.__gnu_cxx::__normal_iterator", %"class.__gnu_cxx::__normal_iterator"* %5, i32 0, i32 0
  store double* %0, double** %32, align 8
  %33 = getelementptr inbounds %"class.__gnu_cxx::__normal_iterator", %"class.__gnu_cxx::__normal_iterator"* %6, i32 0, i32 0
  store double* %1, double** %33, align 8
  %34 = getelementptr inbounds %"class.__gnu_cxx::__normal_iterator", %"class.__gnu_cxx::__normal_iterator"* %7, i32 0, i32 0
  store double* %2, double** %34, align 8
  %35 = getelementptr inbounds %"class.__gnu_cxx::__normal_iterator", %"class.__gnu_cxx::__normal_iterator"* %8, i32 0, i32 0
  store double* %3, double** %35, align 8
  %36 = bitcast %"class.__gnu_cxx::__normal_iterator"* %10 to i8*
  %37 = bitcast %"class.__gnu_cxx::__normal_iterator"* %6 to i8*
  call void @llvm.memcpy.p0i8.p0i8.i64(i8* align 8 %36, i8* align 8 %37, i64 8, i1 false)
  %38 = bitcast %"class.__gnu_cxx::__normal_iterator"* %11 to i8*
  %39 = bitcast %"class.__gnu_cxx::__normal_iterator"* %7 to i8*
  call void @llvm.memcpy.p0i8.p0i8.i64(i8* align 8 %38, i8* align 8 %39, i64 8, i1 false)
  %40 = getelementptr inbounds %"class.__gnu_cxx::__normal_iterator", %"class.__gnu_cxx::__normal_iterator"* %10, i32 0, i32 0
  %41 = load double*, double** %40, align 8
  %42 = getelementptr inbounds %"class.__gnu_cxx::__normal_iterator", %"class.__gnu_cxx::__normal_iterator"* %11, i32 0, i32 0
  %43 = load double*, double** %42, align 8
  %44 = call zeroext i1 @_ZNK9__gnu_cxx5__ops15_Iter_less_iterclINS_17__normal_iteratorIPdSt6vectorIdSaIdEEEES8_EEbT_T0_(%"struct.__gnu_cxx::__ops::_Iter_less_iter"* %9, double* %41, double* %43)
  br i1 %44, label %45, label %94

45:                                               ; preds = %4
  %46 = bitcast %"class.__gnu_cxx::__normal_iterator"* %12 to i8*
  %47 = bitcast %"class.__gnu_cxx::__normal_iterator"* %7 to i8*
  call void @llvm.memcpy.p0i8.p0i8.i64(i8* align 8 %46, i8* align 8 %47, i64 8, i1 false)
  %48 = bitcast %"class.__gnu_cxx::__normal_iterator"* %13 to i8*
  %49 = bitcast %"class.__gnu_cxx::__normal_iterator"* %8 to i8*
  call void @llvm.memcpy.p0i8.p0i8.i64(i8* align 8 %48, i8* align 8 %49, i64 8, i1 false)
  %50 = getelementptr inbounds %"class.__gnu_cxx::__normal_iterator", %"class.__gnu_cxx::__normal_iterator"* %12, i32 0, i32 0
  %51 = load double*, double** %50, align 8
  %52 = getelementptr inbounds %"class.__gnu_cxx::__normal_iterator", %"class.__gnu_cxx::__normal_iterator"* %13, i32 0, i32 0
  %53 = load double*, double** %52, align 8
  %54 = call zeroext i1 @_ZNK9__gnu_cxx5__ops15_Iter_less_iterclINS_17__normal_iteratorIPdSt6vectorIdSaIdEEEES8_EEbT_T0_(%"struct.__gnu_cxx::__ops::_Iter_less_iter"* %9, double* %51, double* %53)
  br i1 %54, label %55, label %64

55:                                               ; preds = %45
  %56 = bitcast %"class.__gnu_cxx::__normal_iterator"* %14 to i8*
  %57 = bitcast %"class.__gnu_cxx::__normal_iterator"* %5 to i8*
  call void @llvm.memcpy.p0i8.p0i8.i64(i8* align 8 %56, i8* align 8 %57, i64 8, i1 false)
  %58 = bitcast %"class.__gnu_cxx::__normal_iterator"* %15 to i8*
  %59 = bitcast %"class.__gnu_cxx::__normal_iterator"* %7 to i8*
  call void @llvm.memcpy.p0i8.p0i8.i64(i8* align 8 %58, i8* align 8 %59, i64 8, i1 false)
  %60 = getelementptr inbounds %"class.__gnu_cxx::__normal_iterator", %"class.__gnu_cxx::__normal_iterator"* %14, i32 0, i32 0
  %61 = load double*, double** %60, align 8
  %62 = getelementptr inbounds %"class.__gnu_cxx::__normal_iterator", %"class.__gnu_cxx::__normal_iterator"* %15, i32 0, i32 0
  %63 = load double*, double** %62, align 8
  call void @_ZSt9iter_swapIN9__gnu_cxx17__normal_iteratorIPdSt6vectorIdSaIdEEEES6_EvT_T0_(double* %61, double* %63)
  br label %93

64:                                               ; preds = %45
  %65 = bitcast %"class.__gnu_cxx::__normal_iterator"* %16 to i8*
  %66 = bitcast %"class.__gnu_cxx::__normal_iterator"* %6 to i8*
  call void @llvm.memcpy.p0i8.p0i8.i64(i8* align 8 %65, i8* align 8 %66, i64 8, i1 false)
  %67 = bitcast %"class.__gnu_cxx::__normal_iterator"* %17 to i8*
  %68 = bitcast %"class.__gnu_cxx::__normal_iterator"* %8 to i8*
  call void @llvm.memcpy.p0i8.p0i8.i64(i8* align 8 %67, i8* align 8 %68, i64 8, i1 false)
  %69 = getelementptr inbounds %"class.__gnu_cxx::__normal_iterator", %"class.__gnu_cxx::__normal_iterator"* %16, i32 0, i32 0
  %70 = load double*, double** %69, align 8
  %71 = getelementptr inbounds %"class.__gnu_cxx::__normal_iterator", %"class.__gnu_cxx::__normal_iterator"* %17, i32 0, i32 0
  %72 = load double*, double** %71, align 8
  %73 = call zeroext i1 @_ZNK9__gnu_cxx5__ops15_Iter_less_iterclINS_17__normal_iteratorIPdSt6vectorIdSaIdEEEES8_EEbT_T0_(%"struct.__gnu_cxx::__ops::_Iter_less_iter"* %9, double* %70, double* %72)
  br i1 %73, label %74, label %83

74:                                               ; preds = %64
  %75 = bitcast %"class.__gnu_cxx::__normal_iterator"* %18 to i8*
  %76 = bitcast %"class.__gnu_cxx::__normal_iterator"* %5 to i8*
  call void @llvm.memcpy.p0i8.p0i8.i64(i8* align 8 %75, i8* align 8 %76, i64 8, i1 false)
  %77 = bitcast %"class.__gnu_cxx::__normal_iterator"* %19 to i8*
  %78 = bitcast %"class.__gnu_cxx::__normal_iterator"* %8 to i8*
  call void @llvm.memcpy.p0i8.p0i8.i64(i8* align 8 %77, i8* align 8 %78, i64 8, i1 false)
  %79 = getelementptr inbounds %"class.__gnu_cxx::__normal_iterator", %"class.__gnu_cxx::__normal_iterator"* %18, i32 0, i32 0
  %80 = load double*, double** %79, align 8
  %81 = getelementptr inbounds %"class.__gnu_cxx::__normal_iterator", %"class.__gnu_cxx::__normal_iterator"* %19, i32 0, i32 0
  %82 = load double*, double** %81, align 8
  call void @_ZSt9iter_swapIN9__gnu_cxx17__normal_iteratorIPdSt6vectorIdSaIdEEEES6_EvT_T0_(double* %80, double* %82)
  br label %92

83:                                               ; preds = %64
  %84 = bitcast %"class.__gnu_cxx::__normal_iterator"* %20 to i8*
  %85 = bitcast %"class.__gnu_cxx::__normal_iterator"* %5 to i8*
  call void @llvm.memcpy.p0i8.p0i8.i64(i8* align 8 %84, i8* align 8 %85, i64 8, i1 false)
  %86 = bitcast %"class.__gnu_cxx::__normal_iterator"* %21 to i8*
  %87 = bitcast %"class.__gnu_cxx::__normal_iterator"* %6 to i8*
  call void @llvm.memcpy.p0i8.p0i8.i64(i8* align 8 %86, i8* align 8 %87, i64 8, i1 false)
  %88 = getelementptr inbounds %"class.__gnu_cxx::__normal_iterator", %"class.__gnu_cxx::__normal_iterator"* %20, i32 0, i32 0
  %89 = load double*, double** %88, align 8
  %90 = getelementptr inbounds %"class.__gnu_cxx::__normal_iterator", %"class.__gnu_cxx::__normal_iterator"* %21, i32 0, i32 0
  %91 = load double*, double** %90, align 8
  call void @_ZSt9iter_swapIN9__gnu_cxx17__normal_iteratorIPdSt6vectorIdSaIdEEEES6_EvT_T0_(double* %89, double* %91)
  br label %92

92:                                               ; preds = %83, %74
  br label %93

93:                                               ; preds = %92, %55
  br label %143

94:                                               ; preds = %4
  %95 = bitcast %"class.__gnu_cxx::__normal_iterator"* %22 to i8*
  %96 = bitcast %"class.__gnu_cxx::__normal_iterator"* %6 to i8*
  call void @llvm.memcpy.p0i8.p0i8.i64(i8* align 8 %95, i8* align 8 %96, i64 8, i1 false)
  %97 = bitcast %"class.__gnu_cxx::__normal_iterator"* %23 to i8*
  %98 = bitcast %"class.__gnu_cxx::__normal_iterator"* %8 to i8*
  call void @llvm.memcpy.p0i8.p0i8.i64(i8* align 8 %97, i8* align 8 %98, i64 8, i1 false)
  %99 = getelementptr inbounds %"class.__gnu_cxx::__normal_iterator", %"class.__gnu_cxx::__normal_iterator"* %22, i32 0, i32 0
  %100 = load double*, double** %99, align 8
  %101 = getelementptr inbounds %"class.__gnu_cxx::__normal_iterator", %"class.__gnu_cxx::__normal_iterator"* %23, i32 0, i32 0
  %102 = load double*, double** %101, align 8
  %103 = call zeroext i1 @_ZNK9__gnu_cxx5__ops15_Iter_less_iterclINS_17__normal_iteratorIPdSt6vectorIdSaIdEEEES8_EEbT_T0_(%"struct.__gnu_cxx::__ops::_Iter_less_iter"* %9, double* %100, double* %102)
  br i1 %103, label %104, label %113

104:                                              ; preds = %94
  %105 = bitcast %"class.__gnu_cxx::__normal_iterator"* %24 to i8*
  %106 = bitcast %"class.__gnu_cxx::__normal_iterator"* %5 to i8*
  call void @llvm.memcpy.p0i8.p0i8.i64(i8* align 8 %105, i8* align 8 %106, i64 8, i1 false)
  %107 = bitcast %"class.__gnu_cxx::__normal_iterator"* %25 to i8*
  %108 = bitcast %"class.__gnu_cxx::__normal_iterator"* %6 to i8*
  call void @llvm.memcpy.p0i8.p0i8.i64(i8* align 8 %107, i8* align 8 %108, i64 8, i1 false)
  %109 = getelementptr inbounds %"class.__gnu_cxx::__normal_iterator", %"class.__gnu_cxx::__normal_iterator"* %24, i32 0, i32 0
  %110 = load double*, double** %109, align 8
  %111 = getelementptr inbounds %"class.__gnu_cxx::__normal_iterator", %"class.__gnu_cxx::__normal_iterator"* %25, i32 0, i32 0
  %112 = load double*, double** %111, align 8
  call void @_ZSt9iter_swapIN9__gnu_cxx17__normal_iteratorIPdSt6vectorIdSaIdEEEES6_EvT_T0_(double* %110, double* %112)
  br label %142

113:                                              ; preds = %94
  %114 = bitcast %"class.__gnu_cxx::__normal_iterator"* %26 to i8*
  %115 = bitcast %"class.__gnu_cxx::__normal_iterator"* %7 to i8*
  call void @llvm.memcpy.p0i8.p0i8.i64(i8* align 8 %114, i8* align 8 %115, i64 8, i1 false)
  %116 = bitcast %"class.__gnu_cxx::__normal_iterator"* %27 to i8*
  %117 = bitcast %"class.__gnu_cxx::__normal_iterator"* %8 to i8*
  call void @llvm.memcpy.p0i8.p0i8.i64(i8* align 8 %116, i8* align 8 %117, i64 8, i1 false)
  %118 = getelementptr inbounds %"class.__gnu_cxx::__normal_iterator", %"class.__gnu_cxx::__normal_iterator"* %26, i32 0, i32 0
  %119 = load double*, double** %118, align 8
  %120 = getelementptr inbounds %"class.__gnu_cxx::__normal_iterator", %"class.__gnu_cxx::__normal_iterator"* %27, i32 0, i32 0
  %121 = load double*, double** %120, align 8
  %122 = call zeroext i1 @_ZNK9__gnu_cxx5__ops15_Iter_less_iterclINS_17__normal_iteratorIPdSt6vectorIdSaIdEEEES8_EEbT_T0_(%"struct.__gnu_cxx::__ops::_Iter_less_iter"* %9, double* %119, double* %121)
  br i1 %122, label %123, label %132

123:                                              ; preds = %113
  %124 = bitcast %"class.__gnu_cxx::__normal_iterator"* %28 to i8*
  %125 = bitcast %"class.__gnu_cxx::__normal_iterator"* %5 to i8*
  call void @llvm.memcpy.p0i8.p0i8.i64(i8* align 8 %124, i8* align 8 %125, i64 8, i1 false)
  %126 = bitcast %"class.__gnu_cxx::__normal_iterator"* %29 to i8*
  %127 = bitcast %"class.__gnu_cxx::__normal_iterator"* %8 to i8*
  call void @llvm.memcpy.p0i8.p0i8.i64(i8* align 8 %126, i8* align 8 %127, i64 8, i1 false)
  %128 = getelementptr inbounds %"class.__gnu_cxx::__normal_iterator", %"class.__gnu_cxx::__normal_iterator"* %28, i32 0, i32 0
  %129 = load double*, double** %128, align 8
  %130 = getelementptr inbounds %"class.__gnu_cxx::__normal_iterator", %"class.__gnu_cxx::__normal_iterator"* %29, i32 0, i32 0
  %131 = load double*, double** %130, align 8
  call void @_ZSt9iter_swapIN9__gnu_cxx17__normal_iteratorIPdSt6vectorIdSaIdEEEES6_EvT_T0_(double* %129, double* %131)
  br label %141

132:                                              ; preds = %113
  %133 = bitcast %"class.__gnu_cxx::__normal_iterator"* %30 to i8*
  %134 = bitcast %"class.__gnu_cxx::__normal_iterator"* %5 to i8*
  call void @llvm.memcpy.p0i8.p0i8.i64(i8* align 8 %133, i8* align 8 %134, i64 8, i1 false)
  %135 = bitcast %"class.__gnu_cxx::__normal_iterator"* %31 to i8*
  %136 = bitcast %"class.__gnu_cxx::__normal_iterator"* %7 to i8*
  call void @llvm.memcpy.p0i8.p0i8.i64(i8* align 8 %135, i8* align 8 %136, i64 8, i1 false)
  %137 = getelementptr inbounds %"class.__gnu_cxx::__normal_iterator", %"class.__gnu_cxx::__normal_iterator"* %30, i32 0, i32 0
  %138 = load double*, double** %137, align 8
  %139 = getelementptr inbounds %"class.__gnu_cxx::__normal_iterator", %"class.__gnu_cxx::__normal_iterator"* %31, i32 0, i32 0
  %140 = load double*, double** %139, align 8
  call void @_ZSt9iter_swapIN9__gnu_cxx17__normal_iteratorIPdSt6vectorIdSaIdEEEES6_EvT_T0_(double* %138, double* %140)
  br label %141

141:                                              ; preds = %132, %123
  br label %142

142:                                              ; preds = %141, %104
  br label %143

143:                                              ; preds = %142, %93
  ret void
}

; Function Attrs: noinline nounwind uwtable
define linkonce_odr double* @_ZNK9__gnu_cxx17__normal_iteratorIPdSt6vectorIdSaIdEEEmiEl(%"class.__gnu_cxx::__normal_iterator"* %0, i64 %1) #4 comdat align 2 {
  %3 = alloca %"class.__gnu_cxx::__normal_iterator", align 8
  %4 = alloca double*, align 8
  %5 = getelementptr inbounds %"class.__gnu_cxx::__normal_iterator", %"class.__gnu_cxx::__normal_iterator"* %0, i32 0, i32 0
  %6 = load double*, double** %5, align 8
  %7 = sub i64 0, %1
  %8 = getelementptr inbounds double, double* %6, i64 %7
  store double* %8, double** %4, align 8
  call void @_ZN9__gnu_cxx17__normal_iteratorIPdSt6vectorIdSaIdEEEC2ERKS1_(%"class.__gnu_cxx::__normal_iterator"* %3, double** dereferenceable(8) %4) #3
  %9 = getelementptr inbounds %"class.__gnu_cxx::__normal_iterator", %"class.__gnu_cxx::__normal_iterator"* %3, i32 0, i32 0
  %10 = load double*, double** %9, align 8
  ret double* %10
}

; Function Attrs: noinline nounwind uwtable
define linkonce_odr double* @_ZSt21__unguarded_partitionIN9__gnu_cxx17__normal_iteratorIPdSt6vectorIdSaIdEEEENS0_5__ops15_Iter_less_iterEET_S9_S9_S9_T0_(double* %0, double* %1, double* %2) #4 comdat {
  %4 = alloca %"class.__gnu_cxx::__normal_iterator", align 8
  %5 = alloca %"class.__gnu_cxx::__normal_iterator", align 8
  %6 = alloca %"class.__gnu_cxx::__normal_iterator", align 8
  %7 = alloca %"class.__gnu_cxx::__normal_iterator", align 8
  %8 = alloca %"struct.__gnu_cxx::__ops::_Iter_less_iter", align 1
  %9 = alloca %"class.__gnu_cxx::__normal_iterator", align 8
  %10 = alloca %"class.__gnu_cxx::__normal_iterator", align 8
  %11 = alloca %"class.__gnu_cxx::__normal_iterator", align 8
  %12 = alloca %"class.__gnu_cxx::__normal_iterator", align 8
  %13 = alloca %"class.__gnu_cxx::__normal_iterator", align 8
  %14 = alloca %"class.__gnu_cxx::__normal_iterator", align 8
  %15 = getelementptr inbounds %"class.__gnu_cxx::__normal_iterator", %"class.__gnu_cxx::__normal_iterator"* %5, i32 0, i32 0
  store double* %0, double** %15, align 8
  %16 = getelementptr inbounds %"class.__gnu_cxx::__normal_iterator", %"class.__gnu_cxx::__normal_iterator"* %6, i32 0, i32 0
  store double* %1, double** %16, align 8
  %17 = getelementptr inbounds %"class.__gnu_cxx::__normal_iterator", %"class.__gnu_cxx::__normal_iterator"* %7, i32 0, i32 0
  store double* %2, double** %17, align 8
  br label %18

18:                                               ; preds = %52, %3
  br label %19

19:                                               ; preds = %29, %18
  %20 = bitcast %"class.__gnu_cxx::__normal_iterator"* %9 to i8*
  %21 = bitcast %"class.__gnu_cxx::__normal_iterator"* %5 to i8*
  call void @llvm.memcpy.p0i8.p0i8.i64(i8* align 8 %20, i8* align 8 %21, i64 8, i1 false)
  %22 = bitcast %"class.__gnu_cxx::__normal_iterator"* %10 to i8*
  %23 = bitcast %"class.__gnu_cxx::__normal_iterator"* %7 to i8*
  call void @llvm.memcpy.p0i8.p0i8.i64(i8* align 8 %22, i8* align 8 %23, i64 8, i1 false)
  %24 = getelementptr inbounds %"class.__gnu_cxx::__normal_iterator", %"class.__gnu_cxx::__normal_iterator"* %9, i32 0, i32 0
  %25 = load double*, double** %24, align 8
  %26 = getelementptr inbounds %"class.__gnu_cxx::__normal_iterator", %"class.__gnu_cxx::__normal_iterator"* %10, i32 0, i32 0
  %27 = load double*, double** %26, align 8
  %28 = call zeroext i1 @_ZNK9__gnu_cxx5__ops15_Iter_less_iterclINS_17__normal_iteratorIPdSt6vectorIdSaIdEEEES8_EEbT_T0_(%"struct.__gnu_cxx::__ops::_Iter_less_iter"* %8, double* %25, double* %27)
  br i1 %28, label %29, label %31

29:                                               ; preds = %19
  %30 = call dereferenceable(8) %"class.__gnu_cxx::__normal_iterator"* @_ZN9__gnu_cxx17__normal_iteratorIPdSt6vectorIdSaIdEEEppEv(%"class.__gnu_cxx::__normal_iterator"* %5) #3
  br label %19

31:                                               ; preds = %19
  %32 = call dereferenceable(8) %"class.__gnu_cxx::__normal_iterator"* @_ZN9__gnu_cxx17__normal_iteratorIPdSt6vectorIdSaIdEEEmmEv(%"class.__gnu_cxx::__normal_iterator"* %6) #3
  br label %33

33:                                               ; preds = %43, %31
  %34 = bitcast %"class.__gnu_cxx::__normal_iterator"* %11 to i8*
  %35 = bitcast %"class.__gnu_cxx::__normal_iterator"* %7 to i8*
  call void @llvm.memcpy.p0i8.p0i8.i64(i8* align 8 %34, i8* align 8 %35, i64 8, i1 false)
  %36 = bitcast %"class.__gnu_cxx::__normal_iterator"* %12 to i8*
  %37 = bitcast %"class.__gnu_cxx::__normal_iterator"* %6 to i8*
  call void @llvm.memcpy.p0i8.p0i8.i64(i8* align 8 %36, i8* align 8 %37, i64 8, i1 false)
  %38 = getelementptr inbounds %"class.__gnu_cxx::__normal_iterator", %"class.__gnu_cxx::__normal_iterator"* %11, i32 0, i32 0
  %39 = load double*, double** %38, align 8
  %40 = getelementptr inbounds %"class.__gnu_cxx::__normal_iterator", %"class.__gnu_cxx::__normal_iterator"* %12, i32 0, i32 0
  %41 = load double*, double** %40, align 8
  %42 = call zeroext i1 @_ZNK9__gnu_cxx5__ops15_Iter_less_iterclINS_17__normal_iteratorIPdSt6vectorIdSaIdEEEES8_EEbT_T0_(%"struct.__gnu_cxx::__ops::_Iter_less_iter"* %8, double* %39, double* %41)
  br i1 %42, label %43, label %45

43:                                               ; preds = %33
  %44 = call dereferenceable(8) %"class.__gnu_cxx::__normal_iterator"* @_ZN9__gnu_cxx17__normal_iteratorIPdSt6vectorIdSaIdEEEmmEv(%"class.__gnu_cxx::__normal_iterator"* %6) #3
  br label %33

45:                                               ; preds = %33
  %46 = call zeroext i1 @_ZN9__gnu_cxxltIPdSt6vectorIdSaIdEEEEbRKNS_17__normal_iteratorIT_T0_EESA_(%"class.__gnu_cxx::__normal_iterator"* dereferenceable(8) %5, %"class.__gnu_cxx::__normal_iterator"* dereferenceable(8) %6) #3
  br i1 %46, label %52, label %47

47:                                               ; preds = %45
  %48 = bitcast %"class.__gnu_cxx::__normal_iterator"* %4 to i8*
  %49 = bitcast %"class.__gnu_cxx::__normal_iterator"* %5 to i8*
  call void @llvm.memcpy.p0i8.p0i8.i64(i8* align 8 %48, i8* align 8 %49, i64 8, i1 false)
  %50 = getelementptr inbounds %"class.__gnu_cxx::__normal_iterator", %"class.__gnu_cxx::__normal_iterator"* %4, i32 0, i32 0
  %51 = load double*, double** %50, align 8
  ret double* %51

52:                                               ; preds = %45
  %53 = bitcast %"class.__gnu_cxx::__normal_iterator"* %13 to i8*
  %54 = bitcast %"class.__gnu_cxx::__normal_iterator"* %5 to i8*
  call void @llvm.memcpy.p0i8.p0i8.i64(i8* align 8 %53, i8* align 8 %54, i64 8, i1 false)
  %55 = bitcast %"class.__gnu_cxx::__normal_iterator"* %14 to i8*
  %56 = bitcast %"class.__gnu_cxx::__normal_iterator"* %6 to i8*
  call void @llvm.memcpy.p0i8.p0i8.i64(i8* align 8 %55, i8* align 8 %56, i64 8, i1 false)
  %57 = getelementptr inbounds %"class.__gnu_cxx::__normal_iterator", %"class.__gnu_cxx::__normal_iterator"* %13, i32 0, i32 0
  %58 = load double*, double** %57, align 8
  %59 = getelementptr inbounds %"class.__gnu_cxx::__normal_iterator", %"class.__gnu_cxx::__normal_iterator"* %14, i32 0, i32 0
  %60 = load double*, double** %59, align 8
  call void @_ZSt9iter_swapIN9__gnu_cxx17__normal_iteratorIPdSt6vectorIdSaIdEEEES6_EvT_T0_(double* %58, double* %60)
  %61 = call dereferenceable(8) %"class.__gnu_cxx::__normal_iterator"* @_ZN9__gnu_cxx17__normal_iteratorIPdSt6vectorIdSaIdEEEppEv(%"class.__gnu_cxx::__normal_iterator"* %5) #3
  br label %18
}

; Function Attrs: noinline nounwind uwtable
define linkonce_odr void @_ZSt9iter_swapIN9__gnu_cxx17__normal_iteratorIPdSt6vectorIdSaIdEEEES6_EvT_T0_(double* %0, double* %1) #4 comdat {
  %3 = alloca %"class.__gnu_cxx::__normal_iterator", align 8
  %4 = alloca %"class.__gnu_cxx::__normal_iterator", align 8
  %5 = getelementptr inbounds %"class.__gnu_cxx::__normal_iterator", %"class.__gnu_cxx::__normal_iterator"* %3, i32 0, i32 0
  store double* %0, double** %5, align 8
  %6 = getelementptr inbounds %"class.__gnu_cxx::__normal_iterator", %"class.__gnu_cxx::__normal_iterator"* %4, i32 0, i32 0
  store double* %1, double** %6, align 8
  %7 = call dereferenceable(8) double* @_ZNK9__gnu_cxx17__normal_iteratorIPdSt6vectorIdSaIdEEEdeEv(%"class.__gnu_cxx::__normal_iterator"* %3) #3
  %8 = call dereferenceable(8) double* @_ZNK9__gnu_cxx17__normal_iteratorIPdSt6vectorIdSaIdEEEdeEv(%"class.__gnu_cxx::__normal_iterator"* %4) #3
  call void @_ZSt4swapIdENSt9enable_ifIXsr6__and_ISt6__not_ISt15__is_tuple_likeIT_EESt21is_move_constructibleIS3_ESt18is_move_assignableIS3_EEE5valueEvE4typeERS3_SC_(double* dereferenceable(8) %7, double* dereferenceable(8) %8) #3
  ret void
}

; Function Attrs: noinline nounwind uwtable
define linkonce_odr void @_ZSt4swapIdENSt9enable_ifIXsr6__and_ISt6__not_ISt15__is_tuple_likeIT_EESt21is_move_constructibleIS3_ESt18is_move_assignableIS3_EEE5valueEvE4typeERS3_SC_(double* dereferenceable(8) %0, double* dereferenceable(8) %1) #4 comdat {
  %3 = alloca double, align 8
  %4 = call dereferenceable(8) double* @_ZSt4moveIRdEONSt16remove_referenceIT_E4typeEOS2_(double* dereferenceable(8) %0) #3
  %5 = load double, double* %4, align 8
  store double %5, double* %3, align 8
  %6 = call dereferenceable(8) double* @_ZSt4moveIRdEONSt16remove_referenceIT_E4typeEOS2_(double* dereferenceable(8) %1) #3
  %7 = load double, double* %6, align 8
  store double %7, double* %0, align 8
  %8 = call dereferenceable(8) double* @_ZSt4moveIRdEONSt16remove_referenceIT_E4typeEOS2_(double* dereferenceable(8) %3) #3
  %9 = load double, double* %8, align 8
  store double %9, double* %1, align 8
  ret void
}

; Function Attrs: nocallback nofree nosync nounwind readnone speculatable willreturn
declare i64 @llvm.ctlz.i64(i64, i1 immarg) #10

; Function Attrs: noinline uwtable
define linkonce_odr void @_ZSt16__insertion_sortIN9__gnu_cxx17__normal_iteratorIPdSt6vectorIdSaIdEEEENS0_5__ops15_Iter_less_iterEEvT_S9_T0_(double* %0, double* %1) #0 comdat {
  %3 = alloca %"class.__gnu_cxx::__normal_iterator", align 8
  %4 = alloca %"class.__gnu_cxx::__normal_iterator", align 8
  %5 = alloca %"struct.__gnu_cxx::__ops::_Iter_less_iter", align 1
  %6 = alloca %"class.__gnu_cxx::__normal_iterator", align 8
  %7 = alloca %"class.__gnu_cxx::__normal_iterator", align 8
  %8 = alloca %"class.__gnu_cxx::__normal_iterator", align 8
  %9 = alloca double, align 8
  %10 = alloca %"class.__gnu_cxx::__normal_iterator", align 8
  %11 = alloca %"class.__gnu_cxx::__normal_iterator", align 8
  %12 = alloca %"class.__gnu_cxx::__normal_iterator", align 8
  %13 = alloca %"class.__gnu_cxx::__normal_iterator", align 8
  %14 = alloca %"class.__gnu_cxx::__normal_iterator", align 8
  %15 = getelementptr inbounds %"class.__gnu_cxx::__normal_iterator", %"class.__gnu_cxx::__normal_iterator"* %3, i32 0, i32 0
  store double* %0, double** %15, align 8
  %16 = getelementptr inbounds %"class.__gnu_cxx::__normal_iterator", %"class.__gnu_cxx::__normal_iterator"* %4, i32 0, i32 0
  store double* %1, double** %16, align 8
  %17 = call zeroext i1 @_ZN9__gnu_cxxeqIPdSt6vectorIdSaIdEEEEbRKNS_17__normal_iteratorIT_T0_EESA_(%"class.__gnu_cxx::__normal_iterator"* dereferenceable(8) %3, %"class.__gnu_cxx::__normal_iterator"* dereferenceable(8) %4) #3
  br i1 %17, label %18, label %19

18:                                               ; preds = %2
  br label %63

19:                                               ; preds = %2
  %20 = call double* @_ZNK9__gnu_cxx17__normal_iteratorIPdSt6vectorIdSaIdEEEplEl(%"class.__gnu_cxx::__normal_iterator"* %3, i64 1) #3
  %21 = getelementptr inbounds %"class.__gnu_cxx::__normal_iterator", %"class.__gnu_cxx::__normal_iterator"* %6, i32 0, i32 0
  store double* %20, double** %21, align 8
  br label %22

22:                                               ; preds = %61, %19
  %23 = call zeroext i1 @_ZN9__gnu_cxxneIPdSt6vectorIdSaIdEEEEbRKNS_17__normal_iteratorIT_T0_EESA_(%"class.__gnu_cxx::__normal_iterator"* dereferenceable(8) %6, %"class.__gnu_cxx::__normal_iterator"* dereferenceable(8) %4) #3
  br i1 %23, label %24, label %63

24:                                               ; preds = %22
  %25 = bitcast %"class.__gnu_cxx::__normal_iterator"* %7 to i8*
  %26 = bitcast %"class.__gnu_cxx::__normal_iterator"* %6 to i8*
  call void @llvm.memcpy.p0i8.p0i8.i64(i8* align 8 %25, i8* align 8 %26, i64 8, i1 false)
  %27 = bitcast %"class.__gnu_cxx::__normal_iterator"* %8 to i8*
  %28 = bitcast %"class.__gnu_cxx::__normal_iterator"* %3 to i8*
  call void @llvm.memcpy.p0i8.p0i8.i64(i8* align 8 %27, i8* align 8 %28, i64 8, i1 false)
  %29 = getelementptr inbounds %"class.__gnu_cxx::__normal_iterator", %"class.__gnu_cxx::__normal_iterator"* %7, i32 0, i32 0
  %30 = load double*, double** %29, align 8
  %31 = getelementptr inbounds %"class.__gnu_cxx::__normal_iterator", %"class.__gnu_cxx::__normal_iterator"* %8, i32 0, i32 0
  %32 = load double*, double** %31, align 8
  %33 = call zeroext i1 @_ZNK9__gnu_cxx5__ops15_Iter_less_iterclINS_17__normal_iteratorIPdSt6vectorIdSaIdEEEES8_EEbT_T0_(%"struct.__gnu_cxx::__ops::_Iter_less_iter"* %5, double* %30, double* %32)
  br i1 %33, label %34, label %55

34:                                               ; preds = %24
  %35 = call dereferenceable(8) double* @_ZNK9__gnu_cxx17__normal_iteratorIPdSt6vectorIdSaIdEEEdeEv(%"class.__gnu_cxx::__normal_iterator"* %6) #3
  %36 = call dereferenceable(8) double* @_ZSt4moveIRdEONSt16remove_referenceIT_E4typeEOS2_(double* dereferenceable(8) %35) #3
  %37 = load double, double* %36, align 8
  store double %37, double* %9, align 8
  %38 = bitcast %"class.__gnu_cxx::__normal_iterator"* %10 to i8*
  %39 = bitcast %"class.__gnu_cxx::__normal_iterator"* %3 to i8*
  call void @llvm.memcpy.p0i8.p0i8.i64(i8* align 8 %38, i8* align 8 %39, i64 8, i1 false)
  %40 = bitcast %"class.__gnu_cxx::__normal_iterator"* %11 to i8*
  %41 = bitcast %"class.__gnu_cxx::__normal_iterator"* %6 to i8*
  call void @llvm.memcpy.p0i8.p0i8.i64(i8* align 8 %40, i8* align 8 %41, i64 8, i1 false)
  %42 = call double* @_ZNK9__gnu_cxx17__normal_iteratorIPdSt6vectorIdSaIdEEEplEl(%"class.__gnu_cxx::__normal_iterator"* %6, i64 1) #3
  %43 = getelementptr inbounds %"class.__gnu_cxx::__normal_iterator", %"class.__gnu_cxx::__normal_iterator"* %12, i32 0, i32 0
  store double* %42, double** %43, align 8
  %44 = getelementptr inbounds %"class.__gnu_cxx::__normal_iterator", %"class.__gnu_cxx::__normal_iterator"* %10, i32 0, i32 0
  %45 = load double*, double** %44, align 8
  %46 = getelementptr inbounds %"class.__gnu_cxx::__normal_iterator", %"class.__gnu_cxx::__normal_iterator"* %11, i32 0, i32 0
  %47 = load double*, double** %46, align 8
  %48 = getelementptr inbounds %"class.__gnu_cxx::__normal_iterator", %"class.__gnu_cxx::__normal_iterator"* %12, i32 0, i32 0
  %49 = load double*, double** %48, align 8
  %50 = call double* @_ZSt13move_backwardIN9__gnu_cxx17__normal_iteratorIPdSt6vectorIdSaIdEEEES6_ET0_T_S8_S7_(double* %45, double* %47, double* %49)
  %51 = getelementptr inbounds %"class.__gnu_cxx::__normal_iterator", %"class.__gnu_cxx::__normal_iterator"* %13, i32 0, i32 0
  store double* %50, double** %51, align 8
  %52 = call dereferenceable(8) double* @_ZSt4moveIRdEONSt16remove_referenceIT_E4typeEOS2_(double* dereferenceable(8) %9) #3
  %53 = load double, double* %52, align 8
  %54 = call dereferenceable(8) double* @_ZNK9__gnu_cxx17__normal_iteratorIPdSt6vectorIdSaIdEEEdeEv(%"class.__gnu_cxx::__normal_iterator"* %3) #3
  store double %53, double* %54, align 8
  br label %60

55:                                               ; preds = %24
  %56 = bitcast %"class.__gnu_cxx::__normal_iterator"* %14 to i8*
  %57 = bitcast %"class.__gnu_cxx::__normal_iterator"* %6 to i8*
  call void @llvm.memcpy.p0i8.p0i8.i64(i8* align 8 %56, i8* align 8 %57, i64 8, i1 false)
  call void @_ZN9__gnu_cxx5__ops15__val_comp_iterENS0_15_Iter_less_iterE()
  %58 = getelementptr inbounds %"class.__gnu_cxx::__normal_iterator", %"class.__gnu_cxx::__normal_iterator"* %14, i32 0, i32 0
  %59 = load double*, double** %58, align 8
  call void @_ZSt25__unguarded_linear_insertIN9__gnu_cxx17__normal_iteratorIPdSt6vectorIdSaIdEEEENS0_5__ops14_Val_less_iterEEvT_T0_(double* %59)
  br label %60

60:                                               ; preds = %55, %34
  br label %61

61:                                               ; preds = %60
  %62 = call dereferenceable(8) %"class.__gnu_cxx::__normal_iterator"* @_ZN9__gnu_cxx17__normal_iteratorIPdSt6vectorIdSaIdEEEppEv(%"class.__gnu_cxx::__normal_iterator"* %6) #3
  br label %22

63:                                               ; preds = %22, %18
  ret void
}

; Function Attrs: noinline uwtable
define linkonce_odr void @_ZSt26__unguarded_insertion_sortIN9__gnu_cxx17__normal_iteratorIPdSt6vectorIdSaIdEEEENS0_5__ops15_Iter_less_iterEEvT_S9_T0_(double* %0, double* %1) #0 comdat {
  %3 = alloca %"class.__gnu_cxx::__normal_iterator", align 8
  %4 = alloca %"class.__gnu_cxx::__normal_iterator", align 8
  %5 = alloca %"class.__gnu_cxx::__normal_iterator", align 8
  %6 = alloca %"class.__gnu_cxx::__normal_iterator", align 8
  %7 = getelementptr inbounds %"class.__gnu_cxx::__normal_iterator", %"class.__gnu_cxx::__normal_iterator"* %3, i32 0, i32 0
  store double* %0, double** %7, align 8
  %8 = getelementptr inbounds %"class.__gnu_cxx::__normal_iterator", %"class.__gnu_cxx::__normal_iterator"* %4, i32 0, i32 0
  store double* %1, double** %8, align 8
  %9 = bitcast %"class.__gnu_cxx::__normal_iterator"* %5 to i8*
  %10 = bitcast %"class.__gnu_cxx::__normal_iterator"* %3 to i8*
  call void @llvm.memcpy.p0i8.p0i8.i64(i8* align 8 %9, i8* align 8 %10, i64 8, i1 false)
  br label %11

11:                                               ; preds = %18, %2
  %12 = call zeroext i1 @_ZN9__gnu_cxxneIPdSt6vectorIdSaIdEEEEbRKNS_17__normal_iteratorIT_T0_EESA_(%"class.__gnu_cxx::__normal_iterator"* dereferenceable(8) %5, %"class.__gnu_cxx::__normal_iterator"* dereferenceable(8) %4) #3
  br i1 %12, label %13, label %20

13:                                               ; preds = %11
  %14 = bitcast %"class.__gnu_cxx::__normal_iterator"* %6 to i8*
  %15 = bitcast %"class.__gnu_cxx::__normal_iterator"* %5 to i8*
  call void @llvm.memcpy.p0i8.p0i8.i64(i8* align 8 %14, i8* align 8 %15, i64 8, i1 false)
  call void @_ZN9__gnu_cxx5__ops15__val_comp_iterENS0_15_Iter_less_iterE()
  %16 = getelementptr inbounds %"class.__gnu_cxx::__normal_iterator", %"class.__gnu_cxx::__normal_iterator"* %6, i32 0, i32 0
  %17 = load double*, double** %16, align 8
  call void @_ZSt25__unguarded_linear_insertIN9__gnu_cxx17__normal_iteratorIPdSt6vectorIdSaIdEEEENS0_5__ops14_Val_less_iterEEvT_T0_(double* %17)
  br label %18

18:                                               ; preds = %13
  %19 = call dereferenceable(8) %"class.__gnu_cxx::__normal_iterator"* @_ZN9__gnu_cxx17__normal_iteratorIPdSt6vectorIdSaIdEEEppEv(%"class.__gnu_cxx::__normal_iterator"* %5) #3
  br label %11

20:                                               ; preds = %11
  ret void
}

; Function Attrs: noinline nounwind uwtable
define linkonce_odr zeroext i1 @_ZN9__gnu_cxxeqIPdSt6vectorIdSaIdEEEEbRKNS_17__normal_iteratorIT_T0_EESA_(%"class.__gnu_cxx::__normal_iterator"* dereferenceable(8) %0, %"class.__gnu_cxx::__normal_iterator"* dereferenceable(8) %1) #4 comdat {
  %3 = call dereferenceable(8) double** @_ZNK9__gnu_cxx17__normal_iteratorIPdSt6vectorIdSaIdEEE4baseEv(%"class.__gnu_cxx::__normal_iterator"* %0) #3
  %4 = load double*, double** %3, align 8
  %5 = call dereferenceable(8) double** @_ZNK9__gnu_cxx17__normal_iteratorIPdSt6vectorIdSaIdEEE4baseEv(%"class.__gnu_cxx::__normal_iterator"* %1) #3
  %6 = load double*, double** %5, align 8
  %7 = icmp eq double* %4, %6
  ret i1 %7
}

; Function Attrs: noinline uwtable
define linkonce_odr double* @_ZSt13move_backwardIN9__gnu_cxx17__normal_iteratorIPdSt6vectorIdSaIdEEEES6_ET0_T_S8_S7_(double* %0, double* %1, double* %2) #0 comdat {
  %4 = alloca %"class.__gnu_cxx::__normal_iterator", align 8
  %5 = alloca %"class.__gnu_cxx::__normal_iterator", align 8
  %6 = alloca %"class.__gnu_cxx::__normal_iterator", align 8
  %7 = alloca %"class.__gnu_cxx::__normal_iterator", align 8
  %8 = alloca %"class.__gnu_cxx::__normal_iterator", align 8
  %9 = alloca %"class.__gnu_cxx::__normal_iterator", align 8
  %10 = alloca %"class.__gnu_cxx::__normal_iterator", align 8
  %11 = alloca %"class.__gnu_cxx::__normal_iterator", align 8
  %12 = alloca %"class.__gnu_cxx::__normal_iterator", align 8
  %13 = getelementptr inbounds %"class.__gnu_cxx::__normal_iterator", %"class.__gnu_cxx::__normal_iterator"* %5, i32 0, i32 0
  store double* %0, double** %13, align 8
  %14 = getelementptr inbounds %"class.__gnu_cxx::__normal_iterator", %"class.__gnu_cxx::__normal_iterator"* %6, i32 0, i32 0
  store double* %1, double** %14, align 8
  %15 = getelementptr inbounds %"class.__gnu_cxx::__normal_iterator", %"class.__gnu_cxx::__normal_iterator"* %7, i32 0, i32 0
  store double* %2, double** %15, align 8
  %16 = bitcast %"class.__gnu_cxx::__normal_iterator"* %9 to i8*
  %17 = bitcast %"class.__gnu_cxx::__normal_iterator"* %5 to i8*
  call void @llvm.memcpy.p0i8.p0i8.i64(i8* align 8 %16, i8* align 8 %17, i64 8, i1 false)
  %18 = getelementptr inbounds %"class.__gnu_cxx::__normal_iterator", %"class.__gnu_cxx::__normal_iterator"* %9, i32 0, i32 0
  %19 = load double*, double** %18, align 8
  %20 = call double* @_ZSt12__miter_baseIN9__gnu_cxx17__normal_iteratorIPdSt6vectorIdSaIdEEEEET_S7_(double* %19)
  %21 = getelementptr inbounds %"class.__gnu_cxx::__normal_iterator", %"class.__gnu_cxx::__normal_iterator"* %8, i32 0, i32 0
  store double* %20, double** %21, align 8
  %22 = bitcast %"class.__gnu_cxx::__normal_iterator"* %11 to i8*
  %23 = bitcast %"class.__gnu_cxx::__normal_iterator"* %6 to i8*
  call void @llvm.memcpy.p0i8.p0i8.i64(i8* align 8 %22, i8* align 8 %23, i64 8, i1 false)
  %24 = getelementptr inbounds %"class.__gnu_cxx::__normal_iterator", %"class.__gnu_cxx::__normal_iterator"* %11, i32 0, i32 0
  %25 = load double*, double** %24, align 8
  %26 = call double* @_ZSt12__miter_baseIN9__gnu_cxx17__normal_iteratorIPdSt6vectorIdSaIdEEEEET_S7_(double* %25)
  %27 = getelementptr inbounds %"class.__gnu_cxx::__normal_iterator", %"class.__gnu_cxx::__normal_iterator"* %10, i32 0, i32 0
  store double* %26, double** %27, align 8
  %28 = bitcast %"class.__gnu_cxx::__normal_iterator"* %12 to i8*
  %29 = bitcast %"class.__gnu_cxx::__normal_iterator"* %7 to i8*
  call void @llvm.memcpy.p0i8.p0i8.i64(i8* align 8 %28, i8* align 8 %29, i64 8, i1 false)
  %30 = getelementptr inbounds %"class.__gnu_cxx::__normal_iterator", %"class.__gnu_cxx::__normal_iterator"* %8, i32 0, i32 0
  %31 = load double*, double** %30, align 8
  %32 = getelementptr inbounds %"class.__gnu_cxx::__normal_iterator", %"class.__gnu_cxx::__normal_iterator"* %10, i32 0, i32 0
  %33 = load double*, double** %32, align 8
  %34 = getelementptr inbounds %"class.__gnu_cxx::__normal_iterator", %"class.__gnu_cxx::__normal_iterator"* %12, i32 0, i32 0
  %35 = load double*, double** %34, align 8
  %36 = call double* @_ZSt23__copy_move_backward_a2ILb1EN9__gnu_cxx17__normal_iteratorIPdSt6vectorIdSaIdEEEES6_ET1_T0_S8_S7_(double* %31, double* %33, double* %35)
  %37 = getelementptr inbounds %"class.__gnu_cxx::__normal_iterator", %"class.__gnu_cxx::__normal_iterator"* %4, i32 0, i32 0
  store double* %36, double** %37, align 8
  %38 = getelementptr inbounds %"class.__gnu_cxx::__normal_iterator", %"class.__gnu_cxx::__normal_iterator"* %4, i32 0, i32 0
  %39 = load double*, double** %38, align 8
  ret double* %39
}

; Function Attrs: noinline uwtable
define linkonce_odr void @_ZSt25__unguarded_linear_insertIN9__gnu_cxx17__normal_iteratorIPdSt6vectorIdSaIdEEEENS0_5__ops14_Val_less_iterEEvT_T0_(double* %0) #0 comdat {
  %2 = alloca %"class.__gnu_cxx::__normal_iterator", align 8
  %3 = alloca %"struct.__gnu_cxx::__ops::_Val_less_iter", align 1
  %4 = alloca double, align 8
  %5 = alloca %"class.__gnu_cxx::__normal_iterator", align 8
  %6 = alloca %"class.__gnu_cxx::__normal_iterator", align 8
  %7 = getelementptr inbounds %"class.__gnu_cxx::__normal_iterator", %"class.__gnu_cxx::__normal_iterator"* %2, i32 0, i32 0
  store double* %0, double** %7, align 8
  %8 = call dereferenceable(8) double* @_ZNK9__gnu_cxx17__normal_iteratorIPdSt6vectorIdSaIdEEEdeEv(%"class.__gnu_cxx::__normal_iterator"* %2) #3
  %9 = call dereferenceable(8) double* @_ZSt4moveIRdEONSt16remove_referenceIT_E4typeEOS2_(double* dereferenceable(8) %8) #3
  %10 = load double, double* %9, align 8
  store double %10, double* %4, align 8
  %11 = bitcast %"class.__gnu_cxx::__normal_iterator"* %5 to i8*
  %12 = bitcast %"class.__gnu_cxx::__normal_iterator"* %2 to i8*
  call void @llvm.memcpy.p0i8.p0i8.i64(i8* align 8 %11, i8* align 8 %12, i64 8, i1 false)
  %13 = call dereferenceable(8) %"class.__gnu_cxx::__normal_iterator"* @_ZN9__gnu_cxx17__normal_iteratorIPdSt6vectorIdSaIdEEEmmEv(%"class.__gnu_cxx::__normal_iterator"* %5) #3
  br label %14

14:                                               ; preds = %20, %1
  %15 = bitcast %"class.__gnu_cxx::__normal_iterator"* %6 to i8*
  %16 = bitcast %"class.__gnu_cxx::__normal_iterator"* %5 to i8*
  call void @llvm.memcpy.p0i8.p0i8.i64(i8* align 8 %15, i8* align 8 %16, i64 8, i1 false)
  %17 = getelementptr inbounds %"class.__gnu_cxx::__normal_iterator", %"class.__gnu_cxx::__normal_iterator"* %6, i32 0, i32 0
  %18 = load double*, double** %17, align 8
  %19 = call zeroext i1 @_ZNK9__gnu_cxx5__ops14_Val_less_iterclIdNS_17__normal_iteratorIPdSt6vectorIdSaIdEEEEEEbRT_T0_(%"struct.__gnu_cxx::__ops::_Val_less_iter"* %3, double* dereferenceable(8) %4, double* %18)
  br i1 %19, label %20, label %28

20:                                               ; preds = %14
  %21 = call dereferenceable(8) double* @_ZNK9__gnu_cxx17__normal_iteratorIPdSt6vectorIdSaIdEEEdeEv(%"class.__gnu_cxx::__normal_iterator"* %5) #3
  %22 = call dereferenceable(8) double* @_ZSt4moveIRdEONSt16remove_referenceIT_E4typeEOS2_(double* dereferenceable(8) %21) #3
  %23 = load double, double* %22, align 8
  %24 = call dereferenceable(8) double* @_ZNK9__gnu_cxx17__normal_iteratorIPdSt6vectorIdSaIdEEEdeEv(%"class.__gnu_cxx::__normal_iterator"* %2) #3
  store double %23, double* %24, align 8
  %25 = bitcast %"class.__gnu_cxx::__normal_iterator"* %2 to i8*
  %26 = bitcast %"class.__gnu_cxx::__normal_iterator"* %5 to i8*
  call void @llvm.memcpy.p0i8.p0i8.i64(i8* align 8 %25, i8* align 8 %26, i64 8, i1 false)
  %27 = call dereferenceable(8) %"class.__gnu_cxx::__normal_iterator"* @_ZN9__gnu_cxx17__normal_iteratorIPdSt6vectorIdSaIdEEEmmEv(%"class.__gnu_cxx::__normal_iterator"* %5) #3
  br label %14

28:                                               ; preds = %14
  %29 = call dereferenceable(8) double* @_ZSt4moveIRdEONSt16remove_referenceIT_E4typeEOS2_(double* dereferenceable(8) %4) #3
  %30 = load double, double* %29, align 8
  %31 = call dereferenceable(8) double* @_ZNK9__gnu_cxx17__normal_iteratorIPdSt6vectorIdSaIdEEEdeEv(%"class.__gnu_cxx::__normal_iterator"* %2) #3
  store double %30, double* %31, align 8
  ret void
}

; Function Attrs: noinline nounwind uwtable
define linkonce_odr void @_ZN9__gnu_cxx5__ops15__val_comp_iterENS0_15_Iter_less_iterE() #4 comdat {
  ret void
}

; Function Attrs: noinline uwtable
define linkonce_odr double* @_ZSt23__copy_move_backward_a2ILb1EN9__gnu_cxx17__normal_iteratorIPdSt6vectorIdSaIdEEEES6_ET1_T0_S8_S7_(double* %0, double* %1, double* %2) #0 comdat {
  %4 = alloca %"class.__gnu_cxx::__normal_iterator", align 8
  %5 = alloca %"class.__gnu_cxx::__normal_iterator", align 8
  %6 = alloca %"class.__gnu_cxx::__normal_iterator", align 8
  %7 = alloca %"class.__gnu_cxx::__normal_iterator", align 8
  %8 = alloca double*, align 8
  %9 = alloca %"class.__gnu_cxx::__normal_iterator", align 8
  %10 = alloca %"class.__gnu_cxx::__normal_iterator", align 8
  %11 = alloca %"class.__gnu_cxx::__normal_iterator", align 8
  %12 = getelementptr inbounds %"class.__gnu_cxx::__normal_iterator", %"class.__gnu_cxx::__normal_iterator"* %5, i32 0, i32 0
  store double* %0, double** %12, align 8
  %13 = getelementptr inbounds %"class.__gnu_cxx::__normal_iterator", %"class.__gnu_cxx::__normal_iterator"* %6, i32 0, i32 0
  store double* %1, double** %13, align 8
  %14 = getelementptr inbounds %"class.__gnu_cxx::__normal_iterator", %"class.__gnu_cxx::__normal_iterator"* %7, i32 0, i32 0
  store double* %2, double** %14, align 8
  %15 = bitcast %"class.__gnu_cxx::__normal_iterator"* %9 to i8*
  %16 = bitcast %"class.__gnu_cxx::__normal_iterator"* %5 to i8*
  call void @llvm.memcpy.p0i8.p0i8.i64(i8* align 8 %15, i8* align 8 %16, i64 8, i1 false)
  %17 = getelementptr inbounds %"class.__gnu_cxx::__normal_iterator", %"class.__gnu_cxx::__normal_iterator"* %9, i32 0, i32 0
  %18 = load double*, double** %17, align 8
  %19 = call double* @_ZSt12__niter_baseIPdSt6vectorIdSaIdEEET_N9__gnu_cxx17__normal_iteratorIS4_T0_EE(double* %18)
  %20 = bitcast %"class.__gnu_cxx::__normal_iterator"* %10 to i8*
  %21 = bitcast %"class.__gnu_cxx::__normal_iterator"* %6 to i8*
  call void @llvm.memcpy.p0i8.p0i8.i64(i8* align 8 %20, i8* align 8 %21, i64 8, i1 false)
  %22 = getelementptr inbounds %"class.__gnu_cxx::__normal_iterator", %"class.__gnu_cxx::__normal_iterator"* %10, i32 0, i32 0
  %23 = load double*, double** %22, align 8
  %24 = call double* @_ZSt12__niter_baseIPdSt6vectorIdSaIdEEET_N9__gnu_cxx17__normal_iteratorIS4_T0_EE(double* %23)
  %25 = bitcast %"class.__gnu_cxx::__normal_iterator"* %11 to i8*
  %26 = bitcast %"class.__gnu_cxx::__normal_iterator"* %7 to i8*
  call void @llvm.memcpy.p0i8.p0i8.i64(i8* align 8 %25, i8* align 8 %26, i64 8, i1 false)
  %27 = getelementptr inbounds %"class.__gnu_cxx::__normal_iterator", %"class.__gnu_cxx::__normal_iterator"* %11, i32 0, i32 0
  %28 = load double*, double** %27, align 8
  %29 = call double* @_ZSt12__niter_baseIPdSt6vectorIdSaIdEEET_N9__gnu_cxx17__normal_iteratorIS4_T0_EE(double* %28)
  %30 = call double* @_ZSt22__copy_move_backward_aILb1EPdS0_ET1_T0_S2_S1_(double* %19, double* %24, double* %29)
  store double* %30, double** %8, align 8
  call void @_ZN9__gnu_cxx17__normal_iteratorIPdSt6vectorIdSaIdEEEC2ERKS1_(%"class.__gnu_cxx::__normal_iterator"* %4, double** dereferenceable(8) %8) #3
  %31 = getelementptr inbounds %"class.__gnu_cxx::__normal_iterator", %"class.__gnu_cxx::__normal_iterator"* %4, i32 0, i32 0
  %32 = load double*, double** %31, align 8
  ret double* %32
}

; Function Attrs: noinline nounwind uwtable
define linkonce_odr double* @_ZSt12__miter_baseIN9__gnu_cxx17__normal_iteratorIPdSt6vectorIdSaIdEEEEET_S7_(double* %0) #4 comdat {
  %2 = alloca %"class.__gnu_cxx::__normal_iterator", align 8
  %3 = alloca %"class.__gnu_cxx::__normal_iterator", align 8
  %4 = getelementptr inbounds %"class.__gnu_cxx::__normal_iterator", %"class.__gnu_cxx::__normal_iterator"* %3, i32 0, i32 0
  store double* %0, double** %4, align 8
  %5 = bitcast %"class.__gnu_cxx::__normal_iterator"* %2 to i8*
  %6 = bitcast %"class.__gnu_cxx::__normal_iterator"* %3 to i8*
  call void @llvm.memcpy.p0i8.p0i8.i64(i8* align 8 %5, i8* align 8 %6, i64 8, i1 false)
  %7 = getelementptr inbounds %"class.__gnu_cxx::__normal_iterator", %"class.__gnu_cxx::__normal_iterator"* %2, i32 0, i32 0
  %8 = load double*, double** %7, align 8
  ret double* %8
}

; Function Attrs: noinline uwtable
define linkonce_odr double* @_ZSt22__copy_move_backward_aILb1EPdS0_ET1_T0_S2_S1_(double* %0, double* %1, double* %2) #0 comdat {
  %4 = call double* @_ZNSt20__copy_move_backwardILb1ELb1ESt26random_access_iterator_tagE13__copy_move_bIdEEPT_PKS3_S6_S4_(double* %0, double* %1, double* %2)
  ret double* %4
}

; Function Attrs: noinline nounwind uwtable
define linkonce_odr double* @_ZSt12__niter_baseIPdSt6vectorIdSaIdEEET_N9__gnu_cxx17__normal_iteratorIS4_T0_EE(double* %0) #4 comdat {
  %2 = alloca %"class.__gnu_cxx::__normal_iterator", align 8
  %3 = getelementptr inbounds %"class.__gnu_cxx::__normal_iterator", %"class.__gnu_cxx::__normal_iterator"* %2, i32 0, i32 0
  store double* %0, double** %3, align 8
  %4 = call dereferenceable(8) double** @_ZNK9__gnu_cxx17__normal_iteratorIPdSt6vectorIdSaIdEEE4baseEv(%"class.__gnu_cxx::__normal_iterator"* %2) #3
  %5 = load double*, double** %4, align 8
  ret double* %5
}

; Function Attrs: noinline nounwind uwtable
define linkonce_odr double* @_ZNSt20__copy_move_backwardILb1ELb1ESt26random_access_iterator_tagE13__copy_move_bIdEEPT_PKS3_S6_S4_(double* %0, double* %1, double* %2) #4 comdat align 2 {
  %4 = ptrtoint double* %1 to i64
  %5 = ptrtoint double* %0 to i64
  %6 = sub i64 %4, %5
  %7 = sdiv exact i64 %6, 8
  %8 = icmp ne i64 %7, 0
  br i1 %8, label %9, label %15

9:                                                ; preds = %3
  %10 = sub i64 0, %7
  %11 = getelementptr inbounds double, double* %2, i64 %10
  %12 = bitcast double* %11 to i8*
  %13 = bitcast double* %0 to i8*
  %14 = mul i64 8, %7
  call void @llvm.memmove.p0i8.p0i8.i64(i8* align 8 %12, i8* align 8 %13, i64 %14, i1 false)
  br label %15

15:                                               ; preds = %9, %3
  %16 = sub i64 0, %7
  %17 = getelementptr inbounds double, double* %2, i64 %16
  ret double* %17
}

; Function Attrs: noinline nounwind uwtable
define linkonce_odr zeroext i1 @_ZNK9__gnu_cxx5__ops14_Val_less_iterclIdNS_17__normal_iteratorIPdSt6vectorIdSaIdEEEEEEbRT_T0_(%"struct.__gnu_cxx::__ops::_Val_less_iter"* %0, double* dereferenceable(8) %1, double* %2) #4 comdat align 2 {
  %4 = alloca %"class.__gnu_cxx::__normal_iterator", align 8
  %5 = getelementptr inbounds %"class.__gnu_cxx::__normal_iterator", %"class.__gnu_cxx::__normal_iterator"* %4, i32 0, i32 0
  store double* %2, double** %5, align 8
  %6 = load double, double* %1, align 8
  %7 = call dereferenceable(8) double* @_ZNK9__gnu_cxx17__normal_iteratorIPdSt6vectorIdSaIdEEEdeEv(%"class.__gnu_cxx::__normal_iterator"* %4) #3
  %8 = load double, double* %7, align 8
  %9 = fcmp olt double %6, %8
  ret i1 %9
}

; Function Attrs: noinline nounwind uwtable
define linkonce_odr void @_ZN9__gnu_cxx13new_allocatorIiEC2Ev(%"class.__gnu_cxx::new_allocator.3"* %0) unnamed_addr #4 comdat align 2 {
  ret void
}

; Function Attrs: noinline nounwind uwtable
define linkonce_odr void @_ZN9__gnu_cxx13new_allocatorIiED2Ev(%"class.__gnu_cxx::new_allocator.3"* %0) unnamed_addr #4 comdat align 2 {
  ret void
}

; Function Attrs: noinline nounwind uwtable
define linkonce_odr void @_ZNSt12_Vector_baseIiSaIiEEC2ERKS0_(%"struct.std::_Vector_base.1"* %0, %"class.std::allocator.2"* dereferenceable(1) %1) unnamed_addr #4 comdat align 2 {
  %3 = getelementptr inbounds %"struct.std::_Vector_base.1", %"struct.std::_Vector_base.1"* %0, i32 0, i32 0
  call void @_ZNSt12_Vector_baseIiSaIiEE12_Vector_implC2ERKS0_(%"struct.std::_Vector_base<int, std::allocator<int> >::_Vector_impl"* %3, %"class.std::allocator.2"* dereferenceable(1) %1) #3
  ret void
}

; Function Attrs: noinline uwtable
define linkonce_odr void @_ZNSt6vectorIiSaIiEE19_M_range_initializeIPKiEEvT_S5_St20forward_iterator_tag(%"class.std::vector.0"* %0, i32* %1, i32* %2) #0 comdat align 2 {
  %4 = call i64 @_ZSt8distanceIPKiENSt15iterator_traitsIT_E15difference_typeES3_S3_(i32* %1, i32* %2)
  %5 = bitcast %"class.std::vector.0"* %0 to %"struct.std::_Vector_base.1"*
  %6 = call i32* @_ZNSt12_Vector_baseIiSaIiEE11_M_allocateEm(%"struct.std::_Vector_base.1"* %5, i64 %4)
  %7 = bitcast %"class.std::vector.0"* %0 to %"struct.std::_Vector_base.1"*
