; ModuleID = '/home/pedro/tcc/exDataset/codenet/data/selection/p00867/s001004287.ll'
source_filename = "/home/pedro/tcc/exDataset/codenet/data/selection/p00867/s001004287.cpp"
target datalayout = "e-m:e-i64:64-f80:128-n8:16:32:64-S128"
target triple = "x86_64-pc-linux-gnu"

%"class.std::ios_base::Init" = type { i8 }
%"struct.std::complex" = type { { double, double } }
%"class.std::set" = type { %"class.std::_Rb_tree" }
%"class.std::_Rb_tree" = type { %"struct.std::_Rb_tree<Point, Point, std::_Identity<Point>, std::less<Point>, std::allocator<Point> >::_Rb_tree_impl" }
%"struct.std::_Rb_tree<Point, Point, std::_Identity<Point>, std::less<Point>, std::allocator<Point> >::_Rb_tree_impl" = type { %"struct.std::_Rb_tree_key_compare", %"struct.std::_Rb_tree_header" }
%"struct.std::_Rb_tree_key_compare" = type { %"struct.std::less" }
%"struct.std::less" = type { i8 }
%"struct.std::_Rb_tree_header" = type { %"struct.std::_Rb_tree_node_base", i64 }
%"struct.std::_Rb_tree_node_base" = type { i32, %"struct.std::_Rb_tree_node_base"*, %"struct.std::_Rb_tree_node_base"*, %"struct.std::_Rb_tree_node_base"* }
%"class.std::basic_istream" = type { i32 (...)**, i64, %"class.std::basic_ios" }
%"class.std::basic_ios" = type { %"class.std::ios_base", %"class.std::basic_ostream"*, i8, i8, %"class.std::basic_streambuf"*, %"class.std::ctype"*, %"class.std::num_put"*, %"class.std::num_get"* }
%"class.std::ios_base" = type { i32 (...)**, i64, i64, i32, i32, i32, %"struct.std::ios_base::_Callback_list"*, %"struct.std::ios_base::_Words", [8 x %"struct.std::ios_base::_Words"], i32, %"struct.std::ios_base::_Words"*, %"class.std::locale" }
%"struct.std::ios_base::_Callback_list" = type { %"struct.std::ios_base::_Callback_list"*, void (i32, %"class.std::ios_base"*, i32)*, i32, i32 }
%"struct.std::ios_base::_Words" = type { i8*, i64 }
%"class.std::locale" = type { %"class.std::locale::_Impl"* }
%"class.std::locale::_Impl" = type { i32, %"class.std::locale::facet"**, i64, %"class.std::locale::facet"**, i8** }
%"class.std::locale::facet" = type <{ i32 (...)**, i32, [4 x i8] }>
%"class.std::basic_ostream" = type { i32 (...)**, %"class.std::basic_ios" }
%"class.std::basic_streambuf" = type { i32 (...)**, i8*, i8*, i8*, i8*, i8*, i8*, %"class.std::locale" }
%"class.std::ctype" = type <{ %"class.std::locale::facet.base", [4 x i8], %struct.__locale_struct*, i8, [7 x i8], i32*, i32*, i16*, i8, [256 x i8], [256 x i8], i8, [6 x i8] }>
%"class.std::locale::facet.base" = type <{ i32 (...)**, i32 }>
%struct.__locale_struct = type { [13 x %struct.__locale_data*], i16*, i32*, i32*, [13 x i8*] }
%struct.__locale_data = type opaque
%"class.std::num_put" = type { %"class.std::locale::facet.base", [4 x i8] }
%"class.std::num_get" = type { %"class.std::locale::facet.base", [4 x i8] }
%"class.std::vector" = type { %"struct.std::_Vector_base" }
%"struct.std::_Vector_base" = type { %"struct.std::_Vector_base<std::complex<double>, std::allocator<std::complex<double> > >::_Vector_impl" }
%"struct.std::_Vector_base<std::complex<double>, std::allocator<std::complex<double> > >::_Vector_impl" = type { %"struct.std::complex"*, %"struct.std::complex"*, %"struct.std::complex"* }
%class.Point = type { %"struct.std::complex" }
%"struct.std::pair" = type <{ %"struct.std::_Rb_tree_const_iterator", i8, [7 x i8] }>
%"struct.std::_Rb_tree_const_iterator" = type { %"struct.std::_Rb_tree_node_base"* }
%"struct.std::pair.3" = type <{ %"struct.std::_Rb_tree_iterator", i8, [7 x i8] }>
%"struct.std::_Rb_tree_iterator" = type { %"struct.std::_Rb_tree_node_base"* }
%"class.__gnu_cxx::__normal_iterator" = type { %"struct.std::complex"* }
%"class.std::allocator.0" = type { i8 }
%"class.std::allocator" = type { i8 }
%"class.__gnu_cxx::new_allocator" = type { i8 }
%"struct.std::_Rb_tree_node" = type { %"struct.std::_Rb_tree_node_base", %"struct.__gnu_cxx::__aligned_membuf" }
%"struct.__gnu_cxx::__aligned_membuf" = type { [16 x i8] }
%"struct.std::pair.7" = type { %"struct.std::_Rb_tree_node_base"*, %"struct.std::_Rb_tree_node_base"* }
%"struct.std::_Identity" = type { i8 }
%"struct.std::_Rb_tree<Point, Point, std::_Identity<Point>, std::less<Point>, std::allocator<Point> >::_Alloc_node" = type { %"class.std::_Rb_tree"* }
%"class.std::__pair_base" = type { i8 }
%"class.std::__pair_base.4" = type { i8 }
%"class.std::__pair_base.8" = type { i8 }
%"class.__gnu_cxx::new_allocator.1" = type { i8 }
%"class.std::move_iterator" = type { %"struct.std::complex"* }

$_ZNKSt7complexIdE4realB5cxx11Ev = comdat any

$_ZNKSt7complexIdE4imagB5cxx11Ev = comdat any

$_ZSt3absd = comdat any

$_ZStmiIdESt7complexIT_ERKS2_S4_ = comdat any

$_ZSt3absIdET_RKSt7complexIS0_E = comdat any

$_ZNSt3setI5PointSt4lessIS0_ESaIS0_EEC2Ev = comdat any

$_ZNSt3setI5PointSt4lessIS0_ESaIS0_EED2Ev = comdat any

$_ZNSt3setI5PointSt4lessIS0_ESaIS0_EE6insertEOS0_ = comdat any

$_ZN5PointC2ESt7complexIdE = comdat any

$_ZNSt6vectorISt7complexIdESaIS1_EE5clearEv = comdat any

$_ZNSt6vectorISt7complexIdESaIS1_EE9push_backERKS1_ = comdat any

$_ZNSt7complexIdEC2Edd = comdat any

$_ZNSt6vectorISt7complexIdESaIS1_EEC2Ev = comdat any

$_ZNSt3setI5PointSt4lessIS0_ESaIS0_EE5clearEv = comdat any

$_ZNKSt3setI5PointSt4lessIS0_ESaIS0_EE4sizeEv = comdat any

$_ZNSt6vectorISt7complexIdESaIS1_EEixEm = comdat any

$_ZNSt6vectorISt7complexIdESaIS1_EED2Ev = comdat any

$_ZNSt8_Rb_treeI5PointS0_St9_IdentityIS0_ESt4lessIS0_ESaIS0_EEC2Ev = comdat any

$_ZNSt8_Rb_treeI5PointS0_St9_IdentityIS0_ESt4lessIS0_ESaIS0_EE13_Rb_tree_implIS4_Lb1EEC2Ev = comdat any

$_ZNSaISt13_Rb_tree_nodeI5PointEEC2Ev = comdat any

$_ZNSt20_Rb_tree_key_compareISt4lessI5PointEEC2Ev = comdat any

$_ZNSt15_Rb_tree_headerC2Ev = comdat any

$_ZN9__gnu_cxx13new_allocatorISt13_Rb_tree_nodeI5PointEEC2Ev = comdat any

$_ZNSt15_Rb_tree_header8_M_resetEv = comdat any

$__clang_call_terminate = comdat any

$_ZNSt8_Rb_treeI5PointS0_St9_IdentityIS0_ESt4lessIS0_ESaIS0_EED2Ev = comdat any

$_ZNSt8_Rb_treeI5PointS0_St9_IdentityIS0_ESt4lessIS0_ESaIS0_EE8_M_eraseEPSt13_Rb_tree_nodeIS0_E = comdat any

$_ZNSt8_Rb_treeI5PointS0_St9_IdentityIS0_ESt4lessIS0_ESaIS0_EE8_M_beginEv = comdat any

$_ZNSt8_Rb_treeI5PointS0_St9_IdentityIS0_ESt4lessIS0_ESaIS0_EE13_Rb_tree_implIS4_Lb1EED2Ev = comdat any

$_ZNSt8_Rb_treeI5PointS0_St9_IdentityIS0_ESt4lessIS0_ESaIS0_EE8_S_rightEPSt18_Rb_tree_node_base = comdat any

$_ZNSt8_Rb_treeI5PointS0_St9_IdentityIS0_ESt4lessIS0_ESaIS0_EE7_S_leftEPSt18_Rb_tree_node_base = comdat any

$_ZNSt8_Rb_treeI5PointS0_St9_IdentityIS0_ESt4lessIS0_ESaIS0_EE12_M_drop_nodeEPSt13_Rb_tree_nodeIS0_E = comdat any

$_ZNSt8_Rb_treeI5PointS0_St9_IdentityIS0_ESt4lessIS0_ESaIS0_EE15_M_destroy_nodeEPSt13_Rb_tree_nodeIS0_E = comdat any

$_ZNSt8_Rb_treeI5PointS0_St9_IdentityIS0_ESt4lessIS0_ESaIS0_EE11_M_put_nodeEPSt13_Rb_tree_nodeIS0_E = comdat any

$_ZNSt16allocator_traitsISaISt13_Rb_tree_nodeI5PointEEE7destroyIS1_EEvRS3_PT_ = comdat any

$_ZNSt8_Rb_treeI5PointS0_St9_IdentityIS0_ESt4lessIS0_ESaIS0_EE21_M_get_Node_allocatorEv = comdat any

$_ZNSt13_Rb_tree_nodeI5PointE9_M_valptrEv = comdat any

$_ZN9__gnu_cxx13new_allocatorISt13_Rb_tree_nodeI5PointEE7destroyIS2_EEvPT_ = comdat any

$_ZN9__gnu_cxx16__aligned_membufI5PointE6_M_ptrEv = comdat any

$_ZN9__gnu_cxx16__aligned_membufI5PointE7_M_addrEv = comdat any

$_ZNSt16allocator_traitsISaISt13_Rb_tree_nodeI5PointEEE10deallocateERS3_PS2_m = comdat any

$_ZN9__gnu_cxx13new_allocatorISt13_Rb_tree_nodeI5PointEE10deallocateEPS3_m = comdat any

$_ZNSaISt13_Rb_tree_nodeI5PointEED2Ev = comdat any

$_ZN9__gnu_cxx13new_allocatorISt13_Rb_tree_nodeI5PointEED2Ev = comdat any

$_ZNSt7complexIdEmIIdEERS0_RKS_IT_E = comdat any

$_ZSt13__complex_absCd = comdat any

$_ZNKSt7complexIdE5__repEv = comdat any

$_ZNSt8_Rb_treeI5PointS0_St9_IdentityIS0_ESt4lessIS0_ESaIS0_EE16_M_insert_uniqueIS0_EESt4pairISt17_Rb_tree_iteratorIS0_EbEOT_ = comdat any

$_ZSt4moveIR5PointEONSt16remove_referenceIT_E4typeEOS3_ = comdat any

$_ZNSt4pairISt23_Rb_tree_const_iteratorI5PointEbEC2IRSt17_Rb_tree_iteratorIS1_ERbLb1EEEOT_OT0_ = comdat any

$_ZNSt8_Rb_treeI5PointS0_St9_IdentityIS0_ESt4lessIS0_ESaIS0_EE24_M_get_insert_unique_posERKS0_ = comdat any

$_ZNKSt9_IdentityI5PointEclERS0_ = comdat any

$_ZNSt8_Rb_treeI5PointS0_St9_IdentityIS0_ESt4lessIS0_ESaIS0_EE11_Alloc_nodeC2ERS6_ = comdat any

$_ZNSt8_Rb_treeI5PointS0_St9_IdentityIS0_ESt4lessIS0_ESaIS0_EE10_M_insert_IS0_NS6_11_Alloc_nodeEEESt17_Rb_tree_iteratorIS0_EPSt18_Rb_tree_node_baseSC_OT_RT0_ = comdat any

$_ZSt7forwardI5PointEOT_RNSt16remove_referenceIS1_E4typeE = comdat any

$_ZNSt4pairISt17_Rb_tree_iteratorI5PointEbEC2IS2_bLb1EEEOT_OT0_ = comdat any

$_ZNSt17_Rb_tree_iteratorI5PointEC2EPSt18_Rb_tree_node_base = comdat any

$_ZNSt8_Rb_treeI5PointS0_St9_IdentityIS0_ESt4lessIS0_ESaIS0_EE6_M_endEv = comdat any

$_ZNKSt4lessI5PointEclERKS0_S3_ = comdat any

$_ZNSt8_Rb_treeI5PointS0_St9_IdentityIS0_ESt4lessIS0_ESaIS0_EE6_S_keyEPKSt13_Rb_tree_nodeIS0_E = comdat any

$_ZNKSt17_Rb_tree_iteratorI5PointEeqERKS1_ = comdat any

$_ZNSt8_Rb_treeI5PointS0_St9_IdentityIS0_ESt4lessIS0_ESaIS0_EE5beginEv = comdat any

$_ZNSt4pairIPSt18_Rb_tree_node_baseS1_EC2IRPSt13_Rb_tree_nodeI5PointERS1_Lb1EEEOT_OT0_ = comdat any

$_ZNSt17_Rb_tree_iteratorI5PointEmmEv = comdat any

$_ZNSt8_Rb_treeI5PointS0_St9_IdentityIS0_ESt4lessIS0_ESaIS0_EE6_S_keyEPKSt18_Rb_tree_node_base = comdat any

$_ZNSt4pairIPSt18_Rb_tree_node_baseS1_EC2IRS1_Lb1EEEOT_RKS1_ = comdat any

$_ZNK5PointltERKS_ = comdat any

$_ZNKSt9_IdentityI5PointEclERKS0_ = comdat any

$_ZNKSt13_Rb_tree_nodeI5PointE9_M_valptrEv = comdat any

$_ZNK9__gnu_cxx16__aligned_membufI5PointE6_M_ptrEv = comdat any

$_ZNK9__gnu_cxx16__aligned_membufI5PointE7_M_addrEv = comdat any

$_ZSt7forwardIRPSt13_Rb_tree_nodeI5PointEEOT_RNSt16remove_referenceIS5_E4typeE = comdat any

$_ZSt7forwardIRPSt18_Rb_tree_node_baseEOT_RNSt16remove_referenceIS3_E4typeE = comdat any

$_ZNKSt8_Rb_treeI5PointS0_St9_IdentityIS0_ESt4lessIS0_ESaIS0_EE11_Alloc_nodeclIS0_EEPSt13_Rb_tree_nodeIS0_EOT_ = comdat any

$_ZNSt8_Rb_treeI5PointS0_St9_IdentityIS0_ESt4lessIS0_ESaIS0_EE14_M_create_nodeIJS0_EEEPSt13_Rb_tree_nodeIS0_EDpOT_ = comdat any

$_ZNSt8_Rb_treeI5PointS0_St9_IdentityIS0_ESt4lessIS0_ESaIS0_EE11_M_get_nodeEv = comdat any

$_ZNSt8_Rb_treeI5PointS0_St9_IdentityIS0_ESt4lessIS0_ESaIS0_EE17_M_construct_nodeIJS0_EEEvPSt13_Rb_tree_nodeIS0_EDpOT_ = comdat any

$_ZNSt16allocator_traitsISaISt13_Rb_tree_nodeI5PointEEE8allocateERS3_m = comdat any

$_ZN9__gnu_cxx13new_allocatorISt13_Rb_tree_nodeI5PointEE8allocateEmPKv = comdat any

$_ZNK9__gnu_cxx13new_allocatorISt13_Rb_tree_nodeI5PointEE8max_sizeEv = comdat any

$_ZNSt16allocator_traitsISaISt13_Rb_tree_nodeI5PointEEE9constructIS1_JS1_EEEvRS3_PT_DpOT0_ = comdat any

$_ZN9__gnu_cxx13new_allocatorISt13_Rb_tree_nodeI5PointEE9constructIS2_JS2_EEEvPT_DpOT0_ = comdat any

$_ZSt7forwardISt17_Rb_tree_iteratorI5PointEEOT_RNSt16remove_referenceIS3_E4typeE = comdat any

$_ZSt7forwardIbEOT_RNSt16remove_referenceIS0_E4typeE = comdat any

$_ZSt7forwardIRSt17_Rb_tree_iteratorI5PointEEOT_RNSt16remove_referenceIS4_E4typeE = comdat any

$_ZNSt23_Rb_tree_const_iteratorI5PointEC2ERKSt17_Rb_tree_iteratorIS0_E = comdat any

$_ZSt7forwardIRbEOT_RNSt16remove_referenceIS1_E4typeE = comdat any

$_ZNSt6vectorISt7complexIdESaIS1_EE15_M_erase_at_endEPS1_ = comdat any

$_ZSt8_DestroyIPSt7complexIdES1_EvT_S3_RSaIT0_E = comdat any

$_ZNSt12_Vector_baseISt7complexIdESaIS1_EE19_M_get_Tp_allocatorEv = comdat any

$_ZSt8_DestroyIPSt7complexIdEEvT_S3_ = comdat any

$_ZNSt12_Destroy_auxILb1EE9__destroyIPSt7complexIdEEEvT_S5_ = comdat any

$_ZNSt16allocator_traitsISaISt7complexIdEEE9constructIS1_JRKS1_EEEvRS2_PT_DpOT0_ = comdat any

$_ZNSt6vectorISt7complexIdESaIS1_EE17_M_realloc_insertIJRKS1_EEEvN9__gnu_cxx17__normal_iteratorIPS1_S3_EEDpOT_ = comdat any

$_ZNSt6vectorISt7complexIdESaIS1_EE3endEv = comdat any

$_ZN9__gnu_cxx13new_allocatorISt7complexIdEE9constructIS2_JRKS2_EEEvPT_DpOT0_ = comdat any

$_ZSt7forwardIRKSt7complexIdEEOT_RNSt16remove_referenceIS4_E4typeE = comdat any

$_ZNKSt6vectorISt7complexIdESaIS1_EE12_M_check_lenEmPKc = comdat any

$_ZN9__gnu_cxxmiIPSt7complexIdESt6vectorIS2_SaIS2_EEEENS_17__normal_iteratorIT_T0_E15difference_typeERKSA_SD_ = comdat any

$_ZNSt6vectorISt7complexIdESaIS1_EE5beginEv = comdat any

$_ZNSt12_Vector_baseISt7complexIdESaIS1_EE11_M_allocateEm = comdat any

$_ZSt34__uninitialized_move_if_noexcept_aIPSt7complexIdES2_SaIS1_EET0_T_S5_S4_RT1_ = comdat any

$_ZNK9__gnu_cxx17__normal_iteratorIPSt7complexIdESt6vectorIS2_SaIS2_EEE4baseEv = comdat any

$_ZNSt16allocator_traitsISaISt7complexIdEEE7destroyIS1_EEvRS2_PT_ = comdat any

$_ZNSt12_Vector_baseISt7complexIdESaIS1_EE13_M_deallocateEPS1_m = comdat any

$_ZNKSt6vectorISt7complexIdESaIS1_EE8max_sizeEv = comdat any

$_ZNKSt6vectorISt7complexIdESaIS1_EE4sizeEv = comdat any

$_ZSt3maxImERKT_S2_S2_ = comdat any

$_ZNSt16allocator_traitsISaISt7complexIdEEE8max_sizeERKS2_ = comdat any

$_ZNKSt12_Vector_baseISt7complexIdESaIS1_EE19_M_get_Tp_allocatorEv = comdat any

$_ZNK9__gnu_cxx13new_allocatorISt7complexIdEE8max_sizeEv = comdat any

$_ZN9__gnu_cxx17__normal_iteratorIPSt7complexIdESt6vectorIS2_SaIS2_EEEC2ERKS3_ = comdat any

$_ZNSt16allocator_traitsISaISt7complexIdEEE8allocateERS2_m = comdat any

$_ZN9__gnu_cxx13new_allocatorISt7complexIdEE8allocateEmPKv = comdat any

$_ZSt22__uninitialized_copy_aISt13move_iteratorIPSt7complexIdEES3_S2_ET0_T_S6_S5_RSaIT1_E = comdat any

$_ZSt32__make_move_if_noexcept_iteratorISt7complexIdESt13move_iteratorIPS1_EET0_PT_ = comdat any

$_ZSt18uninitialized_copyISt13move_iteratorIPSt7complexIdEES3_ET0_T_S6_S5_ = comdat any

$_ZNSt20__uninitialized_copyILb0EE13__uninit_copyISt13move_iteratorIPSt7complexIdEES5_EET0_T_S8_S7_ = comdat any

$_ZStneIPSt7complexIdEEbRKSt13move_iteratorIT_ES7_ = comdat any

$_ZSt10_ConstructISt7complexIdEJS1_EEvPT_DpOT0_ = comdat any

$_ZSt11__addressofISt7complexIdEEPT_RS2_ = comdat any

$_ZNKSt13move_iteratorIPSt7complexIdEEdeEv = comdat any

$_ZNSt13move_iteratorIPSt7complexIdEEppEv = comdat any

$_ZSteqIPSt7complexIdEEbRKSt13move_iteratorIT_ES7_ = comdat any

$_ZNKSt13move_iteratorIPSt7complexIdEE4baseEv = comdat any

$_ZSt7forwardISt7complexIdEEOT_RNSt16remove_referenceIS2_E4typeE = comdat any

$_ZNSt13move_iteratorIPSt7complexIdEEC2ES2_ = comdat any

$_ZN9__gnu_cxx13new_allocatorISt7complexIdEE7destroyIS2_EEvPT_ = comdat any

$_ZNSt16allocator_traitsISaISt7complexIdEEE10deallocateERS2_PS1_m = comdat any

$_ZN9__gnu_cxx13new_allocatorISt7complexIdEE10deallocateEPS2_m = comdat any

$_ZNSt12_Vector_baseISt7complexIdESaIS1_EEC2Ev = comdat any

$_ZNSt12_Vector_baseISt7complexIdESaIS1_EE12_Vector_implC2Ev = comdat any

$_ZNSaISt7complexIdEEC2Ev = comdat any

$_ZN9__gnu_cxx13new_allocatorISt7complexIdEEC2Ev = comdat any

$_ZNSt12_Vector_baseISt7complexIdESaIS1_EED2Ev = comdat any

$_ZNSt12_Vector_baseISt7complexIdESaIS1_EE12_Vector_implD2Ev = comdat any

$_ZNSaISt7complexIdEED2Ev = comdat any

$_ZN9__gnu_cxx13new_allocatorISt7complexIdEED2Ev = comdat any

$_ZNSt8_Rb_treeI5PointS0_St9_IdentityIS0_ESt4lessIS0_ESaIS0_EE5clearEv = comdat any

$_ZNKSt8_Rb_treeI5PointS0_St9_IdentityIS0_ESt4lessIS0_ESaIS0_EE4sizeEv = comdat any

@_ZStL8__ioinit = internal global %"class.std::ios_base::Init" zeroinitializer, align 1
@__dso_handle = external hidden global i8
@_ZL2PI = internal global double 0.000000e+00, align 8
@n = global i32 0, align 4
@lines = global [1001 x [2 x %"struct.std::complex"]] zeroinitializer, align 16
@passed = global [1001 x i8] zeroinitializer, align 16
@tp = global %"class.std::set" zeroinitializer, align 8
@cp = global %"class.std::set" zeroinitializer, align 8
@_ZSt3cin = external global %"class.std::basic_istream", align 8
@_ZSt4cout = external global %"class.std::basic_ostream", align 8
@.str = private unnamed_addr constant [2 x i8] c" \00", align 1
@.str.4 = private unnamed_addr constant [26 x i8] c"vector::_M_realloc_insert\00", align 1
@llvm.global_ctors = appending global [1 x { i32, void ()*, i8* }] [{ i32, void ()*, i8* } { i32 65535, void ()* @_GLOBAL__sub_I_s001004287.cpp, i8* null }]

; Function Attrs: noinline uwtable
define internal void @__cxx_global_var_init() #0 section ".text.startup" {
  call void @_ZNSt8ios_base4InitC1Ev(%"class.std::ios_base::Init"* @_ZStL8__ioinit)
  %1 = call i32 @__cxa_atexit(void (i8*)* bitcast (void (%"class.std::ios_base::Init"*)* @_ZNSt8ios_base4InitD1Ev to void (i8*)*), i8* getelementptr inbounds (%"class.std::ios_base::Init", %"class.std::ios_base::Init"* @_ZStL8__ioinit, i32 0, i32 0), i8* @__dso_handle) #3
  ret void
}

declare void @_ZNSt8ios_base4InitC1Ev(%"class.std::ios_base::Init"*) unnamed_addr #1

; Function Attrs: nounwind
declare void @_ZNSt8ios_base4InitD1Ev(%"class.std::ios_base::Init"*) unnamed_addr #2

; Function Attrs: nounwind
declare i32 @__cxa_atexit(void (i8*)*, i8*, i8*) #3

; Function Attrs: noinline uwtable
define internal void @__cxx_global_var_init.1() #0 section ".text.startup" {
  %1 = call double @atan(double 1.000000e+00) #3
  %2 = fmul double 4.000000e+00, %1
  store double %2, double* @_ZL2PI, align 8
  ret void
}

; Function Attrs: nounwind
declare double @atan(double) #2

; Function Attrs: noinline uwtable
define double @_Z3dotSt7complexIdES0_(double %0, double %1, double %2, double %3) #0 {
  %5 = alloca %"struct.std::complex", align 8
  %6 = alloca %"struct.std::complex", align 8
  %7 = bitcast %"struct.std::complex"* %5 to { double, double }*
  %8 = getelementptr inbounds { double, double }, { double, double }* %7, i32 0, i32 0
  store double %0, double* %8, align 8
  %9 = getelementptr inbounds { double, double }, { double, double }* %7, i32 0, i32 1
  store double %1, double* %9, align 8
  %10 = bitcast %"struct.std::complex"* %6 to { double, double }*
  %11 = getelementptr inbounds { double, double }, { double, double }* %10, i32 0, i32 0
  store double %2, double* %11, align 8
  %12 = getelementptr inbounds { double, double }, { double, double }* %10, i32 0, i32 1
  store double %3, double* %12, align 8
  %13 = call double @_ZNKSt7complexIdE4realB5cxx11Ev(%"struct.std::complex"* %5)
  %14 = call double @_ZNKSt7complexIdE4realB5cxx11Ev(%"struct.std::complex"* %6)
  %15 = fmul double %13, %14
  %16 = call double @_ZNKSt7complexIdE4imagB5cxx11Ev(%"struct.std::complex"* %5)
  %17 = call double @_ZNKSt7complexIdE4imagB5cxx11Ev(%"struct.std::complex"* %6)
  %18 = fmul double %16, %17
  %19 = fadd double %15, %18
  ret double %19
}

; Function Attrs: noinline nounwind uwtable
define linkonce_odr double @_ZNKSt7complexIdE4realB5cxx11Ev(%"struct.std::complex"* %0) #4 comdat align 2 {
  %2 = getelementptr inbounds %"struct.std::complex", %"struct.std::complex"* %0, i32 0, i32 0
  %3 = getelementptr inbounds { double, double }, { double, double }* %2, i32 0, i32 0
  %4 = load double, double* %3, align 8
  ret double %4
}

; Function Attrs: noinline nounwind uwtable
define linkonce_odr double @_ZNKSt7complexIdE4imagB5cxx11Ev(%"struct.std::complex"* %0) #4 comdat align 2 {
  %2 = getelementptr inbounds %"struct.std::complex", %"struct.std::complex"* %0, i32 0, i32 0
  %3 = getelementptr inbounds { double, double }, { double, double }* %2, i32 0, i32 1
  %4 = load double, double* %3, align 8
  ret double %4
}

; Function Attrs: noinline uwtable
define double @_Z5crossSt7complexIdES0_(double %0, double %1, double %2, double %3) #0 {
  %5 = alloca %"struct.std::complex", align 8
  %6 = alloca %"struct.std::complex", align 8
  %7 = bitcast %"struct.std::complex"* %5 to { double, double }*
  %8 = getelementptr inbounds { double, double }, { double, double }* %7, i32 0, i32 0
  store double %0, double* %8, align 8
  %9 = getelementptr inbounds { double, double }, { double, double }* %7, i32 0, i32 1
  store double %1, double* %9, align 8
  %10 = bitcast %"struct.std::complex"* %6 to { double, double }*
  %11 = getelementptr inbounds { double, double }, { double, double }* %10, i32 0, i32 0
  store double %2, double* %11, align 8
  %12 = getelementptr inbounds { double, double }, { double, double }* %10, i32 0, i32 1
  store double %3, double* %12, align 8
  %13 = call double @_ZNKSt7complexIdE4realB5cxx11Ev(%"struct.std::complex"* %5)
  %14 = call double @_ZNKSt7complexIdE4imagB5cxx11Ev(%"struct.std::complex"* %6)
  %15 = fmul double %13, %14
  %16 = call double @_ZNKSt7complexIdE4imagB5cxx11Ev(%"struct.std::complex"* %5)
  %17 = call double @_ZNKSt7complexIdE4realB5cxx11Ev(%"struct.std::complex"* %6)
  %18 = fmul double %16, %17
  %19 = fsub double %15, %18
  ret double %19
}

; Function Attrs: noinline uwtable
define i32 @_Z16is_point_on_lineSt7complexIdES0_S0_(double %0, double %1, double %2, double %3, double %4, double %5) #0 {
  %7 = alloca %"struct.std::complex", align 8
  %8 = alloca %"struct.std::complex", align 8
  %9 = alloca %"struct.std::complex", align 8
  %10 = alloca %"struct.std::complex", align 8
  %11 = alloca %"struct.std::complex", align 8
  %12 = bitcast %"struct.std::complex"* %7 to { double, double }*
  %13 = getelementptr inbounds { double, double }, { double, double }* %12, i32 0, i32 0
  store double %0, double* %13, align 8
  %14 = getelementptr inbounds { double, double }, { double, double }* %12, i32 0, i32 1
  store double %1, double* %14, align 8
  %15 = bitcast %"struct.std::complex"* %8 to { double, double }*
  %16 = getelementptr inbounds { double, double }, { double, double }* %15, i32 0, i32 0
  store double %2, double* %16, align 8
  %17 = getelementptr inbounds { double, double }, { double, double }* %15, i32 0, i32 1
  store double %3, double* %17, align 8
  %18 = bitcast %"struct.std::complex"* %9 to { double, double }*
  %19 = getelementptr inbounds { double, double }, { double, double }* %18, i32 0, i32 0
  store double %4, double* %19, align 8
  %20 = getelementptr inbounds { double, double }, { double, double }* %18, i32 0, i32 1
  store double %5, double* %20, align 8
  %21 = call { double, double } @_ZStmiIdESt7complexIT_ERKS2_S4_(%"struct.std::complex"* dereferenceable(16) %8, %"struct.std::complex"* dereferenceable(16) %7)
  %22 = getelementptr inbounds %"struct.std::complex", %"struct.std::complex"* %10, i32 0, i32 0
  %23 = getelementptr inbounds { double, double }, { double, double }* %22, i32 0, i32 0
  %24 = extractvalue { double, double } %21, 0
  store double %24, double* %23, align 8
  %25 = getelementptr inbounds { double, double }, { double, double }* %22, i32 0, i32 1
  %26 = extractvalue { double, double } %21, 1
  store double %26, double* %25, align 8
  %27 = call { double, double } @_ZStmiIdESt7complexIT_ERKS2_S4_(%"struct.std::complex"* dereferenceable(16) %9, %"struct.std::complex"* dereferenceable(16) %7)
  %28 = getelementptr inbounds %"struct.std::complex", %"struct.std::complex"* %11, i32 0, i32 0
  %29 = getelementptr inbounds { double, double }, { double, double }* %28, i32 0, i32 0
  %30 = extractvalue { double, double } %27, 0
  store double %30, double* %29, align 8
  %31 = getelementptr inbounds { double, double }, { double, double }* %28, i32 0, i32 1
  %32 = extractvalue { double, double } %27, 1
  store double %32, double* %31, align 8
  %33 = bitcast %"struct.std::complex"* %10 to { double, double }*
  %34 = getelementptr inbounds { double, double }, { double, double }* %33, i32 0, i32 0
  %35 = load double, double* %34, align 8
  %36 = getelementptr inbounds { double, double }, { double, double }* %33, i32 0, i32 1
  %37 = load double, double* %36, align 8
  %38 = bitcast %"struct.std::complex"* %11 to { double, double }*
  %39 = getelementptr inbounds { double, double }, { double, double }* %38, i32 0, i32 0
  %40 = load double, double* %39, align 8
  %41 = getelementptr inbounds { double, double }, { double, double }* %38, i32 0, i32 1
  %42 = load double, double* %41, align 8
  %43 = call double @_Z5crossSt7complexIdES0_(double %35, double %37, double %40, double %42)
  %44 = fsub double %43, 0.000000e+00
  %45 = call double @_ZSt3absd(double %44)
  %46 = fcmp olt double %45, 1.000000e-10
  %47 = zext i1 %46 to i32
  ret i32 %47
}

; Function Attrs: noinline nounwind uwtable
define linkonce_odr double @_ZSt3absd(double %0) #4 comdat {
  %2 = call double @llvm.fabs.f64(double %0)
  ret double %2
}

; Function Attrs: noinline uwtable
define linkonce_odr { double, double } @_ZStmiIdESt7complexIT_ERKS2_S4_(%"struct.std::complex"* dereferenceable(16) %0, %"struct.std::complex"* dereferenceable(16) %1) #0 comdat {
  %3 = alloca %"struct.std::complex", align 8
  %4 = bitcast %"struct.std::complex"* %3 to i8*
  %5 = bitcast %"struct.std::complex"* %0 to i8*
  call void @llvm.memcpy.p0i8.p0i8.i64(i8* align 8 %4, i8* align 8 %5, i64 16, i1 false)
  %6 = call dereferenceable(16) %"struct.std::complex"* @_ZNSt7complexIdEmIIdEERS0_RKS_IT_E(%"struct.std::complex"* %3, %"struct.std::complex"* dereferenceable(16) %1)
  %7 = getelementptr inbounds %"struct.std::complex", %"struct.std::complex"* %3, i32 0, i32 0
  %8 = load { double, double }, { double, double }* %7, align 8
  ret { double, double } %8
}

; Function Attrs: noinline uwtable
define i32 @_Z13is_orthogonalSt7complexIdES0_S0_S0_(double %0, double %1, double %2, double %3, double %4, double %5, double %6, double %7) #0 {
  %9 = alloca %"struct.std::complex", align 8
  %10 = alloca %"struct.std::complex", align 8
  %11 = alloca %"struct.std::complex", align 8
  %12 = alloca %"struct.std::complex", align 8
  %13 = alloca %"struct.std::complex", align 8
  %14 = alloca %"struct.std::complex", align 8
  %15 = bitcast %"struct.std::complex"* %9 to { double, double }*
  %16 = getelementptr inbounds { double, double }, { double, double }* %15, i32 0, i32 0
  store double %0, double* %16, align 8
  %17 = getelementptr inbounds { double, double }, { double, double }* %15, i32 0, i32 1
  store double %1, double* %17, align 8
  %18 = bitcast %"struct.std::complex"* %10 to { double, double }*
  %19 = getelementptr inbounds { double, double }, { double, double }* %18, i32 0, i32 0
  store double %2, double* %19, align 8
  %20 = getelementptr inbounds { double, double }, { double, double }* %18, i32 0, i32 1
  store double %3, double* %20, align 8
  %21 = bitcast %"struct.std::complex"* %11 to { double, double }*
  %22 = getelementptr inbounds { double, double }, { double, double }* %21, i32 0, i32 0
  store double %4, double* %22, align 8
  %23 = getelementptr inbounds { double, double }, { double, double }* %21, i32 0, i32 1
  store double %5, double* %23, align 8
  %24 = bitcast %"struct.std::complex"* %12 to { double, double }*
  %25 = getelementptr inbounds { double, double }, { double, double }* %24, i32 0, i32 0
  store double %6, double* %25, align 8
  %26 = getelementptr inbounds { double, double }, { double, double }* %24, i32 0, i32 1
  store double %7, double* %26, align 8
  %27 = call { double, double } @_ZStmiIdESt7complexIT_ERKS2_S4_(%"struct.std::complex"* dereferenceable(16) %9, %"struct.std::complex"* dereferenceable(16) %10)
  %28 = getelementptr inbounds %"struct.std::complex", %"struct.std::complex"* %13, i32 0, i32 0
  %29 = getelementptr inbounds { double, double }, { double, double }* %28, i32 0, i32 0
  %30 = extractvalue { double, double } %27, 0
  store double %30, double* %29, align 8
  %31 = getelementptr inbounds { double, double }, { double, double }* %28, i32 0, i32 1
  %32 = extractvalue { double, double } %27, 1
  store double %32, double* %31, align 8
  %33 = call { double, double } @_ZStmiIdESt7complexIT_ERKS2_S4_(%"struct.std::complex"* dereferenceable(16) %11, %"struct.std::complex"* dereferenceable(16) %12)
  %34 = getelementptr inbounds %"struct.std::complex", %"struct.std::complex"* %14, i32 0, i32 0
  %35 = getelementptr inbounds { double, double }, { double, double }* %34, i32 0, i32 0
  %36 = extractvalue { double, double } %33, 0
  store double %36, double* %35, align 8
  %37 = getelementptr inbounds { double, double }, { double, double }* %34, i32 0, i32 1
  %38 = extractvalue { double, double } %33, 1
  store double %38, double* %37, align 8
  %39 = bitcast %"struct.std::complex"* %13 to { double, double }*
  %40 = getelementptr inbounds { double, double }, { double, double }* %39, i32 0, i32 0
  %41 = load double, double* %40, align 8
  %42 = getelementptr inbounds { double, double }, { double, double }* %39, i32 0, i32 1
  %43 = load double, double* %42, align 8
  %44 = bitcast %"struct.std::complex"* %14 to { double, double }*
  %45 = getelementptr inbounds { double, double }, { double, double }* %44, i32 0, i32 0
  %46 = load double, double* %45, align 8
  %47 = getelementptr inbounds { double, double }, { double, double }* %44, i32 0, i32 1
  %48 = load double, double* %47, align 8
  %49 = call double @_Z3dotSt7complexIdES0_(double %41, double %43, double %46, double %48)
  %50 = fsub double %49, 0.000000e+00
  %51 = call double @_ZSt3absd(double %50)
  %52 = fcmp olt double %51, 1.000000e-10
  %53 = zext i1 %52 to i32
  ret i32 %53
}

; Function Attrs: noinline uwtable
define i32 @_Z11is_parallelSt7complexIdES0_S0_S0_(double %0, double %1, double %2, double %3, double %4, double %5, double %6, double %7) #0 {
  %9 = alloca %"struct.std::complex", align 8
  %10 = alloca %"struct.std::complex", align 8
  %11 = alloca %"struct.std::complex", align 8
  %12 = alloca %"struct.std::complex", align 8
  %13 = alloca %"struct.std::complex", align 8
  %14 = alloca %"struct.std::complex", align 8
  %15 = bitcast %"struct.std::complex"* %9 to { double, double }*
  %16 = getelementptr inbounds { double, double }, { double, double }* %15, i32 0, i32 0
  store double %0, double* %16, align 8
  %17 = getelementptr inbounds { double, double }, { double, double }* %15, i32 0, i32 1
  store double %1, double* %17, align 8
  %18 = bitcast %"struct.std::complex"* %10 to { double, double }*
  %19 = getelementptr inbounds { double, double }, { double, double }* %18, i32 0, i32 0
  store double %2, double* %19, align 8
  %20 = getelementptr inbounds { double, double }, { double, double }* %18, i32 0, i32 1
  store double %3, double* %20, align 8
  %21 = bitcast %"struct.std::complex"* %11 to { double, double }*
  %22 = getelementptr inbounds { double, double }, { double, double }* %21, i32 0, i32 0
  store double %4, double* %22, align 8
  %23 = getelementptr inbounds { double, double }, { double, double }* %21, i32 0, i32 1
  store double %5, double* %23, align 8
  %24 = bitcast %"struct.std::complex"* %12 to { double, double }*
  %25 = getelementptr inbounds { double, double }, { double, double }* %24, i32 0, i32 0
  store double %6, double* %25, align 8
  %26 = getelementptr inbounds { double, double }, { double, double }* %24, i32 0, i32 1
  store double %7, double* %26, align 8
  %27 = call { double, double } @_ZStmiIdESt7complexIT_ERKS2_S4_(%"struct.std::complex"* dereferenceable(16) %9, %"struct.std::complex"* dereferenceable(16) %10)
  %28 = getelementptr inbounds %"struct.std::complex", %"struct.std::complex"* %13, i32 0, i32 0
  %29 = getelementptr inbounds { double, double }, { double, double }* %28, i32 0, i32 0
  %30 = extractvalue { double, double } %27, 0
  store double %30, double* %29, align 8
  %31 = getelementptr inbounds { double, double }, { double, double }* %28, i32 0, i32 1
  %32 = extractvalue { double, double } %27, 1
  store double %32, double* %31, align 8
  %33 = call { double, double } @_ZStmiIdESt7complexIT_ERKS2_S4_(%"struct.std::complex"* dereferenceable(16) %11, %"struct.std::complex"* dereferenceable(16) %12)
  %34 = getelementptr inbounds %"struct.std::complex", %"struct.std::complex"* %14, i32 0, i32 0
  %35 = getelementptr inbounds { double, double }, { double, double }* %34, i32 0, i32 0
  %36 = extractvalue { double, double } %33, 0
  store double %36, double* %35, align 8
  %37 = getelementptr inbounds { double, double }, { double, double }* %34, i32 0, i32 1
  %38 = extractvalue { double, double } %33, 1
  store double %38, double* %37, align 8
  %39 = bitcast %"struct.std::complex"* %13 to { double, double }*
  %40 = getelementptr inbounds { double, double }, { double, double }* %39, i32 0, i32 0
  %41 = load double, double* %40, align 8
  %42 = getelementptr inbounds { double, double }, { double, double }* %39, i32 0, i32 1
  %43 = load double, double* %42, align 8
  %44 = bitcast %"struct.std::complex"* %14 to { double, double }*
  %45 = getelementptr inbounds { double, double }, { double, double }* %44, i32 0, i32 0
  %46 = load double, double* %45, align 8
  %47 = getelementptr inbounds { double, double }, { double, double }* %44, i32 0, i32 1
  %48 = load double, double* %47, align 8
  %49 = call double @_Z5crossSt7complexIdES0_(double %41, double %43, double %46, double %48)
  %50 = fsub double %49, 0.000000e+00
  %51 = call double @_ZSt3absd(double %50)
  %52 = fcmp olt double %51, 1.000000e-10
  %53 = zext i1 %52 to i32
  ret i32 %53
}

; Function Attrs: noinline uwtable
define double @_Z12distance_l_pSt7complexIdES0_S0_(double %0, double %1, double %2, double %3, double %4, double %5) #0 {
  %7 = alloca %"struct.std::complex", align 8
  %8 = alloca %"struct.std::complex", align 8
  %9 = alloca %"struct.std::complex", align 8
  %10 = alloca %"struct.std::complex", align 8
  %11 = alloca %"struct.std::complex", align 8
  %12 = alloca %"struct.std::complex", align 8
  %13 = bitcast %"struct.std::complex"* %7 to { double, double }*
  %14 = getelementptr inbounds { double, double }, { double, double }* %13, i32 0, i32 0
  store double %0, double* %14, align 8
  %15 = getelementptr inbounds { double, double }, { double, double }* %13, i32 0, i32 1
  store double %1, double* %15, align 8
  %16 = bitcast %"struct.std::complex"* %8 to { double, double }*
  %17 = getelementptr inbounds { double, double }, { double, double }* %16, i32 0, i32 0
  store double %2, double* %17, align 8
  %18 = getelementptr inbounds { double, double }, { double, double }* %16, i32 0, i32 1
  store double %3, double* %18, align 8
  %19 = bitcast %"struct.std::complex"* %9 to { double, double }*
  %20 = getelementptr inbounds { double, double }, { double, double }* %19, i32 0, i32 0
  store double %4, double* %20, align 8
  %21 = getelementptr inbounds { double, double }, { double, double }* %19, i32 0, i32 1
  store double %5, double* %21, align 8
  %22 = call { double, double } @_ZStmiIdESt7complexIT_ERKS2_S4_(%"struct.std::complex"* dereferenceable(16) %8, %"struct.std::complex"* dereferenceable(16) %7)
  %23 = getelementptr inbounds %"struct.std::complex", %"struct.std::complex"* %10, i32 0, i32 0
  %24 = getelementptr inbounds { double, double }, { double, double }* %23, i32 0, i32 0
  %25 = extractvalue { double, double } %22, 0
  store double %25, double* %24, align 8
  %26 = getelementptr inbounds { double, double }, { double, double }* %23, i32 0, i32 1
  %27 = extractvalue { double, double } %22, 1
  store double %27, double* %26, align 8
  %28 = call { double, double } @_ZStmiIdESt7complexIT_ERKS2_S4_(%"struct.std::complex"* dereferenceable(16) %9, %"struct.std::complex"* dereferenceable(16) %7)
  %29 = getelementptr inbounds %"struct.std::complex", %"struct.std::complex"* %11, i32 0, i32 0
  %30 = getelementptr inbounds { double, double }, { double, double }* %29, i32 0, i32 0
  %31 = extractvalue { double, double } %28, 0
  store double %31, double* %30, align 8
  %32 = getelementptr inbounds { double, double }, { double, double }* %29, i32 0, i32 1
  %33 = extractvalue { double, double } %28, 1
  store double %33, double* %32, align 8
  %34 = bitcast %"struct.std::complex"* %10 to { double, double }*
  %35 = getelementptr inbounds { double, double }, { double, double }* %34, i32 0, i32 0
  %36 = load double, double* %35, align 8
  %37 = getelementptr inbounds { double, double }, { double, double }* %34, i32 0, i32 1
  %38 = load double, double* %37, align 8
  %39 = bitcast %"struct.std::complex"* %11 to { double, double }*
  %40 = getelementptr inbounds { double, double }, { double, double }* %39, i32 0, i32 0
  %41 = load double, double* %40, align 8
  %42 = getelementptr inbounds { double, double }, { double, double }* %39, i32 0, i32 1
  %43 = load double, double* %42, align 8
  %44 = call double @_Z5crossSt7complexIdES0_(double %36, double %38, double %41, double %43)
  %45 = call double @_ZSt3absd(double %44)
  %46 = call { double, double } @_ZStmiIdESt7complexIT_ERKS2_S4_(%"struct.std::complex"* dereferenceable(16) %8, %"struct.std::complex"* dereferenceable(16) %7)
  %47 = getelementptr inbounds %"struct.std::complex", %"struct.std::complex"* %12, i32 0, i32 0
  %48 = getelementptr inbounds { double, double }, { double, double }* %47, i32 0, i32 0
  %49 = extractvalue { double, double } %46, 0
  store double %49, double* %48, align 8
  %50 = getelementptr inbounds { double, double }, { double, double }* %47, i32 0, i32 1
  %51 = extractvalue { double, double } %46, 1
  store double %51, double* %50, align 8
  %52 = call double @_ZSt3absIdET_RKSt7complexIS0_E(%"struct.std::complex"* dereferenceable(16) %12)
  %53 = fdiv double %45, %52
  ret double %53
}

; Function Attrs: noinline uwtable
define linkonce_odr double @_ZSt3absIdET_RKSt7complexIS0_E(%"struct.std::complex"* dereferenceable(16) %0) #0 comdat {
  %2 = alloca { double, double }, align 8
  %3 = call { double, double } @_ZNKSt7complexIdE5__repEv(%"struct.std::complex"* %0)
  %4 = extractvalue { double, double } %3, 0
  %5 = extractvalue { double, double } %3, 1
  %6 = getelementptr inbounds { double, double }, { double, double }* %2, i32 0, i32 0
  %7 = getelementptr inbounds { double, double }, { double, double }* %2, i32 0, i32 1
  store double %4, double* %6, align 8
  store double %5, double* %7, align 8
  %8 = getelementptr inbounds { double, double }, { double, double }* %2, i32 0, i32 0
  %9 = load double, double* %8, align 8
  %10 = getelementptr inbounds { double, double }, { double, double }* %2, i32 0, i32 1
  %11 = load double, double* %10, align 8
  %12 = call double @_ZSt13__complex_absCd(double %9, double %11)
  ret double %12
}

; Function Attrs: noinline uwtable
define double @_Z13distance_ls_pSt7complexIdES0_S0_(double %0, double %1, double %2, double %3, double %4, double %5) #0 {
  %7 = alloca %"struct.std::complex", align 8
  %8 = alloca %"struct.std::complex", align 8
  %9 = alloca %"struct.std::complex", align 8
  %10 = alloca %"struct.std::complex", align 8
  %11 = alloca %"struct.std::complex", align 8
  %12 = alloca %"struct.std::complex", align 8
  %13 = alloca %"struct.std::complex", align 8
  %14 = alloca %"struct.std::complex", align 8
  %15 = alloca %"struct.std::complex", align 8
  %16 = alloca %"struct.std::complex", align 8
  %17 = alloca %"struct.std::complex", align 8
  %18 = alloca %"struct.std::complex", align 8
  %19 = bitcast %"struct.std::complex"* %7 to { double, double }*
  %20 = getelementptr inbounds { double, double }, { double, double }* %19, i32 0, i32 0
  store double %0, double* %20, align 8
  %21 = getelementptr inbounds { double, double }, { double, double }* %19, i32 0, i32 1
  store double %1, double* %21, align 8
  %22 = bitcast %"struct.std::complex"* %8 to { double, double }*
  %23 = getelementptr inbounds { double, double }, { double, double }* %22, i32 0, i32 0
  store double %2, double* %23, align 8
  %24 = getelementptr inbounds { double, double }, { double, double }* %22, i32 0, i32 1
  store double %3, double* %24, align 8
  %25 = bitcast %"struct.std::complex"* %9 to { double, double }*
  %26 = getelementptr inbounds { double, double }, { double, double }* %25, i32 0, i32 0
  store double %4, double* %26, align 8
  %27 = getelementptr inbounds { double, double }, { double, double }* %25, i32 0, i32 1
  store double %5, double* %27, align 8
  %28 = call { double, double } @_ZStmiIdESt7complexIT_ERKS2_S4_(%"struct.std::complex"* dereferenceable(16) %8, %"struct.std::complex"* dereferenceable(16) %7)
  %29 = getelementptr inbounds %"struct.std::complex", %"struct.std::complex"* %10, i32 0, i32 0
  %30 = getelementptr inbounds { double, double }, { double, double }* %29, i32 0, i32 0
  %31 = extractvalue { double, double } %28, 0
  store double %31, double* %30, align 8
  %32 = getelementptr inbounds { double, double }, { double, double }* %29, i32 0, i32 1
  %33 = extractvalue { double, double } %28, 1
  store double %33, double* %32, align 8
  %34 = call { double, double } @_ZStmiIdESt7complexIT_ERKS2_S4_(%"struct.std::complex"* dereferenceable(16) %9, %"struct.std::complex"* dereferenceable(16) %7)
  %35 = getelementptr inbounds %"struct.std::complex", %"struct.std::complex"* %11, i32 0, i32 0
  %36 = getelementptr inbounds { double, double }, { double, double }* %35, i32 0, i32 0
  %37 = extractvalue { double, double } %34, 0
  store double %37, double* %36, align 8
  %38 = getelementptr inbounds { double, double }, { double, double }* %35, i32 0, i32 1
  %39 = extractvalue { double, double } %34, 1
  store double %39, double* %38, align 8
  %40 = bitcast %"struct.std::complex"* %10 to { double, double }*
  %41 = getelementptr inbounds { double, double }, { double, double }* %40, i32 0, i32 0
  %42 = load double, double* %41, align 8
  %43 = getelementptr inbounds { double, double }, { double, double }* %40, i32 0, i32 1
  %44 = load double, double* %43, align 8
  %45 = bitcast %"struct.std::complex"* %11 to { double, double }*
  %46 = getelementptr inbounds { double, double }, { double, double }* %45, i32 0, i32 0
  %47 = load double, double* %46, align 8
  %48 = getelementptr inbounds { double, double }, { double, double }* %45, i32 0, i32 1
  %49 = load double, double* %48, align 8
  %50 = call double @_Z3dotSt7complexIdES0_(double %42, double %44, double %47, double %49)
  %51 = fcmp olt double %50, 1.000000e-10
  br i1 %51, label %52, label %60

52:                                               ; preds = %6
  %53 = call { double, double } @_ZStmiIdESt7complexIT_ERKS2_S4_(%"struct.std::complex"* dereferenceable(16) %9, %"struct.std::complex"* dereferenceable(16) %7)
  %54 = getelementptr inbounds %"struct.std::complex", %"struct.std::complex"* %12, i32 0, i32 0
  %55 = getelementptr inbounds { double, double }, { double, double }* %54, i32 0, i32 0
  %56 = extractvalue { double, double } %53, 0
  store double %56, double* %55, align 8
  %57 = getelementptr inbounds { double, double }, { double, double }* %54, i32 0, i32 1
  %58 = extractvalue { double, double } %53, 1
  store double %58, double* %57, align 8
  %59 = call double @_ZSt3absIdET_RKSt7complexIS0_E(%"struct.std::complex"* dereferenceable(16) %12)
  br label %126

60:                                               ; preds = %6
  %61 = call { double, double } @_ZStmiIdESt7complexIT_ERKS2_S4_(%"struct.std::complex"* dereferenceable(16) %7, %"struct.std::complex"* dereferenceable(16) %8)
  %62 = getelementptr inbounds %"struct.std::complex", %"struct.std::complex"* %13, i32 0, i32 0
  %63 = getelementptr inbounds { double, double }, { double, double }* %62, i32 0, i32 0
  %64 = extractvalue { double, double } %61, 0
  store double %64, double* %63, align 8
  %65 = getelementptr inbounds { double, double }, { double, double }* %62, i32 0, i32 1
  %66 = extractvalue { double, double } %61, 1
  store double %66, double* %65, align 8
  %67 = call { double, double } @_ZStmiIdESt7complexIT_ERKS2_S4_(%"struct.std::complex"* dereferenceable(16) %9, %"struct.std::complex"* dereferenceable(16) %8)
  %68 = getelementptr inbounds %"struct.std::complex", %"struct.std::complex"* %14, i32 0, i32 0
  %69 = getelementptr inbounds { double, double }, { double, double }* %68, i32 0, i32 0
  %70 = extractvalue { double, double } %67, 0
  store double %70, double* %69, align 8
  %71 = getelementptr inbounds { double, double }, { double, double }* %68, i32 0, i32 1
  %72 = extractvalue { double, double } %67, 1
  store double %72, double* %71, align 8
  %73 = bitcast %"struct.std::complex"* %13 to { double, double }*
  %74 = getelementptr inbounds { double, double }, { double, double }* %73, i32 0, i32 0
  %75 = load double, double* %74, align 8
  %76 = getelementptr inbounds { double, double }, { double, double }* %73, i32 0, i32 1
  %77 = load double, double* %76, align 8
  %78 = bitcast %"struct.std::complex"* %14 to { double, double }*
  %79 = getelementptr inbounds { double, double }, { double, double }* %78, i32 0, i32 0
  %80 = load double, double* %79, align 8
  %81 = getelementptr inbounds { double, double }, { double, double }* %78, i32 0, i32 1
  %82 = load double, double* %81, align 8
  %83 = call double @_Z3dotSt7complexIdES0_(double %75, double %77, double %80, double %82)
  %84 = fcmp olt double %83, 1.000000e-10
  br i1 %84, label %85, label %93

85:                                               ; preds = %60
  %86 = call { double, double } @_ZStmiIdESt7complexIT_ERKS2_S4_(%"struct.std::complex"* dereferenceable(16) %9, %"struct.std::complex"* dereferenceable(16) %8)
  %87 = getelementptr inbounds %"struct.std::complex", %"struct.std::complex"* %15, i32 0, i32 0
  %88 = getelementptr inbounds { double, double }, { double, double }* %87, i32 0, i32 0
  %89 = extractvalue { double, double } %86, 0
  store double %89, double* %88, align 8
  %90 = getelementptr inbounds { double, double }, { double, double }* %87, i32 0, i32 1
  %91 = extractvalue { double, double } %86, 1
  store double %91, double* %90, align 8
  %92 = call double @_ZSt3absIdET_RKSt7complexIS0_E(%"struct.std::complex"* dereferenceable(16) %15)
  br label %126

93:                                               ; preds = %60
  %94 = call { double, double } @_ZStmiIdESt7complexIT_ERKS2_S4_(%"struct.std::complex"* dereferenceable(16) %8, %"struct.std::complex"* dereferenceable(16) %7)
  %95 = getelementptr inbounds %"struct.std::complex", %"struct.std::complex"* %16, i32 0, i32 0
  %96 = getelementptr inbounds { double, double }, { double, double }* %95, i32 0, i32 0
  %97 = extractvalue { double, double } %94, 0
  store double %97, double* %96, align 8
  %98 = getelementptr inbounds { double, double }, { double, double }* %95, i32 0, i32 1
  %99 = extractvalue { double, double } %94, 1
  store double %99, double* %98, align 8
  %100 = call { double, double } @_ZStmiIdESt7complexIT_ERKS2_S4_(%"struct.std::complex"* dereferenceable(16) %9, %"struct.std::complex"* dereferenceable(16) %7)
  %101 = getelementptr inbounds %"struct.std::complex", %"struct.std::complex"* %17, i32 0, i32 0
  %102 = getelementptr inbounds { double, double }, { double, double }* %101, i32 0, i32 0
  %103 = extractvalue { double, double } %100, 0
  store double %103, double* %102, align 8
  %104 = getelementptr inbounds { double, double }, { double, double }* %101, i32 0, i32 1
  %105 = extractvalue { double, double } %100, 1
  store double %105, double* %104, align 8
  %106 = bitcast %"struct.std::complex"* %16 to { double, double }*
  %107 = getelementptr inbounds { double, double }, { double, double }* %106, i32 0, i32 0
  %108 = load double, double* %107, align 8
  %109 = getelementptr inbounds { double, double }, { double, double }* %106, i32 0, i32 1
  %110 = load double, double* %109, align 8
  %111 = bitcast %"struct.std::complex"* %17 to { double, double }*
  %112 = getelementptr inbounds { double, double }, { double, double }* %111, i32 0, i32 0
  %113 = load double, double* %112, align 8
  %114 = getelementptr inbounds { double, double }, { double, double }* %111, i32 0, i32 1
  %115 = load double, double* %114, align 8
  %116 = call double @_Z5crossSt7complexIdES0_(double %108, double %110, double %113, double %115)
  %117 = call double @_ZSt3absd(double %116)
  %118 = call { double, double } @_ZStmiIdESt7complexIT_ERKS2_S4_(%"struct.std::complex"* dereferenceable(16) %8, %"struct.std::complex"* dereferenceable(16) %7)
  %119 = getelementptr inbounds %"struct.std::complex", %"struct.std::complex"* %18, i32 0, i32 0
  %120 = getelementptr inbounds { double, double }, { double, double }* %119, i32 0, i32 0
  %121 = extractvalue { double, double } %118, 0
  store double %121, double* %120, align 8
  %122 = getelementptr inbounds { double, double }, { double, double }* %119, i32 0, i32 1
  %123 = extractvalue { double, double } %118, 1
  store double %123, double* %122, align 8
  %124 = call double @_ZSt3absIdET_RKSt7complexIS0_E(%"struct.std::complex"* dereferenceable(16) %18)
  %125 = fdiv double %117, %124
  br label %126

126:                                              ; preds = %93, %85, %52
  %.0 = phi double [ %59, %52 ], [ %92, %85 ], [ %125, %93 ]
  ret double %.0
}

; Function Attrs: noinline uwtable
define internal void @__cxx_global_var_init.2() #0 section ".text.startup" {
  call void @_ZNSt3setI5PointSt4lessIS0_ESaIS0_EEC2Ev(%"class.std::set"* @tp) #3
  %1 = call i32 @__cxa_atexit(void (i8*)* bitcast (void (%"class.std::set"*)* @_ZNSt3setI5PointSt4lessIS0_ESaIS0_EED2Ev to void (i8*)*), i8* getelementptr inbounds (%"class.std::set", %"class.std::set"* @tp, i32 0, i32 0, i32 0, i32 0, i32 0, i32 0), i8* @__dso_handle) #3
  ret void
}

; Function Attrs: noinline nounwind uwtable
define linkonce_odr void @_ZNSt3setI5PointSt4lessIS0_ESaIS0_EEC2Ev(%"class.std::set"* %0) unnamed_addr #4 comdat align 2 {
  %2 = getelementptr inbounds %"class.std::set", %"class.std::set"* %0, i32 0, i32 0
  call void @_ZNSt8_Rb_treeI5PointS0_St9_IdentityIS0_ESt4lessIS0_ESaIS0_EEC2Ev(%"class.std::_Rb_tree"* %2) #3
  ret void
}

; Function Attrs: noinline nounwind uwtable
define linkonce_odr void @_ZNSt3setI5PointSt4lessIS0_ESaIS0_EED2Ev(%"class.std::set"* %0) unnamed_addr #4 comdat align 2 {
  %2 = getelementptr inbounds %"class.std::set", %"class.std::set"* %0, i32 0, i32 0
  call void @_ZNSt8_Rb_treeI5PointS0_St9_IdentityIS0_ESt4lessIS0_ESaIS0_EED2Ev(%"class.std::_Rb_tree"* %2) #3
  ret void
}

; Function Attrs: noinline uwtable
define internal void @__cxx_global_var_init.3() #0 section ".text.startup" {
  call void @_ZNSt3setI5PointSt4lessIS0_ESaIS0_EEC2Ev(%"class.std::set"* @cp) #3
  %1 = call i32 @__cxa_atexit(void (i8*)* bitcast (void (%"class.std::set"*)* @_ZNSt3setI5PointSt4lessIS0_ESaIS0_EED2Ev to void (i8*)*), i8* getelementptr inbounds (%"class.std::set", %"class.std::set"* @cp, i32 0, i32 0, i32 0, i32 0, i32 0, i32 0), i8* @__dso_handle) #3
  ret void
}

; Function Attrs: noinline uwtable
define void @_Z3dfsiRiS_S_RSt6vectorISt7complexIdESaIS2_EEbi(i32 %0, i32* dereferenceable(4) %1, i32* dereferenceable(4) %2, i32* dereferenceable(4) %3, %"class.std::vector"* dereferenceable(24) %4, i1 zeroext %5, i32 %6) #0 {
  %8 = alloca [2 x i8], align 1
  %9 = alloca %class.Point, align 8
  %10 = alloca %"struct.std::complex", align 8
  %11 = alloca %"struct.std::pair", align 8
  %12 = alloca %"struct.std::complex", align 8
  %13 = alloca %"struct.std::complex", align 8
  %14 = alloca %"struct.std::complex", align 8
  %15 = alloca %class.Point, align 8
  %16 = alloca %"struct.std::complex", align 8
  %17 = alloca %"struct.std::pair", align 8
  %18 = alloca %"struct.std::complex", align 8
  %19 = alloca %"struct.std::complex", align 8
  %20 = alloca %"struct.std::complex", align 8
  %21 = alloca %class.Point, align 8
  %22 = alloca %"struct.std::complex", align 8
  %23 = alloca %"struct.std::pair", align 8
  %24 = zext i1 %5 to i8
  %25 = load i32, i32* %3, align 4
  %26 = add nsw i32 %25, 1
  store i32 %26, i32* %3, align 4
  %27 = sext i32 %0 to i64
  %28 = getelementptr inbounds [1001 x i8], [1001 x i8]* @passed, i64 0, i64 %27
  store i8 1, i8* %28, align 1
  %29 = getelementptr inbounds [2 x i8], [2 x i8]* %8, i64 0, i64 1
  store i8 0, i8* %29, align 1
  %30 = getelementptr inbounds [2 x i8], [2 x i8]* %8, i64 0, i64 0
  store i8 0, i8* %30, align 1
  br label %31

31:                                               ; preds = %216, %7
  %.05 = phi i8 [ 0, %7 ], [ %.1, %216 ]
  %.04 = phi i32 [ 0, %7 ], [ %217, %216 ]
  %32 = icmp slt i32 %.04, 2
  br i1 %32, label %33, label %218

33:                                               ; preds = %31
  br label %34

34:                                               ; preds = %213, %33
  %.1 = phi i8 [ %.05, %33 ], [ %.7, %213 ]
  %.03 = phi i32 [ 0, %33 ], [ %214, %213 ]
  %35 = load i32, i32* @n, align 4
  %36 = icmp slt i32 %.03, %35
  br i1 %36, label %37, label %215

37:                                               ; preds = %34
  %38 = icmp eq i32 %.03, %6
  br i1 %38, label %41, label %39

39:                                               ; preds = %37
  %40 = icmp eq i32 %.03, %0
  br i1 %40, label %41, label %42

41:                                               ; preds = %39, %37
  br label %213

42:                                               ; preds = %39
  br label %43

43:                                               ; preds = %98, %42
  %.2 = phi i8 [ %.1, %42 ], [ %.4, %98 ]
  %.02 = phi i32 [ 0, %42 ], [ %99, %98 ]
  %44 = icmp slt i32 %.02, 2
  br i1 %44, label %45, label %100

45:                                               ; preds = %43
  %46 = sext i32 %0 to i64
  %47 = getelementptr inbounds [1001 x [2 x %"struct.std::complex"]], [1001 x [2 x %"struct.std::complex"]]* @lines, i64 0, i64 %46
  %48 = sext i32 %.04 to i64
  %49 = getelementptr inbounds [2 x %"struct.std::complex"], [2 x %"struct.std::complex"]* %47, i64 0, i64 %48
  %50 = call double @_ZNKSt7complexIdE4realB5cxx11Ev(%"struct.std::complex"* %49)
  %51 = sext i32 %.03 to i64
  %52 = getelementptr inbounds [1001 x [2 x %"struct.std::complex"]], [1001 x [2 x %"struct.std::complex"]]* @lines, i64 0, i64 %51
  %53 = sext i32 %.02 to i64
  %54 = getelementptr inbounds [2 x %"struct.std::complex"], [2 x %"struct.std::complex"]* %52, i64 0, i64 %53
  %55 = call double @_ZNKSt7complexIdE4realB5cxx11Ev(%"struct.std::complex"* %54)
  %56 = fsub double %50, %55
  %57 = call double @_ZSt3absd(double %56)
  %58 = fcmp olt double %57, 1.000000e-10
  br i1 %58, label %59, label %97

59:                                               ; preds = %45
  %60 = sext i32 %0 to i64
  %61 = getelementptr inbounds [1001 x [2 x %"struct.std::complex"]], [1001 x [2 x %"struct.std::complex"]]* @lines, i64 0, i64 %60
  %62 = sext i32 %.04 to i64
  %63 = getelementptr inbounds [2 x %"struct.std::complex"], [2 x %"struct.std::complex"]* %61, i64 0, i64 %62
  %64 = call double @_ZNKSt7complexIdE4imagB5cxx11Ev(%"struct.std::complex"* %63)
  %65 = sext i32 %.03 to i64
  %66 = getelementptr inbounds [1001 x [2 x %"struct.std::complex"]], [1001 x [2 x %"struct.std::complex"]]* @lines, i64 0, i64 %65
  %67 = sext i32 %.02 to i64
  %68 = getelementptr inbounds [2 x %"struct.std::complex"], [2 x %"struct.std::complex"]* %66, i64 0, i64 %67
  %69 = call double @_ZNKSt7complexIdE4imagB5cxx11Ev(%"struct.std::complex"* %68)
  %70 = fsub double %64, %69
  %71 = call double @_ZSt3absd(double %70)
  %72 = fcmp olt double %71, 1.000000e-10
  br i1 %72, label %73, label %97

73:                                               ; preds = %59
  %74 = sext i32 %.03 to i64
  %75 = getelementptr inbounds [1001 x [2 x %"struct.std::complex"]], [1001 x [2 x %"struct.std::complex"]]* @lines, i64 0, i64 %74
  %76 = sext i32 %.02 to i64
  %77 = getelementptr inbounds [2 x %"struct.std::complex"], [2 x %"struct.std::complex"]* %75, i64 0, i64 %76
  %78 = bitcast %"struct.std::complex"* %10 to i8*
  %79 = bitcast %"struct.std::complex"* %77 to i8*
  call void @llvm.memcpy.p0i8.p0i8.i64(i8* align 8 %78, i8* align 8 %79, i64 16, i1 false)
  %80 = bitcast %"struct.std::complex"* %10 to { double, double }*
  %81 = getelementptr inbounds { double, double }, { double, double }* %80, i32 0, i32 0
  %82 = load double, double* %81, align 8
  %83 = getelementptr inbounds { double, double }, { double, double }* %80, i32 0, i32 1
  %84 = load double, double* %83, align 8
  call void @_ZN5PointC2ESt7complexIdE(%class.Point* %9, double %82, double %84)
  %85 = call { %"struct.std::_Rb_tree_node_base"*, i8 } @_ZNSt3setI5PointSt4lessIS0_ESaIS0_EE6insertEOS0_(%"class.std::set"* @cp, %class.Point* dereferenceable(16) %9)
  %86 = bitcast %"struct.std::pair"* %11 to { %"struct.std::_Rb_tree_node_base"*, i8 }*
  %87 = getelementptr inbounds { %"struct.std::_Rb_tree_node_base"*, i8 }, { %"struct.std::_Rb_tree_node_base"*, i8 }* %86, i32 0, i32 0
  %88 = extractvalue { %"struct.std::_Rb_tree_node_base"*, i8 } %85, 0
  store %"struct.std::_Rb_tree_node_base"* %88, %"struct.std::_Rb_tree_node_base"** %87, align 8
  %89 = getelementptr inbounds { %"struct.std::_Rb_tree_node_base"*, i8 }, { %"struct.std::_Rb_tree_node_base"*, i8 }* %86, i32 0, i32 1
  %90 = extractvalue { %"struct.std::_Rb_tree_node_base"*, i8 } %85, 1
  store i8 %90, i8* %89, align 8
  %91 = sext i32 %.03 to i64
  %92 = getelementptr inbounds [1001 x i8], [1001 x i8]* @passed, i64 0, i64 %91
  %93 = load i8, i8* %92, align 1
  %94 = trunc i8 %93 to i1
  br i1 %94, label %96, label %95

95:                                               ; preds = %73
  call void @_Z3dfsiRiS_S_RSt6vectorISt7complexIdESaIS2_EEbi(i32 %.03, i32* dereferenceable(4) %1, i32* dereferenceable(4) %2, i32* dereferenceable(4) %3, %"class.std::vector"* dereferenceable(24) %4, i1 zeroext false, i32 %.03)
  br label %96

96:                                               ; preds = %95, %73
  %.3 = phi i8 [ %.2, %73 ], [ 1, %95 ]
  br label %97

97:                                               ; preds = %96, %59, %45
  %.4 = phi i8 [ %.3, %96 ], [ %.2, %59 ], [ %.2, %45 ]
  br label %98

98:                                               ; preds = %97
  %99 = add nsw i32 %.02, 1
  br label %43

100:                                              ; preds = %43
  %101 = sext i32 %.03 to i64
  %102 = getelementptr inbounds [1001 x [2 x %"struct.std::complex"]], [1001 x [2 x %"struct.std::complex"]]* @lines, i64 0, i64 %101
  %103 = getelementptr inbounds [2 x %"struct.std::complex"], [2 x %"struct.std::complex"]* %102, i64 0, i64 0
  %104 = bitcast %"struct.std::complex"* %12 to i8*
  %105 = bitcast %"struct.std::complex"* %103 to i8*
  call void @llvm.memcpy.p0i8.p0i8.i64(i8* align 8 %104, i8* align 8 %105, i64 16, i1 false)
  %106 = sext i32 %.03 to i64
  %107 = getelementptr inbounds [1001 x [2 x %"struct.std::complex"]], [1001 x [2 x %"struct.std::complex"]]* @lines, i64 0, i64 %106
  %108 = getelementptr inbounds [2 x %"struct.std::complex"], [2 x %"struct.std::complex"]* %107, i64 0, i64 1
  %109 = bitcast %"struct.std::complex"* %13 to i8*
  %110 = bitcast %"struct.std::complex"* %108 to i8*
  call void @llvm.memcpy.p0i8.p0i8.i64(i8* align 8 %109, i8* align 8 %110, i64 16, i1 false)
  %111 = sext i32 %0 to i64
  %112 = getelementptr inbounds [1001 x [2 x %"struct.std::complex"]], [1001 x [2 x %"struct.std::complex"]]* @lines, i64 0, i64 %111
  %113 = sext i32 %.04 to i64
  %114 = getelementptr inbounds [2 x %"struct.std::complex"], [2 x %"struct.std::complex"]* %112, i64 0, i64 %113
  %115 = bitcast %"struct.std::complex"* %14 to i8*
  %116 = bitcast %"struct.std::complex"* %114 to i8*
  call void @llvm.memcpy.p0i8.p0i8.i64(i8* align 8 %115, i8* align 8 %116, i64 16, i1 false)
  %117 = bitcast %"struct.std::complex"* %12 to { double, double }*
  %118 = getelementptr inbounds { double, double }, { double, double }* %117, i32 0, i32 0
  %119 = load double, double* %118, align 8
  %120 = getelementptr inbounds { double, double }, { double, double }* %117, i32 0, i32 1
  %121 = load double, double* %120, align 8
  %122 = bitcast %"struct.std::complex"* %13 to { double, double }*
  %123 = getelementptr inbounds { double, double }, { double, double }* %122, i32 0, i32 0
  %124 = load double, double* %123, align 8
  %125 = getelementptr inbounds { double, double }, { double, double }* %122, i32 0, i32 1
  %126 = load double, double* %125, align 8
  %127 = bitcast %"struct.std::complex"* %14 to { double, double }*
  %128 = getelementptr inbounds { double, double }, { double, double }* %127, i32 0, i32 0
  %129 = load double, double* %128, align 8
  %130 = getelementptr inbounds { double, double }, { double, double }* %127, i32 0, i32 1
  %131 = load double, double* %130, align 8
  %132 = call double @_Z13distance_ls_pSt7complexIdES0_S0_(double %119, double %121, double %124, double %126, double %129, double %131)
  %133 = fsub double %132, 0.000000e+00
  %134 = call double @_ZSt3absd(double %133)
  %135 = fcmp olt double %134, 1.000000e-10
  br i1 %135, label %136, label %212

136:                                              ; preds = %100
  %137 = sext i32 %.03 to i64
  %138 = getelementptr inbounds [1001 x [2 x %"struct.std::complex"]], [1001 x [2 x %"struct.std::complex"]]* @lines, i64 0, i64 %137
  %139 = getelementptr inbounds [2 x %"struct.std::complex"], [2 x %"struct.std::complex"]* %138, i64 0, i64 0
  %140 = call double @_ZNKSt7complexIdE4realB5cxx11Ev(%"struct.std::complex"* %139)
  %141 = sext i32 %0 to i64
  %142 = getelementptr inbounds [1001 x [2 x %"struct.std::complex"]], [1001 x [2 x %"struct.std::complex"]]* @lines, i64 0, i64 %141
  %143 = sext i32 %.04 to i64
  %144 = getelementptr inbounds [2 x %"struct.std::complex"], [2 x %"struct.std::complex"]* %142, i64 0, i64 %143
  %145 = call double @_ZNKSt7complexIdE4realB5cxx11Ev(%"struct.std::complex"* %144)
  %146 = fsub double %140, %145
  %147 = call double @_ZSt3absd(double %146)
  %148 = fcmp olt double %147, 1.000000e-10
  br i1 %148, label %149, label %162

149:                                              ; preds = %136
  %150 = sext i32 %.03 to i64
  %151 = getelementptr inbounds [1001 x [2 x %"struct.std::complex"]], [1001 x [2 x %"struct.std::complex"]]* @lines, i64 0, i64 %150
  %152 = getelementptr inbounds [2 x %"struct.std::complex"], [2 x %"struct.std::complex"]* %151, i64 0, i64 0
  %153 = call double @_ZNKSt7complexIdE4imagB5cxx11Ev(%"struct.std::complex"* %152)
  %154 = sext i32 %0 to i64
  %155 = getelementptr inbounds [1001 x [2 x %"struct.std::complex"]], [1001 x [2 x %"struct.std::complex"]]* @lines, i64 0, i64 %154
  %156 = sext i32 %.04 to i64
  %157 = getelementptr inbounds [2 x %"struct.std::complex"], [2 x %"struct.std::complex"]* %155, i64 0, i64 %156
  %158 = call double @_ZNKSt7complexIdE4imagB5cxx11Ev(%"struct.std::complex"* %157)
  %159 = fsub double %153, %158
  %160 = call double @_ZSt3absd(double %159)
  %161 = fcmp olt double %160, 1.000000e-10
  br i1 %161, label %212, label %162

162:                                              ; preds = %149, %136
  %163 = sext i32 %.03 to i64
  %164 = getelementptr inbounds [1001 x [2 x %"struct.std::complex"]], [1001 x [2 x %"struct.std::complex"]]* @lines, i64 0, i64 %163
  %165 = getelementptr inbounds [2 x %"struct.std::complex"], [2 x %"struct.std::complex"]* %164, i64 0, i64 1
  %166 = call double @_ZNKSt7complexIdE4realB5cxx11Ev(%"struct.std::complex"* %165)
  %167 = sext i32 %0 to i64
  %168 = getelementptr inbounds [1001 x [2 x %"struct.std::complex"]], [1001 x [2 x %"struct.std::complex"]]* @lines, i64 0, i64 %167
  %169 = sext i32 %.04 to i64
  %170 = getelementptr inbounds [2 x %"struct.std::complex"], [2 x %"struct.std::complex"]* %168, i64 0, i64 %169
  %171 = call double @_ZNKSt7complexIdE4realB5cxx11Ev(%"struct.std::complex"* %170)
  %172 = fsub double %166, %171
  %173 = call double @_ZSt3absd(double %172)
  %174 = fcmp olt double %173, 1.000000e-10
  br i1 %174, label %175, label %188

175:                                              ; preds = %162
  %176 = sext i32 %.03 to i64
  %177 = getelementptr inbounds [1001 x [2 x %"struct.std::complex"]], [1001 x [2 x %"struct.std::complex"]]* @lines, i64 0, i64 %176
  %178 = getelementptr inbounds [2 x %"struct.std::complex"], [2 x %"struct.std::complex"]* %177, i64 0, i64 1
  %179 = call double @_ZNKSt7complexIdE4imagB5cxx11Ev(%"struct.std::complex"* %178)
  %180 = sext i32 %0 to i64
  %181 = getelementptr inbounds [1001 x [2 x %"struct.std::complex"]], [1001 x [2 x %"struct.std::complex"]]* @lines, i64 0, i64 %180
  %182 = sext i32 %.04 to i64
  %183 = getelementptr inbounds [2 x %"struct.std::complex"], [2 x %"struct.std::complex"]* %181, i64 0, i64 %182
  %184 = call double @_ZNKSt7complexIdE4imagB5cxx11Ev(%"struct.std::complex"* %183)
  %185 = fsub double %179, %184
  %186 = call double @_ZSt3absd(double %185)
  %187 = fcmp olt double %186, 1.000000e-10
  br i1 %187, label %212, label %188

188:                                              ; preds = %175, %162
  %189 = sext i32 %0 to i64
  %190 = getelementptr inbounds [1001 x [2 x %"struct.std::complex"]], [1001 x [2 x %"struct.std::complex"]]* @lines, i64 0, i64 %189
  %191 = sext i32 %.04 to i64
  %192 = getelementptr inbounds [2 x %"struct.std::complex"], [2 x %"struct.std::complex"]* %190, i64 0, i64 %191
  %193 = bitcast %"struct.std::complex"* %16 to i8*
  %194 = bitcast %"struct.std::complex"* %192 to i8*
  call void @llvm.memcpy.p0i8.p0i8.i64(i8* align 8 %193, i8* align 8 %194, i64 16, i1 false)
  %195 = bitcast %"struct.std::complex"* %16 to { double, double }*
  %196 = getelementptr inbounds { double, double }, { double, double }* %195, i32 0, i32 0
  %197 = load double, double* %196, align 8
  %198 = getelementptr inbounds { double, double }, { double, double }* %195, i32 0, i32 1
  %199 = load double, double* %198, align 8
  call void @_ZN5PointC2ESt7complexIdE(%class.Point* %15, double %197, double %199)
  %200 = call { %"struct.std::_Rb_tree_node_base"*, i8 } @_ZNSt3setI5PointSt4lessIS0_ESaIS0_EE6insertEOS0_(%"class.std::set"* @tp, %class.Point* dereferenceable(16) %15)
  %201 = bitcast %"struct.std::pair"* %17 to { %"struct.std::_Rb_tree_node_base"*, i8 }*
  %202 = getelementptr inbounds { %"struct.std::_Rb_tree_node_base"*, i8 }, { %"struct.std::_Rb_tree_node_base"*, i8 }* %201, i32 0, i32 0
  %203 = extractvalue { %"struct.std::_Rb_tree_node_base"*, i8 } %200, 0
  store %"struct.std::_Rb_tree_node_base"* %203, %"struct.std::_Rb_tree_node_base"** %202, align 8
  %204 = getelementptr inbounds { %"struct.std::_Rb_tree_node_base"*, i8 }, { %"struct.std::_Rb_tree_node_base"*, i8 }* %201, i32 0, i32 1
  %205 = extractvalue { %"struct.std::_Rb_tree_node_base"*, i8 } %200, 1
  store i8 %205, i8* %204, align 8
  %206 = sext i32 %.03 to i64
  %207 = getelementptr inbounds [1001 x i8], [1001 x i8]* @passed, i64 0, i64 %206
  %208 = load i8, i8* %207, align 1
  %209 = trunc i8 %208 to i1
  br i1 %209, label %211, label %210

210:                                              ; preds = %188
  call void @_Z3dfsiRiS_S_RSt6vectorISt7complexIdESaIS2_EEbi(i32 %.03, i32* dereferenceable(4) %1, i32* dereferenceable(4) %2, i32* dereferenceable(4) %3, %"class.std::vector"* dereferenceable(24) %4, i1 zeroext false, i32 %.03)
  br label %211

211:                                              ; preds = %210, %188
  %.5 = phi i8 [ %.2, %188 ], [ 1, %210 ]
  br label %212

212:                                              ; preds = %211, %175, %149, %100
  %.6 = phi i8 [ %.2, %149 ], [ %.2, %175 ], [ %.5, %211 ], [ %.2, %100 ]
  br label %213

213:                                              ; preds = %212, %41
  %.7 = phi i8 [ %.1, %41 ], [ %.6, %212 ]
  %214 = add nsw i32 %.03, 1
  br label %34

215:                                              ; preds = %34
  br label %216

216:                                              ; preds = %215
  %217 = add nsw i32 %.04, 1
  br label %31

218:                                              ; preds = %31
  br label %219

219:                                              ; preds = %346, %218
  %.8 = phi i8 [ %.05, %218 ], [ %.12, %346 ]
  %.01 = phi i32 [ 0, %218 ], [ %347, %346 ]
  %220 = load i32, i32* @n, align 4
  %221 = icmp slt i32 %.01, %220
  br i1 %221, label %222, label %348

222:                                              ; preds = %219
  %223 = icmp eq i32 %.01, %0
  br i1 %223, label %226, label %224

224:                                              ; preds = %222
  %225 = icmp eq i32 %.01, %6
  br i1 %225, label %226, label %227

226:                                              ; preds = %224, %222
  br label %346

227:                                              ; preds = %224
  br label %228

228:                                              ; preds = %343, %227
  %.9 = phi i8 [ %.8, %227 ], [ %.11, %343 ]
  %.0 = phi i32 [ 0, %227 ], [ %344, %343 ]
  %229 = icmp slt i32 %.0, 2
  br i1 %229, label %230, label %345

230:                                              ; preds = %228
  %231 = sext i32 %0 to i64
  %232 = getelementptr inbounds [1001 x [2 x %"struct.std::complex"]], [1001 x [2 x %"struct.std::complex"]]* @lines, i64 0, i64 %231
  %233 = getelementptr inbounds [2 x %"struct.std::complex"], [2 x %"struct.std::complex"]* %232, i64 0, i64 0
  %234 = bitcast %"struct.std::complex"* %18 to i8*
  %235 = bitcast %"struct.std::complex"* %233 to i8*
  call void @llvm.memcpy.p0i8.p0i8.i64(i8* align 8 %234, i8* align 8 %235, i64 16, i1 false)
  %236 = sext i32 %0 to i64
  %237 = getelementptr inbounds [1001 x [2 x %"struct.std::complex"]], [1001 x [2 x %"struct.std::complex"]]* @lines, i64 0, i64 %236
  %238 = getelementptr inbounds [2 x %"struct.std::complex"], [2 x %"struct.std::complex"]* %237, i64 0, i64 1
  %239 = bitcast %"struct.std::complex"* %19 to i8*
  %240 = bitcast %"struct.std::complex"* %238 to i8*
  call void @llvm.memcpy.p0i8.p0i8.i64(i8* align 8 %239, i8* align 8 %240, i64 16, i1 false)
  %241 = sext i32 %.01 to i64
  %242 = getelementptr inbounds [1001 x [2 x %"struct.std::complex"]], [1001 x [2 x %"struct.std::complex"]]* @lines, i64 0, i64 %241
  %243 = sext i32 %.0 to i64
  %244 = getelementptr inbounds [2 x %"struct.std::complex"], [2 x %"struct.std::complex"]* %242, i64 0, i64 %243
  %245 = bitcast %"struct.std::complex"* %20 to i8*
  %246 = bitcast %"struct.std::complex"* %244 to i8*
  call void @llvm.memcpy.p0i8.p0i8.i64(i8* align 8 %245, i8* align 8 %246, i64 16, i1 false)
  %247 = bitcast %"struct.std::complex"* %18 to { double, double }*
  %248 = getelementptr inbounds { double, double }, { double, double }* %247, i32 0, i32 0
  %249 = load double, double* %248, align 8
  %250 = getelementptr inbounds { double, double }, { double, double }* %247, i32 0, i32 1
  %251 = load double, double* %250, align 8
  %252 = bitcast %"struct.std::complex"* %19 to { double, double }*
  %253 = getelementptr inbounds { double, double }, { double, double }* %252, i32 0, i32 0
  %254 = load double, double* %253, align 8
  %255 = getelementptr inbounds { double, double }, { double, double }* %252, i32 0, i32 1
  %256 = load double, double* %255, align 8
  %257 = bitcast %"struct.std::complex"* %20 to { double, double }*
  %258 = getelementptr inbounds { double, double }, { double, double }* %257, i32 0, i32 0
  %259 = load double, double* %258, align 8
  %260 = getelementptr inbounds { double, double }, { double, double }* %257, i32 0, i32 1
  %261 = load double, double* %260, align 8
  %262 = call double @_Z13distance_ls_pSt7complexIdES0_S0_(double %249, double %251, double %254, double %256, double %259, double %261)
  %263 = fsub double %262, 0.000000e+00
  %264 = call double @_ZSt3absd(double %263)
  %265 = fcmp olt double %264, 1.000000e-10
  br i1 %265, label %266, label %342

266:                                              ; preds = %230
  %267 = sext i32 %0 to i64
  %268 = getelementptr inbounds [1001 x [2 x %"struct.std::complex"]], [1001 x [2 x %"struct.std::complex"]]* @lines, i64 0, i64 %267
  %269 = getelementptr inbounds [2 x %"struct.std::complex"], [2 x %"struct.std::complex"]* %268, i64 0, i64 0
  %270 = call double @_ZNKSt7complexIdE4realB5cxx11Ev(%"struct.std::complex"* %269)
  %271 = sext i32 %.01 to i64
  %272 = getelementptr inbounds [1001 x [2 x %"struct.std::complex"]], [1001 x [2 x %"struct.std::complex"]]* @lines, i64 0, i64 %271
  %273 = sext i32 %.0 to i64
  %274 = getelementptr inbounds [2 x %"struct.std::complex"], [2 x %"struct.std::complex"]* %272, i64 0, i64 %273
  %275 = call double @_ZNKSt7complexIdE4realB5cxx11Ev(%"struct.std::complex"* %274)
  %276 = fsub double %270, %275
  %277 = call double @_ZSt3absd(double %276)
  %278 = fcmp olt double %277, 1.000000e-10
  br i1 %278, label %279, label %292

279:                                              ; preds = %266
  %280 = sext i32 %0 to i64
  %281 = getelementptr inbounds [1001 x [2 x %"struct.std::complex"]], [1001 x [2 x %"struct.std::complex"]]* @lines, i64 0, i64 %280
  %282 = getelementptr inbounds [2 x %"struct.std::complex"], [2 x %"struct.std::complex"]* %281, i64 0, i64 0
  %283 = call double @_ZNKSt7complexIdE4imagB5cxx11Ev(%"struct.std::complex"* %282)
  %284 = sext i32 %.01 to i64
  %285 = getelementptr inbounds [1001 x [2 x %"struct.std::complex"]], [1001 x [2 x %"struct.std::complex"]]* @lines, i64 0, i64 %284
  %286 = sext i32 %.0 to i64
  %287 = getelementptr inbounds [2 x %"struct.std::complex"], [2 x %"struct.std::complex"]* %285, i64 0, i64 %286
  %288 = call double @_ZNKSt7complexIdE4imagB5cxx11Ev(%"struct.std::complex"* %287)
  %289 = fsub double %283, %288
  %290 = call double @_ZSt3absd(double %289)
  %291 = fcmp olt double %290, 1.000000e-10
  br i1 %291, label %342, label %292

292:                                              ; preds = %279, %266
  %293 = sext i32 %0 to i64
  %294 = getelementptr inbounds [1001 x [2 x %"struct.std::complex"]], [1001 x [2 x %"struct.std::complex"]]* @lines, i64 0, i64 %293
  %295 = getelementptr inbounds [2 x %"struct.std::complex"], [2 x %"struct.std::complex"]* %294, i64 0, i64 1
  %296 = call double @_ZNKSt7complexIdE4realB5cxx11Ev(%"struct.std::complex"* %295)
  %297 = sext i32 %.01 to i64
  %298 = getelementptr inbounds [1001 x [2 x %"struct.std::complex"]], [1001 x [2 x %"struct.std::complex"]]* @lines, i64 0, i64 %297
  %299 = sext i32 %.0 to i64
  %300 = getelementptr inbounds [2 x %"struct.std::complex"], [2 x %"struct.std::complex"]* %298, i64 0, i64 %299
  %301 = call double @_ZNKSt7complexIdE4realB5cxx11Ev(%"struct.std::complex"* %300)
  %302 = fsub double %296, %301
  %303 = call double @_ZSt3absd(double %302)
  %304 = fcmp olt double %303, 1.000000e-10
  br i1 %304, label %305, label %318

305:                                              ; preds = %292
  %306 = sext i32 %0 to i64
  %307 = getelementptr inbounds [1001 x [2 x %"struct.std::complex"]], [1001 x [2 x %"struct.std::complex"]]* @lines, i64 0, i64 %306
  %308 = getelementptr inbounds [2 x %"struct.std::complex"], [2 x %"struct.std::complex"]* %307, i64 0, i64 1
  %309 = call double @_ZNKSt7complexIdE4imagB5cxx11Ev(%"struct.std::complex"* %308)
  %310 = sext i32 %.01 to i64
  %311 = getelementptr inbounds [1001 x [2 x %"struct.std::complex"]], [1001 x [2 x %"struct.std::complex"]]* @lines, i64 0, i64 %310
  %312 = sext i32 %.0 to i64
  %313 = getelementptr inbounds [2 x %"struct.std::complex"], [2 x %"struct.std::complex"]* %311, i64 0, i64 %312
  %314 = call double @_ZNKSt7complexIdE4imagB5cxx11Ev(%"struct.std::complex"* %313)
  %315 = fsub double %309, %314
  %316 = call double @_ZSt3absd(double %315)
  %317 = fcmp olt double %316, 1.000000e-10
  br i1 %317, label %342, label %318

318:                                              ; preds = %305, %292
  %319 = sext i32 %.01 to i64
  %320 = getelementptr inbounds [1001 x [2 x %"struct.std::complex"]], [1001 x [2 x %"struct.std::complex"]]* @lines, i64 0, i64 %319
  %321 = sext i32 %.0 to i64
  %322 = getelementptr inbounds [2 x %"struct.std::complex"], [2 x %"struct.std::complex"]* %320, i64 0, i64 %321
  %323 = bitcast %"struct.std::complex"* %22 to i8*
  %324 = bitcast %"struct.std::complex"* %322 to i8*
  call void @llvm.memcpy.p0i8.p0i8.i64(i8* align 8 %323, i8* align 8 %324, i64 16, i1 false)
  %325 = bitcast %"struct.std::complex"* %22 to { double, double }*
  %326 = getelementptr inbounds { double, double }, { double, double }* %325, i32 0, i32 0
  %327 = load double, double* %326, align 8
  %328 = getelementptr inbounds { double, double }, { double, double }* %325, i32 0, i32 1
  %329 = load double, double* %328, align 8
  call void @_ZN5PointC2ESt7complexIdE(%class.Point* %21, double %327, double %329)
  %330 = call { %"struct.std::_Rb_tree_node_base"*, i8 } @_ZNSt3setI5PointSt4lessIS0_ESaIS0_EE6insertEOS0_(%"class.std::set"* @tp, %class.Point* dereferenceable(16) %21)
  %331 = bitcast %"struct.std::pair"* %23 to { %"struct.std::_Rb_tree_node_base"*, i8 }*
  %332 = getelementptr inbounds { %"struct.std::_Rb_tree_node_base"*, i8 }, { %"struct.std::_Rb_tree_node_base"*, i8 }* %331, i32 0, i32 0
  %333 = extractvalue { %"struct.std::_Rb_tree_node_base"*, i8 } %330, 0
  store %"struct.std::_Rb_tree_node_base"* %333, %"struct.std::_Rb_tree_node_base"** %332, align 8
  %334 = getelementptr inbounds { %"struct.std::_Rb_tree_node_base"*, i8 }, { %"struct.std::_Rb_tree_node_base"*, i8 }* %331, i32 0, i32 1
  %335 = extractvalue { %"struct.std::_Rb_tree_node_base"*, i8 } %330, 1
  store i8 %335, i8* %334, align 8
  %336 = sext i32 %.01 to i64
  %337 = getelementptr inbounds [1001 x i8], [1001 x i8]* @passed, i64 0, i64 %336
  %338 = load i8, i8* %337, align 1
  %339 = trunc i8 %338 to i1
  br i1 %339, label %341, label %340

340:                                              ; preds = %318
  call void @_Z3dfsiRiS_S_RSt6vectorISt7complexIdESaIS2_EEbi(i32 %.01, i32* dereferenceable(4) %1, i32* dereferenceable(4) %2, i32* dereferenceable(4) %3, %"class.std::vector"* dereferenceable(24) %4, i1 zeroext false, i32 %.01)
  br label %341

341:                                              ; preds = %340, %318
  %.10 = phi i8 [ %.9, %318 ], [ 1, %340 ]
  br label %342

342:                                              ; preds = %341, %305, %279, %230
  %.11 = phi i8 [ %.9, %279 ], [ %.9, %305 ], [ %.10, %341 ], [ %.9, %230 ]
  br label %343

343:                                              ; preds = %342
  %344 = add nsw i32 %.0, 1
  br label %228

345:                                              ; preds = %228
  br label %346

346:                                              ; preds = %345, %226
  %.12 = phi i8 [ %.8, %226 ], [ %.9, %345 ]
  %347 = add nsw i32 %.01, 1
  br label %219

348:                                              ; preds = %219
  %349 = trunc i8 %.8 to i1
  br i1 %349, label %491, label %350

350:                                              ; preds = %348
  %351 = icmp ne i32 %6, -1
  br i1 %351, label %352, label %491

352:                                              ; preds = %350
  call void @_ZNSt6vectorISt7complexIdESaIS1_EE5clearEv(%"class.std::vector"* %4) #3
  %353 = sext i32 %0 to i64
  %354 = getelementptr inbounds [1001 x [2 x %"struct.std::complex"]], [1001 x [2 x %"struct.std::complex"]]* @lines, i64 0, i64 %353
  %355 = getelementptr inbounds [2 x %"struct.std::complex"], [2 x %"struct.std::complex"]* %354, i64 0, i64 0
  %356 = call double @_ZNKSt7complexIdE4realB5cxx11Ev(%"struct.std::complex"* %355)
  %357 = sext i32 %6 to i64
  %358 = getelementptr inbounds [1001 x [2 x %"struct.std::complex"]], [1001 x [2 x %"struct.std::complex"]]* @lines, i64 0, i64 %357
  %359 = getelementptr inbounds [2 x %"struct.std::complex"], [2 x %"struct.std::complex"]* %358, i64 0, i64 0
  %360 = call double @_ZNKSt7complexIdE4realB5cxx11Ev(%"struct.std::complex"* %359)
  %361 = fsub double %356, %360
  %362 = call double @_ZSt3absd(double %361)
  %363 = fcmp olt double %362, 1.000000e-10
  br i1 %363, label %364, label %386

364:                                              ; preds = %352
  %365 = sext i32 %0 to i64
  %366 = getelementptr inbounds [1001 x [2 x %"struct.std::complex"]], [1001 x [2 x %"struct.std::complex"]]* @lines, i64 0, i64 %365
  %367 = getelementptr inbounds [2 x %"struct.std::complex"], [2 x %"struct.std::complex"]* %366, i64 0, i64 0
  %368 = call double @_ZNKSt7complexIdE4imagB5cxx11Ev(%"struct.std::complex"* %367)
  %369 = sext i32 %6 to i64
  %370 = getelementptr inbounds [1001 x [2 x %"struct.std::complex"]], [1001 x [2 x %"struct.std::complex"]]* @lines, i64 0, i64 %369
  %371 = getelementptr inbounds [2 x %"struct.std::complex"], [2 x %"struct.std::complex"]* %370, i64 0, i64 0
  %372 = call double @_ZNKSt7complexIdE4imagB5cxx11Ev(%"struct.std::complex"* %371)
  %373 = fsub double %368, %372
  %374 = call double @_ZSt3absd(double %373)
  %375 = fcmp olt double %374, 1.000000e-10
  br i1 %375, label %376, label %386

376:                                              ; preds = %364
  %377 = sext i32 %0 to i64
  %378 = getelementptr inbounds [1001 x [2 x %"struct.std::complex"]], [1001 x [2 x %"struct.std::complex"]]* @lines, i64 0, i64 %377
  %379 = getelementptr inbounds [2 x %"struct.std::complex"], [2 x %"struct.std::complex"]* %378, i64 0, i64 1
  call void @_ZNSt6vectorISt7complexIdESaIS1_EE9push_backERKS1_(%"class.std::vector"* %4, %"struct.std::complex"* dereferenceable(16) %379)
  %380 = sext i32 %0 to i64
  %381 = getelementptr inbounds [1001 x [2 x %"struct.std::complex"]], [1001 x [2 x %"struct.std::complex"]]* @lines, i64 0, i64 %380
  %382 = getelementptr inbounds [2 x %"struct.std::complex"], [2 x %"struct.std::complex"]* %381, i64 0, i64 0
  call void @_ZNSt6vectorISt7complexIdESaIS1_EE9push_backERKS1_(%"class.std::vector"* %4, %"struct.std::complex"* dereferenceable(16) %382)
  %383 = sext i32 %6 to i64
  %384 = getelementptr inbounds [1001 x [2 x %"struct.std::complex"]], [1001 x [2 x %"struct.std::complex"]]* @lines, i64 0, i64 %383
  %385 = getelementptr inbounds [2 x %"struct.std::complex"], [2 x %"struct.std::complex"]* %384, i64 0, i64 1
  call void @_ZNSt6vectorISt7complexIdESaIS1_EE9push_backERKS1_(%"class.std::vector"* %4, %"struct.std::complex"* dereferenceable(16) %385)
  br label %421

386:                                              ; preds = %364, %352
  %387 = sext i32 %0 to i64
  %388 = getelementptr inbounds [1001 x [2 x %"struct.std::complex"]], [1001 x [2 x %"struct.std::complex"]]* @lines, i64 0, i64 %387
  %389 = getelementptr inbounds [2 x %"struct.std::complex"], [2 x %"struct.std::complex"]* %388, i64 0, i64 1
  %390 = call double @_ZNKSt7complexIdE4realB5cxx11Ev(%"struct.std::complex"* %389)
  %391 = sext i32 %6 to i64
  %392 = getelementptr inbounds [1001 x [2 x %"struct.std::complex"]], [1001 x [2 x %"struct.std::complex"]]* @lines, i64 0, i64 %391
  %393 = getelementptr inbounds [2 x %"struct.std::complex"], [2 x %"struct.std::complex"]* %392, i64 0, i64 0
  %394 = call double @_ZNKSt7complexIdE4realB5cxx11Ev(%"struct.std::complex"* %393)
  %395 = fsub double %390, %394
  %396 = call double @_ZSt3absd(double %395)
  %397 = fcmp olt double %396, 1.000000e-10
  br i1 %397, label %398, label %420

398:                                              ; preds = %386
  %399 = sext i32 %0 to i64
  %400 = getelementptr inbounds [1001 x [2 x %"struct.std::complex"]], [1001 x [2 x %"struct.std::complex"]]* @lines, i64 0, i64 %399
  %401 = getelementptr inbounds [2 x %"struct.std::complex"], [2 x %"struct.std::complex"]* %400, i64 0, i64 1
  %402 = call double @_ZNKSt7complexIdE4imagB5cxx11Ev(%"struct.std::complex"* %401)
  %403 = sext i32 %6 to i64
  %404 = getelementptr inbounds [1001 x [2 x %"struct.std::complex"]], [1001 x [2 x %"struct.std::complex"]]* @lines, i64 0, i64 %403
  %405 = getelementptr inbounds [2 x %"struct.std::complex"], [2 x %"struct.std::complex"]* %404, i64 0, i64 0
  %406 = call double @_ZNKSt7complexIdE4imagB5cxx11Ev(%"struct.std::complex"* %405)
  %407 = fsub double %402, %406
  %408 = call double @_ZSt3absd(double %407)
  %409 = fcmp olt double %408, 1.000000e-10
  br i1 %409, label %410, label %420

410:                                              ; preds = %398
  %411 = sext i32 %0 to i64
  %412 = getelementptr inbounds [1001 x [2 x %"struct.std::complex"]], [1001 x [2 x %"struct.std::complex"]]* @lines, i64 0, i64 %411
  %413 = getelementptr inbounds [2 x %"struct.std::complex"], [2 x %"struct.std::complex"]* %412, i64 0, i64 0
  call void @_ZNSt6vectorISt7complexIdESaIS1_EE9push_backERKS1_(%"class.std::vector"* %4, %"struct.std::complex"* dereferenceable(16) %413)
  %414 = sext i32 %0 to i64
  %415 = getelementptr inbounds [1001 x [2 x %"struct.std::complex"]], [1001 x [2 x %"struct.std::complex"]]* @lines, i64 0, i64 %414
  %416 = getelementptr inbounds [2 x %"struct.std::complex"], [2 x %"struct.std::complex"]* %415, i64 0, i64 1
  call void @_ZNSt6vectorISt7complexIdESaIS1_EE9push_backERKS1_(%"class.std::vector"* %4, %"struct.std::complex"* dereferenceable(16) %416)
  %417 = sext i32 %6 to i64
  %418 = getelementptr inbounds [1001 x [2 x %"struct.std::complex"]], [1001 x [2 x %"struct.std::complex"]]* @lines, i64 0, i64 %417
  %419 = getelementptr inbounds [2 x %"struct.std::complex"], [2 x %"struct.std::complex"]* %418, i64 0, i64 1
  call void @_ZNSt6vectorISt7complexIdESaIS1_EE9push_backERKS1_(%"class.std::vector"* %4, %"struct.std::complex"* dereferenceable(16) %419)
  br label %420

420:                                              ; preds = %410, %398, %386
  br label %421

421:                                              ; preds = %420, %376
  %422 = sext i32 %0 to i64
  %423 = getelementptr inbounds [1001 x [2 x %"struct.std::complex"]], [1001 x [2 x %"struct.std::complex"]]* @lines, i64 0, i64 %422
  %424 = getelementptr inbounds [2 x %"struct.std::complex"], [2 x %"struct.std::complex"]* %423, i64 0, i64 0
  %425 = call double @_ZNKSt7complexIdE4realB5cxx11Ev(%"struct.std::complex"* %424)
  %426 = sext i32 %6 to i64
  %427 = getelementptr inbounds [1001 x [2 x %"struct.std::complex"]], [1001 x [2 x %"struct.std::complex"]]* @lines, i64 0, i64 %426
  %428 = getelementptr inbounds [2 x %"struct.std::complex"], [2 x %"struct.std::complex"]* %427, i64 0, i64 1
  %429 = call double @_ZNKSt7complexIdE4realB5cxx11Ev(%"struct.std::complex"* %428)
  %430 = fsub double %425, %429
  %431 = call double @_ZSt3absd(double %430)
  %432 = fcmp olt double %431, 1.000000e-10
  br i1 %432, label %433, label %455

433:                                              ; preds = %421
  %434 = sext i32 %0 to i64
  %435 = getelementptr inbounds [1001 x [2 x %"struct.std::complex"]], [1001 x [2 x %"struct.std::complex"]]* @lines, i64 0, i64 %434
  %436 = getelementptr inbounds [2 x %"struct.std::complex"], [2 x %"struct.std::complex"]* %435, i64 0, i64 0
  %437 = call double @_ZNKSt7complexIdE4imagB5cxx11Ev(%"struct.std::complex"* %436)
  %438 = sext i32 %6 to i64
  %439 = getelementptr inbounds [1001 x [2 x %"struct.std::complex"]], [1001 x [2 x %"struct.std::complex"]]* @lines, i64 0, i64 %438
  %440 = getelementptr inbounds [2 x %"struct.std::complex"], [2 x %"struct.std::complex"]* %439, i64 0, i64 1
  %441 = call double @_ZNKSt7complexIdE4imagB5cxx11Ev(%"struct.std::complex"* %440)
  %442 = fsub double %437, %441
  %443 = call double @_ZSt3absd(double %442)
  %444 = fcmp olt double %443, 1.000000e-10
  br i1 %444, label %445, label %455

445:                                              ; preds = %433
  %446 = sext i32 %0 to i64
  %447 = getelementptr inbounds [1001 x [2 x %"struct.std::complex"]], [1001 x [2 x %"struct.std::complex"]]* @lines, i64 0, i64 %446
  %448 = getelementptr inbounds [2 x %"struct.std::complex"], [2 x %"struct.std::complex"]* %447, i64 0, i64 1
  call void @_ZNSt6vectorISt7complexIdESaIS1_EE9push_backERKS1_(%"class.std::vector"* %4, %"struct.std::complex"* dereferenceable(16) %448)
  %449 = sext i32 %0 to i64
  %450 = getelementptr inbounds [1001 x [2 x %"struct.std::complex"]], [1001 x [2 x %"struct.std::complex"]]* @lines, i64 0, i64 %449
  %451 = getelementptr inbounds [2 x %"struct.std::complex"], [2 x %"struct.std::complex"]* %450, i64 0, i64 0
  call void @_ZNSt6vectorISt7complexIdESaIS1_EE9push_backERKS1_(%"class.std::vector"* %4, %"struct.std::complex"* dereferenceable(16) %451)
  %452 = sext i32 %6 to i64
  %453 = getelementptr inbounds [1001 x [2 x %"struct.std::complex"]], [1001 x [2 x %"struct.std::complex"]]* @lines, i64 0, i64 %452
  %454 = getelementptr inbounds [2 x %"struct.std::complex"], [2 x %"struct.std::complex"]* %453, i64 0, i64 0
  call void @_ZNSt6vectorISt7complexIdESaIS1_EE9push_backERKS1_(%"class.std::vector"* %4, %"struct.std::complex"* dereferenceable(16) %454)
  br label %490

455:                                              ; preds = %433, %421
  %456 = sext i32 %0 to i64
  %457 = getelementptr inbounds [1001 x [2 x %"struct.std::complex"]], [1001 x [2 x %"struct.std::complex"]]* @lines, i64 0, i64 %456
  %458 = getelementptr inbounds [2 x %"struct.std::complex"], [2 x %"struct.std::complex"]* %457, i64 0, i64 1
  %459 = call double @_ZNKSt7complexIdE4realB5cxx11Ev(%"struct.std::complex"* %458)
  %460 = sext i32 %6 to i64
  %461 = getelementptr inbounds [1001 x [2 x %"struct.std::complex"]], [1001 x [2 x %"struct.std::complex"]]* @lines, i64 0, i64 %460
  %462 = getelementptr inbounds [2 x %"struct.std::complex"], [2 x %"struct.std::complex"]* %461, i64 0, i64 1
  %463 = call double @_ZNKSt7complexIdE4realB5cxx11Ev(%"struct.std::complex"* %462)
  %464 = fsub double %459, %463
  %465 = call double @_ZSt3absd(double %464)
  %466 = fcmp olt double %465, 1.000000e-10
  br i1 %466, label %467, label %489

467:                                              ; preds = %455
  %468 = sext i32 %0 to i64
  %469 = getelementptr inbounds [1001 x [2 x %"struct.std::complex"]], [1001 x [2 x %"struct.std::complex"]]* @lines, i64 0, i64 %468
  %470 = getelementptr inbounds [2 x %"struct.std::complex"], [2 x %"struct.std::complex"]* %469, i64 0, i64 1
  %471 = call double @_ZNKSt7complexIdE4imagB5cxx11Ev(%"struct.std::complex"* %470)
  %472 = sext i32 %6 to i64
  %473 = getelementptr inbounds [1001 x [2 x %"struct.std::complex"]], [1001 x [2 x %"struct.std::complex"]]* @lines, i64 0, i64 %472
  %474 = getelementptr inbounds [2 x %"struct.std::complex"], [2 x %"struct.std::complex"]* %473, i64 0, i64 1
  %475 = call double @_ZNKSt7complexIdE4imagB5cxx11Ev(%"struct.std::complex"* %474)
  %476 = fsub double %471, %475
  %477 = call double @_ZSt3absd(double %476)
  %478 = fcmp olt double %477, 1.000000e-10
  br i1 %478, label %479, label %489

479:                                              ; preds = %467
  %480 = sext i32 %0 to i64
  %481 = getelementptr inbounds [1001 x [2 x %"struct.std::complex"]], [1001 x [2 x %"struct.std::complex"]]* @lines, i64 0, i64 %480
  %482 = getelementptr inbounds [2 x %"struct.std::complex"], [2 x %"struct.std::complex"]* %481, i64 0, i64 0
  call void @_ZNSt6vectorISt7complexIdESaIS1_EE9push_backERKS1_(%"class.std::vector"* %4, %"struct.std::complex"* dereferenceable(16) %482)
  %483 = sext i32 %0 to i64
  %484 = getelementptr inbounds [1001 x [2 x %"struct.std::complex"]], [1001 x [2 x %"struct.std::complex"]]* @lines, i64 0, i64 %483
  %485 = getelementptr inbounds [2 x %"struct.std::complex"], [2 x %"struct.std::complex"]* %484, i64 0, i64 1
  call void @_ZNSt6vectorISt7complexIdESaIS1_EE9push_backERKS1_(%"class.std::vector"* %4, %"struct.std::complex"* dereferenceable(16) %485)
  %486 = sext i32 %6 to i64
  %487 = getelementptr inbounds [1001 x [2 x %"struct.std::complex"]], [1001 x [2 x %"struct.std::complex"]]* @lines, i64 0, i64 %486
  %488 = getelementptr inbounds [2 x %"struct.std::complex"], [2 x %"struct.std::complex"]* %487, i64 0, i64 0
  call void @_ZNSt6vectorISt7complexIdESaIS1_EE9push_backERKS1_(%"class.std::vector"* %4, %"struct.std::complex"* dereferenceable(16) %488)
  br label %489

489:                                              ; preds = %479, %467, %455
  br label %490

490:                                              ; preds = %489, %445
  br label %491

491:                                              ; preds = %490, %350, %348
  ret void
}

; Function Attrs: noinline uwtable
define linkonce_odr { %"struct.std::_Rb_tree_node_base"*, i8 } @_ZNSt3setI5PointSt4lessIS0_ESaIS0_EE6insertEOS0_(%"class.std::set"* %0, %class.Point* dereferenceable(16) %1) #0 comdat align 2 {
  %3 = alloca %"struct.std::pair", align 8
  %4 = alloca %"struct.std::pair.3", align 8
  %5 = getelementptr inbounds %"class.std::set", %"class.std::set"* %0, i32 0, i32 0
  %6 = call dereferenceable(16) %class.Point* @_ZSt4moveIR5PointEONSt16remove_referenceIT_E4typeEOS3_(%class.Point* dereferenceable(16) %1) #3
  %7 = call { %"struct.std::_Rb_tree_node_base"*, i8 } @_ZNSt8_Rb_treeI5PointS0_St9_IdentityIS0_ESt4lessIS0_ESaIS0_EE16_M_insert_uniqueIS0_EESt4pairISt17_Rb_tree_iteratorIS0_EbEOT_(%"class.std::_Rb_tree"* %5, %class.Point* dereferenceable(16) %6)
  %8 = bitcast %"struct.std::pair.3"* %4 to { %"struct.std::_Rb_tree_node_base"*, i8 }*
  %9 = getelementptr inbounds { %"struct.std::_Rb_tree_node_base"*, i8 }, { %"struct.std::_Rb_tree_node_base"*, i8 }* %8, i32 0, i32 0
  %10 = extractvalue { %"struct.std::_Rb_tree_node_base"*, i8 } %7, 0
  store %"struct.std::_Rb_tree_node_base"* %10, %"struct.std::_Rb_tree_node_base"** %9, align 8
  %11 = getelementptr inbounds { %"struct.std::_Rb_tree_node_base"*, i8 }, { %"struct.std::_Rb_tree_node_base"*, i8 }* %8, i32 0, i32 1
  %12 = extractvalue { %"struct.std::_Rb_tree_node_base"*, i8 } %7, 1
  store i8 %12, i8* %11, align 8
  %13 = getelementptr inbounds %"struct.std::pair.3", %"struct.std::pair.3"* %4, i32 0, i32 0
  %14 = getelementptr inbounds %"struct.std::pair.3", %"struct.std::pair.3"* %4, i32 0, i32 1
  call void @_ZNSt4pairISt23_Rb_tree_const_iteratorI5PointEbEC2IRSt17_Rb_tree_iteratorIS1_ERbLb1EEEOT_OT0_(%"struct.std::pair"* %3, %"struct.std::_Rb_tree_iterator"* dereferenceable(8) %13, i8* dereferenceable(1) %14)
  %15 = bitcast %"struct.std::pair"* %3 to { %"struct.std::_Rb_tree_node_base"*, i8 }*
  %16 = load { %"struct.std::_Rb_tree_node_base"*, i8 }, { %"struct.std::_Rb_tree_node_base"*, i8 }* %15, align 8
  ret { %"struct.std::_Rb_tree_node_base"*, i8 } %16
}

; Function Attrs: noinline uwtable
define linkonce_odr void @_ZN5PointC2ESt7complexIdE(%class.Point* %0, double %1, double %2) unnamed_addr #0 comdat align 2 {
  %4 = alloca %"struct.std::complex", align 8
  %5 = bitcast %"struct.std::complex"* %4 to { double, double }*
  %6 = getelementptr inbounds { double, double }, { double, double }* %5, i32 0, i32 0
  store double %1, double* %6, align 8
  %7 = getelementptr inbounds { double, double }, { double, double }* %5, i32 0, i32 1
  store double %2, double* %7, align 8
  %8 = getelementptr inbounds %class.Point, %class.Point* %0, i32 0, i32 0
  call void @_ZNSt7complexIdEC2Edd(%"struct.std::complex"* %8, double 0.000000e+00, double 0.000000e+00)
  %9 = getelementptr inbounds %class.Point, %class.Point* %0, i32 0, i32 0
  %10 = bitcast %"struct.std::complex"* %9 to i8*
  %11 = bitcast %"struct.std::complex"* %4 to i8*
  call void @llvm.memcpy.p0i8.p0i8.i64(i8* align 8 %10, i8* align 8 %11, i64 16, i1 false)
  ret void
}

; Function Attrs: noinline nounwind uwtable
define linkonce_odr void @_ZNSt6vectorISt7complexIdESaIS1_EE5clearEv(%"class.std::vector"* %0) #4 comdat align 2 {
  %2 = bitcast %"class.std::vector"* %0 to %"struct.std::_Vector_base"*
  %3 = getelementptr inbounds %"struct.std::_Vector_base", %"struct.std::_Vector_base"* %2, i32 0, i32 0
  %4 = getelementptr inbounds %"struct.std::_Vector_base<std::complex<double>, std::allocator<std::complex<double> > >::_Vector_impl", %"struct.std::_Vector_base<std::complex<double>, std::allocator<std::complex<double> > >::_Vector_impl"* %3, i32 0, i32 0
  %5 = load %"struct.std::complex"*, %"struct.std::complex"** %4, align 8
  call void @_ZNSt6vectorISt7complexIdESaIS1_EE15_M_erase_at_endEPS1_(%"class.std::vector"* %0, %"struct.std::complex"* %5) #3
  ret void
}

; Function Attrs: noinline uwtable
define linkonce_odr void @_ZNSt6vectorISt7complexIdESaIS1_EE9push_backERKS1_(%"class.std::vector"* %0, %"struct.std::complex"* dereferenceable(16) %1) #0 comdat align 2 {
  %3 = alloca %"class.__gnu_cxx::__normal_iterator", align 8
  %4 = bitcast %"class.std::vector"* %0 to %"struct.std::_Vector_base"*
  %5 = getelementptr inbounds %"struct.std::_Vector_base", %"struct.std::_Vector_base"* %4, i32 0, i32 0
  %6 = getelementptr inbounds %"struct.std::_Vector_base<std::complex<double>, std::allocator<std::complex<double> > >::_Vector_impl", %"struct.std::_Vector_base<std::complex<double>, std::allocator<std::complex<double> > >::_Vector_impl"* %5, i32 0, i32 1
  %7 = load %"struct.std::complex"*, %"struct.std::complex"** %6, align 8
  %8 = bitcast %"class.std::vector"* %0 to %"struct.std::_Vector_base"*
  %9 = getelementptr inbounds %"struct.std::_Vector_base", %"struct.std::_Vector_base"* %8, i32 0, i32 0
  %10 = getelementptr inbounds %"struct.std::_Vector_base<std::complex<double>, std::allocator<std::complex<double> > >::_Vector_impl", %"struct.std::_Vector_base<std::complex<double>, std::allocator<std::complex<double> > >::_Vector_impl"* %9, i32 0, i32 2
  %11 = load %"struct.std::complex"*, %"struct.std::complex"** %10, align 8
  %12 = icmp ne %"struct.std::complex"* %7, %11
  br i1 %12, label %13, label %26

13:                                               ; preds = %2
  %14 = bitcast %"class.std::vector"* %0 to %"struct.std::_Vector_base"*
  %15 = getelementptr inbounds %"struct.std::_Vector_base", %"struct.std::_Vector_base"* %14, i32 0, i32 0
  %16 = bitcast %"struct.std::_Vector_base<std::complex<double>, std::allocator<std::complex<double> > >::_Vector_impl"* %15 to %"class.std::allocator.0"*
  %17 = bitcast %"class.std::vector"* %0 to %"struct.std::_Vector_base"*
  %18 = getelementptr inbounds %"struct.std::_Vector_base", %"struct.std::_Vector_base"* %17, i32 0, i32 0
  %19 = getelementptr inbounds %"struct.std::_Vector_base<std::complex<double>, std::allocator<std::complex<double> > >::_Vector_impl", %"struct.std::_Vector_base<std::complex<double>, std::allocator<std::complex<double> > >::_Vector_impl"* %18, i32 0, i32 1
  %20 = load %"struct.std::complex"*, %"struct.std::complex"** %19, align 8
  call void @_ZNSt16allocator_traitsISaISt7complexIdEEE9constructIS1_JRKS1_EEEvRS2_PT_DpOT0_(%"class.std::allocator.0"* dereferenceable(1) %16, %"struct.std::complex"* %20, %"struct.std::complex"* dereferenceable(16) %1)
  %21 = bitcast %"class.std::vector"* %0 to %"struct.std::_Vector_base"*
  %22 = getelementptr inbounds %"struct.std::_Vector_base", %"struct.std::_Vector_base"* %21, i32 0, i32 0
  %23 = getelementptr inbounds %"struct.std::_Vector_base<std::complex<double>, std::allocator<std::complex<double> > >::_Vector_impl", %"struct.std::_Vector_base<std::complex<double>, std::allocator<std::complex<double> > >::_Vector_impl"* %22, i32 0, i32 1
  %24 = load %"struct.std::complex"*, %"struct.std::complex"** %23, align 8
  %25 = getelementptr inbounds %"struct.std::complex", %"struct.std::complex"* %24, i32 1
  store %"struct.std::complex"* %25, %"struct.std::complex"** %23, align 8
  br label %31

26:                                               ; preds = %2
  %27 = call %"struct.std::complex"* @_ZNSt6vectorISt7complexIdESaIS1_EE3endEv(%"class.std::vector"* %0) #3
  %28 = getelementptr inbounds %"class.__gnu_cxx::__normal_iterator", %"class.__gnu_cxx::__normal_iterator"* %3, i32 0, i32 0
  store %"struct.std::complex"* %27, %"struct.std::complex"** %28, align 8
  %29 = getelementptr inbounds %"class.__gnu_cxx::__normal_iterator", %"class.__gnu_cxx::__normal_iterator"* %3, i32 0, i32 0
  %30 = load %"struct.std::complex"*, %"struct.std::complex"** %29, align 8
  call void @_ZNSt6vectorISt7complexIdESaIS1_EE17_M_realloc_insertIJRKS1_EEEvN9__gnu_cxx17__normal_iteratorIPS1_S3_EEDpOT_(%"class.std::vector"* %0, %"struct.std::complex"* %30, %"struct.std::complex"* dereferenceable(16) %1)
  br label %31

31:                                               ; preds = %26, %13
  ret void
}

; Function Attrs: noinline norecurse uwtable
define i32 @main() #5 personality i8* bitcast (i32 (...)* @__gxx_personality_v0 to i8*) {
  %1 = alloca i32, align 4
  %2 = alloca i32, align 4
  %3 = alloca i32, align 4
  %4 = alloca i32, align 4
  %5 = alloca %"struct.std::complex", align 8
  %6 = alloca %"struct.std::complex", align 8
  %7 = alloca [11 x i32], align 16
  %8 = alloca i32, align 4
  %9 = alloca i32, align 4
  %10 = alloca i32, align 4
  %11 = alloca %"class.std::vector", align 8
  %12 = alloca %"struct.std::complex", align 8
  %13 = alloca %"struct.std::complex", align 8
  br label %14

14:                                               ; preds = %231, %0
  %15 = call dereferenceable(280) %"class.std::basic_istream"* @_ZNSirsERi(%"class.std::basic_istream"* @_ZSt3cin, i32* dereferenceable(4) @n)
  %16 = bitcast %"class.std::basic_istream"* %15 to i8**
  %17 = load i8*, i8** %16, align 8
  %18 = getelementptr i8, i8* %17, i64 -24
  %19 = bitcast i8* %18 to i64*
  %20 = load i64, i64* %19, align 8
  %21 = bitcast %"class.std::basic_istream"* %15 to i8*
  %22 = getelementptr inbounds i8, i8* %21, i64 %20
  %23 = bitcast i8* %22 to %"class.std::basic_ios"*
  %24 = call zeroext i1 @_ZNKSt9basic_iosIcSt11char_traitsIcEEcvbEv(%"class.std::basic_ios"* %23)
  br i1 %24, label %25, label %28

25:                                               ; preds = %14
  %26 = load i32, i32* @n, align 4
  %27 = icmp ne i32 %26, 0
  br label %28

28:                                               ; preds = %25, %14
  %29 = phi i1 [ false, %14 ], [ %27, %25 ]
  br i1 %29, label %30, label %232

30:                                               ; preds = %28
  br label %31

31:                                               ; preds = %57, %30
  %.01 = phi i32 [ 0, %30 ], [ %58, %57 ]
  %32 = load i32, i32* @n, align 4
  %33 = icmp slt i32 %.01, %32
  br i1 %33, label %34, label %59

34:                                               ; preds = %31
  %35 = call dereferenceable(280) %"class.std::basic_istream"* @_ZNSirsERi(%"class.std::basic_istream"* @_ZSt3cin, i32* dereferenceable(4) %1)
  %36 = call dereferenceable(280) %"class.std::basic_istream"* @_ZNSirsERi(%"class.std::basic_istream"* %35, i32* dereferenceable(4) %3)
  %37 = call dereferenceable(280) %"class.std::basic_istream"* @_ZNSirsERi(%"class.std::basic_istream"* %36, i32* dereferenceable(4) %2)
  %38 = call dereferenceable(280) %"class.std::basic_istream"* @_ZNSirsERi(%"class.std::basic_istream"* %37, i32* dereferenceable(4) %4)
  %39 = load i32, i32* %1, align 4
  %40 = sitofp i32 %39 to double
  %41 = load i32, i32* %3, align 4
  %42 = sitofp i32 %41 to double
  call void @_ZNSt7complexIdEC2Edd(%"struct.std::complex"* %5, double %40, double %42)
  %43 = sext i32 %.01 to i64
  %44 = getelementptr inbounds [1001 x [2 x %"struct.std::complex"]], [1001 x [2 x %"struct.std::complex"]]* @lines, i64 0, i64 %43
  %45 = getelementptr inbounds [2 x %"struct.std::complex"], [2 x %"struct.std::complex"]* %44, i64 0, i64 0
  %46 = bitcast %"struct.std::complex"* %45 to i8*
  %47 = bitcast %"struct.std::complex"* %5 to i8*
  call void @llvm.memcpy.p0i8.p0i8.i64(i8* align 8 %46, i8* align 8 %47, i64 16, i1 false)
  %48 = load i32, i32* %2, align 4
  %49 = sitofp i32 %48 to double
  %50 = load i32, i32* %4, align 4
  %51 = sitofp i32 %50 to double
  call void @_ZNSt7complexIdEC2Edd(%"struct.std::complex"* %6, double %49, double %51)
  %52 = sext i32 %.01 to i64
  %53 = getelementptr inbounds [1001 x [2 x %"struct.std::complex"]], [1001 x [2 x %"struct.std::complex"]]* @lines, i64 0, i64 %52
  %54 = getelementptr inbounds [2 x %"struct.std::complex"], [2 x %"struct.std::complex"]* %53, i64 0, i64 1
  %55 = bitcast %"struct.std::complex"* %54 to i8*
  %56 = bitcast %"struct.std::complex"* %6 to i8*
  call void @llvm.memcpy.p0i8.p0i8.i64(i8* align 8 %55, i8* align 8 %56, i64 16, i1 false)
  br label %57

57:                                               ; preds = %34
  %58 = add nsw i32 %.01, 1
  br label %31

59:                                               ; preds = %31
  %60 = getelementptr inbounds [11 x i32], [11 x i32]* %7, i32 0, i32 0
  %61 = bitcast i32* %60 to i8*
  call void @llvm.memset.p0i8.i64(i8* align 16 %61, i8 0, i64 44, i1 false)
  call void @llvm.memset.p0i8.i64(i8* align 16 getelementptr inbounds ([1001 x i8], [1001 x i8]* @passed, i32 0, i32 0), i8 0, i64 1001, i1 false)
  br label %62

62:                                               ; preds = %213, %59
  %.02 = phi i32 [ 0, %59 ], [ %214, %213 ]
  %63 = load i32, i32* @n, align 4
  %64 = icmp slt i32 %.02, %63
  br i1 %64, label %65, label %215

65:                                               ; preds = %62
  %66 = sext i32 %.02 to i64
  %67 = getelementptr inbounds [1001 x i8], [1001 x i8]* @passed, i64 0, i64 %66
  %68 = load i8, i8* %67, align 1
  %69 = trunc i8 %68 to i1
  br i1 %69, label %70, label %71

70:                                               ; preds = %65
  br label %213

71:                                               ; preds = %65
  store i32 0, i32* %8, align 4
  store i32 0, i32* %9, align 4
  store i32 0, i32* %10, align 4
  call void @_ZNSt6vectorISt7complexIdESaIS1_EEC2Ev(%"class.std::vector"* %11) #3
  call void @_ZNSt3setI5PointSt4lessIS0_ESaIS0_EE5clearEv(%"class.std::set"* @tp) #3
  call void @_ZNSt3setI5PointSt4lessIS0_ESaIS0_EE5clearEv(%"class.std::set"* @cp) #3
  invoke void @_Z3dfsiRiS_S_RSt6vectorISt7complexIdESaIS2_EEbi(i32 %.02, i32* dereferenceable(4) %8, i32* dereferenceable(4) %9, i32* dereferenceable(4) %10, %"class.std::vector"* dereferenceable(24) %11, i1 zeroext true, i32 -1)
          to label %72 unwind label %98

72:                                               ; preds = %71
  %73 = call i64 @_ZNKSt3setI5PointSt4lessIS0_ESaIS0_EE4sizeEv(%"class.std::set"* @cp) #3
  %74 = trunc i64 %73 to i32
  store i32 %74, i32* %8, align 4
  %75 = call i64 @_ZNKSt3setI5PointSt4lessIS0_ESaIS0_EE4sizeEv(%"class.std::set"* @tp) #3
  %76 = trunc i64 %75 to i32
  store i32 %76, i32* %9, align 4
  %77 = load i32, i32* %10, align 4
  %78 = invoke dereferenceable(272) %"class.std::basic_ostream"* @_ZNSolsEi(%"class.std::basic_ostream"* @_ZSt4cout, i32 %77)
          to label %79 unwind label %98

79:                                               ; preds = %72
  %80 = invoke dereferenceable(272) %"class.std::basic_ostream"* @_ZStlsISt11char_traitsIcEERSt13basic_ostreamIcT_ES5_PKc(%"class.std::basic_ostream"* dereferenceable(272) %78, i8* getelementptr inbounds ([2 x i8], [2 x i8]* @.str, i32 0, i32 0))
          to label %81 unwind label %98

81:                                               ; preds = %79
  %82 = load i32, i32* %8, align 4
  %83 = invoke dereferenceable(272) %"class.std::basic_ostream"* @_ZNSolsEi(%"class.std::basic_ostream"* %80, i32 %82)
          to label %84 unwind label %98

84:                                               ; preds = %81
  %85 = invoke dereferenceable(272) %"class.std::basic_ostream"* @_ZStlsISt11char_traitsIcEERSt13basic_ostreamIcT_ES5_PKc(%"class.std::basic_ostream"* dereferenceable(272) %83, i8* getelementptr inbounds ([2 x i8], [2 x i8]* @.str, i32 0, i32 0))
          to label %86 unwind label %98

86:                                               ; preds = %84
  %87 = load i32, i32* %9, align 4
  %88 = invoke dereferenceable(272) %"class.std::basic_ostream"* @_ZNSolsEi(%"class.std::basic_ostream"* %85, i32 %87)
          to label %89 unwind label %98

89:                                               ; preds = %86
  %90 = invoke dereferenceable(272) %"class.std::basic_ostream"* @_ZNSolsEPFRSoS_E(%"class.std::basic_ostream"* %88, %"class.std::basic_ostream"* (%"class.std::basic_ostream"*)* @_ZSt4endlIcSt11char_traitsIcEERSt13basic_ostreamIT_T0_ES6_)
          to label %91 unwind label %98

91:                                               ; preds = %89
  %92 = load i32, i32* %10, align 4
  %93 = icmp eq i32 %92, 1
  br i1 %93, label %94, label %102

94:                                               ; preds = %91
  %95 = getelementptr inbounds [11 x i32], [11 x i32]* %7, i64 0, i64 1
  %96 = load i32, i32* %95, align 4
  %97 = add nsw i32 %96, 1
  store i32 %97, i32* %95, align 4
  br label %212

98:                                               ; preds = %180, %171, %167, %89, %86, %84, %81, %79, %72, %71
  %99 = landingpad { i8*, i32 }
          cleanup
  %100 = extractvalue { i8*, i32 } %99, 0
  %101 = extractvalue { i8*, i32 } %99, 1
  call void @_ZNSt6vectorISt7complexIdESaIS1_EED2Ev(%"class.std::vector"* %11) #3
  br label %233

102:                                              ; preds = %91
  %103 = load i32, i32* %10, align 4
  %104 = icmp eq i32 %103, 3
  br i1 %104, label %105, label %117

105:                                              ; preds = %102
  %106 = load i32, i32* %8, align 4
  %107 = icmp eq i32 %106, 2
  br i1 %107, label %108, label %112

108:                                              ; preds = %105
  %109 = getelementptr inbounds [11 x i32], [11 x i32]* %7, i64 0, i64 7
  %110 = load i32, i32* %109, align 4
  %111 = add nsw i32 %110, 1
  store i32 %111, i32* %109, align 4
  br label %116

112:                                              ; preds = %105
  %113 = getelementptr inbounds [11 x i32], [11 x i32]* %7, i64 0, i64 4
  %114 = load i32, i32* %113, align 16
  %115 = add nsw i32 %114, 1
  store i32 %115, i32* %113, align 16
  br label %116

116:                                              ; preds = %112, %108
  br label %211

117:                                              ; preds = %102
  %118 = load i32, i32* %10, align 4
  %119 = icmp eq i32 %118, 4
  br i1 %119, label %120, label %147

120:                                              ; preds = %117
  %121 = load i32, i32* %8, align 4
  %122 = icmp eq i32 %121, 4
  br i1 %122, label %123, label %127

123:                                              ; preds = %120
  %124 = getelementptr inbounds [11 x i32], [11 x i32]* %7, i64 0, i64 0
  %125 = load i32, i32* %124, align 16
  %126 = add nsw i32 %125, 1
  store i32 %126, i32* %124, align 16
  br label %146

127:                                              ; preds = %120
  %128 = load i32, i32* %8, align 4
  %129 = icmp eq i32 %128, 2
  br i1 %129, label %130, label %137

130:                                              ; preds = %127
  %131 = load i32, i32* %9, align 4
  %132 = icmp eq i32 %131, 1
  br i1 %132, label %133, label %137

133:                                              ; preds = %130
  %134 = getelementptr inbounds [11 x i32], [11 x i32]* %7, i64 0, i64 3
  %135 = load i32, i32* %134, align 4
  %136 = add nsw i32 %135, 1
  store i32 %136, i32* %134, align 4
  br label %145

137:                                              ; preds = %130, %127
  %138 = load i32, i32* %8, align 4
  %139 = icmp eq i32 %138, 3
  br i1 %139, label %140, label %144

140:                                              ; preds = %137
  %141 = getelementptr inbounds [11 x i32], [11 x i32]* %7, i64 0, i64 9
  %142 = load i32, i32* %141, align 4
  %143 = add nsw i32 %142, 1
  store i32 %143, i32* %141, align 4
  br label %144

144:                                              ; preds = %140, %137
  br label %145

145:                                              ; preds = %144, %133
  br label %146

146:                                              ; preds = %145, %123
  br label %210

147:                                              ; preds = %117
  %148 = load i32, i32* %8, align 4
  %149 = icmp eq i32 %148, 4
  br i1 %149, label %150, label %157

150:                                              ; preds = %147
  %151 = load i32, i32* %9, align 4
  %152 = icmp eq i32 %151, 2
  br i1 %152, label %153, label %157

153:                                              ; preds = %150
  %154 = getelementptr inbounds [11 x i32], [11 x i32]* %7, i64 0, i64 8
  %155 = load i32, i32* %154, align 16
  %156 = add nsw i32 %155, 1
  store i32 %156, i32* %154, align 16
  br label %209

157:                                              ; preds = %150, %147
  %158 = load i32, i32* %8, align 4
  %159 = icmp eq i32 %158, 4
  br i1 %159, label %160, label %167

160:                                              ; preds = %157
  %161 = load i32, i32* %9, align 4
  %162 = icmp eq i32 %161, 1
  br i1 %162, label %163, label %167

163:                                              ; preds = %160
  %164 = getelementptr inbounds [11 x i32], [11 x i32]* %7, i64 0, i64 6
  %165 = load i32, i32* %164, align 8
  %166 = add nsw i32 %165, 1
  store i32 %166, i32* %164, align 8
  br label %208

167:                                              ; preds = %160, %157
  %168 = call dereferenceable(16) %"struct.std::complex"* @_ZNSt6vectorISt7complexIdESaIS1_EEixEm(%"class.std::vector"* %11, i64 0) #3
  %169 = call dereferenceable(16) %"struct.std::complex"* @_ZNSt6vectorISt7complexIdESaIS1_EEixEm(%"class.std::vector"* %11, i64 1) #3
  %170 = invoke { double, double } @_ZStmiIdESt7complexIT_ERKS2_S4_(%"struct.std::complex"* dereferenceable(16) %168, %"struct.std::complex"* dereferenceable(16) %169)
          to label %171 unwind label %98

171:                                              ; preds = %167
  %172 = getelementptr inbounds %"struct.std::complex", %"struct.std::complex"* %12, i32 0, i32 0
  %173 = getelementptr inbounds { double, double }, { double, double }* %172, i32 0, i32 0
  %174 = extractvalue { double, double } %170, 0
  store double %174, double* %173, align 8
  %175 = getelementptr inbounds { double, double }, { double, double }* %172, i32 0, i32 1
  %176 = extractvalue { double, double } %170, 1
  store double %176, double* %175, align 8
  %177 = call dereferenceable(16) %"struct.std::complex"* @_ZNSt6vectorISt7complexIdESaIS1_EEixEm(%"class.std::vector"* %11, i64 2) #3
  %178 = call dereferenceable(16) %"struct.std::complex"* @_ZNSt6vectorISt7complexIdESaIS1_EEixEm(%"class.std::vector"* %11, i64 0) #3
  %179 = invoke { double, double } @_ZStmiIdESt7complexIT_ERKS2_S4_(%"struct.std::complex"* dereferenceable(16) %177, %"struct.std::complex"* dereferenceable(16) %178)
          to label %180 unwind label %98

180:                                              ; preds = %171
  %181 = getelementptr inbounds %"struct.std::complex", %"struct.std::complex"* %13, i32 0, i32 0
  %182 = getelementptr inbounds { double, double }, { double, double }* %181, i32 0, i32 0
  %183 = extractvalue { double, double } %179, 0
  store double %183, double* %182, align 8
  %184 = getelementptr inbounds { double, double }, { double, double }* %181, i32 0, i32 1
  %185 = extractvalue { double, double } %179, 1
  store double %185, double* %184, align 8
  %186 = bitcast %"struct.std::complex"* %12 to { double, double }*
  %187 = getelementptr inbounds { double, double }, { double, double }* %186, i32 0, i32 0
  %188 = load double, double* %187, align 8
  %189 = getelementptr inbounds { double, double }, { double, double }* %186, i32 0, i32 1
  %190 = load double, double* %189, align 8
  %191 = bitcast %"struct.std::complex"* %13 to { double, double }*
  %192 = getelementptr inbounds { double, double }, { double, double }* %191, i32 0, i32 0
  %193 = load double, double* %192, align 8
  %194 = getelementptr inbounds { double, double }, { double, double }* %191, i32 0, i32 1
  %195 = load double, double* %194, align 8
  %196 = invoke double @_Z5crossSt7complexIdES0_(double %188, double %190, double %193, double %195)
          to label %197 unwind label %98

197:                                              ; preds = %180
  %198 = fcmp olt double %196, 0.000000e+00
  br i1 %198, label %199, label %203

199:                                              ; preds = %197
  %200 = getelementptr inbounds [11 x i32], [11 x i32]* %7, i64 0, i64 5
  %201 = load i32, i32* %200, align 4
  %202 = add nsw i32 %201, 1
  store i32 %202, i32* %200, align 4
  br label %207

203:                                              ; preds = %197
  %204 = getelementptr inbounds [11 x i32], [11 x i32]* %7, i64 0, i64 2
  %205 = load i32, i32* %204, align 8
  %206 = add nsw i32 %205, 1
  store i32 %206, i32* %204, align 8
  br label %207

207:                                              ; preds = %203, %199
  br label %208

208:                                              ; preds = %207, %163
  br label %209

209:                                              ; preds = %208, %153
  br label %210

210:                                              ; preds = %209, %146
  br label %211

211:                                              ; preds = %210, %116
  br label %212

212:                                              ; preds = %211, %94
  call void @_ZNSt6vectorISt7complexIdESaIS1_EED2Ev(%"class.std::vector"* %11) #3
  br label %213

213:                                              ; preds = %212, %70
  %214 = add nsw i32 %.02, 1
  br label %62

215:                                              ; preds = %62
  br label %216

216:                                              ; preds = %229, %215
  %.0 = phi i32 [ 0, %215 ], [ %230, %229 ]
  %217 = icmp slt i32 %.0, 10
  br i1 %217, label %218, label %231

218:                                              ; preds = %216
  %219 = sext i32 %.0 to i64
  %220 = getelementptr inbounds [11 x i32], [11 x i32]* %7, i64 0, i64 %219
  %221 = load i32, i32* %220, align 4
  %222 = call dereferenceable(272) %"class.std::basic_ostream"* @_ZNSolsEi(%"class.std::basic_ostream"* @_ZSt4cout, i32 %221)
  %223 = icmp eq i32 %.0, 9
  br i1 %223, label %224, label %226

224:                                              ; preds = %218
  %225 = call dereferenceable(272) %"class.std::basic_ostream"* @_ZNSolsEPFRSoS_E(%"class.std::basic_ostream"* @_ZSt4cout, %"class.std::basic_ostream"* (%"class.std::basic_ostream"*)* @_ZSt4endlIcSt11char_traitsIcEERSt13basic_ostreamIT_T0_ES6_)
  br label %228

226:                                              ; preds = %218
  %227 = call dereferenceable(272) %"class.std::basic_ostream"* @_ZStlsISt11char_traitsIcEERSt13basic_ostreamIcT_ES5_PKc(%"class.std::basic_ostream"* dereferenceable(272) @_ZSt4cout, i8* getelementptr inbounds ([2 x i8], [2 x i8]* @.str, i32 0, i32 0))
  br label %228

228:                                              ; preds = %226, %224
  br label %229

229:                                              ; preds = %228
  %230 = add nsw i32 %.0, 1
  br label %216

231:                                              ; preds = %216
  br label %14

232:                                              ; preds = %28
  ret i32 0

233:                                              ; preds = %98
  %234 = insertvalue { i8*, i32 } undef, i8* %100, 0
  %235 = insertvalue { i8*, i32 } %234, i32 %101, 1
  resume { i8*, i32 } %235
}

declare dereferenceable(280) %"class.std::basic_istream"* @_ZNSirsERi(%"class.std::basic_istream"*, i32* dereferenceable(4)) #1

declare zeroext i1 @_ZNKSt9basic_iosIcSt11char_traitsIcEEcvbEv(%"class.std::basic_ios"*) #1

; Function Attrs: noinline nounwind uwtable
define linkonce_odr void @_ZNSt7complexIdEC2Edd(%"struct.std::complex"* %0, double %1, double %2) unnamed_addr #4 comdat align 2 {
  %4 = getelementptr inbounds %"struct.std::complex", %"struct.std::complex"* %0, i32 0, i32 0
  %5 = getelementptr inbounds { double, double }, { double, double }* %4, i32 0, i32 0
  %6 = getelementptr inbounds { double, double }, { double, double }* %4, i32 0, i32 1
  store double %1, double* %5, align 8
  store double %2, double* %6, align 8
  ret void
}

; Function Attrs: noinline nounwind uwtable
define linkonce_odr void @_ZNSt6vectorISt7complexIdESaIS1_EEC2Ev(%"class.std::vector"* %0) unnamed_addr #4 comdat align 2 personality i8* bitcast (i32 (...)* @__gxx_personality_v0 to i8*) {
  %2 = bitcast %"class.std::vector"* %0 to %"struct.std::_Vector_base"*
  invoke void @_ZNSt12_Vector_baseISt7complexIdESaIS1_EEC2Ev(%"struct.std::_Vector_base"* %2)
          to label %3 unwind label %4

3:                                                ; preds = %1
  ret void

4:                                                ; preds = %1
  %5 = landingpad { i8*, i32 }
          catch i8* null
  %6 = extractvalue { i8*, i32 } %5, 0
  call void @__clang_call_terminate(i8* %6) #15
  unreachable
}

; Function Attrs: noinline nounwind uwtable
define linkonce_odr void @_ZNSt3setI5PointSt4lessIS0_ESaIS0_EE5clearEv(%"class.std::set"* %0) #4 comdat align 2 {
  %2 = getelementptr inbounds %"class.std::set", %"class.std::set"* %0, i32 0, i32 0
  call void @_ZNSt8_Rb_treeI5PointS0_St9_IdentityIS0_ESt4lessIS0_ESaIS0_EE5clearEv(%"class.std::_Rb_tree"* %2) #3
  ret void
}

declare i32 @__gxx_personality_v0(...)

; Function Attrs: noinline nounwind uwtable
define linkonce_odr i64 @_ZNKSt3setI5PointSt4lessIS0_ESaIS0_EE4sizeEv(%"class.std::set"* %0) #4 comdat align 2 {
  %2 = getelementptr inbounds %"class.std::set", %"class.std::set"* %0, i32 0, i32 0
  %3 = call i64 @_ZNKSt8_Rb_treeI5PointS0_St9_IdentityIS0_ESt4lessIS0_ESaIS0_EE4sizeEv(%"class.std::_Rb_tree"* %2) #3
  ret i64 %3
}

declare dereferenceable(272) %"class.std::basic_ostream"* @_ZStlsISt11char_traitsIcEERSt13basic_ostreamIcT_ES5_PKc(%"class.std::basic_ostream"* dereferenceable(272), i8*) #1

declare dereferenceable(272) %"class.std::basic_ostream"* @_ZNSolsEi(%"class.std::basic_ostream"*, i32) #1

declare dereferenceable(272) %"class.std::basic_ostream"* @_ZNSolsEPFRSoS_E(%"class.std::basic_ostream"*, %"class.std::basic_ostream"* (%"class.std::basic_ostream"*)*) #1

declare dereferenceable(272) %"class.std::basic_ostream"* @_ZSt4endlIcSt11char_traitsIcEERSt13basic_ostreamIT_T0_ES6_(%"class.std::basic_ostream"* dereferenceable(272)) #1

; Function Attrs: noinline nounwind uwtable
define linkonce_odr dereferenceable(16) %"struct.std::complex"* @_ZNSt6vectorISt7complexIdESaIS1_EEixEm(%"class.std::vector"* %0, i64 %1) #4 comdat align 2 {
  %3 = bitcast %"class.std::vector"* %0 to %"struct.std::_Vector_base"*
  %4 = getelementptr inbounds %"struct.std::_Vector_base", %"struct.std::_Vector_base"* %3, i32 0, i32 0
  %5 = getelementptr inbounds %"struct.std::_Vector_base<std::complex<double>, std::allocator<std::complex<double> > >::_Vector_impl", %"struct.std::_Vector_base<std::complex<double>, std::allocator<std::complex<double> > >::_Vector_impl"* %4, i32 0, i32 0
  %6 = load %"struct.std::complex"*, %"struct.std::complex"** %5, align 8
  %7 = getelementptr inbounds %"struct.std::complex", %"struct.std::complex"* %6, i64 %1
  ret %"struct.std::complex"* %7
}

; Function Attrs: noinline nounwind uwtable
define linkonce_odr void @_ZNSt6vectorISt7complexIdESaIS1_EED2Ev(%"class.std::vector"* %0) unnamed_addr #4 comdat align 2 personality i8* bitcast (i32 (...)* @__gxx_personality_v0 to i8*) {
  %2 = bitcast %"class.std::vector"* %0 to %"struct.std::_Vector_base"*
  %3 = getelementptr inbounds %"struct.std::_Vector_base", %"struct.std::_Vector_base"* %2, i32 0, i32 0
  %4 = getelementptr inbounds %"struct.std::_Vector_base<std::complex<double>, std::allocator<std::complex<double> > >::_Vector_impl", %"struct.std::_Vector_base<std::complex<double>, std::allocator<std::complex<double> > >::_Vector_impl"* %3, i32 0, i32 0
  %5 = load %"struct.std::complex"*, %"struct.std::complex"** %4, align 8
  %6 = bitcast %"class.std::vector"* %0 to %"struct.std::_Vector_base"*
  %7 = getelementptr inbounds %"struct.std::_Vector_base", %"struct.std::_Vector_base"* %6, i32 0, i32 0
  %8 = getelementptr inbounds %"struct.std::_Vector_base<std::complex<double>, std::allocator<std::complex<double> > >::_Vector_impl", %"struct.std::_Vector_base<std::complex<double>, std::allocator<std::complex<double> > >::_Vector_impl"* %7, i32 0, i32 1
  %9 = load %"struct.std::complex"*, %"struct.std::complex"** %8, align 8
  %10 = bitcast %"class.std::vector"* %0 to %"struct.std::_Vector_base"*
  %11 = call dereferenceable(1) %"class.std::allocator.0"* @_ZNSt12_Vector_baseISt7complexIdESaIS1_EE19_M_get_Tp_allocatorEv(%"struct.std::_Vector_base"* %10) #3
  invoke void @_ZSt8_DestroyIPSt7complexIdES1_EvT_S3_RSaIT0_E(%"struct.std::complex"* %5, %"struct.std::complex"* %9, %"class.std::allocator.0"* dereferenceable(1) %11)
          to label %12 unwind label %14

12:                                               ; preds = %1
  %13 = bitcast %"class.std::vector"* %0 to %"struct.std::_Vector_base"*
  call void @_ZNSt12_Vector_baseISt7complexIdESaIS1_EED2Ev(%"struct.std::_Vector_base"* %13) #3
  ret void

14:                                               ; preds = %1
  %15 = landingpad { i8*, i32 }
          catch i8* null
  %16 = extractvalue { i8*, i32 } %15, 0
  %17 = extractvalue { i8*, i32 } %15, 1
  %18 = bitcast %"class.std::vector"* %0 to %"struct.std::_Vector_base"*
  call void @_ZNSt12_Vector_baseISt7complexIdESaIS1_EED2Ev(%"struct.std::_Vector_base"* %18) #3
  br label %19

19:                                               ; preds = %14
  call void @__clang_call_terminate(i8* %16) #15
  unreachable
}

; Function Attrs: nocallback nofree nosync nounwind readnone speculatable willreturn
declare double @llvm.fabs.f64(double) #6

; Function Attrs: noinline nounwind uwtable
define linkonce_odr void @_ZNSt8_Rb_treeI5PointS0_St9_IdentityIS0_ESt4lessIS0_ESaIS0_EEC2Ev(%"class.std::_Rb_tree"* %0) unnamed_addr #4 comdat align 2 {
  %2 = getelementptr inbounds %"class.std::_Rb_tree", %"class.std::_Rb_tree"* %0, i32 0, i32 0
  call void @_ZNSt8_Rb_treeI5PointS0_St9_IdentityIS0_ESt4lessIS0_ESaIS0_EE13_Rb_tree_implIS4_Lb1EEC2Ev(%"struct.std::_Rb_tree<Point, Point, std::_Identity<Point>, std::less<Point>, std::allocator<Point> >::_Rb_tree_impl"* %2) #3
  ret void
}

; Function Attrs: noinline nounwind uwtable
define linkonce_odr void @_ZNSt8_Rb_treeI5PointS0_St9_IdentityIS0_ESt4lessIS0_ESaIS0_EE13_Rb_tree_implIS4_Lb1EEC2Ev(%"struct.std::_Rb_tree<Point, Point, std::_Identity<Point>, std::less<Point>, std::allocator<Point> >::_Rb_tree_impl"* %0) unnamed_addr #4 comdat align 2 {
  %2 = bitcast %"struct.std::_Rb_tree<Point, Point, std::_Identity<Point>, std::less<Point>, std::allocator<Point> >::_Rb_tree_impl"* %0 to %"class.std::allocator"*
  call void @_ZNSaISt13_Rb_tree_nodeI5PointEEC2Ev(%"class.std::allocator"* %2) #3
  %3 = bitcast %"struct.std::_Rb_tree<Point, Point, std::_Identity<Point>, std::less<Point>, std::allocator<Point> >::_Rb_tree_impl"* %0 to %"struct.std::_Rb_tree_key_compare"*
  call void @_ZNSt20_Rb_tree_key_compareISt4lessI5PointEEC2Ev(%"struct.std::_Rb_tree_key_compare"* %3) #3
  %4 = bitcast %"struct.std::_Rb_tree<Point, Point, std::_Identity<Point>, std::less<Point>, std::allocator<Point> >::_Rb_tree_impl"* %0 to i8*
  %5 = getelementptr inbounds i8, i8* %4, i64 8
  %6 = bitcast i8* %5 to %"struct.std::_Rb_tree_header"*
  call void @_ZNSt15_Rb_tree_headerC2Ev(%"struct.std::_Rb_tree_header"* %6) #3
  ret void
}

; Function Attrs: noinline nounwind uwtable
define linkonce_odr void @_ZNSaISt13_Rb_tree_nodeI5PointEEC2Ev(%"class.std::allocator"* %0) unnamed_addr #4 comdat align 2 {
  %2 = bitcast %"class.std::allocator"* %0 to %"class.__gnu_cxx::new_allocator"*
  call void @_ZN9__gnu_cxx13new_allocatorISt13_Rb_tree_nodeI5PointEEC2Ev(%"class.__gnu_cxx::new_allocator"* %2) #3
  ret void
}

; Function Attrs: noinline nounwind uwtable
define linkonce_odr void @_ZNSt20_Rb_tree_key_compareISt4lessI5PointEEC2Ev(%"struct.std::_Rb_tree_key_compare"* %0) unnamed_addr #4 comdat align 2 {
  %2 = getelementptr inbounds %"struct.std::_Rb_tree_key_compare", %"struct.std::_Rb_tree_key_compare"* %0, i32 0, i32 0
  ret void
}

; Function Attrs: noinline nounwind uwtable
define linkonce_odr void @_ZNSt15_Rb_tree_headerC2Ev(%"struct.std::_Rb_tree_header"* %0) unnamed_addr #4 comdat align 2 personality i8* bitcast (i32 (...)* @__gxx_personality_v0 to i8*) {
  %2 = getelementptr inbounds %"struct.std::_Rb_tree_header", %"struct.std::_Rb_tree_header"* %0, i32 0, i32 0
  %3 = getelementptr inbounds %"struct.std::_Rb_tree_header", %"struct.std::_Rb_tree_header"* %0, i32 0, i32 0
  %4 = getelementptr inbounds %"struct.std::_Rb_tree_node_base", %"struct.std::_Rb_tree_node_base"* %3, i32 0, i32 0
  store i32 0, i32* %4, align 8
  invoke void @_ZNSt15_Rb_tree_header8_M_resetEv(%"struct.std::_Rb_tree_header"* %0)
          to label %5 unwind label %6

5:                                                ; preds = %1
  ret void

6:                                                ; preds = %1
  %7 = landingpad { i8*, i32 }
          catch i8* null
  %8 = extractvalue { i8*, i32 } %7, 0
  call void @__clang_call_terminate(i8* %8) #15
  unreachable
}

; Function Attrs: noinline nounwind uwtable
define linkonce_odr void @_ZN9__gnu_cxx13new_allocatorISt13_Rb_tree_nodeI5PointEEC2Ev(%"class.__gnu_cxx::new_allocator"* %0) unnamed_addr #4 comdat align 2 {
  ret void
}

; Function Attrs: noinline nounwind uwtable
define linkonce_odr void @_ZNSt15_Rb_tree_header8_M_resetEv(%"struct.std::_Rb_tree_header"* %0) #4 comdat align 2 {
  %2 = getelementptr inbounds %"struct.std::_Rb_tree_header", %"struct.std::_Rb_tree_header"* %0, i32 0, i32 0
  %3 = getelementptr inbounds %"struct.std::_Rb_tree_node_base", %"struct.std::_Rb_tree_node_base"* %2, i32 0, i32 1
  store %"struct.std::_Rb_tree_node_base"* null, %"struct.std::_Rb_tree_node_base"** %3, align 8
  %4 = getelementptr inbounds %"struct.std::_Rb_tree_header", %"struct.std::_Rb_tree_header"* %0, i32 0, i32 0
  %5 = getelementptr inbounds %"struct.std::_Rb_tree_header", %"struct.std::_Rb_tree_header"* %0, i32 0, i32 0
  %6 = getelementptr inbounds %"struct.std::_Rb_tree_node_base", %"struct.std::_Rb_tree_node_base"* %5, i32 0, i32 2
  store %"struct.std::_Rb_tree_node_base"* %4, %"struct.std::_Rb_tree_node_base"** %6, align 8
  %7 = getelementptr inbounds %"struct.std::_Rb_tree_header", %"struct.std::_Rb_tree_header"* %0, i32 0, i32 0
  %8 = getelementptr inbounds %"struct.std::_Rb_tree_header", %"struct.std::_Rb_tree_header"* %0, i32 0, i32 0
  %9 = getelementptr inbounds %"struct.std::_Rb_tree_node_base", %"struct.std::_Rb_tree_node_base"* %8, i32 0, i32 3
  store %"struct.std::_Rb_tree_node_base"* %7, %"struct.std::_Rb_tree_node_base"** %9, align 8
  %10 = getelementptr inbounds %"struct.std::_Rb_tree_header", %"struct.std::_Rb_tree_header"* %0, i32 0, i32 1
  store i64 0, i64* %10, align 8
  ret void
}

; Function Attrs: noinline noreturn nounwind
define linkonce_odr hidden void @__clang_call_terminate(i8* %0) #7 comdat {
  %2 = call i8* @__cxa_begin_catch(i8* %0) #3
  call void @_ZSt9terminatev() #15
  unreachable
}

declare i8* @__cxa_begin_catch(i8*)

declare void @_ZSt9terminatev()

; Function Attrs: noinline nounwind uwtable
define linkonce_odr void @_ZNSt8_Rb_treeI5PointS0_St9_IdentityIS0_ESt4lessIS0_ESaIS0_EED2Ev(%"class.std::_Rb_tree"* %0) unnamed_addr #4 comdat align 2 personality i8* bitcast (i32 (...)* @__gxx_personality_v0 to i8*) {
  %2 = call %"struct.std::_Rb_tree_node"* @_ZNSt8_Rb_treeI5PointS0_St9_IdentityIS0_ESt4lessIS0_ESaIS0_EE8_M_beginEv(%"class.std::_Rb_tree"* %0) #3
  invoke void @_ZNSt8_Rb_treeI5PointS0_St9_IdentityIS0_ESt4lessIS0_ESaIS0_EE8_M_eraseEPSt13_Rb_tree_nodeIS0_E(%"class.std::_Rb_tree"* %0, %"struct.std::_Rb_tree_node"* %2)
          to label %3 unwind label %5

3:                                                ; preds = %1
  %4 = getelementptr inbounds %"class.std::_Rb_tree", %"class.std::_Rb_tree"* %0, i32 0, i32 0
  call void @_ZNSt8_Rb_treeI5PointS0_St9_IdentityIS0_ESt4lessIS0_ESaIS0_EE13_Rb_tree_implIS4_Lb1EED2Ev(%"struct.std::_Rb_tree<Point, Point, std::_Identity<Point>, std::less<Point>, std::allocator<Point> >::_Rb_tree_impl"* %4) #3
  ret void

5:                                                ; preds = %1
  %6 = landingpad { i8*, i32 }
          catch i8* null
  %7 = extractvalue { i8*, i32 } %6, 0
  %8 = extractvalue { i8*, i32 } %6, 1
  %9 = getelementptr inbounds %"class.std::_Rb_tree", %"class.std::_Rb_tree"* %0, i32 0, i32 0
  call void @_ZNSt8_Rb_treeI5PointS0_St9_IdentityIS0_ESt4lessIS0_ESaIS0_EE13_Rb_tree_implIS4_Lb1EED2Ev(%"struct.std::_Rb_tree<Point, Point, std::_Identity<Point>, std::less<Point>, std::allocator<Point> >::_Rb_tree_impl"* %9) #3
  br label %10

10:                                               ; preds = %5
  call void @__clang_call_terminate(i8* %7) #15
  unreachable
}

; Function Attrs: noinline uwtable
define linkonce_odr void @_ZNSt8_Rb_treeI5PointS0_St9_IdentityIS0_ESt4lessIS0_ESaIS0_EE8_M_eraseEPSt13_Rb_tree_nodeIS0_E(%"class.std::_Rb_tree"* %0, %"struct.std::_Rb_tree_node"* %1) #0 comdat align 2 {
  br label %3

3:                                                ; preds = %5, %2
  %.0 = phi %"struct.std::_Rb_tree_node"* [ %1, %2 ], [ %9, %5 ]
  %4 = icmp ne %"struct.std::_Rb_tree_node"* %.0, null
  br i1 %4, label %5, label %10

5:                                                ; preds = %3
  %6 = bitcast %"struct.std::_Rb_tree_node"* %.0 to %"struct.std::_Rb_tree_node_base"*
  %7 = call %"struct.std::_Rb_tree_node"* @_ZNSt8_Rb_treeI5PointS0_St9_IdentityIS0_ESt4lessIS0_ESaIS0_EE8_S_rightEPSt18_Rb_tree_node_base(%"struct.std::_Rb_tree_node_base"* %6) #3
  call void @_ZNSt8_Rb_treeI5PointS0_St9_IdentityIS0_ESt4lessIS0_ESaIS0_EE8_M_eraseEPSt13_Rb_tree_nodeIS0_E(%"class.std::_Rb_tree"* %0, %"struct.std::_Rb_tree_node"* %7)
  %8 = bitcast %"struct.std::_Rb_tree_node"* %.0 to %"struct.std::_Rb_tree_node_base"*
  %9 = call %"struct.std::_Rb_tree_node"* @_ZNSt8_Rb_treeI5PointS0_St9_IdentityIS0_ESt4lessIS0_ESaIS0_EE7_S_leftEPSt18_Rb_tree_node_base(%"struct.std::_Rb_tree_node_base"* %8) #3
  call void @_ZNSt8_Rb_treeI5PointS0_St9_IdentityIS0_ESt4lessIS0_ESaIS0_EE12_M_drop_nodeEPSt13_Rb_tree_nodeIS0_E(%"class.std::_Rb_tree"* %0, %"struct.std::_Rb_tree_node"* %.0) #3
  br label %3

10:                                               ; preds = %3
  ret void
}

; Function Attrs: noinline nounwind uwtable
define linkonce_odr %"struct.std::_Rb_tree_node"* @_ZNSt8_Rb_treeI5PointS0_St9_IdentityIS0_ESt4lessIS0_ESaIS0_EE8_M_beginEv(%"class.std::_Rb_tree"* %0) #4 comdat align 2 {
  %2 = getelementptr inbounds %"class.std::_Rb_tree", %"class.std::_Rb_tree"* %0, i32 0, i32 0
  %3 = bitcast %"struct.std::_Rb_tree<Point, Point, std::_Identity<Point>, std::less<Point>, std::allocator<Point> >::_Rb_tree_impl"* %2 to i8*
  %4 = getelementptr inbounds i8, i8* %3, i64 8
  %5 = bitcast i8* %4 to %"struct.std::_Rb_tree_header"*
  %6 = getelementptr inbounds %"struct.std::_Rb_tree_header", %"struct.std::_Rb_tree_header"* %5, i32 0, i32 0
  %7 = getelementptr inbounds %"struct.std::_Rb_tree_node_base", %"struct.std::_Rb_tree_node_base"* %6, i32 0, i32 1
  %8 = load %"struct.std::_Rb_tree_node_base"*, %"struct.std::_Rb_tree_node_base"** %7, align 8
  %9 = bitcast %"struct.std::_Rb_tree_node_base"* %8 to %"struct.std::_Rb_tree_node"*
  ret %"struct.std::_Rb_tree_node"* %9
}

; Function Attrs: noinline nounwind uwtable
define linkonce_odr void @_ZNSt8_Rb_treeI5PointS0_St9_IdentityIS0_ESt4lessIS0_ESaIS0_EE13_Rb_tree_implIS4_Lb1EED2Ev(%"struct.std::_Rb_tree<Point, Point, std::_Identity<Point>, std::less<Point>, std::allocator<Point> >::_Rb_tree_impl"* %0) unnamed_addr #4 comdat align 2 {
  %2 = bitcast %"struct.std::_Rb_tree<Point, Point, std::_Identity<Point>, std::less<Point>, std::allocator<Point> >::_Rb_tree_impl"* %0 to %"class.std::allocator"*
  call void @_ZNSaISt13_Rb_tree_nodeI5PointEED2Ev(%"class.std::allocator"* %2) #3
  ret void
}

; Function Attrs: noinline nounwind uwtable
define linkonce_odr %"struct.std::_Rb_tree_node"* @_ZNSt8_Rb_treeI5PointS0_St9_IdentityIS0_ESt4lessIS0_ESaIS0_EE8_S_rightEPSt18_Rb_tree_node_base(%"struct.std::_Rb_tree_node_base"* %0) #4 comdat align 2 {
  %2 = getelementptr inbounds %"struct.std::_Rb_tree_node_base", %"struct.std::_Rb_tree_node_base"* %0, i32 0, i32 3
  %3 = load %"struct.std::_Rb_tree_node_base"*, %"struct.std::_Rb_tree_node_base"** %2, align 8
  %4 = bitcast %"struct.std::_Rb_tree_node_base"* %3 to %"struct.std::_Rb_tree_node"*
  ret %"struct.std::_Rb_tree_node"* %4
}

; Function Attrs: noinline nounwind uwtable
define linkonce_odr %"struct.std::_Rb_tree_node"* @_ZNSt8_Rb_treeI5PointS0_St9_IdentityIS0_ESt4lessIS0_ESaIS0_EE7_S_leftEPSt18_Rb_tree_node_base(%"struct.std::_Rb_tree_node_base"* %0) #4 comdat align 2 {
  %2 = getelementptr inbounds %"struct.std::_Rb_tree_node_base", %"struct.std::_Rb_tree_node_base"* %0, i32 0, i32 2
  %3 = load %"struct.std::_Rb_tree_node_base"*, %"struct.std::_Rb_tree_node_base"** %2, align 8
  %4 = bitcast %"struct.std::_Rb_tree_node_base"* %3 to %"struct.std::_Rb_tree_node"*
  ret %"struct.std::_Rb_tree_node"* %4
}

; Function Attrs: noinline nounwind uwtable
define linkonce_odr void @_ZNSt8_Rb_treeI5PointS0_St9_IdentityIS0_ESt4lessIS0_ESaIS0_EE12_M_drop_nodeEPSt13_Rb_tree_nodeIS0_E(%"class.std::_Rb_tree"* %0, %"struct.std::_Rb_tree_node"* %1) #4 comdat align 2 {
  call void @_ZNSt8_Rb_treeI5PointS0_St9_IdentityIS0_ESt4lessIS0_ESaIS0_EE15_M_destroy_nodeEPSt13_Rb_tree_nodeIS0_E(%"class.std::_Rb_tree"* %0, %"struct.std::_Rb_tree_node"* %1) #3
  call void @_ZNSt8_Rb_treeI5PointS0_St9_IdentityIS0_ESt4lessIS0_ESaIS0_EE11_M_put_nodeEPSt13_Rb_tree_nodeIS0_E(%"class.std::_Rb_tree"* %0, %"struct.std::_Rb_tree_node"* %1) #3
  ret void
}

; Function Attrs: noinline nounwind uwtable
define linkonce_odr void @_ZNSt8_Rb_treeI5PointS0_St9_IdentityIS0_ESt4lessIS0_ESaIS0_EE15_M_destroy_nodeEPSt13_Rb_tree_nodeIS0_E(%"class.std::_Rb_tree"* %0, %"struct.std::_Rb_tree_node"* %1) #4 comdat align 2 personality i8* bitcast (i32 (...)* @__gxx_personality_v0 to i8*) {
  %3 = call dereferenceable(1) %"class.std::allocator"* @_ZNSt8_Rb_treeI5PointS0_St9_IdentityIS0_ESt4lessIS0_ESaIS0_EE21_M_get_Node_allocatorEv(%"class.std::_Rb_tree"* %0) #3
  %4 = invoke %class.Point* @_ZNSt13_Rb_tree_nodeI5PointE9_M_valptrEv(%"struct.std::_Rb_tree_node"* %1)
          to label %5 unwind label %7

5:                                                ; preds = %2
  invoke void @_ZNSt16allocator_traitsISaISt13_Rb_tree_nodeI5PointEEE7destroyIS1_EEvRS3_PT_(%"class.std::allocator"* dereferenceable(1) %3, %class.Point* %4)
          to label %6 unwind label %7

6:                                                ; preds = %5
  ret void

7:                                                ; preds = %5, %2
  %8 = landingpad { i8*, i32 }
          catch i8* null
  %9 = extractvalue { i8*, i32 } %8, 0
  call void @__clang_call_terminate(i8* %9) #15
  unreachable
}

; Function Attrs: noinline nounwind uwtable
define linkonce_odr void @_ZNSt8_Rb_treeI5PointS0_St9_IdentityIS0_ESt4lessIS0_ESaIS0_EE11_M_put_nodeEPSt13_Rb_tree_nodeIS0_E(%"class.std::_Rb_tree"* %0, %"struct.std::_Rb_tree_node"* %1) #4 comdat align 2 personality i8* bitcast (i32 (...)* @__gxx_personality_v0 to i8*) {
  %3 = call dereferenceable(1) %"class.std::allocator"* @_ZNSt8_Rb_treeI5PointS0_St9_IdentityIS0_ESt4lessIS0_ESaIS0_EE21_M_get_Node_allocatorEv(%"class.std::_Rb_tree"* %0) #3
  invoke void @_ZNSt16allocator_traitsISaISt13_Rb_tree_nodeI5PointEEE10deallocateERS3_PS2_m(%"class.std::allocator"* dereferenceable(1) %3, %"struct.std::_Rb_tree_node"* %1, i64 1)
          to label %4 unwind label %5

4:                                                ; preds = %2
  ret void

5:                                                ; preds = %2
  %6 = landingpad { i8*, i32 }
          catch i8* null
  %7 = extractvalue { i8*, i32 } %6, 0
  call void @__clang_call_terminate(i8* %7) #15
  unreachable
}

; Function Attrs: noinline uwtable
define linkonce_odr void @_ZNSt16allocator_traitsISaISt13_Rb_tree_nodeI5PointEEE7destroyIS1_EEvRS3_PT_(%"class.std::allocator"* dereferenceable(1) %0, %class.Point* %1) #0 comdat align 2 {
  %3 = bitcast %"class.std::allocator"* %0 to %"class.__gnu_cxx::new_allocator"*
  call void @_ZN9__gnu_cxx13new_allocatorISt13_Rb_tree_nodeI5PointEE7destroyIS2_EEvPT_(%"class.__gnu_cxx::new_allocator"* %3, %class.Point* %1)
  ret void
}

; Function Attrs: noinline nounwind uwtable
define linkonce_odr dereferenceable(1) %"class.std::allocator"* @_ZNSt8_Rb_treeI5PointS0_St9_IdentityIS0_ESt4lessIS0_ESaIS0_EE21_M_get_Node_allocatorEv(%"class.std::_Rb_tree"* %0) #4 comdat align 2 {
  %2 = getelementptr inbounds %"class.std::_Rb_tree", %"class.std::_Rb_tree"* %0, i32 0, i32 0
  %3 = bitcast %"struct.std::_Rb_tree<Point, Point, std::_Identity<Point>, std::less<Point>, std::allocator<Point> >::_Rb_tree_impl"* %2 to %"class.std::allocator"*
  ret %"class.std::allocator"* %3
}

; Function Attrs: noinline nounwind uwtable
define linkonce_odr %class.Point* @_ZNSt13_Rb_tree_nodeI5PointE9_M_valptrEv(%"struct.std::_Rb_tree_node"* %0) #4 comdat align 2 {
  %2 = getelementptr inbounds %"struct.std::_Rb_tree_node", %"struct.std::_Rb_tree_node"* %0, i32 0, i32 1
  %3 = call %class.Point* @_ZN9__gnu_cxx16__aligned_membufI5PointE6_M_ptrEv(%"struct.__gnu_cxx::__aligned_membuf"* %2) #3
  ret %class.Point* %3
}

; Function Attrs: noinline nounwind uwtable
define linkonce_odr void @_ZN9__gnu_cxx13new_allocatorISt13_Rb_tree_nodeI5PointEE7destroyIS2_EEvPT_(%"class.__gnu_cxx::new_allocator"* %0, %class.Point* %1) #4 comdat align 2 {
  ret void
}

; Function Attrs: noinline nounwind uwtable
define linkonce_odr %class.Point* @_ZN9__gnu_cxx16__aligned_membufI5PointE6_M_ptrEv(%"struct.__gnu_cxx::__aligned_membuf"* %0) #4 comdat align 2 {
  %2 = call i8* @_ZN9__gnu_cxx16__aligned_membufI5PointE7_M_addrEv(%"struct.__gnu_cxx::__aligned_membuf"* %0) #3
  %3 = bitcast i8* %2 to %class.Point*
  ret %class.Point* %3
}

; Function Attrs: noinline nounwind uwtable
define linkonce_odr i8* @_ZN9__gnu_cxx16__aligned_membufI5PointE7_M_addrEv(%"struct.__gnu_cxx::__aligned_membuf"* %0) #4 comdat align 2 {
  %2 = getelementptr inbounds %"struct.__gnu_cxx::__aligned_membuf", %"struct.__gnu_cxx::__aligned_membuf"* %0, i32 0, i32 0
  %3 = bitcast [16 x i8]* %2 to i8*
  ret i8* %3
}

; Function Attrs: noinline uwtable
define linkonce_odr void @_ZNSt16allocator_traitsISaISt13_Rb_tree_nodeI5PointEEE10deallocateERS3_PS2_m(%"class.std::allocator"* dereferenceable(1) %0, %"struct.std::_Rb_tree_node"* %1, i64 %2) #0 comdat align 2 {
  %4 = bitcast %"class.std::allocator"* %0 to %"class.__gnu_cxx::new_allocator"*
  call void @_ZN9__gnu_cxx13new_allocatorISt13_Rb_tree_nodeI5PointEE10deallocateEPS3_m(%"class.__gnu_cxx::new_allocator"* %4, %"struct.std::_Rb_tree_node"* %1, i64 %2)
  ret void
}

; Function Attrs: noinline nounwind uwtable
define linkonce_odr void @_ZN9__gnu_cxx13new_allocatorISt13_Rb_tree_nodeI5PointEE10deallocateEPS3_m(%"class.__gnu_cxx::new_allocator"* %0, %"struct.std::_Rb_tree_node"* %1, i64 %2) #4 comdat align 2 {
  %4 = bitcast %"struct.std::_Rb_tree_node"* %1 to i8*
  call void @_ZdlPv(i8* %4) #3
  ret void
}

; Function Attrs: nobuiltin nounwind
declare void @_ZdlPv(i8*) #8

; Function Attrs: noinline nounwind uwtable
define linkonce_odr void @_ZNSaISt13_Rb_tree_nodeI5PointEED2Ev(%"class.std::allocator"* %0) unnamed_addr #4 comdat align 2 {
  %2 = bitcast %"class.std::allocator"* %0 to %"class.__gnu_cxx::new_allocator"*
  call void @_ZN9__gnu_cxx13new_allocatorISt13_Rb_tree_nodeI5PointEED2Ev(%"class.__gnu_cxx::new_allocator"* %2) #3
  ret void
}

; Function Attrs: noinline nounwind uwtable
define linkonce_odr void @_ZN9__gnu_cxx13new_allocatorISt13_Rb_tree_nodeI5PointEED2Ev(%"class.__gnu_cxx::new_allocator"* %0) unnamed_addr #4 comdat align 2 {
  ret void
}

; Function Attrs: noinline nounwind uwtable
define linkonce_odr dereferenceable(16) %"struct.std::complex"* @_ZNSt7complexIdEmIIdEERS0_RKS_IT_E(%"struct.std::complex"* %0, %"struct.std::complex"* dereferenceable(16) %1) #4 comdat align 2 {
  %3 = call double @_ZNKSt7complexIdE4realB5cxx11Ev(%"struct.std::complex"* %1)
  %4 = getelementptr inbounds %"struct.std::complex", %"struct.std::complex"* %0, i32 0, i32 0
  %5 = getelementptr inbounds { double, double }, { double, double }* %4, i32 0, i32 0
  %6 = load double, double* %5, align 8
  %7 = fsub double %6, %3
  store double %7, double* %5, align 8
  %8 = call double @_ZNKSt7complexIdE4imagB5cxx11Ev(%"struct.std::complex"* %1)
  %9 = getelementptr inbounds %"struct.std::complex", %"struct.std::complex"* %0, i32 0, i32 0
  %10 = getelementptr inbounds { double, double }, { double, double }* %9, i32 0, i32 1
  %11 = load double, double* %10, align 8
  %12 = fsub double %11, %8
  store double %12, double* %10, align 8
  ret %"struct.std::complex"* %0
}

; Function Attrs: noinline nounwind uwtable
define linkonce_odr double @_ZSt13__complex_absCd(double %0, double %1) #4 comdat {
  %3 = alloca { double, double }, align 8
  %4 = alloca { double, double }, align 8
  %5 = getelementptr inbounds { double, double }, { double, double }* %3, i32 0, i32 0
  store double %0, double* %5, align 8
  %6 = getelementptr inbounds { double, double }, { double, double }* %3, i32 0, i32 1
  store double %1, double* %6, align 8
  %7 = getelementptr inbounds { double, double }, { double, double }* %3, i32 0, i32 0
  %8 = load double, double* %7, align 8
  %9 = getelementptr inbounds { double, double }, { double, double }* %3, i32 0, i32 1
  %10 = load double, double* %9, align 8
  %11 = getelementptr inbounds { double, double }, { double, double }* %4, i32 0, i32 0
  %12 = getelementptr inbounds { double, double }, { double, double }* %4, i32 0, i32 1
  store double %8, double* %11, align 8
  store double %10, double* %12, align 8
  %13 = getelementptr inbounds { double, double }, { double, double }* %4, i32 0, i32 0
  %14 = load double, double* %13, align 8
  %15 = getelementptr inbounds { double, double }, { double, double }* %4, i32 0, i32 1
  %16 = load double, double* %15, align 8
  %17 = call double @cabs(double %14, double %16) #3
  ret double %17
}

; Function Attrs: noinline nounwind uwtable
define linkonce_odr { double, double } @_ZNKSt7complexIdE5__repEv(%"struct.std::complex"* %0) #4 comdat align 2 {
  %2 = alloca { double, double }, align 8
  %3 = getelementptr inbounds %"struct.std::complex", %"struct.std::complex"* %0, i32 0, i32 0
  %4 = getelementptr inbounds { double, double }, { double, double }* %3, i32 0, i32 0
  %5 = load double, double* %4, align 8
  %6 = getelementptr inbounds { double, double }, { double, double }* %3, i32 0, i32 1
  %7 = load double, double* %6, align 8
  %8 = getelementptr inbounds { double, double }, { double, double }* %2, i32 0, i32 0
  %9 = getelementptr inbounds { double, double }, { double, double }* %2, i32 0, i32 1
  store double %5, double* %8, align 8
  store double %7, double* %9, align 8
  %10 = load { double, double }, { double, double }* %2, align 8
  ret { double, double } %10
}

; Function Attrs: nounwind
declare double @cabs(double, double) #2

; Function Attrs: noinline uwtable
define linkonce_odr { %"struct.std::_Rb_tree_node_base"*, i8 } @_ZNSt8_Rb_treeI5PointS0_St9_IdentityIS0_ESt4lessIS0_ESaIS0_EE16_M_insert_uniqueIS0_EESt4pairISt17_Rb_tree_iteratorIS0_EbEOT_(%"class.std::_Rb_tree"* %0, %class.Point* dereferenceable(16) %1) #0 comdat align 2 {
  %3 = alloca %"struct.std::pair.3", align 8
  %4 = alloca %"struct.std::pair.7", align 8
  %5 = alloca %"struct.std::_Identity", align 1
  %6 = alloca %"struct.std::_Rb_tree<Point, Point, std::_Identity<Point>, std::less<Point>, std::allocator<Point> >::_Alloc_node", align 8
  %7 = alloca %"struct.std::_Rb_tree_iterator", align 8
  %8 = alloca i8, align 1
  %9 = alloca %"struct.std::_Rb_tree_iterator", align 8
  %10 = alloca i8, align 1
  %11 = call dereferenceable(16) %class.Point* @_ZNKSt9_IdentityI5PointEclERS0_(%"struct.std::_Identity"* %5, %class.Point* dereferenceable(16) %1)
  %12 = call { %"struct.std::_Rb_tree_node_base"*, %"struct.std::_Rb_tree_node_base"* } @_ZNSt8_Rb_treeI5PointS0_St9_IdentityIS0_ESt4lessIS0_ESaIS0_EE24_M_get_insert_unique_posERKS0_(%"class.std::_Rb_tree"* %0, %class.Point* dereferenceable(16) %11)
  %13 = bitcast %"struct.std::pair.7"* %4 to { %"struct.std::_Rb_tree_node_base"*, %"struct.std::_Rb_tree_node_base"* }*
  %14 = getelementptr inbounds { %"struct.std::_Rb_tree_node_base"*, %"struct.std::_Rb_tree_node_base"* }, { %"struct.std::_Rb_tree_node_base"*, %"struct.std::_Rb_tree_node_base"* }* %13, i32 0, i32 0
  %15 = extractvalue { %"struct.std::_Rb_tree_node_base"*, %"struct.std::_Rb_tree_node_base"* } %12, 0
  store %"struct.std::_Rb_tree_node_base"* %15, %"struct.std::_Rb_tree_node_base"** %14, align 8
  %16 = getelementptr inbounds { %"struct.std::_Rb_tree_node_base"*, %"struct.std::_Rb_tree_node_base"* }, { %"struct.std::_Rb_tree_node_base"*, %"struct.std::_Rb_tree_node_base"* }* %13, i32 0, i32 1
  %17 = extractvalue { %"struct.std::_Rb_tree_node_base"*, %"struct.std::_Rb_tree_node_base"* } %12, 1
  store %"struct.std::_Rb_tree_node_base"* %17, %"struct.std::_Rb_tree_node_base"** %16, align 8
  %18 = getelementptr inbounds %"struct.std::pair.7", %"struct.std::pair.7"* %4, i32 0, i32 1
  %19 = load %"struct.std::_Rb_tree_node_base"*, %"struct.std::_Rb_tree_node_base"** %18, align 8
  %20 = icmp ne %"struct.std::_Rb_tree_node_base"* %19, null
  br i1 %20, label %21, label %29

21:                                               ; preds = %2
  call void @_ZNSt8_Rb_treeI5PointS0_St9_IdentityIS0_ESt4lessIS0_ESaIS0_EE11_Alloc_nodeC2ERS6_(%"struct.std::_Rb_tree<Point, Point, std::_Identity<Point>, std::less<Point>, std::allocator<Point> >::_Alloc_node"* %6, %"class.std::_Rb_tree"* dereferenceable(48) %0)
  %22 = getelementptr inbounds %"struct.std::pair.7", %"struct.std::pair.7"* %4, i32 0, i32 0
  %23 = load %"struct.std::_Rb_tree_node_base"*, %"struct.std::_Rb_tree_node_base"** %22, align 8
  %24 = getelementptr inbounds %"struct.std::pair.7", %"struct.std::pair.7"* %4, i32 0, i32 1
  %25 = load %"struct.std::_Rb_tree_node_base"*, %"struct.std::_Rb_tree_node_base"** %24, align 8
  %26 = call dereferenceable(16) %class.Point* @_ZSt7forwardI5PointEOT_RNSt16remove_referenceIS1_E4typeE(%class.Point* dereferenceable(16) %1) #3
  %27 = call %"struct.std::_Rb_tree_node_base"* @_ZNSt8_Rb_treeI5PointS0_St9_IdentityIS0_ESt4lessIS0_ESaIS0_EE10_M_insert_IS0_NS6_11_Alloc_nodeEEESt17_Rb_tree_iteratorIS0_EPSt18_Rb_tree_node_baseSC_OT_RT0_(%"class.std::_Rb_tree"* %0, %"struct.std::_Rb_tree_node_base"* %23, %"struct.std::_Rb_tree_node_base"* %25, %class.Point* dereferenceable(16) %26, %"struct.std::_Rb_tree<Point, Point, std::_Identity<Point>, std::less<Point>, std::allocator<Point> >::_Alloc_node"* dereferenceable(8) %6)
  %28 = getelementptr inbounds %"struct.std::_Rb_tree_iterator", %"struct.std::_Rb_tree_iterator"* %7, i32 0, i32 0
  store %"struct.std::_Rb_tree_node_base"* %27, %"struct.std::_Rb_tree_node_base"** %28, align 8
  store i8 1, i8* %8, align 1
  call void @_ZNSt4pairISt17_Rb_tree_iteratorI5PointEbEC2IS2_bLb1EEEOT_OT0_(%"struct.std::pair.3"* %3, %"struct.std::_Rb_tree_iterator"* dereferenceable(8) %7, i8* dereferenceable(1) %8)
  br label %32

29:                                               ; preds = %2
  %30 = getelementptr inbounds %"struct.std::pair.7", %"struct.std::pair.7"* %4, i32 0, i32 0
  %31 = load %"struct.std::_Rb_tree_node_base"*, %"struct.std::_Rb_tree_node_base"** %30, align 8
  call void @_ZNSt17_Rb_tree_iteratorI5PointEC2EPSt18_Rb_tree_node_base(%"struct.std::_Rb_tree_iterator"* %9, %"struct.std::_Rb_tree_node_base"* %31) #3
  store i8 0, i8* %10, align 1
  call void @_ZNSt4pairISt17_Rb_tree_iteratorI5PointEbEC2IS2_bLb1EEEOT_OT0_(%"struct.std::pair.3"* %3, %"struct.std::_Rb_tree_iterator"* dereferenceable(8) %9, i8* dereferenceable(1) %10)
  br label %32

32:                                               ; preds = %29, %21
  %33 = bitcast %"struct.std::pair.3"* %3 to { %"struct.std::_Rb_tree_node_base"*, i8 }*
  %34 = load { %"struct.std::_Rb_tree_node_base"*, i8 }, { %"struct.std::_Rb_tree_node_base"*, i8 }* %33, align 8
  ret { %"struct.std::_Rb_tree_node_base"*, i8 } %34
}

; Function Attrs: noinline nounwind uwtable
define linkonce_odr dereferenceable(16) %class.Point* @_ZSt4moveIR5PointEONSt16remove_referenceIT_E4typeEOS3_(%class.Point* dereferenceable(16) %0) #4 comdat {
  ret %class.Point* %0
}

; Function Attrs: noinline nounwind uwtable
define linkonce_odr void @_ZNSt4pairISt23_Rb_tree_const_iteratorI5PointEbEC2IRSt17_Rb_tree_iteratorIS1_ERbLb1EEEOT_OT0_(%"struct.std::pair"* %0, %"struct.std::_Rb_tree_iterator"* dereferenceable(8) %1, i8* dereferenceable(1) %2) unnamed_addr #4 comdat align 2 {
  %4 = bitcast %"struct.std::pair"* %0 to %"class.std::__pair_base"*
  %5 = getelementptr inbounds %"struct.std::pair", %"struct.std::pair"* %0, i32 0, i32 0
  %6 = call dereferenceable(8) %"struct.std::_Rb_tree_iterator"* @_ZSt7forwardIRSt17_Rb_tree_iteratorI5PointEEOT_RNSt16remove_referenceIS4_E4typeE(%"struct.std::_Rb_tree_iterator"* dereferenceable(8) %1) #3
  call void @_ZNSt23_Rb_tree_const_iteratorI5PointEC2ERKSt17_Rb_tree_iteratorIS0_E(%"struct.std::_Rb_tree_const_iterator"* %5, %"struct.std::_Rb_tree_iterator"* dereferenceable(8) %6) #3
  %7 = getelementptr inbounds %"struct.std::pair", %"struct.std::pair"* %0, i32 0, i32 1
  %8 = call dereferenceable(1) i8* @_ZSt7forwardIRbEOT_RNSt16remove_referenceIS1_E4typeE(i8* dereferenceable(1) %2) #3
  %9 = load i8, i8* %8, align 1
  %10 = trunc i8 %9 to i1
  %11 = zext i1 %10 to i8
  store i8 %11, i8* %7, align 8
  ret void
}

; Function Attrs: noinline uwtable
define linkonce_odr { %"struct.std::_Rb_tree_node_base"*, %"struct.std::_Rb_tree_node_base"* } @_ZNSt8_Rb_treeI5PointS0_St9_IdentityIS0_ESt4lessIS0_ESaIS0_EE24_M_get_insert_unique_posERKS0_(%"class.std::_Rb_tree"* %0, %class.Point* dereferenceable(16) %1) #0 comdat align 2 {
  %3 = alloca %"struct.std::pair.7", align 8
  %4 = alloca %"struct.std::_Rb_tree_node"*, align 8
  %5 = alloca %"struct.std::_Rb_tree_node_base"*, align 8
  %6 = alloca %"struct.std::_Rb_tree_iterator", align 8
  %7 = alloca %"struct.std::_Rb_tree_iterator", align 8
  %8 = alloca %"struct.std::_Rb_tree_node_base"*, align 8
  %9 = call %"struct.std::_Rb_tree_node"* @_ZNSt8_Rb_treeI5PointS0_St9_IdentityIS0_ESt4lessIS0_ESaIS0_EE8_M_beginEv(%"class.std::_Rb_tree"* %0) #3
  store %"struct.std::_Rb_tree_node"* %9, %"struct.std::_Rb_tree_node"** %4, align 8
  %10 = call %"struct.std::_Rb_tree_node_base"* @_ZNSt8_Rb_treeI5PointS0_St9_IdentityIS0_ESt4lessIS0_ESaIS0_EE6_M_endEv(%"class.std::_Rb_tree"* %0) #3
  store %"struct.std::_Rb_tree_node_base"* %10, %"struct.std::_Rb_tree_node_base"** %5, align 8
  br label %11

11:                                               ; preds = %33, %2
  %.0 = phi i8 [ 1, %2 ], [ %23, %33 ]
  %12 = load %"struct.std::_Rb_tree_node"*, %"struct.std::_Rb_tree_node"** %4, align 8
  %13 = icmp ne %"struct.std::_Rb_tree_node"* %12, null
  br i1 %13, label %14, label %35

14:                                               ; preds = %11
  %15 = load %"struct.std::_Rb_tree_node"*, %"struct.std::_Rb_tree_node"** %4, align 8
  %16 = bitcast %"struct.std::_Rb_tree_node"* %15 to %"struct.std::_Rb_tree_node_base"*
  store %"struct.std::_Rb_tree_node_base"* %16, %"struct.std::_Rb_tree_node_base"** %5, align 8
  %17 = getelementptr inbounds %"class.std::_Rb_tree", %"class.std::_Rb_tree"* %0, i32 0, i32 0
  %18 = bitcast %"struct.std::_Rb_tree<Point, Point, std::_Identity<Point>, std::less<Point>, std::allocator<Point> >::_Rb_tree_impl"* %17 to %"struct.std::_Rb_tree_key_compare"*
  %19 = getelementptr inbounds %"struct.std::_Rb_tree_key_compare", %"struct.std::_Rb_tree_key_compare"* %18, i32 0, i32 0
  %20 = load %"struct.std::_Rb_tree_node"*, %"struct.std::_Rb_tree_node"** %4, align 8
  %21 = call dereferenceable(16) %class.Point* @_ZNSt8_Rb_treeI5PointS0_St9_IdentityIS0_ESt4lessIS0_ESaIS0_EE6_S_keyEPKSt13_Rb_tree_nodeIS0_E(%"struct.std::_Rb_tree_node"* %20)
  %22 = call zeroext i1 @_ZNKSt4lessI5PointEclERKS0_S3_(%"struct.std::less"* %19, %class.Point* dereferenceable(16) %1, %class.Point* dereferenceable(16) %21)
  %23 = zext i1 %22 to i8
  %24 = trunc i8 %23 to i1
  br i1 %24, label %25, label %29

25:                                               ; preds = %14
  %26 = load %"struct.std::_Rb_tree_node"*, %"struct.std::_Rb_tree_node"** %4, align 8
  %27 = bitcast %"struct.std::_Rb_tree_node"* %26 to %"struct.std::_Rb_tree_node_base"*
  %28 = call %"struct.std::_Rb_tree_node"* @_ZNSt8_Rb_treeI5PointS0_St9_IdentityIS0_ESt4lessIS0_ESaIS0_EE7_S_leftEPSt18_Rb_tree_node_base(%"struct.std::_Rb_tree_node_base"* %27) #3
  br label %33

29:                                               ; preds = %14
  %30 = load %"struct.std::_Rb_tree_node"*, %"struct.std::_Rb_tree_node"** %4, align 8
  %31 = bitcast %"struct.std::_Rb_tree_node"* %30 to %"struct.std::_Rb_tree_node_base"*
  %32 = call %"struct.std::_Rb_tree_node"* @_ZNSt8_Rb_treeI5PointS0_St9_IdentityIS0_ESt4lessIS0_ESaIS0_EE8_S_rightEPSt18_Rb_tree_node_base(%"struct.std::_Rb_tree_node_base"* %31) #3
  br label %33

33:                                               ; preds = %29, %25
  %34 = phi %"struct.std::_Rb_tree_node"* [ %28, %25 ], [ %32, %29 ]
  store %"struct.std::_Rb_tree_node"* %34, %"struct.std::_Rb_tree_node"** %4, align 8
  br label %11

35:                                               ; preds = %11
  %36 = load %"struct.std::_Rb_tree_node_base"*, %"struct.std::_Rb_tree_node_base"** %5, align 8
  call void @_ZNSt17_Rb_tree_iteratorI5PointEC2EPSt18_Rb_tree_node_base(%"struct.std::_Rb_tree_iterator"* %6, %"struct.std::_Rb_tree_node_base"* %36) #3
  %37 = trunc i8 %.0 to i1
  br i1 %37, label %38, label %46

38:                                               ; preds = %35
  %39 = call %"struct.std::_Rb_tree_node_base"* @_ZNSt8_Rb_treeI5PointS0_St9_IdentityIS0_ESt4lessIS0_ESaIS0_EE5beginEv(%"class.std::_Rb_tree"* %0) #3
  %40 = getelementptr inbounds %"struct.std::_Rb_tree_iterator", %"struct.std::_Rb_tree_iterator"* %7, i32 0, i32 0
  store %"struct.std::_Rb_tree_node_base"* %39, %"struct.std::_Rb_tree_node_base"** %40, align 8
  %41 = call zeroext i1 @_ZNKSt17_Rb_tree_iteratorI5PointEeqERKS1_(%"struct.std::_Rb_tree_iterator"* %6, %"struct.std::_Rb_tree_iterator"* dereferenceable(8) %7) #3
  br i1 %41, label %42, label %43

42:                                               ; preds = %38
  call void @_ZNSt4pairIPSt18_Rb_tree_node_baseS1_EC2IRPSt13_Rb_tree_nodeI5PointERS1_Lb1EEEOT_OT0_(%"struct.std::pair.7"* %3, %"struct.std::_Rb_tree_node"** dereferenceable(8) %4, %"struct.std::_Rb_tree_node_base"** dereferenceable(8) %5)
  br label %57

43:                                               ; preds = %38
  %44 = call dereferenceable(8) %"struct.std::_Rb_tree_iterator"* @_ZNSt17_Rb_tree_iteratorI5PointEmmEv(%"struct.std::_Rb_tree_iterator"* %6) #3
  br label %45

45:                                               ; preds = %43
  br label %46

46:                                               ; preds = %45, %35
  %47 = getelementptr inbounds %"class.std::_Rb_tree", %"class.std::_Rb_tree"* %0, i32 0, i32 0
  %48 = bitcast %"struct.std::_Rb_tree<Point, Point, std::_Identity<Point>, std::less<Point>, std::allocator<Point> >::_Rb_tree_impl"* %47 to %"struct.std::_Rb_tree_key_compare"*
  %49 = getelementptr inbounds %"struct.std::_Rb_tree_key_compare", %"struct.std::_Rb_tree_key_compare"* %48, i32 0, i32 0
  %50 = getelementptr inbounds %"struct.std::_Rb_tree_iterator", %"struct.std::_Rb_tree_iterator"* %6, i32 0, i32 0
  %51 = load %"struct.std::_Rb_tree_node_base"*, %"struct.std::_Rb_tree_node_base"** %50, align 8
  %52 = call dereferenceable(16) %class.Point* @_ZNSt8_Rb_treeI5PointS0_St9_IdentityIS0_ESt4lessIS0_ESaIS0_EE6_S_keyEPKSt18_Rb_tree_node_base(%"struct.std::_Rb_tree_node_base"* %51)
  %53 = call zeroext i1 @_ZNKSt4lessI5PointEclERKS0_S3_(%"struct.std::less"* %49, %class.Point* dereferenceable(16) %52, %class.Point* dereferenceable(16) %1)
  br i1 %53, label %54, label %55

54:                                               ; preds = %46
  call void @_ZNSt4pairIPSt18_Rb_tree_node_baseS1_EC2IRPSt13_Rb_tree_nodeI5PointERS1_Lb1EEEOT_OT0_(%"struct.std::pair.7"* %3, %"struct.std::_Rb_tree_node"** dereferenceable(8) %4, %"struct.std::_Rb_tree_node_base"** dereferenceable(8) %5)
  br label %57

55:                                               ; preds = %46
  %56 = getelementptr inbounds %"struct.std::_Rb_tree_iterator", %"struct.std::_Rb_tree_iterator"* %6, i32 0, i32 0
  store %"struct.std::_Rb_tree_node_base"* null, %"struct.std::_Rb_tree_node_base"** %8, align 8
  call void @_ZNSt4pairIPSt18_Rb_tree_node_baseS1_EC2IRS1_Lb1EEEOT_RKS1_(%"struct.std::pair.7"* %3, %"struct.std::_Rb_tree_node_base"** dereferenceable(8) %56, %"struct.std::_Rb_tree_node_base"** dereferenceable(8) %8)
  br label %57

57:                                               ; preds = %55, %54, %42
  %58 = bitcast %"struct.std::pair.7"* %3 to { %"struct.std::_Rb_tree_node_base"*, %"struct.std::_Rb_tree_node_base"* }*
  %59 = load { %"struct.std::_Rb_tree_node_base"*, %"struct.std::_Rb_tree_node_base"* }, { %"struct.std::_Rb_tree_node_base"*, %"struct.std::_Rb_tree_node_base"* }* %58, align 8
  ret { %"struct.std::_Rb_tree_node_base"*, %"struct.std::_Rb_tree_node_base"* } %59
}

; Function Attrs: noinline nounwind uwtable
define linkonce_odr dereferenceable(16) %class.Point* @_ZNKSt9_IdentityI5PointEclERS0_(%"struct.std::_Identity"* %0, %class.Point* dereferenceable(16) %1) #4 comdat align 2 {
  ret %class.Point* %1
}

; Function Attrs: noinline nounwind uwtable
define linkonce_odr void @_ZNSt8_Rb_treeI5PointS0_St9_IdentityIS0_ESt4lessIS0_ESaIS0_EE11_Alloc_nodeC2ERS6_(%"struct.std::_Rb_tree<Point, Point, std::_Identity<Point>, std::less<Point>, std::allocator<Point> >::_Alloc_node"* %0, %"class.std::_Rb_tree"* dereferenceable(48) %1) unnamed_addr #4 comdat align 2 {
  %3 = getelementptr inbounds %"struct.std::_Rb_tree<Point, Point, std::_Identity<Point>, std::less<Point>, std::allocator<Point> >::_Alloc_node", %"struct.std::_Rb_tree<Point, Point, std::_Identity<Point>, std::less<Point>, std::allocator<Point> >::_Alloc_node"* %0, i32 0, i32 0
  store %"class.std::_Rb_tree"* %1, %"class.std::_Rb_tree"** %3, align 8
  ret void
}

; Function Attrs: noinline uwtable
define linkonce_odr %"struct.std::_Rb_tree_node_base"* @_ZNSt8_Rb_treeI5PointS0_St9_IdentityIS0_ESt4lessIS0_ESaIS0_EE10_M_insert_IS0_NS6_11_Alloc_nodeEEESt17_Rb_tree_iteratorIS0_EPSt18_Rb_tree_node_baseSC_OT_RT0_(%"class.std::_Rb_tree"* %0, %"struct.std::_Rb_tree_node_base"* %1, %"struct.std::_Rb_tree_node_base"* %2, %class.Point* dereferenceable(16) %3, %"struct.std::_Rb_tree<Point, Point, std::_Identity<Point>, std::less<Point>, std::allocator<Point> >::_Alloc_node"* dereferenceable(8) %4) #0 comdat align 2 {
  %6 = alloca %"struct.std::_Rb_tree_iterator", align 8
  %7 = alloca %"struct.std::_Identity", align 1
  %8 = icmp ne %"struct.std::_Rb_tree_node_base"* %1, null
  br i1 %8, label %19, label %9

9:                                                ; preds = %5
  %10 = call %"struct.std::_Rb_tree_node_base"* @_ZNSt8_Rb_treeI5PointS0_St9_IdentityIS0_ESt4lessIS0_ESaIS0_EE6_M_endEv(%"class.std::_Rb_tree"* %0) #3
  %11 = icmp eq %"struct.std::_Rb_tree_node_base"* %2, %10
  br i1 %11, label %19, label %12

12:                                               ; preds = %9
  %13 = getelementptr inbounds %"class.std::_Rb_tree", %"class.std::_Rb_tree"* %0, i32 0, i32 0
  %14 = bitcast %"struct.std::_Rb_tree<Point, Point, std::_Identity<Point>, std::less<Point>, std::allocator<Point> >::_Rb_tree_impl"* %13 to %"struct.std::_Rb_tree_key_compare"*
  %15 = getelementptr inbounds %"struct.std::_Rb_tree_key_compare", %"struct.std::_Rb_tree_key_compare"* %14, i32 0, i32 0
  %16 = call dereferenceable(16) %class.Point* @_ZNKSt9_IdentityI5PointEclERS0_(%"struct.std::_Identity"* %7, %class.Point* dereferenceable(16) %3)
  %17 = call dereferenceable(16) %class.Point* @_ZNSt8_Rb_treeI5PointS0_St9_IdentityIS0_ESt4lessIS0_ESaIS0_EE6_S_keyEPKSt18_Rb_tree_node_base(%"struct.std::_Rb_tree_node_base"* %2)
  %18 = call zeroext i1 @_ZNKSt4lessI5PointEclERKS0_S3_(%"struct.std::less"* %15, %class.Point* dereferenceable(16) %16, %class.Point* dereferenceable(16) %17)
  br label %19

19:                                               ; preds = %12, %9, %5
  %20 = phi i1 [ true, %9 ], [ true, %5 ], [ %18, %12 ]
  %21 = zext i1 %20 to i8
  %22 = call dereferenceable(16) %class.Point* @_ZSt7forwardI5PointEOT_RNSt16remove_referenceIS1_E4typeE(%class.Point* dereferenceable(16) %3) #3
  %23 = call %"struct.std::_Rb_tree_node"* @_ZNKSt8_Rb_treeI5PointS0_St9_IdentityIS0_ESt4lessIS0_ESaIS0_EE11_Alloc_nodeclIS0_EEPSt13_Rb_tree_nodeIS0_EOT_(%"struct.std::_Rb_tree<Point, Point, std::_Identity<Point>, std::less<Point>, std::allocator<Point> >::_Alloc_node"* %4, %class.Point* dereferenceable(16) %22)
  %24 = trunc i8 %21 to i1
  %25 = bitcast %"struct.std::_Rb_tree_node"* %23 to %"struct.std::_Rb_tree_node_base"*
  %26 = getelementptr inbounds %"class.std::_Rb_tree", %"class.std::_Rb_tree"* %0, i32 0, i32 0
  %27 = bitcast %"struct.std::_Rb_tree<Point, Point, std::_Identity<Point>, std::less<Point>, std::allocator<Point> >::_Rb_tree_impl"* %26 to i8*
  %28 = getelementptr inbounds i8, i8* %27, i64 8
  %29 = bitcast i8* %28 to %"struct.std::_Rb_tree_header"*
  %30 = getelementptr inbounds %"struct.std::_Rb_tree_header", %"struct.std::_Rb_tree_header"* %29, i32 0, i32 0
  call void @_ZSt29_Rb_tree_insert_and_rebalancebPSt18_Rb_tree_node_baseS0_RS_(i1 zeroext %24, %"struct.std::_Rb_tree_node_base"* %25, %"struct.std::_Rb_tree_node_base"* %2, %"struct.std::_Rb_tree_node_base"* dereferenceable(32) %30) #3
  %31 = getelementptr inbounds %"class.std::_Rb_tree", %"class.std::_Rb_tree"* %0, i32 0, i32 0
  %32 = bitcast %"struct.std::_Rb_tree<Point, Point, std::_Identity<Point>, std::less<Point>, std::allocator<Point> >::_Rb_tree_impl"* %31 to i8*
  %33 = getelementptr inbounds i8, i8* %32, i64 8
  %34 = bitcast i8* %33 to %"struct.std::_Rb_tree_header"*
  %35 = getelementptr inbounds %"struct.std::_Rb_tree_header", %"struct.std::_Rb_tree_header"* %34, i32 0, i32 1
  %36 = load i64, i64* %35, align 8
  %37 = add i64 %36, 1
  store i64 %37, i64* %35, align 8
  %38 = bitcast %"struct.std::_Rb_tree_node"* %23 to %"struct.std::_Rb_tree_node_base"*
  call void @_ZNSt17_Rb_tree_iteratorI5PointEC2EPSt18_Rb_tree_node_base(%"struct.std::_Rb_tree_iterator"* %6, %"struct.std::_Rb_tree_node_base"* %38) #3
  %39 = getelementptr inbounds %"struct.std::_Rb_tree_iterator", %"struct.std::_Rb_tree_iterator"* %6, i32 0, i32 0
  %40 = load %"struct.std::_Rb_tree_node_base"*, %"struct.std::_Rb_tree_node_base"** %39, align 8
  ret %"struct.std::_Rb_tree_node_base"* %40
}

; Function Attrs: noinline nounwind uwtable
define linkonce_odr dereferenceable(16) %class.Point* @_ZSt7forwardI5PointEOT_RNSt16remove_referenceIS1_E4typeE(%class.Point* dereferenceable(16) %0) #4 comdat {
  ret %class.Point* %0
}

; Function Attrs: noinline nounwind uwtable
define linkonce_odr void @_ZNSt4pairISt17_Rb_tree_iteratorI5PointEbEC2IS2_bLb1EEEOT_OT0_(%"struct.std::pair.3"* %0, %"struct.std::_Rb_tree_iterator"* dereferenceable(8) %1, i8* dereferenceable(1) %2) unnamed_addr #4 comdat align 2 {
  %4 = bitcast %"struct.std::pair.3"* %0 to %"class.std::__pair_base.4"*
  %5 = getelementptr inbounds %"struct.std::pair.3", %"struct.std::pair.3"* %0, i32 0, i32 0
  %6 = call dereferenceable(8) %"struct.std::_Rb_tree_iterator"* @_ZSt7forwardISt17_Rb_tree_iteratorI5PointEEOT_RNSt16remove_referenceIS3_E4typeE(%"struct.std::_Rb_tree_iterator"* dereferenceable(8) %1) #3
  %7 = bitcast %"struct.std::_Rb_tree_iterator"* %5 to i8*
  %8 = bitcast %"struct.std::_Rb_tree_iterator"* %6 to i8*
  call void @llvm.memcpy.p0i8.p0i8.i64(i8* align 8 %7, i8* align 8 %8, i64 8, i1 false)
  %9 = getelementptr inbounds %"struct.std::pair.3", %"struct.std::pair.3"* %0, i32 0, i32 1
  %10 = call dereferenceable(1) i8* @_ZSt7forwardIbEOT_RNSt16remove_referenceIS0_E4typeE(i8* dereferenceable(1) %2) #3
  %11 = load i8, i8* %10, align 1
  %12 = trunc i8 %11 to i1
  %13 = zext i1 %12 to i8
  store i8 %13, i8* %9, align 8
  ret void
}

; Function Attrs: noinline nounwind uwtable
define linkonce_odr void @_ZNSt17_Rb_tree_iteratorI5PointEC2EPSt18_Rb_tree_node_base(%"struct.std::_Rb_tree_iterator"* %0, %"struct.std::_Rb_tree_node_base"* %1) unnamed_addr #4 comdat align 2 {
  %3 = getelementptr inbounds %"struct.std::_Rb_tree_iterator", %"struct.std::_Rb_tree_iterator"* %0, i32 0, i32 0
  store %"struct.std::_Rb_tree_node_base"* %1, %"struct.std::_Rb_tree_node_base"** %3, align 8
  ret void
}

; Function Attrs: noinline nounwind uwtable
define linkonce_odr %"struct.std::_Rb_tree_node_base"* @_ZNSt8_Rb_treeI5PointS0_St9_IdentityIS0_ESt4lessIS0_ESaIS0_EE6_M_endEv(%"class.std::_Rb_tree"* %0) #4 comdat align 2 {
  %2 = getelementptr inbounds %"class.std::_Rb_tree", %"class.std::_Rb_tree"* %0, i32 0, i32 0
  %3 = bitcast %"struct.std::_Rb_tree<Point, Point, std::_Identity<Point>, std::less<Point>, std::allocator<Point> >::_Rb_tree_impl"* %2 to i8*
  %4 = getelementptr inbounds i8, i8* %3, i64 8
  %5 = bitcast i8* %4 to %"struct.std::_Rb_tree_header"*
  %6 = getelementptr inbounds %"struct.std::_Rb_tree_header", %"struct.std::_Rb_tree_header"* %5, i32 0, i32 0
  ret %"struct.std::_Rb_tree_node_base"* %6
}

; Function Attrs: noinline uwtable
define linkonce_odr zeroext i1 @_ZNKSt4lessI5PointEclERKS0_S3_(%"struct.std::less"* %0, %class.Point* dereferenceable(16) %1, %class.Point* dereferenceable(16) %2) #0 comdat align 2 {
  %4 = call zeroext i1 @_ZNK5PointltERKS_(%class.Point* %1, %class.Point* dereferenceable(16) %2)
  ret i1 %4
}

; Function Attrs: noinline uwtable
define linkonce_odr dereferenceable(16) %class.Point* @_ZNSt8_Rb_treeI5PointS0_St9_IdentityIS0_ESt4lessIS0_ESaIS0_EE6_S_keyEPKSt13_Rb_tree_nodeIS0_E(%"struct.std::_Rb_tree_node"* %0) #0 comdat align 2 {
  %2 = alloca %"struct.std::_Identity", align 1
  %3 = call %class.Point* @_ZNKSt13_Rb_tree_nodeI5PointE9_M_valptrEv(%"struct.std::_Rb_tree_node"* %0)
  %4 = call dereferenceable(16) %class.Point* @_ZNKSt9_IdentityI5PointEclERKS0_(%"struct.std::_Identity"* %2, %class.Point* dereferenceable(16) %3)
  ret %class.Point* %4
}

; Function Attrs: noinline nounwind uwtable
define linkonce_odr zeroext i1 @_ZNKSt17_Rb_tree_iteratorI5PointEeqERKS1_(%"struct.std::_Rb_tree_iterator"* %0, %"struct.std::_Rb_tree_iterator"* dereferenceable(8) %1) #4 comdat align 2 {
  %3 = getelementptr inbounds %"struct.std::_Rb_tree_iterator", %"struct.std::_Rb_tree_iterator"* %0, i32 0, i32 0
  %4 = load %"struct.std::_Rb_tree_node_base"*, %"struct.std::_Rb_tree_node_base"** %3, align 8
  %5 = getelementptr inbounds %"struct.std::_Rb_tree_iterator", %"struct.std::_Rb_tree_iterator"* %1, i32 0, i32 0
  %6 = load %"struct.std::_Rb_tree_node_base"*, %"struct.std::_Rb_tree_node_base"** %5, align 8
  %7 = icmp eq %"struct.std::_Rb_tree_node_base"* %4, %6
  ret i1 %7
}

; Function Attrs: noinline nounwind uwtable
define linkonce_odr %"struct.std::_Rb_tree_node_base"* @_ZNSt8_Rb_treeI5PointS0_St9_IdentityIS0_ESt4lessIS0_ESaIS0_EE5beginEv(%"class.std::_Rb_tree"* %0) #4 comdat align 2 {
  %2 = alloca %"struct.std::_Rb_tree_iterator", align 8
  %3 = getelementptr inbounds %"class.std::_Rb_tree", %"class.std::_Rb_tree"* %0, i32 0, i32 0
  %4 = bitcast %"struct.std::_Rb_tree<Point, Point, std::_Identity<Point>, std::less<Point>, std::allocator<Point> >::_Rb_tree_impl"* %3 to i8*
  %5 = getelementptr inbounds i8, i8* %4, i64 8
  %6 = bitcast i8* %5 to %"struct.std::_Rb_tree_header"*
  %7 = getelementptr inbounds %"struct.std::_Rb_tree_header", %"struct.std::_Rb_tree_header"* %6, i32 0, i32 0
  %8 = getelementptr inbounds %"struct.std::_Rb_tree_node_base", %"struct.std::_Rb_tree_node_base"* %7, i32 0, i32 2
  %9 = load %"struct.std::_Rb_tree_node_base"*, %"struct.std::_Rb_tree_node_base"** %8, align 8
  call void @_ZNSt17_Rb_tree_iteratorI5PointEC2EPSt18_Rb_tree_node_base(%"struct.std::_Rb_tree_iterator"* %2, %"struct.std::_Rb_tree_node_base"* %9) #3
  %10 = getelementptr inbounds %"struct.std::_Rb_tree_iterator", %"struct.std::_Rb_tree_iterator"* %2, i32 0, i32 0
  %11 = load %"struct.std::_Rb_tree_node_base"*, %"struct.std::_Rb_tree_node_base"** %10, align 8
  ret %"struct.std::_Rb_tree_node_base"* %11
}

; Function Attrs: noinline nounwind uwtable
define linkonce_odr void @_ZNSt4pairIPSt18_Rb_tree_node_baseS1_EC2IRPSt13_Rb_tree_nodeI5PointERS1_Lb1EEEOT_OT0_(%"struct.std::pair.7"* %0, %"struct.std::_Rb_tree_node"** dereferenceable(8) %1, %"struct.std::_Rb_tree_node_base"** dereferenceable(8) %2) unnamed_addr #4 comdat align 2 {
  %4 = bitcast %"struct.std::pair.7"* %0 to %"class.std::__pair_base.8"*
  %5 = getelementptr inbounds %"struct.std::pair.7", %"struct.std::pair.7"* %0, i32 0, i32 0
  %6 = call dereferenceable(8) %"struct.std::_Rb_tree_node"** @_ZSt7forwardIRPSt13_Rb_tree_nodeI5PointEEOT_RNSt16remove_referenceIS5_E4typeE(%"struct.std::_Rb_tree_node"** dereferenceable(8) %1) #3
  %7 = load %"struct.std::_Rb_tree_node"*, %"struct.std::_Rb_tree_node"** %6, align 8
  %8 = bitcast %"struct.std::_Rb_tree_node"* %7 to %"struct.std::_Rb_tree_node_base"*
  store %"struct.std::_Rb_tree_node_base"* %8, %"struct.std::_Rb_tree_node_base"** %5, align 8
  %9 = getelementptr inbounds %"struct.std::pair.7", %"struct.std::pair.7"* %0, i32 0, i32 1
  %10 = call dereferenceable(8) %"struct.std::_Rb_tree_node_base"** @_ZSt7forwardIRPSt18_Rb_tree_node_baseEOT_RNSt16remove_referenceIS3_E4typeE(%"struct.std::_Rb_tree_node_base"** dereferenceable(8) %2) #3
  %11 = load %"struct.std::_Rb_tree_node_base"*, %"struct.std::_Rb_tree_node_base"** %10, align 8
  store %"struct.std::_Rb_tree_node_base"* %11, %"struct.std::_Rb_tree_node_base"** %9, align 8
  ret void
}

; Function Attrs: noinline nounwind uwtable
define linkonce_odr dereferenceable(8) %"struct.std::_Rb_tree_iterator"* @_ZNSt17_Rb_tree_iteratorI5PointEmmEv(%"struct.std::_Rb_tree_iterator"* %0) #4 comdat align 2 {
  %2 = getelementptr inbounds %"struct.std::_Rb_tree_iterator", %"struct.std::_Rb_tree_iterator"* %0, i32 0, i32 0
  %3 = load %"struct.std::_Rb_tree_node_base"*, %"struct.std::_Rb_tree_node_base"** %2, align 8
  %4 = call %"struct.std::_Rb_tree_node_base"* @_ZSt18_Rb_tree_decrementPSt18_Rb_tree_node_base(%"struct.std::_Rb_tree_node_base"* %3) #16
  %5 = getelementptr inbounds %"struct.std::_Rb_tree_iterator", %"struct.std::_Rb_tree_iterator"* %0, i32 0, i32 0
  store %"struct.std::_Rb_tree_node_base"* %4, %"struct.std::_Rb_tree_node_base"** %5, align 8
  ret %"struct.std::_Rb_tree_iterator"* %0
}

; Function Attrs: noinline uwtable
define linkonce_odr dereferenceable(16) %class.Point* @_ZNSt8_Rb_treeI5PointS0_St9_IdentityIS0_ESt4lessIS0_ESaIS0_EE6_S_keyEPKSt18_Rb_tree_node_base(%"struct.std::_Rb_tree_node_base"* %0) #0 comdat align 2 {
  %2 = bitcast %"struct.std::_Rb_tree_node_base"* %0 to %"struct.std::_Rb_tree_node"*
  %3 = call dereferenceable(16) %class.Point* @_ZNSt8_Rb_treeI5PointS0_St9_IdentityIS0_ESt4lessIS0_ESaIS0_EE6_S_keyEPKSt13_Rb_tree_nodeIS0_E(%"struct.std::_Rb_tree_node"* %2)
  ret %class.Point* %3
}

; Function Attrs: noinline nounwind uwtable
define linkonce_odr void @_ZNSt4pairIPSt18_Rb_tree_node_baseS1_EC2IRS1_Lb1EEEOT_RKS1_(%"struct.std::pair.7"* %0, %"struct.std::_Rb_tree_node_base"** dereferenceable(8) %1, %"struct.std::_Rb_tree_node_base"** dereferenceable(8) %2) unnamed_addr #4 comdat align 2 {
  %4 = bitcast %"struct.std::pair.7"* %0 to %"class.std::__pair_base.8"*
  %5 = getelementptr inbounds %"struct.std::pair.7", %"struct.std::pair.7"* %0, i32 0, i32 0
  %6 = call dereferenceable(8) %"struct.std::_Rb_tree_node_base"** @_ZSt7forwardIRPSt18_Rb_tree_node_baseEOT_RNSt16remove_referenceIS3_E4typeE(%"struct.std::_Rb_tree_node_base"** dereferenceable(8) %1) #3
  %7 = load %"struct.std::_Rb_tree_node_base"*, %"struct.std::_Rb_tree_node_base"** %6, align 8
  store %"struct.std::_Rb_tree_node_base"* %7, %"struct.std::_Rb_tree_node_base"** %5, align 8
  %8 = getelementptr inbounds %"struct.std::pair.7", %"struct.std::pair.7"* %0, i32 0, i32 1
  %9 = load %"struct.std::_Rb_tree_node_base"*, %"struct.std::_Rb_tree_node_base"** %2, align 8
  store %"struct.std::_Rb_tree_node_base"* %9, %"struct.std::_Rb_tree_node_base"** %8, align 8
  ret void
}

; Function Attrs: noinline nounwind uwtable
define linkonce_odr zeroext i1 @_ZNK5PointltERKS_(%class.Point* %0, %class.Point* dereferenceable(16) %1) #4 comdat align 2 {
  %3 = getelementptr inbounds %class.Point, %class.Point* %0, i32 0, i32 0
  %4 = call double @_ZNKSt7complexIdE4realB5cxx11Ev(%"struct.std::complex"* %3)
  %5 = getelementptr inbounds %class.Point, %class.Point* %1, i32 0, i32 0
  %6 = call double @_ZNKSt7complexIdE4realB5cxx11Ev(%"struct.std::complex"* %5)
  %7 = fsub double %4, %6
  %8 = call double @_ZSt3absd(double %7)
  %9 = fcmp olt double %8, 1.000000e-10
  br i1 %9, label %10, label %25

10:                                               ; preds = %2
  %11 = getelementptr inbounds %class.Point, %class.Point* %0, i32 0, i32 0
  %12 = call double @_ZNKSt7complexIdE4imagB5cxx11Ev(%"struct.std::complex"* %11)
  %13 = getelementptr inbounds %class.Point, %class.Point* %1, i32 0, i32 0
  %14 = call double @_ZNKSt7complexIdE4imagB5cxx11Ev(%"struct.std::complex"* %13)
  %15 = fsub double %12, %14
  %16 = call double @_ZSt3absd(double %15)
  %17 = fcmp olt double %16, 1.000000e-10
  br i1 %17, label %18, label %19

18:                                               ; preds = %10
  br label %31

19:                                               ; preds = %10
  %20 = getelementptr inbounds %class.Point, %class.Point* %0, i32 0, i32 0
  %21 = call double @_ZNKSt7complexIdE4imagB5cxx11Ev(%"struct.std::complex"* %20)
  %22 = getelementptr inbounds %class.Point, %class.Point* %1, i32 0, i32 0
  %23 = call double @_ZNKSt7complexIdE4imagB5cxx11Ev(%"struct.std::complex"* %22)
  %24 = fcmp olt double %21, %23
  br label %31

25:                                               ; preds = %2
  %26 = getelementptr inbounds %class.Point, %class.Point* %0, i32 0, i32 0
  %27 = call double @_ZNKSt7complexIdE4realB5cxx11Ev(%"struct.std::complex"* %26)
  %28 = getelementptr inbounds %class.Point, %class.Point* %1, i32 0, i32 0
  %29 = call double @_ZNKSt7complexIdE4realB5cxx11Ev(%"struct.std::complex"* %28)
  %30 = fcmp olt double %27, %29
  br label %31

31:                                               ; preds = %25, %19, %18
  %.0 = phi i1 [ false, %18 ], [ %24, %19 ], [ %30, %25 ]
  ret i1 %.0
}

; Function Attrs: noinline nounwind uwtable
define linkonce_odr dereferenceable(16) %class.Point* @_ZNKSt9_IdentityI5PointEclERKS0_(%"struct.std::_Identity"* %0, %class.Point* dereferenceable(16) %1) #4 comdat align 2 {
  ret %class.Point* %1
}

; Function Attrs: noinline nounwind uwtable
define linkonce_odr %class.Point* @_ZNKSt13_Rb_tree_nodeI5PointE9_M_valptrEv(%"struct.std::_Rb_tree_node"* %0) #4 comdat align 2 {
  %2 = getelementptr inbounds %"struct.std::_Rb_tree_node", %"struct.std::_Rb_tree_node"* %0, i32 0, i32 1
  %3 = call %class.Point* @_ZNK9__gnu_cxx16__aligned_membufI5PointE6_M_ptrEv(%"struct.__gnu_cxx::__aligned_membuf"* %2) #3
  ret %class.Point* %3
}

; Function Attrs: noinline nounwind uwtable
define linkonce_odr %class.Point* @_ZNK9__gnu_cxx16__aligned_membufI5PointE6_M_ptrEv(%"struct.__gnu_cxx::__aligned_membuf"* %0) #4 comdat align 2 {
  %2 = call i8* @_ZNK9__gnu_cxx16__aligned_membufI5PointE7_M_addrEv(%"struct.__gnu_cxx::__aligned_membuf"* %0) #3
  %3 = bitcast i8* %2 to %class.Point*
  ret %class.Point* %3
}

; Function Attrs: noinline nounwind uwtable
define linkonce_odr i8* @_ZNK9__gnu_cxx16__aligned_membufI5PointE7_M_addrEv(%"struct.__gnu_cxx::__aligned_membuf"* %0) #4 comdat align 2 {
  %2 = getelementptr inbounds %"struct.__gnu_cxx::__aligned_membuf", %"struct.__gnu_cxx::__aligned_membuf"* %0, i32 0, i32 0
  %3 = bitcast [16 x i8]* %2 to i8*
  ret i8* %3
}

; Function Attrs: noinline nounwind uwtable
define linkonce_odr dereferenceable(8) %"struct.std::_Rb_tree_node"** @_ZSt7forwardIRPSt13_Rb_tree_nodeI5PointEEOT_RNSt16remove_referenceIS5_E4typeE(%"struct.std::_Rb_tree_node"** dereferenceable(8) %0) #4 comdat {
  ret %"struct.std::_Rb_tree_node"** %0
}

; Function Attrs: noinline nounwind uwtable
define linkonce_odr dereferenceable(8) %"struct.std::_Rb_tree_node_base"** @_ZSt7forwardIRPSt18_Rb_tree_node_baseEOT_RNSt16remove_referenceIS3_E4typeE(%"struct.std::_Rb_tree_node_base"** dereferenceable(8) %0) #4 comdat {
  ret %"struct.std::_Rb_tree_node_base"** %0
}

; Function Attrs: nounwind readonly
declare %"struct.std::_Rb_tree_node_base"* @_ZSt18_Rb_tree_decrementPSt18_Rb_tree_node_base(%"struct.std::_Rb_tree_node_base"*) #9

; Function Attrs: noinline uwtable
define linkonce_odr %"struct.std::_Rb_tree_node"* @_ZNKSt8_Rb_treeI5PointS0_St9_IdentityIS0_ESt4lessIS0_ESaIS0_EE11_Alloc_nodeclIS0_EEPSt13_Rb_tree_nodeIS0_EOT_(%"struct.std::_Rb_tree<Point, Point, std::_Identity<Point>, std::less<Point>, std::allocator<Point> >::_Alloc_node"* %0, %class.Point* dereferenceable(16) %1) #0 comdat align 2 {
  %3 = getelementptr inbounds %"struct.std::_Rb_tree<Point, Point, std::_Identity<Point>, std::less<Point>, std::allocator<Point> >::_Alloc_node", %"struct.std::_Rb_tree<Point, Point, std::_Identity<Point>, std::less<Point>, std::allocator<Point> >::_Alloc_node"* %0, i32 0, i32 0
  %4 = load %"class.std::_Rb_tree"*, %"class.std::_Rb_tree"** %3, align 8
  %5 = call dereferenceable(16) %class.Point* @_ZSt7forwardI5PointEOT_RNSt16remove_referenceIS1_E4typeE(%class.Point* dereferenceable(16) %1) #3
  %6 = call %"struct.std::_Rb_tree_node"* @_ZNSt8_Rb_treeI5PointS0_St9_IdentityIS0_ESt4lessIS0_ESaIS0_EE14_M_create_nodeIJS0_EEEPSt13_Rb_tree_nodeIS0_EDpOT_(%"class.std::_Rb_tree"* %4, %class.Point* dereferenceable(16) %5)
  ret %"struct.std::_Rb_tree_node"* %6
}

; Function Attrs: nounwind
declare void @_ZSt29_Rb_tree_insert_and_rebalancebPSt18_Rb_tree_node_baseS0_RS_(i1 zeroext, %"struct.std::_Rb_tree_node_base"*, %"struct.std::_Rb_tree_node_base"*, %"struct.std::_Rb_tree_node_base"* dereferenceable(32)) #2

; Function Attrs: noinline uwtable
define linkonce_odr %"struct.std::_Rb_tree_node"* @_ZNSt8_Rb_treeI5PointS0_St9_IdentityIS0_ESt4lessIS0_ESaIS0_EE14_M_create_nodeIJS0_EEEPSt13_Rb_tree_nodeIS0_EDpOT_(%"class.std::_Rb_tree"* %0, %class.Point* dereferenceable(16) %1) #0 comdat align 2 {
  %3 = call %"struct.std::_Rb_tree_node"* @_ZNSt8_Rb_treeI5PointS0_St9_IdentityIS0_ESt4lessIS0_ESaIS0_EE11_M_get_nodeEv(%"class.std::_Rb_tree"* %0)
  %4 = call dereferenceable(16) %class.Point* @_ZSt7forwardI5PointEOT_RNSt16remove_referenceIS1_E4typeE(%class.Point* dereferenceable(16) %1) #3
  call void @_ZNSt8_Rb_treeI5PointS0_St9_IdentityIS0_ESt4lessIS0_ESaIS0_EE17_M_construct_nodeIJS0_EEEvPSt13_Rb_tree_nodeIS0_EDpOT_(%"class.std::_Rb_tree"* %0, %"struct.std::_Rb_tree_node"* %3, %class.Point* dereferenceable(16) %4)
  ret %"struct.std::_Rb_tree_node"* %3
}

; Function Attrs: noinline uwtable
define linkonce_odr %"struct.std::_Rb_tree_node"* @_ZNSt8_Rb_treeI5PointS0_St9_IdentityIS0_ESt4lessIS0_ESaIS0_EE11_M_get_nodeEv(%"class.std::_Rb_tree"* %0) #0 comdat align 2 {
  %2 = call dereferenceable(1) %"class.std::allocator"* @_ZNSt8_Rb_treeI5PointS0_St9_IdentityIS0_ESt4lessIS0_ESaIS0_EE21_M_get_Node_allocatorEv(%"class.std::_Rb_tree"* %0) #3
  %3 = call %"struct.std::_Rb_tree_node"* @_ZNSt16allocator_traitsISaISt13_Rb_tree_nodeI5PointEEE8allocateERS3_m(%"class.std::allocator"* dereferenceable(1) %2, i64 1)
  ret %"struct.std::_Rb_tree_node"* %3
}

; Function Attrs: noinline uwtable
define linkonce_odr void @_ZNSt8_Rb_treeI5PointS0_St9_IdentityIS0_ESt4lessIS0_ESaIS0_EE17_M_construct_nodeIJS0_EEEvPSt13_Rb_tree_nodeIS0_EDpOT_(%"class.std::_Rb_tree"* %0, %"struct.std::_Rb_tree_node"* %1, %class.Point* dereferenceable(16) %2) #0 comdat align 2 personality i8* bitcast (i32 (...)* @__gxx_personality_v0 to i8*) {
  %4 = bitcast %"struct.std::_Rb_tree_node"* %1 to i8*
  %5 = bitcast i8* %4 to %"struct.std::_Rb_tree_node"*
  %6 = call dereferenceable(1) %"class.std::allocator"* @_ZNSt8_Rb_treeI5PointS0_St9_IdentityIS0_ESt4lessIS0_ESaIS0_EE21_M_get_Node_allocatorEv(%"class.std::_Rb_tree"* %0) #3
  %7 = invoke %class.Point* @_ZNSt13_Rb_tree_nodeI5PointE9_M_valptrEv(%"struct.std::_Rb_tree_node"* %1)
          to label %8 unwind label %11

8:                                                ; preds = %3
  %9 = call dereferenceable(16) %class.Point* @_ZSt7forwardI5PointEOT_RNSt16remove_referenceIS1_E4typeE(%class.Point* dereferenceable(16) %2) #3
  invoke void @_ZNSt16allocator_traitsISaISt13_Rb_tree_nodeI5PointEEE9constructIS1_JS1_EEEvRS3_PT_DpOT0_(%"class.std::allocator"* dereferenceable(1) %6, %class.Point* %7, %class.Point* dereferenceable(16) %9)
          to label %10 unwind label %11

10:                                               ; preds = %8
  br label %22

11:                                               ; preds = %8, %3
  %12 = landingpad { i8*, i32 }
          catch i8* null
  %13 = extractvalue { i8*, i32 } %12, 0
  %14 = extractvalue { i8*, i32 } %12, 1
  br label %15

15:                                               ; preds = %11
  %16 = call i8* @__cxa_begin_catch(i8* %13) #3
  call void @_ZNSt8_Rb_treeI5PointS0_St9_IdentityIS0_ESt4lessIS0_ESaIS0_EE11_M_put_nodeEPSt13_Rb_tree_nodeIS0_E(%"class.std::_Rb_tree"* %0, %"struct.std::_Rb_tree_node"* %1) #3
  invoke void @__cxa_rethrow() #17
          to label %29 unwind label %17

17:                                               ; preds = %15
  %18 = landingpad { i8*, i32 }
          cleanup
  %19 = extractvalue { i8*, i32 } %18, 0
  %20 = extractvalue { i8*, i32 } %18, 1
  invoke void @__cxa_end_catch()
          to label %21 unwind label %26

21:                                               ; preds = %17
  br label %23

22:                                               ; preds = %10
  ret void

23:                                               ; preds = %21
  %24 = insertvalue { i8*, i32 } undef, i8* %19, 0
  %25 = insertvalue { i8*, i32 } %24, i32 %20, 1
  resume { i8*, i32 } %25

26:                                               ; preds = %17
  %27 = landingpad { i8*, i32 }
          catch i8* null
  %28 = extractvalue { i8*, i32 } %27, 0
  call void @__clang_call_terminate(i8* %28) #15
  unreachable

29:                                               ; preds = %15
  unreachable
}

; Function Attrs: noinline uwtable
define linkonce_odr %"struct.std::_Rb_tree_node"* @_ZNSt16allocator_traitsISaISt13_Rb_tree_nodeI5PointEEE8allocateERS3_m(%"class.std::allocator"* dereferenceable(1) %0, i64 %1) #0 comdat align 2 {
  %3 = bitcast %"class.std::allocator"* %0 to %"class.__gnu_cxx::new_allocator"*
  %4 = call %"struct.std::_Rb_tree_node"* @_ZN9__gnu_cxx13new_allocatorISt13_Rb_tree_nodeI5PointEE8allocateEmPKv(%"class.__gnu_cxx::new_allocator"* %3, i64 %1, i8* null)
  ret %"struct.std::_Rb_tree_node"* %4
}

; Function Attrs: noinline uwtable
define linkonce_odr %"struct.std::_Rb_tree_node"* @_ZN9__gnu_cxx13new_allocatorISt13_Rb_tree_nodeI5PointEE8allocateEmPKv(%"class.__gnu_cxx::new_allocator"* %0, i64 %1, i8* %2) #0 comdat align 2 {
  %4 = call i64 @_ZNK9__gnu_cxx13new_allocatorISt13_Rb_tree_nodeI5PointEE8max_sizeEv(%"class.__gnu_cxx::new_allocator"* %0) #3
  %5 = icmp ugt i64 %1, %4
  br i1 %5, label %6, label %7

6:                                                ; preds = %3
  call void @_ZSt17__throw_bad_allocv() #17
  unreachable

7:                                                ; preds = %3
  %8 = mul i64 %1, 48
  %9 = call i8* @_Znwm(i64 %8)
  %10 = bitcast i8* %9 to %"struct.std::_Rb_tree_node"*
  ret %"struct.std::_Rb_tree_node"* %10
}

; Function Attrs: noinline nounwind uwtable
define linkonce_odr i64 @_ZNK9__gnu_cxx13new_allocatorISt13_Rb_tree_nodeI5PointEE8max_sizeEv(%"class.__gnu_cxx::new_allocator"* %0) #4 comdat align 2 {
  ret i64 384307168202282325
}

; Function Attrs: noreturn
declare void @_ZSt17__throw_bad_allocv() #10

; Function Attrs: nobuiltin
declare noalias i8* @_Znwm(i64) #11

; Function Attrs: noinline uwtable
define linkonce_odr void @_ZNSt16allocator_traitsISaISt13_Rb_tree_nodeI5PointEEE9constructIS1_JS1_EEEvRS3_PT_DpOT0_(%"class.std::allocator"* dereferenceable(1) %0, %class.Point* %1, %class.Point* dereferenceable(16) %2) #0 comdat align 2 {
  %4 = bitcast %"class.std::allocator"* %0 to %"class.__gnu_cxx::new_allocator"*
  %5 = call dereferenceable(16) %class.Point* @_ZSt7forwardI5PointEOT_RNSt16remove_referenceIS1_E4typeE(%class.Point* dereferenceable(16) %2) #3
  call void @_ZN9__gnu_cxx13new_allocatorISt13_Rb_tree_nodeI5PointEE9constructIS2_JS2_EEEvPT_DpOT0_(%"class.__gnu_cxx::new_allocator"* %4, %class.Point* %1, %class.Point* dereferenceable(16) %5)
  ret void
}

declare void @__cxa_rethrow()

declare void @__cxa_end_catch()

; Function Attrs: noinline nounwind uwtable
define linkonce_odr void @_ZN9__gnu_cxx13new_allocatorISt13_Rb_tree_nodeI5PointEE9constructIS2_JS2_EEEvPT_DpOT0_(%"class.__gnu_cxx::new_allocator"* %0, %class.Point* %1, %class.Point* dereferenceable(16) %2) #4 comdat align 2 {
  %4 = bitcast %class.Point* %1 to i8*
  %5 = bitcast i8* %4 to %class.Point*
  %6 = call dereferenceable(16) %class.Point* @_ZSt7forwardI5PointEOT_RNSt16remove_referenceIS1_E4typeE(%class.Point* dereferenceable(16) %2) #3
  %7 = bitcast %class.Point* %5 to i8*
  %8 = bitcast %class.Point* %6 to i8*
  call void @llvm.memcpy.p0i8.p0i8.i64(i8* align 8 %7, i8* align 8 %8, i64 16, i1 false)
  ret void
}

; Function Attrs: noinline nounwind uwtable
define linkonce_odr dereferenceable(8) %"struct.std::_Rb_tree_iterator"* @_ZSt7forwardISt17_Rb_tree_iteratorI5PointEEOT_RNSt16remove_referenceIS3_E4typeE(%"struct.std::_Rb_tree_iterator"* dereferenceable(8) %0) #4 comdat {
  ret %"struct.std::_Rb_tree_iterator"* %0
}

; Function Attrs: noinline nounwind uwtable
define linkonce_odr dereferenceable(1) i8* @_ZSt7forwardIbEOT_RNSt16remove_referenceIS0_E4typeE(i8* dereferenceable(1) %0) #4 comdat {
  ret i8* %0
}

; Function Attrs: noinline nounwind uwtable
define linkonce_odr dereferenceable(8) %"struct.std::_Rb_tree_iterator"* @_ZSt7forwardIRSt17_Rb_tree_iteratorI5PointEEOT_RNSt16remove_referenceIS4_E4typeE(%"struct.std::_Rb_tree_iterator"* dereferenceable(8) %0) #4 comdat {
  ret %"struct.std::_Rb_tree_iterator"* %0
}

; Function Attrs: noinline nounwind uwtable
define linkonce_odr void @_ZNSt23_Rb_tree_const_iteratorI5PointEC2ERKSt17_Rb_tree_iteratorIS0_E(%"struct.std::_Rb_tree_const_iterator"* %0, %"struct.std::_Rb_tree_iterator"* dereferenceable(8) %1) unnamed_addr #4 comdat align 2 {
  %3 = getelementptr inbounds %"struct.std::_Rb_tree_const_iterator", %"struct.std::_Rb_tree_const_iterator"* %0, i32 0, i32 0
  %4 = getelementptr inbounds %"struct.std::_Rb_tree_iterator", %"struct.std::_Rb_tree_iterator"* %1, i32 0, i32 0
  %5 = load %"struct.std::_Rb_tree_node_base"*, %"struct.std::_Rb_tree_node_base"** %4, align 8
  store %"struct.std::_Rb_tree_node_base"* %5, %"struct.std::_Rb_tree_node_base"** %3, align 8
  ret void
}

; Function Attrs: noinline nounwind uwtable
define linkonce_odr dereferenceable(1) i8* @_ZSt7forwardIRbEOT_RNSt16remove_referenceIS1_E4typeE(i8* dereferenceable(1) %0) #4 comdat {
  ret i8* %0
}

; Function Attrs: noinline nounwind uwtable
define linkonce_odr void @_ZNSt6vectorISt7complexIdESaIS1_EE15_M_erase_at_endEPS1_(%"class.std::vector"* %0, %"struct.std::complex"* %1) #4 comdat align 2 personality i8* bitcast (i32 (...)* @__gxx_personality_v0 to i8*) {
  %3 = bitcast %"class.std::vector"* %0 to %"struct.std::_Vector_base"*
  %4 = getelementptr inbounds %"struct.std::_Vector_base", %"struct.std::_Vector_base"* %3, i32 0, i32 0
  %5 = getelementptr inbounds %"struct.std::_Vector_base<std::complex<double>, std::allocator<std::complex<double> > >::_Vector_impl", %"struct.std::_Vector_base<std::complex<double>, std::allocator<std::complex<double> > >::_Vector_impl"* %4, i32 0, i32 1
  %6 = load %"struct.std::complex"*, %"struct.std::complex"** %5, align 8
  %7 = ptrtoint %"struct.std::complex"* %6 to i64
  %8 = ptrtoint %"struct.std::complex"* %1 to i64
  %9 = sub i64 %7, %8
  %10 = sdiv exact i64 %9, 16
  %11 = icmp ne i64 %10, 0
  br i1 %11, label %12, label %23

12:                                               ; preds = %2
  %13 = bitcast %"class.std::vector"* %0 to %"struct.std::_Vector_base"*
  %14 = getelementptr inbounds %"struct.std::_Vector_base", %"struct.std::_Vector_base"* %13, i32 0, i32 0
  %15 = getelementptr inbounds %"struct.std::_Vector_base<std::complex<double>, std::allocator<std::complex<double> > >::_Vector_impl", %"struct.std::_Vector_base<std::complex<double>, std::allocator<std::complex<double> > >::_Vector_impl"* %14, i32 0, i32 1
  %16 = load %"struct.std::complex"*, %"struct.std::complex"** %15, align 8
  %17 = bitcast %"class.std::vector"* %0 to %"struct.std::_Vector_base"*
  %18 = call dereferenceable(1) %"class.std::allocator.0"* @_ZNSt12_Vector_baseISt7complexIdESaIS1_EE19_M_get_Tp_allocatorEv(%"struct.std::_Vector_base"* %17) #3
  invoke void @_ZSt8_DestroyIPSt7complexIdES1_EvT_S3_RSaIT0_E(%"struct.std::complex"* %1, %"struct.std::complex"* %16, %"class.std::allocator.0"* dereferenceable(1) %18)
          to label %19 unwind label %24

19:                                               ; preds = %12
  %20 = bitcast %"class.std::vector"* %0 to %"struct.std::_Vector_base"*
  %21 = getelementptr inbounds %"struct.std::_Vector_base", %"struct.std::_Vector_base"* %20, i32 0, i32 0
  %22 = getelementptr inbounds %"struct.std::_Vector_base<std::complex<double>, std::allocator<std::complex<double> > >::_Vector_impl", %"struct.std::_Vector_base<std::complex<double>, std::allocator<std::complex<double> > >::_Vector_impl"* %21, i32 0, i32 1
  store %"struct.std::complex"* %1, %"struct.std::complex"** %22, align 8
  br label %23

23:                                               ; preds = %19, %2
  ret void

24:                                               ; preds = %12
  %25 = landingpad { i8*, i32 }
          catch i8* null
  %26 = extractvalue { i8*, i32 } %25, 0
  call void @__clang_call_terminate(i8* %26) #15
  unreachable
}

; Function Attrs: noinline uwtable
define linkonce_odr void @_ZSt8_DestroyIPSt7complexIdES1_EvT_S3_RSaIT0_E(%"struct.std::complex"* %0, %"struct.std::complex"* %1, %"class.std::allocator.0"* dereferenceable(1) %2) #0 comdat {
  call void @_ZSt8_DestroyIPSt7complexIdEEvT_S3_(%"struct.std::complex"* %0, %"struct.std::complex"* %1)
  ret void
}

; Function Attrs: noinline nounwind uwtable
define linkonce_odr dereferenceable(1) %"class.std::allocator.0"* @_ZNSt12_Vector_baseISt7complexIdESaIS1_EE19_M_get_Tp_allocatorEv(%"struct.std::_Vector_base"* %0) #4 comdat align 2 {
  %2 = getelementptr inbounds %"struct.std::_Vector_base", %"struct.std::_Vector_base"* %0, i32 0, i32 0
  %3 = bitcast %"struct.std::_Vector_base<std::complex<double>, std::allocator<std::complex<double> > >::_Vector_impl"* %2 to %"class.std::allocator.0"*
  ret %"class.std::allocator.0"* %3
}

; Function Attrs: noinline uwtable
define linkonce_odr void @_ZSt8_DestroyIPSt7complexIdEEvT_S3_(%"struct.std::complex"* %0, %"struct.std::complex"* %1) #0 comdat {
  call void @_ZNSt12_Destroy_auxILb1EE9__destroyIPSt7complexIdEEEvT_S5_(%"struct.std::complex"* %0, %"struct.std::complex"* %1)
  ret void
}

; Function Attrs: noinline nounwind uwtable
define linkonce_odr void @_ZNSt12_Destroy_auxILb1EE9__destroyIPSt7complexIdEEEvT_S5_(%"struct.std::complex"* %0, %"struct.std::complex"* %1) #4 comdat align 2 {
  ret void
}

; Function Attrs: noinline uwtable
define linkonce_odr void @_ZNSt16allocator_traitsISaISt7complexIdEEE9constructIS1_JRKS1_EEEvRS2_PT_DpOT0_(%"class.std::allocator.0"* dereferenceable(1) %0, %"struct.std::complex"* %1, %"struct.std::complex"* dereferenceable(16) %2) #0 comdat align 2 {
  %4 = bitcast %"class.std::allocator.0"* %0 to %"class.__gnu_cxx::new_allocator.1"*
  %5 = call dereferenceable(16) %"struct.std::complex"* @_ZSt7forwardIRKSt7complexIdEEOT_RNSt16remove_referenceIS4_E4typeE(%"struct.std::complex"* dereferenceable(16) %2) #3
  call void @_ZN9__gnu_cxx13new_allocatorISt7complexIdEE9constructIS2_JRKS2_EEEvPT_DpOT0_(%"class.__gnu_cxx::new_allocator.1"* %4, %"struct.std::complex"* %1, %"struct.std::complex"* dereferenceable(16) %5)
  ret void
}

; Function Attrs: noinline uwtable
define linkonce_odr void @_ZNSt6vectorISt7complexIdESaIS1_EE17_M_realloc_insertIJRKS1_EEEvN9__gnu_cxx17__normal_iteratorIPS1_S3_EEDpOT_(%"class.std::vector"* %0, %"struct.std::complex"* %1, %"struct.std::complex"* dereferenceable(16) %2) #0 comdat align 2 personality i8* bitcast (i32 (...)* @__gxx_personality_v0 to i8*) {
  %4 = alloca %"class.__gnu_cxx::__normal_iterator", align 8
  %5 = alloca %"class.__gnu_cxx::__normal_iterator", align 8
  %6 = getelementptr inbounds %"class.__gnu_cxx::__normal_iterator", %"class.__gnu_cxx::__normal_iterator"* %4, i32 0, i32 0
  store %"struct.std::complex"* %1, %"struct.std::complex"** %6, align 8
  %7 = call i64 @_ZNKSt6vectorISt7complexIdESaIS1_EE12_M_check_lenEmPKc(%"class.std::vector"* %0, i64 1, i8* getelementptr inbounds ([26 x i8], [26 x i8]* @.str.4, i32 0, i32 0))
  %8 = bitcast %"class.std::vector"* %0 to %"struct.std::_Vector_base"*
  %9 = getelementptr inbounds %"struct.std::_Vector_base", %"struct.std::_Vector_base"* %8, i32 0, i32 0
  %10 = getelementptr inbounds %"struct.std::_Vector_base<std::complex<double>, std::allocator<std::complex<double> > >::_Vector_impl", %"struct.std::_Vector_base<std::complex<double>, std::allocator<std::complex<double> > >::_Vector_impl"* %9, i32 0, i32 0
  %11 = load %"struct.std::complex"*, %"struct.std::complex"** %10, align 8
  %12 = bitcast %"class.std::vector"* %0 to %"struct.std::_Vector_base"*
  %13 = getelementptr inbounds %"struct.std::_Vector_base", %"struct.std::_Vector_base"* %12, i32 0, i32 0
  %14 = getelementptr inbounds %"struct.std::_Vector_base<std::complex<double>, std::allocator<std::complex<double> > >::_Vector_impl", %"struct.std::_Vector_base<std::complex<double>, std::allocator<std::complex<double> > >::_Vector_impl"* %13, i32 0, i32 1
  %15 = load %"struct.std::complex"*, %"struct.std::complex"** %14, align 8
  %16 = call %"struct.std::complex"* @_ZNSt6vectorISt7complexIdESaIS1_EE5beginEv(%"class.std::vector"* %0) #3
  %17 = getelementptr inbounds %"class.__gnu_cxx::__normal_iterator", %"class.__gnu_cxx::__normal_iterator"* %5, i32 0, i32 0
  store %"struct.std::complex"* %16, %"struct.std::complex"** %17, align 8
  %18 = call i64 @_ZN9__gnu_cxxmiIPSt7complexIdESt6vectorIS2_SaIS2_EEEENS_17__normal_iteratorIT_T0_E15difference_typeERKSA_SD_(%"class.__gnu_cxx::__normal_iterator"* dereferenceable(8) %4, %"class.__gnu_cxx::__normal_iterator"* dereferenceable(8) %5) #3
  %19 = bitcast %"class.std::vector"* %0 to %"struct.std::_Vector_base"*
  %20 = call %"struct.std::complex"* @_ZNSt12_Vector_baseISt7complexIdESaIS1_EE11_M_allocateEm(%"struct.std::_Vector_base"* %19, i64 %7)
  %21 = bitcast %"class.std::vector"* %0 to %"struct.std::_Vector_base"*
  %22 = getelementptr inbounds %"struct.std::_Vector_base", %"struct.std::_Vector_base"* %21, i32 0, i32 0
  %23 = bitcast %"struct.std::_Vector_base<std::complex<double>, std::allocator<std::complex<double> > >::_Vector_impl"* %22 to %"class.std::allocator.0"*
  %24 = getelementptr inbounds %"struct.std::complex", %"struct.std::complex"* %20, i64 %18
  %25 = call dereferenceable(16) %"struct.std::complex"* @_ZSt7forwardIRKSt7complexIdEEOT_RNSt16remove_referenceIS4_E4typeE(%"struct.std::complex"* dereferenceable(16) %2) #3
  invoke void @_ZNSt16allocator_traitsISaISt7complexIdEEE9constructIS1_JRKS1_EEEvRS2_PT_DpOT0_(%"class.std::allocator.0"* dereferenceable(1) %23, %"struct.std::complex"* %24, %"struct.std::complex"* dereferenceable(16) %25)
          to label %26 unwind label %40

26:                                               ; preds = %3
  %27 = call dereferenceable(8) %"struct.std::complex"** @_ZNK9__gnu_cxx17__normal_iteratorIPSt7complexIdESt6vectorIS2_SaIS2_EEE4baseEv(%"class.__gnu_cxx::__normal_iterator"* %4) #3
  %28 = load %"struct.std::complex"*, %"struct.std::complex"** %27, align 8
  %29 = bitcast %"class.std::vector"* %0 to %"struct.std::_Vector_base"*
  %30 = call dereferenceable(1) %"class.std::allocator.0"* @_ZNSt12_Vector_baseISt7complexIdESaIS1_EE19_M_get_Tp_allocatorEv(%"struct.std::_Vector_base"* %29) #3
  %31 = invoke %"struct.std::complex"* @_ZSt34__uninitialized_move_if_noexcept_aIPSt7complexIdES2_SaIS1_EET0_T_S5_S4_RT1_(%"struct.std::complex"* %11, %"struct.std::complex"* %28, %"struct.std::complex"* %20, %"class.std::allocator.0"* dereferenceable(1) %30)
          to label %32 unwind label %40

32:                                               ; preds = %26
  %33 = getelementptr inbounds %"struct.std::complex", %"struct.std::complex"* %31, i32 1
  %34 = call dereferenceable(8) %"struct.std::complex"** @_ZNK9__gnu_cxx17__normal_iteratorIPSt7complexIdESt6vectorIS2_SaIS2_EEE4baseEv(%"class.__gnu_cxx::__normal_iterator"* %4) #3
  %35 = load %"struct.std::complex"*, %"struct.std::complex"** %34, align 8
  %36 = bitcast %"class.std::vector"* %0 to %"struct.std::_Vector_base"*
  %37 = call dereferenceable(1) %"class.std::allocator.0"* @_ZNSt12_Vector_baseISt7complexIdESaIS1_EE19_M_get_Tp_allocatorEv(%"struct.std::_Vector_base"* %36) #3
  %38 = invoke %"struct.std::complex"* @_ZSt34__uninitialized_move_if_noexcept_aIPSt7complexIdES2_SaIS1_EET0_T_S5_S4_RT1_(%"struct.std::complex"* %35, %"struct.std::complex"* %15, %"struct.std::complex"* %33, %"class.std::allocator.0"* dereferenceable(1) %37)
          to label %39 unwind label %40

39:                                               ; preds = %32
  br label %65

40:                                               ; preds = %32, %26, %3
  %.0 = phi %"struct.std::complex"* [ %33, %32 ], [ null, %26 ], [ %20, %3 ]
  %41 = landingpad { i8*, i32 }
          catch i8* null
  %42 = extractvalue { i8*, i32 } %41, 0
  %43 = extractvalue { i8*, i32 } %41, 1
  br label %44

44:                                               ; preds = %40
  %45 = call i8* @__cxa_begin_catch(i8* %42) #3
  %46 = icmp ne %"struct.std::complex"* %.0, null
  br i1 %46, label %57, label %47

47:                                               ; preds = %44
  %48 = bitcast %"class.std::vector"* %0 to %"struct.std::_Vector_base"*
  %49 = getelementptr inbounds %"struct.std::_Vector_base", %"struct.std::_Vector_base"* %48, i32 0, i32 0
  %50 = bitcast %"struct.std::_Vector_base<std::complex<double>, std::allocator<std::complex<double> > >::_Vector_impl"* %49 to %"class.std::allocator.0"*
  %51 = getelementptr inbounds %"struct.std::complex", %"struct.std::complex"* %20, i64 %18
  invoke void @_ZNSt16allocator_traitsISaISt7complexIdEEE7destroyIS1_EEvRS2_PT_(%"class.std::allocator.0"* dereferenceable(1) %50, %"struct.std::complex"* %51)
          to label %52 unwind label %53

52:                                               ; preds = %47
  br label %61

53:                                               ; preds = %63, %61, %57, %47
  %54 = landingpad { i8*, i32 }
          cleanup
  %55 = extractvalue { i8*, i32 } %54, 0
  %56 = extractvalue { i8*, i32 } %54, 1
  invoke void @__cxa_end_catch()
          to label %64 unwind label %90

57:                                               ; preds = %44
  %58 = bitcast %"class.std::vector"* %0 to %"struct.std::_Vector_base"*
  %59 = call dereferenceable(1) %"class.std::allocator.0"* @_ZNSt12_Vector_baseISt7complexIdESaIS1_EE19_M_get_Tp_allocatorEv(%"struct.std::_Vector_base"* %58) #3
  invoke void @_ZSt8_DestroyIPSt7complexIdES1_EvT_S3_RSaIT0_E(%"struct.std::complex"* %20, %"struct.std::complex"* %.0, %"class.std::allocator.0"* dereferenceable(1) %59)
          to label %60 unwind label %53

60:                                               ; preds = %57
  br label %61

61:                                               ; preds = %60, %52
  %62 = bitcast %"class.std::vector"* %0 to %"struct.std::_Vector_base"*
  invoke void @_ZNSt12_Vector_baseISt7complexIdESaIS1_EE13_M_deallocateEPS1_m(%"struct.std::_Vector_base"* %62, %"struct.std::complex"* %20, i64 %7)
          to label %63 unwind label %53

63:                                               ; preds = %61
  invoke void @__cxa_rethrow() #17
          to label %93 unwind label %53

64:                                               ; preds = %53
  br label %87

65:                                               ; preds = %39
  %66 = bitcast %"class.std::vector"* %0 to %"struct.std::_Vector_base"*
  %67 = call dereferenceable(1) %"class.std::allocator.0"* @_ZNSt12_Vector_baseISt7complexIdESaIS1_EE19_M_get_Tp_allocatorEv(%"struct.std::_Vector_base"* %66) #3
  call void @_ZSt8_DestroyIPSt7complexIdES1_EvT_S3_RSaIT0_E(%"struct.std::complex"* %11, %"struct.std::complex"* %15, %"class.std::allocator.0"* dereferenceable(1) %67)
  %68 = bitcast %"class.std::vector"* %0 to %"struct.std::_Vector_base"*
  %69 = bitcast %"class.std::vector"* %0 to %"struct.std::_Vector_base"*
  %70 = getelementptr inbounds %"struct.std::_Vector_base", %"struct.std::_Vector_base"* %69, i32 0, i32 0
  %71 = getelementptr inbounds %"struct.std::_Vector_base<std::complex<double>, std::allocator<std::complex<double> > >::_Vector_impl", %"struct.std::_Vector_base<std::complex<double>, std::allocator<std::complex<double> > >::_Vector_impl"* %70, i32 0, i32 2
  %72 = load %"struct.std::complex"*, %"struct.std::complex"** %71, align 8
  %73 = ptrtoint %"struct.std::complex"* %72 to i64
  %74 = ptrtoint %"struct.std::complex"* %11 to i64
  %75 = sub i64 %73, %74
  %76 = sdiv exact i64 %75, 16
  call void @_ZNSt12_Vector_baseISt7complexIdESaIS1_EE13_M_deallocateEPS1_m(%"struct.std::_Vector_base"* %68, %"struct.std::complex"* %11, i64 %76)
  %77 = bitcast %"class.std::vector"* %0 to %"struct.std::_Vector_base"*
  %78 = getelementptr inbounds %"struct.std::_Vector_base", %"struct.std::_Vector_base"* %77, i32 0, i32 0
  %79 = getelementptr inbounds %"struct.std::_Vector_base<std::complex<double>, std::allocator<std::complex<double> > >::_Vector_impl", %"struct.std::_Vector_base<std::complex<double>, std::allocator<std::complex<double> > >::_Vector_impl"* %78, i32 0, i32 0
  store %"struct.std::complex"* %20, %"struct.std::complex"** %79, align 8
  %80 = bitcast %"class.std::vector"* %0 to %"struct.std::_Vector_base"*
  %81 = getelementptr inbounds %"struct.std::_Vector_base", %"struct.std::_Vector_base"* %80, i32 0, i32 0
  %82 = getelementptr inbounds %"struct.std::_Vector_base<std::complex<double>, std::allocator<std::complex<double> > >::_Vector_impl", %"struct.std::_Vector_base<std::complex<double>, std::allocator<std::complex<double> > >::_Vector_impl"* %81, i32 0, i32 1
  store %"struct.std::complex"* %38, %"struct.std::complex"** %82, align 8
  %83 = getelementptr inbounds %"struct.std::complex", %"struct.std::complex"* %20, i64 %7
  %84 = bitcast %"class.std::vector"* %0 to %"struct.std::_Vector_base"*
  %85 = getelementptr inbounds %"struct.std::_Vector_base", %"struct.std::_Vector_base"* %84, i32 0, i32 0
  %86 = getelementptr inbounds %"struct.std::_Vector_base<std::complex<double>, std::allocator<std::complex<double> > >::_Vector_impl", %"struct.std::_Vector_base<std::complex<double>, std::allocator<std::complex<double> > >::_Vector_impl"* %85, i32 0, i32 2
  store %"struct.std::complex"* %83, %"struct.std::complex"** %86, align 8
  ret void

87:                                               ; preds = %64
  %88 = insertvalue { i8*, i32 } undef, i8* %55, 0
  %89 = insertvalue { i8*, i32 } %88, i32 %56, 1
  resume { i8*, i32 } %89

90:                                               ; preds = %53
  %91 = landingpad { i8*, i32 }
          catch i8* null
  %92 = extractvalue { i8*, i32 } %91, 0
  call void @__clang_call_terminate(i8* %92) #15
  unreachable

93:                                               ; preds = %63
  unreachable
}

; Function Attrs: noinline nounwind uwtable
define linkonce_odr %"struct.std::complex"* @_ZNSt6vectorISt7complexIdESaIS1_EE3endEv(%"class.std::vector"* %0) #4 comdat align 2 {
  %2 = alloca %"class.__gnu_cxx::__normal_iterator", align 8
  %3 = bitcast %"class.std::vector"* %0 to %"struct.std::_Vector_base"*
  %4 = getelementptr inbounds %"struct.std::_Vector_base", %"struct.std::_Vector_base"* %3, i32 0, i32 0
  %5 = getelementptr inbounds %"struct.std::_Vector_base<std::complex<double>, std::allocator<std::complex<double> > >::_Vector_impl", %"struct.std::_Vector_base<std::complex<double>, std::allocator<std::complex<double> > >::_Vector_impl"* %4, i32 0, i32 1
  call void @_ZN9__gnu_cxx17__normal_iteratorIPSt7complexIdESt6vectorIS2_SaIS2_EEEC2ERKS3_(%"class.__gnu_cxx::__normal_iterator"* %2, %"struct.std::complex"** dereferenceable(8) %5) #3
  %6 = getelementptr inbounds %"class.__gnu_cxx::__normal_iterator", %"class.__gnu_cxx::__normal_iterator"* %2, i32 0, i32 0
  %7 = load %"struct.std::complex"*, %"struct.std::complex"** %6, align 8
  ret %"struct.std::complex"* %7
}

; Function Attrs: noinline nounwind uwtable
define linkonce_odr void @_ZN9__gnu_cxx13new_allocatorISt7complexIdEE9constructIS2_JRKS2_EEEvPT_DpOT0_(%"class.__gnu_cxx::new_allocator.1"* %0, %"struct.std::complex"* %1, %"struct.std::complex"* dereferenceable(16) %2) #4 comdat align 2 {
  %4 = bitcast %"struct.std::complex"* %1 to i8*
  %5 = bitcast i8* %4 to %"struct.std::complex"*
  %6 = call dereferenceable(16) %"struct.std::complex"* @_ZSt7forwardIRKSt7complexIdEEOT_RNSt16remove_referenceIS4_E4typeE(%"struct.std::complex"* dereferenceable(16) %2) #3
  %7 = bitcast %"struct.std::complex"* %5 to i8*
  %8 = bitcast %"struct.std::complex"* %6 to i8*
  call void @llvm.memcpy.p0i8.p0i8.i64(i8* align 8 %7, i8* align 8 %8, i64 16, i1 false)
  ret void
}

; Function Attrs: noinline nounwind uwtable
define linkonce_odr dereferenceable(16) %"struct.std::complex"* @_ZSt7forwardIRKSt7complexIdEEOT_RNSt16remove_referenceIS4_E4typeE(%"struct.std::complex"* dereferenceable(16) %0) #4 comdat {
  ret %"struct.std::complex"* %0
}

; Function Attrs: noinline uwtable
define linkonce_odr i64 @_ZNKSt6vectorISt7complexIdESaIS1_EE12_M_check_lenEmPKc(%"class.std::vector"* %0, i64 %1, i8* %2) #0 comdat align 2 {
  %4 = alloca i64, align 8
  %5 = alloca i64, align 8
  store i64 %1, i64* %4, align 8
  %6 = call i64 @_ZNKSt6vectorISt7complexIdESaIS1_EE8max_sizeEv(%"class.std::vector"* %0) #3
  %7 = call i64 @_ZNKSt6vectorISt7complexIdESaIS1_EE4sizeEv(%"class.std::vector"* %0) #3
  %8 = sub i64 %6, %7
  %9 = load i64, i64* %4, align 8
  %10 = icmp ult i64 %8, %9
  br i1 %10, label %11, label %12

11:                                               ; preds = %3
  call void @_ZSt20__throw_length_errorPKc(i8* %2) #17
  unreachable

12:                                               ; preds = %3
  %13 = call i64 @_ZNKSt6vectorISt7complexIdESaIS1_EE4sizeEv(%"class.std::vector"* %0) #3
  %14 = call i64 @_ZNKSt6vectorISt7complexIdESaIS1_EE4sizeEv(%"class.std::vector"* %0) #3
  store i64 %14, i64* %5, align 8
  %15 = call dereferenceable(8) i64* @_ZSt3maxImERKT_S2_S2_(i64* dereferenceable(8) %5, i64* dereferenceable(8) %4)
  %16 = load i64, i64* %15, align 8
  %17 = add i64 %13, %16
  %18 = call i64 @_ZNKSt6vectorISt7complexIdESaIS1_EE4sizeEv(%"class.std::vector"* %0) #3
  %19 = icmp ult i64 %17, %18
  br i1 %19, label %23, label %20

20:                                               ; preds = %12
  %21 = call i64 @_ZNKSt6vectorISt7complexIdESaIS1_EE8max_sizeEv(%"class.std::vector"* %0) #3
  %22 = icmp ugt i64 %17, %21
  br i1 %22, label %23, label %25

23:                                               ; preds = %20, %12
  %24 = call i64 @_ZNKSt6vectorISt7complexIdESaIS1_EE8max_sizeEv(%"class.std::vector"* %0) #3
  br label %26

25:                                               ; preds = %20
  br label %26

26:                                               ; preds = %25, %23
  %27 = phi i64 [ %24, %23 ], [ %17, %25 ]
  ret i64 %27
}

; Function Attrs: noinline nounwind uwtable
define linkonce_odr i64 @_ZN9__gnu_cxxmiIPSt7complexIdESt6vectorIS2_SaIS2_EEEENS_17__normal_iteratorIT_T0_E15difference_typeERKSA_SD_(%"class.__gnu_cxx::__normal_iterator"* dereferenceable(8) %0, %"class.__gnu_cxx::__normal_iterator"* dereferenceable(8) %1) #4 comdat {
  %3 = call dereferenceable(8) %"struct.std::complex"** @_ZNK9__gnu_cxx17__normal_iteratorIPSt7complexIdESt6vectorIS2_SaIS2_EEE4baseEv(%"class.__gnu_cxx::__normal_iterator"* %0) #3
  %4 = load %"struct.std::complex"*, %"struct.std::complex"** %3, align 8
  %5 = call dereferenceable(8) %"struct.std::complex"** @_ZNK9__gnu_cxx17__normal_iteratorIPSt7complexIdESt6vectorIS2_SaIS2_EEE4baseEv(%"class.__gnu_cxx::__normal_iterator"* %1) #3
  %6 = load %"struct.std::complex"*, %"struct.std::complex"** %5, align 8
  %7 = ptrtoint %"struct.std::complex"* %4 to i64
  %8 = ptrtoint %"struct.std::complex"* %6 to i64
  %9 = sub i64 %7, %8
  %10 = sdiv exact i64 %9, 16
  ret i64 %10
}

; Function Attrs: noinline nounwind uwtable
define linkonce_odr %"struct.std::complex"* @_ZNSt6vectorISt7complexIdESaIS1_EE5beginEv(%"class.std::vector"* %0) #4 comdat align 2 {
  %2 = alloca %"class.__gnu_cxx::__normal_iterator", align 8
  %3 = bitcast %"class.std::vector"* %0 to %"struct.std::_Vector_base"*
  %4 = getelementptr inbounds %"struct.std::_Vector_base", %"struct.std::_Vector_base"* %3, i32 0, i32 0
  %5 = getelementptr inbounds %"struct.std::_Vector_base<std::complex<double>, std::allocator<std::complex<double> > >::_Vector_impl", %"struct.std::_Vector_base<std::complex<double>, std::allocator<std::complex<double> > >::_Vector_impl"* %4, i32 0, i32 0
  call void @_ZN9__gnu_cxx17__normal_iteratorIPSt7complexIdESt6vectorIS2_SaIS2_EEEC2ERKS3_(%"class.__gnu_cxx::__normal_iterator"* %2, %"struct.std::complex"** dereferenceable(8) %5) #3
  %6 = getelementptr inbounds %"class.__gnu_cxx::__normal_iterator", %"class.__gnu_cxx::__normal_iterator"* %2, i32 0, i32 0
  %7 = load %"struct.std::complex"*, %"struct.std::complex"** %6, align 8
  ret %"struct.std::complex"* %7
}

; Function Attrs: noinline uwtable
define linkonce_odr %"struct.std::complex"* @_ZNSt12_Vector_baseISt7complexIdESaIS1_EE11_M_allocateEm(%"struct.std::_Vector_base"* %0, i64 %1) #0 comdat align 2 {
  %3 = icmp ne i64 %1, 0
  br i1 %3, label %4, label %8

4:                                                ; preds = %2
  %5 = getelementptr inbounds %"struct.std::_Vector_base", %"struct.std::_Vector_base"* %0, i32 0, i32 0
  %6 = bitcast %"struct.std::_Vector_base<std::complex<double>, std::allocator<std::complex<double> > >::_Vector_impl"* %5 to %"class.std::allocator.0"*
  %7 = call %"struct.std::complex"* @_ZNSt16allocator_traitsISaISt7complexIdEEE8allocateERS2_m(%"class.std::allocator.0"* dereferenceable(1) %6, i64 %1)
  br label %9

8:                                                ; preds = %2
  br label %9

9:                                                ; preds = %8, %4
  %10 = phi %"struct.std::complex"* [ %7, %4 ], [ null, %8 ]
  ret %"struct.std::complex"* %10
}

; Function Attrs: noinline uwtable
define linkonce_odr %"struct.std::complex"* @_ZSt34__uninitialized_move_if_noexcept_aIPSt7complexIdES2_SaIS1_EET0_T_S5_S4_RT1_(%"struct.std::complex"* %0, %"struct.std::complex"* %1, %"struct.std::complex"* %2, %"class.std::allocator.0"* dereferenceable(1) %3) #0 comdat {
  %5 = alloca %"class.std::move_iterator", align 8
  %6 = alloca %"class.std::move_iterator", align 8
  %7 = call %"struct.std::complex"* @_ZSt32__make_move_if_noexcept_iteratorISt7complexIdESt13move_iteratorIPS1_EET0_PT_(%"struct.std::complex"* %0)
  %8 = getelementptr inbounds %"class.std::move_iterator", %"class.std::move_iterator"* %5, i32 0, i32 0
  store %"struct.std::complex"* %7, %"struct.std::complex"** %8, align 8
  %9 = call %"struct.std::complex"* @_ZSt32__make_move_if_noexcept_iteratorISt7complexIdESt13move_iteratorIPS1_EET0_PT_(%"struct.std::complex"* %1)
  %10 = getelementptr inbounds %"class.std::move_iterator", %"class.std::move_iterator"* %6, i32 0, i32 0
  store %"struct.std::complex"* %9, %"struct.std::complex"** %10, align 8
  %11 = getelementptr inbounds %"class.std::move_iterator", %"class.std::move_iterator"* %5, i32 0, i32 0
  %12 = load %"struct.std::complex"*, %"struct.std::complex"** %11, align 8
  %13 = getelementptr inbounds %"class.std::move_iterator", %"class.std::move_iterator"* %6, i32 0, i32 0
  %14 = load %"struct.std::complex"*, %"struct.std::complex"** %13, align 8
  %15 = call %"struct.std::complex"* @_ZSt22__uninitialized_copy_aISt13move_iteratorIPSt7complexIdEES3_S2_ET0_T_S6_S5_RSaIT1_E(%"struct.std::complex"* %12, %"struct.std::complex"* %14, %"struct.std::complex"* %2, %"class.std::allocator.0"* dereferenceable(1) %3)
  ret %"struct.std::complex"* %15
}

; Function Attrs: noinline nounwind uwtable
define linkonce_odr dereferenceable(8) %"struct.std::complex"** @_ZNK9__gnu_cxx17__normal_iteratorIPSt7complexIdESt6vectorIS2_SaIS2_EEE4baseEv(%"class.__gnu_cxx::__normal_iterator"* %0) #4 comdat align 2 {
  %2 = getelementptr inbounds %"class.__gnu_cxx::__normal_iterator", %"class.__gnu_cxx::__normal_iterator"* %0, i32 0, i32 0
  ret %"struct.std::complex"** %2
}

; Function Attrs: noinline uwtable
define linkonce_odr void @_ZNSt16allocator_traitsISaISt7complexIdEEE7destroyIS1_EEvRS2_PT_(%"class.std::allocator.0"* dereferenceable(1) %0, %"struct.std::complex"* %1) #0 comdat align 2 {
  %3 = bitcast %"class.std::allocator.0"* %0 to %"class.__gnu_cxx::new_allocator.1"*
  call void @_ZN9__gnu_cxx13new_allocatorISt7complexIdEE7destroyIS2_EEvPT_(%"class.__gnu_cxx::new_allocator.1"* %3, %"struct.std::complex"* %1)
  ret void
}

; Function Attrs: noinline uwtable
define linkonce_odr void @_ZNSt12_Vector_baseISt7complexIdESaIS1_EE13_M_deallocateEPS1_m(%"struct.std::_Vector_base"* %0, %"struct.std::complex"* %1, i64 %2) #0 comdat align 2 {
  %4 = icmp ne %"struct.std::complex"* %1, null
  br i1 %4, label %5, label %8

5:                                                ; preds = %3
  %6 = getelementptr inbounds %"struct.std::_Vector_base", %"struct.std::_Vector_base"* %0, i32 0, i32 0
  %7 = bitcast %"struct.std::_Vector_base<std::complex<double>, std::allocator<std::complex<double> > >::_Vector_impl"* %6 to %"class.std::allocator.0"*
  call void @_ZNSt16allocator_traitsISaISt7complexIdEEE10deallocateERS2_PS1_m(%"class.std::allocator.0"* dereferenceable(1) %7, %"struct.std::complex"* %1, i64 %2)
  br label %8

8:                                                ; preds = %5, %3
  ret void
}

; Function Attrs: noinline nounwind uwtable
define linkonce_odr i64 @_ZNKSt6vectorISt7complexIdESaIS1_EE8max_sizeEv(%"class.std::vector"* %0) #4 comdat align 2 {
  %2 = bitcast %"class.std::vector"* %0 to %"struct.std::_Vector_base"*
  %3 = call dereferenceable(1) %"class.std::allocator.0"* @_ZNKSt12_Vector_baseISt7complexIdESaIS1_EE19_M_get_Tp_allocatorEv(%"struct.std::_Vector_base"* %2) #3
  %4 = call i64 @_ZNSt16allocator_traitsISaISt7complexIdEEE8max_sizeERKS2_(%"class.std::allocator.0"* dereferenceable(1) %3) #3
  ret i64 %4
}

; Function Attrs: noinline nounwind uwtable
define linkonce_odr i64 @_ZNKSt6vectorISt7complexIdESaIS1_EE4sizeEv(%"class.std::vector"* %0) #4 comdat align 2 {
  %2 = bitcast %"class.std::vector"* %0 to %"struct.std::_Vector_base"*
  %3 = getelementptr inbounds %"struct.std::_Vector_base", %"struct.std::_Vector_base"* %2, i32 0, i32 0
  %4 = getelementptr inbounds %"struct.std::_Vector_base<std::complex<double>, std::allocator<std::complex<double> > >::_Vector_impl", %"struct.std::_Vector_base<std::complex<double>, std::allocator<std::complex<double> > >::_Vector_impl"* %3, i32 0, i32 1
  %5 = load %"struct.std::complex"*, %"struct.std::complex"** %4, align 8
  %6 = bitcast %"class.std::vector"* %0 to %"struct.std::_Vector_base"*
  %7 = getelementptr inbounds %"struct.std::_Vector_base", %"struct.std::_Vector_base"* %6, i32 0, i32 0
  %8 = getelementptr inbounds %"struct.std::_Vector_base<std::complex<double>, std::allocator<std::complex<double> > >::_Vector_impl", %"struct.std::_Vector_base<std::complex<double>, std::allocator<std::complex<double> > >::_Vector_impl"* %7, i32 0, i32 0
  %9 = load %"struct.std::complex"*, %"struct.std::complex"** %8, align 8
  %10 = ptrtoint %"struct.std::complex"* %5 to i64
  %11 = ptrtoint %"struct.std::complex"* %9 to i64
  %12 = sub i64 %10, %11
  %13 = sdiv exact i64 %12, 16
  ret i64 %13
}

; Function Attrs: noreturn
declare void @_ZSt20__throw_length_errorPKc(i8*) #10

; Function Attrs: noinline nounwind uwtable
define linkonce_odr dereferenceable(8) i64* @_ZSt3maxImERKT_S2_S2_(i64* dereferenceable(8) %0, i64* dereferenceable(8) %1) #4 comdat {
  %3 = load i64, i64* %0, align 8
  %4 = load i64, i64* %1, align 8
  %5 = icmp ult i64 %3, %4
  br i1 %5, label %6, label %7

6:                                                ; preds = %2
  br label %8

7:                                                ; preds = %2
  br label %8

8:                                                ; preds = %7, %6
  %.0 = phi i64* [ %1, %6 ], [ %0, %7 ]
  ret i64* %.0
}

; Function Attrs: noinline nounwind uwtable
define linkonce_odr i64 @_ZNSt16allocator_traitsISaISt7complexIdEEE8max_sizeERKS2_(%"class.std::allocator.0"* dereferenceable(1) %0) #4 comdat align 2 {
  %2 = bitcast %"class.std::allocator.0"* %0 to %"class.__gnu_cxx::new_allocator.1"*
  %3 = call i64 @_ZNK9__gnu_cxx13new_allocatorISt7complexIdEE8max_sizeEv(%"class.__gnu_cxx::new_allocator.1"* %2) #3
  ret i64 %3
}

; Function Attrs: noinline nounwind uwtable
define linkonce_odr dereferenceable(1) %"class.std::allocator.0"* @_ZNKSt12_Vector_baseISt7complexIdESaIS1_EE19_M_get_Tp_allocatorEv(%"struct.std::_Vector_base"* %0) #4 comdat align 2 {
  %2 = getelementptr inbounds %"struct.std::_Vector_base", %"struct.std::_Vector_base"* %0, i32 0, i32 0
  %3 = bitcast %"struct.std::_Vector_base<std::complex<double>, std::allocator<std::complex<double> > >::_Vector_impl"* %2 to %"class.std::allocator.0"*
  ret %"class.std::allocator.0"* %3
}

; Function Attrs: noinline nounwind uwtable
define linkonce_odr i64 @_ZNK9__gnu_cxx13new_allocatorISt7complexIdEE8max_sizeEv(%"class.__gnu_cxx::new_allocator.1"* %0) #4 comdat align 2 {
  ret i64 1152921504606846975
}

; Function Attrs: noinline nounwind uwtable
define linkonce_odr void @_ZN9__gnu_cxx17__normal_iteratorIPSt7complexIdESt6vectorIS2_SaIS2_EEEC2ERKS3_(%"class.__gnu_cxx::__normal_iterator"* %0, %"struct.std::complex"** dereferenceable(8) %1) unnamed_addr #4 comdat align 2 {
  %3 = getelementptr inbounds %"class.__gnu_cxx::__normal_iterator", %"class.__gnu_cxx::__normal_iterator"* %0, i32 0, i32 0
  %4 = load %"struct.std::complex"*, %"struct.std::complex"** %1, align 8
  store %"struct.std::complex"* %4, %"struct.std::complex"** %3, align 8
  ret void
}

; Function Attrs: noinline uwtable
define linkonce_odr %"struct.std::complex"* @_ZNSt16allocator_traitsISaISt7complexIdEEE8allocateERS2_m(%"class.std::allocator.0"* dereferenceable(1) %0, i64 %1) #0 comdat align 2 {
  %3 = bitcast %"class.std::allocator.0"* %0 to %"class.__gnu_cxx::new_allocator.1"*
  %4 = call %"struct.std::complex"* @_ZN9__gnu_cxx13new_allocatorISt7complexIdEE8allocateEmPKv(%"class.__gnu_cxx::new_allocator.1"* %3, i64 %1, i8* null)
  ret %"struct.std::complex"* %4
}

; Function Attrs: noinline uwtable
define linkonce_odr %"struct.std::complex"* @_ZN9__gnu_cxx13new_allocatorISt7complexIdEE8allocateEmPKv(%"class.__gnu_cxx::new_allocator.1"* %0, i64 %1, i8* %2) #0 comdat align 2 {
  %4 = call i64 @_ZNK9__gnu_cxx13new_allocatorISt7complexIdEE8max_sizeEv(%"class.__gnu_cxx::new_allocator.1"* %0) #3
  %5 = icmp ugt i64 %1, %4
  br i1 %5, label %6, label %7

6:                                                ; preds = %3
  call void @_ZSt17__throw_bad_allocv() #17
  unreachable

7:                                                ; preds = %3
  %8 = mul i64 %1, 16
  %9 = call i8* @_Znwm(i64 %8)
  %10 = bitcast i8* %9 to %"struct.std::complex"*
  ret %"struct.std::complex"* %10
}

; Function Attrs: noinline uwtable
define linkonce_odr %"struct.std::complex"* @_ZSt22__uninitialized_copy_aISt13move_iteratorIPSt7complexIdEES3_S2_ET0_T_S6_S5_RSaIT1_E(%"struct.std::complex"* %0, %"struct.std::complex"* %1, %"struct.std::complex"* %2, %"class.std::allocator.0"* dereferenceable(1) %3) #0 comdat {
  %5 = alloca %"class.std::move_iterator", align 8
  %6 = alloca %"class.std::move_iterator", align 8
  %7 = alloca %"class.std::move_iterator", align 8
  %8 = alloca %"class.std::move_iterator", align 8
  %9 = getelementptr inbounds %"class.std::move_iterator", %"class.std::move_iterator"* %5, i32 0, i32 0
  store %"struct.std::complex"* %0, %"struct.std::complex"** %9, align 8
  %10 = getelementptr inbounds %"class.std::move_iterator", %"class.std::move_iterator"* %6, i32 0, i32 0
  store %"struct.std::complex"* %1, %"struct.std::complex"** %10, align 8
  %11 = bitcast %"class.std::move_iterator"* %7 to i8*
  %12 = bitcast %"class.std::move_iterator"* %5 to i8*
  call void @llvm.memcpy.p0i8.p0i8.i64(i8* align 8 %11, i8* align 8 %12, i64 8, i1 false)
  %13 = bitcast %"class.std::move_iterator"* %8 to i8*
  %14 = bitcast %"class.std::move_iterator"* %6 to i8*
  call void @llvm.memcpy.p0i8.p0i8.i64(i8* align 8 %13, i8* align 8 %14, i64 8, i1 false)
  %15 = getelementptr inbounds %"class.std::move_iterator", %"class.std::move_iterator"* %7, i32 0, i32 0
  %16 = load %"struct.std::complex"*, %"struct.std::complex"** %15, align 8
  %17 = getelementptr inbounds %"class.std::move_iterator", %"class.std::move_iterator"* %8, i32 0, i32 0
  %18 = load %"struct.std::complex"*, %"struct.std::complex"** %17, align 8
  %19 = call %"struct.std::complex"* @_ZSt18uninitialized_copyISt13move_iteratorIPSt7complexIdEES3_ET0_T_S6_S5_(%"struct.std::complex"* %16, %"struct.std::complex"* %18, %"struct.std::complex"* %2)
  ret %"struct.std::complex"* %19
}

; Function Attrs: noinline uwtable
define linkonce_odr %"struct.std::complex"* @_ZSt32__make_move_if_noexcept_iteratorISt7complexIdESt13move_iteratorIPS1_EET0_PT_(%"struct.std::complex"* %0) #0 comdat {
  %2 = alloca %"class.std::move_iterator", align 8
  call void @_ZNSt13move_iteratorIPSt7complexIdEEC2ES2_(%"class.std::move_iterator"* %2, %"struct.std::complex"* %0)
  %3 = getelementptr inbounds %"class.std::move_iterator", %"class.std::move_iterator"* %2, i32 0, i32 0
  %4 = load %"struct.std::complex"*, %"struct.std::complex"** %3, align 8
  ret %"struct.std::complex"* %4
}

; Function Attrs: noinline uwtable
define linkonce_odr %"struct.std::complex"* @_ZSt18uninitialized_copyISt13move_iteratorIPSt7complexIdEES3_ET0_T_S6_S5_(%"struct.std::complex"* %0, %"struct.std::complex"* %1, %"struct.std::complex"* %2) #0 comdat {
  %4 = alloca %"class.std::move_iterator", align 8
  %5 = alloca %"class.std::move_iterator", align 8
  %6 = alloca %"class.std::move_iterator", align 8
  %7 = alloca %"class.std::move_iterator", align 8
  %8 = getelementptr inbounds %"class.std::move_iterator", %"class.std::move_iterator"* %4, i32 0, i32 0
  store %"struct.std::complex"* %0, %"struct.std::complex"** %8, align 8
  %9 = getelementptr inbounds %"class.std::move_iterator", %"class.std::move_iterator"* %5, i32 0, i32 0
  store %"struct.std::complex"* %1, %"struct.std::complex"** %9, align 8
  %10 = bitcast %"class.std::move_iterator"* %6 to i8*
  %11 = bitcast %"class.std::move_iterator"* %4 to i8*
  call void @llvm.memcpy.p0i8.p0i8.i64(i8* align 8 %10, i8* align 8 %11, i64 8, i1 false)
  %12 = bitcast %"class.std::move_iterator"* %7 to i8*
  %13 = bitcast %"class.std::move_iterator"* %5 to i8*
  call void @llvm.memcpy.p0i8.p0i8.i64(i8* align 8 %12, i8* align 8 %13, i64 8, i1 false)
  %14 = getelementptr inbounds %"class.std::move_iterator", %"class.std::move_iterator"* %6, i32 0, i32 0
  %15 = load %"struct.std::complex"*, %"struct.std::complex"** %14, align 8
  %16 = getelementptr inbounds %"class.std::move_iterator", %"class.std::move_iterator"* %7, i32 0, i32 0
  %17 = load %"struct.std::complex"*, %"struct.std::complex"** %16, align 8
  %18 = call %"struct.std::complex"* @_ZNSt20__uninitialized_copyILb0EE13__uninit_copyISt13move_iteratorIPSt7complexIdEES5_EET0_T_S8_S7_(%"struct.std::complex"* %15, %"struct.std::complex"* %17, %"struct.std::complex"* %2)
  ret %"struct.std::complex"* %18
}

; Function Attrs: noinline uwtable
define linkonce_odr %"struct.std::complex"* @_ZNSt20__uninitialized_copyILb0EE13__uninit_copyISt13move_iteratorIPSt7complexIdEES5_EET0_T_S8_S7_(%"struct.std::complex"* %0, %"struct.std::complex"* %1, %"struct.std::complex"* %2) #0 comdat align 2 personality i8* bitcast (i32 (...)* @__gxx_personality_v0 to i8*) {
  %4 = alloca %"class.std::move_iterator", align 8
  %5 = alloca %"class.std::move_iterator", align 8
  %6 = getelementptr inbounds %"class.std::move_iterator", %"class.std::move_iterator"* %4, i32 0, i32 0
  store %"struct.std::complex"* %0, %"struct.std::complex"** %6, align 8
  %7 = getelementptr inbounds %"class.std::move_iterator", %"class.std::move_iterator"* %5, i32 0, i32 0
  store %"struct.std::complex"* %1, %"struct.std::complex"** %7, align 8
  br label %8

8:                                                ; preds = %18, %3
  %.0 = phi %"struct.std::complex"* [ %2, %3 ], [ %19, %18 ]
  %9 = invoke zeroext i1 @_ZStneIPSt7complexIdEEbRKSt13move_iteratorIT_ES7_(%"class.std::move_iterator"* dereferenceable(8) %4, %"class.std::move_iterator"* dereferenceable(8) %5)
          to label %10 unwind label %20

10:                                               ; preds = %8
  br i1 %9, label %11, label %27

11:                                               ; preds = %10
  %12 = call %"struct.std::complex"* @_ZSt11__addressofISt7complexIdEEPT_RS2_(%"struct.std::complex"* dereferenceable(16) %.0) #3
  %13 = invoke dereferenceable(16) %"struct.std::complex"* @_ZNKSt13move_iteratorIPSt7complexIdEEdeEv(%"class.std::move_iterator"* %4)
          to label %14 unwind label %20

14:                                               ; preds = %11
  invoke void @_ZSt10_ConstructISt7complexIdEJS1_EEvPT_DpOT0_(%"struct.std::complex"* %12, %"struct.std::complex"* dereferenceable(16) %13)
          to label %15 unwind label %20

15:                                               ; preds = %14
  br label %16

16:                                               ; preds = %15
  %17 = invoke dereferenceable(8) %"class.std::move_iterator"* @_ZNSt13move_iteratorIPSt7complexIdEEppEv(%"class.std::move_iterator"* %4)
          to label %18 unwind label %20

18:                                               ; preds = %16
  %19 = getelementptr inbounds %"struct.std::complex", %"struct.std::complex"* %.0, i32 1
  br label %8

20:                                               ; preds = %16, %14, %11, %8
  %21 = landingpad { i8*, i32 }
          catch i8* null
  %22 = extractvalue { i8*, i32 } %21, 0
  %23 = extractvalue { i8*, i32 } %21, 1
  br label %24

24:                                               ; preds = %20
  %25 = call i8* @__cxa_begin_catch(i8* %22) #3
  invoke void @_ZSt8_DestroyIPSt7complexIdEEvT_S3_(%"struct.std::complex"* %2, %"struct.std::complex"* %.0)
          to label %26 unwind label %28

26:                                               ; preds = %24
  invoke void @__cxa_rethrow() #17
          to label %40 unwind label %28

27:                                               ; preds = %10
  ret %"struct.std::complex"* %.0

28:                                               ; preds = %26, %24
  %29 = landingpad { i8*, i32 }
          cleanup
  %30 = extractvalue { i8*, i32 } %29, 0
  %31 = extractvalue { i8*, i32 } %29, 1
  invoke void @__cxa_end_catch()
          to label %32 unwind label %37

32:                                               ; preds = %28
  br label %34

33:                                               ; No predecessors!
  call void @llvm.trap()
  unreachable

34:                                               ; preds = %32
  %35 = insertvalue { i8*, i32 } undef, i8* %30, 0
  %36 = insertvalue { i8*, i32 } %35, i32 %31, 1
  resume { i8*, i32 } %36

37:                                               ; preds = %28
  %38 = landingpad { i8*, i32 }
          catch i8* null
  %39 = extractvalue { i8*, i32 } %38, 0
  call void @__clang_call_terminate(i8* %39) #15
  unreachable

40:                                               ; preds = %26
  unreachable
}

; Function Attrs: noinline uwtable
define linkonce_odr zeroext i1 @_ZStneIPSt7complexIdEEbRKSt13move_iteratorIT_ES7_(%"class.std::move_iterator"* dereferenceable(8) %0, %"class.std::move_iterator"* dereferenceable(8) %1) #0 comdat {
  %3 = call zeroext i1 @_ZSteqIPSt7complexIdEEbRKSt13move_iteratorIT_ES7_(%"class.std::move_iterator"* dereferenceable(8) %0, %"class.std::move_iterator"* dereferenceable(8) %1)
  %4 = xor i1 %3, true
  ret i1 %4
}

; Function Attrs: noinline nounwind uwtable
define linkonce_odr void @_ZSt10_ConstructISt7complexIdEJS1_EEvPT_DpOT0_(%"struct.std::complex"* %0, %"struct.std::complex"* dereferenceable(16) %1) #4 comdat {
  %3 = bitcast %"struct.std::complex"* %0 to i8*
  %4 = bitcast i8* %3 to %"struct.std::complex"*
  %5 = call dereferenceable(16) %"struct.std::complex"* @_ZSt7forwardISt7complexIdEEOT_RNSt16remove_referenceIS2_E4typeE(%"struct.std::complex"* dereferenceable(16) %1) #3
  %6 = bitcast %"struct.std::complex"* %4 to i8*
  %7 = bitcast %"struct.std::complex"* %5 to i8*
  call void @llvm.memcpy.p0i8.p0i8.i64(i8* align 8 %6, i8* align 8 %7, i64 16, i1 false)
  ret void
}

; Function Attrs: noinline nounwind uwtable
define linkonce_odr %"struct.std::complex"* @_ZSt11__addressofISt7complexIdEEPT_RS2_(%"struct.std::complex"* dereferenceable(16) %0) #4 comdat {
  ret %"struct.std::complex"* %0
}

; Function Attrs: noinline nounwind uwtable
define linkonce_odr dereferenceable(16) %"struct.std::complex"* @_ZNKSt13move_iteratorIPSt7complexIdEEdeEv(%"class.std::move_iterator"* %0) #4 comdat align 2 {
  %2 = getelementptr inbounds %"class.std::move_iterator", %"class.std::move_iterator"* %0, i32 0, i32 0
  %3 = load %"struct.std::complex"*, %"struct.std::complex"** %2, align 8
  ret %"struct.std::complex"* %3
}

; Function Attrs: noinline nounwind uwtable
define linkonce_odr dereferenceable(8) %"class.std::move_iterator"* @_ZNSt13move_iteratorIPSt7complexIdEEppEv(%"class.std::move_iterator"* %0) #4 comdat align 2 {
  %2 = getelementptr inbounds %"class.std::move_iterator", %"class.std::move_iterator"* %0, i32 0, i32 0
  %3 = load %"struct.std::complex"*, %"struct.std::complex"** %2, align 8
  %4 = getelementptr inbounds %"struct.std::complex", %"struct.std::complex"* %3, i32 1
  store %"struct.std::complex"* %4, %"struct.std::complex"** %2, align 8
  ret %"class.std::move_iterator"* %0
}

; Function Attrs: cold noreturn nounwind
declare void @llvm.trap() #12

; Function Attrs: noinline uwtable
define linkonce_odr zeroext i1 @_ZSteqIPSt7complexIdEEbRKSt13move_iteratorIT_ES7_(%"class.std::move_iterator"* dereferenceable(8) %0, %"class.std::move_iterator"* dereferenceable(8) %1) #0 comdat {
  %3 = call %"struct.std::complex"* @_ZNKSt13move_iteratorIPSt7complexIdEE4baseEv(%"class.std::move_iterator"* %0)
  %4 = call %"struct.std::complex"* @_ZNKSt13move_iteratorIPSt7complexIdEE4baseEv(%"class.std::move_iterator"* %1)
  %5 = icmp eq %"struct.std::complex"* %3, %4
  ret i1 %5
}

; Function Attrs: noinline nounwind uwtable
define linkonce_odr %"struct.std::complex"* @_ZNKSt13move_iteratorIPSt7complexIdEE4baseEv(%"class.std::move_iterator"* %0) #4 comdat align 2 {
  %2 = getelementptr inbounds %"class.std::move_iterator", %"class.std::move_iterator"* %0, i32 0, i32 0
  %3 = load %"struct.std::complex"*, %"struct.std::complex"** %2, align 8
  ret %"struct.std::complex"* %3
}

; Function Attrs: noinline nounwind uwtable
define linkonce_odr dereferenceable(16) %"struct.std::complex"* @_ZSt7forwardISt7complexIdEEOT_RNSt16remove_referenceIS2_E4typeE(%"struct.std::complex"* dereferenceable(16) %0) #4 comdat {
  ret %"struct.std::complex"* %0
}

; Function Attrs: noinline nounwind uwtable
define linkonce_odr void @_ZNSt13move_iteratorIPSt7complexIdEEC2ES2_(%"class.std::move_iterator"* %0, %"struct.std::complex"* %1) unnamed_addr #4 comdat align 2 {
  %3 = getelementptr inbounds %"class.std::move_iterator", %"class.std::move_iterator"* %0, i32 0, i32 0
  store %"struct.std::complex"* %1, %"struct.std::complex"** %3, align 8
  ret void
}

; Function Attrs: noinline nounwind uwtable
define linkonce_odr void @_ZN9__gnu_cxx13new_allocatorISt7complexIdEE7destroyIS2_EEvPT_(%"class.__gnu_cxx::new_allocator.1"* %0, %"struct.std::complex"* %1) #4 comdat align 2 {
  ret void
}

; Function Attrs: noinline uwtable
define linkonce_odr void @_ZNSt16allocator_traitsISaISt7complexIdEEE10deallocateERS2_PS1_m(%"class.std::allocator.0"* dereferenceable(1) %0, %"struct.std::complex"* %1, i64 %2) #0 comdat align 2 {
  %4 = bitcast %"class.std::allocator.0"* %0 to %"class.__gnu_cxx::new_allocator.1"*
  call void @_ZN9__gnu_cxx13new_allocatorISt7complexIdEE10deallocateEPS2_m(%"class.__gnu_cxx::new_allocator.1"* %4, %"struct.std::complex"* %1, i64 %2)
  ret void
}

; Function Attrs: noinline nounwind uwtable
define linkonce_odr void @_ZN9__gnu_cxx13new_allocatorISt7complexIdEE10deallocateEPS2_m(%"class.__gnu_cxx::new_allocator.1"* %0, %"struct.std::complex"* %1, i64 %2) #4 comdat align 2 {
  %4 = bitcast %"struct.std::complex"* %1 to i8*
  call void @_ZdlPv(i8* %4) #3
  ret void
}

; Function Attrs: noinline uwtable
define linkonce_odr void @_ZNSt12_Vector_baseISt7complexIdESaIS1_EEC2Ev(%"struct.std::_Vector_base"* %0) unnamed_addr #0 comdat align 2 {
  %2 = getelementptr inbounds %"struct.std::_Vector_base", %"struct.std::_Vector_base"* %0, i32 0, i32 0
  call void @_ZNSt12_Vector_baseISt7complexIdESaIS1_EE12_Vector_implC2Ev(%"struct.std::_Vector_base<std::complex<double>, std::allocator<std::complex<double> > >::_Vector_impl"* %2)
  ret void
}

; Function Attrs: noinline nounwind uwtable
define linkonce_odr void @_ZNSt12_Vector_baseISt7complexIdESaIS1_EE12_Vector_implC2Ev(%"struct.std::_Vector_base<std::complex<double>, std::allocator<std::complex<double> > >::_Vector_impl"* %0) unnamed_addr #4 comdat align 2 {
  %2 = bitcast %"struct.std::_Vector_base<std::complex<double>, std::allocator<std::complex<double> > >::_Vector_impl"* %0 to %"class.std::allocator.0"*
  call void @_ZNSaISt7complexIdEEC2Ev(%"class.std::allocator.0"* %2) #3
  %3 = getelementptr inbounds %"struct.std::_Vector_base<std::complex<double>, std::allocator<std::complex<double> > >::_Vector_impl", %"struct.std::_Vector_base<std::complex<double>, std::allocator<std::complex<double> > >::_Vector_impl"* %0, i32 0, i32 0
  store %"struct.std::complex"* null, %"struct.std::complex"** %3, align 8
  %4 = getelementptr inbounds %"struct.std::_Vector_base<std::complex<double>, std::allocator<std::complex<double> > >::_Vector_impl", %"struct.std::_Vector_base<std::complex<double>, std::allocator<std::complex<double> > >::_Vector_impl"* %0, i32 0, i32 1
  store %"struct.std::complex"* null, %"struct.std::complex"** %4, align 8
  %5 = getelementptr inbounds %"struct.std::_Vector_base<std::complex<double>, std::allocator<std::complex<double> > >::_Vector_impl", %"struct.std::_Vector_base<std::complex<double>, std::allocator<std::complex<double> > >::_Vector_impl"* %0, i32 0, i32 2
  store %"struct.std::complex"* null, %"struct.std::complex"** %5, align 8
  ret void
}

; Function Attrs: noinline nounwind uwtable
define linkonce_odr void @_ZNSaISt7complexIdEEC2Ev(%"class.std::allocator.0"* %0) unnamed_addr #4 comdat align 2 {
  %2 = bitcast %"class.std::allocator.0"* %0 to %"class.__gnu_cxx::new_allocator.1"*
  call void @_ZN9__gnu_cxx13new_allocatorISt7complexIdEEC2Ev(%"class.__gnu_cxx::new_allocator.1"* %2) #3
  ret void
}

; Function Attrs: noinline nounwind uwtable
define linkonce_odr void @_ZN9__gnu_cxx13new_allocatorISt7complexIdEEC2Ev(%"class.__gnu_cxx::new_allocator.1"* %0) unnamed_addr #4 comdat align 2 {
  ret void
}

; Function Attrs: noinline nounwind uwtable
define linkonce_odr void @_ZNSt12_Vector_baseISt7complexIdESaIS1_EED2Ev(%"struct.std::_Vector_base"* %0) unnamed_addr #4 comdat align 2 personality i8* bitcast (i32 (...)* @__gxx_personality_v0 to i8*) {
  %2 = getelementptr inbounds %"struct.std::_Vector_base", %"struct.std::_Vector_base"* %0, i32 0, i32 0
  %3 = getelementptr inbounds %"struct.std::_Vector_base<std::complex<double>, std::allocator<std::complex<double> > >::_Vector_impl", %"struct.std::_Vector_base<std::complex<double>, std::allocator<std::complex<double> > >::_Vector_impl"* %2, i32 0, i32 0
  %4 = load %"struct.std::complex"*, %"struct.std::complex"** %3, align 8
  %5 = getelementptr inbounds %"struct.std::_Vector_base", %"struct.std::_Vector_base"* %0, i32 0, i32 0
  %6 = getelementptr inbounds %"struct.std::_Vector_base<std::complex<double>, std::allocator<std::complex<double> > >::_Vector_impl", %"struct.std::_Vector_base<std::complex<double>, std::allocator<std::complex<double> > >::_Vector_impl"* %5, i32 0, i32 2
  %7 = load %"struct.std::complex"*, %"struct.std::complex"** %6, align 8
  %8 = getelementptr inbounds %"struct.std::_Vector_base", %"struct.std::_Vector_base"* %0, i32 0, i32 0
  %9 = getelementptr inbounds %"struct.std::_Vector_base<std::complex<double>, std::allocator<std::complex<double> > >::_Vector_impl", %"struct.std::_Vector_base<std::complex<double>, std::allocator<std::complex<double> > >::_Vector_impl"* %8, i32 0, i32 0
  %10 = load %"struct.std::complex"*, %"struct.std::complex"** %9, align 8
  %11 = ptrtoint %"struct.std::complex"* %7 to i64
  %12 = ptrtoint %"struct.std::complex"* %10 to i64
  %13 = sub i64 %11, %12
  %14 = sdiv exact i64 %13, 16
  invoke void @_ZNSt12_Vector_baseISt7complexIdESaIS1_EE13_M_deallocateEPS1_m(%"struct.std::_Vector_base"* %0, %"struct.std::complex"* %4, i64 %14)
          to label %15 unwind label %17

15:                                               ; preds = %1
  %16 = getelementptr inbounds %"struct.std::_Vector_base", %"struct.std::_Vector_base"* %0, i32 0, i32 0
  call void @_ZNSt12_Vector_baseISt7complexIdESaIS1_EE12_Vector_implD2Ev(%"struct.std::_Vector_base<std::complex<double>, std::allocator<std::complex<double> > >::_Vector_impl"* %16) #3
  ret void

17:                                               ; preds = %1
  %18 = landingpad { i8*, i32 }
          catch i8* null
  %19 = extractvalue { i8*, i32 } %18, 0
  %20 = extractvalue { i8*, i32 } %18, 1
  %21 = getelementptr inbounds %"struct.std::_Vector_base", %"struct.std::_Vector_base"* %0, i32 0, i32 0
  call void @_ZNSt12_Vector_baseISt7complexIdESaIS1_EE12_Vector_implD2Ev(%"struct.std::_Vector_base<std::complex<double>, std::allocator<std::complex<double> > >::_Vector_impl"* %21) #3
  br label %22

22:                                               ; preds = %17
  call void @__clang_call_terminate(i8* %19) #15
  unreachable
}

; Function Attrs: noinline nounwind uwtable
define linkonce_odr void @_ZNSt12_Vector_baseISt7complexIdESaIS1_EE12_Vector_implD2Ev(%"struct.std::_Vector_base<std::complex<double>, std::allocator<std::complex<double> > >::_Vector_impl"* %0) unnamed_addr #4 comdat align 2 {
  %2 = bitcast %"struct.std::_Vector_base<std::complex<double>, std::allocator<std::complex<double> > >::_Vector_impl"* %0 to %"class.std::allocator.0"*
  call void @_ZNSaISt7complexIdEED2Ev(%"class.std::allocator.0"* %2) #3
  ret void
}

; Function Attrs: noinline nounwind uwtable
define linkonce_odr void @_ZNSaISt7complexIdEED2Ev(%"class.std::allocator.0"* %0) unnamed_addr #4 comdat align 2 {
  %2 = bitcast %"class.std::allocator.0"* %0 to %"class.__gnu_cxx::new_allocator.1"*
  call void @_ZN9__gnu_cxx13new_allocatorISt7complexIdEED2Ev(%"class.__gnu_cxx::new_allocator.1"* %2) #3
  ret void
}

; Function Attrs: noinline nounwind uwtable
define linkonce_odr void @_ZN9__gnu_cxx13new_allocatorISt7complexIdEED2Ev(%"class.__gnu_cxx::new_allocator.1"* %0) unnamed_addr #4 comdat align 2 {
  ret void
}

; Function Attrs: noinline nounwind uwtable
define linkonce_odr void @_ZNSt8_Rb_treeI5PointS0_St9_IdentityIS0_ESt4lessIS0_ESaIS0_EE5clearEv(%"class.std::_Rb_tree"* %0) #4 comdat align 2 personality i8* bitcast (i32 (...)* @__gxx_personality_v0 to i8*) {
  %2 = call %"struct.std::_Rb_tree_node"* @_ZNSt8_Rb_treeI5PointS0_St9_IdentityIS0_ESt4lessIS0_ESaIS0_EE8_M_beginEv(%"class.std::_Rb_tree"* %0) #3
  invoke void @_ZNSt8_Rb_treeI5PointS0_St9_IdentityIS0_ESt4lessIS0_ESaIS0_EE8_M_eraseEPSt13_Rb_tree_nodeIS0_E(%"class.std::_Rb_tree"* %0, %"struct.std::_Rb_tree_node"* %2)
          to label %3 unwind label %9

3:                                                ; preds = %1
  %4 = getelementptr inbounds %"class.std::_Rb_tree", %"class.std::_Rb_tree"* %0, i32 0, i32 0
  %5 = bitcast %"struct.std::_Rb_tree<Point, Point, std::_Identity<Point>, std::less<Point>, std::allocator<Point> >::_Rb_tree_impl"* %4 to i8*
  %6 = getelementptr inbounds i8, i8* %5, i64 8
  %7 = bitcast i8* %6 to %"struct.std::_Rb_tree_header"*
  invoke void @_ZNSt15_Rb_tree_header8_M_resetEv(%"struct.std::_Rb_tree_header"* %7)
          to label %8 unwind label %9

8:                                                ; preds = %3
  ret void

9:                                                ; preds = %3, %1
  %10 = landingpad { i8*, i32 }
          catch i8* null
  %11 = extractvalue { i8*, i32 } %10, 0
  call void @__clang_call_terminate(i8* %11) #15
  unreachable
}

; Function Attrs: noinline nounwind uwtable
define linkonce_odr i64 @_ZNKSt8_Rb_treeI5PointS0_St9_IdentityIS0_ESt4lessIS0_ESaIS0_EE4sizeEv(%"class.std::_Rb_tree"* %0) #4 comdat align 2 {
  %2 = getelementptr inbounds %"class.std::_Rb_tree", %"class.std::_Rb_tree"* %0, i32 0, i32 0
  %3 = bitcast %"struct.std::_Rb_tree<Point, Point, std::_Identity<Point>, std::less<Point>, std::allocator<Point> >::_Rb_tree_impl"* %2 to i8*
  %4 = getelementptr inbounds i8, i8* %3, i64 8
  %5 = bitcast i8* %4 to %"struct.std::_Rb_tree_header"*
  %6 = getelementptr inbounds %"struct.std::_Rb_tree_header", %"struct.std::_Rb_tree_header"* %5, i32 0, i32 1
  %7 = load i64, i64* %6, align 8
  ret i64 %7
}

; Function Attrs: noinline uwtable
define internal void @_GLOBAL__sub_I_s001004287.cpp() #0 section ".text.startup" {
  call void @__cxx_global_var_init()
  call void @__cxx_global_var_init.1()
  call void @__cxx_global_var_init.2()
  call void @__cxx_global_var_init.3()
  ret void
}

; Function Attrs: argmemonly nocallback nofree nounwind willreturn
declare void @llvm.memcpy.p0i8.p0i8.i64(i8* noalias nocapture writeonly, i8* noalias nocapture readonly, i64, i1 immarg) #13

; Function Attrs: argmemonly nocallback nofree nounwind willreturn writeonly
declare void @llvm.memset.p0i8.i64(i8* nocapture writeonly, i8, i64, i1 immarg) #14

attributes #0 = { noinline uwtable "correctly-rounded-divide-sqrt-fp-math"="false" "disable-tail-calls"="false" "less-precise-fpmad"="false" "no-frame-pointer-elim"="true" "no-frame-pointer-elim-non-leaf" "no-infs-fp-math"="false" "no-jump-tables"="false" "no-nans-fp-math"="false" "no-signed-zeros-fp-math"="false" "no-trapping-math"="false" "stack-protector-buffer-size"="8" "target-cpu"="x86-64" "target-features"="+fxsr,+mmx,+sse,+sse2,+x87" "unsafe-fp-math"="false" "use-soft-float"="false" }
attributes #1 = { "correctly-rounded-divide-sqrt-fp-math"="false" "disable-tail-calls"="false" "less-precise-fpmad"="false" "no-frame-pointer-elim"="true" "no-frame-pointer-elim-non-leaf" "no-infs-fp-math"="false" "no-nans-fp-math"="false" "no-signed-zeros-fp-math"="false" "no-trapping-math"="false" "stack-protector-buffer-size"="8" "target-cpu"="x86-64" "target-features"="+fxsr,+mmx,+sse,+sse2,+x87" "unsafe-fp-math"="false" "use-soft-float"="false" }
attributes #2 = { nounwind "correctly-rounded-divide-sqrt-fp-math"="false" "disable-tail-calls"="false" "less-precise-fpmad"="false" "no-frame-pointer-elim"="true" "no-frame-pointer-elim-non-leaf" "no-infs-fp-math"="false" "no-nans-fp-math"="false" "no-signed-zeros-fp-math"="false" "no-trapping-math"="false" "stack-protector-buffer-size"="8" "target-cpu"="x86-64" "target-features"="+fxsr,+mmx,+sse,+sse2,+x87" "unsafe-fp-math"="false" "use-soft-float"="false" }
attributes #3 = { nounwind }
attributes #4 = { noinline nounwind uwtable "correctly-rounded-divide-sqrt-fp-math"="false" "disable-tail-calls"="false" "less-precise-fpmad"="false" "no-frame-pointer-elim"="true" "no-frame-pointer-elim-non-leaf" "no-infs-fp-math"="false" "no-jump-tables"="false" "no-nans-fp-math"="false" "no-signed-zeros-fp-math"="false" "no-trapping-math"="false" "stack-protector-buffer-size"="8" "target-cpu"="x86-64" "target-features"="+fxsr,+mmx,+sse,+sse2,+x87" "unsafe-fp-math"="false" "use-soft-float"="false" }
attributes #5 = { noinline norecurse uwtable "correctly-rounded-divide-sqrt-fp-math"="false" "disable-tail-calls"="false" "less-precise-fpmad"="false" "no-frame-pointer-elim"="true" "no-frame-pointer-elim-non-leaf" "no-infs-fp-math"="false" "no-jump-tables"="false" "no-nans-fp-math"="false" "no-signed-zeros-fp-math"="false" "no-trapping-math"="false" "stack-protector-buffer-size"="8" "target-cpu"="x86-64" "target-features"="+fxsr,+mmx,+sse,+sse2,+x87" "unsafe-fp-math"="false" "use-soft-float"="false" }
attributes #6 = { nocallback nofree nosync nounwind readnone speculatable willreturn }
attributes #7 = { noinline noreturn nounwind }
attributes #8 = { nobuiltin nounwind "correctly-rounded-divide-sqrt-fp-math"="false" "disable-tail-calls"="false" "less-precise-fpmad"="false" "no-frame-pointer-elim"="true" "no-frame-pointer-elim-non-leaf" "no-infs-fp-math"="false" "no-nans-fp-math"="false" "no-signed-zeros-fp-math"="false" "no-trapping-math"="false" "stack-protector-buffer-size"="8" "target-cpu"="x86-64" "target-features"="+fxsr,+mmx,+sse,+sse2,+x87" "unsafe-fp-math"="false" "use-soft-float"="false" }
attributes #9 = { nounwind readonly "correctly-rounded-divide-sqrt-fp-math"="false" "disable-tail-calls"="false" "less-precise-fpmad"="false" "no-frame-pointer-elim"="true" "no-frame-pointer-elim-non-leaf" "no-infs-fp-math"="false" "no-nans-fp-math"="false" "no-signed-zeros-fp-math"="false" "no-trapping-math"="false" "stack-protector-buffer-size"="8" "target-cpu"="x86-64" "target-features"="+fxsr,+mmx,+sse,+sse2,+x87" "unsafe-fp-math"="false" "use-soft-float"="false" }
attributes #10 = { noreturn "correctly-rounded-divide-sqrt-fp-math"="false" "disable-tail-calls"="false" "less-precise-fpmad"="false" "no-frame-pointer-elim"="true" "no-frame-pointer-elim-non-leaf" "no-infs-fp-math"="false" "no-nans-fp-math"="false" "no-signed-zeros-fp-math"="false" "no-trapping-math"="false" "stack-protector-buffer-size"="8" "target-cpu"="x86-64" "target-features"="+fxsr,+mmx,+sse,+sse2,+x87" "unsafe-fp-math"="false" "use-soft-float"="false" }
