; ModuleID = '/home/pedro/tcc/exDataset/codenet/data/selection/p00853/s447675307.ll'
source_filename = "/home/pedro/tcc/exDataset/codenet/data/selection/p00853/s447675307.cpp"
target datalayout = "e-m:e-i64:64-f80:128-n8:16:32:64-S128"
target triple = "x86_64-pc-linux-gnu"

%"class.std::ios_base::Init" = type { i8 }
%"class.std::vector" = type { %"struct.std::_Vector_base" }
%"struct.std::_Vector_base" = type { %"struct.std::_Vector_base<edge, std::allocator<edge> >::_Vector_impl" }
%"struct.std::_Vector_base<edge, std::allocator<edge> >::_Vector_impl" = type { %struct.edge*, %struct.edge*, %struct.edge* }
%struct.edge = type { i32, i32 }
%"class.std::basic_ostream" = type { i32 (...)**, %"class.std::basic_ios" }
%"class.std::basic_ios" = type { %"class.std::ios_base", %"class.std::basic_ostream"*, i8, i8, %"class.std::basic_streambuf"*, %"class.std::ctype"*, %"class.std::num_put"*, %"class.std::num_get"* }
%"class.std::ios_base" = type { i32 (...)**, i64, i64, i32, i32, i32, %"struct.std::ios_base::_Callback_list"*, %"struct.std::ios_base::_Words", [8 x %"struct.std::ios_base::_Words"], i32, %"struct.std::ios_base::_Words"*, %"class.std::locale" }
%"struct.std::ios_base::_Callback_list" = type { %"struct.std::ios_base::_Callback_list"*, void (i32, %"class.std::ios_base"*, i32)*, i32, i32 }
%"struct.std::ios_base::_Words" = type { i8*, i64 }
%"class.std::locale" = type { %"class.std::locale::_Impl"* }
%"class.std::locale::_Impl" = type { i32, %"class.std::locale::facet"**, i64, %"class.std::locale::facet"**, i8** }
%"class.std::locale::facet" = type <{ i32 (...)**, i32, [4 x i8] }>
%"class.std::basic_streambuf" = type { i32 (...)**, i8*, i8*, i8*, i8*, i8*, i8*, %"class.std::locale" }
%"class.std::ctype" = type <{ %"class.std::locale::facet.base", [4 x i8], %struct.__locale_struct*, i8, [7 x i8], i32*, i32*, i16*, i8, [256 x i8], [256 x i8], i8, [6 x i8] }>
%"class.std::locale::facet.base" = type <{ i32 (...)**, i32 }>
%struct.__locale_struct = type { [13 x %struct.__locale_data*], i16*, i32*, i32*, [13 x i8*] }
%struct.__locale_data = type opaque
%"class.std::num_put" = type { %"class.std::locale::facet.base", [4 x i8] }
%"class.std::num_get" = type { %"class.std::locale::facet.base", [4 x i8] }
%"class.std::vector.3" = type { %"struct.std::_Vector_base.4" }
%"struct.std::_Vector_base.4" = type { %"struct.std::_Vector_base<node, std::allocator<node> >::_Vector_impl" }
%"struct.std::_Vector_base<node, std::allocator<node> >::_Vector_impl" = type { %struct.node*, %struct.node*, %struct.node* }
%struct.node = type { i32, i32, i64, %"class.std::__cxx11::basic_string" }
%"class.std::__cxx11::basic_string" = type { %"struct.std::__cxx11::basic_string<char, std::char_traits<char>, std::allocator<char> >::_Alloc_hider", i64, %union.anon }
%"struct.std::__cxx11::basic_string<char, std::char_traits<char>, std::allocator<char> >::_Alloc_hider" = type { i8* }
%union.anon = type { i64, [8 x i8] }
%"class.std::basic_istream" = type { i32 (...)**, i64, %"class.std::basic_ios" }
%"class.std::allocator" = type { i8 }
%"class.__gnu_cxx::__normal_iterator" = type { i8* }
%"class.std::allocator.5" = type { i8 }
%"class.std::priority_queue" = type <{ %"class.std::vector.3", %"struct.std::less", [7 x i8] }>
%"struct.std::less" = type { i8 }
%"class.std::allocator.0" = type { i8 }
%"class.__gnu_cxx::__normal_iterator.8" = type { %struct.edge* }
%"class.__gnu_cxx::__normal_iterator.9" = type { %struct.node* }
%"class.__gnu_cxx::new_allocator" = type { i8 }
%"class.__gnu_cxx::new_allocator.6" = type { i8 }
%"class.std::move_iterator" = type { %struct.edge* }
%"struct.__gnu_cxx::__ops::_Iter_comp_val" = type { %"struct.std::less" }
%"class.std::move_iterator.10" = type { %struct.node* }
%"class.__gnu_cxx::__normal_iterator.11" = type { %struct.node* }
%"struct.__gnu_cxx::__ops::_Iter_comp_iter" = type { %"struct.std::less" }

$_ZNSt6vectorI4edgeSaIS0_EEC2Ev = comdat any

$_ZNSt6vectorI4edgeSaIS0_EED2Ev = comdat any

$_ZN9__gnu_cxxneIPcNSt7__cxx1112basic_stringIcSt11char_traitsIcESaIcEEEEEbRKNS_17__normal_iteratorIT_T0_EESD_ = comdat any

$_ZNK9__gnu_cxx17__normal_iteratorIPcNSt7__cxx1112basic_stringIcSt11char_traitsIcESaIcEEEEdeEv = comdat any

$_ZN9__gnu_cxx17__normal_iteratorIPcNSt7__cxx1112basic_stringIcSt11char_traitsIcESaIcEEEEppEi = comdat any

$_ZNSt6vectorI4nodeSaIS0_EEC2Ev = comdat any

$_ZNSt6vectorI4nodeSaIS0_EED2Ev = comdat any

$_ZNSt6vectorI4edgeSaIS0_EE5clearEv = comdat any

$_ZNSt6vectorI4nodeSaIS0_EE5clearEv = comdat any

$_ZNSt6vectorI4edgeSaIS0_EE9push_backEOS0_ = comdat any

$_ZN4edgeC2Eii = comdat any

$_ZNSt14priority_queueI4nodeSt6vectorIS0_SaIS0_EESt4lessIS0_EEC2IS3_vEEv = comdat any

$_ZNSt14priority_queueI4nodeSt6vectorIS0_SaIS0_EESt4lessIS0_EE4pushEOS0_ = comdat any

$_ZN4nodeC2EiixNSt7__cxx1112basic_stringIcSt11char_traitsIcESaIcEEE = comdat any

$_ZN4nodeD2Ev = comdat any

$_ZNKSt14priority_queueI4nodeSt6vectorIS0_SaIS0_EESt4lessIS0_EE5emptyEv = comdat any

$_ZNKSt14priority_queueI4nodeSt6vectorIS0_SaIS0_EESt4lessIS0_EE3topEv = comdat any

$_ZN4nodeC2ERKS_ = comdat any

$_ZNSt14priority_queueI4nodeSt6vectorIS0_SaIS0_EESt4lessIS0_EE3popEv = comdat any

$_ZNKSt6vectorI4nodeSaIS0_EE4sizeEv = comdat any

$_ZNSt6vectorI4nodeSaIS0_EE9push_backERKS0_ = comdat any

$_ZNSt6vectorI4edgeSaIS0_EE5beginEv = comdat any

$_ZN9__gnu_cxxneIP4edgeSt6vectorIS1_SaIS1_EEEEbRKNS_17__normal_iteratorIT_T0_EESB_ = comdat any

$_ZNSt6vectorI4edgeSaIS0_EE3endEv = comdat any

$_ZNK9__gnu_cxx17__normal_iteratorIP4edgeSt6vectorIS1_SaIS1_EEEptEv = comdat any

$_ZN9__gnu_cxx17__normal_iteratorIP4edgeSt6vectorIS1_SaIS1_EEEppEi = comdat any

$_ZNSt6vectorI4nodeSaIS0_EEixEm = comdat any

$_ZNSt14priority_queueI4nodeSt6vectorIS0_SaIS0_EESt4lessIS0_EED2Ev = comdat any

$_ZNSt12_Vector_baseI4edgeSaIS0_EEC2Ev = comdat any

$__clang_call_terminate = comdat any

$_ZNSt12_Vector_baseI4edgeSaIS0_EE12_Vector_implC2Ev = comdat any

$_ZNSaI4edgeEC2Ev = comdat any

$_ZN9__gnu_cxx13new_allocatorI4edgeEC2Ev = comdat any

$_ZSt8_DestroyIP4edgeS0_EvT_S2_RSaIT0_E = comdat any

$_ZNSt12_Vector_baseI4edgeSaIS0_EE19_M_get_Tp_allocatorEv = comdat any

$_ZNSt12_Vector_baseI4edgeSaIS0_EED2Ev = comdat any

$_ZSt8_DestroyIP4edgeEvT_S2_ = comdat any

$_ZNSt12_Destroy_auxILb1EE9__destroyIP4edgeEEvT_S4_ = comdat any

$_ZNSt12_Vector_baseI4edgeSaIS0_EE13_M_deallocateEPS0_m = comdat any

$_ZNSt12_Vector_baseI4edgeSaIS0_EE12_Vector_implD2Ev = comdat any

$_ZNSt16allocator_traitsISaI4edgeEE10deallocateERS1_PS0_m = comdat any

$_ZN9__gnu_cxx13new_allocatorI4edgeE10deallocateEPS1_m = comdat any

$_ZNSaI4edgeED2Ev = comdat any

$_ZN9__gnu_cxx13new_allocatorI4edgeED2Ev = comdat any

$_ZNK9__gnu_cxx17__normal_iteratorIPcNSt7__cxx1112basic_stringIcSt11char_traitsIcESaIcEEEE4baseEv = comdat any

$_ZN9__gnu_cxx17__normal_iteratorIPcNSt7__cxx1112basic_stringIcSt11char_traitsIcESaIcEEEEC2ERKS1_ = comdat any

$_ZNSt12_Vector_baseI4nodeSaIS0_EEC2Ev = comdat any

$_ZNSt12_Vector_baseI4nodeSaIS0_EE12_Vector_implC2Ev = comdat any

$_ZNSaI4nodeEC2Ev = comdat any

$_ZN9__gnu_cxx13new_allocatorI4nodeEC2Ev = comdat any

$_ZSt8_DestroyIP4nodeS0_EvT_S2_RSaIT0_E = comdat any

$_ZNSt12_Vector_baseI4nodeSaIS0_EE19_M_get_Tp_allocatorEv = comdat any

$_ZNSt12_Vector_baseI4nodeSaIS0_EED2Ev = comdat any

$_ZSt8_DestroyIP4nodeEvT_S2_ = comdat any

$_ZNSt12_Destroy_auxILb0EE9__destroyIP4nodeEEvT_S4_ = comdat any

$_ZSt8_DestroyI4nodeEvPT_ = comdat any

$_ZSt11__addressofI4nodeEPT_RS1_ = comdat any

$_ZNSt12_Vector_baseI4nodeSaIS0_EE13_M_deallocateEPS0_m = comdat any

$_ZNSt12_Vector_baseI4nodeSaIS0_EE12_Vector_implD2Ev = comdat any

$_ZNSt16allocator_traitsISaI4nodeEE10deallocateERS1_PS0_m = comdat any

$_ZN9__gnu_cxx13new_allocatorI4nodeE10deallocateEPS1_m = comdat any

$_ZNSaI4nodeED2Ev = comdat any

$_ZN9__gnu_cxx13new_allocatorI4nodeED2Ev = comdat any

$_ZNSt6vectorI4edgeSaIS0_EE15_M_erase_at_endEPS0_ = comdat any

$_ZNSt6vectorI4nodeSaIS0_EE15_M_erase_at_endEPS0_ = comdat any

$_ZNSt6vectorI4edgeSaIS0_EE12emplace_backIJS0_EEEvDpOT_ = comdat any

$_ZSt4moveIR4edgeEONSt16remove_referenceIT_E4typeEOS3_ = comdat any

$_ZNSt16allocator_traitsISaI4edgeEE9constructIS0_JS0_EEEvRS1_PT_DpOT0_ = comdat any

$_ZSt7forwardI4edgeEOT_RNSt16remove_referenceIS1_E4typeE = comdat any

$_ZNSt6vectorI4edgeSaIS0_EE17_M_realloc_insertIJS0_EEEvN9__gnu_cxx17__normal_iteratorIPS0_S2_EEDpOT_ = comdat any

$_ZN9__gnu_cxx13new_allocatorI4edgeE9constructIS1_JS1_EEEvPT_DpOT0_ = comdat any

$_ZNKSt6vectorI4edgeSaIS0_EE12_M_check_lenEmPKc = comdat any

$_ZN9__gnu_cxxmiIP4edgeSt6vectorIS1_SaIS1_EEEENS_17__normal_iteratorIT_T0_E15difference_typeERKS9_SC_ = comdat any

$_ZNSt12_Vector_baseI4edgeSaIS0_EE11_M_allocateEm = comdat any

$_ZSt34__uninitialized_move_if_noexcept_aIP4edgeS1_SaIS0_EET0_T_S4_S3_RT1_ = comdat any

$_ZNK9__gnu_cxx17__normal_iteratorIP4edgeSt6vectorIS1_SaIS1_EEE4baseEv = comdat any

$_ZNSt16allocator_traitsISaI4edgeEE7destroyIS0_EEvRS1_PT_ = comdat any

$_ZNKSt6vectorI4edgeSaIS0_EE8max_sizeEv = comdat any

$_ZNKSt6vectorI4edgeSaIS0_EE4sizeEv = comdat any

$_ZSt3maxImERKT_S2_S2_ = comdat any

$_ZNSt16allocator_traitsISaI4edgeEE8max_sizeERKS1_ = comdat any

$_ZNKSt12_Vector_baseI4edgeSaIS0_EE19_M_get_Tp_allocatorEv = comdat any

$_ZNK9__gnu_cxx13new_allocatorI4edgeE8max_sizeEv = comdat any

$_ZNSt16allocator_traitsISaI4edgeEE8allocateERS1_m = comdat any

$_ZN9__gnu_cxx13new_allocatorI4edgeE8allocateEmPKv = comdat any

$_ZSt22__uninitialized_copy_aISt13move_iteratorIP4edgeES2_S1_ET0_T_S5_S4_RSaIT1_E = comdat any

$_ZSt32__make_move_if_noexcept_iteratorI4edgeSt13move_iteratorIPS0_EET0_PT_ = comdat any

$_ZSt18uninitialized_copyISt13move_iteratorIP4edgeES2_ET0_T_S5_S4_ = comdat any

$_ZNSt20__uninitialized_copyILb0EE13__uninit_copyISt13move_iteratorIP4edgeES4_EET0_T_S7_S6_ = comdat any

$_ZStneIP4edgeEbRKSt13move_iteratorIT_ES6_ = comdat any

$_ZSt10_ConstructI4edgeJS0_EEvPT_DpOT0_ = comdat any

$_ZSt11__addressofI4edgeEPT_RS1_ = comdat any

$_ZNKSt13move_iteratorIP4edgeEdeEv = comdat any

$_ZNSt13move_iteratorIP4edgeEppEv = comdat any

$_ZSteqIP4edgeEbRKSt13move_iteratorIT_ES6_ = comdat any

$_ZNKSt13move_iteratorIP4edgeE4baseEv = comdat any

$_ZNSt13move_iteratorIP4edgeEC2ES1_ = comdat any

$_ZN9__gnu_cxx13new_allocatorI4edgeE7destroyIS1_EEvPT_ = comdat any

$_ZNSt6vectorI4nodeSaIS0_EE9push_backEOS0_ = comdat any

$_ZSt4moveIR4nodeEONSt16remove_referenceIT_E4typeEOS3_ = comdat any

$_ZSt9push_heapIN9__gnu_cxx17__normal_iteratorIP4nodeSt6vectorIS2_SaIS2_EEEESt4lessIS2_EEvT_SA_T0_ = comdat any

$_ZNSt6vectorI4nodeSaIS0_EE5beginEv = comdat any

$_ZNSt6vectorI4nodeSaIS0_EE3endEv = comdat any

$_ZNSt6vectorI4nodeSaIS0_EE12emplace_backIJS0_EEEvDpOT_ = comdat any

$_ZNSt16allocator_traitsISaI4nodeEE9constructIS0_JS0_EEEvRS1_PT_DpOT0_ = comdat any

$_ZSt7forwardI4nodeEOT_RNSt16remove_referenceIS1_E4typeE = comdat any

$_ZNSt6vectorI4nodeSaIS0_EE17_M_realloc_insertIJS0_EEEvN9__gnu_cxx17__normal_iteratorIPS0_S2_EEDpOT_ = comdat any

$_ZN9__gnu_cxx13new_allocatorI4nodeE9constructIS1_JS1_EEEvPT_DpOT0_ = comdat any

$_ZN4nodeC2EOS_ = comdat any

$_ZNKSt6vectorI4nodeSaIS0_EE12_M_check_lenEmPKc = comdat any

$_ZN9__gnu_cxxmiIP4nodeSt6vectorIS1_SaIS1_EEEENS_17__normal_iteratorIT_T0_E15difference_typeERKS9_SC_ = comdat any

$_ZNSt12_Vector_baseI4nodeSaIS0_EE11_M_allocateEm = comdat any

$_ZSt34__uninitialized_move_if_noexcept_aIP4nodeS1_SaIS0_EET0_T_S4_S3_RT1_ = comdat any

$_ZNK9__gnu_cxx17__normal_iteratorIP4nodeSt6vectorIS1_SaIS1_EEE4baseEv = comdat any

$_ZNSt16allocator_traitsISaI4nodeEE7destroyIS0_EEvRS1_PT_ = comdat any

$_ZNKSt6vectorI4nodeSaIS0_EE8max_sizeEv = comdat any

$_ZNSt16allocator_traitsISaI4nodeEE8max_sizeERKS1_ = comdat any

$_ZNKSt12_Vector_baseI4nodeSaIS0_EE19_M_get_Tp_allocatorEv = comdat any

$_ZNK9__gnu_cxx13new_allocatorI4nodeE8max_sizeEv = comdat any

$_ZNSt16allocator_traitsISaI4nodeEE8allocateERS1_m = comdat any

$_ZN9__gnu_cxx13new_allocatorI4nodeE8allocateEmPKv = comdat any

$_ZSt22__uninitialized_copy_aISt13move_iteratorIP4nodeES2_S1_ET0_T_S5_S4_RSaIT1_E = comdat any

$_ZSt32__make_move_if_noexcept_iteratorI4nodeSt13move_iteratorIPS0_EET0_PT_ = comdat any

$_ZSt18uninitialized_copyISt13move_iteratorIP4nodeES2_ET0_T_S5_S4_ = comdat any

$_ZNSt20__uninitialized_copyILb0EE13__uninit_copyISt13move_iteratorIP4nodeES4_EET0_T_S7_S6_ = comdat any

$_ZStneIP4nodeEbRKSt13move_iteratorIT_ES6_ = comdat any

$_ZSt10_ConstructI4nodeJS0_EEvPT_DpOT0_ = comdat any

$_ZNKSt13move_iteratorIP4nodeEdeEv = comdat any

$_ZNSt13move_iteratorIP4nodeEppEv = comdat any

$_ZSteqIP4nodeEbRKSt13move_iteratorIT_ES6_ = comdat any

$_ZNKSt13move_iteratorIP4nodeE4baseEv = comdat any

$_ZNSt13move_iteratorIP4nodeEC2ES1_ = comdat any

$_ZN9__gnu_cxx13new_allocatorI4nodeE7destroyIS1_EEvPT_ = comdat any

$_ZSt4moveIRSt4lessI4nodeEEONSt16remove_referenceIT_E4typeEOS5_ = comdat any

$_ZN9__gnu_cxx5__ops14_Iter_comp_valISt4lessI4nodeEEC2ES4_ = comdat any

$_ZNK9__gnu_cxx17__normal_iteratorIP4nodeSt6vectorIS1_SaIS1_EEEmiEl = comdat any

$_ZNK9__gnu_cxx17__normal_iteratorIP4nodeSt6vectorIS1_SaIS1_EEEdeEv = comdat any

$_ZSt11__push_heapIN9__gnu_cxx17__normal_iteratorIP4nodeSt6vectorIS2_SaIS2_EEEElS2_NS0_5__ops14_Iter_comp_valISt4lessIS2_EEEEvT_T0_SE_T1_RT2_ = comdat any

$_ZN9__gnu_cxx17__normal_iteratorIP4nodeSt6vectorIS1_SaIS1_EEEC2ERKS2_ = comdat any

$_ZN9__gnu_cxx5__ops14_Iter_comp_valISt4lessI4nodeEEclINS_17__normal_iteratorIPS3_St6vectorIS3_SaIS3_EEEES3_EEbT_RT0_ = comdat any

$_ZNK9__gnu_cxx17__normal_iteratorIP4nodeSt6vectorIS1_SaIS1_EEEplEl = comdat any

$_ZN4nodeaSEOS_ = comdat any

$_ZNKSt4lessI4nodeEclERKS0_S3_ = comdat any

$_ZNK4nodeltERKS_ = comdat any

$_ZStgtIcSt11char_traitsIcESaIcEEbRKNSt7__cxx1112basic_stringIT_T0_T1_EESA_ = comdat any

$_ZNKSt6vectorI4nodeSaIS0_EE5emptyEv = comdat any

$_ZN9__gnu_cxxeqIPK4nodeSt6vectorIS1_SaIS1_EEEEbRKNS_17__normal_iteratorIT_T0_EESC_ = comdat any

$_ZNKSt6vectorI4nodeSaIS0_EE5beginEv = comdat any

$_ZNKSt6vectorI4nodeSaIS0_EE3endEv = comdat any

$_ZNK9__gnu_cxx17__normal_iteratorIPK4nodeSt6vectorIS1_SaIS1_EEE4baseEv = comdat any

$_ZN9__gnu_cxx17__normal_iteratorIPK4nodeSt6vectorIS1_SaIS1_EEEC2ERKS3_ = comdat any

$_ZNKSt6vectorI4nodeSaIS0_EE5frontEv = comdat any

$_ZNK9__gnu_cxx17__normal_iteratorIPK4nodeSt6vectorIS1_SaIS1_EEEdeEv = comdat any

$_ZSt8pop_heapIN9__gnu_cxx17__normal_iteratorIP4nodeSt6vectorIS2_SaIS2_EEEESt4lessIS2_EEvT_SA_T0_ = comdat any

$_ZNSt6vectorI4nodeSaIS0_EE8pop_backEv = comdat any

$_ZN9__gnu_cxx5__ops15_Iter_comp_iterISt4lessI4nodeEEC2ES4_ = comdat any

$_ZN9__gnu_cxx17__normal_iteratorIP4nodeSt6vectorIS1_SaIS1_EEEmmEv = comdat any

$_ZSt10__pop_heapIN9__gnu_cxx17__normal_iteratorIP4nodeSt6vectorIS2_SaIS2_EEEENS0_5__ops15_Iter_comp_iterISt4lessIS2_EEEEvT_SD_SD_RT0_ = comdat any

$_ZSt13__adjust_heapIN9__gnu_cxx17__normal_iteratorIP4nodeSt6vectorIS2_SaIS2_EEEElS2_NS0_5__ops15_Iter_comp_iterISt4lessIS2_EEEEvT_T0_SE_T1_T2_ = comdat any

$_ZN9__gnu_cxx5__ops15_Iter_comp_iterISt4lessI4nodeEEclINS_17__normal_iteratorIPS3_St6vectorIS3_SaIS3_EEEESC_EEbT_T0_ = comdat any

$_ZSt4moveIRN9__gnu_cxx5__ops15_Iter_comp_iterISt4lessI4nodeEEEEONSt16remove_referenceIT_E4typeEOS9_ = comdat any

$_ZN9__gnu_cxx5__ops14_Iter_comp_valISt4lessI4nodeEEC2EONS0_15_Iter_comp_iterIS4_EE = comdat any

$_ZNSt16allocator_traitsISaI4nodeEE9constructIS0_JRKS0_EEEvRS1_PT_DpOT0_ = comdat any

$_ZNSt6vectorI4nodeSaIS0_EE17_M_realloc_insertIJRKS0_EEEvN9__gnu_cxx17__normal_iteratorIPS0_S2_EEDpOT_ = comdat any

$_ZN9__gnu_cxx13new_allocatorI4nodeE9constructIS1_JRKS1_EEEvPT_DpOT0_ = comdat any

$_ZSt7forwardIRK4nodeEOT_RNSt16remove_referenceIS3_E4typeE = comdat any

$_ZN9__gnu_cxx17__normal_iteratorIP4edgeSt6vectorIS1_SaIS1_EEEC2ERKS2_ = comdat any

@_ZStL8__ioinit = internal global %"class.std::ios_base::Init" zeroinitializer, align 1
@__dso_handle = external hidden global i8
@n = global i32 0, align 4
@m = global i32 0, align 4
@k = global i32 0, align 4
@a = global i32 0, align 4
@b = global i32 0, align 4
@G = global [64 x %"class.std::vector"] zeroinitializer, align 16
@_ZSt4cout = external global %"class.std::basic_ostream", align 8
@ks = global [64 x %"class.std::vector.3"] zeroinitializer, align 16
@_ZSt3cin = external global %"class.std::basic_istream", align 8
@.str = private unnamed_addr constant [5 x i8] c"None\00", align 1
@.str.4 = private unnamed_addr constant [26 x i8] c"vector::_M_realloc_insert\00", align 1
@llvm.global_ctors = appending global [1 x { i32, void ()*, i8* }] [{ i32, void ()*, i8* } { i32 65535, void ()* @_GLOBAL__sub_I_s447675307.cpp, i8* null }]

; Function Attrs: noinline uwtable
define internal void @__cxx_global_var_init() #0 section ".text.startup" {
  call void @_ZNSt8ios_base4InitC1Ev(%"class.std::ios_base::Init"* @_ZStL8__ioinit)
  %1 = call i32 @__cxa_atexit(void (i8*)* bitcast (void (%"class.std::ios_base::Init"*)* @_ZNSt8ios_base4InitD1Ev to void (i8*)*), i8* getelementptr inbounds (%"class.std::ios_base::Init", %"class.std::ios_base::Init"* @_ZStL8__ioinit, i32 0, i32 0), i8* @__dso_handle) #3
  ret void
}

declare void @_ZNSt8ios_base4InitC1Ev(%"class.std::ios_base::Init"*) unnamed_addr #1

; Function Attrs: nounwind
declare void @_ZNSt8ios_base4InitD1Ev(%"class.std::ios_base::Init"*) unnamed_addr #2

; Function Attrs: nounwind
declare i32 @__cxa_atexit(void (i8*)*, i8*, i8*) #3

; Function Attrs: noinline uwtable
define internal void @__cxx_global_var_init.1() #0 section ".text.startup" {
  br label %1

1:                                                ; preds = %1, %0
  %2 = phi %"class.std::vector"* [ getelementptr inbounds ([64 x %"class.std::vector"], [64 x %"class.std::vector"]* @G, i32 0, i32 0), %0 ], [ %3, %1 ]
  call void @_ZNSt6vectorI4edgeSaIS0_EEC2Ev(%"class.std::vector"* %2) #3
  %3 = getelementptr inbounds %"class.std::vector", %"class.std::vector"* %2, i64 1
  %4 = icmp eq %"class.std::vector"* %3, getelementptr inbounds ([64 x %"class.std::vector"], [64 x %"class.std::vector"]* @G, i64 1, i64 0)
  br i1 %4, label %5, label %1

5:                                                ; preds = %1
  %6 = call i32 @__cxa_atexit(void (i8*)* @__cxx_global_array_dtor, i8* null, i8* @__dso_handle) #3
  ret void
}

; Function Attrs: noinline nounwind uwtable
define linkonce_odr void @_ZNSt6vectorI4edgeSaIS0_EEC2Ev(%"class.std::vector"* %0) unnamed_addr #4 comdat align 2 personality i8* bitcast (i32 (...)* @__gxx_personality_v0 to i8*) {
  %2 = bitcast %"class.std::vector"* %0 to %"struct.std::_Vector_base"*
  invoke void @_ZNSt12_Vector_baseI4edgeSaIS0_EEC2Ev(%"struct.std::_Vector_base"* %2)
          to label %3 unwind label %4

3:                                                ; preds = %1
  ret void

4:                                                ; preds = %1
  %5 = landingpad { i8*, i32 }
          catch i8* null
  %6 = extractvalue { i8*, i32 } %5, 0
  call void @__clang_call_terminate(i8* %6) #12
  unreachable
}

; Function Attrs: noinline uwtable
define internal void @__cxx_global_array_dtor(i8* %0) #0 section ".text.startup" {
  br label %2

2:                                                ; preds = %2, %1
  %3 = phi %"class.std::vector"* [ getelementptr inbounds ([64 x %"class.std::vector"], [64 x %"class.std::vector"]* @G, i64 1, i64 0), %1 ], [ %4, %2 ]
  %4 = getelementptr inbounds %"class.std::vector", %"class.std::vector"* %3, i64 -1
  call void @_ZNSt6vectorI4edgeSaIS0_EED2Ev(%"class.std::vector"* %4) #3
  %5 = icmp eq %"class.std::vector"* %4, getelementptr inbounds ([64 x %"class.std::vector"], [64 x %"class.std::vector"]* @G, i32 0, i32 0)
  br i1 %5, label %6, label %2

6:                                                ; preds = %2
  ret void
}

; Function Attrs: noinline nounwind uwtable
define linkonce_odr void @_ZNSt6vectorI4edgeSaIS0_EED2Ev(%"class.std::vector"* %0) unnamed_addr #4 comdat align 2 personality i8* bitcast (i32 (...)* @__gxx_personality_v0 to i8*) {
  %2 = bitcast %"class.std::vector"* %0 to %"struct.std::_Vector_base"*
  %3 = getelementptr inbounds %"struct.std::_Vector_base", %"struct.std::_Vector_base"* %2, i32 0, i32 0
  %4 = getelementptr inbounds %"struct.std::_Vector_base<edge, std::allocator<edge> >::_Vector_impl", %"struct.std::_Vector_base<edge, std::allocator<edge> >::_Vector_impl"* %3, i32 0, i32 0
  %5 = load %struct.edge*, %struct.edge** %4, align 8
  %6 = bitcast %"class.std::vector"* %0 to %"struct.std::_Vector_base"*
  %7 = getelementptr inbounds %"struct.std::_Vector_base", %"struct.std::_Vector_base"* %6, i32 0, i32 0
  %8 = getelementptr inbounds %"struct.std::_Vector_base<edge, std::allocator<edge> >::_Vector_impl", %"struct.std::_Vector_base<edge, std::allocator<edge> >::_Vector_impl"* %7, i32 0, i32 1
  %9 = load %struct.edge*, %struct.edge** %8, align 8
  %10 = bitcast %"class.std::vector"* %0 to %"struct.std::_Vector_base"*
  %11 = call dereferenceable(1) %"class.std::allocator"* @_ZNSt12_Vector_baseI4edgeSaIS0_EE19_M_get_Tp_allocatorEv(%"struct.std::_Vector_base"* %10) #3
  invoke void @_ZSt8_DestroyIP4edgeS0_EvT_S2_RSaIT0_E(%struct.edge* %5, %struct.edge* %9, %"class.std::allocator"* dereferenceable(1) %11)
          to label %12 unwind label %14

12:                                               ; preds = %1
  %13 = bitcast %"class.std::vector"* %0 to %"struct.std::_Vector_base"*
  call void @_ZNSt12_Vector_baseI4edgeSaIS0_EED2Ev(%"struct.std::_Vector_base"* %13) #3
  ret void

14:                                               ; preds = %1
  %15 = landingpad { i8*, i32 }
          catch i8* null
  %16 = extractvalue { i8*, i32 } %15, 0
  %17 = extractvalue { i8*, i32 } %15, 1
  %18 = bitcast %"class.std::vector"* %0 to %"struct.std::_Vector_base"*
  call void @_ZNSt12_Vector_baseI4edgeSaIS0_EED2Ev(%"struct.std::_Vector_base"* %18) #3
  br label %19

19:                                               ; preds = %14
  call void @__clang_call_terminate(i8* %16) #12
  unreachable
}

; Function Attrs: noinline uwtable
define void @_Z4dumpNSt7__cxx1112basic_stringIcSt11char_traitsIcESaIcEEE(%"class.std::__cxx11::basic_string"* %0) #0 {
  %2 = alloca %"class.__gnu_cxx::__normal_iterator", align 8
  %3 = alloca %"class.__gnu_cxx::__normal_iterator", align 8
  %4 = alloca %"class.__gnu_cxx::__normal_iterator", align 8
  %5 = alloca %"class.__gnu_cxx::__normal_iterator", align 8
  %6 = call i8* @_ZNSt7__cxx1112basic_stringIcSt11char_traitsIcESaIcEE5beginEv(%"class.std::__cxx11::basic_string"* %0) #3
  %7 = getelementptr inbounds %"class.__gnu_cxx::__normal_iterator", %"class.__gnu_cxx::__normal_iterator"* %2, i32 0, i32 0
  store i8* %6, i8** %7, align 8
  br label %8

8:                                                ; preds = %24, %1
  %9 = call i8* @_ZNSt7__cxx1112basic_stringIcSt11char_traitsIcESaIcEE3endEv(%"class.std::__cxx11::basic_string"* %0) #3
  %10 = getelementptr inbounds %"class.__gnu_cxx::__normal_iterator", %"class.__gnu_cxx::__normal_iterator"* %3, i32 0, i32 0
  store i8* %9, i8** %10, align 8
  %11 = call zeroext i1 @_ZN9__gnu_cxxneIPcNSt7__cxx1112basic_stringIcSt11char_traitsIcESaIcEEEEEbRKNS_17__normal_iteratorIT_T0_EESD_(%"class.__gnu_cxx::__normal_iterator"* dereferenceable(8) %2, %"class.__gnu_cxx::__normal_iterator"* dereferenceable(8) %3) #3
  br i1 %11, label %12, label %27

12:                                               ; preds = %8
  %13 = call i8* @_ZNSt7__cxx1112basic_stringIcSt11char_traitsIcESaIcEE5beginEv(%"class.std::__cxx11::basic_string"* %0) #3
  %14 = getelementptr inbounds %"class.__gnu_cxx::__normal_iterator", %"class.__gnu_cxx::__normal_iterator"* %4, i32 0, i32 0
  store i8* %13, i8** %14, align 8
  %15 = call zeroext i1 @_ZN9__gnu_cxxneIPcNSt7__cxx1112basic_stringIcSt11char_traitsIcESaIcEEEEEbRKNS_17__normal_iteratorIT_T0_EESD_(%"class.__gnu_cxx::__normal_iterator"* dereferenceable(8) %2, %"class.__gnu_cxx::__normal_iterator"* dereferenceable(8) %4) #3
  br i1 %15, label %16, label %18

16:                                               ; preds = %12
  %17 = call dereferenceable(272) %"class.std::basic_ostream"* @_ZStlsISt11char_traitsIcEERSt13basic_ostreamIcT_ES5_c(%"class.std::basic_ostream"* dereferenceable(272) @_ZSt4cout, i8 signext 45)
  br label %18

18:                                               ; preds = %16, %12
  %19 = call dereferenceable(1) i8* @_ZNK9__gnu_cxx17__normal_iteratorIPcNSt7__cxx1112basic_stringIcSt11char_traitsIcESaIcEEEEdeEv(%"class.__gnu_cxx::__normal_iterator"* %2) #3
  %20 = load i8, i8* %19, align 1
  %21 = sext i8 %20 to i32
  %22 = sub nsw i32 %21, 32
  %23 = call dereferenceable(272) %"class.std::basic_ostream"* @_ZNSolsEi(%"class.std::basic_ostream"* @_ZSt4cout, i32 %22)
  br label %24

24:                                               ; preds = %18
  %25 = call i8* @_ZN9__gnu_cxx17__normal_iteratorIPcNSt7__cxx1112basic_stringIcSt11char_traitsIcESaIcEEEEppEi(%"class.__gnu_cxx::__normal_iterator"* %2, i32 0) #3
  %26 = getelementptr inbounds %"class.__gnu_cxx::__normal_iterator", %"class.__gnu_cxx::__normal_iterator"* %5, i32 0, i32 0
  store i8* %25, i8** %26, align 8
  br label %8

27:                                               ; preds = %8
  %28 = call dereferenceable(272) %"class.std::basic_ostream"* @_ZNSolsEPFRSoS_E(%"class.std::basic_ostream"* @_ZSt4cout, %"class.std::basic_ostream"* (%"class.std::basic_ostream"*)* @_ZSt4endlIcSt11char_traitsIcEERSt13basic_ostreamIT_T0_ES6_)
  ret void
}

; Function Attrs: nounwind
declare i8* @_ZNSt7__cxx1112basic_stringIcSt11char_traitsIcESaIcEE5beginEv(%"class.std::__cxx11::basic_string"*) #2

; Function Attrs: noinline nounwind uwtable
define linkonce_odr zeroext i1 @_ZN9__gnu_cxxneIPcNSt7__cxx1112basic_stringIcSt11char_traitsIcESaIcEEEEEbRKNS_17__normal_iteratorIT_T0_EESD_(%"class.__gnu_cxx::__normal_iterator"* dereferenceable(8) %0, %"class.__gnu_cxx::__normal_iterator"* dereferenceable(8) %1) #4 comdat {
  %3 = call dereferenceable(8) i8** @_ZNK9__gnu_cxx17__normal_iteratorIPcNSt7__cxx1112basic_stringIcSt11char_traitsIcESaIcEEEE4baseEv(%"class.__gnu_cxx::__normal_iterator"* %0) #3
  %4 = load i8*, i8** %3, align 8
  %5 = call dereferenceable(8) i8** @_ZNK9__gnu_cxx17__normal_iteratorIPcNSt7__cxx1112basic_stringIcSt11char_traitsIcESaIcEEEE4baseEv(%"class.__gnu_cxx::__normal_iterator"* %1) #3
  %6 = load i8*, i8** %5, align 8
  %7 = icmp ne i8* %4, %6
  ret i1 %7
}

; Function Attrs: nounwind
declare i8* @_ZNSt7__cxx1112basic_stringIcSt11char_traitsIcESaIcEE3endEv(%"class.std::__cxx11::basic_string"*) #2

declare dereferenceable(272) %"class.std::basic_ostream"* @_ZStlsISt11char_traitsIcEERSt13basic_ostreamIcT_ES5_c(%"class.std::basic_ostream"* dereferenceable(272), i8 signext) #1

declare dereferenceable(272) %"class.std::basic_ostream"* @_ZNSolsEi(%"class.std::basic_ostream"*, i32) #1

; Function Attrs: noinline nounwind uwtable
define linkonce_odr dereferenceable(1) i8* @_ZNK9__gnu_cxx17__normal_iteratorIPcNSt7__cxx1112basic_stringIcSt11char_traitsIcESaIcEEEEdeEv(%"class.__gnu_cxx::__normal_iterator"* %0) #4 comdat align 2 {
  %2 = getelementptr inbounds %"class.__gnu_cxx::__normal_iterator", %"class.__gnu_cxx::__normal_iterator"* %0, i32 0, i32 0
  %3 = load i8*, i8** %2, align 8
  ret i8* %3
}

; Function Attrs: noinline nounwind uwtable
define linkonce_odr i8* @_ZN9__gnu_cxx17__normal_iteratorIPcNSt7__cxx1112basic_stringIcSt11char_traitsIcESaIcEEEEppEi(%"class.__gnu_cxx::__normal_iterator"* %0, i32 %1) #4 comdat align 2 {
  %3 = alloca %"class.__gnu_cxx::__normal_iterator", align 8
  %4 = alloca i8*, align 8
  %5 = getelementptr inbounds %"class.__gnu_cxx::__normal_iterator", %"class.__gnu_cxx::__normal_iterator"* %0, i32 0, i32 0
  %6 = load i8*, i8** %5, align 8
  %7 = getelementptr inbounds i8, i8* %6, i32 1
  store i8* %7, i8** %5, align 8
  store i8* %6, i8** %4, align 8
  call void @_ZN9__gnu_cxx17__normal_iteratorIPcNSt7__cxx1112basic_stringIcSt11char_traitsIcESaIcEEEEC2ERKS1_(%"class.__gnu_cxx::__normal_iterator"* %3, i8** dereferenceable(8) %4) #3
  %8 = getelementptr inbounds %"class.__gnu_cxx::__normal_iterator", %"class.__gnu_cxx::__normal_iterator"* %3, i32 0, i32 0
  %9 = load i8*, i8** %8, align 8
  ret i8* %9
}

declare dereferenceable(272) %"class.std::basic_ostream"* @_ZNSolsEPFRSoS_E(%"class.std::basic_ostream"*, %"class.std::basic_ostream"* (%"class.std::basic_ostream"*)*) #1

declare dereferenceable(272) %"class.std::basic_ostream"* @_ZSt4endlIcSt11char_traitsIcEERSt13basic_ostreamIT_T0_ES6_(%"class.std::basic_ostream"* dereferenceable(272)) #1

; Function Attrs: noinline uwtable
define internal void @__cxx_global_var_init.2() #0 section ".text.startup" {
  br label %1

1:                                                ; preds = %1, %0
  %2 = phi %"class.std::vector.3"* [ getelementptr inbounds ([64 x %"class.std::vector.3"], [64 x %"class.std::vector.3"]* @ks, i32 0, i32 0), %0 ], [ %3, %1 ]
  call void @_ZNSt6vectorI4nodeSaIS0_EEC2Ev(%"class.std::vector.3"* %2) #3
  %3 = getelementptr inbounds %"class.std::vector.3", %"class.std::vector.3"* %2, i64 1
  %4 = icmp eq %"class.std::vector.3"* %3, getelementptr inbounds ([64 x %"class.std::vector.3"], [64 x %"class.std::vector.3"]* @ks, i64 1, i64 0)
  br i1 %4, label %5, label %1

5:                                                ; preds = %1
  %6 = call i32 @__cxa_atexit(void (i8*)* @__cxx_global_array_dtor.3, i8* null, i8* @__dso_handle) #3
  ret void
}

; Function Attrs: noinline nounwind uwtable
define linkonce_odr void @_ZNSt6vectorI4nodeSaIS0_EEC2Ev(%"class.std::vector.3"* %0) unnamed_addr #4 comdat align 2 personality i8* bitcast (i32 (...)* @__gxx_personality_v0 to i8*) {
  %2 = bitcast %"class.std::vector.3"* %0 to %"struct.std::_Vector_base.4"*
  invoke void @_ZNSt12_Vector_baseI4nodeSaIS0_EEC2Ev(%"struct.std::_Vector_base.4"* %2)
          to label %3 unwind label %4

3:                                                ; preds = %1
  ret void

4:                                                ; preds = %1
  %5 = landingpad { i8*, i32 }
          catch i8* null
  %6 = extractvalue { i8*, i32 } %5, 0
  call void @__clang_call_terminate(i8* %6) #12
  unreachable
}

; Function Attrs: noinline uwtable
define internal void @__cxx_global_array_dtor.3(i8* %0) #0 section ".text.startup" {
  br label %2

2:                                                ; preds = %2, %1
  %3 = phi %"class.std::vector.3"* [ getelementptr inbounds ([64 x %"class.std::vector.3"], [64 x %"class.std::vector.3"]* @ks, i64 1, i64 0), %1 ], [ %4, %2 ]
  %4 = getelementptr inbounds %"class.std::vector.3", %"class.std::vector.3"* %3, i64 -1
  call void @_ZNSt6vectorI4nodeSaIS0_EED2Ev(%"class.std::vector.3"* %4) #3
  %5 = icmp eq %"class.std::vector.3"* %4, getelementptr inbounds ([64 x %"class.std::vector.3"], [64 x %"class.std::vector.3"]* @ks, i32 0, i32 0)
  br i1 %5, label %6, label %2

6:                                                ; preds = %2
  ret void
}

; Function Attrs: noinline nounwind uwtable
define linkonce_odr void @_ZNSt6vectorI4nodeSaIS0_EED2Ev(%"class.std::vector.3"* %0) unnamed_addr #4 comdat align 2 personality i8* bitcast (i32 (...)* @__gxx_personality_v0 to i8*) {
  %2 = bitcast %"class.std::vector.3"* %0 to %"struct.std::_Vector_base.4"*
  %3 = getelementptr inbounds %"struct.std::_Vector_base.4", %"struct.std::_Vector_base.4"* %2, i32 0, i32 0
  %4 = getelementptr inbounds %"struct.std::_Vector_base<node, std::allocator<node> >::_Vector_impl", %"struct.std::_Vector_base<node, std::allocator<node> >::_Vector_impl"* %3, i32 0, i32 0
  %5 = load %struct.node*, %struct.node** %4, align 8
  %6 = bitcast %"class.std::vector.3"* %0 to %"struct.std::_Vector_base.4"*
  %7 = getelementptr inbounds %"struct.std::_Vector_base.4", %"struct.std::_Vector_base.4"* %6, i32 0, i32 0
  %8 = getelementptr inbounds %"struct.std::_Vector_base<node, std::allocator<node> >::_Vector_impl", %"struct.std::_Vector_base<node, std::allocator<node> >::_Vector_impl"* %7, i32 0, i32 1
  %9 = load %struct.node*, %struct.node** %8, align 8
  %10 = bitcast %"class.std::vector.3"* %0 to %"struct.std::_Vector_base.4"*
  %11 = call dereferenceable(1) %"class.std::allocator.5"* @_ZNSt12_Vector_baseI4nodeSaIS0_EE19_M_get_Tp_allocatorEv(%"struct.std::_Vector_base.4"* %10) #3
  invoke void @_ZSt8_DestroyIP4nodeS0_EvT_S2_RSaIT0_E(%struct.node* %5, %struct.node* %9, %"class.std::allocator.5"* dereferenceable(1) %11)
          to label %12 unwind label %14

12:                                               ; preds = %1
  %13 = bitcast %"class.std::vector.3"* %0 to %"struct.std::_Vector_base.4"*
  call void @_ZNSt12_Vector_baseI4nodeSaIS0_EED2Ev(%"struct.std::_Vector_base.4"* %13) #3
  ret void

14:                                               ; preds = %1
  %15 = landingpad { i8*, i32 }
          catch i8* null
  %16 = extractvalue { i8*, i32 } %15, 0
  %17 = extractvalue { i8*, i32 } %15, 1
  %18 = bitcast %"class.std::vector.3"* %0 to %"struct.std::_Vector_base.4"*
  call void @_ZNSt12_Vector_baseI4nodeSaIS0_EED2Ev(%"struct.std::_Vector_base.4"* %18) #3
  br label %19

19:                                               ; preds = %14
  call void @__clang_call_terminate(i8* %16) #12
  unreachable
}

; Function Attrs: noinline norecurse uwtable
define i32 @main() #5 personality i8* bitcast (i32 (...)* @__gxx_personality_v0 to i8*) {
  %1 = alloca i32, align 4
  %2 = alloca i32, align 4
  %3 = alloca i32, align 4
  %4 = alloca %struct.edge, align 4
  %5 = alloca %"class.std::priority_queue", align 8
  %6 = alloca %struct.node, align 8
  %7 = alloca %"class.std::__cxx11::basic_string", align 8
  %8 = alloca %"class.std::allocator.0", align 1
  %9 = alloca %struct.node, align 8
  %10 = alloca %"class.__gnu_cxx::__normal_iterator.8", align 8
  %11 = alloca %"class.__gnu_cxx::__normal_iterator.8", align 8
  %12 = alloca %"class.std::__cxx11::basic_string", align 8
  %13 = alloca %struct.node, align 8
  %14 = alloca %"class.std::__cxx11::basic_string", align 8
  %15 = alloca %"class.__gnu_cxx::__normal_iterator.8", align 8
  %16 = alloca %"class.std::__cxx11::basic_string", align 8
  br label %17

17:                                               ; preds = %223, %0
  %18 = call dereferenceable(280) %"class.std::basic_istream"* @_ZNSirsERi(%"class.std::basic_istream"* @_ZSt3cin, i32* dereferenceable(4) @n)
  %19 = call dereferenceable(280) %"class.std::basic_istream"* @_ZNSirsERi(%"class.std::basic_istream"* %18, i32* dereferenceable(4) @m)
  %20 = call dereferenceable(280) %"class.std::basic_istream"* @_ZNSirsERi(%"class.std::basic_istream"* %19, i32* dereferenceable(4) @k)
  %21 = call dereferenceable(280) %"class.std::basic_istream"* @_ZNSirsERi(%"class.std::basic_istream"* %20, i32* dereferenceable(4) @a)
  %22 = call dereferenceable(280) %"class.std::basic_istream"* @_ZNSirsERi(%"class.std::basic_istream"* %21, i32* dereferenceable(4) @b)
  %23 = bitcast %"class.std::basic_istream"* %22 to i8**
  %24 = load i8*, i8** %23, align 8
  %25 = getelementptr i8, i8* %24, i64 -24
  %26 = bitcast i8* %25 to i64*
  %27 = load i64, i64* %26, align 8
  %28 = bitcast %"class.std::basic_istream"* %22 to i8*
  %29 = getelementptr inbounds i8, i8* %28, i64 %27
  %30 = bitcast i8* %29 to %"class.std::basic_ios"*
  %31 = call zeroext i1 @_ZNKSt9basic_iosIcSt11char_traitsIcEEcvbEv(%"class.std::basic_ios"* %30)
  br i1 %31, label %32, label %35

32:                                               ; preds = %17
  %33 = load i32, i32* @n, align 4
  %34 = icmp ne i32 %33, 0
  br label %35

35:                                               ; preds = %32, %17
  %36 = phi i1 [ false, %17 ], [ %34, %32 ]
  br i1 %36, label %37, label %225

37:                                               ; preds = %35
  br label %38

38:                                               ; preds = %45, %37
  %.01 = phi i32 [ 0, %37 ], [ %46, %45 ]
  %39 = icmp slt i32 %.01, 64
  br i1 %39, label %40, label %47

40:                                               ; preds = %38
  %41 = sext i32 %.01 to i64
  %42 = getelementptr inbounds [64 x %"class.std::vector"], [64 x %"class.std::vector"]* @G, i64 0, i64 %41
  call void @_ZNSt6vectorI4edgeSaIS0_EE5clearEv(%"class.std::vector"* %42) #3
  %43 = sext i32 %.01 to i64
  %44 = getelementptr inbounds [64 x %"class.std::vector.3"], [64 x %"class.std::vector.3"]* @ks, i64 0, i64 %43
  call void @_ZNSt6vectorI4nodeSaIS0_EE5clearEv(%"class.std::vector.3"* %44) #3
  br label %45

45:                                               ; preds = %40
  %46 = add nsw i32 %.01, 1
  br label %38

47:                                               ; preds = %38
  br label %48

48:                                               ; preds = %60, %47
  %.02 = phi i32 [ 0, %47 ], [ %61, %60 ]
  %49 = load i32, i32* @m, align 4
  %50 = icmp slt i32 %.02, %49
  br i1 %50, label %51, label %62

51:                                               ; preds = %48
  %52 = call dereferenceable(280) %"class.std::basic_istream"* @_ZNSirsERi(%"class.std::basic_istream"* @_ZSt3cin, i32* dereferenceable(4) %1)
  %53 = call dereferenceable(280) %"class.std::basic_istream"* @_ZNSirsERi(%"class.std::basic_istream"* %52, i32* dereferenceable(4) %2)
  %54 = call dereferenceable(280) %"class.std::basic_istream"* @_ZNSirsERi(%"class.std::basic_istream"* %53, i32* dereferenceable(4) %3)
  %55 = load i32, i32* %1, align 4
  %56 = sext i32 %55 to i64
  %57 = getelementptr inbounds [64 x %"class.std::vector"], [64 x %"class.std::vector"]* @G, i64 0, i64 %56
  %58 = load i32, i32* %2, align 4
  %59 = load i32, i32* %3, align 4
  call void @_ZN4edgeC2Eii(%struct.edge* %4, i32 %58, i32 %59)
  call void @_ZNSt6vectorI4edgeSaIS0_EE9push_backEOS0_(%"class.std::vector"* %57, %struct.edge* dereferenceable(8) %4)
  br label %60

60:                                               ; preds = %51
  %61 = add nsw i32 %.02, 1
  br label %48

62:                                               ; preds = %48
  call void @_ZNSt14priority_queueI4nodeSt6vectorIS0_SaIS0_EESt4lessIS0_EEC2IS3_vEEv(%"class.std::priority_queue"* %5)
  %63 = load i32, i32* @a, align 4
  %64 = load i32, i32* @a, align 4
  %65 = zext i32 %64 to i64
  %66 = shl i64 1, %65
  %67 = load i32, i32* @a, align 4
  %68 = add nsw i32 %67, 32
  %69 = trunc i32 %68 to i8
  call void @_ZNSaIcEC1Ev(%"class.std::allocator.0"* %8) #3
  invoke void @_ZNSt7__cxx1112basic_stringIcSt11char_traitsIcESaIcEEC1EmcRKS3_(%"class.std::__cxx11::basic_string"* %7, i64 1, i8 signext %69, %"class.std::allocator.0"* dereferenceable(1) %8)
          to label %70 unwind label %92

70:                                               ; preds = %62
  invoke void @_ZN4nodeC2EiixNSt7__cxx1112basic_stringIcSt11char_traitsIcESaIcEEE(%struct.node* %6, i32 0, i32 %63, i64 %66, %"class.std::__cxx11::basic_string"* %7)
          to label %71 unwind label %96

71:                                               ; preds = %70
  invoke void @_ZNSt14priority_queueI4nodeSt6vectorIS0_SaIS0_EESt4lessIS0_EE4pushEOS0_(%"class.std::priority_queue"* %5, %struct.node* dereferenceable(48) %6)
          to label %72 unwind label %100

72:                                               ; preds = %71
  call void @_ZN4nodeD2Ev(%struct.node* %6) #3
  call void @_ZNSt7__cxx1112basic_stringIcSt11char_traitsIcESaIcEED1Ev(%"class.std::__cxx11::basic_string"* %7) #3
  call void @_ZNSaIcED1Ev(%"class.std::allocator.0"* %8) #3
  br label %73

73:                                               ; preds = %193, %192, %72
  %74 = invoke zeroext i1 @_ZNKSt14priority_queueI4nodeSt6vectorIS0_SaIS0_EESt4lessIS0_EE5emptyEv(%"class.std::priority_queue"* %5)
          to label %75 unwind label %106

75:                                               ; preds = %73
  %76 = xor i1 %74, true
  br i1 %76, label %77, label %195

77:                                               ; preds = %75
  %78 = invoke dereferenceable(48) %struct.node* @_ZNKSt14priority_queueI4nodeSt6vectorIS0_SaIS0_EESt4lessIS0_EE3topEv(%"class.std::priority_queue"* %5)
          to label %79 unwind label %106

79:                                               ; preds = %77
  invoke void @_ZN4nodeC2ERKS_(%struct.node* %9, %struct.node* dereferenceable(48) %78)
          to label %80 unwind label %106

80:                                               ; preds = %79
  invoke void @_ZNSt14priority_queueI4nodeSt6vectorIS0_SaIS0_EESt4lessIS0_EE3popEv(%"class.std::priority_queue"* %5)
          to label %81 unwind label %110

81:                                               ; preds = %80
  %82 = getelementptr inbounds %struct.node, %struct.node* %9, i32 0, i32 1
  %83 = load i32, i32* %82, align 4
  %84 = sext i32 %83 to i64
  %85 = getelementptr inbounds [64 x %"class.std::vector.3"], [64 x %"class.std::vector.3"]* @ks, i64 0, i64 %84
  %86 = call i64 @_ZNKSt6vectorI4nodeSaIS0_EE4sizeEv(%"class.std::vector.3"* %85) #3
  %87 = load i32, i32* @k, align 4
  %88 = mul nsw i32 2, %87
  %89 = sext i32 %88 to i64
  %90 = icmp uge i64 %86, %89
  br i1 %90, label %91, label %114

91:                                               ; preds = %81
  br label %192

92:                                               ; preds = %62
  %93 = landingpad { i8*, i32 }
          cleanup
  %94 = extractvalue { i8*, i32 } %93, 0
  %95 = extractvalue { i8*, i32 } %93, 1
  br label %105

96:                                               ; preds = %70
  %97 = landingpad { i8*, i32 }
          cleanup
  %98 = extractvalue { i8*, i32 } %97, 0
  %99 = extractvalue { i8*, i32 } %97, 1
  br label %104

100:                                              ; preds = %71
  %101 = landingpad { i8*, i32 }
          cleanup
  %102 = extractvalue { i8*, i32 } %101, 0
  %103 = extractvalue { i8*, i32 } %101, 1
  call void @_ZN4nodeD2Ev(%struct.node* %6) #3
  br label %104

104:                                              ; preds = %100, %96
  %.04 = phi i32 [ %103, %100 ], [ %99, %96 ]
  %.03 = phi i8* [ %102, %100 ], [ %98, %96 ]
  call void @_ZNSt7__cxx1112basic_stringIcSt11char_traitsIcESaIcEED1Ev(%"class.std::__cxx11::basic_string"* %7) #3
  br label %105

105:                                              ; preds = %104, %92
  %.15 = phi i32 [ %.04, %104 ], [ %95, %92 ]
  %.1 = phi i8* [ %.03, %104 ], [ %94, %92 ]
  call void @_ZNSaIcED1Ev(%"class.std::allocator.0"* %8) #3
  br label %224

106:                                              ; preds = %220, %218, %203, %79, %77, %73
  %107 = landingpad { i8*, i32 }
          cleanup
  %108 = extractvalue { i8*, i32 } %107, 0
  %109 = extractvalue { i8*, i32 } %107, 1
  br label %224

110:                                              ; preds = %144, %114, %80
  %111 = landingpad { i8*, i32 }
          cleanup
  %112 = extractvalue { i8*, i32 } %111, 0
  %113 = extractvalue { i8*, i32 } %111, 1
  br label %194

114:                                              ; preds = %81
  %115 = getelementptr inbounds %struct.node, %struct.node* %9, i32 0, i32 1
  %116 = load i32, i32* %115, align 4
  %117 = sext i32 %116 to i64
  %118 = getelementptr inbounds [64 x %"class.std::vector.3"], [64 x %"class.std::vector.3"]* @ks, i64 0, i64 %117
  invoke void @_ZNSt6vectorI4nodeSaIS0_EE9push_backERKS0_(%"class.std::vector.3"* %118, %struct.node* dereferenceable(48) %9)
          to label %119 unwind label %110

119:                                              ; preds = %114
  %120 = getelementptr inbounds %struct.node, %struct.node* %9, i32 0, i32 1
  %121 = load i32, i32* %120, align 4
  %122 = sext i32 %121 to i64
  %123 = getelementptr inbounds [64 x %"class.std::vector"], [64 x %"class.std::vector"]* @G, i64 0, i64 %122
  %124 = call %struct.edge* @_ZNSt6vectorI4edgeSaIS0_EE5beginEv(%"class.std::vector"* %123) #3
  %125 = getelementptr inbounds %"class.__gnu_cxx::__normal_iterator.8", %"class.__gnu_cxx::__normal_iterator.8"* %10, i32 0, i32 0
  store %struct.edge* %124, %struct.edge** %125, align 8
  br label %126

126:                                              ; preds = %188, %119
  %127 = getelementptr inbounds %struct.node, %struct.node* %9, i32 0, i32 1
  %128 = load i32, i32* %127, align 4
  %129 = sext i32 %128 to i64
  %130 = getelementptr inbounds [64 x %"class.std::vector"], [64 x %"class.std::vector"]* @G, i64 0, i64 %129
  %131 = call %struct.edge* @_ZNSt6vectorI4edgeSaIS0_EE3endEv(%"class.std::vector"* %130) #3
  %132 = getelementptr inbounds %"class.__gnu_cxx::__normal_iterator.8", %"class.__gnu_cxx::__normal_iterator.8"* %11, i32 0, i32 0
  store %struct.edge* %131, %struct.edge** %132, align 8
  %133 = call zeroext i1 @_ZN9__gnu_cxxneIP4edgeSt6vectorIS1_SaIS1_EEEEbRKNS_17__normal_iteratorIT_T0_EESB_(%"class.__gnu_cxx::__normal_iterator.8"* dereferenceable(8) %10, %"class.__gnu_cxx::__normal_iterator.8"* dereferenceable(8) %11) #3
  br i1 %133, label %134, label %191

134:                                              ; preds = %126
  %135 = getelementptr inbounds %struct.node, %struct.node* %9, i32 0, i32 2
  %136 = load i64, i64* %135, align 8
  %137 = call %struct.edge* @_ZNK9__gnu_cxx17__normal_iteratorIP4edgeSt6vectorIS1_SaIS1_EEEptEv(%"class.__gnu_cxx::__normal_iterator.8"* %10) #3
  %138 = getelementptr inbounds %struct.edge, %struct.edge* %137, i32 0, i32 0
  %139 = load i32, i32* %138, align 4
  %140 = zext i32 %139 to i64
  %141 = ashr i64 %136, %140
  %142 = and i64 %141, 1
  %143 = icmp ne i64 %142, 0
  br i1 %143, label %187, label %144

144:                                              ; preds = %134
  %145 = getelementptr inbounds %struct.node, %struct.node* %9, i32 0, i32 3
  invoke void @_ZNSt7__cxx1112basic_stringIcSt11char_traitsIcESaIcEEC1ERKS4_(%"class.std::__cxx11::basic_string"* %12, %"class.std::__cxx11::basic_string"* dereferenceable(32) %145)
          to label %146 unwind label %110

146:                                              ; preds = %144
  %147 = call %struct.edge* @_ZNK9__gnu_cxx17__normal_iteratorIP4edgeSt6vectorIS1_SaIS1_EEEptEv(%"class.__gnu_cxx::__normal_iterator.8"* %10) #3
  %148 = getelementptr inbounds %struct.edge, %struct.edge* %147, i32 0, i32 0
  %149 = load i32, i32* %148, align 4
  %150 = add nsw i32 %149, 32
  %151 = trunc i32 %150 to i8
  invoke void @_ZNSt7__cxx1112basic_stringIcSt11char_traitsIcESaIcEE9push_backEc(%"class.std::__cxx11::basic_string"* %12, i8 signext %151)
          to label %152 unwind label %173

152:                                              ; preds = %146
  %153 = getelementptr inbounds %struct.node, %struct.node* %9, i32 0, i32 0
  %154 = load i32, i32* %153, align 8
  %155 = call %struct.edge* @_ZNK9__gnu_cxx17__normal_iteratorIP4edgeSt6vectorIS1_SaIS1_EEEptEv(%"class.__gnu_cxx::__normal_iterator.8"* %10) #3
  %156 = getelementptr inbounds %struct.edge, %struct.edge* %155, i32 0, i32 1
  %157 = load i32, i32* %156, align 4
  %158 = add nsw i32 %154, %157
  %159 = call %struct.edge* @_ZNK9__gnu_cxx17__normal_iteratorIP4edgeSt6vectorIS1_SaIS1_EEEptEv(%"class.__gnu_cxx::__normal_iterator.8"* %10) #3
  %160 = getelementptr inbounds %struct.edge, %struct.edge* %159, i32 0, i32 0
  %161 = load i32, i32* %160, align 4
  %162 = getelementptr inbounds %struct.node, %struct.node* %9, i32 0, i32 2
  %163 = load i64, i64* %162, align 8
  %164 = call %struct.edge* @_ZNK9__gnu_cxx17__normal_iteratorIP4edgeSt6vectorIS1_SaIS1_EEEptEv(%"class.__gnu_cxx::__normal_iterator.8"* %10) #3
  %165 = getelementptr inbounds %struct.edge, %struct.edge* %164, i32 0, i32 0
  %166 = load i32, i32* %165, align 4
  %167 = zext i32 %166 to i64
  %168 = shl i64 1, %167
  %169 = or i64 %163, %168
  invoke void @_ZNSt7__cxx1112basic_stringIcSt11char_traitsIcESaIcEEC1ERKS4_(%"class.std::__cxx11::basic_string"* %14, %"class.std::__cxx11::basic_string"* dereferenceable(32) %12)
          to label %170 unwind label %173

170:                                              ; preds = %152
  invoke void @_ZN4nodeC2EiixNSt7__cxx1112basic_stringIcSt11char_traitsIcESaIcEEE(%struct.node* %13, i32 %158, i32 %161, i64 %169, %"class.std::__cxx11::basic_string"* %14)
          to label %171 unwind label %177

171:                                              ; preds = %170
  invoke void @_ZNSt14priority_queueI4nodeSt6vectorIS0_SaIS0_EESt4lessIS0_EE4pushEOS0_(%"class.std::priority_queue"* %5, %struct.node* dereferenceable(48) %13)
          to label %172 unwind label %181

172:                                              ; preds = %171
  call void @_ZN4nodeD2Ev(%struct.node* %13) #3
  call void @_ZNSt7__cxx1112basic_stringIcSt11char_traitsIcESaIcEED1Ev(%"class.std::__cxx11::basic_string"* %14) #3
  call void @_ZNSt7__cxx1112basic_stringIcSt11char_traitsIcESaIcEED1Ev(%"class.std::__cxx11::basic_string"* %12) #3
  br label %187

173:                                              ; preds = %152, %146
  %174 = landingpad { i8*, i32 }
          cleanup
  %175 = extractvalue { i8*, i32 } %174, 0
  %176 = extractvalue { i8*, i32 } %174, 1
  br label %186

177:                                              ; preds = %170
  %178 = landingpad { i8*, i32 }
          cleanup
  %179 = extractvalue { i8*, i32 } %178, 0
  %180 = extractvalue { i8*, i32 } %178, 1
  br label %185

181:                                              ; preds = %171
  %182 = landingpad { i8*, i32 }
          cleanup
  %183 = extractvalue { i8*, i32 } %182, 0
  %184 = extractvalue { i8*, i32 } %182, 1
  call void @_ZN4nodeD2Ev(%struct.node* %13) #3
  br label %185

185:                                              ; preds = %181, %177
  %.26 = phi i32 [ %184, %181 ], [ %180, %177 ]
  %.2 = phi i8* [ %183, %181 ], [ %179, %177 ]
  call void @_ZNSt7__cxx1112basic_stringIcSt11char_traitsIcESaIcEED1Ev(%"class.std::__cxx11::basic_string"* %14) #3
  br label %186

186:                                              ; preds = %185, %173
  %.37 = phi i32 [ %.26, %185 ], [ %176, %173 ]
  %.3 = phi i8* [ %.2, %185 ], [ %175, %173 ]
  call void @_ZNSt7__cxx1112basic_stringIcSt11char_traitsIcESaIcEED1Ev(%"class.std::__cxx11::basic_string"* %12) #3
  br label %194

187:                                              ; preds = %172, %134
  br label %188

188:                                              ; preds = %187
  %189 = call %struct.edge* @_ZN9__gnu_cxx17__normal_iteratorIP4edgeSt6vectorIS1_SaIS1_EEEppEi(%"class.__gnu_cxx::__normal_iterator.8"* %10, i32 0) #3
  %190 = getelementptr inbounds %"class.__gnu_cxx::__normal_iterator.8", %"class.__gnu_cxx::__normal_iterator.8"* %15, i32 0, i32 0
  store %struct.edge* %189, %struct.edge** %190, align 8
  br label %126

191:                                              ; preds = %126
  br label %192

192:                                              ; preds = %191, %91
  %.0 = phi i32 [ 10, %91 ], [ 0, %191 ]
  call void @_ZN4nodeD2Ev(%struct.node* %9) #3
  switch i32 %.0, label %229 [
    i32 0, label %193
    i32 10, label %73
  ]

193:                                              ; preds = %192
  br label %73

194:                                              ; preds = %186, %110
  %.48 = phi i32 [ %.37, %186 ], [ %113, %110 ]
  %.4 = phi i8* [ %.3, %186 ], [ %112, %110 ]
  call void @_ZN4nodeD2Ev(%struct.node* %9) #3
  br label %224

195:                                              ; preds = %75
  %196 = load i32, i32* @b, align 4
  %197 = sext i32 %196 to i64
  %198 = getelementptr inbounds [64 x %"class.std::vector.3"], [64 x %"class.std::vector.3"]* @ks, i64 0, i64 %197
  %199 = call i64 @_ZNKSt6vectorI4nodeSaIS0_EE4sizeEv(%"class.std::vector.3"* %198) #3
  %200 = load i32, i32* @k, align 4
  %201 = sext i32 %200 to i64
  %202 = icmp uge i64 %199, %201
  br i1 %202, label %203, label %218

203:                                              ; preds = %195
  %204 = load i32, i32* @b, align 4
  %205 = sext i32 %204 to i64
  %206 = getelementptr inbounds [64 x %"class.std::vector.3"], [64 x %"class.std::vector.3"]* @ks, i64 0, i64 %205
  %207 = load i32, i32* @k, align 4
  %208 = sub nsw i32 %207, 1
  %209 = sext i32 %208 to i64
  %210 = call dereferenceable(48) %struct.node* @_ZNSt6vectorI4nodeSaIS0_EEixEm(%"class.std::vector.3"* %206, i64 %209) #3
  %211 = getelementptr inbounds %struct.node, %struct.node* %210, i32 0, i32 3
  invoke void @_ZNSt7__cxx1112basic_stringIcSt11char_traitsIcESaIcEEC1ERKS4_(%"class.std::__cxx11::basic_string"* %16, %"class.std::__cxx11::basic_string"* dereferenceable(32) %211)
          to label %212 unwind label %106

212:                                              ; preds = %203
  invoke void @_Z4dumpNSt7__cxx1112basic_stringIcSt11char_traitsIcESaIcEEE(%"class.std::__cxx11::basic_string"* %16)
          to label %213 unwind label %214

213:                                              ; preds = %212
  call void @_ZNSt7__cxx1112basic_stringIcSt11char_traitsIcESaIcEED1Ev(%"class.std::__cxx11::basic_string"* %16) #3
  br label %223

214:                                              ; preds = %212
  %215 = landingpad { i8*, i32 }
          cleanup
  %216 = extractvalue { i8*, i32 } %215, 0
  %217 = extractvalue { i8*, i32 } %215, 1
  call void @_ZNSt7__cxx1112basic_stringIcSt11char_traitsIcESaIcEED1Ev(%"class.std::__cxx11::basic_string"* %16) #3
  br label %224

218:                                              ; preds = %195
  %219 = invoke dereferenceable(272) %"class.std::basic_ostream"* @_ZStlsISt11char_traitsIcEERSt13basic_ostreamIcT_ES5_PKc(%"class.std::basic_ostream"* dereferenceable(272) @_ZSt4cout, i8* getelementptr inbounds ([5 x i8], [5 x i8]* @.str, i32 0, i32 0))
          to label %220 unwind label %106

220:                                              ; preds = %218
  %221 = invoke dereferenceable(272) %"class.std::basic_ostream"* @_ZNSolsEPFRSoS_E(%"class.std::basic_ostream"* %219, %"class.std::basic_ostream"* (%"class.std::basic_ostream"*)* @_ZSt4endlIcSt11char_traitsIcEERSt13basic_ostreamIT_T0_ES6_)
          to label %222 unwind label %106

222:                                              ; preds = %220
  br label %223

223:                                              ; preds = %222, %213
  call void @_ZNSt14priority_queueI4nodeSt6vectorIS0_SaIS0_EESt4lessIS0_EED2Ev(%"class.std::priority_queue"* %5) #3
  br label %17

224:                                              ; preds = %214, %194, %106, %105
  %.59 = phi i32 [ %.48, %194 ], [ %109, %106 ], [ %217, %214 ], [ %.15, %105 ]
  %.5 = phi i8* [ %.4, %194 ], [ %108, %106 ], [ %216, %214 ], [ %.1, %105 ]
  call void @_ZNSt14priority_queueI4nodeSt6vectorIS0_SaIS0_EESt4lessIS0_EED2Ev(%"class.std::priority_queue"* %5) #3
  br label %226

225:                                              ; preds = %35
  ret i32 0

226:                                              ; preds = %224
  %227 = insertvalue { i8*, i32 } undef, i8* %.5, 0
  %228 = insertvalue { i8*, i32 } %227, i32 %.59, 1
  resume { i8*, i32 } %228

229:                                              ; preds = %192
  unreachable
}

declare dereferenceable(280) %"class.std::basic_istream"* @_ZNSirsERi(%"class.std::basic_istream"*, i32* dereferenceable(4)) #1

declare zeroext i1 @_ZNKSt9basic_iosIcSt11char_traitsIcEEcvbEv(%"class.std::basic_ios"*) #1

; Function Attrs: noinline nounwind uwtable
define linkonce_odr void @_ZNSt6vectorI4edgeSaIS0_EE5clearEv(%"class.std::vector"* %0) #4 comdat align 2 {
  %2 = bitcast %"class.std::vector"* %0 to %"struct.std::_Vector_base"*
  %3 = getelementptr inbounds %"struct.std::_Vector_base", %"struct.std::_Vector_base"* %2, i32 0, i32 0
  %4 = getelementptr inbounds %"struct.std::_Vector_base<edge, std::allocator<edge> >::_Vector_impl", %"struct.std::_Vector_base<edge, std::allocator<edge> >::_Vector_impl"* %3, i32 0, i32 0
  %5 = load %struct.edge*, %struct.edge** %4, align 8
  call void @_ZNSt6vectorI4edgeSaIS0_EE15_M_erase_at_endEPS0_(%"class.std::vector"* %0, %struct.edge* %5) #3
  ret void
}

; Function Attrs: noinline nounwind uwtable
define linkonce_odr void @_ZNSt6vectorI4nodeSaIS0_EE5clearEv(%"class.std::vector.3"* %0) #4 comdat align 2 {
  %2 = bitcast %"class.std::vector.3"* %0 to %"struct.std::_Vector_base.4"*
  %3 = getelementptr inbounds %"struct.std::_Vector_base.4", %"struct.std::_Vector_base.4"* %2, i32 0, i32 0
  %4 = getelementptr inbounds %"struct.std::_Vector_base<node, std::allocator<node> >::_Vector_impl", %"struct.std::_Vector_base<node, std::allocator<node> >::_Vector_impl"* %3, i32 0, i32 0
  %5 = load %struct.node*, %struct.node** %4, align 8
  call void @_ZNSt6vectorI4nodeSaIS0_EE15_M_erase_at_endEPS0_(%"class.std::vector.3"* %0, %struct.node* %5) #3
  ret void
}

; Function Attrs: noinline uwtable
define linkonce_odr void @_ZNSt6vectorI4edgeSaIS0_EE9push_backEOS0_(%"class.std::vector"* %0, %struct.edge* dereferenceable(8) %1) #0 comdat align 2 {
  %3 = call dereferenceable(8) %struct.edge* @_ZSt4moveIR4edgeEONSt16remove_referenceIT_E4typeEOS3_(%struct.edge* dereferenceable(8) %1) #3
  call void @_ZNSt6vectorI4edgeSaIS0_EE12emplace_backIJS0_EEEvDpOT_(%"class.std::vector"* %0, %struct.edge* dereferenceable(8) %3)
  ret void
}

; Function Attrs: noinline nounwind uwtable
define linkonce_odr void @_ZN4edgeC2Eii(%struct.edge* %0, i32 %1, i32 %2) unnamed_addr #4 comdat align 2 {
  %4 = getelementptr inbounds %struct.edge, %struct.edge* %0, i32 0, i32 0
  store i32 %1, i32* %4, align 4
  %5 = getelementptr inbounds %struct.edge, %struct.edge* %0, i32 0, i32 1
  store i32 %2, i32* %5, align 4
  ret void
}

; Function Attrs: noinline nounwind uwtable
define linkonce_odr void @_ZNSt14priority_queueI4nodeSt6vectorIS0_SaIS0_EESt4lessIS0_EEC2IS3_vEEv(%"class.std::priority_queue"* %0) unnamed_addr #4 comdat align 2 {
  %2 = getelementptr inbounds %"class.std::priority_queue", %"class.std::priority_queue"* %0, i32 0, i32 0
  call void @_ZNSt6vectorI4nodeSaIS0_EEC2Ev(%"class.std::vector.3"* %2) #3
  %3 = getelementptr inbounds %"class.std::priority_queue", %"class.std::priority_queue"* %0, i32 0, i32 1
  ret void
}

; Function Attrs: noinline uwtable
define linkonce_odr void @_ZNSt14priority_queueI4nodeSt6vectorIS0_SaIS0_EESt4lessIS0_EE4pushEOS0_(%"class.std::priority_queue"* %0, %struct.node* dereferenceable(48) %1) #0 comdat align 2 {
  %3 = alloca %"class.__gnu_cxx::__normal_iterator.9", align 8
  %4 = alloca %"class.__gnu_cxx::__normal_iterator.9", align 8
  %5 = getelementptr inbounds %"class.std::priority_queue", %"class.std::priority_queue"* %0, i32 0, i32 0
  %6 = call dereferenceable(48) %struct.node* @_ZSt4moveIR4nodeEONSt16remove_referenceIT_E4typeEOS3_(%struct.node* dereferenceable(48) %1) #3
  call void @_ZNSt6vectorI4nodeSaIS0_EE9push_backEOS0_(%"class.std::vector.3"* %5, %struct.node* dereferenceable(48) %6)
  %7 = getelementptr inbounds %"class.std::priority_queue", %"class.std::priority_queue"* %0, i32 0, i32 0
  %8 = call %struct.node* @_ZNSt6vectorI4nodeSaIS0_EE5beginEv(%"class.std::vector.3"* %7) #3
  %9 = getelementptr inbounds %"class.__gnu_cxx::__normal_iterator.9", %"class.__gnu_cxx::__normal_iterator.9"* %3, i32 0, i32 0
  store %struct.node* %8, %struct.node** %9, align 8
  %10 = getelementptr inbounds %"class.std::priority_queue", %"class.std::priority_queue"* %0, i32 0, i32 0
  %11 = call %struct.node* @_ZNSt6vectorI4nodeSaIS0_EE3endEv(%"class.std::vector.3"* %10) #3
  %12 = getelementptr inbounds %"class.__gnu_cxx::__normal_iterator.9", %"class.__gnu_cxx::__normal_iterator.9"* %4, i32 0, i32 0
  store %struct.node* %11, %struct.node** %12, align 8
  %13 = getelementptr inbounds %"class.std::priority_queue", %"class.std::priority_queue"* %0, i32 0, i32 1
  %14 = getelementptr inbounds %"class.__gnu_cxx::__normal_iterator.9", %"class.__gnu_cxx::__normal_iterator.9"* %3, i32 0, i32 0
  %15 = load %struct.node*, %struct.node** %14, align 8
  %16 = getelementptr inbounds %"class.__gnu_cxx::__normal_iterator.9", %"class.__gnu_cxx::__normal_iterator.9"* %4, i32 0, i32 0
  %17 = load %struct.node*, %struct.node** %16, align 8
  call void @_ZSt9push_heapIN9__gnu_cxx17__normal_iteratorIP4nodeSt6vectorIS2_SaIS2_EEEESt4lessIS2_EEvT_SA_T0_(%struct.node* %15, %struct.node* %17)
  ret void
}

; Function Attrs: nounwind
declare void @_ZNSaIcEC1Ev(%"class.std::allocator.0"*) unnamed_addr #2

declare void @_ZNSt7__cxx1112basic_stringIcSt11char_traitsIcESaIcEEC1EmcRKS3_(%"class.std::__cxx11::basic_string"*, i64, i8 signext, %"class.std::allocator.0"* dereferenceable(1)) unnamed_addr #1

declare i32 @__gxx_personality_v0(...)

; Function Attrs: noinline uwtable
define linkonce_odr void @_ZN4nodeC2EiixNSt7__cxx1112basic_stringIcSt11char_traitsIcESaIcEEE(%struct.node* %0, i32 %1, i32 %2, i64 %3, %"class.std::__cxx11::basic_string"* %4) unnamed_addr #0 comdat align 2 {
  %6 = getelementptr inbounds %struct.node, %struct.node* %0, i32 0, i32 0
  store i32 %1, i32* %6, align 8
  %7 = getelementptr inbounds %struct.node, %struct.node* %0, i32 0, i32 1
  store i32 %2, i32* %7, align 4
  %8 = getelementptr inbounds %struct.node, %struct.node* %0, i32 0, i32 2
  store i64 %3, i64* %8, align 8
  %9 = getelementptr inbounds %struct.node, %struct.node* %0, i32 0, i32 3
  call void @_ZNSt7__cxx1112basic_stringIcSt11char_traitsIcESaIcEEC1ERKS4_(%"class.std::__cxx11::basic_string"* %9, %"class.std::__cxx11::basic_string"* dereferenceable(32) %4)
  ret void
}

; Function Attrs: noinline nounwind uwtable
define linkonce_odr void @_ZN4nodeD2Ev(%struct.node* %0) unnamed_addr #4 comdat align 2 {
  %2 = getelementptr inbounds %struct.node, %struct.node* %0, i32 0, i32 3
  call void @_ZNSt7__cxx1112basic_stringIcSt11char_traitsIcESaIcEED1Ev(%"class.std::__cxx11::basic_string"* %2) #3
  ret void
}

; Function Attrs: nounwind
declare void @_ZNSt7__cxx1112basic_stringIcSt11char_traitsIcESaIcEED1Ev(%"class.std::__cxx11::basic_string"*) unnamed_addr #2

; Function Attrs: nounwind
declare void @_ZNSaIcED1Ev(%"class.std::allocator.0"*) unnamed_addr #2

; Function Attrs: noinline nounwind uwtable
define linkonce_odr zeroext i1 @_ZNKSt14priority_queueI4nodeSt6vectorIS0_SaIS0_EESt4lessIS0_EE5emptyEv(%"class.std::priority_queue"* %0) #4 comdat align 2 {
  %2 = getelementptr inbounds %"class.std::priority_queue", %"class.std::priority_queue"* %0, i32 0, i32 0
  %3 = call zeroext i1 @_ZNKSt6vectorI4nodeSaIS0_EE5emptyEv(%"class.std::vector.3"* %2) #3
  ret i1 %3
}

; Function Attrs: noinline nounwind uwtable
define linkonce_odr dereferenceable(48) %struct.node* @_ZNKSt14priority_queueI4nodeSt6vectorIS0_SaIS0_EESt4lessIS0_EE3topEv(%"class.std::priority_queue"* %0) #4 comdat align 2 {
  %2 = getelementptr inbounds %"class.std::priority_queue", %"class.std::priority_queue"* %0, i32 0, i32 0
  %3 = call dereferenceable(48) %struct.node* @_ZNKSt6vectorI4nodeSaIS0_EE5frontEv(%"class.std::vector.3"* %2) #3
  ret %struct.node* %3
}

; Function Attrs: noinline uwtable
define linkonce_odr void @_ZN4nodeC2ERKS_(%struct.node* %0, %struct.node* dereferenceable(48) %1) unnamed_addr #0 comdat align 2 {
  %3 = getelementptr inbounds %struct.node, %struct.node* %0, i32 0, i32 0
  %4 = getelementptr inbounds %struct.node, %struct.node* %1, i32 0, i32 0
  %5 = bitcast i32* %3 to i8*
  %6 = bitcast i32* %4 to i8*
  call void @llvm.memcpy.p0i8.p0i8.i64(i8* align 8 %5, i8* align 8 %6, i64 16, i1 false)
  %7 = getelementptr inbounds %struct.node, %struct.node* %0, i32 0, i32 3
  %8 = getelementptr inbounds %struct.node, %struct.node* %1, i32 0, i32 3
  call void @_ZNSt7__cxx1112basic_stringIcSt11char_traitsIcESaIcEEC1ERKS4_(%"class.std::__cxx11::basic_string"* %7, %"class.std::__cxx11::basic_string"* dereferenceable(32) %8)
  ret void
}

; Function Attrs: noinline uwtable
define linkonce_odr void @_ZNSt14priority_queueI4nodeSt6vectorIS0_SaIS0_EESt4lessIS0_EE3popEv(%"class.std::priority_queue"* %0) #0 comdat align 2 {
  %2 = alloca %"class.__gnu_cxx::__normal_iterator.9", align 8
  %3 = alloca %"class.__gnu_cxx::__normal_iterator.9", align 8
  %4 = getelementptr inbounds %"class.std::priority_queue", %"class.std::priority_queue"* %0, i32 0, i32 0
  %5 = call %struct.node* @_ZNSt6vectorI4nodeSaIS0_EE5beginEv(%"class.std::vector.3"* %4) #3
  %6 = getelementptr inbounds %"class.__gnu_cxx::__normal_iterator.9", %"class.__gnu_cxx::__normal_iterator.9"* %2, i32 0, i32 0
  store %struct.node* %5, %struct.node** %6, align 8
  %7 = getelementptr inbounds %"class.std::priority_queue", %"class.std::priority_queue"* %0, i32 0, i32 0
  %8 = call %struct.node* @_ZNSt6vectorI4nodeSaIS0_EE3endEv(%"class.std::vector.3"* %7) #3
  %9 = getelementptr inbounds %"class.__gnu_cxx::__normal_iterator.9", %"class.__gnu_cxx::__normal_iterator.9"* %3, i32 0, i32 0
  store %struct.node* %8, %struct.node** %9, align 8
  %10 = getelementptr inbounds %"class.std::priority_queue", %"class.std::priority_queue"* %0, i32 0, i32 1
  %11 = getelementptr inbounds %"class.__gnu_cxx::__normal_iterator.9", %"class.__gnu_cxx::__normal_iterator.9"* %2, i32 0, i32 0
  %12 = load %struct.node*, %struct.node** %11, align 8
  %13 = getelementptr inbounds %"class.__gnu_cxx::__normal_iterator.9", %"class.__gnu_cxx::__normal_iterator.9"* %3, i32 0, i32 0
  %14 = load %struct.node*, %struct.node** %13, align 8
  call void @_ZSt8pop_heapIN9__gnu_cxx17__normal_iteratorIP4nodeSt6vectorIS2_SaIS2_EEEESt4lessIS2_EEvT_SA_T0_(%struct.node* %12, %struct.node* %14)
  %15 = getelementptr inbounds %"class.std::priority_queue", %"class.std::priority_queue"* %0, i32 0, i32 0
  call void @_ZNSt6vectorI4nodeSaIS0_EE8pop_backEv(%"class.std::vector.3"* %15) #3
  ret void
}

; Function Attrs: noinline nounwind uwtable
define linkonce_odr i64 @_ZNKSt6vectorI4nodeSaIS0_EE4sizeEv(%"class.std::vector.3"* %0) #4 comdat align 2 {
  %2 = bitcast %"class.std::vector.3"* %0 to %"struct.std::_Vector_base.4"*
  %3 = getelementptr inbounds %"struct.std::_Vector_base.4", %"struct.std::_Vector_base.4"* %2, i32 0, i32 0
  %4 = getelementptr inbounds %"struct.std::_Vector_base<node, std::allocator<node> >::_Vector_impl", %"struct.std::_Vector_base<node, std::allocator<node> >::_Vector_impl"* %3, i32 0, i32 1
  %5 = load %struct.node*, %struct.node** %4, align 8
  %6 = bitcast %"class.std::vector.3"* %0 to %"struct.std::_Vector_base.4"*
  %7 = getelementptr inbounds %"struct.std::_Vector_base.4", %"struct.std::_Vector_base.4"* %6, i32 0, i32 0
  %8 = getelementptr inbounds %"struct.std::_Vector_base<node, std::allocator<node> >::_Vector_impl", %"struct.std::_Vector_base<node, std::allocator<node> >::_Vector_impl"* %7, i32 0, i32 0
  %9 = load %struct.node*, %struct.node** %8, align 8
  %10 = ptrtoint %struct.node* %5 to i64
  %11 = ptrtoint %struct.node* %9 to i64
  %12 = sub i64 %10, %11
  %13 = sdiv exact i64 %12, 48
  ret i64 %13
}

; Function Attrs: noinline uwtable
define linkonce_odr void @_ZNSt6vectorI4nodeSaIS0_EE9push_backERKS0_(%"class.std::vector.3"* %0, %struct.node* dereferenceable(48) %1) #0 comdat align 2 {
  %3 = alloca %"class.__gnu_cxx::__normal_iterator.9", align 8
  %4 = bitcast %"class.std::vector.3"* %0 to %"struct.std::_Vector_base.4"*
  %5 = getelementptr inbounds %"struct.std::_Vector_base.4", %"struct.std::_Vector_base.4"* %4, i32 0, i32 0
  %6 = getelementptr inbounds %"struct.std::_Vector_base<node, std::allocator<node> >::_Vector_impl", %"struct.std::_Vector_base<node, std::allocator<node> >::_Vector_impl"* %5, i32 0, i32 1
  %7 = load %struct.node*, %struct.node** %6, align 8
  %8 = bitcast %"class.std::vector.3"* %0 to %"struct.std::_Vector_base.4"*
  %9 = getelementptr inbounds %"struct.std::_Vector_base.4", %"struct.std::_Vector_base.4"* %8, i32 0, i32 0
  %10 = getelementptr inbounds %"struct.std::_Vector_base<node, std::allocator<node> >::_Vector_impl", %"struct.std::_Vector_base<node, std::allocator<node> >::_Vector_impl"* %9, i32 0, i32 2
  %11 = load %struct.node*, %struct.node** %10, align 8
  %12 = icmp ne %struct.node* %7, %11
  br i1 %12, label %13, label %26

13:                                               ; preds = %2
  %14 = bitcast %"class.std::vector.3"* %0 to %"struct.std::_Vector_base.4"*
  %15 = getelementptr inbounds %"struct.std::_Vector_base.4", %"struct.std::_Vector_base.4"* %14, i32 0, i32 0
  %16 = bitcast %"struct.std::_Vector_base<node, std::allocator<node> >::_Vector_impl"* %15 to %"class.std::allocator.5"*
  %17 = bitcast %"class.std::vector.3"* %0 to %"struct.std::_Vector_base.4"*
  %18 = getelementptr inbounds %"struct.std::_Vector_base.4", %"struct.std::_Vector_base.4"* %17, i32 0, i32 0
  %19 = getelementptr inbounds %"struct.std::_Vector_base<node, std::allocator<node> >::_Vector_impl", %"struct.std::_Vector_base<node, std::allocator<node> >::_Vector_impl"* %18, i32 0, i32 1
  %20 = load %struct.node*, %struct.node** %19, align 8
  call void @_ZNSt16allocator_traitsISaI4nodeEE9constructIS0_JRKS0_EEEvRS1_PT_DpOT0_(%"class.std::allocator.5"* dereferenceable(1) %16, %struct.node* %20, %struct.node* dereferenceable(48) %1)
  %21 = bitcast %"class.std::vector.3"* %0 to %"struct.std::_Vector_base.4"*
  %22 = getelementptr inbounds %"struct.std::_Vector_base.4", %"struct.std::_Vector_base.4"* %21, i32 0, i32 0
  %23 = getelementptr inbounds %"struct.std::_Vector_base<node, std::allocator<node> >::_Vector_impl", %"struct.std::_Vector_base<node, std::allocator<node> >::_Vector_impl"* %22, i32 0, i32 1
  %24 = load %struct.node*, %struct.node** %23, align 8
  %25 = getelementptr inbounds %struct.node, %struct.node* %24, i32 1
  store %struct.node* %25, %struct.node** %23, align 8
  br label %31

26:                                               ; preds = %2
  %27 = call %struct.node* @_ZNSt6vectorI4nodeSaIS0_EE3endEv(%"class.std::vector.3"* %0) #3
  %28 = getelementptr inbounds %"class.__gnu_cxx::__normal_iterator.9", %"class.__gnu_cxx::__normal_iterator.9"* %3, i32 0, i32 0
  store %struct.node* %27, %struct.node** %28, align 8
  %29 = getelementptr inbounds %"class.__gnu_cxx::__normal_iterator.9", %"class.__gnu_cxx::__normal_iterator.9"* %3, i32 0, i32 0
  %30 = load %struct.node*, %struct.node** %29, align 8
  call void @_ZNSt6vectorI4nodeSaIS0_EE17_M_realloc_insertIJRKS0_EEEvN9__gnu_cxx17__normal_iteratorIPS0_S2_EEDpOT_(%"class.std::vector.3"* %0, %struct.node* %30, %struct.node* dereferenceable(48) %1)
  br label %31

31:                                               ; preds = %26, %13
  ret void
}

; Function Attrs: noinline nounwind uwtable
define linkonce_odr %struct.edge* @_ZNSt6vectorI4edgeSaIS0_EE5beginEv(%"class.std::vector"* %0) #4 comdat align 2 {
  %2 = alloca %"class.__gnu_cxx::__normal_iterator.8", align 8
  %3 = bitcast %"class.std::vector"* %0 to %"struct.std::_Vector_base"*
  %4 = getelementptr inbounds %"struct.std::_Vector_base", %"struct.std::_Vector_base"* %3, i32 0, i32 0
  %5 = getelementptr inbounds %"struct.std::_Vector_base<edge, std::allocator<edge> >::_Vector_impl", %"struct.std::_Vector_base<edge, std::allocator<edge> >::_Vector_impl"* %4, i32 0, i32 0
  call void @_ZN9__gnu_cxx17__normal_iteratorIP4edgeSt6vectorIS1_SaIS1_EEEC2ERKS2_(%"class.__gnu_cxx::__normal_iterator.8"* %2, %struct.edge** dereferenceable(8) %5) #3
  %6 = getelementptr inbounds %"class.__gnu_cxx::__normal_iterator.8", %"class.__gnu_cxx::__normal_iterator.8"* %2, i32 0, i32 0
  %7 = load %struct.edge*, %struct.edge** %6, align 8
  ret %struct.edge* %7
}

; Function Attrs: noinline nounwind uwtable
define linkonce_odr zeroext i1 @_ZN9__gnu_cxxneIP4edgeSt6vectorIS1_SaIS1_EEEEbRKNS_17__normal_iteratorIT_T0_EESB_(%"class.__gnu_cxx::__normal_iterator.8"* dereferenceable(8) %0, %"class.__gnu_cxx::__normal_iterator.8"* dereferenceable(8) %1) #4 comdat {
  %3 = call dereferenceable(8) %struct.edge** @_ZNK9__gnu_cxx17__normal_iteratorIP4edgeSt6vectorIS1_SaIS1_EEE4baseEv(%"class.__gnu_cxx::__normal_iterator.8"* %0) #3
  %4 = load %struct.edge*, %struct.edge** %3, align 8
  %5 = call dereferenceable(8) %struct.edge** @_ZNK9__gnu_cxx17__normal_iteratorIP4edgeSt6vectorIS1_SaIS1_EEE4baseEv(%"class.__gnu_cxx::__normal_iterator.8"* %1) #3
  %6 = load %struct.edge*, %struct.edge** %5, align 8
  %7 = icmp ne %struct.edge* %4, %6
  ret i1 %7
}

; Function Attrs: noinline nounwind uwtable
define linkonce_odr %struct.edge* @_ZNSt6vectorI4edgeSaIS0_EE3endEv(%"class.std::vector"* %0) #4 comdat align 2 {
  %2 = alloca %"class.__gnu_cxx::__normal_iterator.8", align 8
  %3 = bitcast %"class.std::vector"* %0 to %"struct.std::_Vector_base"*
  %4 = getelementptr inbounds %"struct.std::_Vector_base", %"struct.std::_Vector_base"* %3, i32 0, i32 0
  %5 = getelementptr inbounds %"struct.std::_Vector_base<edge, std::allocator<edge> >::_Vector_impl", %"struct.std::_Vector_base<edge, std::allocator<edge> >::_Vector_impl"* %4, i32 0, i32 1
  call void @_ZN9__gnu_cxx17__normal_iteratorIP4edgeSt6vectorIS1_SaIS1_EEEC2ERKS2_(%"class.__gnu_cxx::__normal_iterator.8"* %2, %struct.edge** dereferenceable(8) %5) #3
  %6 = getelementptr inbounds %"class.__gnu_cxx::__normal_iterator.8", %"class.__gnu_cxx::__normal_iterator.8"* %2, i32 0, i32 0
  %7 = load %struct.edge*, %struct.edge** %6, align 8
  ret %struct.edge* %7
}

; Function Attrs: noinline nounwind uwtable
define linkonce_odr %struct.edge* @_ZNK9__gnu_cxx17__normal_iteratorIP4edgeSt6vectorIS1_SaIS1_EEEptEv(%"class.__gnu_cxx::__normal_iterator.8"* %0) #4 comdat align 2 {
  %2 = getelementptr inbounds %"class.__gnu_cxx::__normal_iterator.8", %"class.__gnu_cxx::__normal_iterator.8"* %0, i32 0, i32 0
  %3 = load %struct.edge*, %struct.edge** %2, align 8
  ret %struct.edge* %3
}

declare void @_ZNSt7__cxx1112basic_stringIcSt11char_traitsIcESaIcEEC1ERKS4_(%"class.std::__cxx11::basic_string"*, %"class.std::__cxx11::basic_string"* dereferenceable(32)) unnamed_addr #1

declare void @_ZNSt7__cxx1112basic_stringIcSt11char_traitsIcESaIcEE9push_backEc(%"class.std::__cxx11::basic_string"*, i8 signext) #1

; Function Attrs: noinline nounwind uwtable
define linkonce_odr %struct.edge* @_ZN9__gnu_cxx17__normal_iteratorIP4edgeSt6vectorIS1_SaIS1_EEEppEi(%"class.__gnu_cxx::__normal_iterator.8"* %0, i32 %1) #4 comdat align 2 {
  %3 = alloca %"class.__gnu_cxx::__normal_iterator.8", align 8
  %4 = alloca %struct.edge*, align 8
  %5 = getelementptr inbounds %"class.__gnu_cxx::__normal_iterator.8", %"class.__gnu_cxx::__normal_iterator.8"* %0, i32 0, i32 0
  %6 = load %struct.edge*, %struct.edge** %5, align 8
  %7 = getelementptr inbounds %struct.edge, %struct.edge* %6, i32 1
  store %struct.edge* %7, %struct.edge** %5, align 8
  store %struct.edge* %6, %struct.edge** %4, align 8
  call void @_ZN9__gnu_cxx17__normal_iteratorIP4edgeSt6vectorIS1_SaIS1_EEEC2ERKS2_(%"class.__gnu_cxx::__normal_iterator.8"* %3, %struct.edge** dereferenceable(8) %4) #3
  %8 = getelementptr inbounds %"class.__gnu_cxx::__normal_iterator.8", %"class.__gnu_cxx::__normal_iterator.8"* %3, i32 0, i32 0
  %9 = load %struct.edge*, %struct.edge** %8, align 8
  ret %struct.edge* %9
}

; Function Attrs: noinline nounwind uwtable
define linkonce_odr dereferenceable(48) %struct.node* @_ZNSt6vectorI4nodeSaIS0_EEixEm(%"class.std::vector.3"* %0, i64 %1) #4 comdat align 2 {
  %3 = bitcast %"class.std::vector.3"* %0 to %"struct.std::_Vector_base.4"*
  %4 = getelementptr inbounds %"struct.std::_Vector_base.4", %"struct.std::_Vector_base.4"* %3, i32 0, i32 0
  %5 = getelementptr inbounds %"struct.std::_Vector_base<node, std::allocator<node> >::_Vector_impl", %"struct.std::_Vector_base<node, std::allocator<node> >::_Vector_impl"* %4, i32 0, i32 0
  %6 = load %struct.node*, %struct.node** %5, align 8
  %7 = getelementptr inbounds %struct.node, %struct.node* %6, i64 %1
  ret %struct.node* %7
}

declare dereferenceable(272) %"class.std::basic_ostream"* @_ZStlsISt11char_traitsIcEERSt13basic_ostreamIcT_ES5_PKc(%"class.std::basic_ostream"* dereferenceable(272), i8*) #1

; Function Attrs: noinline nounwind uwtable
define linkonce_odr void @_ZNSt14priority_queueI4nodeSt6vectorIS0_SaIS0_EESt4lessIS0_EED2Ev(%"class.std::priority_queue"* %0) unnamed_addr #4 comdat align 2 {
  %2 = getelementptr inbounds %"class.std::priority_queue", %"class.std::priority_queue"* %0, i32 0, i32 0
  call void @_ZNSt6vectorI4nodeSaIS0_EED2Ev(%"class.std::vector.3"* %2) #3
  ret void
}

; Function Attrs: noinline uwtable
define linkonce_odr void @_ZNSt12_Vector_baseI4edgeSaIS0_EEC2Ev(%"struct.std::_Vector_base"* %0) unnamed_addr #0 comdat align 2 {
  %2 = getelementptr inbounds %"struct.std::_Vector_base", %"struct.std::_Vector_base"* %0, i32 0, i32 0
  call void @_ZNSt12_Vector_baseI4edgeSaIS0_EE12_Vector_implC2Ev(%"struct.std::_Vector_base<edge, std::allocator<edge> >::_Vector_impl"* %2)
  ret void
}

; Function Attrs: noinline noreturn nounwind
define linkonce_odr hidden void @__clang_call_terminate(i8* %0) #6 comdat {
  %2 = call i8* @__cxa_begin_catch(i8* %0) #3
  call void @_ZSt9terminatev() #12
  unreachable
}

declare i8* @__cxa_begin_catch(i8*)

declare void @_ZSt9terminatev()

; Function Attrs: noinline nounwind uwtable
define linkonce_odr void @_ZNSt12_Vector_baseI4edgeSaIS0_EE12_Vector_implC2Ev(%"struct.std::_Vector_base<edge, std::allocator<edge> >::_Vector_impl"* %0) unnamed_addr #4 comdat align 2 {
  %2 = bitcast %"struct.std::_Vector_base<edge, std::allocator<edge> >::_Vector_impl"* %0 to %"class.std::allocator"*
  call void @_ZNSaI4edgeEC2Ev(%"class.std::allocator"* %2) #3
  %3 = getelementptr inbounds %"struct.std::_Vector_base<edge, std::allocator<edge> >::_Vector_impl", %"struct.std::_Vector_base<edge, std::allocator<edge> >::_Vector_impl"* %0, i32 0, i32 0
  store %struct.edge* null, %struct.edge** %3, align 8
  %4 = getelementptr inbounds %"struct.std::_Vector_base<edge, std::allocator<edge> >::_Vector_impl", %"struct.std::_Vector_base<edge, std::allocator<edge> >::_Vector_impl"* %0, i32 0, i32 1
  store %struct.edge* null, %struct.edge** %4, align 8
  %5 = getelementptr inbounds %"struct.std::_Vector_base<edge, std::allocator<edge> >::_Vector_impl", %"struct.std::_Vector_base<edge, std::allocator<edge> >::_Vector_impl"* %0, i32 0, i32 2
  store %struct.edge* null, %struct.edge** %5, align 8
  ret void
}

; Function Attrs: noinline nounwind uwtable
define linkonce_odr void @_ZNSaI4edgeEC2Ev(%"class.std::allocator"* %0) unnamed_addr #4 comdat align 2 {
  %2 = bitcast %"class.std::allocator"* %0 to %"class.__gnu_cxx::new_allocator"*
  call void @_ZN9__gnu_cxx13new_allocatorI4edgeEC2Ev(%"class.__gnu_cxx::new_allocator"* %2) #3
  ret void
}

; Function Attrs: noinline nounwind uwtable
define linkonce_odr void @_ZN9__gnu_cxx13new_allocatorI4edgeEC2Ev(%"class.__gnu_cxx::new_allocator"* %0) unnamed_addr #4 comdat align 2 {
  ret void
}

; Function Attrs: noinline uwtable
define linkonce_odr void @_ZSt8_DestroyIP4edgeS0_EvT_S2_RSaIT0_E(%struct.edge* %0, %struct.edge* %1, %"class.std::allocator"* dereferenceable(1) %2) #0 comdat {
  call void @_ZSt8_DestroyIP4edgeEvT_S2_(%struct.edge* %0, %struct.edge* %1)
  ret void
}

; Function Attrs: noinline nounwind uwtable
define linkonce_odr dereferenceable(1) %"class.std::allocator"* @_ZNSt12_Vector_baseI4edgeSaIS0_EE19_M_get_Tp_allocatorEv(%"struct.std::_Vector_base"* %0) #4 comdat align 2 {
  %2 = getelementptr inbounds %"struct.std::_Vector_base", %"struct.std::_Vector_base"* %0, i32 0, i32 0
  %3 = bitcast %"struct.std::_Vector_base<edge, std::allocator<edge> >::_Vector_impl"* %2 to %"class.std::allocator"*
  ret %"class.std::allocator"* %3
}

; Function Attrs: noinline nounwind uwtable
define linkonce_odr void @_ZNSt12_Vector_baseI4edgeSaIS0_EED2Ev(%"struct.std::_Vector_base"* %0) unnamed_addr #4 comdat align 2 personality i8* bitcast (i32 (...)* @__gxx_personality_v0 to i8*) {
  %2 = getelementptr inbounds %"struct.std::_Vector_base", %"struct.std::_Vector_base"* %0, i32 0, i32 0
  %3 = getelementptr inbounds %"struct.std::_Vector_base<edge, std::allocator<edge> >::_Vector_impl", %"struct.std::_Vector_base<edge, std::allocator<edge> >::_Vector_impl"* %2, i32 0, i32 0
  %4 = load %struct.edge*, %struct.edge** %3, align 8
  %5 = getelementptr inbounds %"struct.std::_Vector_base", %"struct.std::_Vector_base"* %0, i32 0, i32 0
  %6 = getelementptr inbounds %"struct.std::_Vector_base<edge, std::allocator<edge> >::_Vector_impl", %"struct.std::_Vector_base<edge, std::allocator<edge> >::_Vector_impl"* %5, i32 0, i32 2
  %7 = load %struct.edge*, %struct.edge** %6, align 8
  %8 = getelementptr inbounds %"struct.std::_Vector_base", %"struct.std::_Vector_base"* %0, i32 0, i32 0
  %9 = getelementptr inbounds %"struct.std::_Vector_base<edge, std::allocator<edge> >::_Vector_impl", %"struct.std::_Vector_base<edge, std::allocator<edge> >::_Vector_impl"* %8, i32 0, i32 0
  %10 = load %struct.edge*, %struct.edge** %9, align 8
  %11 = ptrtoint %struct.edge* %7 to i64
  %12 = ptrtoint %struct.edge* %10 to i64
  %13 = sub i64 %11, %12
  %14 = sdiv exact i64 %13, 8
  invoke void @_ZNSt12_Vector_baseI4edgeSaIS0_EE13_M_deallocateEPS0_m(%"struct.std::_Vector_base"* %0, %struct.edge* %4, i64 %14)
          to label %15 unwind label %17

15:                                               ; preds = %1
  %16 = getelementptr inbounds %"struct.std::_Vector_base", %"struct.std::_Vector_base"* %0, i32 0, i32 0
  call void @_ZNSt12_Vector_baseI4edgeSaIS0_EE12_Vector_implD2Ev(%"struct.std::_Vector_base<edge, std::allocator<edge> >::_Vector_impl"* %16) #3
  ret void

17:                                               ; preds = %1
  %18 = landingpad { i8*, i32 }
          catch i8* null
  %19 = extractvalue { i8*, i32 } %18, 0
  %20 = extractvalue { i8*, i32 } %18, 1
  %21 = getelementptr inbounds %"struct.std::_Vector_base", %"struct.std::_Vector_base"* %0, i32 0, i32 0
  call void @_ZNSt12_Vector_baseI4edgeSaIS0_EE12_Vector_implD2Ev(%"struct.std::_Vector_base<edge, std::allocator<edge> >::_Vector_impl"* %21) #3
  br label %22

22:                                               ; preds = %17
  call void @__clang_call_terminate(i8* %19) #12
  unreachable
}

; Function Attrs: noinline uwtable
define linkonce_odr void @_ZSt8_DestroyIP4edgeEvT_S2_(%struct.edge* %0, %struct.edge* %1) #0 comdat {
  call void @_ZNSt12_Destroy_auxILb1EE9__destroyIP4edgeEEvT_S4_(%struct.edge* %0, %struct.edge* %1)
  ret void
}

; Function Attrs: noinline nounwind uwtable
define linkonce_odr void @_ZNSt12_Destroy_auxILb1EE9__destroyIP4edgeEEvT_S4_(%struct.edge* %0, %struct.edge* %1) #4 comdat align 2 {
  ret void
}

; Function Attrs: noinline uwtable
define linkonce_odr void @_ZNSt12_Vector_baseI4edgeSaIS0_EE13_M_deallocateEPS0_m(%"struct.std::_Vector_base"* %0, %struct.edge* %1, i64 %2) #0 comdat align 2 {
  %4 = icmp ne %struct.edge* %1, null
  br i1 %4, label %5, label %8

5:                                                ; preds = %3
  %6 = getelementptr inbounds %"struct.std::_Vector_base", %"struct.std::_Vector_base"* %0, i32 0, i32 0
  %7 = bitcast %"struct.std::_Vector_base<edge, std::allocator<edge> >::_Vector_impl"* %6 to %"class.std::allocator"*
  call void @_ZNSt16allocator_traitsISaI4edgeEE10deallocateERS1_PS0_m(%"class.std::allocator"* dereferenceable(1) %7, %struct.edge* %1, i64 %2)
  br label %8

8:                                                ; preds = %5, %3
  ret void
}

; Function Attrs: noinline nounwind uwtable
define linkonce_odr void @_ZNSt12_Vector_baseI4edgeSaIS0_EE12_Vector_implD2Ev(%"struct.std::_Vector_base<edge, std::allocator<edge> >::_Vector_impl"* %0) unnamed_addr #4 comdat align 2 {
  %2 = bitcast %"struct.std::_Vector_base<edge, std::allocator<edge> >::_Vector_impl"* %0 to %"class.std::allocator"*
  call void @_ZNSaI4edgeED2Ev(%"class.std::allocator"* %2) #3
  ret void
}

; Function Attrs: noinline uwtable
define linkonce_odr void @_ZNSt16allocator_traitsISaI4edgeEE10deallocateERS1_PS0_m(%"class.std::allocator"* dereferenceable(1) %0, %struct.edge* %1, i64 %2) #0 comdat align 2 {
  %4 = bitcast %"class.std::allocator"* %0 to %"class.__gnu_cxx::new_allocator"*
  call void @_ZN9__gnu_cxx13new_allocatorI4edgeE10deallocateEPS1_m(%"class.__gnu_cxx::new_allocator"* %4, %struct.edge* %1, i64 %2)
  ret void
}

; Function Attrs: noinline nounwind uwtable
define linkonce_odr void @_ZN9__gnu_cxx13new_allocatorI4edgeE10deallocateEPS1_m(%"class.__gnu_cxx::new_allocator"* %0, %struct.edge* %1, i64 %2) #4 comdat align 2 {
  %4 = bitcast %struct.edge* %1 to i8*
  call void @_ZdlPv(i8* %4) #3
  ret void
}

; Function Attrs: nobuiltin nounwind
declare void @_ZdlPv(i8*) #7

; Function Attrs: noinline nounwind uwtable
define linkonce_odr void @_ZNSaI4edgeED2Ev(%"class.std::allocator"* %0) unnamed_addr #4 comdat align 2 {
  %2 = bitcast %"class.std::allocator"* %0 to %"class.__gnu_cxx::new_allocator"*
  call void @_ZN9__gnu_cxx13new_allocatorI4edgeED2Ev(%"class.__gnu_cxx::new_allocator"* %2) #3
  ret void
}

; Function Attrs: noinline nounwind uwtable
define linkonce_odr void @_ZN9__gnu_cxx13new_allocatorI4edgeED2Ev(%"class.__gnu_cxx::new_allocator"* %0) unnamed_addr #4 comdat align 2 {
  ret void
}

; Function Attrs: noinline nounwind uwtable
define linkonce_odr dereferenceable(8) i8** @_ZNK9__gnu_cxx17__normal_iteratorIPcNSt7__cxx1112basic_stringIcSt11char_traitsIcESaIcEEEE4baseEv(%"class.__gnu_cxx::__normal_iterator"* %0) #4 comdat align 2 {
  %2 = getelementptr inbounds %"class.__gnu_cxx::__normal_iterator", %"class.__gnu_cxx::__normal_iterator"* %0, i32 0, i32 0
  ret i8** %2
}

; Function Attrs: noinline nounwind uwtable
define linkonce_odr void @_ZN9__gnu_cxx17__normal_iteratorIPcNSt7__cxx1112basic_stringIcSt11char_traitsIcESaIcEEEEC2ERKS1_(%"class.__gnu_cxx::__normal_iterator"* %0, i8** dereferenceable(8) %1) unnamed_addr #4 comdat align 2 {
  %3 = getelementptr inbounds %"class.__gnu_cxx::__normal_iterator", %"class.__gnu_cxx::__normal_iterator"* %0, i32 0, i32 0
  %4 = load i8*, i8** %1, align 8
  store i8* %4, i8** %3, align 8
  ret void
}

; Function Attrs: noinline uwtable
define linkonce_odr void @_ZNSt12_Vector_baseI4nodeSaIS0_EEC2Ev(%"struct.std::_Vector_base.4"* %0) unnamed_addr #0 comdat align 2 {
  %2 = getelementptr inbounds %"struct.std::_Vector_base.4", %"struct.std::_Vector_base.4"* %0, i32 0, i32 0
  call void @_ZNSt12_Vector_baseI4nodeSaIS0_EE12_Vector_implC2Ev(%"struct.std::_Vector_base<node, std::allocator<node> >::_Vector_impl"* %2)
  ret void
}

; Function Attrs: noinline nounwind uwtable
define linkonce_odr void @_ZNSt12_Vector_baseI4nodeSaIS0_EE12_Vector_implC2Ev(%"struct.std::_Vector_base<node, std::allocator<node> >::_Vector_impl"* %0) unnamed_addr #4 comdat align 2 {
  %2 = bitcast %"struct.std::_Vector_base<node, std::allocator<node> >::_Vector_impl"* %0 to %"class.std::allocator.5"*
  call void @_ZNSaI4nodeEC2Ev(%"class.std::allocator.5"* %2) #3
  %3 = getelementptr inbounds %"struct.std::_Vector_base<node, std::allocator<node> >::_Vector_impl", %"struct.std::_Vector_base<node, std::allocator<node> >::_Vector_impl"* %0, i32 0, i32 0
  store %struct.node* null, %struct.node** %3, align 8
  %4 = getelementptr inbounds %"struct.std::_Vector_base<node, std::allocator<node> >::_Vector_impl", %"struct.std::_Vector_base<node, std::allocator<node> >::_Vector_impl"* %0, i32 0, i32 1
  store %struct.node* null, %struct.node** %4, align 8
  %5 = getelementptr inbounds %"struct.std::_Vector_base<node, std::allocator<node> >::_Vector_impl", %"struct.std::_Vector_base<node, std::allocator<node> >::_Vector_impl"* %0, i32 0, i32 2
  store %struct.node* null, %struct.node** %5, align 8
  ret void
}

; Function Attrs: noinline nounwind uwtable
define linkonce_odr void @_ZNSaI4nodeEC2Ev(%"class.std::allocator.5"* %0) unnamed_addr #4 comdat align 2 {
  %2 = bitcast %"class.std::allocator.5"* %0 to %"class.__gnu_cxx::new_allocator.6"*
  call void @_ZN9__gnu_cxx13new_allocatorI4nodeEC2Ev(%"class.__gnu_cxx::new_allocator.6"* %2) #3
  ret void
}

; Function Attrs: noinline nounwind uwtable
define linkonce_odr void @_ZN9__gnu_cxx13new_allocatorI4nodeEC2Ev(%"class.__gnu_cxx::new_allocator.6"* %0) unnamed_addr #4 comdat align 2 {
  ret void
}

; Function Attrs: noinline uwtable
define linkonce_odr void @_ZSt8_DestroyIP4nodeS0_EvT_S2_RSaIT0_E(%struct.node* %0, %struct.node* %1, %"class.std::allocator.5"* dereferenceable(1) %2) #0 comdat {
  call void @_ZSt8_DestroyIP4nodeEvT_S2_(%struct.node* %0, %struct.node* %1)
  ret void
}

; Function Attrs: noinline nounwind uwtable
define linkonce_odr dereferenceable(1) %"class.std::allocator.5"* @_ZNSt12_Vector_baseI4nodeSaIS0_EE19_M_get_Tp_allocatorEv(%"struct.std::_Vector_base.4"* %0) #4 comdat align 2 {
  %2 = getelementptr inbounds %"struct.std::_Vector_base.4", %"struct.std::_Vector_base.4"* %0, i32 0, i32 0
  %3 = bitcast %"struct.std::_Vector_base<node, std::allocator<node> >::_Vector_impl"* %2 to %"class.std::allocator.5"*
  ret %"class.std::allocator.5"* %3
}

; Function Attrs: noinline nounwind uwtable
define linkonce_odr void @_ZNSt12_Vector_baseI4nodeSaIS0_EED2Ev(%"struct.std::_Vector_base.4"* %0) unnamed_addr #4 comdat align 2 personality i8* bitcast (i32 (...)* @__gxx_personality_v0 to i8*) {
  %2 = getelementptr inbounds %"struct.std::_Vector_base.4", %"struct.std::_Vector_base.4"* %0, i32 0, i32 0
  %3 = getelementptr inbounds %"struct.std::_Vector_base<node, std::allocator<node> >::_Vector_impl", %"struct.std::_Vector_base<node, std::allocator<node> >::_Vector_impl"* %2, i32 0, i32 0
  %4 = load %struct.node*, %struct.node** %3, align 8
  %5 = getelementptr inbounds %"struct.std::_Vector_base.4", %"struct.std::_Vector_base.4"* %0, i32 0, i32 0
  %6 = getelementptr inbounds %"struct.std::_Vector_base<node, std::allocator<node> >::_Vector_impl", %"struct.std::_Vector_base<node, std::allocator<node> >::_Vector_impl"* %5, i32 0, i32 2
  %7 = load %struct.node*, %struct.node** %6, align 8
  %8 = getelementptr inbounds %"struct.std::_Vector_base.4", %"struct.std::_Vector_base.4"* %0, i32 0, i32 0
  %9 = getelementptr inbounds %"struct.std::_Vector_base<node, std::allocator<node> >::_Vector_impl", %"struct.std::_Vector_base<node, std::allocator<node> >::_Vector_impl"* %8, i32 0, i32 0
  %10 = load %struct.node*, %struct.node** %9, align 8
  %11 = ptrtoint %struct.node* %7 to i64
  %12 = ptrtoint %struct.node* %10 to i64
  %13 = sub i64 %11, %12
  %14 = sdiv exact i64 %13, 48
  invoke void @_ZNSt12_Vector_baseI4nodeSaIS0_EE13_M_deallocateEPS0_m(%"struct.std::_Vector_base.4"* %0, %struct.node* %4, i64 %14)
          to label %15 unwind label %17

15:                                               ; preds = %1
  %16 = getelementptr inbounds %"struct.std::_Vector_base.4", %"struct.std::_Vector_base.4"* %0, i32 0, i32 0
  call void @_ZNSt12_Vector_baseI4nodeSaIS0_EE12_Vector_implD2Ev(%"struct.std::_Vector_base<node, std::allocator<node> >::_Vector_impl"* %16) #3
  ret void

17:                                               ; preds = %1
  %18 = landingpad { i8*, i32 }
          catch i8* null
  %19 = extractvalue { i8*, i32 } %18, 0
  %20 = extractvalue { i8*, i32 } %18, 1
  %21 = getelementptr inbounds %"struct.std::_Vector_base.4", %"struct.std::_Vector_base.4"* %0, i32 0, i32 0
  call void @_ZNSt12_Vector_baseI4nodeSaIS0_EE12_Vector_implD2Ev(%"struct.std::_Vector_base<node, std::allocator<node> >::_Vector_impl"* %21) #3
  br label %22

22:                                               ; preds = %17
  call void @__clang_call_terminate(i8* %19) #12
  unreachable
}

; Function Attrs: noinline uwtable
define linkonce_odr void @_ZSt8_DestroyIP4nodeEvT_S2_(%struct.node* %0, %struct.node* %1) #0 comdat {
  call void @_ZNSt12_Destroy_auxILb0EE9__destroyIP4nodeEEvT_S4_(%struct.node* %0, %struct.node* %1)
  ret void
}

; Function Attrs: noinline uwtable
define linkonce_odr void @_ZNSt12_Destroy_auxILb0EE9__destroyIP4nodeEEvT_S4_(%struct.node* %0, %struct.node* %1) #0 comdat align 2 {
  br label %3

3:                                                ; preds = %7, %2
  %.0 = phi %struct.node* [ %0, %2 ], [ %8, %7 ]
  %4 = icmp ne %struct.node* %.0, %1
  br i1 %4, label %5, label %9

5:                                                ; preds = %3
  %6 = call %struct.node* @_ZSt11__addressofI4nodeEPT_RS1_(%struct.node* dereferenceable(48) %.0) #3
  call void @_ZSt8_DestroyI4nodeEvPT_(%struct.node* %6)
  br label %7

7:                                                ; preds = %5
  %8 = getelementptr inbounds %struct.node, %struct.node* %.0, i32 1
  br label %3

9:                                                ; preds = %3
  ret void
}

; Function Attrs: noinline nounwind uwtable
define linkonce_odr void @_ZSt8_DestroyI4nodeEvPT_(%struct.node* %0) #4 comdat {
  call void @_ZN4nodeD2Ev(%struct.node* %0) #3
  ret void
}

; Function Attrs: noinline nounwind uwtable
define linkonce_odr %struct.node* @_ZSt11__addressofI4nodeEPT_RS1_(%struct.node* dereferenceable(48) %0) #4 comdat {
  ret %struct.node* %0
}

; Function Attrs: noinline uwtable
define linkonce_odr void @_ZNSt12_Vector_baseI4nodeSaIS0_EE13_M_deallocateEPS0_m(%"struct.std::_Vector_base.4"* %0, %struct.node* %1, i64 %2) #0 comdat align 2 {
  %4 = icmp ne %struct.node* %1, null
  br i1 %4, label %5, label %8

5:                                                ; preds = %3
  %6 = getelementptr inbounds %"struct.std::_Vector_base.4", %"struct.std::_Vector_base.4"* %0, i32 0, i32 0
  %7 = bitcast %"struct.std::_Vector_base<node, std::allocator<node> >::_Vector_impl"* %6 to %"class.std::allocator.5"*
  call void @_ZNSt16allocator_traitsISaI4nodeEE10deallocateERS1_PS0_m(%"class.std::allocator.5"* dereferenceable(1) %7, %struct.node* %1, i64 %2)
  br label %8

8:                                                ; preds = %5, %3
  ret void
}

; Function Attrs: noinline nounwind uwtable
define linkonce_odr void @_ZNSt12_Vector_baseI4nodeSaIS0_EE12_Vector_implD2Ev(%"struct.std::_Vector_base<node, std::allocator<node> >::_Vector_impl"* %0) unnamed_addr #4 comdat align 2 {
  %2 = bitcast %"struct.std::_Vector_base<node, std::allocator<node> >::_Vector_impl"* %0 to %"class.std::allocator.5"*
  call void @_ZNSaI4nodeED2Ev(%"class.std::allocator.5"* %2) #3
  ret void
}

; Function Attrs: noinline uwtable
define linkonce_odr void @_ZNSt16allocator_traitsISaI4nodeEE10deallocateERS1_PS0_m(%"class.std::allocator.5"* dereferenceable(1) %0, %struct.node* %1, i64 %2) #0 comdat align 2 {
  %4 = bitcast %"class.std::allocator.5"* %0 to %"class.__gnu_cxx::new_allocator.6"*
  call void @_ZN9__gnu_cxx13new_allocatorI4nodeE10deallocateEPS1_m(%"class.__gnu_cxx::new_allocator.6"* %4, %struct.node* %1, i64 %2)
  ret void
}

; Function Attrs: noinline nounwind uwtable
define linkonce_odr void @_ZN9__gnu_cxx13new_allocatorI4nodeE10deallocateEPS1_m(%"class.__gnu_cxx::new_allocator.6"* %0, %struct.node* %1, i64 %2) #4 comdat align 2 {
  %4 = bitcast %struct.node* %1 to i8*
  call void @_ZdlPv(i8* %4) #3
  ret void
}

; Function Attrs: noinline nounwind uwtable
define linkonce_odr void @_ZNSaI4nodeED2Ev(%"class.std::allocator.5"* %0) unnamed_addr #4 comdat align 2 {
  %2 = bitcast %"class.std::allocator.5"* %0 to %"class.__gnu_cxx::new_allocator.6"*
  call void @_ZN9__gnu_cxx13new_allocatorI4nodeED2Ev(%"class.__gnu_cxx::new_allocator.6"* %2) #3
  ret void
}

; Function Attrs: noinline nounwind uwtable
define linkonce_odr void @_ZN9__gnu_cxx13new_allocatorI4nodeED2Ev(%"class.__gnu_cxx::new_allocator.6"* %0) unnamed_addr #4 comdat align 2 {
  ret void
}

; Function Attrs: noinline nounwind uwtable
define linkonce_odr void @_ZNSt6vectorI4edgeSaIS0_EE15_M_erase_at_endEPS0_(%"class.std::vector"* %0, %struct.edge* %1) #4 comdat align 2 personality i8* bitcast (i32 (...)* @__gxx_personality_v0 to i8*) {
  %3 = bitcast %"class.std::vector"* %0 to %"struct.std::_Vector_base"*
  %4 = getelementptr inbounds %"struct.std::_Vector_base", %"struct.std::_Vector_base"* %3, i32 0, i32 0
  %5 = getelementptr inbounds %"struct.std::_Vector_base<edge, std::allocator<edge> >::_Vector_impl", %"struct.std::_Vector_base<edge, std::allocator<edge> >::_Vector_impl"* %4, i32 0, i32 1
  %6 = load %struct.edge*, %struct.edge** %5, align 8
  %7 = ptrtoint %struct.edge* %6 to i64
  %8 = ptrtoint %struct.edge* %1 to i64
  %9 = sub i64 %7, %8
  %10 = sdiv exact i64 %9, 8
  %11 = icmp ne i64 %10, 0
  br i1 %11, label %12, label %23

12:                                               ; preds = %2
  %13 = bitcast %"class.std::vector"* %0 to %"struct.std::_Vector_base"*
  %14 = getelementptr inbounds %"struct.std::_Vector_base", %"struct.std::_Vector_base"* %13, i32 0, i32 0
  %15 = getelementptr inbounds %"struct.std::_Vector_base<edge, std::allocator<edge> >::_Vector_impl", %"struct.std::_Vector_base<edge, std::allocator<edge> >::_Vector_impl"* %14, i32 0, i32 1
  %16 = load %struct.edge*, %struct.edge** %15, align 8
  %17 = bitcast %"class.std::vector"* %0 to %"struct.std::_Vector_base"*
  %18 = call dereferenceable(1) %"class.std::allocator"* @_ZNSt12_Vector_baseI4edgeSaIS0_EE19_M_get_Tp_allocatorEv(%"struct.std::_Vector_base"* %17) #3
  invoke void @_ZSt8_DestroyIP4edgeS0_EvT_S2_RSaIT0_E(%struct.edge* %1, %struct.edge* %16, %"class.std::allocator"* dereferenceable(1) %18)
          to label %19 unwind label %24

19:                                               ; preds = %12
  %20 = bitcast %"class.std::vector"* %0 to %"struct.std::_Vector_base"*
  %21 = getelementptr inbounds %"struct.std::_Vector_base", %"struct.std::_Vector_base"* %20, i32 0, i32 0
  %22 = getelementptr inbounds %"struct.std::_Vector_base<edge, std::allocator<edge> >::_Vector_impl", %"struct.std::_Vector_base<edge, std::allocator<edge> >::_Vector_impl"* %21, i32 0, i32 1
  store %struct.edge* %1, %struct.edge** %22, align 8
  br label %23

23:                                               ; preds = %19, %2
  ret void

24:                                               ; preds = %12
  %25 = landingpad { i8*, i32 }
          catch i8* null
  %26 = extractvalue { i8*, i32 } %25, 0
  call void @__clang_call_terminate(i8* %26) #12
  unreachable
}

; Function Attrs: noinline nounwind uwtable
define linkonce_odr void @_ZNSt6vectorI4nodeSaIS0_EE15_M_erase_at_endEPS0_(%"class.std::vector.3"* %0, %struct.node* %1) #4 comdat align 2 personality i8* bitcast (i32 (...)* @__gxx_personality_v0 to i8*) {
  %3 = bitcast %"class.std::vector.3"* %0 to %"struct.std::_Vector_base.4"*
  %4 = getelementptr inbounds %"struct.std::_Vector_base.4", %"struct.std::_Vector_base.4"* %3, i32 0, i32 0
  %5 = getelementptr inbounds %"struct.std::_Vector_base<node, std::allocator<node> >::_Vector_impl", %"struct.std::_Vector_base<node, std::allocator<node> >::_Vector_impl"* %4, i32 0, i32 1
  %6 = load %struct.node*, %struct.node** %5, align 8
  %7 = ptrtoint %struct.node* %6 to i64
  %8 = ptrtoint %struct.node* %1 to i64
  %9 = sub i64 %7, %8
  %10 = sdiv exact i64 %9, 48
  %11 = icmp ne i64 %10, 0
  br i1 %11, label %12, label %23

12:                                               ; preds = %2
  %13 = bitcast %"class.std::vector.3"* %0 to %"struct.std::_Vector_base.4"*
  %14 = getelementptr inbounds %"struct.std::_Vector_base.4", %"struct.std::_Vector_base.4"* %13, i32 0, i32 0
  %15 = getelementptr inbounds %"struct.std::_Vector_base<node, std::allocator<node> >::_Vector_impl", %"struct.std::_Vector_base<node, std::allocator<node> >::_Vector_impl"* %14, i32 0, i32 1
  %16 = load %struct.node*, %struct.node** %15, align 8
  %17 = bitcast %"class.std::vector.3"* %0 to %"struct.std::_Vector_base.4"*
  %18 = call dereferenceable(1) %"class.std::allocator.5"* @_ZNSt12_Vector_baseI4nodeSaIS0_EE19_M_get_Tp_allocatorEv(%"struct.std::_Vector_base.4"* %17) #3
  invoke void @_ZSt8_DestroyIP4nodeS0_EvT_S2_RSaIT0_E(%struct.node* %1, %struct.node* %16, %"class.std::allocator.5"* dereferenceable(1) %18)
          to label %19 unwind label %24

19:                                               ; preds = %12
  %20 = bitcast %"class.std::vector.3"* %0 to %"struct.std::_Vector_base.4"*
  %21 = getelementptr inbounds %"struct.std::_Vector_base.4", %"struct.std::_Vector_base.4"* %20, i32 0, i32 0
  %22 = getelementptr inbounds %"struct.std::_Vector_base<node, std::allocator<node> >::_Vector_impl", %"struct.std::_Vector_base<node, std::allocator<node> >::_Vector_impl"* %21, i32 0, i32 1
  store %struct.node* %1, %struct.node** %22, align 8
  br label %23

23:                                               ; preds = %19, %2
  ret void

24:                                               ; preds = %12
  %25 = landingpad { i8*, i32 }
          catch i8* null
  %26 = extractvalue { i8*, i32 } %25, 0
  call void @__clang_call_terminate(i8* %26) #12
  unreachable
}

; Function Attrs: noinline uwtable
define linkonce_odr void @_ZNSt6vectorI4edgeSaIS0_EE12emplace_backIJS0_EEEvDpOT_(%"class.std::vector"* %0, %struct.edge* dereferenceable(8) %1) #0 comdat align 2 {
  %3 = alloca %"class.__gnu_cxx::__normal_iterator.8", align 8
  %4 = bitcast %"class.std::vector"* %0 to %"struct.std::_Vector_base"*
  %5 = getelementptr inbounds %"struct.std::_Vector_base", %"struct.std::_Vector_base"* %4, i32 0, i32 0
  %6 = getelementptr inbounds %"struct.std::_Vector_base<edge, std::allocator<edge> >::_Vector_impl", %"struct.std::_Vector_base<edge, std::allocator<edge> >::_Vector_impl"* %5, i32 0, i32 1
  %7 = load %struct.edge*, %struct.edge** %6, align 8
  %8 = bitcast %"class.std::vector"* %0 to %"struct.std::_Vector_base"*
  %9 = getelementptr inbounds %"struct.std::_Vector_base", %"struct.std::_Vector_base"* %8, i32 0, i32 0
  %10 = getelementptr inbounds %"struct.std::_Vector_base<edge, std::allocator<edge> >::_Vector_impl", %"struct.std::_Vector_base<edge, std::allocator<edge> >::_Vector_impl"* %9, i32 0, i32 2
  %11 = load %struct.edge*, %struct.edge** %10, align 8
  %12 = icmp ne %struct.edge* %7, %11
  br i1 %12, label %13, label %27

13:                                               ; preds = %2
  %14 = bitcast %"class.std::vector"* %0 to %"struct.std::_Vector_base"*
  %15 = getelementptr inbounds %"struct.std::_Vector_base", %"struct.std::_Vector_base"* %14, i32 0, i32 0
  %16 = bitcast %"struct.std::_Vector_base<edge, std::allocator<edge> >::_Vector_impl"* %15 to %"class.std::allocator"*
  %17 = bitcast %"class.std::vector"* %0 to %"struct.std::_Vector_base"*
  %18 = getelementptr inbounds %"struct.std::_Vector_base", %"struct.std::_Vector_base"* %17, i32 0, i32 0
  %19 = getelementptr inbounds %"struct.std::_Vector_base<edge, std::allocator<edge> >::_Vector_impl", %"struct.std::_Vector_base<edge, std::allocator<edge> >::_Vector_impl"* %18, i32 0, i32 1
  %20 = load %struct.edge*, %struct.edge** %19, align 8
  %21 = call dereferenceable(8) %struct.edge* @_ZSt7forwardI4edgeEOT_RNSt16remove_referenceIS1_E4typeE(%struct.edge* dereferenceable(8) %1) #3
  call void @_ZNSt16allocator_traitsISaI4edgeEE9constructIS0_JS0_EEEvRS1_PT_DpOT0_(%"class.std::allocator"* dereferenceable(1) %16, %struct.edge* %20, %struct.edge* dereferenceable(8) %21)
  %22 = bitcast %"class.std::vector"* %0 to %"struct.std::_Vector_base"*
  %23 = getelementptr inbounds %"struct.std::_Vector_base", %"struct.std::_Vector_base"* %22, i32 0, i32 0
  %24 = getelementptr inbounds %"struct.std::_Vector_base<edge, std::allocator<edge> >::_Vector_impl", %"struct.std::_Vector_base<edge, std::allocator<edge> >::_Vector_impl"* %23, i32 0, i32 1
  %25 = load %struct.edge*, %struct.edge** %24, align 8
  %26 = getelementptr inbounds %struct.edge, %struct.edge* %25, i32 1
  store %struct.edge* %26, %struct.edge** %24, align 8
  br label %33

27:                                               ; preds = %2
  %28 = call %struct.edge* @_ZNSt6vectorI4edgeSaIS0_EE3endEv(%"class.std::vector"* %0) #3
  %29 = getelementptr inbounds %"class.__gnu_cxx::__normal_iterator.8", %"class.__gnu_cxx::__normal_iterator.8"* %3, i32 0, i32 0
  store %struct.edge* %28, %struct.edge** %29, align 8
  %30 = call dereferenceable(8) %struct.edge* @_ZSt7forwardI4edgeEOT_RNSt16remove_referenceIS1_E4typeE(%struct.edge* dereferenceable(8) %1) #3
  %31 = getelementptr inbounds %"class.__gnu_cxx::__normal_iterator.8", %"class.__gnu_cxx::__normal_iterator.8"* %3, i32 0, i32 0
  %32 = load %struct.edge*, %struct.edge** %31, align 8
  call void @_ZNSt6vectorI4edgeSaIS0_EE17_M_realloc_insertIJS0_EEEvN9__gnu_cxx17__normal_iteratorIPS0_S2_EEDpOT_(%"class.std::vector"* %0, %struct.edge* %32, %struct.edge* dereferenceable(8) %30)
  br label %33

33:                                               ; preds = %27, %13
  ret void
}

; Function Attrs: noinline nounwind uwtable
define linkonce_odr dereferenceable(8) %struct.edge* @_ZSt4moveIR4edgeEONSt16remove_referenceIT_E4typeEOS3_(%struct.edge* dereferenceable(8) %0) #4 comdat {
  ret %struct.edge* %0
}

; Function Attrs: noinline uwtable
define linkonce_odr void @_ZNSt16allocator_traitsISaI4edgeEE9constructIS0_JS0_EEEvRS1_PT_DpOT0_(%"class.std::allocator"* dereferenceable(1) %0, %struct.edge* %1, %struct.edge* dereferenceable(8) %2) #0 comdat align 2 {
  %4 = bitcast %"class.std::allocator"* %0 to %"class.__gnu_cxx::new_allocator"*
  %5 = call dereferenceable(8) %struct.edge* @_ZSt7forwardI4edgeEOT_RNSt16remove_referenceIS1_E4typeE(%struct.edge* dereferenceable(8) %2) #3
  call void @_ZN9__gnu_cxx13new_allocatorI4edgeE9constructIS1_JS1_EEEvPT_DpOT0_(%"class.__gnu_cxx::new_allocator"* %4, %struct.edge* %1, %struct.edge* dereferenceable(8) %5)
  ret void
}

; Function Attrs: noinline nounwind uwtable
define linkonce_odr dereferenceable(8) %struct.edge* @_ZSt7forwardI4edgeEOT_RNSt16remove_referenceIS1_E4typeE(%struct.edge* dereferenceable(8) %0) #4 comdat {
  ret %struct.edge* %0
}

; Function Attrs: noinline uwtable
define linkonce_odr void @_ZNSt6vectorI4edgeSaIS0_EE17_M_realloc_insertIJS0_EEEvN9__gnu_cxx17__normal_iteratorIPS0_S2_EEDpOT_(%"class.std::vector"* %0, %struct.edge* %1, %struct.edge* dereferenceable(8) %2) #0 comdat align 2 personality i8* bitcast (i32 (...)* @__gxx_personality_v0 to i8*) {
  %4 = alloca %"class.__gnu_cxx::__normal_iterator.8", align 8
  %5 = alloca %"class.__gnu_cxx::__normal_iterator.8", align 8
  %6 = getelementptr inbounds %"class.__gnu_cxx::__normal_iterator.8", %"class.__gnu_cxx::__normal_iterator.8"* %4, i32 0, i32 0
  store %struct.edge* %1, %struct.edge** %6, align 8
  %7 = call i64 @_ZNKSt6vectorI4edgeSaIS0_EE12_M_check_lenEmPKc(%"class.std::vector"* %0, i64 1, i8* getelementptr inbounds ([26 x i8], [26 x i8]* @.str.4, i32 0, i32 0))
  %8 = bitcast %"class.std::vector"* %0 to %"struct.std::_Vector_base"*
  %9 = getelementptr inbounds %"struct.std::_Vector_base", %"struct.std::_Vector_base"* %8, i32 0, i32 0
  %10 = getelementptr inbounds %"struct.std::_Vector_base<edge, std::allocator<edge> >::_Vector_impl", %"struct.std::_Vector_base<edge, std::allocator<edge> >::_Vector_impl"* %9, i32 0, i32 0
  %11 = load %struct.edge*, %struct.edge** %10, align 8
  %12 = bitcast %"class.std::vector"* %0 to %"struct.std::_Vector_base"*
  %13 = getelementptr inbounds %"struct.std::_Vector_base", %"struct.std::_Vector_base"* %12, i32 0, i32 0
  %14 = getelementptr inbounds %"struct.std::_Vector_base<edge, std::allocator<edge> >::_Vector_impl", %"struct.std::_Vector_base<edge, std::allocator<edge> >::_Vector_impl"* %13, i32 0, i32 1
  %15 = load %struct.edge*, %struct.edge** %14, align 8
  %16 = call %struct.edge* @_ZNSt6vectorI4edgeSaIS0_EE5beginEv(%"class.std::vector"* %0) #3
  %17 = getelementptr inbounds %"class.__gnu_cxx::__normal_iterator.8", %"class.__gnu_cxx::__normal_iterator.8"* %5, i32 0, i32 0
  store %struct.edge* %16, %struct.edge** %17, align 8
  %18 = call i64 @_ZN9__gnu_cxxmiIP4edgeSt6vectorIS1_SaIS1_EEEENS_17__normal_iteratorIT_T0_E15difference_typeERKS9_SC_(%"class.__gnu_cxx::__normal_iterator.8"* dereferenceable(8) %4, %"class.__gnu_cxx::__normal_iterator.8"* dereferenceable(8) %5) #3
  %19 = bitcast %"class.std::vector"* %0 to %"struct.std::_Vector_base"*
  %20 = call %struct.edge* @_ZNSt12_Vector_baseI4edgeSaIS0_EE11_M_allocateEm(%"struct.std::_Vector_base"* %19, i64 %7)
  %21 = bitcast %"class.std::vector"* %0 to %"struct.std::_Vector_base"*
  %22 = getelementptr inbounds %"struct.std::_Vector_base", %"struct.std::_Vector_base"* %21, i32 0, i32 0
  %23 = bitcast %"struct.std::_Vector_base<edge, std::allocator<edge> >::_Vector_impl"* %22 to %"class.std::allocator"*
  %24 = getelementptr inbounds %struct.edge, %struct.edge* %20, i64 %18
  %25 = call dereferenceable(8) %struct.edge* @_ZSt7forwardI4edgeEOT_RNSt16remove_referenceIS1_E4typeE(%struct.edge* dereferenceable(8) %2) #3
  invoke void @_ZNSt16allocator_traitsISaI4edgeEE9constructIS0_JS0_EEEvRS1_PT_DpOT0_(%"class.std::allocator"* dereferenceable(1) %23, %struct.edge* %24, %struct.edge* dereferenceable(8) %25)
          to label %26 unwind label %40

26:                                               ; preds = %3
  %27 = call dereferenceable(8) %struct.edge** @_ZNK9__gnu_cxx17__normal_iteratorIP4edgeSt6vectorIS1_SaIS1_EEE4baseEv(%"class.__gnu_cxx::__normal_iterator.8"* %4) #3
  %28 = load %struct.edge*, %struct.edge** %27, align 8
  %29 = bitcast %"class.std::vector"* %0 to %"struct.std::_Vector_base"*
  %30 = call dereferenceable(1) %"class.std::allocator"* @_ZNSt12_Vector_baseI4edgeSaIS0_EE19_M_get_Tp_allocatorEv(%"struct.std::_Vector_base"* %29) #3
  %31 = invoke %struct.edge* @_ZSt34__uninitialized_move_if_noexcept_aIP4edgeS1_SaIS0_EET0_T_S4_S3_RT1_(%struct.edge* %11, %struct.edge* %28, %struct.edge* %20, %"class.std::allocator"* dereferenceable(1) %30)
          to label %32 unwind label %40

32:                                               ; preds = %26
  %33 = getelementptr inbounds %struct.edge, %struct.edge* %31, i32 1
  %34 = call dereferenceable(8) %struct.edge** @_ZNK9__gnu_cxx17__normal_iteratorIP4edgeSt6vectorIS1_SaIS1_EEE4baseEv(%"class.__gnu_cxx::__normal_iterator.8"* %4) #3
  %35 = load %struct.edge*, %struct.edge** %34, align 8
  %36 = bitcast %"class.std::vector"* %0 to %"struct.std::_Vector_base"*
  %37 = call dereferenceable(1) %"class.std::allocator"* @_ZNSt12_Vector_baseI4edgeSaIS0_EE19_M_get_Tp_allocatorEv(%"struct.std::_Vector_base"* %36) #3
  %38 = invoke %struct.edge* @_ZSt34__uninitialized_move_if_noexcept_aIP4edgeS1_SaIS0_EET0_T_S4_S3_RT1_(%struct.edge* %35, %struct.edge* %15, %struct.edge* %33, %"class.std::allocator"* dereferenceable(1) %37)
          to label %39 unwind label %40

39:                                               ; preds = %32
  br label %65

40:                                               ; preds = %32, %26, %3
  %.0 = phi %struct.edge* [ %33, %32 ], [ null, %26 ], [ %20, %3 ]
  %41 = landingpad { i8*, i32 }
          catch i8* null
  %42 = extractvalue { i8*, i32 } %41, 0
  %43 = extractvalue { i8*, i32 } %41, 1
  br label %44

44:                                               ; preds = %40
  %45 = call i8* @__cxa_begin_catch(i8* %42) #3
  %46 = icmp ne %struct.edge* %.0, null
  br i1 %46, label %57, label %47

47:                                               ; preds = %44
  %48 = bitcast %"class.std::vector"* %0 to %"struct.std::_Vector_base"*
  %49 = getelementptr inbounds %"struct.std::_Vector_base", %"struct.std::_Vector_base"* %48, i32 0, i32 0
  %50 = bitcast %"struct.std::_Vector_base<edge, std::allocator<edge> >::_Vector_impl"* %49 to %"class.std::allocator"*
  %51 = getelementptr inbounds %struct.edge, %struct.edge* %20, i64 %18
  invoke void @_ZNSt16allocator_traitsISaI4edgeEE7destroyIS0_EEvRS1_PT_(%"class.std::allocator"* dereferenceable(1) %50, %struct.edge* %51)
          to label %52 unwind label %53

52:                                               ; preds = %47
  br label %61

53:                                               ; preds = %63, %61, %57, %47
  %54 = landingpad { i8*, i32 }
          cleanup
  %55 = extractvalue { i8*, i32 } %54, 0
  %56 = extractvalue { i8*, i32 } %54, 1
  invoke void @__cxa_end_catch()
          to label %64 unwind label %90

57:                                               ; preds = %44
  %58 = bitcast %"class.std::vector"* %0 to %"struct.std::_Vector_base"*
  %59 = call dereferenceable(1) %"class.std::allocator"* @_ZNSt12_Vector_baseI4edgeSaIS0_EE19_M_get_Tp_allocatorEv(%"struct.std::_Vector_base"* %58) #3
  invoke void @_ZSt8_DestroyIP4edgeS0_EvT_S2_RSaIT0_E(%struct.edge* %20, %struct.edge* %.0, %"class.std::allocator"* dereferenceable(1) %59)
          to label %60 unwind label %53

60:                                               ; preds = %57
  br label %61

61:                                               ; preds = %60, %52
  %62 = bitcast %"class.std::vector"* %0 to %"struct.std::_Vector_base"*
  invoke void @_ZNSt12_Vector_baseI4edgeSaIS0_EE13_M_deallocateEPS0_m(%"struct.std::_Vector_base"* %62, %struct.edge* %20, i64 %7)
          to label %63 unwind label %53

63:                                               ; preds = %61
  invoke void @__cxa_rethrow() #13
          to label %93 unwind label %53

64:                                               ; preds = %53
  br label %87

65:                                               ; preds = %39
  %66 = bitcast %"class.std::vector"* %0 to %"struct.std::_Vector_base"*
  %67 = call dereferenceable(1) %"class.std::allocator"* @_ZNSt12_Vector_baseI4edgeSaIS0_EE19_M_get_Tp_allocatorEv(%"struct.std::_Vector_base"* %66) #3
  call void @_ZSt8_DestroyIP4edgeS0_EvT_S2_RSaIT0_E(%struct.edge* %11, %struct.edge* %15, %"class.std::allocator"* dereferenceable(1) %67)
  %68 = bitcast %"class.std::vector"* %0 to %"struct.std::_Vector_base"*
  %69 = bitcast %"class.std::vector"* %0 to %"struct.std::_Vector_base"*
  %70 = getelementptr inbounds %"struct.std::_Vector_base", %"struct.std::_Vector_base"* %69, i32 0, i32 0
  %71 = getelementptr inbounds %"struct.std::_Vector_base<edge, std::allocator<edge> >::_Vector_impl", %"struct.std::_Vector_base<edge, std::allocator<edge> >::_Vector_impl"* %70, i32 0, i32 2
  %72 = load %struct.edge*, %struct.edge** %71, align 8
  %73 = ptrtoint %struct.edge* %72 to i64
  %74 = ptrtoint %struct.edge* %11 to i64
  %75 = sub i64 %73, %74
  %76 = sdiv exact i64 %75, 8
  call void @_ZNSt12_Vector_baseI4edgeSaIS0_EE13_M_deallocateEPS0_m(%"struct.std::_Vector_base"* %68, %struct.edge* %11, i64 %76)
  %77 = bitcast %"class.std::vector"* %0 to %"struct.std::_Vector_base"*
  %78 = getelementptr inbounds %"struct.std::_Vector_base", %"struct.std::_Vector_base"* %77, i32 0, i32 0
  %79 = getelementptr inbounds %"struct.std::_Vector_base<edge, std::allocator<edge> >::_Vector_impl", %"struct.std::_Vector_base<edge, std::allocator<edge> >::_Vector_impl"* %78, i32 0, i32 0
  store %struct.edge* %20, %struct.edge** %79, align 8
  %80 = bitcast %"class.std::vector"* %0 to %"struct.std::_Vector_base"*
  %81 = getelementptr inbounds %"struct.std::_Vector_base", %"struct.std::_Vector_base"* %80, i32 0, i32 0
  %82 = getelementptr inbounds %"struct.std::_Vector_base<edge, std::allocator<edge> >::_Vector_impl", %"struct.std::_Vector_base<edge, std::allocator<edge> >::_Vector_impl"* %81, i32 0, i32 1
  store %struct.edge* %38, %struct.edge** %82, align 8
  %83 = getelementptr inbounds %struct.edge, %struct.edge* %20, i64 %7
  %84 = bitcast %"class.std::vector"* %0 to %"struct.std::_Vector_base"*
  %85 = getelementptr inbounds %"struct.std::_Vector_base", %"struct.std::_Vector_base"* %84, i32 0, i32 0
  %86 = getelementptr inbounds %"struct.std::_Vector_base<edge, std::allocator<edge> >::_Vector_impl", %"struct.std::_Vector_base<edge, std::allocator<edge> >::_Vector_impl"* %85, i32 0, i32 2
  store %struct.edge* %83, %struct.edge** %86, align 8
  ret void

87:                                               ; preds = %64
  %88 = insertvalue { i8*, i32 } undef, i8* %55, 0
  %89 = insertvalue { i8*, i32 } %88, i32 %56, 1
  resume { i8*, i32 } %89

90:                                               ; preds = %53
  %91 = landingpad { i8*, i32 }
          catch i8* null
  %92 = extractvalue { i8*, i32 } %91, 0
  call void @__clang_call_terminate(i8* %92) #12
  unreachable

93:                                               ; preds = %63
  unreachable
}

; Function Attrs: noinline nounwind uwtable
define linkonce_odr void @_ZN9__gnu_cxx13new_allocatorI4edgeE9constructIS1_JS1_EEEvPT_DpOT0_(%"class.__gnu_cxx::new_allocator"* %0, %struct.edge* %1, %struct.edge* dereferenceable(8) %2) #4 comdat align 2 {
  %4 = bitcast %struct.edge* %1 to i8*
  %5 = bitcast i8* %4 to %struct.edge*
  %6 = call dereferenceable(8) %struct.edge* @_ZSt7forwardI4edgeEOT_RNSt16remove_referenceIS1_E4typeE(%struct.edge* dereferenceable(8) %2) #3
  %7 = bitcast %struct.edge* %5 to i8*
  %8 = bitcast %struct.edge* %6 to i8*
  call void @llvm.memcpy.p0i8.p0i8.i64(i8* align 4 %7, i8* align 4 %8, i64 8, i1 false)
  ret void
}

; Function Attrs: noinline uwtable
define linkonce_odr i64 @_ZNKSt6vectorI4edgeSaIS0_EE12_M_check_lenEmPKc(%"class.std::vector"* %0, i64 %1, i8* %2) #0 comdat align 2 {
  %4 = alloca i64, align 8
  %5 = alloca i64, align 8
  store i64 %1, i64* %4, align 8
  %6 = call i64 @_ZNKSt6vectorI4edgeSaIS0_EE8max_sizeEv(%"class.std::vector"* %0) #3
  %7 = call i64 @_ZNKSt6vectorI4edgeSaIS0_EE4sizeEv(%"class.std::vector"* %0) #3
  %8 = sub i64 %6, %7
  %9 = load i64, i64* %4, align 8
  %10 = icmp ult i64 %8, %9
  br i1 %10, label %11, label %12

11:                                               ; preds = %3
  call void @_ZSt20__throw_length_errorPKc(i8* %2) #13
  unreachable

12:                                               ; preds = %3
  %13 = call i64 @_ZNKSt6vectorI4edgeSaIS0_EE4sizeEv(%"class.std::vector"* %0) #3
  %14 = call i64 @_ZNKSt6vectorI4edgeSaIS0_EE4sizeEv(%"class.std::vector"* %0) #3
  store i64 %14, i64* %5, align 8
  %15 = call dereferenceable(8) i64* @_ZSt3maxImERKT_S2_S2_(i64* dereferenceable(8) %5, i64* dereferenceable(8) %4)
  %16 = load i64, i64* %15, align 8
  %17 = add i64 %13, %16
  %18 = call i64 @_ZNKSt6vectorI4edgeSaIS0_EE4sizeEv(%"class.std::vector"* %0) #3
  %19 = icmp ult i64 %17, %18
  br i1 %19, label %23, label %20

20:                                               ; preds = %12
  %21 = call i64 @_ZNKSt6vectorI4edgeSaIS0_EE8max_sizeEv(%"class.std::vector"* %0) #3
  %22 = icmp ugt i64 %17, %21
  br i1 %22, label %23, label %25

23:                                               ; preds = %20, %12
  %24 = call i64 @_ZNKSt6vectorI4edgeSaIS0_EE8max_sizeEv(%"class.std::vector"* %0) #3
  br label %26

25:                                               ; preds = %20
  br label %26

26:                                               ; preds = %25, %23
  %27 = phi i64 [ %24, %23 ], [ %17, %25 ]
  ret i64 %27
}

; Function Attrs: noinline nounwind uwtable
define linkonce_odr i64 @_ZN9__gnu_cxxmiIP4edgeSt6vectorIS1_SaIS1_EEEENS_17__normal_iteratorIT_T0_E15difference_typeERKS9_SC_(%"class.__gnu_cxx::__normal_iterator.8"* dereferenceable(8) %0, %"class.__gnu_cxx::__normal_iterator.8"* dereferenceable(8) %1) #4 comdat {
  %3 = call dereferenceable(8) %struct.edge** @_ZNK9__gnu_cxx17__normal_iteratorIP4edgeSt6vectorIS1_SaIS1_EEE4baseEv(%"class.__gnu_cxx::__normal_iterator.8"* %0) #3
  %4 = load %struct.edge*, %struct.edge** %3, align 8
  %5 = call dereferenceable(8) %struct.edge** @_ZNK9__gnu_cxx17__normal_iteratorIP4edgeSt6vectorIS1_SaIS1_EEE4baseEv(%"class.__gnu_cxx::__normal_iterator.8"* %1) #3
  %6 = load %struct.edge*, %struct.edge** %5, align 8
  %7 = ptrtoint %struct.edge* %4 to i64
  %8 = ptrtoint %struct.edge* %6 to i64
  %9 = sub i64 %7, %8
  %10 = sdiv exact i64 %9, 8
  ret i64 %10
}

; Function Attrs: noinline uwtable
define linkonce_odr %struct.edge* @_ZNSt12_Vector_baseI4edgeSaIS0_EE11_M_allocateEm(%"struct.std::_Vector_base"* %0, i64 %1) #0 comdat align 2 {
  %3 = icmp ne i64 %1, 0
  br i1 %3, label %4, label %8

4:                                                ; preds = %2
  %5 = getelementptr inbounds %"struct.std::_Vector_base", %"struct.std::_Vector_base"* %0, i32 0, i32 0
  %6 = bitcast %"struct.std::_Vector_base<edge, std::allocator<edge> >::_Vector_impl"* %5 to %"class.std::allocator"*
  %7 = call %struct.edge* @_ZNSt16allocator_traitsISaI4edgeEE8allocateERS1_m(%"class.std::allocator"* dereferenceable(1) %6, i64 %1)
  br label %9

8:                                                ; preds = %2
  br label %9

9:                                                ; preds = %8, %4
  %10 = phi %struct.edge* [ %7, %4 ], [ null, %8 ]
  ret %struct.edge* %10
}

; Function Attrs: noinline uwtable
define linkonce_odr %struct.edge* @_ZSt34__uninitialized_move_if_noexcept_aIP4edgeS1_SaIS0_EET0_T_S4_S3_RT1_(%struct.edge* %0, %struct.edge* %1, %struct.edge* %2, %"class.std::allocator"* dereferenceable(1) %3) #0 comdat {
  %5 = alloca %"class.std::move_iterator", align 8
  %6 = alloca %"class.std::move_iterator", align 8
  %7 = call %struct.edge* @_ZSt32__make_move_if_noexcept_iteratorI4edgeSt13move_iteratorIPS0_EET0_PT_(%struct.edge* %0)
  %8 = getelementptr inbounds %"class.std::move_iterator", %"class.std::move_iterator"* %5, i32 0, i32 0
  store %struct.edge* %7, %struct.edge** %8, align 8
  %9 = call %struct.edge* @_ZSt32__make_move_if_noexcept_iteratorI4edgeSt13move_iteratorIPS0_EET0_PT_(%struct.edge* %1)
  %10 = getelementptr inbounds %"class.std::move_iterator", %"class.std::move_iterator"* %6, i32 0, i32 0
  store %struct.edge* %9, %struct.edge** %10, align 8
  %11 = getelementptr inbounds %"class.std::move_iterator", %"class.std::move_iterator"* %5, i32 0, i32 0
  %12 = load %struct.edge*, %struct.edge** %11, align 8
  %13 = getelementptr inbounds %"class.std::move_iterator", %"class.std::move_iterator"* %6, i32 0, i32 0
  %14 = load %struct.edge*, %struct.edge** %13, align 8
  %15 = call %struct.edge* @_ZSt22__uninitialized_copy_aISt13move_iteratorIP4edgeES2_S1_ET0_T_S5_S4_RSaIT1_E(%struct.edge* %12, %struct.edge* %14, %struct.edge* %2, %"class.std::allocator"* dereferenceable(1) %3)
  ret %struct.edge* %15
}

; Function Attrs: noinline nounwind uwtable
define linkonce_odr dereferenceable(8) %struct.edge** @_ZNK9__gnu_cxx17__normal_iteratorIP4edgeSt6vectorIS1_SaIS1_EEE4baseEv(%"class.__gnu_cxx::__normal_iterator.8"* %0) #4 comdat align 2 {
  %2 = getelementptr inbounds %"class.__gnu_cxx::__normal_iterator.8", %"class.__gnu_cxx::__normal_iterator.8"* %0, i32 0, i32 0
  ret %struct.edge** %2
}

; Function Attrs: noinline uwtable
define linkonce_odr void @_ZNSt16allocator_traitsISaI4edgeEE7destroyIS0_EEvRS1_PT_(%"class.std::allocator"* dereferenceable(1) %0, %struct.edge* %1) #0 comdat align 2 {
  %3 = bitcast %"class.std::allocator"* %0 to %"class.__gnu_cxx::new_allocator"*
  call void @_ZN9__gnu_cxx13new_allocatorI4edgeE7destroyIS1_EEvPT_(%"class.__gnu_cxx::new_allocator"* %3, %struct.edge* %1)
  ret void
}

declare void @__cxa_rethrow()

declare void @__cxa_end_catch()

; Function Attrs: noinline nounwind uwtable
define linkonce_odr i64 @_ZNKSt6vectorI4edgeSaIS0_EE8max_sizeEv(%"class.std::vector"* %0) #4 comdat align 2 {
  %2 = bitcast %"class.std::vector"* %0 to %"struct.std::_Vector_base"*
  %3 = call dereferenceable(1) %"class.std::allocator"* @_ZNKSt12_Vector_baseI4edgeSaIS0_EE19_M_get_Tp_allocatorEv(%"struct.std::_Vector_base"* %2) #3
  %4 = call i64 @_ZNSt16allocator_traitsISaI4edgeEE8max_sizeERKS1_(%"class.std::allocator"* dereferenceable(1) %3) #3
  ret i64 %4
}

; Function Attrs: noinline nounwind uwtable
define linkonce_odr i64 @_ZNKSt6vectorI4edgeSaIS0_EE4sizeEv(%"class.std::vector"* %0) #4 comdat align 2 {
  %2 = bitcast %"class.std::vector"* %0 to %"struct.std::_Vector_base"*
  %3 = getelementptr inbounds %"struct.std::_Vector_base", %"struct.std::_Vector_base"* %2, i32 0, i32 0
  %4 = getelementptr inbounds %"struct.std::_Vector_base<edge, std::allocator<edge> >::_Vector_impl", %"struct.std::_Vector_base<edge, std::allocator<edge> >::_Vector_impl"* %3, i32 0, i32 1
  %5 = load %struct.edge*, %struct.edge** %4, align 8
  %6 = bitcast %"class.std::vector"* %0 to %"struct.std::_Vector_base"*
  %7 = getelementptr inbounds %"struct.std::_Vector_base", %"struct.std::_Vector_base"* %6, i32 0, i32 0
  %8 = getelementptr inbounds %"struct.std::_Vector_base<edge, std::allocator<edge> >::_Vector_impl", %"struct.std::_Vector_base<edge, std::allocator<edge> >::_Vector_impl"* %7, i32 0, i32 0
  %9 = load %struct.edge*, %struct.edge** %8, align 8
  %10 = ptrtoint %struct.edge* %5 to i64
  %11 = ptrtoint %struct.edge* %9 to i64
  %12 = sub i64 %10, %11
  %13 = sdiv exact i64 %12, 8
  ret i64 %13
}

; Function Attrs: noreturn
declare void @_ZSt20__throw_length_errorPKc(i8*) #8

; Function Attrs: noinline nounwind uwtable
define linkonce_odr dereferenceable(8) i64* @_ZSt3maxImERKT_S2_S2_(i64* dereferenceable(8) %0, i64* dereferenceable(8) %1) #4 comdat {
  %3 = load i64, i64* %0, align 8
  %4 = load i64, i64* %1, align 8
  %5 = icmp ult i64 %3, %4
  br i1 %5, label %6, label %7

6:                                                ; preds = %2
  br label %8

7:                                                ; preds = %2
  br label %8

8:                                                ; preds = %7, %6
  %.0 = phi i64* [ %1, %6 ], [ %0, %7 ]
  ret i64* %.0
}

; Function Attrs: noinline nounwind uwtable
define linkonce_odr i64 @_ZNSt16allocator_traitsISaI4edgeEE8max_sizeERKS1_(%"class.std::allocator"* dereferenceable(1) %0) #4 comdat align 2 {
  %2 = bitcast %"class.std::allocator"* %0 to %"class.__gnu_cxx::new_allocator"*
  %3 = call i64 @_ZNK9__gnu_cxx13new_allocatorI4edgeE8max_sizeEv(%"class.__gnu_cxx::new_allocator"* %2) #3
  ret i64 %3
}

; Function Attrs: noinline nounwind uwtable
define linkonce_odr dereferenceable(1) %"class.std::allocator"* @_ZNKSt12_Vector_baseI4edgeSaIS0_EE19_M_get_Tp_allocatorEv(%"struct.std::_Vector_base"* %0) #4 comdat align 2 {
  %2 = getelementptr inbounds %"struct.std::_Vector_base", %"struct.std::_Vector_base"* %0, i32 0, i32 0
  %3 = bitcast %"struct.std::_Vector_base<edge, std::allocator<edge> >::_Vector_impl"* %2 to %"class.std::allocator"*
  ret %"class.std::allocator"* %3
}

; Function Attrs: noinline nounwind uwtable
define linkonce_odr i64 @_ZNK9__gnu_cxx13new_allocatorI4edgeE8max_sizeEv(%"class.__gnu_cxx::new_allocator"* %0) #4 comdat align 2 {
  ret i64 2305843009213693951
}

; Function Attrs: noinline uwtable
define linkonce_odr %struct.edge* @_ZNSt16allocator_traitsISaI4edgeEE8allocateERS1_m(%"class.std::allocator"* dereferenceable(1) %0, i64 %1) #0 comdat align 2 {
  %3 = bitcast %"class.std::allocator"* %0 to %"class.__gnu_cxx::new_allocator"*
  %4 = call %struct.edge* @_ZN9__gnu_cxx13new_allocatorI4edgeE8allocateEmPKv(%"class.__gnu_cxx::new_allocator"* %3, i64 %1, i8* null)
  ret %struct.edge* %4
}

; Function Attrs: noinline uwtable
define linkonce_odr %struct.edge* @_ZN9__gnu_cxx13new_allocatorI4edgeE8allocateEmPKv(%"class.__gnu_cxx::new_allocator"* %0, i64 %1, i8* %2) #0 comdat align 2 {
  %4 = call i64 @_ZNK9__gnu_cxx13new_allocatorI4edgeE8max_sizeEv(%"class.__gnu_cxx::new_allocator"* %0) #3
  %5 = icmp ugt i64 %1, %4
  br i1 %5, label %6, label %7

6:                                                ; preds = %3
  call void @_ZSt17__throw_bad_allocv() #13
  unreachable

7:                                                ; preds = %3
  %8 = mul i64 %1, 8
  %9 = call i8* @_Znwm(i64 %8)
  %10 = bitcast i8* %9 to %struct.edge*
  ret %struct.edge* %10
}

; Function Attrs: noreturn
declare void @_ZSt17__throw_bad_allocv() #8

; Function Attrs: nobuiltin
declare noalias i8* @_Znwm(i64) #9

; Function Attrs: noinline uwtable
define linkonce_odr %struct.edge* @_ZSt22__uninitialized_copy_aISt13move_iteratorIP4edgeES2_S1_ET0_T_S5_S4_RSaIT1_E(%struct.edge* %0, %struct.edge* %1, %struct.edge* %2, %"class.std::allocator"* dereferenceable(1) %3) #0 comdat {
  %5 = alloca %"class.std::move_iterator", align 8
  %6 = alloca %"class.std::move_iterator", align 8
  %7 = alloca %"class.std::move_iterator", align 8
  %8 = alloca %"class.std::move_iterator", align 8
  %9 = getelementptr inbounds %"class.std::move_iterator", %"class.std::move_iterator"* %5, i32 0, i32 0
  store %struct.edge* %0, %struct.edge** %9, align 8
  %10 = getelementptr inbounds %"class.std::move_iterator", %"class.std::move_iterator"* %6, i32 0, i32 0
  store %struct.edge* %1, %struct.edge** %10, align 8
  %11 = bitcast %"class.std::move_iterator"* %7 to i8*
  %12 = bitcast %"class.std::move_iterator"* %5 to i8*
  call void @llvm.memcpy.p0i8.p0i8.i64(i8* align 8 %11, i8* align 8 %12, i64 8, i1 false)
  %13 = bitcast %"class.std::move_iterator"* %8 to i8*
  %14 = bitcast %"class.std::move_iterator"* %6 to i8*
  call void @llvm.memcpy.p0i8.p0i8.i64(i8* align 8 %13, i8* align 8 %14, i64 8, i1 false)
  %15 = getelementptr inbounds %"class.std::move_iterator", %"class.std::move_iterator"* %7, i32 0, i32 0
  %16 = load %struct.edge*, %struct.edge** %15, align 8
  %17 = getelementptr inbounds %"class.std::move_iterator", %"class.std::move_iterator"* %8, i32 0, i32 0
  %18 = load %struct.edge*, %struct.edge** %17, align 8
  %19 = call %struct.edge* @_ZSt18uninitialized_copyISt13move_iteratorIP4edgeES2_ET0_T_S5_S4_(%struct.edge* %16, %struct.edge* %18, %struct.edge* %2)
  ret %struct.edge* %19
}

; Function Attrs: noinline uwtable
define linkonce_odr %struct.edge* @_ZSt32__make_move_if_noexcept_iteratorI4edgeSt13move_iteratorIPS0_EET0_PT_(%struct.edge* %0) #0 comdat {
  %2 = alloca %"class.std::move_iterator", align 8
  call void @_ZNSt13move_iteratorIP4edgeEC2ES1_(%"class.std::move_iterator"* %2, %struct.edge* %0)
  %3 = getelementptr inbounds %"class.std::move_iterator", %"class.std::move_iterator"* %2, i32 0, i32 0
  %4 = load %struct.edge*, %struct.edge** %3, align 8
  ret %struct.edge* %4
}

; Function Attrs: noinline uwtable
define linkonce_odr %struct.edge* @_ZSt18uninitialized_copyISt13move_iteratorIP4edgeES2_ET0_T_S5_S4_(%struct.edge* %0, %struct.edge* %1, %struct.edge* %2) #0 comdat {
  %4 = alloca %"class.std::move_iterator", align 8
  %5 = alloca %"class.std::move_iterator", align 8
  %6 = alloca %"class.std::move_iterator", align 8
  %7 = alloca %"class.std::move_iterator", align 8
  %8 = getelementptr inbounds %"class.std::move_iterator", %"class.std::move_iterator"* %4, i32 0, i32 0
  store %struct.edge* %0, %struct.edge** %8, align 8
  %9 = getelementptr inbounds %"class.std::move_iterator", %"class.std::move_iterator"* %5, i32 0, i32 0
  store %struct.edge* %1, %struct.edge** %9, align 8
  %10 = bitcast %"class.std::move_iterator"* %6 to i8*
  %11 = bitcast %"class.std::move_iterator"* %4 to i8*
  call void @llvm.memcpy.p0i8.p0i8.i64(i8* align 8 %10, i8* align 8 %11, i64 8, i1 false)
  %12 = bitcast %"class.std::move_iterator"* %7 to i8*
  %13 = bitcast %"class.std::move_iterator"* %5 to i8*
  call void @llvm.memcpy.p0i8.p0i8.i64(i8* align 8 %12, i8* align 8 %13, i64 8, i1 false)
  %14 = getelementptr inbounds %"class.std::move_iterator", %"class.std::move_iterator"* %6, i32 0, i32 0
  %15 = load %struct.edge*, %struct.edge** %14, align 8
  %16 = getelementptr inbounds %"class.std::move_iterator", %"class.std::move_iterator"* %7, i32 0, i32 0
  %17 = load %struct.edge*, %struct.edge** %16, align 8
  %18 = call %struct.edge* @_ZNSt20__uninitialized_copyILb0EE13__uninit_copyISt13move_iteratorIP4edgeES4_EET0_T_S7_S6_(%struct.edge* %15, %struct.edge* %17, %struct.edge* %2)
  ret %struct.edge* %18
}

; Function Attrs: noinline uwtable
define linkonce_odr %struct.edge* @_ZNSt20__uninitialized_copyILb0EE13__uninit_copyISt13move_iteratorIP4edgeES4_EET0_T_S7_S6_(%struct.edge* %0, %struct.edge* %1, %struct.edge* %2) #0 comdat align 2 personality i8* bitcast (i32 (...)* @__gxx_personality_v0 to i8*) {
  %4 = alloca %"class.std::move_iterator", align 8
  %5 = alloca %"class.std::move_iterator", align 8
  %6 = getelementptr inbounds %"class.std::move_iterator", %"class.std::move_iterator"* %4, i32 0, i32 0
  store %struct.edge* %0, %struct.edge** %6, align 8
  %7 = getelementptr inbounds %"class.std::move_iterator", %"class.std::move_iterator"* %5, i32 0, i32 0
  store %struct.edge* %1, %struct.edge** %7, align 8
  br label %8

8:                                                ; preds = %18, %3
  %.0 = phi %struct.edge* [ %2, %3 ], [ %19, %18 ]
  %9 = invoke zeroext i1 @_ZStneIP4edgeEbRKSt13move_iteratorIT_ES6_(%"class.std::move_iterator"* dereferenceable(8) %4, %"class.std::move_iterator"* dereferenceable(8) %5)
          to label %10 unwind label %20

10:                                               ; preds = %8
  br i1 %9, label %11, label %27

11:                                               ; preds = %10
  %12 = call %struct.edge* @_ZSt11__addressofI4edgeEPT_RS1_(%struct.edge* dereferenceable(8) %.0) #3
  %13 = invoke dereferenceable(8) %struct.edge* @_ZNKSt13move_iteratorIP4edgeEdeEv(%"class.std::move_iterator"* %4)
          to label %14 unwind label %20

14:                                               ; preds = %11
  invoke void @_ZSt10_ConstructI4edgeJS0_EEvPT_DpOT0_(%struct.edge* %12, %struct.edge* dereferenceable(8) %13)
          to label %15 unwind label %20

15:                                               ; preds = %14
  br label %16

16:                                               ; preds = %15
  %17 = invoke dereferenceable(8) %"class.std::move_iterator"* @_ZNSt13move_iteratorIP4edgeEppEv(%"class.std::move_iterator"* %4)
          to label %18 unwind label %20

18:                                               ; preds = %16
  %19 = getelementptr inbounds %struct.edge, %struct.edge* %.0, i32 1
  br label %8

20:                                               ; preds = %16, %14, %11, %8
  %21 = landingpad { i8*, i32 }
          catch i8* null
  %22 = extractvalue { i8*, i32 } %21, 0
  %23 = extractvalue { i8*, i32 } %21, 1
  br label %24

24:                                               ; preds = %20
  %25 = call i8* @__cxa_begin_catch(i8* %22) #3
  invoke void @_ZSt8_DestroyIP4edgeEvT_S2_(%struct.edge* %2, %struct.edge* %.0)
          to label %26 unwind label %28

26:                                               ; preds = %24
  invoke void @__cxa_rethrow() #13
          to label %40 unwind label %28

27:                                               ; preds = %10
  ret %struct.edge* %.0

28:                                               ; preds = %26, %24
  %29 = landingpad { i8*, i32 }
          cleanup
  %30 = extractvalue { i8*, i32 } %29, 0
  %31 = extractvalue { i8*, i32 } %29, 1
  invoke void @__cxa_end_catch()
          to label %32 unwind label %37

32:                                               ; preds = %28
  br label %34

33:                                               ; No predecessors!
  call void @llvm.trap()
  unreachable

34:                                               ; preds = %32
  %35 = insertvalue { i8*, i32 } undef, i8* %30, 0
  %36 = insertvalue { i8*, i32 } %35, i32 %31, 1
  resume { i8*, i32 } %36

37:                                               ; preds = %28
  %38 = landingpad { i8*, i32 }
          catch i8* null
  %39 = extractvalue { i8*, i32 } %38, 0
  call void @__clang_call_terminate(i8* %39) #12
  unreachable

40:                                               ; preds = %26
  unreachable
}

; Function Attrs: noinline uwtable
define linkonce_odr zeroext i1 @_ZStneIP4edgeEbRKSt13move_iteratorIT_ES6_(%"class.std::move_iterator"* dereferenceable(8) %0, %"class.std::move_iterator"* dereferenceable(8) %1) #0 comdat {
  %3 = call zeroext i1 @_ZSteqIP4edgeEbRKSt13move_iteratorIT_ES6_(%"class.std::move_iterator"* dereferenceable(8) %0, %"class.std::move_iterator"* dereferenceable(8) %1)
  %4 = xor i1 %3, true
  ret i1 %4
}

; Function Attrs: noinline nounwind uwtable
define linkonce_odr void @_ZSt10_ConstructI4edgeJS0_EEvPT_DpOT0_(%struct.edge* %0, %struct.edge* dereferenceable(8) %1) #4 comdat {
  %3 = bitcast %struct.edge* %0 to i8*
  %4 = bitcast i8* %3 to %struct.edge*
  %5 = call dereferenceable(8) %struct.edge* @_ZSt7forwardI4edgeEOT_RNSt16remove_referenceIS1_E4typeE(%struct.edge* dereferenceable(8) %1) #3
  %6 = bitcast %struct.edge* %4 to i8*
  %7 = bitcast %struct.edge* %5 to i8*
  call void @llvm.memcpy.p0i8.p0i8.i64(i8* align 4 %6, i8* align 4 %7, i64 8, i1 false)
  ret void
}

; Function Attrs: noinline nounwind uwtable
define linkonce_odr %struct.edge* @_ZSt11__addressofI4edgeEPT_RS1_(%struct.edge* dereferenceable(8) %0) #4 comdat {
  ret %struct.edge* %0
}

; Function Attrs: noinline nounwind uwtable
define linkonce_odr dereferenceable(8) %struct.edge* @_ZNKSt13move_iteratorIP4edgeEdeEv(%"class.std::move_iterator"* %0) #4 comdat align 2 {
  %2 = getelementptr inbounds %"class.std::move_iterator", %"class.std::move_iterator"* %0, i32 0, i32 0
  %3 = load %struct.edge*, %struct.edge** %2, align 8
  ret %struct.edge* %3
}

; Function Attrs: noinline nounwind uwtable
define linkonce_odr dereferenceable(8) %"class.std::move_iterator"* @_ZNSt13move_iteratorIP4edgeEppEv(%"class.std::move_iterator"* %0) #4 comdat align 2 {
  %2 = getelementptr inbounds %"class.std::move_iterator", %"class.std::move_iterator"* %0, i32 0, i32 0
  %3 = load %struct.edge*, %struct.edge** %2, align 8
  %4 = getelementptr inbounds %struct.edge, %struct.edge* %3, i32 1
  store %struct.edge* %4, %struct.edge** %2, align 8
  ret %"class.std::move_iterator"* %0
}

; Function Attrs: cold noreturn nounwind
declare void @llvm.trap() #10

; Function Attrs: noinline uwtable
define linkonce_odr zeroext i1 @_ZSteqIP4edgeEbRKSt13move_iteratorIT_ES6_(%"class.std::move_iterator"* dereferenceable(8) %0, %"class.std::move_iterator"* dereferenceable(8) %1) #0 comdat {
  %3 = call %struct.edge* @_ZNKSt13move_iteratorIP4edgeE4baseEv(%"class.std::move_iterator"* %0)
  %4 = call %struct.edge* @_ZNKSt13move_iteratorIP4edgeE4baseEv(%"class.std::move_iterator"* %1)
  %5 = icmp eq %struct.edge* %3, %4
  ret i1 %5
}

; Function Attrs: noinline nounwind uwtable
define linkonce_odr %struct.edge* @_ZNKSt13move_iteratorIP4edgeE4baseEv(%"class.std::move_iterator"* %0) #4 comdat align 2 {
  %2 = getelementptr inbounds %"class.std::move_iterator", %"class.std::move_iterator"* %0, i32 0, i32 0
  %3 = load %struct.edge*, %struct.edge** %2, align 8
  ret %struct.edge* %3
}

; Function Attrs: noinline nounwind uwtable
define linkonce_odr void @_ZNSt13move_iteratorIP4edgeEC2ES1_(%"class.std::move_iterator"* %0, %struct.edge* %1) unnamed_addr #4 comdat align 2 {
  %3 = getelementptr inbounds %"class.std::move_iterator", %"class.std::move_iterator"* %0, i32 0, i32 0
  store %struct.edge* %1, %struct.edge** %3, align 8
  ret void
}

; Function Attrs: noinline nounwind uwtable
define linkonce_odr void @_ZN9__gnu_cxx13new_allocatorI4edgeE7destroyIS1_EEvPT_(%"class.__gnu_cxx::new_allocator"* %0, %struct.edge* %1) #4 comdat align 2 {
  ret void
}

; Function Attrs: noinline uwtable
define linkonce_odr void @_ZNSt6vectorI4nodeSaIS0_EE9push_backEOS0_(%"class.std::vector.3"* %0, %struct.node* dereferenceable(48) %1) #0 comdat align 2 {
  %3 = call dereferenceable(48) %struct.node* @_ZSt4moveIR4nodeEONSt16remove_referenceIT_E4typeEOS3_(%struct.node* dereferenceable(48) %1) #3
  call void @_ZNSt6vectorI4nodeSaIS0_EE12emplace_backIJS0_EEEvDpOT_(%"class.std::vector.3"* %0, %struct.node* dereferenceable(48) %3)
  ret void
}

; Function Attrs: noinline nounwind uwtable
define linkonce_odr dereferenceable(48) %struct.node* @_ZSt4moveIR4nodeEONSt16remove_referenceIT_E4typeEOS3_(%struct.node* dereferenceable(48) %0) #4 comdat {
  ret %struct.node* %0
}

; Function Attrs: noinline uwtable
define linkonce_odr void @_ZSt9push_heapIN9__gnu_cxx17__normal_iteratorIP4nodeSt6vectorIS2_SaIS2_EEEESt4lessIS2_EEvT_SA_T0_(%struct.node* %0, %struct.node* %1) #0 comdat personality i8* bitcast (i32 (...)* @__gxx_personality_v0 to i8*) {
  %3 = alloca %"class.__gnu_cxx::__normal_iterator.9", align 8
  %4 = alloca %"class.__gnu_cxx::__normal_iterator.9", align 8
  %5 = alloca %"struct.std::less", align 1
  %6 = alloca %"struct.__gnu_cxx::__ops::_Iter_comp_val", align 1
  %7 = alloca %struct.node, align 8
  %8 = alloca %"class.__gnu_cxx::__normal_iterator.9", align 8
  %9 = alloca %"class.__gnu_cxx::__normal_iterator.9", align 8
  %10 = alloca %struct.node, align 8
  %11 = getelementptr inbounds %"class.__gnu_cxx::__normal_iterator.9", %"class.__gnu_cxx::__normal_iterator.9"* %3, i32 0, i32 0
  store %struct.node* %0, %struct.node** %11, align 8
  %12 = getelementptr inbounds %"class.__gnu_cxx::__normal_iterator.9", %"class.__gnu_cxx::__normal_iterator.9"* %4, i32 0, i32 0
  store %struct.node* %1, %struct.node** %12, align 8
  %13 = call dereferenceable(1) %"struct.std::less"* @_ZSt4moveIRSt4lessI4nodeEEONSt16remove_referenceIT_E4typeEOS5_(%"struct.std::less"* dereferenceable(1) %5) #3
  call void @_ZN9__gnu_cxx5__ops14_Iter_comp_valISt4lessI4nodeEEC2ES4_(%"struct.__gnu_cxx::__ops::_Iter_comp_val"* %6)
  %14 = call %struct.node* @_ZNK9__gnu_cxx17__normal_iteratorIP4nodeSt6vectorIS1_SaIS1_EEEmiEl(%"class.__gnu_cxx::__normal_iterator.9"* %4, i64 1) #3
  %15 = getelementptr inbounds %"class.__gnu_cxx::__normal_iterator.9", %"class.__gnu_cxx::__normal_iterator.9"* %8, i32 0, i32 0
  store %struct.node* %14, %struct.node** %15, align 8
  %16 = call dereferenceable(48) %struct.node* @_ZNK9__gnu_cxx17__normal_iteratorIP4nodeSt6vectorIS1_SaIS1_EEEdeEv(%"class.__gnu_cxx::__normal_iterator.9"* %8) #3
  %17 = call dereferenceable(48) %struct.node* @_ZSt4moveIR4nodeEONSt16remove_referenceIT_E4typeEOS3_(%struct.node* dereferenceable(48) %16) #3
  call void @_ZN4nodeC2EOS_(%struct.node* %7, %struct.node* dereferenceable(48) %17) #3
  %18 = bitcast %"class.__gnu_cxx::__normal_iterator.9"* %9 to i8*
  %19 = bitcast %"class.__gnu_cxx::__normal_iterator.9"* %3 to i8*
  call void @llvm.memcpy.p0i8.p0i8.i64(i8* align 8 %18, i8* align 8 %19, i64 8, i1 false)
  %20 = call i64 @_ZN9__gnu_cxxmiIP4nodeSt6vectorIS1_SaIS1_EEEENS_17__normal_iteratorIT_T0_E15difference_typeERKS9_SC_(%"class.__gnu_cxx::__normal_iterator.9"* dereferenceable(8) %4, %"class.__gnu_cxx::__normal_iterator.9"* dereferenceable(8) %3) #3
  %21 = sub nsw i64 %20, 1
  %22 = call dereferenceable(48) %struct.node* @_ZSt4moveIR4nodeEONSt16remove_referenceIT_E4typeEOS3_(%struct.node* dereferenceable(48) %7) #3
  call void @_ZN4nodeC2EOS_(%struct.node* %10, %struct.node* dereferenceable(48) %22) #3
  %23 = getelementptr inbounds %"class.__gnu_cxx::__normal_iterator.9", %"class.__gnu_cxx::__normal_iterator.9"* %9, i32 0, i32 0
  %24 = load %struct.node*, %struct.node** %23, align 8
  invoke void @_ZSt11__push_heapIN9__gnu_cxx17__normal_iteratorIP4nodeSt6vectorIS2_SaIS2_EEEElS2_NS0_5__ops14_Iter_comp_valISt4lessIS2_EEEEvT_T0_SE_T1_RT2_(%struct.node* %24, i64 %21, i64 0, %struct.node* %10, %"struct.__gnu_cxx::__ops::_Iter_comp_val"* dereferenceable(1) %6)
          to label %25 unwind label %26

25:                                               ; preds = %2
  call void @_ZN4nodeD2Ev(%struct.node* %10) #3
  call void @_ZN4nodeD2Ev(%struct.node* %7) #3
  ret void

26:                                               ; preds = %2
  %27 = landingpad { i8*, i32 }
          cleanup
  %28 = extractvalue { i8*, i32 } %27, 0
  %29 = extractvalue { i8*, i32 } %27, 1
  call void @_ZN4nodeD2Ev(%struct.node* %10) #3
  call void @_ZN4nodeD2Ev(%struct.node* %7) #3
  br label %30

30:                                               ; preds = %26
  %31 = insertvalue { i8*, i32 } undef, i8* %28, 0
  %32 = insertvalue { i8*, i32 } %31, i32 %29, 1
  resume { i8*, i32 } %32
}

; Function Attrs: noinline nounwind uwtable
define linkonce_odr %struct.node* @_ZNSt6vectorI4nodeSaIS0_EE5beginEv(%"class.std::vector.3"* %0) #4 comdat align 2 {
  %2 = alloca %"class.__gnu_cxx::__normal_iterator.9", align 8
  %3 = bitcast %"class.std::vector.3"* %0 to %"struct.std::_Vector_base.4"*
  %4 = getelementptr inbounds %"struct.std::_Vector_base.4", %"struct.std::_Vector_base.4"* %3, i32 0, i32 0
  %5 = getelementptr inbounds %"struct.std::_Vector_base<node, std::allocator<node> >::_Vector_impl", %"struct.std::_Vector_base<node, std::allocator<node> >::_Vector_impl"* %4, i32 0, i32 0
  call void @_ZN9__gnu_cxx17__normal_iteratorIP4nodeSt6vectorIS1_SaIS1_EEEC2ERKS2_(%"class.__gnu_cxx::__normal_iterator.9"* %2, %struct.node** dereferenceable(8) %5) #3
  %6 = getelementptr inbounds %"class.__gnu_cxx::__normal_iterator.9", %"class.__gnu_cxx::__normal_iterator.9"* %2, i32 0, i32 0
  %7 = load %struct.node*, %struct.node** %6, align 8
  ret %struct.node* %7
}

; Function Attrs: noinline nounwind uwtable
define linkonce_odr %struct.node* @_ZNSt6vectorI4nodeSaIS0_EE3endEv(%"class.std::vector.3"* %0) #4 comdat align 2 {
  %2 = alloca %"class.__gnu_cxx::__normal_iterator.9", align 8
  %3 = bitcast %"class.std::vector.3"* %0 to %"struct.std::_Vector_base.4"*
  %4 = getelementptr inbounds %"struct.std::_Vector_base.4", %"struct.std::_Vector_base.4"* %3, i32 0, i32 0
  %5 = getelementptr inbounds %"struct.std::_Vector_base<node, std::allocator<node> >::_Vector_impl", %"struct.std::_Vector_base<node, std::allocator<node> >::_Vector_impl"* %4, i32 0, i32 1
  call void @_ZN9__gnu_cxx17__normal_iteratorIP4nodeSt6vectorIS1_SaIS1_EEEC2ERKS2_(%"class.__gnu_cxx::__normal_iterator.9"* %2, %struct.node** dereferenceable(8) %5) #3
  %6 = getelementptr inbounds %"class.__gnu_cxx::__normal_iterator.9", %"class.__gnu_cxx::__normal_iterator.9"* %2, i32 0, i32 0
  %7 = load %struct.node*, %struct.node** %6, align 8
  ret %struct.node* %7
}

; Function Attrs: noinline uwtable
define linkonce_odr void @_ZNSt6vectorI4nodeSaIS0_EE12emplace_backIJS0_EEEvDpOT_(%"class.std::vector.3"* %0, %struct.node* dereferenceable(48) %1) #0 comdat align 2 {
  %3 = alloca %"class.__gnu_cxx::__normal_iterator.9", align 8
  %4 = bitcast %"class.std::vector.3"* %0 to %"struct.std::_Vector_base.4"*
  %5 = getelementptr inbounds %"struct.std::_Vector_base.4", %"struct.std::_Vector_base.4"* %4, i32 0, i32 0
  %6 = getelementptr inbounds %"struct.std::_Vector_base<node, std::allocator<node> >::_Vector_impl", %"struct.std::_Vector_base<node, std::allocator<node> >::_Vector_impl"* %5, i32 0, i32 1
  %7 = load %struct.node*, %struct.node** %6, align 8
  %8 = bitcast %"class.std::vector.3"* %0 to %"struct.std::_Vector_base.4"*
  %9 = getelementptr inbounds %"struct.std::_Vector_base.4", %"struct.std::_Vector_base.4"* %8, i32 0, i32 0
  %10 = getelementptr inbounds %"struct.std::_Vector_base<node, std::allocator<node> >::_Vector_impl", %"struct.std::_Vector_base<node, std::allocator<node> >::_Vector_impl"* %9, i32 0, i32 2
  %11 = load %struct.node*, %struct.node** %10, align 8
  %12 = icmp ne %struct.node* %7, %11
  br i1 %12, label %13, label %27

13:                                               ; preds = %2
  %14 = bitcast %"class.std::vector.3"* %0 to %"struct.std::_Vector_base.4"*
  %15 = getelementptr inbounds %"struct.std::_Vector_base.4", %"struct.std::_Vector_base.4"* %14, i32 0, i32 0
  %16 = bitcast %"struct.std::_Vector_base<node, std::allocator<node> >::_Vector_impl"* %15 to %"class.std::allocator.5"*
  %17 = bitcast %"class.std::vector.3"* %0 to %"struct.std::_Vector_base.4"*
  %18 = getelementptr inbounds %"struct.std::_Vector_base.4", %"struct.std::_Vector_base.4"* %17, i32 0, i32 0
  %19 = getelementptr inbounds %"struct.std::_Vector_base<node, std::allocator<node> >::_Vector_impl", %"struct.std::_Vector_base<node, std::allocator<node> >::_Vector_impl"* %18, i32 0, i32 1
  %20 = load %struct.node*, %struct.node** %19, align 8
  %21 = call dereferenceable(48) %struct.node* @_ZSt7forwardI4nodeEOT_RNSt16remove_referenceIS1_E4typeE(%struct.node* dereferenceable(48) %1) #3
  call void @_ZNSt16allocator_traitsISaI4nodeEE9constructIS0_JS0_EEEvRS1_PT_DpOT0_(%"class.std::allocator.5"* dereferenceable(1) %16, %struct.node* %20, %struct.node* dereferenceable(48) %21)
  %22 = bitcast %"class.std::vector.3"* %0 to %"struct.std::_Vector_base.4"*
  %23 = getelementptr inbounds %"struct.std::_Vector_base.4", %"struct.std::_Vector_base.4"* %22, i32 0, i32 0
  %24 = getelementptr inbounds %"struct.std::_Vector_base<node, std::allocator<node> >::_Vector_impl", %"struct.std::_Vector_base<node, std::allocator<node> >::_Vector_impl"* %23, i32 0, i32 1
  %25 = load %struct.node*, %struct.node** %24, align 8
  %26 = getelementptr inbounds %struct.node, %struct.node* %25, i32 1
  store %struct.node* %26, %struct.node** %24, align 8
  br label %33

27:                                               ; preds = %2
  %28 = call %struct.node* @_ZNSt6vectorI4nodeSaIS0_EE3endEv(%"class.std::vector.3"* %0) #3
  %29 = getelementptr inbounds %"class.__gnu_cxx::__normal_iterator.9", %"class.__gnu_cxx::__normal_iterator.9"* %3, i32 0, i32 0
  store %struct.node* %28, %struct.node** %29, align 8
  %30 = call dereferenceable(48) %struct.node* @_ZSt7forwardI4nodeEOT_RNSt16remove_referenceIS1_E4typeE(%struct.node* dereferenceable(48) %1) #3
  %31 = getelementptr inbounds %"class.__gnu_cxx::__normal_iterator.9", %"class.__gnu_cxx::__normal_iterator.9"* %3, i32 0, i32 0
  %32 = load %struct.node*, %struct.node** %31, align 8
  call void @_ZNSt6vectorI4nodeSaIS0_EE17_M_realloc_insertIJS0_EEEvN9__gnu_cxx17__normal_iteratorIPS0_S2_EEDpOT_(%"class.std::vector.3"* %0, %struct.node* %32, %struct.node* dereferenceable(48) %30)
  br label %33

33:                                               ; preds = %27, %13
  ret void
}

; Function Attrs: noinline uwtable
define linkonce_odr void @_ZNSt16allocator_traitsISaI4nodeEE9constructIS0_JS0_EEEvRS1_PT_DpOT0_(%"class.std::allocator.5"* dereferenceable(1) %0, %struct.node* %1, %struct.node* dereferenceable(48) %2) #0 comdat align 2 {
  %4 = bitcast %"class.std::allocator.5"* %0 to %"class.__gnu_cxx::new_allocator.6"*
  %5 = call dereferenceable(48) %struct.node* @_ZSt7forwardI4nodeEOT_RNSt16remove_referenceIS1_E4typeE(%struct.node* dereferenceable(48) %2) #3
  call void @_ZN9__gnu_cxx13new_allocatorI4nodeE9constructIS1_JS1_EEEvPT_DpOT0_(%"class.__gnu_cxx::new_allocator.6"* %4, %struct.node* %1, %struct.node* dereferenceable(48) %5)
  ret void
}

; Function Attrs: noinline nounwind uwtable
define linkonce_odr dereferenceable(48) %struct.node* @_ZSt7forwardI4nodeEOT_RNSt16remove_referenceIS1_E4typeE(%struct.node* dereferenceable(48) %0) #4 comdat {
  ret %struct.node* %0
}

; Function Attrs: noinline uwtable
define linkonce_odr void @_ZNSt6vectorI4nodeSaIS0_EE17_M_realloc_insertIJS0_EEEvN9__gnu_cxx17__normal_iteratorIPS0_S2_EEDpOT_(%"class.std::vector.3"* %0, %struct.node* %1, %struct.node* dereferenceable(48) %2) #0 comdat align 2 personality i8* bitcast (i32 (...)* @__gxx_personality_v0 to i8*) {
  %4 = alloca %"class.__gnu_cxx::__normal_iterator.9", align 8
  %5 = alloca %"class.__gnu_cxx::__normal_iterator.9", align 8
  %6 = getelementptr inbounds %"class.__gnu_cxx::__normal_iterator.9", %"class.__gnu_cxx::__normal_iterator.9"* %4, i32 0, i32 0
  store %struct.node* %1, %struct.node** %6, align 8
  %7 = call i64 @_ZNKSt6vectorI4nodeSaIS0_EE12_M_check_lenEmPKc(%"class.std::vector.3"* %0, i64 1, i8* getelementptr inbounds ([26 x i8], [26 x i8]* @.str.4, i32 0, i32 0))
  %8 = bitcast %"class.std::vector.3"* %0 to %"struct.std::_Vector_base.4"*
  %9 = getelementptr inbounds %"struct.std::_Vector_base.4", %"struct.std::_Vector_base.4"* %8, i32 0, i32 0
  %10 = getelementptr inbounds %"struct.std::_Vector_base<node, std::allocator<node> >::_Vector_impl", %"struct.std::_Vector_base<node, std::allocator<node> >::_Vector_impl"* %9, i32 0, i32 0
  %11 = load %struct.node*, %struct.node** %10, align 8
  %12 = bitcast %"class.std::vector.3"* %0 to %"struct.std::_Vector_base.4"*
  %13 = getelementptr inbounds %"struct.std::_Vector_base.4", %"struct.std::_Vector_base.4"* %12, i32 0, i32 0
  %14 = getelementptr inbounds %"struct.std::_Vector_base<node, std::allocator<node> >::_Vector_impl", %"struct.std::_Vector_base<node, std::allocator<node> >::_Vector_impl"* %13, i32 0, i32 1
  %15 = load %struct.node*, %struct.node** %14, align 8
  %16 = call %struct.node* @_ZNSt6vectorI4nodeSaIS0_EE5beginEv(%"class.std::vector.3"* %0) #3
  %17 = getelementptr inbounds %"class.__gnu_cxx::__normal_iterator.9", %"class.__gnu_cxx::__normal_iterator.9"* %5, i32 0, i32 0
  store %struct.node* %16, %struct.node** %17, align 8
  %18 = call i64 @_ZN9__gnu_cxxmiIP4nodeSt6vectorIS1_SaIS1_EEEENS_17__normal_iteratorIT_T0_E15difference_typeERKS9_SC_(%"class.__gnu_cxx::__normal_iterator.9"* dereferenceable(8) %4, %"class.__gnu_cxx::__normal_iterator.9"* dereferenceable(8) %5) #3
  %19 = bitcast %"class.std::vector.3"* %0 to %"struct.std::_Vector_base.4"*
  %20 = call %struct.node* @_ZNSt12_Vector_baseI4nodeSaIS0_EE11_M_allocateEm(%"struct.std::_Vector_base.4"* %19, i64 %7)
  %21 = bitcast %"class.std::vector.3"* %0 to %"struct.std::_Vector_base.4"*
  %22 = getelementptr inbounds %"struct.std::_Vector_base.4", %"struct.std::_Vector_base.4"* %21, i32 0, i32 0
  %23 = bitcast %"struct.std::_Vector_base<node, std::allocator<node> >::_Vector_impl"* %22 to %"class.std::allocator.5"*
  %24 = getelementptr inbounds %struct.node, %struct.node* %20, i64 %18
  %25 = call dereferenceable(48) %struct.node* @_ZSt7forwardI4nodeEOT_RNSt16remove_referenceIS1_E4typeE(%struct.node* dereferenceable(48) %2) #3
  invoke void @_ZNSt16allocator_traitsISaI4nodeEE9constructIS0_JS0_EEEvRS1_PT_DpOT0_(%"class.std::allocator.5"* dereferenceable(1) %23, %struct.node* %24, %struct.node* dereferenceable(48) %25)
          to label %26 unwind label %40

26:                                               ; preds = %3
  %27 = call dereferenceable(8) %struct.node** @_ZNK9__gnu_cxx17__normal_iteratorIP4nodeSt6vectorIS1_SaIS1_EEE4baseEv(%"class.__gnu_cxx::__normal_iterator.9"* %4) #3
  %28 = load %struct.node*, %struct.node** %27, align 8
  %29 = bitcast %"class.std::vector.3"* %0 to %"struct.std::_Vector_base.4"*
  %30 = call dereferenceable(1) %"class.std::allocator.5"* @_ZNSt12_Vector_baseI4nodeSaIS0_EE19_M_get_Tp_allocatorEv(%"struct.std::_Vector_base.4"* %29) #3
  %31 = invoke %struct.node* @_ZSt34__uninitialized_move_if_noexcept_aIP4nodeS1_SaIS0_EET0_T_S4_S3_RT1_(%struct.node* %11, %struct.node* %28, %struct.node* %20, %"class.std::allocator.5"* dereferenceable(1) %30)
          to label %32 unwind label %40

32:                                               ; preds = %26
  %33 = getelementptr inbounds %struct.node, %struct.node* %31, i32 1
  %34 = call dereferenceable(8) %struct.node** @_ZNK9__gnu_cxx17__normal_iteratorIP4nodeSt6vectorIS1_SaIS1_EEE4baseEv(%"class.__gnu_cxx::__normal_iterator.9"* %4) #3
  %35 = load %struct.node*, %struct.node** %34, align 8
  %36 = bitcast %"class.std::vector.3"* %0 to %"struct.std::_Vector_base.4"*
  %37 = call dereferenceable(1) %"class.std::allocator.5"* @_ZNSt12_Vector_baseI4nodeSaIS0_EE19_M_get_Tp_allocatorEv(%"struct.std::_Vector_base.4"* %36) #3
  %38 = invoke %struct.node* @_ZSt34__uninitialized_move_if_noexcept_aIP4nodeS1_SaIS0_EET0_T_S4_S3_RT1_(%struct.node* %35, %struct.node* %15, %struct.node* %33, %"class.std::allocator.5"* dereferenceable(1) %37)
          to label %39 unwind label %40

39:                                               ; preds = %32
  br label %65

40:                                               ; preds = %32, %26, %3
  %.0 = phi %struct.node* [ %33, %32 ], [ null, %26 ], [ %20, %3 ]
  %41 = landingpad { i8*, i32 }
          catch i8* null
  %42 = extractvalue { i8*, i32 } %41, 0
  %43 = extractvalue { i8*, i32 } %41, 1
  br label %44

44:                                               ; preds = %40
  %45 = call i8* @__cxa_begin_catch(i8* %42) #3
  %46 = icmp ne %struct.node* %.0, null
  br i1 %46, label %57, label %47

47:                                               ; preds = %44
  %48 = bitcast %"class.std::vector.3"* %0 to %"struct.std::_Vector_base.4"*
  %49 = getelementptr inbounds %"struct.std::_Vector_base.4", %"struct.std::_Vector_base.4"* %48, i32 0, i32 0
  %50 = bitcast %"struct.std::_Vector_base<node, std::allocator<node> >::_Vector_impl"* %49 to %"class.std::allocator.5"*
  %51 = getelementptr inbounds %struct.node, %struct.node* %20, i64 %18
  invoke void @_ZNSt16allocator_traitsISaI4nodeEE7destroyIS0_EEvRS1_PT_(%"class.std::allocator.5"* dereferenceable(1) %50, %struct.node* %51)
          to label %52 unwind label %53

52:                                               ; preds = %47
  br label %61

53:                                               ; preds = %63, %61, %57, %47
  %54 = landingpad { i8*, i32 }
          cleanup
  %55 = extractvalue { i8*, i32 } %54, 0
  %56 = extractvalue { i8*, i32 } %54, 1
  invoke void @__cxa_end_catch()
          to label %64 unwind label %90

57:                                               ; preds = %44
  %58 = bitcast %"class.std::vector.3"* %0 to %"struct.std::_Vector_base.4"*
  %59 = call dereferenceable(1) %"class.std::allocator.5"* @_ZNSt12_Vector_baseI4nodeSaIS0_EE19_M_get_Tp_allocatorEv(%"struct.std::_Vector_base.4"* %58) #3
  invoke void @_ZSt8_DestroyIP4nodeS0_EvT_S2_RSaIT0_E(%struct.node* %20, %struct.node* %.0, %"class.std::allocator.5"* dereferenceable(1) %59)
          to label %60 unwind label %53

60:                                               ; preds = %57
  br label %61

61:                                               ; preds = %60, %52
  %62 = bitcast %"class.std::vector.3"* %0 to %"struct.std::_Vector_base.4"*
  invoke void @_ZNSt12_Vector_baseI4nodeSaIS0_EE13_M_deallocateEPS0_m(%"struct.std::_Vector_base.4"* %62, %struct.node* %20, i64 %7)
          to label %63 unwind label %53

63:                                               ; preds = %61
  invoke void @__cxa_rethrow() #13
          to label %93 unwind label %53

64:                                               ; preds = %53
  br label %87

65:                                               ; preds = %39
  %66 = bitcast %"class.std::vector.3"* %0 to %"struct.std::_Vector_base.4"*
  %67 = call dereferenceable(1) %"class.std::allocator.5"* @_ZNSt12_Vector_baseI4nodeSaIS0_EE19_M_get_Tp_allocatorEv(%"struct.std::_Vector_base.4"* %66) #3
  call void @_ZSt8_DestroyIP4nodeS0_EvT_S2_RSaIT0_E(%struct.node* %11, %struct.node* %15, %"class.std::allocator.5"* dereferenceable(1) %67)
  %68 = bitcast %"class.std::vector.3"* %0 to %"struct.std::_Vector_base.4"*
  %69 = bitcast %"class.std::vector.3"* %0 to %"struct.std::_Vector_base.4"*
  %70 = getelementptr inbounds %"struct.std::_Vector_base.4", %"struct.std::_Vector_base.4"* %69, i32 0, i32 0
  %71 = getelementptr inbounds %"struct.std::_Vector_base<node, std::allocator<node> >::_Vector_impl", %"struct.std::_Vector_base<node, std::allocator<node> >::_Vector_impl"* %70, i32 0, i32 2
  %72 = load %struct.node*, %struct.node** %71, align 8
  %73 = ptrtoint %struct.node* %72 to i64
  %74 = ptrtoint %struct.node* %11 to i64
  %75 = sub i64 %73, %74
  %76 = sdiv exact i64 %75, 48
  call void @_ZNSt12_Vector_baseI4nodeSaIS0_EE13_M_deallocateEPS0_m(%"struct.std::_Vector_base.4"* %68, %struct.node* %11, i64 %76)
  %77 = bitcast %"class.std::vector.3"* %0 to %"struct.std::_Vector_base.4"*
  %78 = getelementptr inbounds %"struct.std::_Vector_base.4", %"struct.std::_Vector_base.4"* %77, i32 0, i32 0
  %79 = getelementptr inbounds %"struct.std::_Vector_base<node, std::allocator<node> >::_Vector_impl", %"struct.std::_Vector_base<node, std::allocator<node> >::_Vector_impl"* %78, i32 0, i32 0
  store %struct.node* %20, %struct.node** %79, align 8
  %80 = bitcast %"class.std::vector.3"* %0 to %"struct.std::_Vector_base.4"*
  %81 = getelementptr inbounds %"struct.std::_Vector_base.4", %"struct.std::_Vector_base.4"* %80, i32 0, i32 0
  %82 = getelementptr inbounds %"struct.std::_Vector_base<node, std::allocator<node> >::_Vector_impl", %"struct.std::_Vector_base<node, std::allocator<node> >::_Vector_impl"* %81, i32 0, i32 1
  store %struct.node* %38, %struct.node** %82, align 8
  %83 = getelementptr inbounds %struct.node, %struct.node* %20, i64 %7
  %84 = bitcast %"class.std::vector.3"* %0 to %"struct.std::_Vector_base.4"*
  %85 = getelementptr inbounds %"struct.std::_Vector_base.4", %"struct.std::_Vector_base.4"* %84, i32 0, i32 0
  %86 = getelementptr inbounds %"struct.std::_Vector_base<node, std::allocator<node> >::_Vector_impl", %"struct.std::_Vector_base<node, std::allocator<node> >::_Vector_impl"* %85, i32 0, i32 2
  store %struct.node* %83, %struct.node** %86, align 8
  ret void

87:                                               ; preds = %64
  %88 = insertvalue { i8*, i32 } undef, i8* %55, 0
  %89 = insertvalue { i8*, i32 } %88, i32 %56, 1
  resume { i8*, i32 } %89

90:                                               ; preds = %53
  %91 = landingpad { i8*, i32 }
          catch i8* null
  %92 = extractvalue { i8*, i32 } %91, 0
  call void @__clang_call_terminate(i8* %92) #12
  unreachable

93:                                               ; preds = %63
  unreachable
}

; Function Attrs: noinline nounwind uwtable
define linkonce_odr void @_ZN9__gnu_cxx13new_allocatorI4nodeE9constructIS1_JS1_EEEvPT_DpOT0_(%"class.__gnu_cxx::new_allocator.6"* %0, %struct.node* %1, %struct.node* dereferenceable(48) %2) #4 comdat align 2 {
  %4 = bitcast %struct.node* %1 to i8*
  %5 = bitcast i8* %4 to %struct.node*
  %6 = call dereferenceable(48) %struct.node* @_ZSt7forwardI4nodeEOT_RNSt16remove_referenceIS1_E4typeE(%struct.node* dereferenceable(48) %2) #3
  call void @_ZN4nodeC2EOS_(%struct.node* %5, %struct.node* dereferenceable(48) %6) #3
  ret void
}

; Function Attrs: noinline nounwind uwtable
define linkonce_odr void @_ZN4nodeC2EOS_(%struct.node* %0, %struct.node* dereferenceable(48) %1) unnamed_addr #4 comdat align 2 {
  %3 = getelementptr inbounds %struct.node, %struct.node* %0, i32 0, i32 0
  %4 = getelementptr inbounds %struct.node, %struct.node* %1, i32 0, i32 0
  %5 = bitcast i32* %3 to i8*
  %6 = bitcast i32* %4 to i8*
  call void @llvm.memcpy.p0i8.p0i8.i64(i8* align 8 %5, i8* align 8 %6, i64 16, i1 false)
  %7 = getelementptr inbounds %struct.node, %struct.node* %0, i32 0, i32 3
  %8 = getelementptr inbounds %struct.node, %struct.node* %1, i32 0, i32 3
  call void @_ZNSt7__cxx1112basic_stringIcSt11char_traitsIcESaIcEEC1EOS4_(%"class.std::__cxx11::basic_string"* %7, %"class.std::__cxx11::basic_string"* dereferenceable(32) %8) #3
  ret void
}

; Function Attrs: nounwind
declare void @_ZNSt7__cxx1112basic_stringIcSt11char_traitsIcESaIcEEC1EOS4_(%"class.std::__cxx11::basic_string"*, %"class.std::__cxx11::basic_string"* dereferenceable(32)) unnamed_addr #2

; Function Attrs: noinline uwtable
define linkonce_odr i64 @_ZNKSt6vectorI4nodeSaIS0_EE12_M_check_lenEmPKc(%"class.std::vector.3"* %0, i64 %1, i8* %2) #0 comdat align 2 {
  %4 = alloca i64, align 8
  %5 = alloca i64, align 8
  store i64 %1, i64* %4, align 8
  %6 = call i64 @_ZNKSt6vectorI4nodeSaIS0_EE8max_sizeEv(%"class.std::vector.3"* %0) #3
  %7 = call i64 @_ZNKSt6vectorI4nodeSaIS0_EE4sizeEv(%"class.std::vector.3"* %0) #3
  %8 = sub i64 %6, %7
  %9 = load i64, i64* %4, align 8
  %10 = icmp ult i64 %8, %9
  br i1 %10, label %11, label %12

11:                                               ; preds = %3
  call void @_ZSt20__throw_length_errorPKc(i8* %2) #13
  unreachable

12:                                               ; preds = %3
  %13 = call i64 @_ZNKSt6vectorI4nodeSaIS0_EE4sizeEv(%"class.std::vector.3"* %0) #3
  %14 = call i64 @_ZNKSt6vectorI4nodeSaIS0_EE4sizeEv(%"class.std::vector.3"* %0) #3
  store i64 %14, i64* %5, align 8
  %15 = call dereferenceable(8) i64* @_ZSt3maxImERKT_S2_S2_(i64* dereferenceable(8) %5, i64* dereferenceable(8) %4)
  %16 = load i64, i64* %15, align 8
  %17 = add i64 %13, %16
  %18 = call i64 @_ZNKSt6vectorI4nodeSaIS0_EE4sizeEv(%"class.std::vector.3"* %0) #3
  %19 = icmp ult i64 %17, %18
  br i1 %19, label %23, label %20

20:                                               ; preds = %12
  %21 = call i64 @_ZNKSt6vectorI4nodeSaIS0_EE8max_sizeEv(%"class.std::vector.3"* %0) #3
  %22 = icmp ugt i64 %17, %21
  br i1 %22, label %23, label %25

23:                                               ; preds = %20, %12
  %24 = call i64 @_ZNKSt6vectorI4nodeSaIS0_EE8max_sizeEv(%"class.std::vector.3"* %0) #3
  br label %26

25:                                               ; preds = %20
  br label %26

26:                                               ; preds = %25, %23
  %27 = phi i64 [ %24, %23 ], [ %17, %25 ]
  ret i64 %27
}

; Function Attrs: noinline nounwind uwtable
define linkonce_odr i64 @_ZN9__gnu_cxxmiIP4nodeSt6vectorIS1_SaIS1_EEEENS_17__normal_iteratorIT_T0_E15difference_typeERKS9_SC_(%"class.__gnu_cxx::__normal_iterator.9"* dereferenceable(8) %0, %"class.__gnu_cxx::__normal_iterator.9"* dereferenceable(8) %1) #4 comdat {
  %3 = call dereferenceable(8) %struct.node** @_ZNK9__gnu_cxx17__normal_iteratorIP4nodeSt6vectorIS1_SaIS1_EEE4baseEv(%"class.__gnu_cxx::__normal_iterator.9"* %0) #3
  %4 = load %struct.node*, %struct.node** %3, align 8
  %5 = call dereferenceable(8) %struct.node** @_ZNK9__gnu_cxx17__normal_iteratorIP4nodeSt6vectorIS1_SaIS1_EEE4baseEv(%"class.__gnu_cxx::__normal_iterator.9"* %1) #3
  %6 = load %struct.node*, %struct.node** %5, align 8
  %7 = ptrtoint %struct.node* %4 to i64
  %8 = ptrtoint %struct.node* %6 to i64
  %9 = sub i64 %7, %8
  %10 = sdiv exact i64 %9, 48
  ret i64 %10
}

; Function Attrs: noinline uwtable
define linkonce_odr %struct.node* @_ZNSt12_Vector_baseI4nodeSaIS0_EE11_M_allocateEm(%"struct.std::_Vector_base.4"* %0, i64 %1) #0 comdat align 2 {
  %3 = icmp ne i64 %1, 0
  br i1 %3, label %4, label %8

4:                                                ; preds = %2
  %5 = getelementptr inbounds %"struct.std::_Vector_base.4", %"struct.std::_Vector_base.4"* %0, i32 0, i32 0
  %6 = bitcast %"struct.std::_Vector_base<node, std::allocator<node> >::_Vector_impl"* %5 to %"class.std::allocator.5"*
  %7 = call %struct.node* @_ZNSt16allocator_traitsISaI4nodeEE8allocateERS1_m(%"class.std::allocator.5"* dereferenceable(1) %6, i64 %1)
  br label %9

8:                                                ; preds = %2
  br label %9

9:                                                ; preds = %8, %4
  %10 = phi %struct.node* [ %7, %4 ], [ null, %8 ]
  ret %struct.node* %10
}

; Function Attrs: noinline uwtable
define linkonce_odr %struct.node* @_ZSt34__uninitialized_move_if_noexcept_aIP4nodeS1_SaIS0_EET0_T_S4_S3_RT1_(%struct.node* %0, %struct.node* %1, %struct.node* %2, %"class.std::allocator.5"* dereferenceable(1) %3) #0 comdat {
  %5 = alloca %"class.std::move_iterator.10", align 8
  %6 = alloca %"class.std::move_iterator.10", align 8
  %7 = call %struct.node* @_ZSt32__make_move_if_noexcept_iteratorI4nodeSt13move_iteratorIPS0_EET0_PT_(%struct.node* %0)
  %8 = getelementptr inbounds %"class.std::move_iterator.10", %"class.std::move_iterator.10"* %5, i32 0, i32 0
  store %struct.node* %7, %struct.node** %8, align 8
  %9 = call %struct.node* @_ZSt32__make_move_if_noexcept_iteratorI4nodeSt13move_iteratorIPS0_EET0_PT_(%struct.node* %1)
  %10 = getelementptr inbounds %"class.std::move_iterator.10", %"class.std::move_iterator.10"* %6, i32 0, i32 0
  store %struct.node* %9, %struct.node** %10, align 8
  %11 = getelementptr inbounds %"class.std::move_iterator.10", %"class.std::move_iterator.10"* %5, i32 0, i32 0
  %12 = load %struct.node*, %struct.node** %11, align 8
  %13 = getelementptr inbounds %"class.std::move_iterator.10", %"class.std::move_iterator.10"* %6, i32 0, i32 0
  %14 = load %struct.node*, %struct.node** %13, align 8
  %15 = call %struct.node* @_ZSt22__uninitialized_copy_aISt13move_iteratorIP4nodeES2_S1_ET0_T_S5_S4_RSaIT1_E(%struct.node* %12, %struct.node* %14, %struct.node* %2, %"class.std::allocator.5"* dereferenceable(1) %3)
  ret %struct.node* %15
}

; Function Attrs: noinline nounwind uwtable
define linkonce_odr dereferenceable(8) %struct.node** @_ZNK9__gnu_cxx17__normal_iteratorIP4nodeSt6vectorIS1_SaIS1_EEE4baseEv(%"class.__gnu_cxx::__normal_iterator.9"* %0) #4 comdat align 2 {
  %2 = getelementptr inbounds %"class.__gnu_cxx::__normal_iterator.9", %"class.__gnu_cxx::__normal_iterator.9"* %0, i32 0, i32 0
  ret %struct.node** %2
}

; Function Attrs: noinline uwtable
define linkonce_odr void @_ZNSt16allocator_traitsISaI4nodeEE7destroyIS0_EEvRS1_PT_(%"class.std::allocator.5"* dereferenceable(1) %0, %struct.node* %1) #0 comdat align 2 {
  %3 = bitcast %"class.std::allocator.5"* %0 to %"class.__gnu_cxx::new_allocator.6"*
  call void @_ZN9__gnu_cxx13new_allocatorI4nodeE7destroyIS1_EEvPT_(%"class.__gnu_cxx::new_allocator.6"* %3, %struct.node* %1)
  ret void
}

; Function Attrs: noinline nounwind uwtable
define linkonce_odr i64 @_ZNKSt6vectorI4nodeSaIS0_EE8max_sizeEv(%"class.std::vector.3"* %0) #4 comdat align 2 {
  %2 = bitcast %"class.std::vector.3"* %0 to %"struct.std::_Vector_base.4"*
  %3 = call dereferenceable(1) %"class.std::allocator.5"* @_ZNKSt12_Vector_baseI4nodeSaIS0_EE19_M_get_Tp_allocatorEv(%"struct.std::_Vector_base.4"* %2) #3
  %4 = call i64 @_ZNSt16allocator_traitsISaI4nodeEE8max_sizeERKS1_(%"class.std::allocator.5"* dereferenceable(1) %3) #3
  ret i64 %4
}

; Function Attrs: noinline nounwind uwtable
define linkonce_odr i64 @_ZNSt16allocator_traitsISaI4nodeEE8max_sizeERKS1_(%"class.std::allocator.5"* dereferenceable(1) %0) #4 comdat align 2 {
  %2 = bitcast %"class.std::allocator.5"* %0 to %"class.__gnu_cxx::new_allocator.6"*
  %3 = call i64 @_ZNK9__gnu_cxx13new_allocatorI4nodeE8max_sizeEv(%"class.__gnu_cxx::new_allocator.6"* %2) #3
  ret i64 %3
}

; Function Attrs: noinline nounwind uwtable
define linkonce_odr dereferenceable(1) %"class.std::allocator.5"* @_ZNKSt12_Vector_baseI4nodeSaIS0_EE19_M_get_Tp_allocatorEv(%"struct.std::_Vector_base.4"* %0) #4 comdat align 2 {
  %2 = getelementptr inbounds %"struct.std::_Vector_base.4", %"struct.std::_Vector_base.4"* %0, i32 0, i32 0
  %3 = bitcast %"struct.std::_Vector_base<node, std::allocator<node> >::_Vector_impl"* %2 to %"class.std::allocator.5"*
  ret %"class.std::allocator.5"* %3
}

; Function Attrs: noinline nounwind uwtable
define linkonce_odr i64 @_ZNK9__gnu_cxx13new_allocatorI4nodeE8max_sizeEv(%"class.__gnu_cxx::new_allocator.6"* %0) #4 comdat align 2 {
  ret i64 384307168202282325
}

; Function Attrs: noinline uwtable
define linkonce_odr %struct.node* @_ZNSt16allocator_traitsISaI4nodeEE8allocateERS1_m(%"class.std::allocator.5"* dereferenceable(1) %0, i64 %1) #0 comdat align 2 {
  %3 = bitcast %"class.std::allocator.5"* %0 to %"class.__gnu_cxx::new_allocator.6"*
  %4 = call %struct.node* @_ZN9__gnu_cxx13new_allocatorI4nodeE8allocateEmPKv(%"class.__gnu_cxx::new_allocator.6"* %3, i64 %1, i8* null)
  ret %struct.node* %4
}

; Function Attrs: noinline uwtable
define linkonce_odr %struct.node* @_ZN9__gnu_cxx13new_allocatorI4nodeE8allocateEmPKv(%"class.__gnu_cxx::new_allocator.6"* %0, i64 %1, i8* %2) #0 comdat align 2 {
  %4 = call i64 @_ZNK9__gnu_cxx13new_allocatorI4nodeE8max_sizeEv(%"class.__gnu_cxx::new_allocator.6"* %0) #3
  %5 = icmp ugt i64 %1, %4
  br i1 %5, label %6, label %7

6:                                                ; preds = %3
  call void @_ZSt17__throw_bad_allocv() #13
  unreachable

7:                                                ; preds = %3
  %8 = mul i64 %1, 48
  %9 = call i8* @_Znwm(i64 %8)
  %10 = bitcast i8* %9 to %struct.node*
  ret %struct.node* %10
}

; Function Attrs: noinline uwtable
define linkonce_odr %struct.node* @_ZSt22__uninitialized_copy_aISt13move_iteratorIP4nodeES2_S1_ET0_T_S5_S4_RSaIT1_E(%struct.node* %0, %struct.node* %1, %struct.node* %2, %"class.std::allocator.5"* dereferenceable(1) %3) #0 comdat {
  %5 = alloca %"class.std::move_iterator.10", align 8
  %6 = alloca %"class.std::move_iterator.10", align 8
  %7 = alloca %"class.std::move_iterator.10", align 8
  %8 = alloca %"class.std::move_iterator.10", align 8
  %9 = getelementptr inbounds %"class.std::move_iterator.10", %"class.std::move_iterator.10"* %5, i32 0, i32 0
  store %struct.node* %0, %struct.node** %9, align 8
  %10 = getelementptr inbounds %"class.std::move_iterator.10", %"class.std::move_iterator.10"* %6, i32 0, i32 0
  store %struct.node* %1, %struct.node** %10, align 8
  %11 = bitcast %"class.std::move_iterator.10"* %7 to i8*
  %12 = bitcast %"class.std::move_iterator.10"* %5 to i8*
  call void @llvm.memcpy.p0i8.p0i8.i64(i8* align 8 %11, i8* align 8 %12, i64 8, i1 false)
  %13 = bitcast %"class.std::move_iterator.10"* %8 to i8*
  %14 = bitcast %"class.std::move_iterator.10"* %6 to i8*
  call void @llvm.memcpy.p0i8.p0i8.i64(i8* align 8 %13, i8* align 8 %14, i64 8, i1 false)
  %15 = getelementptr inbounds %"class.std::move_iterator.10", %"class.std::move_iterator.10"* %7, i32 0, i32 0
  %16 = load %struct.node*, %struct.node** %15, align 8
  %17 = getelementptr inbounds %"class.std::move_iterator.10", %"class.std::move_iterator.10"* %8, i32 0, i32 0
  %18 = load %struct.node*, %struct.node** %17, align 8
  %19 = call %struct.node* @_ZSt18uninitialized_copyISt13move_iteratorIP4nodeES2_ET0_T_S5_S4_(%struct.node* %16, %struct.node* %18, %struct.node* %2)
  ret %struct.node* %19
}

; Function Attrs: noinline uwtable
define linkonce_odr %struct.node* @_ZSt32__make_move_if_noexcept_iteratorI4nodeSt13move_iteratorIPS0_EET0_PT_(%struct.node* %0) #0 comdat {
  %2 = alloca %"class.std::move_iterator.10", align 8
  call void @_ZNSt13move_iteratorIP4nodeEC2ES1_(%"class.std::move_iterator.10"* %2, %struct.node* %0)
  %3 = getelementptr inbounds %"class.std::move_iterator.10", %"class.std::move_iterator.10"* %2, i32 0, i32 0
  %4 = load %struct.node*, %struct.node** %3, align 8
  ret %struct.node* %4
}

; Function Attrs: noinline uwtable
define linkonce_odr %struct.node* @_ZSt18uninitialized_copyISt13move_iteratorIP4nodeES2_ET0_T_S5_S4_(%struct.node* %0, %struct.node* %1, %struct.node* %2) #0 comdat {
  %4 = alloca %"class.std::move_iterator.10", align 8
  %5 = alloca %"class.std::move_iterator.10", align 8
  %6 = alloca %"class.std::move_iterator.10", align 8
  %7 = alloca %"class.std::move_iterator.10", align 8
  %8 = getelementptr inbounds %"class.std::move_iterator.10", %"class.std::move_iterator.10"* %4, i32 0, i32 0
  store %struct.node* %0, %struct.node** %8, align 8
  %9 = getelementptr inbounds %"class.std::move_iterator.10", %"class.std::move_iterator.10"* %5, i32 0, i32 0
  store %struct.node* %1, %struct.node** %9, align 8
  %10 = bitcast %"class.std::move_iterator.10"* %6 to i8*
  %11 = bitcast %"class.std::move_iterator.10"* %4 to i8*
  call void @llvm.memcpy.p0i8.p0i8.i64(i8* align 8 %10, i8* align 8 %11, i64 8, i1 false)
  %12 = bitcast %"class.std::move_iterator.10"* %7 to i8*
  %13 = bitcast %"class.std::move_iterator.10"* %5 to i8*
  call void @llvm.memcpy.p0i8.p0i8.i64(i8* align 8 %12, i8* align 8 %13, i64 8, i1 false)
  %14 = getelementptr inbounds %"class.std::move_iterator.10", %"class.std::move_iterator.10"* %6, i32 0, i32 0
  %15 = load %struct.node*, %struct.node** %14, align 8
  %16 = getelementptr inbounds %"class.std::move_iterator.10", %"class.std::move_iterator.10"* %7, i32 0, i32 0
  %17 = load %struct.node*, %struct.node** %16, align 8
  %18 = call %struct.node* @_ZNSt20__uninitialized_copyILb0EE13__uninit_copyISt13move_iteratorIP4nodeES4_EET0_T_S7_S6_(%struct.node* %15, %struct.node* %17, %struct.node* %2)
  ret %struct.node* %18
}

; Function Attrs: noinline uwtable
define linkonce_odr %struct.node* @_ZNSt20__uninitialized_copyILb0EE13__uninit_copyISt13move_iteratorIP4nodeES4_EET0_T_S7_S6_(%struct.node* %0, %struct.node* %1, %struct.node* %2) #0 comdat align 2 personality i8* bitcast (i32 (...)* @__gxx_personality_v0 to i8*) {
  %4 = alloca %"class.std::move_iterator.10", align 8
  %5 = alloca %"class.std::move_iterator.10", align 8
  %6 = getelementptr inbounds %"class.std::move_iterator.10", %"class.std::move_iterator.10"* %4, i32 0, i32 0
  store %struct.node* %0, %struct.node** %6, align 8
  %7 = getelementptr inbounds %"class.std::move_iterator.10", %"class.std::move_iterator.10"* %5, i32 0, i32 0
  store %struct.node* %1, %struct.node** %7, align 8
  br label %8

8:                                                ; preds = %18, %3
  %.0 = phi %struct.node* [ %2, %3 ], [ %19, %18 ]
  %9 = invoke zeroext i1 @_ZStneIP4nodeEbRKSt13move_iteratorIT_ES6_(%"class.std::move_iterator.10"* dereferenceable(8) %4, %"class.std::move_iterator.10"* dereferenceable(8) %5)
          to label %10 unwind label %20

10:                                               ; preds = %8
  br i1 %9, label %11, label %27

11:                                               ; preds = %10
  %12 = call %struct.node* @_ZSt11__addressofI4nodeEPT_RS1_(%struct.node* dereferenceable(48) %.0) #3
  %13 = invoke dereferenceable(48) %struct.node* @_ZNKSt13move_iteratorIP4nodeEdeEv(%"class.std::move_iterator.10"* %4)
          to label %14 unwind label %20

14:                                               ; preds = %11
  invoke void @_ZSt10_ConstructI4nodeJS0_EEvPT_DpOT0_(%struct.node* %12, %struct.node* dereferenceable(48) %13)
          to label %15 unwind label %20

15:                                               ; preds = %14
  br label %16

16:                                               ; preds = %15
  %17 = invoke dereferenceable(8) %"class.std::move_iterator.10"* @_ZNSt13move_iteratorIP4nodeEppEv(%"class.std::move_iterator.10"* %4)
          to label %18 unwind label %20

18:                                               ; preds = %16
  %19 = getelementptr inbounds %struct.node, %struct.node* %.0, i32 1
  br label %8

20:                                               ; preds = %16, %14, %11, %8
  %21 = landingpad { i8*, i32 }
          catch i8* null
  %22 = extractvalue { i8*, i32 } %21, 0
  %23 = extractvalue { i8*, i32 } %21, 1
  br label %24

24:                                               ; preds = %20
  %25 = call i8* @__cxa_begin_catch(i8* %22) #3
  invoke void @_ZSt8_DestroyIP4nodeEvT_S2_(%struct.node* %2, %struct.node* %.0)
          to label %26 unwind label %28

26:                                               ; preds = %24
  invoke void @__cxa_rethrow() #13
          to label %40 unwind label %28

27:                                               ; preds = %10
  ret %struct.node* %.0

28:                                               ; preds = %26, %24
  %29 = landingpad { i8*, i32 }
          cleanup
  %30 = extractvalue { i8*, i32 } %29, 0
  %31 = extractvalue { i8*, i32 } %29, 1
  invoke void @__cxa_end_catch()
          to label %32 unwind label %37

32:                                               ; preds = %28
  br label %34

33:                                               ; No predecessors!
  call void @llvm.trap()
  unreachable

34:                                               ; preds = %32
  %35 = insertvalue { i8*, i32 } undef, i8* %30, 0
  %36 = insertvalue { i8*, i32 } %35, i32 %31, 1
  resume { i8*, i32 } %36

37:                                               ; preds = %28
  %38 = landingpad { i8*, i32 }
          catch i8* null
  %39 = extractvalue { i8*, i32 } %38, 0
  call void @__clang_call_terminate(i8* %39) #12
  unreachable

40:                                               ; preds = %26
  unreachable
}

; Function Attrs: noinline uwtable
define linkonce_odr zeroext i1 @_ZStneIP4nodeEbRKSt13move_iteratorIT_ES6_(%"class.std::move_iterator.10"* dereferenceable(8) %0, %"class.std::move_iterator.10"* dereferenceable(8) %1) #0 comdat {
  %3 = call zeroext i1 @_ZSteqIP4nodeEbRKSt13move_iteratorIT_ES6_(%"class.std::move_iterator.10"* dereferenceable(8) %0, %"class.std::move_iterator.10"* dereferenceable(8) %1)
  %4 = xor i1 %3, true
  ret i1 %4
}

; Function Attrs: noinline nounwind uwtable
define linkonce_odr void @_ZSt10_ConstructI4nodeJS0_EEvPT_DpOT0_(%struct.node* %0, %struct.node* dereferenceable(48) %1) #4 comdat {
  %3 = bitcast %struct.node* %0 to i8*
  %4 = bitcast i8* %3 to %struct.node*
  %5 = call dereferenceable(48) %struct.node* @_ZSt7forwardI4nodeEOT_RNSt16remove_referenceIS1_E4typeE(%struct.node* dereferenceable(48) %1) #3
  call void @_ZN4nodeC2EOS_(%struct.node* %4, %struct.node* dereferenceable(48) %5) #3
  ret void
}

; Function Attrs: noinline nounwind uwtable
define linkonce_odr dereferenceable(48) %struct.node* @_ZNKSt13move_iteratorIP4nodeEdeEv(%"class.std::move_iterator.10"* %0) #4 comdat align 2 {
  %2 = getelementptr inbounds %"class.std::move_iterator.10", %"class.std::move_iterator.10"* %0, i32 0, i32 0
  %3 = load %struct.node*, %struct.node** %2, align 8
  ret %struct.node* %3
}

; Function Attrs: noinline nounwind uwtable
define linkonce_odr dereferenceable(8) %"class.std::move_iterator.10"* @_ZNSt13move_iteratorIP4nodeEppEv(%"class.std::move_iterator.10"* %0) #4 comdat align 2 {
  %2 = getelementptr inbounds %"class.std::move_iterator.10", %"class.std::move_iterator.10"* %0, i32 0, i32 0
  %3 = load %struct.node*, %struct.node** %2, align 8
  %4 = getelementptr inbounds %struct.node, %struct.node* %3, i32 1
  store %struct.node* %4, %struct.node** %2, align 8
  ret %"class.std::move_iterator.10"* %0
}

; Function Attrs: noinline uwtable
define linkonce_odr zeroext i1 @_ZSteqIP4nodeEbRKSt13move_iteratorIT_ES6_(%"class.std::move_iterator.10"* dereferenceable(8) %0, %"class.std::move_iterator.10"* dereferenceable(8) %1) #0 comdat {
  %3 = call %struct.node* @_ZNKSt13move_iteratorIP4nodeE4baseEv(%"class.std::move_iterator.10"* %0)
  %4 = call %struct.node* @_ZNKSt13move_iteratorIP4nodeE4baseEv(%"class.std::move_iterator.10"* %1)
  %5 = icmp eq %struct.node* %3, %4
  ret i1 %5
}

; Function Attrs: noinline nounwind uwtable
define linkonce_odr %struct.node* @_ZNKSt13move_iteratorIP4nodeE4baseEv(%"class.std::move_iterator.10"* %0) #4 comdat align 2 {
  %2 = getelementptr inbounds %"class.std::move_iterator.10", %"class.std::move_iterator.10"* %0, i32 0, i32 0
  %3 = load %struct.node*, %struct.node** %2, align 8
  ret %struct.node* %3
}

; Function Attrs: noinline nounwind uwtable
define linkonce_odr void @_ZNSt13move_iteratorIP4nodeEC2ES1_(%"class.std::move_iterator.10"* %0, %struct.node* %1) unnamed_addr #4 comdat align 2 {
  %3 = getelementptr inbounds %"class.std::move_iterator.10", %"class.std::move_iterator.10"* %0, i32 0, i32 0
  store %struct.node* %1, %struct.node** %3, align 8
  ret void
}

; Function Attrs: noinline nounwind uwtable
define linkonce_odr void @_ZN9__gnu_cxx13new_allocatorI4nodeE7destroyIS1_EEvPT_(%"class.__gnu_cxx::new_allocator.6"* %0, %struct.node* %1) #4 comdat align 2 {
  call void @_ZN4nodeD2Ev(%struct.node* %1) #3
  ret void
}

; Function Attrs: noinline nounwind uwtable
define linkonce_odr dereferenceable(1) %"struct.std::less"* @_ZSt4moveIRSt4lessI4nodeEEONSt16remove_referenceIT_E4typeEOS5_(%"struct.std::less"* dereferenceable(1) %0) #4 comdat {
  ret %"struct.std::less"* %0
}

; Function Attrs: noinline nounwind uwtable
define linkonce_odr void @_ZN9__gnu_cxx5__ops14_Iter_comp_valISt4lessI4nodeEEC2ES4_(%"struct.__gnu_cxx::__ops::_Iter_comp_val"* %0) unnamed_addr #4 comdat align 2 {
  %2 = alloca %"struct.std::less", align 1
  %3 = getelementptr inbounds %"struct.__gnu_cxx::__ops::_Iter_comp_val", %"struct.__gnu_cxx::__ops::_Iter_comp_val"* %0, i32 0, i32 0
  %4 = call dereferenceable(1) %"struct.std::less"* @_ZSt4moveIRSt4lessI4nodeEEONSt16remove_referenceIT_E4typeEOS5_(%"struct.std::less"* dereferenceable(1) %2) #3
  ret void
}

; Function Attrs: noinline nounwind uwtable
define linkonce_odr %struct.node* @_ZNK9__gnu_cxx17__normal_iteratorIP4nodeSt6vectorIS1_SaIS1_EEEmiEl(%"class.__gnu_cxx::__normal_iterator.9"* %0, i64 %1) #4 comdat align 2 {
  %3 = alloca %"class.__gnu_cxx::__normal_iterator.9", align 8
  %4 = alloca %struct.node*, align 8
  %5 = getelementptr inbounds %"class.__gnu_cxx::__normal_iterator.9", %"class.__gnu_cxx::__normal_iterator.9"* %0, i32 0, i32 0
  %6 = load %struct.node*, %struct.node** %5, align 8
  %7 = sub i64 0, %1
  %8 = getelementptr inbounds %struct.node, %struct.node* %6, i64 %7
  store %struct.node* %8, %struct.node** %4, align 8
  call void @_ZN9__gnu_cxx17__normal_iteratorIP4nodeSt6vectorIS1_SaIS1_EEEC2ERKS2_(%"class.__gnu_cxx::__normal_iterator.9"* %3, %struct.node** dereferenceable(8) %4) #3
  %9 = getelementptr inbounds %"class.__gnu_cxx::__normal_iterator.9", %"class.__gnu_cxx::__normal_iterator.9"* %3, i32 0, i32 0
  %10 = load %struct.node*, %struct.node** %9, align 8
  ret %struct.node* %10
}

; Function Attrs: noinline nounwind uwtable
define linkonce_odr dereferenceable(48) %struct.node* @_ZNK9__gnu_cxx17__normal_iteratorIP4nodeSt6vectorIS1_SaIS1_EEEdeEv(%"class.__gnu_cxx::__normal_iterator.9"* %0) #4 comdat align 2 {
  %2 = getelementptr inbounds %"class.__gnu_cxx::__normal_iterator.9", %"class.__gnu_cxx::__normal_iterator.9"* %0, i32 0, i32 0
  %3 = load %struct.node*, %struct.node** %2, align 8
  ret %struct.node* %3
}

; Function Attrs: noinline uwtable
define linkonce_odr void @_ZSt11__push_heapIN9__gnu_cxx17__normal_iteratorIP4nodeSt6vectorIS2_SaIS2_EEEElS2_NS0_5__ops14_Iter_comp_valISt4lessIS2_EEEEvT_T0_SE_T1_RT2_(%struct.node* %0, i64 %1, i64 %2, %struct.node* %3, %"struct.__gnu_cxx::__ops::_Iter_comp_val"* dereferenceable(1) %4) #0 comdat {
  %6 = alloca %"class.__gnu_cxx::__normal_iterator.9", align 8
  %7 = alloca %"class.__gnu_cxx::__normal_iterator.9", align 8
  %8 = alloca %"class.__gnu_cxx::__normal_iterator.9", align 8
  %9 = alloca %"class.__gnu_cxx::__normal_iterator.9", align 8
  %10 = alloca %"class.__gnu_cxx::__normal_iterator.9", align 8
  %11 = getelementptr inbounds %"class.__gnu_cxx::__normal_iterator.9", %"class.__gnu_cxx::__normal_iterator.9"* %6, i32 0, i32 0
  store %struct.node* %0, %struct.node** %11, align 8
  %12 = sub nsw i64 %1, 1
  %13 = sdiv i64 %12, 2
  br label %14

14:                                               ; preds = %24, %5
  %.01 = phi i64 [ %13, %5 ], [ %34, %24 ]
  %.0 = phi i64 [ %1, %5 ], [ %.01, %24 ]
  %15 = icmp sgt i64 %.0, %2
  br i1 %15, label %16, label %22

16:                                               ; preds = %14
  %17 = call %struct.node* @_ZNK9__gnu_cxx17__normal_iteratorIP4nodeSt6vectorIS1_SaIS1_EEEplEl(%"class.__gnu_cxx::__normal_iterator.9"* %6, i64 %.01) #3
  %18 = getelementptr inbounds %"class.__gnu_cxx::__normal_iterator.9", %"class.__gnu_cxx::__normal_iterator.9"* %7, i32 0, i32 0
  store %struct.node* %17, %struct.node** %18, align 8
  %19 = getelementptr inbounds %"class.__gnu_cxx::__normal_iterator.9", %"class.__gnu_cxx::__normal_iterator.9"* %7, i32 0, i32 0
  %20 = load %struct.node*, %struct.node** %19, align 8
  %21 = call zeroext i1 @_ZN9__gnu_cxx5__ops14_Iter_comp_valISt4lessI4nodeEEclINS_17__normal_iteratorIPS3_St6vectorIS3_SaIS3_EEEES3_EEbT_RT0_(%"struct.__gnu_cxx::__ops::_Iter_comp_val"* %4, %struct.node* %20, %struct.node* dereferenceable(48) %3)
  br label %22

22:                                               ; preds = %16, %14
  %23 = phi i1 [ false, %14 ], [ %21, %16 ]
  br i1 %23, label %24, label %35

24:                                               ; preds = %22
  %25 = call %struct.node* @_ZNK9__gnu_cxx17__normal_iteratorIP4nodeSt6vectorIS1_SaIS1_EEEplEl(%"class.__gnu_cxx::__normal_iterator.9"* %6, i64 %.01) #3
  %26 = getelementptr inbounds %"class.__gnu_cxx::__normal_iterator.9", %"class.__gnu_cxx::__normal_iterator.9"* %8, i32 0, i32 0
  store %struct.node* %25, %struct.node** %26, align 8
  %27 = call dereferenceable(48) %struct.node* @_ZNK9__gnu_cxx17__normal_iteratorIP4nodeSt6vectorIS1_SaIS1_EEEdeEv(%"class.__gnu_cxx::__normal_iterator.9"* %8) #3
  %28 = call dereferenceable(48) %struct.node* @_ZSt4moveIR4nodeEONSt16remove_referenceIT_E4typeEOS3_(%struct.node* dereferenceable(48) %27) #3
  %29 = call %struct.node* @_ZNK9__gnu_cxx17__normal_iteratorIP4nodeSt6vectorIS1_SaIS1_EEEplEl(%"class.__gnu_cxx::__normal_iterator.9"* %6, i64 %.0) #3
  %30 = getelementptr inbounds %"class.__gnu_cxx::__normal_iterator.9", %"class.__gnu_cxx::__normal_iterator.9"* %9, i32 0, i32 0
  store %struct.node* %29, %struct.node** %30, align 8
  %31 = call dereferenceable(48) %struct.node* @_ZNK9__gnu_cxx17__normal_iteratorIP4nodeSt6vectorIS1_SaIS1_EEEdeEv(%"class.__gnu_cxx::__normal_iterator.9"* %9) #3
  %32 = call dereferenceable(48) %struct.node* @_ZN4nodeaSEOS_(%struct.node* %31, %struct.node* dereferenceable(48) %28) #3
  %33 = sub nsw i64 %.01, 1
  %34 = sdiv i64 %33, 2
  br label %14

35:                                               ; preds = %22
  %36 = call dereferenceable(48) %struct.node* @_ZSt4moveIR4nodeEONSt16remove_referenceIT_E4typeEOS3_(%struct.node* dereferenceable(48) %3) #3
  %37 = call %struct.node* @_ZNK9__gnu_cxx17__normal_iteratorIP4nodeSt6vectorIS1_SaIS1_EEEplEl(%"class.__gnu_cxx::__normal_iterator.9"* %6, i64 %.0) #3
  %38 = getelementptr inbounds %"class.__gnu_cxx::__normal_iterator.9", %"class.__gnu_cxx::__normal_iterator.9"* %10, i32 0, i32 0
  store %struct.node* %37, %struct.node** %38, align 8
  %39 = call dereferenceable(48) %struct.node* @_ZNK9__gnu_cxx17__normal_iteratorIP4nodeSt6vectorIS1_SaIS1_EEEdeEv(%"class.__gnu_cxx::__normal_iterator.9"* %10) #3
  %40 = call dereferenceable(48) %struct.node* @_ZN4nodeaSEOS_(%struct.node* %39, %struct.node* dereferenceable(48) %36) #3
  ret void
}

; Function Attrs: noinline nounwind uwtable
define linkonce_odr void @_ZN9__gnu_cxx17__normal_iteratorIP4nodeSt6vectorIS1_SaIS1_EEEC2ERKS2_(%"class.__gnu_cxx::__normal_iterator.9"* %0, %struct.node** dereferenceable(8) %1) unnamed_addr #4 comdat align 2 {
  %3 = getelementptr inbounds %"class.__gnu_cxx::__normal_iterator.9", %"class.__gnu_cxx::__normal_iterator.9"* %0, i32 0, i32 0
  %4 = load %struct.node*, %struct.node** %1, align 8
  store %struct.node* %4, %struct.node** %3, align 8
  ret void
}

; Function Attrs: noinline uwtable
define linkonce_odr zeroext i1 @_ZN9__gnu_cxx5__ops14_Iter_comp_valISt4lessI4nodeEEclINS_17__normal_iteratorIPS3_St6vectorIS3_SaIS3_EEEES3_EEbT_RT0_(%"struct.__gnu_cxx::__ops::_Iter_comp_val"* %0, %struct.node* %1, %struct.node* dereferenceable(48) %2) #0 comdat align 2 {
  %4 = alloca %"class.__gnu_cxx::__normal_iterator.9", align 8
  %5 = getelementptr inbounds %"class.__gnu_cxx::__normal_iterator.9", %"class.__gnu_cxx::__normal_iterator.9"* %4, i32 0, i32 0
  store %struct.node* %1, %struct.node** %5, align 8
  %6 = getelementptr inbounds %"struct.__gnu_cxx::__ops::_Iter_comp_val", %"struct.__gnu_cxx::__ops::_Iter_comp_val"* %0, i32 0, i32 0
  %7 = call dereferenceable(48) %struct.node* @_ZNK9__gnu_cxx17__normal_iteratorIP4nodeSt6vectorIS1_SaIS1_EEEdeEv(%"class.__gnu_cxx::__normal_iterator.9"* %4) #3
  %8 = call zeroext i1 @_ZNKSt4lessI4nodeEclERKS0_S3_(%"struct.std::less"* %6, %struct.node* dereferenceable(48) %7, %struct.node* dereferenceable(48) %2)
  ret i1 %8
}

; Function Attrs: noinline nounwind uwtable
define linkonce_odr %struct.node* @_ZNK9__gnu_cxx17__normal_iteratorIP4nodeSt6vectorIS1_SaIS1_EEEplEl(%"class.__gnu_cxx::__normal_iterator.9"* %0, i64 %1) #4 comdat align 2 {
  %3 = alloca %"class.__gnu_cxx::__normal_iterator.9", align 8
  %4 = alloca %struct.node*, align 8
  %5 = getelementptr inbounds %"class.__gnu_cxx::__normal_iterator.9", %"class.__gnu_cxx::__normal_iterator.9"* %0, i32 0, i32 0
  %6 = load %struct.node*, %struct.node** %5, align 8
  %7 = getelementptr inbounds %struct.node, %struct.node* %6, i64 %1
  store %struct.node* %7, %struct.node** %4, align 8
  call void @_ZN9__gnu_cxx17__normal_iteratorIP4nodeSt6vectorIS1_SaIS1_EEEC2ERKS2_(%"class.__gnu_cxx::__normal_iterator.9"* %3, %struct.node** dereferenceable(8) %4) #3
  %8 = getelementptr inbounds %"class.__gnu_cxx::__normal_iterator.9", %"class.__gnu_cxx::__normal_iterator.9"* %3, i32 0, i32 0
  %9 = load %struct.node*, %struct.node** %8, align 8
  ret %struct.node* %9
}

; Function Attrs: noinline nounwind uwtable
define linkonce_odr dereferenceable(48) %struct.node* @_ZN4nodeaSEOS_(%struct.node* %0, %struct.node* dereferenceable(48) %1) #4 comdat align 2 {
  %3 = getelementptr inbounds %struct.node, %struct.node* %0, i32 0, i32 0
  %4 = getelementptr inbounds %struct.node, %struct.node* %1, i32 0, i32 0
  %5 = bitcast i32* %3 to i8*
  %6 = bitcast i32* %4 to i8*
  call void @llvm.memcpy.p0i8.p0i8.i64(i8* align 8 %5, i8* align 8 %6, i64 16, i1 false)
  %7 = getelementptr inbounds %struct.node, %struct.node* %0, i32 0, i32 3
  %8 = getelementptr inbounds %struct.node, %struct.node* %1, i32 0, i32 3
  %9 = call dereferenceable(32) %"class.std::__cxx11::basic_string"* @_ZNSt7__cxx1112basic_stringIcSt11char_traitsIcESaIcEEaSEOS4_(%"class.std::__cxx11::basic_string"* %7, %"class.std::__cxx11::basic_string"* dereferenceable(32) %8) #3
  ret %struct.node* %0
}

; Function Attrs: noinline uwtable
define linkonce_odr zeroext i1 @_ZNKSt4lessI4nodeEclERKS0_S3_(%"struct.std::less"* %0, %struct.node* dereferenceable(48) %1, %struct.node* dereferenceable(48) %2) #0 comdat align 2 {
  %4 = call zeroext i1 @_ZNK4nodeltERKS_(%struct.node* %1, %struct.node* dereferenceable(48) %2)
  ret i1 %4
}

; Function Attrs: noinline nounwind uwtable
define linkonce_odr zeroext i1 @_ZNK4nodeltERKS_(%struct.node* %0, %struct.node* dereferenceable(48) %1) #4 comdat align 2 {
  %3 = getelementptr inbounds %struct.node, %struct.node* %0, i32 0, i32 0
  %4 = load i32, i32* %3, align 8
  %5 = getelementptr inbounds %struct.node, %struct.node* %1, i32 0, i32 0
  %6 = load i32, i32* %5, align 8
  %7 = icmp sgt i32 %4, %6
  br i1 %7, label %20, label %8

8:                                                ; preds = %2
  %9 = getelementptr inbounds %struct.node, %struct.node* %0, i32 0, i32 0
  %10 = load i32, i32* %9, align 8
  %11 = getelementptr inbounds %struct.node, %struct.node* %1, i32 0, i32 0
  %12 = load i32, i32* %11, align 8
  %13 = icmp eq i32 %10, %12
  br i1 %13, label %14, label %18

14:                                               ; preds = %8
  %15 = getelementptr inbounds %struct.node, %struct.node* %0, i32 0, i32 3
  %16 = getelementptr inbounds %struct.node, %struct.node* %1, i32 0, i32 3
  %17 = call zeroext i1 @_ZStgtIcSt11char_traitsIcESaIcEEbRKNSt7__cxx1112basic_stringIT_T0_T1_EESA_(%"class.std::__cxx11::basic_string"* dereferenceable(32) %15, %"class.std::__cxx11::basic_string"* dereferenceable(32) %16) #3
  br label %18

18:                                               ; preds = %14, %8
  %19 = phi i1 [ false, %8 ], [ %17, %14 ]
  br label %20

20:                                               ; preds = %18, %2
  %21 = phi i1 [ true, %2 ], [ %19, %18 ]
  ret i1 %21
}

; Function Attrs: noinline nounwind uwtable
define linkonce_odr zeroext i1 @_ZStgtIcSt11char_traitsIcESaIcEEbRKNSt7__cxx1112basic_stringIT_T0_T1_EESA_(%"class.std::__cxx11::basic_string"* dereferenceable(32) %0, %"class.std::__cxx11::basic_string"* dereferenceable(32) %1) #4 comdat personality i8* bitcast (i32 (...)* @__gxx_personality_v0 to i8*) {
  %3 = invoke i32 @_ZNKSt7__cxx1112basic_stringIcSt11char_traitsIcESaIcEE7compareERKS4_(%"class.std::__cxx11::basic_string"* %0, %"class.std::__cxx11::basic_string"* dereferenceable(32) %1)
          to label %4 unwind label %6

4:                                                ; preds = %2
  %5 = icmp sgt i32 %3, 0
  ret i1 %5

6:                                                ; preds = %2
  %7 = landingpad { i8*, i32 }
          catch i8* null
  %8 = extractvalue { i8*, i32 } %7, 0
  call void @__clang_call_terminate(i8* %8) #12
  unreachable
}

declare i32 @_ZNKSt7__cxx1112basic_stringIcSt11char_traitsIcESaIcEE7compareERKS4_(%"class.std::__cxx11::basic_string"*, %"class.std::__cxx11::basic_string"* dereferenceable(32)) #1

; Function Attrs: nounwind
declare dereferenceable(32) %"class.std::__cxx11::basic_string"* @_ZNSt7__cxx1112basic_stringIcSt11char_traitsIcESaIcEEaSEOS4_(%"class.std::__cxx11::basic_string"*, %"class.std::__cxx11::basic_string"* dereferenceable(32)) #2

; Function Attrs: noinline nounwind uwtable
define linkonce_odr zeroext i1 @_ZNKSt6vectorI4nodeSaIS0_EE5emptyEv(%"class.std::vector.3"* %0) #4 comdat align 2 {
  %2 = alloca %"class.__gnu_cxx::__normal_iterator.11", align 8
  %3 = alloca %"class.__gnu_cxx::__normal_iterator.11", align 8
  %4 = call %struct.node* @_ZNKSt6vectorI4nodeSaIS0_EE5beginEv(%"class.std::vector.3"* %0) #3
  %5 = getelementptr inbounds %"class.__gnu_cxx::__normal_iterator.11", %"class.__gnu_cxx::__normal_iterator.11"* %2, i32 0, i32 0
  store %struct.node* %4, %struct.node** %5, align 8
  %6 = call %struct.node* @_ZNKSt6vectorI4nodeSaIS0_EE3endEv(%"class.std::vector.3"* %0) #3
  %7 = getelementptr inbounds %"class.__gnu_cxx::__normal_iterator.11", %"class.__gnu_cxx::__normal_iterator.11"* %3, i32 0, i32 0
  store %struct.node* %6, %struct.node** %7, align 8
  %8 = call zeroext i1 @_ZN9__gnu_cxxeqIPK4nodeSt6vectorIS1_SaIS1_EEEEbRKNS_17__normal_iteratorIT_T0_EESC_(%"class.__gnu_cxx::__normal_iterator.11"* dereferenceable(8) %2, %"class.__gnu_cxx::__normal_iterator.11"* dereferenceable(8) %3) #3
  ret i1 %8
}

; Function Attrs: noinline nounwind uwtable
define linkonce_odr zeroext i1 @_ZN9__gnu_cxxeqIPK4nodeSt6vectorIS1_SaIS1_EEEEbRKNS_17__normal_iteratorIT_T0_EESC_(%"class.__gnu_cxx::__normal_iterator.11"* dereferenceable(8) %0, %"class.__gnu_cxx::__normal_iterator.11"* dereferenceable(8) %1) #4 comdat {
  %3 = call dereferenceable(8) %struct.node** @_ZNK9__gnu_cxx17__normal_iteratorIPK4nodeSt6vectorIS1_SaIS1_EEE4baseEv(%"class.__gnu_cxx::__normal_iterator.11"* %0) #3
  %4 = load %struct.node*, %struct.node** %3, align 8
  %5 = call dereferenceable(8) %struct.node** @_ZNK9__gnu_cxx17__normal_iteratorIPK4nodeSt6vectorIS1_SaIS1_EEE4baseEv(%"class.__gnu_cxx::__normal_iterator.11"* %1) #3
  %6 = load %struct.node*, %struct.node** %5, align 8
  %7 = icmp eq %struct.node* %4, %6
  ret i1 %7
}

; Function Attrs: noinline nounwind uwtable
define linkonce_odr %struct.node* @_ZNKSt6vectorI4nodeSaIS0_EE5beginEv(%"class.std::vector.3"* %0) #4 comdat align 2 {
  %2 = alloca %"class.__gnu_cxx::__normal_iterator.11", align 8
  %3 = alloca %struct.node*, align 8
  %4 = bitcast %"class.std::vector.3"* %0 to %"struct.std::_Vector_base.4"*
  %5 = getelementptr inbounds %"struct.std::_Vector_base.4", %"struct.std::_Vector_base.4"* %4, i32 0, i32 0
  %6 = getelementptr inbounds %"struct.std::_Vector_base<node, std::allocator<node> >::_Vector_impl", %"struct.std::_Vector_base<node, std::allocator<node> >::_Vector_impl"* %5, i32 0, i32 0
  %7 = load %struct.node*, %struct.node** %6, align 8
  store %struct.node* %7, %struct.node** %3, align 8
  call void @_ZN9__gnu_cxx17__normal_iteratorIPK4nodeSt6vectorIS1_SaIS1_EEEC2ERKS3_(%"class.__gnu_cxx::__normal_iterator.11"* %2, %struct.node** dereferenceable(8) %3) #3
  %8 = getelementptr inbounds %"class.__gnu_cxx::__normal_iterator.11", %"class.__gnu_cxx::__normal_iterator.11"* %2, i32 0, i32 0
  %9 = load %struct.node*, %struct.node** %8, align 8
  ret %struct.node* %9
}

; Function Attrs: noinline nounwind uwtable
define linkonce_odr %struct.node* @_ZNKSt6vectorI4nodeSaIS0_EE3endEv(%"class.std::vector.3"* %0) #4 comdat align 2 {
  %2 = alloca %"class.__gnu_cxx::__normal_iterator.11", align 8
  %3 = alloca %struct.node*, align 8
  %4 = bitcast %"class.std::vector.3"* %0 to %"struct.std::_Vector_base.4"*
  %5 = getelementptr inbounds %"struct.std::_Vector_base.4", %"struct.std::_Vector_base.4"* %4, i32 0, i32 0
  %6 = getelementptr inbounds %"struct.std::_Vector_base<node, std::allocator<node> >::_Vector_impl", %"struct.std::_Vector_base<node, std::allocator<node> >::_Vector_impl"* %5, i32 0, i32 1
  %7 = load %struct.node*, %struct.node** %6, align 8
  store %struct.node* %7, %struct.node** %3, align 8
  call void @_ZN9__gnu_cxx17__normal_iteratorIPK4nodeSt6vectorIS1_SaIS1_EEEC2ERKS3_(%"class.__gnu_cxx::__normal_iterator.11"* %2, %struct.node** dereferenceable(8) %3) #3
  %8 = getelementptr inbounds %"class.__gnu_cxx::__normal_iterator.11", %"class.__gnu_cxx::__normal_iterator.11"* %2, i32 0, i32 0
  %9 = load %struct.node*, %struct.node** %8, align 8
  ret %struct.node* %9
}

; Function Attrs: noinline nounwind uwtable
define linkonce_odr dereferenceable(8) %struct.node** @_ZNK9__gnu_cxx17__normal_iteratorIPK4nodeSt6vectorIS1_SaIS1_EEE4baseEv(%"class.__gnu_cxx::__normal_iterator.11"* %0) #4 comdat align 2 {
  %2 = getelementptr inbounds %"class.__gnu_cxx::__normal_iterator.11", %"class.__gnu_cxx::__normal_iterator.11"* %0, i32 0, i32 0
  ret %struct.node** %2
}

; Function Attrs: noinline nounwind uwtable
define linkonce_odr void @_ZN9__gnu_cxx17__normal_iteratorIPK4nodeSt6vectorIS1_SaIS1_EEEC2ERKS3_(%"class.__gnu_cxx::__normal_iterator.11"* %0, %struct.node** dereferenceable(8) %1) unnamed_addr #4 comdat align 2 {
  %3 = getelementptr inbounds %"class.__gnu_cxx::__normal_iterator.11", %"class.__gnu_cxx::__normal_iterator.11"* %0, i32 0, i32 0
  %4 = load %struct.node*, %struct.node** %1, align 8
  store %struct.node* %4, %struct.node** %3, align 8
  ret void
}

; Function Attrs: noinline nounwind uwtable
define linkonce_odr dereferenceable(48) %struct.node* @_ZNKSt6vectorI4nodeSaIS0_EE5frontEv(%"class.std::vector.3"* %0) #4 comdat align 2 {
  %2 = alloca %"class.__gnu_cxx::__normal_iterator.11", align 8
  %3 = call %struct.node* @_ZNKSt6vectorI4nodeSaIS0_EE5beginEv(%"class.std::vector.3"* %0) #3
  %4 = getelementptr inbounds %"class.__gnu_cxx::__normal_iterator.11", %"class.__gnu_cxx::__normal_iterator.11"* %2, i32 0, i32 0
  store %struct.node* %3, %struct.node** %4, align 8
  %5 = call dereferenceable(48) %struct.node* @_ZNK9__gnu_cxx17__normal_iteratorIPK4nodeSt6vectorIS1_SaIS1_EEEdeEv(%"class.__gnu_cxx::__normal_iterator.11"* %2) #3
  ret %struct.node* %5
}

; Function Attrs: noinline nounwind uwtable
define linkonce_odr dereferenceable(48) %struct.node* @_ZNK9__gnu_cxx17__normal_iteratorIPK4nodeSt6vectorIS1_SaIS1_EEEdeEv(%"class.__gnu_cxx::__normal_iterator.11"* %0) #4 comdat align 2 {
  %2 = getelementptr inbounds %"class.__gnu_cxx::__normal_iterator.11", %"class.__gnu_cxx::__normal_iterator.11"* %0, i32 0, i32 0
  %3 = load %struct.node*, %struct.node** %2, align 8
  ret %struct.node* %3
}

; Function Attrs: noinline uwtable
define linkonce_odr void @_ZSt8pop_heapIN9__gnu_cxx17__normal_iteratorIP4nodeSt6vectorIS2_SaIS2_EEEESt4lessIS2_EEvT_SA_T0_(%struct.node* %0, %struct.node* %1) #0 comdat {
  %3 = alloca %"class.__gnu_cxx::__normal_iterator.9", align 8
  %4 = alloca %"class.__gnu_cxx::__normal_iterator.9", align 8
  %5 = alloca %"struct.std::less", align 1
  %6 = alloca %"struct.__gnu_cxx::__ops::_Iter_comp_iter", align 1
  %7 = alloca %"class.__gnu_cxx::__normal_iterator.9", align 8
  %8 = alloca %"class.__gnu_cxx::__normal_iterator.9", align 8
  %9 = alloca %"class.__gnu_cxx::__normal_iterator.9", align 8
  %10 = getelementptr inbounds %"class.__gnu_cxx::__normal_iterator.9", %"class.__gnu_cxx::__normal_iterator.9"* %3, i32 0, i32 0
  store %struct.node* %0, %struct.node** %10, align 8
  %11 = getelementptr inbounds %"class.__gnu_cxx::__normal_iterator.9", %"class.__gnu_cxx::__normal_iterator.9"* %4, i32 0, i32 0
  store %struct.node* %1, %struct.node** %11, align 8
  %12 = call i64 @_ZN9__gnu_cxxmiIP4nodeSt6vectorIS1_SaIS1_EEEENS_17__normal_iteratorIT_T0_E15difference_typeERKS9_SC_(%"class.__gnu_cxx::__normal_iterator.9"* dereferenceable(8) %4, %"class.__gnu_cxx::__normal_iterator.9"* dereferenceable(8) %3) #3
  %13 = icmp sgt i64 %12, 1
  br i1 %13, label %14, label %29

14:                                               ; preds = %2
  %15 = call dereferenceable(1) %"struct.std::less"* @_ZSt4moveIRSt4lessI4nodeEEONSt16remove_referenceIT_E4typeEOS5_(%"struct.std::less"* dereferenceable(1) %5) #3
  call void @_ZN9__gnu_cxx5__ops15_Iter_comp_iterISt4lessI4nodeEEC2ES4_(%"struct.__gnu_cxx::__ops::_Iter_comp_iter"* %6)
  %16 = call dereferenceable(8) %"class.__gnu_cxx::__normal_iterator.9"* @_ZN9__gnu_cxx17__normal_iteratorIP4nodeSt6vectorIS1_SaIS1_EEEmmEv(%"class.__gnu_cxx::__normal_iterator.9"* %4) #3
  %17 = bitcast %"class.__gnu_cxx::__normal_iterator.9"* %7 to i8*
  %18 = bitcast %"class.__gnu_cxx::__normal_iterator.9"* %3 to i8*
  call void @llvm.memcpy.p0i8.p0i8.i64(i8* align 8 %17, i8* align 8 %18, i64 8, i1 false)
  %19 = bitcast %"class.__gnu_cxx::__normal_iterator.9"* %8 to i8*
  %20 = bitcast %"class.__gnu_cxx::__normal_iterator.9"* %4 to i8*
  call void @llvm.memcpy.p0i8.p0i8.i64(i8* align 8 %19, i8* align 8 %20, i64 8, i1 false)
  %21 = bitcast %"class.__gnu_cxx::__normal_iterator.9"* %9 to i8*
  %22 = bitcast %"class.__gnu_cxx::__normal_iterator.9"* %4 to i8*
  call void @llvm.memcpy.p0i8.p0i8.i64(i8* align 8 %21, i8* align 8 %22, i64 8, i1 false)
  %23 = getelementptr inbounds %"class.__gnu_cxx::__normal_iterator.9", %"class.__gnu_cxx::__normal_iterator.9"* %7, i32 0, i32 0
  %24 = load %struct.node*, %struct.node** %23, align 8
  %25 = getelementptr inbounds %"class.__gnu_cxx::__normal_iterator.9", %"class.__gnu_cxx::__normal_iterator.9"* %8, i32 0, i32 0
  %26 = load %struct.node*, %struct.node** %25, align 8
  %27 = getelementptr inbounds %"class.__gnu_cxx::__normal_iterator.9", %"class.__gnu_cxx::__normal_iterator.9"* %9, i32 0, i32 0
  %28 = load %struct.node*, %struct.node** %27, align 8
  call void @_ZSt10__pop_heapIN9__gnu_cxx17__normal_iteratorIP4nodeSt6vectorIS2_SaIS2_EEEENS0_5__ops15_Iter_comp_iterISt4lessIS2_EEEEvT_SD_SD_RT0_(%struct.node* %24, %struct.node* %26, %struct.node* %28, %"struct.__gnu_cxx::__ops::_Iter_comp_iter"* dereferenceable(1) %6)
  br label %29

29:                                               ; preds = %14, %2
  ret void
}

; Function Attrs: noinline nounwind uwtable
define linkonce_odr void @_ZNSt6vectorI4nodeSaIS0_EE8pop_backEv(%"class.std::vector.3"* %0) #4 comdat align 2 personality i8* bitcast (i32 (...)* @__gxx_personality_v0 to i8*) {
  %2 = bitcast %"class.std::vector.3"* %0 to %"struct.std::_Vector_base.4"*
  %3 = getelementptr inbounds %"struct.std::_Vector_base.4", %"struct.std::_Vector_base.4"* %2, i32 0, i32 0
  %4 = getelementptr inbounds %"struct.std::_Vector_base<node, std::allocator<node> >::_Vector_impl", %"struct.std::_Vector_base<node, std::allocator<node> >::_Vector_impl"* %3, i32 0, i32 1
  %5 = load %struct.node*, %struct.node** %4, align 8
  %6 = getelementptr inbounds %struct.node, %struct.node* %5, i32 -1
  store %struct.node* %6, %struct.node** %4, align 8
  %7 = bitcast %"class.std::vector.3"* %0 to %"struct.std::_Vector_base.4"*
  %8 = getelementptr inbounds %"struct.std::_Vector_base.4", %"struct.std::_Vector_base.4"* %7, i32 0, i32 0
  %9 = bitcast %"struct.std::_Vector_base<node, std::allocator<node> >::_Vector_impl"* %8 to %"class.std::allocator.5"*
  %10 = bitcast %"class.std::vector.3"* %0 to %"struct.std::_Vector_base.4"*
  %11 = getelementptr inbounds %"struct.std::_Vector_base.4", %"struct.std::_Vector_base.4"* %10, i32 0, i32 0
  %12 = getelementptr inbounds %"struct.std::_Vector_base<node, std::allocator<node> >::_Vector_impl", %"struct.std::_Vector_base<node, std::allocator<node> >::_Vector_impl"* %11, i32 0, i32 1
  %13 = load %struct.node*, %struct.node** %12, align 8
  invoke void @_ZNSt16allocator_traitsISaI4nodeEE7destroyIS0_EEvRS1_PT_(%"class.std::allocator.5"* dereferenceable(1) %9, %struct.node* %13)
          to label %14 unwind label %15

14:                                               ; preds = %1
  ret void

15:                                               ; preds = %1
  %16 = landingpad { i8*, i32 }
          catch i8* null
  %17 = extractvalue { i8*, i32 } %16, 0
  call void @__clang_call_terminate(i8* %17) #12
  unreachable
}

; Function Attrs: noinline nounwind uwtable
define linkonce_odr void @_ZN9__gnu_cxx5__ops15_Iter_comp_iterISt4lessI4nodeEEC2ES4_(%"struct.__gnu_cxx::__ops::_Iter_comp_iter"* %0) unnamed_addr #4 comdat align 2 {
  %2 = alloca %"struct.std::less", align 1
  %3 = getelementptr inbounds %"struct.__gnu_cxx::__ops::_Iter_comp_iter", %"struct.__gnu_cxx::__ops::_Iter_comp_iter"* %0, i32 0, i32 0
  %4 = call dereferenceable(1) %"struct.std::less"* @_ZSt4moveIRSt4lessI4nodeEEONSt16remove_referenceIT_E4typeEOS5_(%"struct.std::less"* dereferenceable(1) %2) #3
  ret void
}

; Function Attrs: noinline nounwind uwtable
define linkonce_odr dereferenceable(8) %"class.__gnu_cxx::__normal_iterator.9"* @_ZN9__gnu_cxx17__normal_iteratorIP4nodeSt6vectorIS1_SaIS1_EEEmmEv(%"class.__gnu_cxx::__normal_iterator.9"* %0) #4 comdat align 2 {
  %2 = getelementptr inbounds %"class.__gnu_cxx::__normal_iterator.9", %"class.__gnu_cxx::__normal_iterator.9"* %0, i32 0, i32 0
  %3 = load %struct.node*, %struct.node** %2, align 8
  %4 = getelementptr inbounds %struct.node, %struct.node* %3, i32 -1
  store %struct.node* %4, %struct.node** %2, align 8
  ret %"class.__gnu_cxx::__normal_iterator.9"* %0
}

; Function Attrs: noinline uwtable
define linkonce_odr void @_ZSt10__pop_heapIN9__gnu_cxx17__normal_iteratorIP4nodeSt6vectorIS2_SaIS2_EEEENS0_5__ops15_Iter_comp_iterISt4lessIS2_EEEEvT_SD_SD_RT0_(%struct.node* %0, %struct.node* %1, %struct.node* %2, %"struct.__gnu_cxx::__ops::_Iter_comp_iter"* dereferenceable(1) %3) #0 comdat personality i8* bitcast (i32 (...)* @__gxx_personality_v0 to i8*) {
  %5 = alloca %"class.__gnu_cxx::__normal_iterator.9", align 8
  %6 = alloca %"class.__gnu_cxx::__normal_iterator.9", align 8
  %7 = alloca %"class.__gnu_cxx::__normal_iterator.9", align 8
  %8 = alloca %struct.node, align 8
  %9 = alloca %"class.__gnu_cxx::__normal_iterator.9", align 8
  %10 = alloca %struct.node, align 8
  %11 = alloca %"struct.__gnu_cxx::__ops::_Iter_comp_iter", align 1
  %12 = getelementptr inbounds %"class.__gnu_cxx::__normal_iterator.9", %"class.__gnu_cxx::__normal_iterator.9"* %5, i32 0, i32 0
  store %struct.node* %0, %struct.node** %12, align 8
  %13 = getelementptr inbounds %"class.__gnu_cxx::__normal_iterator.9", %"class.__gnu_cxx::__normal_iterator.9"* %6, i32 0, i32 0
  store %struct.node* %1, %struct.node** %13, align 8
  %14 = getelementptr inbounds %"class.__gnu_cxx::__normal_iterator.9", %"class.__gnu_cxx::__normal_iterator.9"* %7, i32 0, i32 0
  store %struct.node* %2, %struct.node** %14, align 8
  %15 = call dereferenceable(48) %struct.node* @_ZNK9__gnu_cxx17__normal_iteratorIP4nodeSt6vectorIS1_SaIS1_EEEdeEv(%"class.__gnu_cxx::__normal_iterator.9"* %7) #3
  %16 = call dereferenceable(48) %struct.node* @_ZSt4moveIR4nodeEONSt16remove_referenceIT_E4typeEOS3_(%struct.node* dereferenceable(48) %15) #3
  call void @_ZN4nodeC2EOS_(%struct.node* %8, %struct.node* dereferenceable(48) %16) #3
  %17 = call dereferenceable(48) %struct.node* @_ZNK9__gnu_cxx17__normal_iteratorIP4nodeSt6vectorIS1_SaIS1_EEEdeEv(%"class.__gnu_cxx::__normal_iterator.9"* %5) #3
  %18 = call dereferenceable(48) %struct.node* @_ZSt4moveIR4nodeEONSt16remove_referenceIT_E4typeEOS3_(%struct.node* dereferenceable(48) %17) #3
  %19 = call dereferenceable(48) %struct.node* @_ZNK9__gnu_cxx17__normal_iteratorIP4nodeSt6vectorIS1_SaIS1_EEEdeEv(%"class.__gnu_cxx::__normal_iterator.9"* %7) #3
  %20 = call dereferenceable(48) %struct.node* @_ZN4nodeaSEOS_(%struct.node* %19, %struct.node* dereferenceable(48) %18) #3
  %21 = bitcast %"class.__gnu_cxx::__normal_iterator.9"* %9 to i8*
  %22 = bitcast %"class.__gnu_cxx::__normal_iterator.9"* %5 to i8*
  call void @llvm.memcpy.p0i8.p0i8.i64(i8* align 8 %21, i8* align 8 %22, i64 8, i1 false)
  %23 = call i64 @_ZN9__gnu_cxxmiIP4nodeSt6vectorIS1_SaIS1_EEEENS_17__normal_iteratorIT_T0_E15difference_typeERKS9_SC_(%"class.__gnu_cxx::__normal_iterator.9"* dereferenceable(8) %6, %"class.__gnu_cxx::__normal_iterator.9"* dereferenceable(8) %5) #3
  %24 = call dereferenceable(48) %struct.node* @_ZSt4moveIR4nodeEONSt16remove_referenceIT_E4typeEOS3_(%struct.node* dereferenceable(48) %8) #3
  call void @_ZN4nodeC2EOS_(%struct.node* %10, %struct.node* dereferenceable(48) %24) #3
  %25 = bitcast %"struct.__gnu_cxx::__ops::_Iter_comp_iter"* %11 to i8*
  %26 = bitcast %"struct.__gnu_cxx::__ops::_Iter_comp_iter"* %3 to i8*
  call void @llvm.memcpy.p0i8.p0i8.i64(i8* align 1 %25, i8* align 1 %26, i64 1, i1 false)
  %27 = getelementptr inbounds %"class.__gnu_cxx::__normal_iterator.9", %"class.__gnu_cxx::__normal_iterator.9"* %9, i32 0, i32 0
  %28 = load %struct.node*, %struct.node** %27, align 8
  invoke void @_ZSt13__adjust_heapIN9__gnu_cxx17__normal_iteratorIP4nodeSt6vectorIS2_SaIS2_EEEElS2_NS0_5__ops15_Iter_comp_iterISt4lessIS2_EEEEvT_T0_SE_T1_T2_(%struct.node* %28, i64 0, i64 %23, %struct.node* %10)
          to label %29 unwind label %30

29:                                               ; preds = %4
  call void @_ZN4nodeD2Ev(%struct.node* %10) #3
  call void @_ZN4nodeD2Ev(%struct.node* %8) #3
  ret void

30:                                               ; preds = %4
  %31 = landingpad { i8*, i32 }
          cleanup
  %32 = extractvalue { i8*, i32 } %31, 0
  %33 = extractvalue { i8*, i32 } %31, 1
  call void @_ZN4nodeD2Ev(%struct.node* %10) #3
  call void @_ZN4nodeD2Ev(%struct.node* %8) #3
  br label %34

34:                                               ; preds = %30
  %35 = insertvalue { i8*, i32 } undef, i8* %32, 0
  %36 = insertvalue { i8*, i32 } %35, i32 %33, 1
  resume { i8*, i32 } %36
}

; Function Attrs: noinline uwtable
define linkonce_odr void @_ZSt13__adjust_heapIN9__gnu_cxx17__normal_iteratorIP4nodeSt6vectorIS2_SaIS2_EEEElS2_NS0_5__ops15_Iter_comp_iterISt4lessIS2_EEEEvT_T0_SE_T1_T2_(%struct.node* %0, i64 %1, i64 %2, %struct.node* %3) #0 comdat personality i8* bitcast (i32 (...)* @__gxx_personality_v0 to i8*) {
  %5 = alloca %"class.__gnu_cxx::__normal_iterator.9", align 8
  %6 = alloca %"struct.__gnu_cxx::__ops::_Iter_comp_iter", align 1
  %7 = alloca %"class.__gnu_cxx::__normal_iterator.9", align 8
  %8 = alloca %"class.__gnu_cxx::__normal_iterator.9", align 8
  %9 = alloca %"class.__gnu_cxx::__normal_iterator.9", align 8
  %10 = alloca %"class.__gnu_cxx::__normal_iterator.9", align 8
  %11 = alloca %"class.__gnu_cxx::__normal_iterator.9", align 8
  %12 = alloca %"class.__gnu_cxx::__normal_iterator.9", align 8
  %13 = alloca %"struct.__gnu_cxx::__ops::_Iter_comp_val", align 1
  %14 = alloca %"class.__gnu_cxx::__normal_iterator.9", align 8
  %15 = alloca %struct.node, align 8
  %16 = getelementptr inbounds %"class.__gnu_cxx::__normal_iterator.9", %"class.__gnu_cxx::__normal_iterator.9"* %5, i32 0, i32 0
  store %struct.node* %0, %struct.node** %16, align 8
  br label %17

17:                                               ; preds = %36, %4
  %.01 = phi i64 [ %1, %4 ], [ %.12, %36 ]
  %.0 = phi i64 [ %1, %4 ], [ %.12, %36 ]
  %18 = sub nsw i64 %2, 1
  %19 = sdiv i64 %18, 2
  %20 = icmp slt i64 %.01, %19
  br i1 %20, label %21, label %45

21:                                               ; preds = %17
  %22 = add nsw i64 %.01, 1
  %23 = mul nsw i64 2, %22
  %24 = call %struct.node* @_ZNK9__gnu_cxx17__normal_iteratorIP4nodeSt6vectorIS1_SaIS1_EEEplEl(%"class.__gnu_cxx::__normal_iterator.9"* %5, i64 %23) #3
  %25 = getelementptr inbounds %"class.__gnu_cxx::__normal_iterator.9", %"class.__gnu_cxx::__normal_iterator.9"* %7, i32 0, i32 0
  store %struct.node* %24, %struct.node** %25, align 8
  %26 = sub nsw i64 %23, 1
  %27 = call %struct.node* @_ZNK9__gnu_cxx17__normal_iteratorIP4nodeSt6vectorIS1_SaIS1_EEEplEl(%"class.__gnu_cxx::__normal_iterator.9"* %5, i64 %26) #3
  %28 = getelementptr inbounds %"class.__gnu_cxx::__normal_iterator.9", %"class.__gnu_cxx::__normal_iterator.9"* %8, i32 0, i32 0
  store %struct.node* %27, %struct.node** %28, align 8
  %29 = getelementptr inbounds %"class.__gnu_cxx::__normal_iterator.9", %"class.__gnu_cxx::__normal_iterator.9"* %7, i32 0, i32 0
  %30 = load %struct.node*, %struct.node** %29, align 8
  %31 = getelementptr inbounds %"class.__gnu_cxx::__normal_iterator.9", %"class.__gnu_cxx::__normal_iterator.9"* %8, i32 0, i32 0
  %32 = load %struct.node*, %struct.node** %31, align 8
  %33 = call zeroext i1 @_ZN9__gnu_cxx5__ops15_Iter_comp_iterISt4lessI4nodeEEclINS_17__normal_iteratorIPS3_St6vectorIS3_SaIS3_EEEESC_EEbT_T0_(%"struct.__gnu_cxx::__ops::_Iter_comp_iter"* %6, %struct.node* %30, %struct.node* %32)
  br i1 %33, label %34, label %36

34:                                               ; preds = %21
  %35 = add nsw i64 %23, -1
  br label %36

36:                                               ; preds = %34, %21
  %.12 = phi i64 [ %35, %34 ], [ %23, %21 ]
  %37 = call %struct.node* @_ZNK9__gnu_cxx17__normal_iteratorIP4nodeSt6vectorIS1_SaIS1_EEEplEl(%"class.__gnu_cxx::__normal_iterator.9"* %5, i64 %.12) #3
  %38 = getelementptr inbounds %"class.__gnu_cxx::__normal_iterator.9", %"class.__gnu_cxx::__normal_iterator.9"* %9, i32 0, i32 0
  store %struct.node* %37, %struct.node** %38, align 8
  %39 = call dereferenceable(48) %struct.node* @_ZNK9__gnu_cxx17__normal_iteratorIP4nodeSt6vectorIS1_SaIS1_EEEdeEv(%"class.__gnu_cxx::__normal_iterator.9"* %9) #3
  %40 = call dereferenceable(48) %struct.node* @_ZSt4moveIR4nodeEONSt16remove_referenceIT_E4typeEOS3_(%struct.node* dereferenceable(48) %39) #3
  %41 = call %struct.node* @_ZNK9__gnu_cxx17__normal_iteratorIP4nodeSt6vectorIS1_SaIS1_EEEplEl(%"class.__gnu_cxx::__normal_iterator.9"* %5, i64 %.0) #3
  %42 = getelementptr inbounds %"class.__gnu_cxx::__normal_iterator.9", %"class.__gnu_cxx::__normal_iterator.9"* %10, i32 0, i32 0
  store %struct.node* %41, %struct.node** %42, align 8
  %43 = call dereferenceable(48) %struct.node* @_ZNK9__gnu_cxx17__normal_iteratorIP4nodeSt6vectorIS1_SaIS1_EEEdeEv(%"class.__gnu_cxx::__normal_iterator.9"* %10) #3
  %44 = call dereferenceable(48) %struct.node* @_ZN4nodeaSEOS_(%struct.node* %43, %struct.node* dereferenceable(48) %40) #3
  br label %17

45:                                               ; preds = %17
  %46 = and i64 %2, 1
  %47 = icmp eq i64 %46, 0
  br i1 %47, label %48, label %65

48:                                               ; preds = %45
  %49 = sub nsw i64 %2, 2
  %50 = sdiv i64 %49, 2
  %51 = icmp eq i64 %.01, %50
  br i1 %51, label %52, label %65

52:                                               ; preds = %48
  %53 = add nsw i64 %.01, 1
  %54 = mul nsw i64 2, %53
  %55 = sub nsw i64 %54, 1
  %56 = call %struct.node* @_ZNK9__gnu_cxx17__normal_iteratorIP4nodeSt6vectorIS1_SaIS1_EEEplEl(%"class.__gnu_cxx::__normal_iterator.9"* %5, i64 %55) #3
  %57 = getelementptr inbounds %"class.__gnu_cxx::__normal_iterator.9", %"class.__gnu_cxx::__normal_iterator.9"* %11, i32 0, i32 0
  store %struct.node* %56, %struct.node** %57, align 8
  %58 = call dereferenceable(48) %struct.node* @_ZNK9__gnu_cxx17__normal_iteratorIP4nodeSt6vectorIS1_SaIS1_EEEdeEv(%"class.__gnu_cxx::__normal_iterator.9"* %11) #3
  %59 = call dereferenceable(48) %struct.node* @_ZSt4moveIR4nodeEONSt16remove_referenceIT_E4typeEOS3_(%struct.node* dereferenceable(48) %58) #3
  %60 = call %struct.node* @_ZNK9__gnu_cxx17__normal_iteratorIP4nodeSt6vectorIS1_SaIS1_EEEplEl(%"class.__gnu_cxx::__normal_iterator.9"* %5, i64 %.0) #3
  %61 = getelementptr inbounds %"class.__gnu_cxx::__normal_iterator.9", %"class.__gnu_cxx::__normal_iterator.9"* %12, i32 0, i32 0
  store %struct.node* %60, %struct.node** %61, align 8
  %62 = call dereferenceable(48) %struct.node* @_ZNK9__gnu_cxx17__normal_iteratorIP4nodeSt6vectorIS1_SaIS1_EEEdeEv(%"class.__gnu_cxx::__normal_iterator.9"* %12) #3
  %63 = call dereferenceable(48) %struct.node* @_ZN4nodeaSEOS_(%struct.node* %62, %struct.node* dereferenceable(48) %59) #3
  %64 = sub nsw i64 %54, 1
  br label %65

65:                                               ; preds = %52, %48, %45
  %.1 = phi i64 [ %64, %52 ], [ %.0, %48 ], [ %.0, %45 ]
  %66 = call dereferenceable(1) %"struct.__gnu_cxx::__ops::_Iter_comp_iter"* @_ZSt4moveIRN9__gnu_cxx5__ops15_Iter_comp_iterISt4lessI4nodeEEEEONSt16remove_referenceIT_E4typeEOS9_(%"struct.__gnu_cxx::__ops::_Iter_comp_iter"* dereferenceable(1) %6) #3
  call void @_ZN9__gnu_cxx5__ops14_Iter_comp_valISt4lessI4nodeEEC2EONS0_15_Iter_comp_iterIS4_EE(%"struct.__gnu_cxx::__ops::_Iter_comp_val"* %13, %"struct.__gnu_cxx::__ops::_Iter_comp_iter"* dereferenceable(1) %66)
  %67 = bitcast %"class.__gnu_cxx::__normal_iterator.9"* %14 to i8*
  %68 = bitcast %"class.__gnu_cxx::__normal_iterator.9"* %5 to i8*
  call void @llvm.memcpy.p0i8.p0i8.i64(i8* align 8 %67, i8* align 8 %68, i64 8, i1 false)
  %69 = call dereferenceable(48) %struct.node* @_ZSt4moveIR4nodeEONSt16remove_referenceIT_E4typeEOS3_(%struct.node* dereferenceable(48) %3) #3
  call void @_ZN4nodeC2EOS_(%struct.node* %15, %struct.node* dereferenceable(48) %69) #3
  %70 = getelementptr inbounds %"class.__gnu_cxx::__normal_iterator.9", %"class.__gnu_cxx::__normal_iterator.9"* %14, i32 0, i32 0
  %71 = load %struct.node*, %struct.node** %70, align 8
  invoke void @_ZSt11__push_heapIN9__gnu_cxx17__normal_iteratorIP4nodeSt6vectorIS2_SaIS2_EEEElS2_NS0_5__ops14_Iter_comp_valISt4lessIS2_EEEEvT_T0_SE_T1_RT2_(%struct.node* %71, i64 %.1, i64 %1, %struct.node* %15, %"struct.__gnu_cxx::__ops::_Iter_comp_val"* dereferenceable(1) %13)
          to label %72 unwind label %73

72:                                               ; preds = %65
  call void @_ZN4nodeD2Ev(%struct.node* %15) #3
  ret void

73:                                               ; preds = %65
  %74 = landingpad { i8*, i32 }
          cleanup
  %75 = extractvalue { i8*, i32 } %74, 0
  %76 = extractvalue { i8*, i32 } %74, 1
  call void @_ZN4nodeD2Ev(%struct.node* %15) #3
  br label %77

77:                                               ; preds = %73
  %78 = insertvalue { i8*, i32 } undef, i8* %75, 0
  %79 = insertvalue { i8*, i32 } %78, i32 %76, 1
  resume { i8*, i32 } %79
}

; Function Attrs: noinline uwtable
define linkonce_odr zeroext i1 @_ZN9__gnu_cxx5__ops15_Iter_comp_iterISt4lessI4nodeEEclINS_17__normal_iteratorIPS3_St6vectorIS3_SaIS3_EEEESC_EEbT_T0_(%"struct.__gnu_cxx::__ops::_Iter_comp_iter"* %0, %struct.node* %1, %struct.node* %2) #0 comdat align 2 {
  %4 = alloca %"class.__gnu_cxx::__normal_iterator.9", align 8
  %5 = alloca %"class.__gnu_cxx::__normal_iterator.9", align 8
  %6 = getelementptr inbounds %"class.__gnu_cxx::__normal_iterator.9", %"class.__gnu_cxx::__normal_iterator.9"* %4, i32 0, i32 0
  store %struct.node* %1, %struct.node** %6, align 8
  %7 = getelementptr inbounds %"class.__gnu_cxx::__normal_iterator.9", %"class.__gnu_cxx::__normal_iterator.9"* %5, i32 0, i32 0
  store %struct.node* %2, %struct.node** %7, align 8
  %8 = getelementptr inbounds %"struct.__gnu_cxx::__ops::_Iter_comp_iter", %"struct.__gnu_cxx::__ops::_Iter_comp_iter"* %0, i32 0, i32 0
  %9 = call dereferenceable(48) %struct.node* @_ZNK9__gnu_cxx17__normal_iteratorIP4nodeSt6vectorIS1_SaIS1_EEEdeEv(%"class.__gnu_cxx::__normal_iterator.9"* %4) #3
  %10 = call dereferenceable(48) %struct.node* @_ZNK9__gnu_cxx17__normal_iteratorIP4nodeSt6vectorIS1_SaIS1_EEEdeEv(%"class.__gnu_cxx::__normal_iterator.9"* %5) #3
  %11 = call zeroext i1 @_ZNKSt4lessI4nodeEclERKS0_S3_(%"struct.std::less"* %8, %struct.node* dereferenceable(48) %9, %struct.node* dereferenceable(48) %10)
  ret i1 %11
}

; Function Attrs: noinline nounwind uwtable
define linkonce_odr dereferenceable(1) %"struct.__gnu_cxx::__ops::_Iter_comp_iter"* @_ZSt4moveIRN9__gnu_cxx5__ops15_Iter_comp_iterISt4lessI4nodeEEEEONSt16remove_referenceIT_E4typeEOS9_(%"struct.__gnu_cxx::__ops::_Iter_comp_iter"* dereferenceable(1) %0) #4 comdat {
  ret %"struct.__gnu_cxx::__ops::_Iter_comp_iter"* %0
}

; Function Attrs: noinline nounwind uwtable
define linkonce_odr void @_ZN9__gnu_cxx5__ops14_Iter_comp_valISt4lessI4nodeEEC2EONS0_15_Iter_comp_iterIS4_EE(%"struct.__gnu_cxx::__ops::_Iter_comp_val"* %0, %"struct.__gnu_cxx::__ops::_Iter_comp_iter"* dereferenceable(1) %1) unnamed_addr #4 comdat align 2 {
  %3 = getelementptr inbounds %"struct.__gnu_cxx::__ops::_Iter_comp_val", %"struct.__gnu_cxx::__ops::_Iter_comp_val"* %0, i32 0, i32 0
  %4 = getelementptr inbounds %"struct.__gnu_cxx::__ops::_Iter_comp_iter", %"struct.__gnu_cxx::__ops::_Iter_comp_iter"* %1, i32 0, i32 0
  %5 = call dereferenceable(1) %"struct.std::less"* @_ZSt4moveIRSt4lessI4nodeEEONSt16remove_referenceIT_E4typeEOS5_(%"struct.std::less"* dereferenceable(1) %4) #3
  ret void
}

; Function Attrs: noinline uwtable
define linkonce_odr void @_ZNSt16allocator_traitsISaI4nodeEE9constructIS0_JRKS0_EEEvRS1_PT_DpOT0_(%"class.std::allocator.5"* dereferenceable(1) %0, %struct.node* %1, %struct.node* dereferenceable(48) %2) #0 comdat align 2 {
  %4 = bitcast %"class.std::allocator.5"* %0 to %"class.__gnu_cxx::new_allocator.6"*
  %5 = call dereferenceable(48) %struct.node* @_ZSt7forwardIRK4nodeEOT_RNSt16remove_referenceIS3_E4typeE(%struct.node* dereferenceable(48) %2) #3
  call void @_ZN9__gnu_cxx13new_allocatorI4nodeE9constructIS1_JRKS1_EEEvPT_DpOT0_(%"class.__gnu_cxx::new_allocator.6"* %4, %struct.node* %1, %struct.node* dereferenceable(48) %5)
  ret void
}

; Function Attrs: noinline uwtable
define linkonce_odr void @_ZNSt6vectorI4nodeSaIS0_EE17_M_realloc_insertIJRKS0_EEEvN9__gnu_cxx17__normal_iteratorIPS0_S2_EEDpOT_(%"class.std::vector.3"* %0, %struct.node* %1, %struct.node* dereferenceable(48) %2) #0 comdat align 2 personality i8* bitcast (i32 (...)* @__gxx_personality_v0 to i8*) {
  %4 = alloca %"class.__gnu_cxx::__normal_iterator.9", align 8
  %5 = alloca %"class.__gnu_cxx::__normal_iterator.9", align 8
  %6 = getelementptr inbounds %"class.__gnu_cxx::__normal_iterator.9", %"class.__gnu_cxx::__normal_iterator.9"* %4, i32 0, i32 0
  store %struct.node* %1, %struct.node** %6, align 8
  %7 = call i64 @_ZNKSt6vectorI4nodeSaIS0_EE12_M_check_lenEmPKc(%"class.std::vector.3"* %0, i64 1, i8* getelementptr inbounds ([26 x i8], [26 x i8]* @.str.4, i32 0, i32 0))
  %8 = bitcast %"class.std::vector.3"* %0 to %"struct.std::_Vector_base.4"*
  %9 = getelementptr inbounds %"struct.std::_Vector_base.4", %"struct.std::_Vector_base.4"* %8, i32 0, i32 0
  %10 = getelementptr inbounds %"struct.std::_Vector_base<node, std::allocator<node> >::_Vector_impl", %"struct.std::_Vector_base<node, std::allocator<node> >::_Vector_impl"* %9, i32 0, i32 0
  %11 = load %struct.node*, %struct.node** %10, align 8
  %12 = bitcast %"class.std::vector.3"* %0 to %"struct.std::_Vector_base.4"*
  %13 = getelementptr inbounds %"struct.std::_Vector_base.4", %"struct.std::_Vector_base.4"* %12, i32 0, i32 0
  %14 = getelementptr inbounds %"struct.std::_Vector_base<node, std::allocator<node> >::_Vector_impl", %"struct.std::_Vector_base<node, std::allocator<node> >::_Vector_impl"* %13, i32 0, i32 1
  %15 = load %struct.node*, %struct.node** %14, align 8
  %16 = call %struct.node* @_ZNSt6vectorI4nodeSaIS0_EE5beginEv(%"class.std::vector.3"* %0) #3
  %17 = getelementptr inbounds %"class.__gnu_cxx::__normal_iterator.9", %"class.__gnu_cxx::__normal_iterator.9"* %5, i32 0, i32 0
  store %struct.node* %16, %struct.node** %17, align 8
  %18 = call i64 @_ZN9__gnu_cxxmiIP4nodeSt6vectorIS1_SaIS1_EEEENS_17__normal_iteratorIT_T0_E15difference_typeERKS9_SC_(%"class.__gnu_cxx::__normal_iterator.9"* dereferenceable(8) %4, %"class.__gnu_cxx::__normal_iterator.9"* dereferenceable(8) %5) #3
  %19 = bitcast %"class.std::vector.3"* %0 to %"struct.std::_Vector_base.4"*
  %20 = call %struct.node* @_ZNSt12_Vector_baseI4nodeSaIS0_EE11_M_allocateEm(%"struct.std::_Vector_base.4"* %19, i64 %7)
  %21 = bitcast %"class.std::vector.3"* %0 to %"struct.std::_Vector_base.4"*
  %22 = getelementptr inbounds %"struct.std::_Vector_base.4", %"struct.std::_Vector_base.4"* %21, i32 0, i32 0
  %23 = bitcast %"struct.std::_Vector_base<node, std::allocator<node> >::_Vector_impl"* %22 to %"class.std::allocator.5"*
  %24 = getelementptr inbounds %struct.node, %struct.node* %20, i64 %18
  %25 = call dereferenceable(48) %struct.node* @_ZSt7forwardIRK4nodeEOT_RNSt16remove_referenceIS3_E4typeE(%struct.node* dereferenceable(48) %2) #3
  invoke void @_ZNSt16allocator_traitsISaI4nodeEE9constructIS0_JRKS0_EEEvRS1_PT_DpOT0_(%"class.std::allocator.5"* dereferenceable(1) %23, %struct.node* %24, %struct.node* dereferenceable(48) %25)
          to label %26 unwind label %40

26:                                               ; preds = %3
  %27 = call dereferenceable(8) %struct.node** @_ZNK9__gnu_cxx17__normal_iteratorIP4nodeSt6vectorIS1_SaIS1_EEE4baseEv(%"class.__gnu_cxx::__normal_iterator.9"* %4) #3
  %28 = load %struct.node*, %struct.node** %27, align 8
  %29 = bitcast %"class.std::vector.3"* %0 to %"struct.std::_Vector_base.4"*
  %30 = call dereferenceable(1) %"class.std::allocator.5"* @_ZNSt12_Vector_baseI4nodeSaIS0_EE19_M_get_Tp_allocatorEv(%"struct.std::_Vector_base.4"* %29) #3
  %31 = invoke %struct.node* @_ZSt34__uninitialized_move_if_noexcept_aIP4nodeS1_SaIS0_EET0_T_S4_S3_RT1_(%struct.node* %11, %struct.node* %28, %struct.node* %20, %"class.std::allocator.5"* dereferenceable(1) %30)
          to label %32 unwind label %40

32:                                               ; preds = %26
  %33 = getelementptr inbounds %struct.node, %struct.node* %31, i32 1
  %34 = call dereferenceable(8) %struct.node** @_ZNK9__gnu_cxx17__normal_iteratorIP4nodeSt6vectorIS1_SaIS1_EEE4baseEv(%"class.__gnu_cxx::__normal_iterator.9"* %4) #3
  %35 = load %struct.node*, %struct.node** %34, align 8
  %36 = bitcast %"class.std::vector.3"* %0 to %"struct.std::_Vector_base.4"*
  %37 = call dereferenceable(1) %"class.std::allocator.5"* @_ZNSt12_Vector_baseI4nodeSaIS0_EE19_M_get_Tp_allocatorEv(%"struct.std::_Vector_base.4"* %36) #3
  %38 = invoke %struct.node* @_ZSt34__uninitialized_move_if_noexcept_aIP4nodeS1_SaIS0_EET0_T_S4_S3_RT1_(%struct.node* %35, %struct.node* %15, %struct.node* %33, %"class.std::allocator.5"* dereferenceable(1) %37)
          to label %39 unwind label %40

39:                                               ; preds = %32
  br label %65

40:                                               ; preds = %32, %26, %3
  %.0 = phi %struct.node* [ %33, %32 ], [ null, %26 ], [ %20, %3 ]
  %41 = landingpad { i8*, i32 }
          catch i8* null
  %42 = extractvalue { i8*, i32 } %41, 0
  %43 = extractvalue { i8*, i32 } %41, 1
  br label %44

44:                                               ; preds = %40
  %45 = call i8* @__cxa_begin_catch(i8* %42) #3
  %46 = icmp ne %struct.node* %.0, null
  br i1 %46, label %57, label %47

47:                                               ; preds = %44
  %48 = bitcast %"class.std::vector.3"* %0 to %"struct.std::_Vector_base.4"*
  %49 = getelementptr inbounds %"struct.std::_Vector_base.4", %"struct.std::_Vector_base.4"* %48, i32 0, i32 0
  %50 = bitcast %"struct.std::_Vector_base<node, std::allocator<node> >::_Vector_impl"* %49 to %"class.std::allocator.5"*
  %51 = getelementptr inbounds %struct.node, %struct.node* %20, i64 %18
  invoke void @_ZNSt16allocator_traitsISaI4nodeEE7destroyIS0_EEvRS1_PT_(%"class.std::allocator.5"* dereferenceable(1) %50, %struct.node* %51)
          to label %52 unwind label %53

52:                                               ; preds = %47
  br label %61

53:                                               ; preds = %63, %61, %57, %47
  %54 = landingpad { i8*, i32 }
          cleanup
  %55 = extractvalue { i8*, i32 } %54, 0
  %56 = extractvalue { i8*, i32 } %54, 1
  invoke void @__cxa_end_catch()
          to label %64 unwind label %90

57:                                               ; preds = %44
  %58 = bitcast %"class.std::vector.3"* %0 to %"struct.std::_Vector_base.4"*
  %59 = call dereferenceable(1) %"class.std::allocator.5"* @_ZNSt12_Vector_baseI4nodeSaIS0_EE19_M_get_Tp_allocatorEv(%"struct.std::_Vector_base.4"* %58) #3
  invoke void @_ZSt8_DestroyIP4nodeS0_EvT_S2_RSaIT0_E(%struct.node* %20, %struct.node* %.0, %"class.std::allocator.5"* dereferenceable(1) %59)
          to label %60 unwind label %53

60:                                               ; preds = %57
  br label %61

61:                                               ; preds = %60, %52
  %62 = bitcast %"class.std::vector.3"* %0 to %"struct.std::_Vector_base.4"*
  invoke void @_ZNSt12_Vector_baseI4nodeSaIS0_EE13_M_deallocateEPS0_m(%"struct.std::_Vector_base.4"* %62, %struct.node* %20, i64 %7)
          to label %63 unwind label %53

63:                                               ; preds = %61
  invoke void @__cxa_rethrow() #13
          to label %93 unwind label %53

64:                                               ; preds = %53
  br label %87

65:                                               ; preds = %39
  %66 = bitcast %"class.std::vector.3"* %0 to %"struct.std::_Vector_base.4"*
  %67 = call dereferenceable(1) %"class.std::allocator.5"* @_ZNSt12_Vector_baseI4nodeSaIS0_EE19_M_get_Tp_allocatorEv(%"struct.std::_Vector_base.4"* %66) #3
  call void @_ZSt8_DestroyIP4nodeS0_EvT_S2_RSaIT0_E(%struct.node* %11, %struct.node* %15, %"class.std::allocator.5"* dereferenceable(1) %67)
  %68 = bitcast %"class.std::vector.3"* %0 to %"struct.std::_Vector_base.4"*
  %69 = bitcast %"class.std::vector.3"* %0 to %"struct.std::_Vector_base.4"*
  %70 = getelementptr inbounds %"struct.std::_Vector_base.4", %"struct.std::_Vector_base.4"* %69, i32 0, i32 0
  %71 = getelementptr inbounds %"struct.std::_Vector_base<node, std::allocator<node> >::_Vector_impl", %"struct.std::_Vector_base<node, std::allocator<node> >::_Vector_impl"* %70, i32 0, i32 2
  %72 = load %struct.node*, %struct.node** %71, align 8
  %73 = ptrtoint %struct.node* %72 to i64
  %74 = ptrtoint %struct.node* %11 to i64
  %75 = sub i64 %73, %74
  %76 = sdiv exact i64 %75, 48
  call void @_ZNSt12_Vector_baseI4nodeSaIS0_EE13_M_deallocateEPS0_m(%"struct.std::_Vector_base.4"* %68, %struct.node* %11, i64 %76)
  %77 = bitcast %"class.std::vector.3"* %0 to %"struct.std::_Vector_base.4"*
  %78 = getelementptr inbounds %"struct.std::_Vector_base.4", %"struct.std::_Vector_base.4"* %77, i32 0, i32 0
  %79 = getelementptr inbounds %"struct.std::_Vector_base<node, std::allocator<node> >::_Vector_impl", %"struct.std::_Vector_base<node, std::allocator<node> >::_Vector_impl"* %78, i32 0, i32 0
  store %struct.node* %20, %struct.node** %79, align 8
  %80 = bitcast %"class.std::vector.3"* %0 to %"struct.std::_Vector_base.4"*
  %81 = getelementptr inbounds %"struct.std::_Vector_base.4", %"struct.std::_Vector_base.4"* %80, i32 0, i32 0
  %82 = getelementptr inbounds %"struct.std::_Vector_base<node, std::allocator<node> >::_Vector_impl", %"struct.std::_Vector_base<node, std::allocator<node> >::_Vector_impl"* %81, i32 0, i32 1
  store %struct.node* %38, %struct.node** %82, align 8
  %83 = getelementptr inbounds %struct.node, %struct.node* %20, i64 %7
  %84 = bitcast %"class.std::vector.3"* %0 to %"struct.std::_Vector_base.4"*
  %85 = getelementptr inbounds %"struct.std::_Vector_base.4", %"struct.std::_Vector_base.4"* %84, i32 0, i32 0
  %86 = getelementptr inbounds %"struct.std::_Vector_base<node, std::allocator<node> >::_Vector_impl", %"struct.std::_Vector_base<node, std::allocator<node> >::_Vector_impl"* %85, i32 0, i32 2
  store %struct.node* %83, %struct.node** %86, align 8
  ret void

87:                                               ; preds = %64
  %88 = insertvalue { i8*, i32 } undef, i8* %55, 0
  %89 = insertvalue { i8*, i32 } %88, i32 %56, 1
  resume { i8*, i32 } %89

90:                                               ; preds = %53
  %91 = landingpad { i8*, i32 }
          catch i8* null
  %92 = extractvalue { i8*, i32 } %91, 0
  call void @__clang_call_terminate(i8* %92) #12
  unreachable

93:                                               ; preds = %63
  unreachable
}

; Function Attrs: noinline uwtable
define linkonce_odr void @_ZN9__gnu_cxx13new_allocatorI4nodeE9constructIS1_JRKS1_EEEvPT_DpOT0_(%"class.__gnu_cxx::new_allocator.6"* %0, %struct.node* %1, %struct.node* dereferenceable(48) %2) #0 comdat align 2 {
  %4 = bitcast %struct.node* %1 to i8*
  %5 = bitcast i8* %4 to %struct.node*
  %6 = call dereferenceable(48) %struct.node* @_ZSt7forwardIRK4nodeEOT_RNSt16remove_referenceIS3_E4typeE(%struct.node* dereferenceable(48) %2) #3
  call void @_ZN4nodeC2ERKS_(%struct.node* %5, %struct.node* dereferenceable(48) %6)
  ret void
}

; Function Attrs: noinline nounwind uwtable
define linkonce_odr dereferenceable(48) %struct.node* @_ZSt7forwardIRK4nodeEOT_RNSt16remove_referenceIS3_E4typeE(%struct.node* dereferenceable(48) %0) #4 comdat {
  ret %struct.node* %0
}

; Function Attrs: noinline nounwind uwtable
define linkonce_odr void @_ZN9__gnu_cxx17__normal_iteratorIP4edgeSt6vectorIS1_SaIS1_EEEC2ERKS2_(%"class.__gnu_cxx::__normal_iterator.8"* %0, %struct.edge** dereferenceable(8) %1) unnamed_addr #4 comdat align 2 {
  %3 = getelementptr inbounds %"class.__gnu_cxx::__normal_iterator.8", %"class.__gnu_cxx::__normal_iterator.8"* %0, i32 0, i32 0
  %4 = load %struct.edge*, %struct.edge** %1, align 8
  store %struct.edge* %4, %struct.edge** %3, align 8
  ret void
}

; Function Attrs: noinline uwtable
define internal void @_GLOBAL__sub_I_s447675307.cpp() #0 section ".text.startup" {
  call void @__cxx_global_var_init()
  call void @__cxx_global_var_init.1()
  call void @__cxx_global_var_init.2()
  ret void
}

; Function Attrs: argmemonly nocallback nofree nounwind willreturn
declare void @llvm.memcpy.p0i8.p0i8.i64(i8* noalias nocapture writeonly, i8* noalias nocapture readonly, i64, i1 immarg) #11

attributes #0 = { noinline uwtable "correctly-rounded-divide-sqrt-fp-math"="false" "disable-tail-calls"="false" "less-precise-fpmad"="false" "no-frame-pointer-elim"="true" "no-frame-pointer-elim-non-leaf" "no-infs-fp-math"="false" "no-jump-tables"="false" "no-nans-fp-math"="false" "no-signed-zeros-fp-math"="false" "no-trapping-math"="false" "stack-protector-buffer-size"="8" "target-cpu"="x86-64" "target-features"="+fxsr,+mmx,+sse,+sse2,+x87" "unsafe-fp-math"="false" "use-soft-float"="false" }
attributes #1 = { "correctly-rounded-divide-sqrt-fp-math"="false" "disable-tail-calls"="false" "less-precise-fpmad"="false" "no-frame-pointer-elim"="true" "no-frame-pointer-elim-non-leaf" "no-infs-fp-math"="false" "no-nans-fp-math"="false" "no-signed-zeros-fp-math"="false" "no-trapping-math"="false" "stack-protector-buffer-size"="8" "target-cpu"="x86-64" "target-features"="+fxsr,+mmx,+sse,+sse2,+x87" "unsafe-fp-math"="false" "use-soft-float"="false" }
attributes #2 = { nounwind "correctly-rounded-divide-sqrt-fp-math"="false" "disable-tail-calls"="false" "less-precise-fpmad"="false" "no-frame-pointer-elim"="true" "no-frame-pointer-elim-non-leaf" "no-infs-fp-math"="false" "no-nans-fp-math"="false" "no-signed-zeros-fp-math"="false" "no-trapping-math"="false" "stack-protector-buffer-size"="8" "target-cpu"="x86-64" "target-features"="+fxsr,+mmx,+sse,+sse2,+x87" "unsafe-fp-math"="false" "use-soft-float"="false" }
attributes #3 = { nounwind }
attributes #4 = { noinline nounwind uwtable "correctly-rounded-divide-sqrt-fp-math"="false" "disable-tail-calls"="false" "less-precise-fpmad"="false" "no-frame-pointer-elim"="true" "no-frame-pointer-elim-non-leaf" "no-infs-fp-math"="false" "no-jump-tables"="false" "no-nans-fp-math"="false" "no-signed-zeros-fp-math"="false" "no-trapping-math"="false" "stack-protector-buffer-size"="8" "target-cpu"="x86-64" "target-features"="+fxsr,+mmx,+sse,+sse2,+x87" "unsafe-fp-math"="false" "use-soft-float"="false" }
attributes #5 = { noinline norecurse uwtable "correctly-rounded-divide-sqrt-fp-math"="false" "disable-tail-calls"="false" "less-precise-fpmad"="false" "no-frame-pointer-elim"="true" "no-frame-pointer-elim-non-leaf" "no-infs-fp-math"="false" "no-jump-tables"="false" "no-nans-fp-math"="false" "no-signed-zeros-fp-math"="false" "no-trapping-math"="false" "stack-protector-buffer-size"="8" "target-cpu"="x86-64" "target-features"="+fxsr,+mmx,+sse,+sse2,+x87" "unsafe-fp-math"="false" "use-soft-float"="false" }
attributes #6 = { noinline noreturn nounwind }
attributes #7 = { nobuiltin nounwind "correctly-rounded-divide-sqrt-fp-math"="false" "disable-tail-calls"="false" "less-precise-fpmad"="false" "no-frame-pointer-elim"="true" "no-frame-pointer-elim-non-leaf" "no-infs-fp-math"="false" "no-nans-fp-math"="false" "no-signed-zeros-fp-math"="false" "no-trapping-math"="false" "stack-protector-buffer-size"="8" "target-cpu"="x86-64" "target-features"="+fxsr,+mmx,+sse,+sse2,+x87" "unsafe-fp-math"="false" "use-soft-float"="false" }
attributes #8 = { noreturn "correctly-rounded-divide-sqrt-fp-math"="false" "disable-tail-calls"="false" "less-precise-fpmad"="false" "no-frame-pointer-elim"="true" "no-frame-pointer-elim-non-leaf" "no-infs-fp-math"="false" "no-nans-fp-math"="false" "no-signed-zeros-fp-math"="false" "no-trapping-math"="false" "stack-protector-buffer-size"="8" "target-cpu"="x86-64" "target-features"="+fxsr,+mmx,+sse,+sse2,+x87" "unsafe-fp-math"="false" "use-soft-float"="false" }
attributes #9 = { nobuiltin "correctly-rounded-divide-sqrt-fp-math"="false" "disable-tail-calls"="false" "less-precise-fpmad"="false" "no-frame-pointer-elim"="true" "no-frame-pointer-elim-non-leaf" "no-infs-fp-math"="false" "no-nans-fp-math"="false" "no-signed-zeros-fp-math"="false" "no-trapping-math"="false" "stack-protector-buffer-size"="8" "target-cpu"="x86-64" "target-features"="+fxsr,+mmx,+sse,+sse2,+x87" "unsafe-fp-math"="false" "use-soft-float"="false" }
attributes #10 = { cold noreturn nounwind }
attributes #11 = { argmemonly nocallback nofree nounwind willreturn }
attributes #12 = { noreturn nounwind }
attributes #13 = { noreturn }

!llvm.module.flags = !{!0}
!llvm.ident = !{!1}

!0 = !{i32 1, !"wchar_size", i32 4}
!1 = !{!"clang version 6.0.0-1ubuntu2 (tags/RELEASE_600/final)"}
