; ModuleID = '/home/pedro/tcc/exDataset/codenet/data/selection/p00858/s495145958.ll'
source_filename = "/home/pedro/tcc/exDataset/codenet/data/selection/p00858/s495145958.cpp"
target datalayout = "e-m:e-i64:64-f80:128-n8:16:32:64-S128"
target triple = "x86_64-pc-linux-gnu"

%"class.std::ios_base::Init" = type { i8 }
%"struct.std::pair" = type { i32, i32 }
%"class.std::vector" = type { %"struct.std::_Vector_base" }
%"struct.std::_Vector_base" = type { %"struct.std::_Vector_base<std::pair<std::pair<int, int>, std::pair<int, int> >, std::allocator<std::pair<std::pair<int, int>, std::pair<int, int> > > >::_Vector_impl" }
%"struct.std::_Vector_base<std::pair<std::pair<int, int>, std::pair<int, int> >, std::allocator<std::pair<std::pair<int, int>, std::pair<int, int> > > >::_Vector_impl" = type { %"struct.std::pair.0"*, %"struct.std::pair.0"*, %"struct.std::pair.0"* }
%"struct.std::pair.0" = type { %"struct.std::pair", %"struct.std::pair" }
%"class.std::basic_istream" = type { i32 (...)**, i64, %"class.std::basic_ios" }
%"class.std::basic_ios" = type { %"class.std::ios_base", %"class.std::basic_ostream"*, i8, i8, %"class.std::basic_streambuf"*, %"class.std::ctype"*, %"class.std::num_put"*, %"class.std::num_get"* }
%"class.std::ios_base" = type { i32 (...)**, i64, i64, i32, i32, i32, %"struct.std::ios_base::_Callback_list"*, %"struct.std::ios_base::_Words", [8 x %"struct.std::ios_base::_Words"], i32, %"struct.std::ios_base::_Words"*, %"class.std::locale" }
%"struct.std::ios_base::_Callback_list" = type { %"struct.std::ios_base::_Callback_list"*, void (i32, %"class.std::ios_base"*, i32)*, i32, i32 }
%"struct.std::ios_base::_Words" = type { i8*, i64 }
%"class.std::locale" = type { %"class.std::locale::_Impl"* }
%"class.std::locale::_Impl" = type { i32, %"class.std::locale::facet"**, i64, %"class.std::locale::facet"**, i8** }
%"class.std::locale::facet" = type <{ i32 (...)**, i32, [4 x i8] }>
%"class.std::basic_ostream" = type { i32 (...)**, %"class.std::basic_ios" }
%"class.std::basic_streambuf" = type { i32 (...)**, i8*, i8*, i8*, i8*, i8*, i8*, %"class.std::locale" }
%"class.std::ctype" = type <{ %"class.std::locale::facet.base", [4 x i8], %struct.__locale_struct*, i8, [7 x i8], i32*, i32*, i16*, i8, [256 x i8], [256 x i8], i8, [6 x i8] }>
%"class.std::locale::facet.base" = type <{ i32 (...)**, i32 }>
%struct.__locale_struct = type { [13 x %struct.__locale_data*], i16*, i32*, i32*, [13 x i8*] }
%struct.__locale_data = type opaque
%"class.std::num_put" = type { %"class.std::locale::facet.base", [4 x i8] }
%"class.std::num_get" = type { %"class.std::locale::facet.base", [4 x i8] }
%"struct.std::piecewise_construct_t" = type { i8 }
%"class.std::allocator" = type { i8 }
%"class.std::map" = type { %"class.std::_Rb_tree" }
%"class.std::_Rb_tree" = type { %"struct.std::_Rb_tree<std::pair<int, int>, std::pair<const std::pair<int, int>, int>, std::_Select1st<std::pair<const std::pair<int, int>, int> >, std::less<std::pair<int, int> >, std::allocator<std::pair<const std::pair<int, int>, int> > >::_Rb_tree_impl" }
%"struct.std::_Rb_tree<std::pair<int, int>, std::pair<const std::pair<int, int>, int>, std::_Select1st<std::pair<const std::pair<int, int>, int> >, std::less<std::pair<int, int> >, std::allocator<std::pair<const std::pair<int, int>, int> > >::_Rb_tree_impl" = type { %"struct.std::_Rb_tree_key_compare", %"struct.std::_Rb_tree_header" }
%"struct.std::_Rb_tree_key_compare" = type { %"struct.std::less" }
%"struct.std::less" = type { i8 }
%"struct.std::_Rb_tree_header" = type { %"struct.std::_Rb_tree_node_base", i64 }
%"struct.std::_Rb_tree_node_base" = type { i32, %"struct.std::_Rb_tree_node_base"*, %"struct.std::_Rb_tree_node_base"*, %"struct.std::_Rb_tree_node_base"* }
%"struct.std::_Rb_tree_iterator" = type { %"struct.std::_Rb_tree_node_base"* }
%"struct.std::pair.9" = type { %"struct.std::pair", i64 }
%"struct.std::pair.6" = type <{ %"struct.std::_Rb_tree_iterator", i8, [7 x i8] }>
%"class.__gnu_cxx::__normal_iterator" = type { %"struct.std::pair.0"* }
%"class.__gnu_cxx::__normal_iterator.12" = type { %"struct.std::pair.0"* }
%"class.std::vector.13" = type { %"struct.std::_Vector_base.14" }
%"struct.std::_Vector_base.14" = type { %"struct.std::_Vector_base<int, std::allocator<int> >::_Vector_impl" }
%"struct.std::_Vector_base<int, std::allocator<int> >::_Vector_impl" = type { i32*, i32*, i32* }
%"class.__gnu_cxx::__normal_iterator.18" = type { i32* }
%"class.std::vector.19" = type { %"struct.std::_Vector_base.20" }
%"struct.std::_Vector_base.20" = type { %"struct.std::_Vector_base<std::pair<int, int>, std::allocator<std::pair<int, int> > >::_Vector_impl" }
%"struct.std::_Vector_base<std::pair<int, int>, std::allocator<std::pair<int, int> > >::_Vector_impl" = type { %"struct.std::pair"*, %"struct.std::pair"*, %"struct.std::pair"* }
%"struct.std::pair.24" = type { %"struct.std::pair", i32 }
%"class.std::__pair_base" = type { i8 }
%"class.std::__pair_base.1" = type { i8 }
%"class.__gnu_cxx::new_allocator" = type { i8 }
%"struct.std::_Rb_tree_const_iterator" = type { %"struct.std::_Rb_tree_node_base"* }
%"class.std::tuple" = type { %"struct.std::_Tuple_impl" }
%"struct.std::_Tuple_impl" = type { %"struct.std::_Head_base" }
%"struct.std::_Head_base" = type { %"struct.std::pair"* }
%"class.std::tuple.30" = type { i8 }
%"class.std::allocator.15" = type { i8 }
%"struct.std::_Rb_tree_node" = type <{ %"struct.std::_Rb_tree_node_base", %"struct.__gnu_cxx::__aligned_membuf", [4 x i8] }>
%"struct.__gnu_cxx::__aligned_membuf" = type { [12 x i8] }
%"class.std::allocator.21" = type { i8 }
%"class.std::allocator.3" = type { i8 }
%"class.__gnu_cxx::new_allocator.4" = type { i8 }
%"class.std::__pair_base.10" = type { i8 }
%"class.std::move_iterator" = type { %"struct.std::pair.0"* }
%"struct.std::_Select1st" = type { i8 }
%"struct.std::pair.27" = type { %"struct.std::_Rb_tree_node_base"*, %"struct.std::_Rb_tree_node_base"* }
%"class.std::__pair_base.7" = type { i8 }
%"class.std::__pair_base.25" = type { i8 }
%"class.std::__pair_base.28" = type { i8 }
%"class.__gnu_cxx::new_allocator.16" = type { i8 }
%"class.std::move_iterator.32" = type { i32* }
%"class.__gnu_cxx::new_allocator.22" = type { i8 }
%"class.std::move_iterator.33" = type { %"struct.std::pair"* }

$_ZNSt6vectorISt4pairIS0_IiiES1_ESaIS2_EEC2Ev = comdat any

$_ZNSt6vectorISt4pairIS0_IiiES1_ESaIS2_EED2Ev = comdat any

$_Z3sqrIiET_S0_ = comdat any

$_ZSt4sqrtIiEN9__gnu_cxx11__enable_ifIXsr12__is_integerIT_EE7__valueEdE6__typeES2_ = comdat any

$_ZNSt6vectorISt4pairIS0_IiiES1_ESaIS2_EE5clearEv = comdat any

$_ZNSt4pairIiiEC2IiiLb1EEEv = comdat any

$_ZNSt6vectorISt4pairIS0_IiiES1_ESaIS2_EE9push_backEOS2_ = comdat any

$_ZSt9make_pairIRSt4pairIiiES2_ES0_INSt17__decay_and_stripIT_E6__typeENS3_IT0_E6__typeEEOS4_OS7_ = comdat any

$_ZNKSt6vectorISt4pairIS0_IiiES1_ESaIS2_EE4sizeEv = comdat any

$_ZNSt4pairIS_IiiES0_EC2IS0_S0_Lb1EEEv = comdat any

$_ZNSt6vectorISt4pairIS0_IiiES1_ESaIS2_EEixEm = comdat any

$_ZNSt4pairIS_IiiES0_EaSERKS1_ = comdat any

$_ZSt4swapIiiENSt9enable_ifIXsr6__and_ISt14__is_swappableIT_ES1_IT0_EEE5valueEvE4typeERSt4pairIS2_S4_ESA_ = comdat any

$_ZNSt6vectorISt4pairIS0_IiiES1_ESaIS2_EE9push_backERKS2_ = comdat any

$_ZNSt3mapISt4pairIiiEiSt4lessIS1_ESaIS0_IKS1_iEEEC2Ev = comdat any

$_ZNSt3mapISt4pairIiiEiSt4lessIS1_ESaIS0_IKS1_iEEE4findERS4_ = comdat any

$_ZNKSt17_Rb_tree_iteratorISt4pairIKS0_IiiEiEEeqERKS4_ = comdat any

$_ZNSt3mapISt4pairIiiEiSt4lessIS1_ESaIS0_IKS1_iEEE3endEv = comdat any

$_ZNSt3mapISt4pairIiiEiSt4lessIS1_ESaIS0_IKS1_iEEE6insertIS0_IS1_mEEENSt9enable_ifIXsr16is_constructibleIS5_T_EE5valueES0_ISt17_Rb_tree_iteratorIS5_EbEE4typeEOSB_ = comdat any

$_ZSt9make_pairIRSt4pairIiiEmES0_INSt17__decay_and_stripIT_E6__typeENS3_IT0_E6__typeEEOS4_OS7_ = comdat any

$_ZNKSt3mapISt4pairIiiEiSt4lessIS1_ESaIS0_IKS1_iEEE4sizeEv = comdat any

$_ZNSt6vectorISt4pairIS0_IiiES1_ESaIS2_EE5beginEv = comdat any

$_ZNSt6vectorISt4pairIS0_IiiES1_ESaIS2_EE3endEv = comdat any

$_ZNSaISt4pairIS_IiiES0_EEC2Ev = comdat any

$_ZNSt6vectorISt4pairIS0_IiiES1_ESaIS2_EEC2IN9__gnu_cxx17__normal_iteratorIPS2_S4_EEvEET_SA_RKS3_ = comdat any

$_ZNSaISt4pairIS_IiiES0_EED2Ev = comdat any

$_ZStneIiiEbRKSt4pairIT_T0_ES5_ = comdat any

$_ZNSt6vectorISt4pairIS0_IiiES1_ESaIS2_EE5eraseEN9__gnu_cxx17__normal_iteratorIPKS2_S4_EE = comdat any

$_ZNK9__gnu_cxx17__normal_iteratorIPSt4pairIS1_IiiES2_ESt6vectorIS3_SaIS3_EEEplEl = comdat any

$_ZN9__gnu_cxx17__normal_iteratorIPKSt4pairIS1_IiiES2_ESt6vectorIS3_SaIS3_EEEC2IPS3_EERKNS0_IT_NS_11__enable_ifIXsr3std10__are_sameISC_SB_EE7__valueES8_E6__typeEEE = comdat any

$_ZNSt3mapISt4pairIiiEiSt4lessIS1_ESaIS0_IKS1_iEEEixERS4_ = comdat any

$_ZSt3minIdERKT_S2_S2_ = comdat any

$_ZNSt6vectorIiSaIiEEC2Ev = comdat any

$_ZNSt6vectorIiSaIiEE9push_backERKi = comdat any

$_ZSt7reverseIN9__gnu_cxx17__normal_iteratorIPiSt6vectorIiSaIiEEEEEvT_S7_ = comdat any

$_ZNSt6vectorIiSaIiEE5beginEv = comdat any

$_ZNSt6vectorIiSaIiEE3endEv = comdat any

$_ZNSt6vectorISt4pairIiiESaIS1_EEC2Ev = comdat any

$_ZNSt6vectorISt4pairIiiESaIS1_EE6resizeEm = comdat any

$_ZNSt3mapISt4pairIiiEiSt4lessIS1_ESaIS0_IKS1_iEEE5beginEv = comdat any

$_ZNKSt17_Rb_tree_iteratorISt4pairIKS0_IiiEiEEneERKS4_ = comdat any

$_ZNKSt17_Rb_tree_iteratorISt4pairIKS0_IiiEiEEptEv = comdat any

$_ZNSt6vectorISt4pairIiiESaIS1_EEixEm = comdat any

$_ZNSt4pairIiiEaSERKS0_ = comdat any

$_ZNSt17_Rb_tree_iteratorISt4pairIKS0_IiiEiEEppEi = comdat any

$_ZNKSt6vectorIiSaIiEE4sizeEv = comdat any

$_ZNSt6vectorIiSaIiEEixEm = comdat any

$_ZNSt6vectorISt4pairIiiESaIS1_EED2Ev = comdat any

$_ZNSt6vectorIiSaIiEED2Ev = comdat any

$_ZNSt3mapISt4pairIiiEiSt4lessIS1_ESaIS0_IKS1_iEEED2Ev = comdat any

$_ZSt7forwardIRSt4pairIiiEEOT_RNSt16remove_referenceIS3_E4typeE = comdat any

$_ZNSt4pairIS_IiiES0_EC2IRS0_S3_Lb1EEEOT_OT0_ = comdat any

$_ZNSt8_Rb_treeISt4pairIiiES0_IKS1_iESt10_Select1stIS3_ESt4lessIS1_ESaIS3_EEC2Ev = comdat any

$_ZNSt8_Rb_treeISt4pairIiiES0_IKS1_iESt10_Select1stIS3_ESt4lessIS1_ESaIS3_EE13_Rb_tree_implIS7_Lb1EEC2Ev = comdat any

$_ZNSaISt13_Rb_tree_nodeISt4pairIKS0_IiiEiEEEC2Ev = comdat any

$_ZNSt20_Rb_tree_key_compareISt4lessISt4pairIiiEEEC2Ev = comdat any

$_ZNSt15_Rb_tree_headerC2Ev = comdat any

$_ZN9__gnu_cxx13new_allocatorISt13_Rb_tree_nodeISt4pairIKS2_IiiEiEEEC2Ev = comdat any

$_ZNSt15_Rb_tree_header8_M_resetEv = comdat any

$__clang_call_terminate = comdat any

$_ZSt7forwardImEOT_RNSt16remove_referenceIS0_E4typeE = comdat any

$_ZNSt4pairIS_IiiEmEC2IRS0_mLb1EEEOT_OT0_ = comdat any

$_ZSteqIiiEbRKSt4pairIT_T0_ES5_ = comdat any

$_ZNSt8_Rb_treeISt4pairIiiES0_IKS1_iESt10_Select1stIS3_ESt4lessIS1_ESaIS3_EED2Ev = comdat any

$_ZNSt8_Rb_treeISt4pairIiiES0_IKS1_iESt10_Select1stIS3_ESt4lessIS1_ESaIS3_EE8_M_eraseEPSt13_Rb_tree_nodeIS3_E = comdat any

$_ZNSt8_Rb_treeISt4pairIiiES0_IKS1_iESt10_Select1stIS3_ESt4lessIS1_ESaIS3_EE8_M_beginEv = comdat any

$_ZNSt8_Rb_treeISt4pairIiiES0_IKS1_iESt10_Select1stIS3_ESt4lessIS1_ESaIS3_EE13_Rb_tree_implIS7_Lb1EED2Ev = comdat any

$_ZNSt8_Rb_treeISt4pairIiiES0_IKS1_iESt10_Select1stIS3_ESt4lessIS1_ESaIS3_EE8_S_rightEPSt18_Rb_tree_node_base = comdat any

$_ZNSt8_Rb_treeISt4pairIiiES0_IKS1_iESt10_Select1stIS3_ESt4lessIS1_ESaIS3_EE7_S_leftEPSt18_Rb_tree_node_base = comdat any

$_ZNSt8_Rb_treeISt4pairIiiES0_IKS1_iESt10_Select1stIS3_ESt4lessIS1_ESaIS3_EE12_M_drop_nodeEPSt13_Rb_tree_nodeIS3_E = comdat any

$_ZNSt8_Rb_treeISt4pairIiiES0_IKS1_iESt10_Select1stIS3_ESt4lessIS1_ESaIS3_EE15_M_destroy_nodeEPSt13_Rb_tree_nodeIS3_E = comdat any

$_ZNSt8_Rb_treeISt4pairIiiES0_IKS1_iESt10_Select1stIS3_ESt4lessIS1_ESaIS3_EE11_M_put_nodeEPSt13_Rb_tree_nodeIS3_E = comdat any

$_ZNSt16allocator_traitsISaISt13_Rb_tree_nodeISt4pairIKS1_IiiEiEEEE7destroyIS4_EEvRS6_PT_ = comdat any

$_ZNSt8_Rb_treeISt4pairIiiES0_IKS1_iESt10_Select1stIS3_ESt4lessIS1_ESaIS3_EE21_M_get_Node_allocatorEv = comdat any

$_ZNSt13_Rb_tree_nodeISt4pairIKS0_IiiEiEE9_M_valptrEv = comdat any

$_ZN9__gnu_cxx13new_allocatorISt13_Rb_tree_nodeISt4pairIKS2_IiiEiEEE7destroyIS5_EEvPT_ = comdat any

$_ZN9__gnu_cxx16__aligned_membufISt4pairIKS1_IiiEiEE6_M_ptrEv = comdat any

$_ZN9__gnu_cxx16__aligned_membufISt4pairIKS1_IiiEiEE7_M_addrEv = comdat any

$_ZNSt16allocator_traitsISaISt13_Rb_tree_nodeISt4pairIKS1_IiiEiEEEE10deallocateERS6_PS5_m = comdat any

$_ZN9__gnu_cxx13new_allocatorISt13_Rb_tree_nodeISt4pairIKS2_IiiEiEEE10deallocateEPS6_m = comdat any

$_ZNSaISt13_Rb_tree_nodeISt4pairIKS0_IiiEiEEED2Ev = comdat any

$_ZN9__gnu_cxx13new_allocatorISt13_Rb_tree_nodeISt4pairIKS2_IiiEiEEED2Ev = comdat any

$_ZNSt12_Vector_baseISt4pairIS0_IiiES1_ESaIS2_EEC2Ev = comdat any

$_ZNSt12_Vector_baseISt4pairIS0_IiiES1_ESaIS2_EE12_Vector_implC2Ev = comdat any

$_ZN9__gnu_cxx13new_allocatorISt4pairIS1_IiiES2_EEC2Ev = comdat any

$_ZSt8_DestroyIPSt4pairIS0_IiiES1_ES2_EvT_S4_RSaIT0_E = comdat any

$_ZNSt12_Vector_baseISt4pairIS0_IiiES1_ESaIS2_EE19_M_get_Tp_allocatorEv = comdat any

$_ZNSt12_Vector_baseISt4pairIS0_IiiES1_ESaIS2_EED2Ev = comdat any

$_ZSt8_DestroyIPSt4pairIS0_IiiES1_EEvT_S4_ = comdat any

$_ZNSt12_Destroy_auxILb1EE9__destroyIPSt4pairIS2_IiiES3_EEEvT_S6_ = comdat any

$_ZNSt12_Vector_baseISt4pairIS0_IiiES1_ESaIS2_EE13_M_deallocateEPS2_m = comdat any

$_ZNSt12_Vector_baseISt4pairIS0_IiiES1_ESaIS2_EE12_Vector_implD2Ev = comdat any

$_ZNSt16allocator_traitsISaISt4pairIS0_IiiES1_EEE10deallocateERS3_PS2_m = comdat any

$_ZN9__gnu_cxx13new_allocatorISt4pairIS1_IiiES2_EE10deallocateEPS3_m = comdat any

$_ZN9__gnu_cxx13new_allocatorISt4pairIS1_IiiES2_EED2Ev = comdat any

$_ZNSt6vectorISt4pairIS0_IiiES1_ESaIS2_EE15_M_erase_at_endEPS2_ = comdat any

$_ZNSt6vectorISt4pairIS0_IiiES1_ESaIS2_EE12emplace_backIJS2_EEEvDpOT_ = comdat any

$_ZSt4moveIRSt4pairIS0_IiiES1_EEONSt16remove_referenceIT_E4typeEOS5_ = comdat any

$_ZNSt16allocator_traitsISaISt4pairIS0_IiiES1_EEE9constructIS2_JS2_EEEvRS3_PT_DpOT0_ = comdat any

$_ZSt7forwardISt4pairIS0_IiiES1_EEOT_RNSt16remove_referenceIS3_E4typeE = comdat any

$_ZNSt6vectorISt4pairIS0_IiiES1_ESaIS2_EE17_M_realloc_insertIJS2_EEEvN9__gnu_cxx17__normal_iteratorIPS2_S4_EEDpOT_ = comdat any

$_ZN9__gnu_cxx13new_allocatorISt4pairIS1_IiiES2_EE9constructIS3_JS3_EEEvPT_DpOT0_ = comdat any

$_ZNKSt6vectorISt4pairIS0_IiiES1_ESaIS2_EE12_M_check_lenEmPKc = comdat any

$_ZN9__gnu_cxxmiIPSt4pairIS1_IiiES2_ESt6vectorIS3_SaIS3_EEEENS_17__normal_iteratorIT_T0_E15difference_typeERKSB_SE_ = comdat any

$_ZNSt12_Vector_baseISt4pairIS0_IiiES1_ESaIS2_EE11_M_allocateEm = comdat any

$_ZSt34__uninitialized_move_if_noexcept_aIPSt4pairIS0_IiiES1_ES3_SaIS2_EET0_T_S6_S5_RT1_ = comdat any

$_ZNK9__gnu_cxx17__normal_iteratorIPSt4pairIS1_IiiES2_ESt6vectorIS3_SaIS3_EEE4baseEv = comdat any

$_ZNSt16allocator_traitsISaISt4pairIS0_IiiES1_EEE7destroyIS2_EEvRS3_PT_ = comdat any

$_ZNKSt6vectorISt4pairIS0_IiiES1_ESaIS2_EE8max_sizeEv = comdat any

$_ZSt3maxImERKT_S2_S2_ = comdat any

$_ZNSt16allocator_traitsISaISt4pairIS0_IiiES1_EEE8max_sizeERKS3_ = comdat any

$_ZNKSt12_Vector_baseISt4pairIS0_IiiES1_ESaIS2_EE19_M_get_Tp_allocatorEv = comdat any

$_ZNK9__gnu_cxx13new_allocatorISt4pairIS1_IiiES2_EE8max_sizeEv = comdat any

$_ZNSt16allocator_traitsISaISt4pairIS0_IiiES1_EEE8allocateERS3_m = comdat any

$_ZN9__gnu_cxx13new_allocatorISt4pairIS1_IiiES2_EE8allocateEmPKv = comdat any

$_ZSt22__uninitialized_copy_aISt13move_iteratorIPSt4pairIS1_IiiES2_EES4_S3_ET0_T_S7_S6_RSaIT1_E = comdat any

$_ZSt32__make_move_if_noexcept_iteratorISt4pairIS0_IiiES1_ESt13move_iteratorIPS2_EET0_PT_ = comdat any

$_ZSt18uninitialized_copyISt13move_iteratorIPSt4pairIS1_IiiES2_EES4_ET0_T_S7_S6_ = comdat any

$_ZNSt20__uninitialized_copyILb0EE13__uninit_copyISt13move_iteratorIPSt4pairIS3_IiiES4_EES6_EET0_T_S9_S8_ = comdat any

$_ZStneIPSt4pairIS0_IiiES1_EEbRKSt13move_iteratorIT_ES8_ = comdat any

$_ZSt10_ConstructISt4pairIS0_IiiES1_EJS2_EEvPT_DpOT0_ = comdat any

$_ZSt11__addressofISt4pairIS0_IiiES1_EEPT_RS3_ = comdat any

$_ZNKSt13move_iteratorIPSt4pairIS0_IiiES1_EEdeEv = comdat any

$_ZNSt13move_iteratorIPSt4pairIS0_IiiES1_EEppEv = comdat any

$_ZSteqIPSt4pairIS0_IiiES1_EEbRKSt13move_iteratorIT_ES8_ = comdat any

$_ZNKSt13move_iteratorIPSt4pairIS0_IiiES1_EE4baseEv = comdat any

$_ZNSt13move_iteratorIPSt4pairIS0_IiiES1_EEC2ES3_ = comdat any

$_ZN9__gnu_cxx13new_allocatorISt4pairIS1_IiiES2_EE7destroyIS3_EEvPT_ = comdat any

$_ZNSt4pairIiiE4swapERS0_ = comdat any

$_ZSt4swapIiENSt9enable_ifIXsr6__and_ISt6__not_ISt15__is_tuple_likeIT_EESt21is_move_constructibleIS3_ESt18is_move_assignableIS3_EEE5valueEvE4typeERS3_SC_ = comdat any

$_ZSt4moveIRiEONSt16remove_referenceIT_E4typeEOS2_ = comdat any

$_ZNSt16allocator_traitsISaISt4pairIS0_IiiES1_EEE9constructIS2_JRKS2_EEEvRS3_PT_DpOT0_ = comdat any

$_ZNSt6vectorISt4pairIS0_IiiES1_ESaIS2_EE17_M_realloc_insertIJRKS2_EEEvN9__gnu_cxx17__normal_iteratorIPS2_S4_EEDpOT_ = comdat any

$_ZN9__gnu_cxx13new_allocatorISt4pairIS1_IiiES2_EE9constructIS3_JRKS3_EEEvPT_DpOT0_ = comdat any

$_ZSt7forwardIRKSt4pairIS0_IiiES1_EEOT_RNSt16remove_referenceIS5_E4typeE = comdat any

$_ZNSt8_Rb_treeISt4pairIiiES0_IKS1_iESt10_Select1stIS3_ESt4lessIS1_ESaIS3_EE4findERS2_ = comdat any

$_ZNSt8_Rb_treeISt4pairIiiES0_IKS1_iESt10_Select1stIS3_ESt4lessIS1_ESaIS3_EE14_M_lower_boundEPSt13_Rb_tree_nodeIS3_EPSt18_Rb_tree_node_baseRS2_ = comdat any

$_ZNSt8_Rb_treeISt4pairIiiES0_IKS1_iESt10_Select1stIS3_ESt4lessIS1_ESaIS3_EE6_M_endEv = comdat any

$_ZNSt8_Rb_treeISt4pairIiiES0_IKS1_iESt10_Select1stIS3_ESt4lessIS1_ESaIS3_EE3endEv = comdat any

$_ZNKSt4lessISt4pairIiiEEclERKS1_S4_ = comdat any

$_ZNSt8_Rb_treeISt4pairIiiES0_IKS1_iESt10_Select1stIS3_ESt4lessIS1_ESaIS3_EE6_S_keyEPKSt18_Rb_tree_node_base = comdat any

$_ZNSt8_Rb_treeISt4pairIiiES0_IKS1_iESt10_Select1stIS3_ESt4lessIS1_ESaIS3_EE6_S_keyEPKSt13_Rb_tree_nodeIS3_E = comdat any

$_ZNSt17_Rb_tree_iteratorISt4pairIKS0_IiiEiEEC2EPSt18_Rb_tree_node_base = comdat any

$_ZNKSt10_Select1stISt4pairIKS0_IiiEiEEclERKS3_ = comdat any

$_ZNKSt13_Rb_tree_nodeISt4pairIKS0_IiiEiEE9_M_valptrEv = comdat any

$_ZNK9__gnu_cxx16__aligned_membufISt4pairIKS1_IiiEiEE6_M_ptrEv = comdat any

$_ZNK9__gnu_cxx16__aligned_membufISt4pairIKS1_IiiEiEE7_M_addrEv = comdat any

$_ZStltIiiEbRKSt4pairIT_T0_ES5_ = comdat any

$_ZNKSt8_Rb_treeISt4pairIiiES0_IKS1_iESt10_Select1stIS3_ESt4lessIS1_ESaIS3_EE4sizeEv = comdat any

$_ZNSt8_Rb_treeISt4pairIiiES0_IKS1_iESt10_Select1stIS3_ESt4lessIS1_ESaIS3_EE17_M_emplace_uniqueIJS0_IS1_mEEEES0_ISt17_Rb_tree_iteratorIS3_EbEDpOT_ = comdat any

$_ZSt7forwardISt4pairIS0_IiiEmEEOT_RNSt16remove_referenceIS3_E4typeE = comdat any

$_ZNSt8_Rb_treeISt4pairIiiES0_IKS1_iESt10_Select1stIS3_ESt4lessIS1_ESaIS3_EE14_M_create_nodeIJS0_IS1_mEEEEPSt13_Rb_tree_nodeIS3_EDpOT_ = comdat any

$_ZNSt8_Rb_treeISt4pairIiiES0_IKS1_iESt10_Select1stIS3_ESt4lessIS1_ESaIS3_EE24_M_get_insert_unique_posERS2_ = comdat any

$_ZNSt8_Rb_treeISt4pairIiiES0_IKS1_iESt10_Select1stIS3_ESt4lessIS1_ESaIS3_EE14_M_insert_nodeEPSt18_Rb_tree_node_baseSB_PSt13_Rb_tree_nodeIS3_E = comdat any

$_ZNSt4pairISt17_Rb_tree_iteratorIS_IKS_IiiEiEEbEC2IS4_bLb1EEEOT_OT0_ = comdat any

$_ZNSt8_Rb_treeISt4pairIiiES0_IKS1_iESt10_Select1stIS3_ESt4lessIS1_ESaIS3_EE11_M_get_nodeEv = comdat any

$_ZNSt8_Rb_treeISt4pairIiiES0_IKS1_iESt10_Select1stIS3_ESt4lessIS1_ESaIS3_EE17_M_construct_nodeIJS0_IS1_mEEEEvPSt13_Rb_tree_nodeIS3_EDpOT_ = comdat any

$_ZNSt16allocator_traitsISaISt13_Rb_tree_nodeISt4pairIKS1_IiiEiEEEE8allocateERS6_m = comdat any

$_ZN9__gnu_cxx13new_allocatorISt13_Rb_tree_nodeISt4pairIKS2_IiiEiEEE8allocateEmPKv = comdat any

$_ZNK9__gnu_cxx13new_allocatorISt13_Rb_tree_nodeISt4pairIKS2_IiiEiEEE8max_sizeEv = comdat any

$_ZNSt16allocator_traitsISaISt13_Rb_tree_nodeISt4pairIKS1_IiiEiEEEE9constructIS4_JS1_IS2_mEEEEvRS6_PT_DpOT0_ = comdat any

$_ZN9__gnu_cxx13new_allocatorISt13_Rb_tree_nodeISt4pairIKS2_IiiEiEEE9constructIS5_JS2_IS3_mEEEEvPT_DpOT0_ = comdat any

$_ZNSt4pairIKS_IiiEiEC2IS0_mLb1EEEOS_IT_T0_E = comdat any

$_ZSt7forwardISt4pairIiiEEOT_RNSt16remove_referenceIS2_E4typeE = comdat any

$_ZNSt8_Rb_treeISt4pairIiiES0_IKS1_iESt10_Select1stIS3_ESt4lessIS1_ESaIS3_EE5beginEv = comdat any

$_ZNSt4pairIPSt18_Rb_tree_node_baseS1_EC2IRPSt13_Rb_tree_nodeIS_IKS_IiiEiEERS1_Lb1EEEOT_OT0_ = comdat any

$_ZNSt17_Rb_tree_iteratorISt4pairIKS0_IiiEiEEmmEv = comdat any

$_ZNSt4pairIPSt18_Rb_tree_node_baseS1_EC2IRS1_Lb1EEEOT_RKS1_ = comdat any

$_ZSt7forwardIRPSt13_Rb_tree_nodeISt4pairIKS1_IiiEiEEEOT_RNSt16remove_referenceIS8_E4typeE = comdat any

$_ZSt7forwardIRPSt18_Rb_tree_node_baseEOT_RNSt16remove_referenceIS3_E4typeE = comdat any

$_ZSt7forwardISt17_Rb_tree_iteratorISt4pairIKS1_IiiEiEEEOT_RNSt16remove_referenceIS6_E4typeE = comdat any

$_ZSt7forwardIbEOT_RNSt16remove_referenceIS0_E4typeE = comdat any

$_ZN9__gnu_cxx17__normal_iteratorIPSt4pairIS1_IiiES2_ESt6vectorIS3_SaIS3_EEEC2ERKS4_ = comdat any

$_ZNSt12_Vector_baseISt4pairIS0_IiiES1_ESaIS2_EEC2ERKS3_ = comdat any

$_ZNSt6vectorISt4pairIS0_IiiES1_ESaIS2_EE22_M_initialize_dispatchIN9__gnu_cxx17__normal_iteratorIPS2_S4_EEEEvT_SA_St12__false_type = comdat any

$_ZNSt12_Vector_baseISt4pairIS0_IiiES1_ESaIS2_EE12_Vector_implC2ERKS3_ = comdat any

$_ZNSaISt4pairIS_IiiES0_EEC2ERKS2_ = comdat any

$_ZN9__gnu_cxx13new_allocatorISt4pairIS1_IiiES2_EEC2ERKS4_ = comdat any

$_ZNSt6vectorISt4pairIS0_IiiES1_ESaIS2_EE19_M_range_initializeIN9__gnu_cxx17__normal_iteratorIPS2_S4_EEEEvT_SA_St20forward_iterator_tag = comdat any

$_ZSt8distanceIN9__gnu_cxx17__normal_iteratorIPSt4pairIS2_IiiES3_ESt6vectorIS4_SaIS4_EEEEENSt15iterator_traitsIT_E15difference_typeESB_SB_ = comdat any

$_ZSt22__uninitialized_copy_aIN9__gnu_cxx17__normal_iteratorIPSt4pairIS2_IiiES3_ESt6vectorIS4_SaIS4_EEEES5_S4_ET0_T_SB_SA_RSaIT1_E = comdat any

$_ZSt10__distanceIN9__gnu_cxx17__normal_iteratorIPSt4pairIS2_IiiES3_ESt6vectorIS4_SaIS4_EEEEENSt15iterator_traitsIT_E15difference_typeESB_SB_St26random_access_iterator_tag = comdat any

$_ZSt19__iterator_categoryIN9__gnu_cxx17__normal_iteratorIPSt4pairIS2_IiiES3_ESt6vectorIS4_SaIS4_EEEEENSt15iterator_traitsIT_E17iterator_categoryERKSB_ = comdat any

$_ZSt18uninitialized_copyIN9__gnu_cxx17__normal_iteratorIPSt4pairIS2_IiiES3_ESt6vectorIS4_SaIS4_EEEES5_ET0_T_SB_SA_ = comdat any

$_ZNSt20__uninitialized_copyILb0EE13__uninit_copyIN9__gnu_cxx17__normal_iteratorIPSt4pairIS4_IiiES5_ESt6vectorIS6_SaIS6_EEEES7_EET0_T_SD_SC_ = comdat any

$_ZN9__gnu_cxxneIPSt4pairIS1_IiiES2_ESt6vectorIS3_SaIS3_EEEEbRKNS_17__normal_iteratorIT_T0_EESD_ = comdat any

$_ZSt10_ConstructISt4pairIS0_IiiES1_EJRS2_EEvPT_DpOT0_ = comdat any

$_ZNK9__gnu_cxx17__normal_iteratorIPSt4pairIS1_IiiES2_ESt6vectorIS3_SaIS3_EEEdeEv = comdat any

$_ZN9__gnu_cxx17__normal_iteratorIPSt4pairIS1_IiiES2_ESt6vectorIS3_SaIS3_EEEppEv = comdat any

$_ZSt7forwardIRSt4pairIS0_IiiES1_EEOT_RNSt16remove_referenceIS4_E4typeE = comdat any

$_ZNSt6vectorISt4pairIS0_IiiES1_ESaIS2_EE8_M_eraseEN9__gnu_cxx17__normal_iteratorIPS2_S4_EE = comdat any

$_ZN9__gnu_cxxmiIPKSt4pairIS1_IiiES2_ESt6vectorIS3_SaIS3_EEEENS_17__normal_iteratorIT_T0_E15difference_typeERKSC_SF_ = comdat any

$_ZNKSt6vectorISt4pairIS0_IiiES1_ESaIS2_EE6cbeginEv = comdat any

$_ZSt4moveIN9__gnu_cxx17__normal_iteratorIPSt4pairIS2_IiiES3_ESt6vectorIS4_SaIS4_EEEES9_ET0_T_SB_SA_ = comdat any

$_ZSt14__copy_move_a2ILb1EN9__gnu_cxx17__normal_iteratorIPSt4pairIS2_IiiES3_ESt6vectorIS4_SaIS4_EEEES9_ET1_T0_SB_SA_ = comdat any

$_ZSt12__miter_baseIN9__gnu_cxx17__normal_iteratorIPSt4pairIS2_IiiES3_ESt6vectorIS4_SaIS4_EEEEET_SA_ = comdat any

$_ZSt13__copy_move_aILb1EPSt4pairIS0_IiiES1_ES3_ET1_T0_S5_S4_ = comdat any

$_ZSt12__niter_baseIPSt4pairIS0_IiiES1_ESt6vectorIS2_SaIS2_EEET_N9__gnu_cxx17__normal_iteratorIS7_T0_EE = comdat any

$_ZNSt11__copy_moveILb1ELb0ESt26random_access_iterator_tagE8__copy_mIPSt4pairIS3_IiiES4_ES6_EET0_T_S8_S7_ = comdat any

$_ZNSt4pairIS_IiiES0_EaSEOS1_ = comdat any

$_ZNSt4pairIiiEaSEOS0_ = comdat any

$_ZSt7forwardIiEOT_RNSt16remove_referenceIS0_E4typeE = comdat any

$_ZNK9__gnu_cxx17__normal_iteratorIPKSt4pairIS1_IiiES2_ESt6vectorIS3_SaIS3_EEE4baseEv = comdat any

$_ZN9__gnu_cxx17__normal_iteratorIPKSt4pairIS1_IiiES2_ESt6vectorIS3_SaIS3_EEEC2ERKS5_ = comdat any

$_ZNSt3mapISt4pairIiiEiSt4lessIS1_ESaIS0_IKS1_iEEE11lower_boundERS4_ = comdat any

$_ZNKSt3mapISt4pairIiiEiSt4lessIS1_ESaIS0_IKS1_iEEE8key_compEv = comdat any

$_ZNKSt17_Rb_tree_iteratorISt4pairIKS0_IiiEiEEdeEv = comdat any

$_ZNSt8_Rb_treeISt4pairIiiES0_IKS1_iESt10_Select1stIS3_ESt4lessIS1_ESaIS3_EE22_M_emplace_hint_uniqueIJRKSt21piecewise_construct_tSt5tupleIJRS2_EESE_IJEEEEESt17_Rb_tree_iteratorIS3_ESt23_Rb_tree_const_iteratorIS3_EDpOT_ = comdat any

$_ZNSt23_Rb_tree_const_iteratorISt4pairIKS0_IiiEiEEC2ERKSt17_Rb_tree_iteratorIS3_E = comdat any

$_ZNSt5tupleIJRKSt4pairIiiEEEC2IvLb1EEES3_ = comdat any

$_ZNSt8_Rb_treeISt4pairIiiES0_IKS1_iESt10_Select1stIS3_ESt4lessIS1_ESaIS3_EE11lower_boundERS2_ = comdat any

$_ZNKSt8_Rb_treeISt4pairIiiES0_IKS1_iESt10_Select1stIS3_ESt4lessIS1_ESaIS3_EE8key_compEv = comdat any

$_ZNSt8_Rb_treeISt4pairIiiES0_IKS1_iESt10_Select1stIS3_ESt4lessIS1_ESaIS3_EE14_M_create_nodeIJRKSt21piecewise_construct_tSt5tupleIJRS2_EESE_IJEEEEEPSt13_Rb_tree_nodeIS3_EDpOT_ = comdat any

$_ZSt7forwardIRKSt21piecewise_construct_tEOT_RNSt16remove_referenceIS3_E4typeE = comdat any

$_ZSt7forwardISt5tupleIJRKSt4pairIiiEEEEOT_RNSt16remove_referenceIS6_E4typeE = comdat any

$_ZSt7forwardISt5tupleIJEEEOT_RNSt16remove_referenceIS2_E4typeE = comdat any

$_ZNSt8_Rb_treeISt4pairIiiES0_IKS1_iESt10_Select1stIS3_ESt4lessIS1_ESaIS3_EE29_M_get_insert_hint_unique_posESt23_Rb_tree_const_iteratorIS3_ERS2_ = comdat any

$_ZNSt8_Rb_treeISt4pairIiiES0_IKS1_iESt10_Select1stIS3_ESt4lessIS1_ESaIS3_EE17_M_construct_nodeIJRKSt21piecewise_construct_tSt5tupleIJRS2_EESE_IJEEEEEvPSt13_Rb_tree_nodeIS3_EDpOT_ = comdat any

$_ZNSt16allocator_traitsISaISt13_Rb_tree_nodeISt4pairIKS1_IiiEiEEEE9constructIS4_JRKSt21piecewise_construct_tSt5tupleIJRS3_EESC_IJEEEEEvRS6_PT_DpOT0_ = comdat any

$_ZN9__gnu_cxx13new_allocatorISt13_Rb_tree_nodeISt4pairIKS2_IiiEiEEE9constructIS5_JRKSt21piecewise_construct_tSt5tupleIJRS4_EESC_IJEEEEEvPT_DpOT0_ = comdat any

$_ZNSt5tupleIJRKSt4pairIiiEEEC2EOS4_ = comdat any

$_ZNSt4pairIKS_IiiEiEC2IJRS1_EJEEESt21piecewise_construct_tSt5tupleIJDpT_EES6_IJDpT0_EE = comdat any

$_ZNSt11_Tuple_implILm0EJRKSt4pairIiiEEEC2EOS4_ = comdat any

$_ZSt7forwardIRKSt4pairIiiEEOT_RNSt16remove_referenceIS4_E4typeE = comdat any

$_ZNSt11_Tuple_implILm0EJRKSt4pairIiiEEE7_M_headERS4_ = comdat any

$_ZNSt10_Head_baseILm0ERKSt4pairIiiELb0EEC2ES3_ = comdat any

$_ZNSt10_Head_baseILm0ERKSt4pairIiiELb0EE7_M_headERS4_ = comdat any

$_ZNSt4pairIKS_IiiEiEC2IJRS1_EJLm0EEJEJEEERSt5tupleIJDpT_EERS5_IJDpT1_EESt12_Index_tupleIJXspT0_EEESE_IJXspT2_EEE = comdat any

$_ZSt3getILm0EJRKSt4pairIiiEEERNSt13tuple_elementIXT_ESt5tupleIJDpT0_EEE4typeERS8_ = comdat any

$_ZSt12__get_helperILm0ERKSt4pairIiiEJEERT0_RSt11_Tuple_implIXT_EJS4_DpT1_EE = comdat any

$_ZNKSt23_Rb_tree_const_iteratorISt4pairIKS0_IiiEiEE13_M_const_castEv = comdat any

$_ZNSt8_Rb_treeISt4pairIiiES0_IKS1_iESt10_Select1stIS3_ESt4lessIS1_ESaIS3_EE12_M_rightmostEv = comdat any

$_ZNSt4pairIPSt18_Rb_tree_node_baseS1_EC2IRS1_Lb1EEERKS1_OT_ = comdat any

$_ZNSt8_Rb_treeISt4pairIiiES0_IKS1_iESt10_Select1stIS3_ESt4lessIS1_ESaIS3_EE11_M_leftmostEv = comdat any

$_ZNSt4pairIPSt18_Rb_tree_node_baseS1_EC2IRS1_S4_Lb1EEEOT_OT0_ = comdat any

$_ZNSt17_Rb_tree_iteratorISt4pairIKS0_IiiEiEEppEv = comdat any

$_ZNSt11_Tuple_implILm0EJRKSt4pairIiiEEEC2ES3_ = comdat any

$_ZNSt12_Vector_baseIiSaIiEEC2Ev = comdat any

$_ZNSt12_Vector_baseIiSaIiEE12_Vector_implC2Ev = comdat any

$_ZNSaIiEC2Ev = comdat any

$_ZN9__gnu_cxx13new_allocatorIiEC2Ev = comdat any

$_ZSt8_DestroyIPiiEvT_S1_RSaIT0_E = comdat any

$_ZNSt12_Vector_baseIiSaIiEE19_M_get_Tp_allocatorEv = comdat any

$_ZNSt12_Vector_baseIiSaIiEED2Ev = comdat any

$_ZSt8_DestroyIPiEvT_S1_ = comdat any

$_ZNSt12_Destroy_auxILb1EE9__destroyIPiEEvT_S3_ = comdat any

$_ZNSt12_Vector_baseIiSaIiEE13_M_deallocateEPim = comdat any

$_ZNSt12_Vector_baseIiSaIiEE12_Vector_implD2Ev = comdat any

$_ZNSt16allocator_traitsISaIiEE10deallocateERS0_Pim = comdat any

$_ZN9__gnu_cxx13new_allocatorIiE10deallocateEPim = comdat any

$_ZNSaIiED2Ev = comdat any

$_ZN9__gnu_cxx13new_allocatorIiED2Ev = comdat any

$_ZNSt16allocator_traitsISaIiEE9constructIiJRKiEEEvRS0_PT_DpOT0_ = comdat any

$_ZNSt6vectorIiSaIiEE17_M_realloc_insertIJRKiEEEvN9__gnu_cxx17__normal_iteratorIPiS1_EEDpOT_ = comdat any

$_ZN9__gnu_cxx13new_allocatorIiE9constructIiJRKiEEEvPT_DpOT0_ = comdat any

$_ZSt7forwardIRKiEOT_RNSt16remove_referenceIS2_E4typeE = comdat any

$_ZNKSt6vectorIiSaIiEE12_M_check_lenEmPKc = comdat any

$_ZN9__gnu_cxxmiIPiSt6vectorIiSaIiEEEENS_17__normal_iteratorIT_T0_E15difference_typeERKS8_SB_ = comdat any

$_ZNSt12_Vector_baseIiSaIiEE11_M_allocateEm = comdat any

$_ZSt34__uninitialized_move_if_noexcept_aIPiS0_SaIiEET0_T_S3_S2_RT1_ = comdat any

$_ZNK9__gnu_cxx17__normal_iteratorIPiSt6vectorIiSaIiEEE4baseEv = comdat any

$_ZNSt16allocator_traitsISaIiEE7destroyIiEEvRS0_PT_ = comdat any

$_ZNKSt6vectorIiSaIiEE8max_sizeEv = comdat any

$_ZNSt16allocator_traitsISaIiEE8max_sizeERKS0_ = comdat any

$_ZNKSt12_Vector_baseIiSaIiEE19_M_get_Tp_allocatorEv = comdat any

$_ZNK9__gnu_cxx13new_allocatorIiE8max_sizeEv = comdat any

$_ZNSt16allocator_traitsISaIiEE8allocateERS0_m = comdat any

$_ZN9__gnu_cxx13new_allocatorIiE8allocateEmPKv = comdat any

$_ZSt22__uninitialized_copy_aISt13move_iteratorIPiES1_iET0_T_S4_S3_RSaIT1_E = comdat any

$_ZSt32__make_move_if_noexcept_iteratorIiSt13move_iteratorIPiEET0_PT_ = comdat any

$_ZSt18uninitialized_copyISt13move_iteratorIPiES1_ET0_T_S4_S3_ = comdat any

$_ZNSt20__uninitialized_copyILb1EE13__uninit_copyISt13move_iteratorIPiES3_EET0_T_S6_S5_ = comdat any

$_ZSt4copyISt13move_iteratorIPiES1_ET0_T_S4_S3_ = comdat any

$_ZSt14__copy_move_a2ILb1EPiS0_ET1_T0_S2_S1_ = comdat any

$_ZSt12__miter_baseIPiEDTcl12__miter_basecldtfp_4baseEEESt13move_iteratorIT_E = comdat any

$_ZSt13__copy_move_aILb1EPiS0_ET1_T0_S2_S1_ = comdat any

$_ZSt12__niter_baseIPiET_S1_ = comdat any

$_ZNSt11__copy_moveILb1ELb1ESt26random_access_iterator_tagE8__copy_mIiEEPT_PKS3_S6_S4_ = comdat any

$_ZSt12__miter_baseIPiET_S1_ = comdat any

$_ZNKSt13move_iteratorIPiE4baseEv = comdat any

$_ZNSt13move_iteratorIPiEC2ES0_ = comdat any

$_ZN9__gnu_cxx13new_allocatorIiE7destroyIiEEvPT_ = comdat any

$_ZN9__gnu_cxx17__normal_iteratorIPiSt6vectorIiSaIiEEEC2ERKS1_ = comdat any

$_ZSt9__reverseIN9__gnu_cxx17__normal_iteratorIPiSt6vectorIiSaIiEEEEEvT_S7_St26random_access_iterator_tag = comdat any

$_ZSt19__iterator_categoryIN9__gnu_cxx17__normal_iteratorIPiSt6vectorIiSaIiEEEEENSt15iterator_traitsIT_E17iterator_categoryERKS8_ = comdat any

$_ZN9__gnu_cxxeqIPiSt6vectorIiSaIiEEEEbRKNS_17__normal_iteratorIT_T0_EESA_ = comdat any

$_ZN9__gnu_cxx17__normal_iteratorIPiSt6vectorIiSaIiEEEmmEv = comdat any

$_ZN9__gnu_cxxltIPiSt6vectorIiSaIiEEEEbRKNS_17__normal_iteratorIT_T0_EESA_ = comdat any

$_ZSt9iter_swapIN9__gnu_cxx17__normal_iteratorIPiSt6vectorIiSaIiEEEES6_EvT_T0_ = comdat any

$_ZN9__gnu_cxx17__normal_iteratorIPiSt6vectorIiSaIiEEEppEv = comdat any

$_ZNK9__gnu_cxx17__normal_iteratorIPiSt6vectorIiSaIiEEEdeEv = comdat any

$_ZNSt12_Vector_baseISt4pairIiiESaIS1_EEC2Ev = comdat any

$_ZNSt12_Vector_baseISt4pairIiiESaIS1_EE12_Vector_implC2Ev = comdat any

$_ZNSaISt4pairIiiEEC2Ev = comdat any

$_ZN9__gnu_cxx13new_allocatorISt4pairIiiEEC2Ev = comdat any

$_ZSt8_DestroyIPSt4pairIiiES1_EvT_S3_RSaIT0_E = comdat any

$_ZNSt12_Vector_baseISt4pairIiiESaIS1_EE19_M_get_Tp_allocatorEv = comdat any

$_ZNSt12_Vector_baseISt4pairIiiESaIS1_EED2Ev = comdat any

$_ZSt8_DestroyIPSt4pairIiiEEvT_S3_ = comdat any

$_ZNSt12_Destroy_auxILb1EE9__destroyIPSt4pairIiiEEEvT_S5_ = comdat any

$_ZNSt12_Vector_baseISt4pairIiiESaIS1_EE13_M_deallocateEPS1_m = comdat any

$_ZNSt12_Vector_baseISt4pairIiiESaIS1_EE12_Vector_implD2Ev = comdat any

$_ZNSt16allocator_traitsISaISt4pairIiiEEE10deallocateERS2_PS1_m = comdat any

$_ZN9__gnu_cxx13new_allocatorISt4pairIiiEE10deallocateEPS2_m = comdat any

$_ZNSaISt4pairIiiEED2Ev = comdat any

$_ZN9__gnu_cxx13new_allocatorISt4pairIiiEED2Ev = comdat any

$_ZNKSt6vectorISt4pairIiiESaIS1_EE4sizeEv = comdat any

$_ZNSt6vectorISt4pairIiiESaIS1_EE17_M_default_appendEm = comdat any

$_ZNSt6vectorISt4pairIiiESaIS1_EE15_M_erase_at_endEPS1_ = comdat any

$_ZNKSt6vectorISt4pairIiiESaIS1_EE8max_sizeEv = comdat any

$_ZSt27__uninitialized_default_n_aIPSt4pairIiiEmS1_ET_S3_T0_RSaIT1_E = comdat any

$_ZNKSt6vectorISt4pairIiiESaIS1_EE12_M_check_lenEmPKc = comdat any

$_ZNSt12_Vector_baseISt4pairIiiESaIS1_EE11_M_allocateEm = comdat any

$_ZSt34__uninitialized_move_if_noexcept_aIPSt4pairIiiES2_SaIS1_EET0_T_S5_S4_RT1_ = comdat any

$_ZNSt16allocator_traitsISaISt4pairIiiEEE8max_sizeERKS2_ = comdat any

$_ZNKSt12_Vector_baseISt4pairIiiESaIS1_EE19_M_get_Tp_allocatorEv = comdat any

$_ZNK9__gnu_cxx13new_allocatorISt4pairIiiEE8max_sizeEv = comdat any

$_ZSt25__uninitialized_default_nIPSt4pairIiiEmET_S3_T0_ = comdat any

$_ZNSt27__uninitialized_default_n_1ILb0EE18__uninit_default_nIPSt4pairIiiEmEET_S5_T0_ = comdat any

$_ZSt10_ConstructISt4pairIiiEJEEvPT_DpOT0_ = comdat any

$_ZSt11__addressofISt4pairIiiEEPT_RS2_ = comdat any

$_ZNSt16allocator_traitsISaISt4pairIiiEEE8allocateERS2_m = comdat any

$_ZN9__gnu_cxx13new_allocatorISt4pairIiiEE8allocateEmPKv = comdat any

$_ZSt22__uninitialized_copy_aISt13move_iteratorIPSt4pairIiiEES3_S2_ET0_T_S6_S5_RSaIT1_E = comdat any

$_ZSt32__make_move_if_noexcept_iteratorISt4pairIiiESt13move_iteratorIPS1_EET0_PT_ = comdat any

$_ZSt18uninitialized_copyISt13move_iteratorIPSt4pairIiiEES3_ET0_T_S6_S5_ = comdat any

$_ZNSt20__uninitialized_copyILb0EE13__uninit_copyISt13move_iteratorIPSt4pairIiiEES5_EET0_T_S8_S7_ = comdat any

$_ZStneIPSt4pairIiiEEbRKSt13move_iteratorIT_ES7_ = comdat any

$_ZSt10_ConstructISt4pairIiiEJS1_EEvPT_DpOT0_ = comdat any

$_ZNKSt13move_iteratorIPSt4pairIiiEEdeEv = comdat any

$_ZNSt13move_iteratorIPSt4pairIiiEEppEv = comdat any

$_ZSteqIPSt4pairIiiEEbRKSt13move_iteratorIT_ES7_ = comdat any

$_ZNKSt13move_iteratorIPSt4pairIiiEE4baseEv = comdat any

$_ZNSt13move_iteratorIPSt4pairIiiEEC2ES2_ = comdat any

@_ZStL8__ioinit = internal global %"class.std::ios_base::Init" zeroinitializer, align 1
@__dso_handle = external hidden global i8
@n = global i32 0, align 4
@s = global %"struct.std::pair" zeroinitializer, align 4
@g = global %"struct.std::pair" zeroinitializer, align 4
@lineseg = global %"class.std::vector" zeroinitializer, align 8
@street = global %"class.std::vector" zeroinitializer, align 8
@sign = global %"class.std::vector" zeroinitializer, align 8
@_ZSt3cin = external global %"class.std::basic_istream", align 8
@_ZSt4cout = external global %"class.std::basic_ostream", align 8
@.str = private unnamed_addr constant [2 x i8] c" \00", align 1
@.str.4 = private unnamed_addr constant [26 x i8] c"vector::_M_realloc_insert\00", align 1
@_ZStL19piecewise_construct = internal constant %"struct.std::piecewise_construct_t" undef, align 1
@.str.5 = private unnamed_addr constant [26 x i8] c"vector::_M_default_append\00", align 1
@llvm.global_ctors = appending global [1 x { i32, void ()*, i8* }] [{ i32, void ()*, i8* } { i32 65535, void ()* @_GLOBAL__sub_I_s495145958.cpp, i8* null }]

; Function Attrs: noinline uwtable
define internal void @__cxx_global_var_init() #0 section ".text.startup" {
  call void @_ZNSt8ios_base4InitC1Ev(%"class.std::ios_base::Init"* @_ZStL8__ioinit)
  %1 = call i32 @__cxa_atexit(void (i8*)* bitcast (void (%"class.std::ios_base::Init"*)* @_ZNSt8ios_base4InitD1Ev to void (i8*)*), i8* getelementptr inbounds (%"class.std::ios_base::Init", %"class.std::ios_base::Init"* @_ZStL8__ioinit, i32 0, i32 0), i8* @__dso_handle) #3
  ret void
}

declare void @_ZNSt8ios_base4InitC1Ev(%"class.std::ios_base::Init"*) unnamed_addr #1

; Function Attrs: nounwind
declare void @_ZNSt8ios_base4InitD1Ev(%"class.std::ios_base::Init"*) unnamed_addr #2

; Function Attrs: nounwind
declare i32 @__cxa_atexit(void (i8*)*, i8*, i8*) #3

; Function Attrs: noinline uwtable
define internal void @__cxx_global_var_init.1() #0 section ".text.startup" {
  call void @_ZNSt6vectorISt4pairIS0_IiiES1_ESaIS2_EEC2Ev(%"class.std::vector"* @lineseg) #3
  %1 = call i32 @__cxa_atexit(void (i8*)* bitcast (void (%"class.std::vector"*)* @_ZNSt6vectorISt4pairIS0_IiiES1_ESaIS2_EED2Ev to void (i8*)*), i8* bitcast (%"class.std::vector"* @lineseg to i8*), i8* @__dso_handle) #3
  ret void
}

; Function Attrs: noinline nounwind uwtable
define linkonce_odr void @_ZNSt6vectorISt4pairIS0_IiiES1_ESaIS2_EEC2Ev(%"class.std::vector"* %0) unnamed_addr #4 comdat align 2 personality i8* bitcast (i32 (...)* @__gxx_personality_v0 to i8*) {
  %2 = bitcast %"class.std::vector"* %0 to %"struct.std::_Vector_base"*
  invoke void @_ZNSt12_Vector_baseISt4pairIS0_IiiES1_ESaIS2_EEC2Ev(%"struct.std::_Vector_base"* %2)
          to label %3 unwind label %4

3:                                                ; preds = %1
  ret void

4:                                                ; preds = %1
  %5 = landingpad { i8*, i32 }
          catch i8* null
  %6 = extractvalue { i8*, i32 } %5, 0
  call void @__clang_call_terminate(i8* %6) #14
  unreachable
}

; Function Attrs: noinline nounwind uwtable
define linkonce_odr void @_ZNSt6vectorISt4pairIS0_IiiES1_ESaIS2_EED2Ev(%"class.std::vector"* %0) unnamed_addr #4 comdat align 2 personality i8* bitcast (i32 (...)* @__gxx_personality_v0 to i8*) {
  %2 = bitcast %"class.std::vector"* %0 to %"struct.std::_Vector_base"*
  %3 = getelementptr inbounds %"struct.std::_Vector_base", %"struct.std::_Vector_base"* %2, i32 0, i32 0
  %4 = getelementptr inbounds %"struct.std::_Vector_base<std::pair<std::pair<int, int>, std::pair<int, int> >, std::allocator<std::pair<std::pair<int, int>, std::pair<int, int> > > >::_Vector_impl", %"struct.std::_Vector_base<std::pair<std::pair<int, int>, std::pair<int, int> >, std::allocator<std::pair<std::pair<int, int>, std::pair<int, int> > > >::_Vector_impl"* %3, i32 0, i32 0
  %5 = load %"struct.std::pair.0"*, %"struct.std::pair.0"** %4, align 8
  %6 = bitcast %"class.std::vector"* %0 to %"struct.std::_Vector_base"*
  %7 = getelementptr inbounds %"struct.std::_Vector_base", %"struct.std::_Vector_base"* %6, i32 0, i32 0
  %8 = getelementptr inbounds %"struct.std::_Vector_base<std::pair<std::pair<int, int>, std::pair<int, int> >, std::allocator<std::pair<std::pair<int, int>, std::pair<int, int> > > >::_Vector_impl", %"struct.std::_Vector_base<std::pair<std::pair<int, int>, std::pair<int, int> >, std::allocator<std::pair<std::pair<int, int>, std::pair<int, int> > > >::_Vector_impl"* %7, i32 0, i32 1
  %9 = load %"struct.std::pair.0"*, %"struct.std::pair.0"** %8, align 8
  %10 = bitcast %"class.std::vector"* %0 to %"struct.std::_Vector_base"*
  %11 = call dereferenceable(1) %"class.std::allocator"* @_ZNSt12_Vector_baseISt4pairIS0_IiiES1_ESaIS2_EE19_M_get_Tp_allocatorEv(%"struct.std::_Vector_base"* %10) #3
  invoke void @_ZSt8_DestroyIPSt4pairIS0_IiiES1_ES2_EvT_S4_RSaIT0_E(%"struct.std::pair.0"* %5, %"struct.std::pair.0"* %9, %"class.std::allocator"* dereferenceable(1) %11)
          to label %12 unwind label %14

12:                                               ; preds = %1
  %13 = bitcast %"class.std::vector"* %0 to %"struct.std::_Vector_base"*
  call void @_ZNSt12_Vector_baseISt4pairIS0_IiiES1_ESaIS2_EED2Ev(%"struct.std::_Vector_base"* %13) #3
  ret void

14:                                               ; preds = %1
  %15 = landingpad { i8*, i32 }
          catch i8* null
  %16 = extractvalue { i8*, i32 } %15, 0
  %17 = extractvalue { i8*, i32 } %15, 1
  %18 = bitcast %"class.std::vector"* %0 to %"struct.std::_Vector_base"*
  call void @_ZNSt12_Vector_baseISt4pairIS0_IiiES1_ESaIS2_EED2Ev(%"struct.std::_Vector_base"* %18) #3
  br label %19

19:                                               ; preds = %14
  call void @__clang_call_terminate(i8* %16) #14
  unreachable
}

; Function Attrs: noinline uwtable
define internal void @__cxx_global_var_init.2() #0 section ".text.startup" {
  call void @_ZNSt6vectorISt4pairIS0_IiiES1_ESaIS2_EEC2Ev(%"class.std::vector"* @street) #3
  %1 = call i32 @__cxa_atexit(void (i8*)* bitcast (void (%"class.std::vector"*)* @_ZNSt6vectorISt4pairIS0_IiiES1_ESaIS2_EED2Ev to void (i8*)*), i8* bitcast (%"class.std::vector"* @street to i8*), i8* @__dso_handle) #3
  ret void
}

; Function Attrs: noinline uwtable
define internal void @__cxx_global_var_init.3() #0 section ".text.startup" {
  call void @_ZNSt6vectorISt4pairIS0_IiiES1_ESaIS2_EEC2Ev(%"class.std::vector"* @sign) #3
  %1 = call i32 @__cxa_atexit(void (i8*)* bitcast (void (%"class.std::vector"*)* @_ZNSt6vectorISt4pairIS0_IiiES1_ESaIS2_EED2Ev to void (i8*)*), i8* bitcast (%"class.std::vector"* @sign to i8*), i8* @__dso_handle) #3
  ret void
}

; Function Attrs: noinline uwtable
define double @_Z7sqrdistSt4pairIiiES0_(i64 %0, i64 %1) #0 {
  %3 = alloca %"struct.std::pair", align 4
  %4 = alloca %"struct.std::pair", align 4
  %5 = bitcast %"struct.std::pair"* %3 to i64*
  store i64 %0, i64* %5, align 4
  %6 = bitcast %"struct.std::pair"* %4 to i64*
  store i64 %1, i64* %6, align 4
  %7 = getelementptr inbounds %"struct.std::pair", %"struct.std::pair"* %3, i32 0, i32 0
  %8 = load i32, i32* %7, align 4
  %9 = getelementptr inbounds %"struct.std::pair", %"struct.std::pair"* %4, i32 0, i32 0
  %10 = load i32, i32* %9, align 4
  %11 = sub nsw i32 %8, %10
  %12 = call i32 @_Z3sqrIiET_S0_(i32 %11)
  %13 = getelementptr inbounds %"struct.std::pair", %"struct.std::pair"* %3, i32 0, i32 1
  %14 = load i32, i32* %13, align 4
  %15 = getelementptr inbounds %"struct.std::pair", %"struct.std::pair"* %4, i32 0, i32 1
  %16 = load i32, i32* %15, align 4
  %17 = sub nsw i32 %14, %16
  %18 = call i32 @_Z3sqrIiET_S0_(i32 %17)
  %19 = add nsw i32 %12, %18
  %20 = sitofp i32 %19 to double
  ret double %20
}

; Function Attrs: noinline nounwind uwtable
define linkonce_odr i32 @_Z3sqrIiET_S0_(i32 %0) #4 comdat {
  %2 = mul nsw i32 %0, %0
  ret i32 %2
}

; Function Attrs: noinline uwtable
define double @_Z4distSt4pairIiiES0_(i64 %0, i64 %1) #0 {
  %3 = alloca %"struct.std::pair", align 4
  %4 = alloca %"struct.std::pair", align 4
  %5 = bitcast %"struct.std::pair"* %3 to i64*
  store i64 %0, i64* %5, align 4
  %6 = bitcast %"struct.std::pair"* %4 to i64*
  store i64 %1, i64* %6, align 4
  %7 = getelementptr inbounds %"struct.std::pair", %"struct.std::pair"* %3, i32 0, i32 0
  %8 = load i32, i32* %7, align 4
  %9 = getelementptr inbounds %"struct.std::pair", %"struct.std::pair"* %4, i32 0, i32 0
  %10 = load i32, i32* %9, align 4
  %11 = sub nsw i32 %8, %10
  %12 = call i32 @_Z3sqrIiET_S0_(i32 %11)
  %13 = getelementptr inbounds %"struct.std::pair", %"struct.std::pair"* %3, i32 0, i32 1
  %14 = load i32, i32* %13, align 4
  %15 = getelementptr inbounds %"struct.std::pair", %"struct.std::pair"* %4, i32 0, i32 1
  %16 = load i32, i32* %15, align 4
  %17 = sub nsw i32 %14, %16
  %18 = call i32 @_Z3sqrIiET_S0_(i32 %17)
  %19 = add nsw i32 %12, %18
  %20 = call double @_ZSt4sqrtIiEN9__gnu_cxx11__enable_ifIXsr12__is_integerIT_EE7__valueEdE6__typeES2_(i32 %19)
  ret double %20
}

; Function Attrs: noinline nounwind uwtable
define linkonce_odr double @_ZSt4sqrtIiEN9__gnu_cxx11__enable_ifIXsr12__is_integerIT_EE7__valueEdE6__typeES2_(i32 %0) #4 comdat {
  %2 = sitofp i32 %0 to double
  %3 = call double @sqrt(double %2) #3
  ret double %3
}

; Function Attrs: noinline norecurse uwtable
define i32 @main() #5 personality i8* bitcast (i32 (...)* @__gxx_personality_v0 to i8*) {
  %1 = alloca %"struct.std::pair", align 4
  %2 = alloca %"struct.std::pair", align 4
  %3 = alloca %"struct.std::pair.0", align 4
  %4 = alloca %"struct.std::pair.0", align 4
  %5 = alloca %"struct.std::pair.0", align 4
  %6 = alloca %"struct.std::pair", align 4
  %7 = alloca %"struct.std::pair", align 4
  %8 = alloca %"struct.std::pair", align 4
  %9 = alloca %"struct.std::pair", align 4
  %10 = alloca %"struct.std::pair", align 4
  %11 = alloca %"struct.std::pair", align 4
  %12 = alloca %"struct.std::pair", align 4
  %13 = alloca %"struct.std::pair", align 4
  %14 = alloca %"struct.std::pair", align 4
  %15 = alloca %"struct.std::pair", align 4
  %16 = alloca %"struct.std::pair", align 4
  %17 = alloca %"struct.std::pair", align 4
  %18 = alloca %"class.std::map", align 8
  %19 = alloca %"struct.std::_Rb_tree_iterator", align 8
  %20 = alloca %"struct.std::_Rb_tree_iterator", align 8
  %21 = alloca %"struct.std::pair.9", align 8
  %22 = alloca i64, align 8
  %23 = alloca %"struct.std::pair.6", align 8
  %24 = alloca %"struct.std::_Rb_tree_iterator", align 8
  %25 = alloca %"struct.std::_Rb_tree_iterator", align 8
  %26 = alloca %"struct.std::pair.9", align 8
  %27 = alloca i64, align 8
  %28 = alloca %"struct.std::pair.6", align 8
  %29 = alloca [512 x [512 x double]], align 16
  %30 = alloca [512 x [512 x double]], align 16
  %31 = alloca %"class.std::vector", align 8
  %32 = alloca %"class.__gnu_cxx::__normal_iterator", align 8
  %33 = alloca %"class.__gnu_cxx::__normal_iterator", align 8
  %34 = alloca %"class.std::allocator", align 1
  %35 = alloca %"struct.std::pair.0", align 4
  %36 = alloca %"struct.std::pair.0", align 4
  %37 = alloca %"struct.std::pair", align 4
  %38 = alloca %"struct.std::pair", align 4
  %39 = alloca %"struct.std::pair", align 4
  %40 = alloca %"struct.std::pair", align 4
  %41 = alloca %"struct.std::pair", align 4
  %42 = alloca %"struct.std::pair", align 4
  %43 = alloca %"class.__gnu_cxx::__normal_iterator.12", align 8
  %44 = alloca %"class.__gnu_cxx::__normal_iterator", align 8
  %45 = alloca %"class.__gnu_cxx::__normal_iterator", align 8
  %46 = alloca %"class.__gnu_cxx::__normal_iterator", align 8
  %47 = alloca %"struct.std::pair.0", align 4
  %48 = alloca %"struct.std::pair.0", align 4
  %49 = alloca %"struct.std::pair", align 4
  %50 = alloca %"struct.std::pair", align 4
  %51 = alloca %"struct.std::pair", align 4
  %52 = alloca %"struct.std::pair", align 4
  %53 = alloca %"struct.std::pair", align 4
  %54 = alloca %"struct.std::pair", align 4
  %55 = alloca %"class.__gnu_cxx::__normal_iterator.12", align 8
  %56 = alloca %"class.__gnu_cxx::__normal_iterator", align 8
  %57 = alloca %"class.__gnu_cxx::__normal_iterator", align 8
  %58 = alloca %"class.__gnu_cxx::__normal_iterator", align 8
  %59 = alloca %"struct.std::pair.0", align 4
  %60 = alloca %"struct.std::pair.0", align 4
  %61 = alloca %"struct.std::pair.0", align 4
  %62 = alloca %"struct.std::pair.0", align 4
  %63 = alloca %"struct.std::pair", align 4
  %64 = alloca %"struct.std::pair", align 4
  %65 = alloca %"struct.std::pair", align 4
  %66 = alloca %"struct.std::pair", align 4
  %67 = alloca %"struct.std::pair", align 4
  %68 = alloca %"struct.std::pair", align 4
  %69 = alloca %"struct.std::pair", align 4
  %70 = alloca %"struct.std::pair", align 4
  %71 = alloca %"struct.std::pair", align 4
  %72 = alloca %"struct.std::pair", align 4
  %73 = alloca %"struct.std::pair", align 4
  %74 = alloca %"struct.std::pair", align 4
  %75 = alloca %"struct.std::pair", align 4
  %76 = alloca %"struct.std::pair", align 4
  %77 = alloca %"struct.std::pair", align 4
  %78 = alloca %"struct.std::pair", align 4
  %79 = alloca %"struct.std::pair", align 4
  %80 = alloca %"struct.std::pair", align 4
  %81 = alloca %"struct.std::pair", align 4
  %82 = alloca %"struct.std::pair", align 4
  %83 = alloca %"struct.std::pair", align 4
  %84 = alloca %"struct.std::pair", align 4
  %85 = alloca double, align 8
  %86 = alloca %"class.std::vector.13", align 8
  %87 = alloca i32, align 4
  %88 = alloca i32, align 4
  %89 = alloca %"class.__gnu_cxx::__normal_iterator.18", align 8
  %90 = alloca %"class.__gnu_cxx::__normal_iterator.18", align 8
  %91 = alloca %"class.std::vector.19", align 8
  %92 = alloca %"struct.std::_Rb_tree_iterator", align 8
  %93 = alloca %"struct.std::_Rb_tree_iterator", align 8
  %94 = alloca %"struct.std::_Rb_tree_iterator", align 8
  %95 = alloca %"struct.std::pair", align 4
  br label %96

96:                                               ; preds = %966, %0
  %97 = call dereferenceable(280) %"class.std::basic_istream"* @_ZNSirsERi(%"class.std::basic_istream"* @_ZSt3cin, i32* dereferenceable(4) @n)
  %98 = load i32, i32* @n, align 4
  %99 = icmp ne i32 %98, 0
  br i1 %99, label %100, label %969

100:                                              ; preds = %96
  %101 = call dereferenceable(280) %"class.std::basic_istream"* @_ZNSirsERi(%"class.std::basic_istream"* @_ZSt3cin, i32* dereferenceable(4) getelementptr inbounds (%"struct.std::pair", %"struct.std::pair"* @s, i32 0, i32 0))
  %102 = call dereferenceable(280) %"class.std::basic_istream"* @_ZNSirsERi(%"class.std::basic_istream"* %101, i32* dereferenceable(4) getelementptr inbounds (%"struct.std::pair", %"struct.std::pair"* @s, i32 0, i32 1))
  %103 = call dereferenceable(280) %"class.std::basic_istream"* @_ZNSirsERi(%"class.std::basic_istream"* @_ZSt3cin, i32* dereferenceable(4) getelementptr inbounds (%"struct.std::pair", %"struct.std::pair"* @g, i32 0, i32 0))
  %104 = call dereferenceable(280) %"class.std::basic_istream"* @_ZNSirsERi(%"class.std::basic_istream"* %103, i32* dereferenceable(4) getelementptr inbounds (%"struct.std::pair", %"struct.std::pair"* @g, i32 0, i32 1))
  call void @_ZNSt6vectorISt4pairIS0_IiiES1_ESaIS2_EE5clearEv(%"class.std::vector"* @lineseg) #3
  call void @_ZNSt6vectorISt4pairIS0_IiiES1_ESaIS2_EE5clearEv(%"class.std::vector"* @street) #3
  call void @_ZNSt6vectorISt4pairIS0_IiiES1_ESaIS2_EE5clearEv(%"class.std::vector"* @sign) #3
  br label %105

105:                                              ; preds = %123, %100
  %.01 = phi i32 [ 0, %100 ], [ %124, %123 ]
  %106 = load i32, i32* @n, align 4
  %107 = icmp slt i32 %.01, %106
  br i1 %107, label %108, label %125

108:                                              ; preds = %105
  call void @_ZNSt4pairIiiEC2IiiLb1EEEv(%"struct.std::pair"* %1)
  call void @_ZNSt4pairIiiEC2IiiLb1EEEv(%"struct.std::pair"* %2)
  %109 = getelementptr inbounds %"struct.std::pair", %"struct.std::pair"* %1, i32 0, i32 0
  %110 = call dereferenceable(280) %"class.std::basic_istream"* @_ZNSirsERi(%"class.std::basic_istream"* @_ZSt3cin, i32* dereferenceable(4) %109)
  %111 = getelementptr inbounds %"struct.std::pair", %"struct.std::pair"* %1, i32 0, i32 1
  %112 = call dereferenceable(280) %"class.std::basic_istream"* @_ZNSirsERi(%"class.std::basic_istream"* %110, i32* dereferenceable(4) %111)
  %113 = getelementptr inbounds %"struct.std::pair", %"struct.std::pair"* %2, i32 0, i32 0
  %114 = call dereferenceable(280) %"class.std::basic_istream"* @_ZNSirsERi(%"class.std::basic_istream"* %112, i32* dereferenceable(4) %113)
  %115 = getelementptr inbounds %"struct.std::pair", %"struct.std::pair"* %2, i32 0, i32 1
  %116 = call dereferenceable(280) %"class.std::basic_istream"* @_ZNSirsERi(%"class.std::basic_istream"* %114, i32* dereferenceable(4) %115)
  %117 = call { i64, i64 } @_ZSt9make_pairIRSt4pairIiiES2_ES0_INSt17__decay_and_stripIT_E6__typeENS3_IT0_E6__typeEEOS4_OS7_(%"struct.std::pair"* dereferenceable(8) %1, %"struct.std::pair"* dereferenceable(8) %2)
  %118 = bitcast %"struct.std::pair.0"* %3 to { i64, i64 }*
  %119 = getelementptr inbounds { i64, i64 }, { i64, i64 }* %118, i32 0, i32 0
  %120 = extractvalue { i64, i64 } %117, 0
  store i64 %120, i64* %119, align 4
  %121 = getelementptr inbounds { i64, i64 }, { i64, i64 }* %118, i32 0, i32 1
  %122 = extractvalue { i64, i64 } %117, 1
  store i64 %122, i64* %121, align 4
  call void @_ZNSt6vectorISt4pairIS0_IiiES1_ESaIS2_EE9push_backEOS2_(%"class.std::vector"* @lineseg, %"struct.std::pair.0"* dereferenceable(16) %3)
  br label %123

123:                                              ; preds = %108
  %124 = add nsw i32 %.01, 1
  br label %105

125:                                              ; preds = %105
  br label %126

126:                                              ; preds = %237, %125
  %.02 = phi i32 [ 0, %125 ], [ %238, %237 ]
  %127 = sext i32 %.02 to i64
  %128 = call i64 @_ZNKSt6vectorISt4pairIS0_IiiES1_ESaIS2_EE4sizeEv(%"class.std::vector"* @lineseg) #3
  %129 = icmp ult i64 %127, %128
  br i1 %129, label %130, label %239

130:                                              ; preds = %126
  call void @_ZNSt4pairIS_IiiES0_EC2IS0_S0_Lb1EEEv(%"struct.std::pair.0"* %4)
  %131 = sext i32 %.02 to i64
  %132 = call dereferenceable(16) %"struct.std::pair.0"* @_ZNSt6vectorISt4pairIS0_IiiES1_ESaIS2_EEixEm(%"class.std::vector"* @lineseg, i64 %131) #3
  %133 = call dereferenceable(16) %"struct.std::pair.0"* @_ZNSt4pairIS_IiiES0_EaSERKS1_(%"struct.std::pair.0"* %4, %"struct.std::pair.0"* dereferenceable(16) %132)
  br label %134

134:                                              ; preds = %223, %130
  %.07 = phi i32 [ 0, %130 ], [ %224, %223 ]
  %.04 = phi i8 [ 1, %130 ], [ %.26, %223 ]
  %.03 = phi i8 [ 1, %130 ], [ %.2, %223 ]
  %135 = sext i32 %.07 to i64
  %136 = call i64 @_ZNKSt6vectorISt4pairIS0_IiiES1_ESaIS2_EE4sizeEv(%"class.std::vector"* @lineseg) #3
  %137 = icmp ult i64 %135, %136
  br i1 %137, label %138, label %225

138:                                              ; preds = %134
  %139 = icmp ne i32 %.07, %.02
  br i1 %139, label %140, label %222

140:                                              ; preds = %138
  call void @_ZNSt4pairIS_IiiES0_EC2IS0_S0_Lb1EEEv(%"struct.std::pair.0"* %5)
  %141 = sext i32 %.07 to i64
  %142 = call dereferenceable(16) %"struct.std::pair.0"* @_ZNSt6vectorISt4pairIS0_IiiES1_ESaIS2_EEixEm(%"class.std::vector"* @lineseg, i64 %141) #3
  %143 = call dereferenceable(16) %"struct.std::pair.0"* @_ZNSt4pairIS_IiiES0_EaSERKS1_(%"struct.std::pair.0"* %5, %"struct.std::pair.0"* dereferenceable(16) %142)
  %144 = getelementptr inbounds %"struct.std::pair.0", %"struct.std::pair.0"* %5, i32 0, i32 0
  %145 = bitcast %"struct.std::pair"* %6 to i8*
  %146 = bitcast %"struct.std::pair"* %144 to i8*
  call void @llvm.memcpy.p0i8.p0i8.i64(i8* align 4 %145, i8* align 4 %146, i64 8, i1 false)
  %147 = getelementptr inbounds %"struct.std::pair.0", %"struct.std::pair.0"* %4, i32 0, i32 0
  %148 = bitcast %"struct.std::pair"* %7 to i8*
  %149 = bitcast %"struct.std::pair"* %147 to i8*
  call void @llvm.memcpy.p0i8.p0i8.i64(i8* align 4 %148, i8* align 4 %149, i64 8, i1 false)
  %150 = bitcast %"struct.std::pair"* %6 to i64*
  %151 = load i64, i64* %150, align 4
  %152 = bitcast %"struct.std::pair"* %7 to i64*
  %153 = load i64, i64* %152, align 4
  %154 = call double @_Z4distSt4pairIiiES0_(i64 %151, i64 %153)
  %155 = getelementptr inbounds %"struct.std::pair.0", %"struct.std::pair.0"* %5, i32 0, i32 1
  %156 = bitcast %"struct.std::pair"* %8 to i8*
  %157 = bitcast %"struct.std::pair"* %155 to i8*
  call void @llvm.memcpy.p0i8.p0i8.i64(i8* align 4 %156, i8* align 4 %157, i64 8, i1 false)
  %158 = getelementptr inbounds %"struct.std::pair.0", %"struct.std::pair.0"* %4, i32 0, i32 0
  %159 = bitcast %"struct.std::pair"* %9 to i8*
  %160 = bitcast %"struct.std::pair"* %158 to i8*
  call void @llvm.memcpy.p0i8.p0i8.i64(i8* align 4 %159, i8* align 4 %160, i64 8, i1 false)
  %161 = bitcast %"struct.std::pair"* %8 to i64*
  %162 = load i64, i64* %161, align 4
  %163 = bitcast %"struct.std::pair"* %9 to i64*
  %164 = load i64, i64* %163, align 4
  %165 = call double @_Z4distSt4pairIiiES0_(i64 %162, i64 %164)
  %166 = fadd double %154, %165
  %167 = getelementptr inbounds %"struct.std::pair.0", %"struct.std::pair.0"* %5, i32 0, i32 0
  %168 = bitcast %"struct.std::pair"* %10 to i8*
  %169 = bitcast %"struct.std::pair"* %167 to i8*
  call void @llvm.memcpy.p0i8.p0i8.i64(i8* align 4 %168, i8* align 4 %169, i64 8, i1 false)
  %170 = getelementptr inbounds %"struct.std::pair.0", %"struct.std::pair.0"* %5, i32 0, i32 1
  %171 = bitcast %"struct.std::pair"* %11 to i8*
  %172 = bitcast %"struct.std::pair"* %170 to i8*
  call void @llvm.memcpy.p0i8.p0i8.i64(i8* align 4 %171, i8* align 4 %172, i64 8, i1 false)
  %173 = bitcast %"struct.std::pair"* %10 to i64*
  %174 = load i64, i64* %173, align 4
  %175 = bitcast %"struct.std::pair"* %11 to i64*
  %176 = load i64, i64* %175, align 4
  %177 = call double @_Z4distSt4pairIiiES0_(i64 %174, i64 %176)
  %178 = fsub double %166, %177
  %179 = call double @llvm.fabs.f64(double %178)
  %180 = fcmp olt double %179, 1.000000e-09
  br i1 %180, label %181, label %182

181:                                              ; preds = %140
  br label %182

182:                                              ; preds = %181, %140
  %.1 = phi i8 [ 0, %181 ], [ %.03, %140 ]
  %183 = getelementptr inbounds %"struct.std::pair.0", %"struct.std::pair.0"* %5, i32 0, i32 0
  %184 = bitcast %"struct.std::pair"* %12 to i8*
  %185 = bitcast %"struct.std::pair"* %183 to i8*
  call void @llvm.memcpy.p0i8.p0i8.i64(i8* align 4 %184, i8* align 4 %185, i64 8, i1 false)
  %186 = getelementptr inbounds %"struct.std::pair.0", %"struct.std::pair.0"* %4, i32 0, i32 1
  %187 = bitcast %"struct.std::pair"* %13 to i8*
  %188 = bitcast %"struct.std::pair"* %186 to i8*
  call void @llvm.memcpy.p0i8.p0i8.i64(i8* align 4 %187, i8* align 4 %188, i64 8, i1 false)
  %189 = bitcast %"struct.std::pair"* %12 to i64*
  %190 = load i64, i64* %189, align 4
  %191 = bitcast %"struct.std::pair"* %13 to i64*
  %192 = load i64, i64* %191, align 4
  %193 = call double @_Z4distSt4pairIiiES0_(i64 %190, i64 %192)
  %194 = getelementptr inbounds %"struct.std::pair.0", %"struct.std::pair.0"* %5, i32 0, i32 1
  %195 = bitcast %"struct.std::pair"* %14 to i8*
  %196 = bitcast %"struct.std::pair"* %194 to i8*
  call void @llvm.memcpy.p0i8.p0i8.i64(i8* align 4 %195, i8* align 4 %196, i64 8, i1 false)
  %197 = getelementptr inbounds %"struct.std::pair.0", %"struct.std::pair.0"* %4, i32 0, i32 1
  %198 = bitcast %"struct.std::pair"* %15 to i8*
  %199 = bitcast %"struct.std::pair"* %197 to i8*
  call void @llvm.memcpy.p0i8.p0i8.i64(i8* align 4 %198, i8* align 4 %199, i64 8, i1 false)
  %200 = bitcast %"struct.std::pair"* %14 to i64*
  %201 = load i64, i64* %200, align 4
  %202 = bitcast %"struct.std::pair"* %15 to i64*
  %203 = load i64, i64* %202, align 4
  %204 = call double @_Z4distSt4pairIiiES0_(i64 %201, i64 %203)
  %205 = fadd double %193, %204
  %206 = getelementptr inbounds %"struct.std::pair.0", %"struct.std::pair.0"* %5, i32 0, i32 0
  %207 = bitcast %"struct.std::pair"* %16 to i8*
  %208 = bitcast %"struct.std::pair"* %206 to i8*
  call void @llvm.memcpy.p0i8.p0i8.i64(i8* align 4 %207, i8* align 4 %208, i64 8, i1 false)
  %209 = getelementptr inbounds %"struct.std::pair.0", %"struct.std::pair.0"* %5, i32 0, i32 1
  %210 = bitcast %"struct.std::pair"* %17 to i8*
  %211 = bitcast %"struct.std::pair"* %209 to i8*
  call void @llvm.memcpy.p0i8.p0i8.i64(i8* align 4 %210, i8* align 4 %211, i64 8, i1 false)
  %212 = bitcast %"struct.std::pair"* %16 to i64*
  %213 = load i64, i64* %212, align 4
  %214 = bitcast %"struct.std::pair"* %17 to i64*
  %215 = load i64, i64* %214, align 4
  %216 = call double @_Z4distSt4pairIiiES0_(i64 %213, i64 %215)
  %217 = fsub double %205, %216
  %218 = call double @llvm.fabs.f64(double %217)
  %219 = fcmp olt double %218, 1.000000e-09
  br i1 %219, label %220, label %221

220:                                              ; preds = %182
  br label %221

221:                                              ; preds = %220, %182
  %.15 = phi i8 [ 0, %220 ], [ %.04, %182 ]
  br label %222

222:                                              ; preds = %221, %138
  %.26 = phi i8 [ %.15, %221 ], [ %.04, %138 ]
  %.2 = phi i8 [ %.1, %221 ], [ %.03, %138 ]
  br label %223

223:                                              ; preds = %222
  %224 = add nsw i32 %.07, 1
  br label %134

225:                                              ; preds = %134
  %226 = trunc i8 %.03 to i1
  br i1 %226, label %229, label %227

227:                                              ; preds = %225
  %228 = trunc i8 %.04 to i1
  br i1 %228, label %229, label %235

229:                                              ; preds = %227, %225
  %230 = trunc i8 %.03 to i1
  br i1 %230, label %231, label %234

231:                                              ; preds = %229
  %232 = getelementptr inbounds %"struct.std::pair.0", %"struct.std::pair.0"* %4, i32 0, i32 0
  %233 = getelementptr inbounds %"struct.std::pair.0", %"struct.std::pair.0"* %4, i32 0, i32 1
  call void @_ZSt4swapIiiENSt9enable_ifIXsr6__and_ISt14__is_swappableIT_ES1_IT0_EEE5valueEvE4typeERSt4pairIS2_S4_ESA_(%"struct.std::pair"* dereferenceable(8) %232, %"struct.std::pair"* dereferenceable(8) %233) #3
  br label %234

234:                                              ; preds = %231, %229
  call void @_ZNSt6vectorISt4pairIS0_IiiES1_ESaIS2_EE9push_backERKS2_(%"class.std::vector"* @sign, %"struct.std::pair.0"* dereferenceable(16) %4)
  br label %236

235:                                              ; preds = %227
  call void @_ZNSt6vectorISt4pairIS0_IiiES1_ESaIS2_EE9push_backERKS2_(%"class.std::vector"* @street, %"struct.std::pair.0"* dereferenceable(16) %4)
  br label %236

236:                                              ; preds = %235, %234
  br label %237

237:                                              ; preds = %236
  %238 = add nsw i32 %.02, 1
  br label %126

239:                                              ; preds = %126
  call void @_ZNSt3mapISt4pairIiiEiSt4lessIS1_ESaIS0_IKS1_iEEEC2Ev(%"class.std::map"* %18) #3
  br label %240

240:                                              ; preds = %307, %239
  %.08 = phi i32 [ 0, %239 ], [ %308, %307 ]
  %241 = sext i32 %.08 to i64
  %242 = call i64 @_ZNKSt6vectorISt4pairIS0_IiiES1_ESaIS2_EE4sizeEv(%"class.std::vector"* @street) #3
  %243 = icmp ult i64 %241, %242
  br i1 %243, label %244, label %309

244:                                              ; preds = %240
  %245 = sext i32 %.08 to i64
  %246 = call dereferenceable(16) %"struct.std::pair.0"* @_ZNSt6vectorISt4pairIS0_IiiES1_ESaIS2_EEixEm(%"class.std::vector"* @street, i64 %245) #3
  %247 = getelementptr inbounds %"struct.std::pair.0", %"struct.std::pair.0"* %246, i32 0, i32 0
  %248 = invoke %"struct.std::_Rb_tree_node_base"* @_ZNSt3mapISt4pairIiiEiSt4lessIS1_ESaIS0_IKS1_iEEE4findERS4_(%"class.std::map"* %18, %"struct.std::pair"* dereferenceable(8) %247)
          to label %249 unwind label %273

249:                                              ; preds = %244
  %250 = getelementptr inbounds %"struct.std::_Rb_tree_iterator", %"struct.std::_Rb_tree_iterator"* %19, i32 0, i32 0
  store %"struct.std::_Rb_tree_node_base"* %248, %"struct.std::_Rb_tree_node_base"** %250, align 8
  %251 = call %"struct.std::_Rb_tree_node_base"* @_ZNSt3mapISt4pairIiiEiSt4lessIS1_ESaIS0_IKS1_iEEE3endEv(%"class.std::map"* %18) #3
  %252 = getelementptr inbounds %"struct.std::_Rb_tree_iterator", %"struct.std::_Rb_tree_iterator"* %20, i32 0, i32 0
  store %"struct.std::_Rb_tree_node_base"* %251, %"struct.std::_Rb_tree_node_base"** %252, align 8
  %253 = call zeroext i1 @_ZNKSt17_Rb_tree_iteratorISt4pairIKS0_IiiEiEEeqERKS4_(%"struct.std::_Rb_tree_iterator"* %19, %"struct.std::_Rb_tree_iterator"* dereferenceable(8) %20) #3
  br i1 %253, label %254, label %277

254:                                              ; preds = %249
  %255 = sext i32 %.08 to i64
  %256 = call dereferenceable(16) %"struct.std::pair.0"* @_ZNSt6vectorISt4pairIS0_IiiES1_ESaIS2_EEixEm(%"class.std::vector"* @street, i64 %255) #3
  %257 = getelementptr inbounds %"struct.std::pair.0", %"struct.std::pair.0"* %256, i32 0, i32 0
  %258 = call i64 @_ZNKSt3mapISt4pairIiiEiSt4lessIS1_ESaIS0_IKS1_iEEE4sizeEv(%"class.std::map"* %18) #3
  store i64 %258, i64* %22, align 8
  %259 = invoke { i64, i64 } @_ZSt9make_pairIRSt4pairIiiEmES0_INSt17__decay_and_stripIT_E6__typeENS3_IT0_E6__typeEEOS4_OS7_(%"struct.std::pair"* dereferenceable(8) %257, i64* dereferenceable(8) %22)
          to label %260 unwind label %273

260:                                              ; preds = %254
  %261 = bitcast %"struct.std::pair.9"* %21 to { i64, i64 }*
  %262 = getelementptr inbounds { i64, i64 }, { i64, i64 }* %261, i32 0, i32 0
  %263 = extractvalue { i64, i64 } %259, 0
  store i64 %263, i64* %262, align 8
  %264 = getelementptr inbounds { i64, i64 }, { i64, i64 }* %261, i32 0, i32 1
  %265 = extractvalue { i64, i64 } %259, 1
  store i64 %265, i64* %264, align 8
  %266 = invoke { %"struct.std::_Rb_tree_node_base"*, i8 } @_ZNSt3mapISt4pairIiiEiSt4lessIS1_ESaIS0_IKS1_iEEE6insertIS0_IS1_mEEENSt9enable_ifIXsr16is_constructibleIS5_T_EE5valueES0_ISt17_Rb_tree_iteratorIS5_EbEE4typeEOSB_(%"class.std::map"* %18, %"struct.std::pair.9"* dereferenceable(16) %21)
          to label %267 unwind label %273

267:                                              ; preds = %260
  %268 = bitcast %"struct.std::pair.6"* %23 to { %"struct.std::_Rb_tree_node_base"*, i8 }*
  %269 = getelementptr inbounds { %"struct.std::_Rb_tree_node_base"*, i8 }, { %"struct.std::_Rb_tree_node_base"*, i8 }* %268, i32 0, i32 0
  %270 = extractvalue { %"struct.std::_Rb_tree_node_base"*, i8 } %266, 0
  store %"struct.std::_Rb_tree_node_base"* %270, %"struct.std::_Rb_tree_node_base"** %269, align 8
  %271 = getelementptr inbounds { %"struct.std::_Rb_tree_node_base"*, i8 }, { %"struct.std::_Rb_tree_node_base"*, i8 }* %268, i32 0, i32 1
  %272 = extractvalue { %"struct.std::_Rb_tree_node_base"*, i8 } %266, 1
  store i8 %272, i8* %271, align 8
  br label %277

273:                                              ; preds = %293, %287, %277, %260, %254, %244
  %274 = landingpad { i8*, i32 }
          cleanup
  %275 = extractvalue { i8*, i32 } %274, 0
  %276 = extractvalue { i8*, i32 } %274, 1
  br label %968

277:                                              ; preds = %267, %249
  %278 = sext i32 %.08 to i64
  %279 = call dereferenceable(16) %"struct.std::pair.0"* @_ZNSt6vectorISt4pairIS0_IiiES1_ESaIS2_EEixEm(%"class.std::vector"* @street, i64 %278) #3
  %280 = getelementptr inbounds %"struct.std::pair.0", %"struct.std::pair.0"* %279, i32 0, i32 1
  %281 = invoke %"struct.std::_Rb_tree_node_base"* @_ZNSt3mapISt4pairIiiEiSt4lessIS1_ESaIS0_IKS1_iEEE4findERS4_(%"class.std::map"* %18, %"struct.std::pair"* dereferenceable(8) %280)
          to label %282 unwind label %273

282:                                              ; preds = %277
  %283 = getelementptr inbounds %"struct.std::_Rb_tree_iterator", %"struct.std::_Rb_tree_iterator"* %24, i32 0, i32 0
  store %"struct.std::_Rb_tree_node_base"* %281, %"struct.std::_Rb_tree_node_base"** %283, align 8
  %284 = call %"struct.std::_Rb_tree_node_base"* @_ZNSt3mapISt4pairIiiEiSt4lessIS1_ESaIS0_IKS1_iEEE3endEv(%"class.std::map"* %18) #3
  %285 = getelementptr inbounds %"struct.std::_Rb_tree_iterator", %"struct.std::_Rb_tree_iterator"* %25, i32 0, i32 0
  store %"struct.std::_Rb_tree_node_base"* %284, %"struct.std::_Rb_tree_node_base"** %285, align 8
  %286 = call zeroext i1 @_ZNKSt17_Rb_tree_iteratorISt4pairIKS0_IiiEiEEeqERKS4_(%"struct.std::_Rb_tree_iterator"* %24, %"struct.std::_Rb_tree_iterator"* dereferenceable(8) %25) #3
  br i1 %286, label %287, label %306

287:                                              ; preds = %282
  %288 = sext i32 %.08 to i64
  %289 = call dereferenceable(16) %"struct.std::pair.0"* @_ZNSt6vectorISt4pairIS0_IiiES1_ESaIS2_EEixEm(%"class.std::vector"* @street, i64 %288) #3
  %290 = getelementptr inbounds %"struct.std::pair.0", %"struct.std::pair.0"* %289, i32 0, i32 1
  %291 = call i64 @_ZNKSt3mapISt4pairIiiEiSt4lessIS1_ESaIS0_IKS1_iEEE4sizeEv(%"class.std::map"* %18) #3
  store i64 %291, i64* %27, align 8
  %292 = invoke { i64, i64 } @_ZSt9make_pairIRSt4pairIiiEmES0_INSt17__decay_and_stripIT_E6__typeENS3_IT0_E6__typeEEOS4_OS7_(%"struct.std::pair"* dereferenceable(8) %290, i64* dereferenceable(8) %27)
          to label %293 unwind label %273

293:                                              ; preds = %287
  %294 = bitcast %"struct.std::pair.9"* %26 to { i64, i64 }*
  %295 = getelementptr inbounds { i64, i64 }, { i64, i64 }* %294, i32 0, i32 0
  %296 = extractvalue { i64, i64 } %292, 0
  store i64 %296, i64* %295, align 8
  %297 = getelementptr inbounds { i64, i64 }, { i64, i64 }* %294, i32 0, i32 1
  %298 = extractvalue { i64, i64 } %292, 1
  store i64 %298, i64* %297, align 8
  %299 = invoke { %"struct.std::_Rb_tree_node_base"*, i8 } @_ZNSt3mapISt4pairIiiEiSt4lessIS1_ESaIS0_IKS1_iEEE6insertIS0_IS1_mEEENSt9enable_ifIXsr16is_constructibleIS5_T_EE5valueES0_ISt17_Rb_tree_iteratorIS5_EbEE4typeEOSB_(%"class.std::map"* %18, %"struct.std::pair.9"* dereferenceable(16) %26)
          to label %300 unwind label %273

300:                                              ; preds = %293
  %301 = bitcast %"struct.std::pair.6"* %28 to { %"struct.std::_Rb_tree_node_base"*, i8 }*
  %302 = getelementptr inbounds { %"struct.std::_Rb_tree_node_base"*, i8 }, { %"struct.std::_Rb_tree_node_base"*, i8 }* %301, i32 0, i32 0
  %303 = extractvalue { %"struct.std::_Rb_tree_node_base"*, i8 } %299, 0
  store %"struct.std::_Rb_tree_node_base"* %303, %"struct.std::_Rb_tree_node_base"** %302, align 8
  %304 = getelementptr inbounds { %"struct.std::_Rb_tree_node_base"*, i8 }, { %"struct.std::_Rb_tree_node_base"*, i8 }* %301, i32 0, i32 1
  %305 = extractvalue { %"struct.std::_Rb_tree_node_base"*, i8 } %299, 1
  store i8 %305, i8* %304, align 8
  br label %306

306:                                              ; preds = %300, %282
  br label %307

307:                                              ; preds = %306
  %308 = add nsw i32 %.08, 1
  br label %240

309:                                              ; preds = %240
  br label %310

310:                                              ; preds = %335, %309
  %.015 = phi i32 [ 0, %309 ], [ %336, %335 ]
  %311 = icmp slt i32 %.015, 512
  br i1 %311, label %312, label %337

312:                                              ; preds = %310
  br label %313

313:                                              ; preds = %324, %312
  %.016 = phi i32 [ 0, %312 ], [ %325, %324 ]
  %314 = icmp slt i32 %.016, 512
  br i1 %314, label %315, label %326

315:                                              ; preds = %313
  %316 = sext i32 %.015 to i64
  %317 = getelementptr inbounds [512 x [512 x double]], [512 x [512 x double]]* %29, i64 0, i64 %316
  %318 = sext i32 %.016 to i64
  %319 = getelementptr inbounds [512 x double], [512 x double]* %317, i64 0, i64 %318
  store double 1.000000e+09, double* %319, align 8
  %320 = sext i32 %.015 to i64
  %321 = getelementptr inbounds [512 x [512 x double]], [512 x [512 x double]]* %30, i64 0, i64 %320
  %322 = sext i32 %.016 to i64
  %323 = getelementptr inbounds [512 x double], [512 x double]* %321, i64 0, i64 %322
  store double 1.000000e+09, double* %323, align 8
  br label %324

324:                                              ; preds = %315
  %325 = add nsw i32 %.016, 1
  br label %313

326:                                              ; preds = %313
  %327 = sext i32 %.015 to i64
  %328 = getelementptr inbounds [512 x [512 x double]], [512 x [512 x double]]* %29, i64 0, i64 %327
  %329 = sext i32 %.015 to i64
  %330 = getelementptr inbounds [512 x double], [512 x double]* %328, i64 0, i64 %329
  store double 0.000000e+00, double* %330, align 8
  %331 = sext i32 %.015 to i64
  %332 = getelementptr inbounds [512 x [512 x double]], [512 x [512 x double]]* %30, i64 0, i64 %331
  %333 = sext i32 %.015 to i64
  %334 = getelementptr inbounds [512 x double], [512 x double]* %332, i64 0, i64 %333
  store double 0.000000e+00, double* %334, align 8
  br label %335

335:                                              ; preds = %326
  %336 = add nsw i32 %.015, 1
  br label %310

337:                                              ; preds = %310
  %338 = call %"struct.std::pair.0"* @_ZNSt6vectorISt4pairIS0_IiiES1_ESaIS2_EE5beginEv(%"class.std::vector"* @street) #3
  %339 = getelementptr inbounds %"class.__gnu_cxx::__normal_iterator", %"class.__gnu_cxx::__normal_iterator"* %32, i32 0, i32 0
  store %"struct.std::pair.0"* %338, %"struct.std::pair.0"** %339, align 8
  %340 = call %"struct.std::pair.0"* @_ZNSt6vectorISt4pairIS0_IiiES1_ESaIS2_EE3endEv(%"class.std::vector"* @street) #3
  %341 = getelementptr inbounds %"class.__gnu_cxx::__normal_iterator", %"class.__gnu_cxx::__normal_iterator"* %33, i32 0, i32 0
  store %"struct.std::pair.0"* %340, %"struct.std::pair.0"** %341, align 8
  call void @_ZNSaISt4pairIS_IiiES0_EEC2Ev(%"class.std::allocator"* %34) #3
  %342 = getelementptr inbounds %"class.__gnu_cxx::__normal_iterator", %"class.__gnu_cxx::__normal_iterator"* %32, i32 0, i32 0
  %343 = load %"struct.std::pair.0"*, %"struct.std::pair.0"** %342, align 8
  %344 = getelementptr inbounds %"class.__gnu_cxx::__normal_iterator", %"class.__gnu_cxx::__normal_iterator"* %33, i32 0, i32 0
  %345 = load %"struct.std::pair.0"*, %"struct.std::pair.0"** %344, align 8
  invoke void @_ZNSt6vectorISt4pairIS0_IiiES1_ESaIS2_EEC2IN9__gnu_cxx17__normal_iteratorIPS2_S4_EEvEET_SA_RKS3_(%"class.std::vector"* %31, %"struct.std::pair.0"* %343, %"struct.std::pair.0"* %345, %"class.std::allocator"* dereferenceable(1) %34)
          to label %346 unwind label %449

346:                                              ; preds = %337
  call void @_ZNSaISt4pairIS_IiiES0_EED2Ev(%"class.std::allocator"* %34) #3
  br label %347

347:                                              ; preds = %545, %346
  %.017 = phi i32 [ 0, %346 ], [ %546, %545 ]
  %348 = sext i32 %.017 to i64
  %349 = call i64 @_ZNKSt6vectorISt4pairIS0_IiiES1_ESaIS2_EE4sizeEv(%"class.std::vector"* %31) #3
  %350 = icmp ult i64 %348, %349
  br i1 %350, label %351, label %547

351:                                              ; preds = %347
  invoke void @_ZNSt4pairIS_IiiES0_EC2IS0_S0_Lb1EEEv(%"struct.std::pair.0"* %35)
          to label %352 unwind label %453

352:                                              ; preds = %351
  invoke void @_ZNSt4pairIS_IiiES0_EC2IS0_S0_Lb1EEEv(%"struct.std::pair.0"* %36)
          to label %353 unwind label %453

353:                                              ; preds = %352
  %354 = sext i32 %.017 to i64
  %355 = call dereferenceable(16) %"struct.std::pair.0"* @_ZNSt6vectorISt4pairIS0_IiiES1_ESaIS2_EEixEm(%"class.std::vector"* %31, i64 %354) #3
  %356 = invoke dereferenceable(16) %"struct.std::pair.0"* @_ZNSt4pairIS_IiiES0_EaSERKS1_(%"struct.std::pair.0"* %35, %"struct.std::pair.0"* dereferenceable(16) %355)
          to label %357 unwind label %453

357:                                              ; preds = %353
  br label %358

358:                                              ; preds = %542, %357
  %.019 = phi i32 [ 0, %357 ], [ %543, %542 ]
  %359 = sext i32 %.019 to i64
  %360 = call i64 @_ZNKSt6vectorISt4pairIS0_IiiES1_ESaIS2_EE4sizeEv(%"class.std::vector"* %31) #3
  %361 = icmp ult i64 %359, %360
  br i1 %361, label %362, label %544

362:                                              ; preds = %358
  %363 = sext i32 %.019 to i64
  %364 = call dereferenceable(16) %"struct.std::pair.0"* @_ZNSt6vectorISt4pairIS0_IiiES1_ESaIS2_EEixEm(%"class.std::vector"* %31, i64 %363) #3
  %365 = invoke dereferenceable(16) %"struct.std::pair.0"* @_ZNSt4pairIS_IiiES0_EaSERKS1_(%"struct.std::pair.0"* %36, %"struct.std::pair.0"* dereferenceable(16) %364)
          to label %366 unwind label %453

366:                                              ; preds = %362
  %367 = getelementptr inbounds %"struct.std::pair.0", %"struct.std::pair.0"* %35, i32 0, i32 0
  %368 = bitcast %"struct.std::pair"* %37 to i8*
  %369 = bitcast %"struct.std::pair"* %367 to i8*
  call void @llvm.memcpy.p0i8.p0i8.i64(i8* align 4 %368, i8* align 4 %369, i64 8, i1 false)
  %370 = getelementptr inbounds %"struct.std::pair.0", %"struct.std::pair.0"* %36, i32 0, i32 0
  %371 = bitcast %"struct.std::pair"* %38 to i8*
  %372 = bitcast %"struct.std::pair"* %370 to i8*
  call void @llvm.memcpy.p0i8.p0i8.i64(i8* align 4 %371, i8* align 4 %372, i64 8, i1 false)
  %373 = bitcast %"struct.std::pair"* %37 to i64*
  %374 = load i64, i64* %373, align 4
  %375 = bitcast %"struct.std::pair"* %38 to i64*
  %376 = load i64, i64* %375, align 4
  %377 = invoke double @_Z4distSt4pairIiiES0_(i64 %374, i64 %376)
          to label %378 unwind label %453

378:                                              ; preds = %366
  %379 = getelementptr inbounds %"struct.std::pair.0", %"struct.std::pair.0"* %35, i32 0, i32 1
  %380 = bitcast %"struct.std::pair"* %39 to i8*
  %381 = bitcast %"struct.std::pair"* %379 to i8*
  call void @llvm.memcpy.p0i8.p0i8.i64(i8* align 4 %380, i8* align 4 %381, i64 8, i1 false)
  %382 = getelementptr inbounds %"struct.std::pair.0", %"struct.std::pair.0"* %36, i32 0, i32 0
  %383 = bitcast %"struct.std::pair"* %40 to i8*
  %384 = bitcast %"struct.std::pair"* %382 to i8*
  call void @llvm.memcpy.p0i8.p0i8.i64(i8* align 4 %383, i8* align 4 %384, i64 8, i1 false)
  %385 = bitcast %"struct.std::pair"* %39 to i64*
  %386 = load i64, i64* %385, align 4
  %387 = bitcast %"struct.std::pair"* %40 to i64*
  %388 = load i64, i64* %387, align 4
  %389 = invoke double @_Z4distSt4pairIiiES0_(i64 %386, i64 %388)
          to label %390 unwind label %453

390:                                              ; preds = %378
  %391 = fadd double %377, %389
  %392 = getelementptr inbounds %"struct.std::pair.0", %"struct.std::pair.0"* %35, i32 0, i32 0
  %393 = bitcast %"struct.std::pair"* %41 to i8*
  %394 = bitcast %"struct.std::pair"* %392 to i8*
  call void @llvm.memcpy.p0i8.p0i8.i64(i8* align 4 %393, i8* align 4 %394, i64 8, i1 false)
  %395 = getelementptr inbounds %"struct.std::pair.0", %"struct.std::pair.0"* %35, i32 0, i32 1
  %396 = bitcast %"struct.std::pair"* %42 to i8*
  %397 = bitcast %"struct.std::pair"* %395 to i8*
  call void @llvm.memcpy.p0i8.p0i8.i64(i8* align 4 %396, i8* align 4 %397, i64 8, i1 false)
  %398 = bitcast %"struct.std::pair"* %41 to i64*
  %399 = load i64, i64* %398, align 4
  %400 = bitcast %"struct.std::pair"* %42 to i64*
  %401 = load i64, i64* %400, align 4
  %402 = invoke double @_Z4distSt4pairIiiES0_(i64 %399, i64 %401)
          to label %403 unwind label %453

403:                                              ; preds = %390
  %404 = fsub double %391, %402
  %405 = call double @llvm.fabs.f64(double %404)
  %406 = fcmp olt double %405, 1.000000e-09
  br i1 %406, label %407, label %457

407:                                              ; preds = %403
  %408 = getelementptr inbounds %"struct.std::pair.0", %"struct.std::pair.0"* %35, i32 0, i32 0
  %409 = getelementptr inbounds %"struct.std::pair.0", %"struct.std::pair.0"* %36, i32 0, i32 0
  %410 = invoke zeroext i1 @_ZStneIiiEbRKSt4pairIT_T0_ES5_(%"struct.std::pair"* dereferenceable(8) %408, %"struct.std::pair"* dereferenceable(8) %409)
          to label %411 unwind label %453

411:                                              ; preds = %407
  br i1 %410, label %412, label %457

412:                                              ; preds = %411
  %413 = getelementptr inbounds %"struct.std::pair.0", %"struct.std::pair.0"* %35, i32 0, i32 1
  %414 = getelementptr inbounds %"struct.std::pair.0", %"struct.std::pair.0"* %36, i32 0, i32 0
  %415 = invoke zeroext i1 @_ZStneIiiEbRKSt4pairIT_T0_ES5_(%"struct.std::pair"* dereferenceable(8) %413, %"struct.std::pair"* dereferenceable(8) %414)
          to label %416 unwind label %453

416:                                              ; preds = %412
  br i1 %415, label %417, label %457

417:                                              ; preds = %416
  %418 = call %"struct.std::pair.0"* @_ZNSt6vectorISt4pairIS0_IiiES1_ESaIS2_EE5beginEv(%"class.std::vector"* %31) #3
  %419 = getelementptr inbounds %"class.__gnu_cxx::__normal_iterator", %"class.__gnu_cxx::__normal_iterator"* %45, i32 0, i32 0
  store %"struct.std::pair.0"* %418, %"struct.std::pair.0"** %419, align 8
  %420 = sext i32 %.017 to i64
  %421 = call %"struct.std::pair.0"* @_ZNK9__gnu_cxx17__normal_iteratorIPSt4pairIS1_IiiES2_ESt6vectorIS3_SaIS3_EEEplEl(%"class.__gnu_cxx::__normal_iterator"* %45, i64 %420) #3
  %422 = getelementptr inbounds %"class.__gnu_cxx::__normal_iterator", %"class.__gnu_cxx::__normal_iterator"* %44, i32 0, i32 0
  store %"struct.std::pair.0"* %421, %"struct.std::pair.0"** %422, align 8
  call void @_ZN9__gnu_cxx17__normal_iteratorIPKSt4pairIS1_IiiES2_ESt6vectorIS3_SaIS3_EEEC2IPS3_EERKNS0_IT_NS_11__enable_ifIXsr3std10__are_sameISC_SB_EE7__valueES8_E6__typeEEE(%"class.__gnu_cxx::__normal_iterator.12"* %43, %"class.__gnu_cxx::__normal_iterator"* dereferenceable(8) %44) #3
  %423 = getelementptr inbounds %"class.__gnu_cxx::__normal_iterator.12", %"class.__gnu_cxx::__normal_iterator.12"* %43, i32 0, i32 0
  %424 = load %"struct.std::pair.0"*, %"struct.std::pair.0"** %423, align 8
  %425 = invoke %"struct.std::pair.0"* @_ZNSt6vectorISt4pairIS0_IiiES1_ESaIS2_EE5eraseEN9__gnu_cxx17__normal_iteratorIPKS2_S4_EE(%"class.std::vector"* %31, %"struct.std::pair.0"* %424)
          to label %426 unwind label %453

426:                                              ; preds = %417
  %427 = getelementptr inbounds %"class.__gnu_cxx::__normal_iterator", %"class.__gnu_cxx::__normal_iterator"* %46, i32 0, i32 0
  store %"struct.std::pair.0"* %425, %"struct.std::pair.0"** %427, align 8
  %428 = getelementptr inbounds %"struct.std::pair.0", %"struct.std::pair.0"* %35, i32 0, i32 0
  %429 = getelementptr inbounds %"struct.std::pair.0", %"struct.std::pair.0"* %36, i32 0, i32 0
  %430 = invoke { i64, i64 } @_ZSt9make_pairIRSt4pairIiiES2_ES0_INSt17__decay_and_stripIT_E6__typeENS3_IT0_E6__typeEEOS4_OS7_(%"struct.std::pair"* dereferenceable(8) %428, %"struct.std::pair"* dereferenceable(8) %429)
          to label %431 unwind label %453

431:                                              ; preds = %426
  %432 = bitcast %"struct.std::pair.0"* %47 to { i64, i64 }*
  %433 = getelementptr inbounds { i64, i64 }, { i64, i64 }* %432, i32 0, i32 0
  %434 = extractvalue { i64, i64 } %430, 0
  store i64 %434, i64* %433, align 4
  %435 = getelementptr inbounds { i64, i64 }, { i64, i64 }* %432, i32 0, i32 1
  %436 = extractvalue { i64, i64 } %430, 1
  store i64 %436, i64* %435, align 4
  invoke void @_ZNSt6vectorISt4pairIS0_IiiES1_ESaIS2_EE9push_backEOS2_(%"class.std::vector"* %31, %"struct.std::pair.0"* dereferenceable(16) %47)
          to label %437 unwind label %453

437:                                              ; preds = %431
  %438 = getelementptr inbounds %"struct.std::pair.0", %"struct.std::pair.0"* %36, i32 0, i32 0
  %439 = getelementptr inbounds %"struct.std::pair.0", %"struct.std::pair.0"* %35, i32 0, i32 1
  %440 = invoke { i64, i64 } @_ZSt9make_pairIRSt4pairIiiES2_ES0_INSt17__decay_and_stripIT_E6__typeENS3_IT0_E6__typeEEOS4_OS7_(%"struct.std::pair"* dereferenceable(8) %438, %"struct.std::pair"* dereferenceable(8) %439)
          to label %441 unwind label %453

441:                                              ; preds = %437
  %442 = bitcast %"struct.std::pair.0"* %48 to { i64, i64 }*
  %443 = getelementptr inbounds { i64, i64 }, { i64, i64 }* %442, i32 0, i32 0
  %444 = extractvalue { i64, i64 } %440, 0
  store i64 %444, i64* %443, align 4
  %445 = getelementptr inbounds { i64, i64 }, { i64, i64 }* %442, i32 0, i32 1
  %446 = extractvalue { i64, i64 } %440, 1
  store i64 %446, i64* %445, align 4
  invoke void @_ZNSt6vectorISt4pairIS0_IiiES1_ESaIS2_EE9push_backEOS2_(%"class.std::vector"* %31, %"struct.std::pair.0"* dereferenceable(16) %48)
          to label %447 unwind label %453

447:                                              ; preds = %441
  %448 = add nsw i32 %.017, -1
  br label %544

449:                                              ; preds = %337
  %450 = landingpad { i8*, i32 }
          cleanup
  %451 = extractvalue { i8*, i32 } %450, 0
  %452 = extractvalue { i8*, i32 } %450, 1
  call void @_ZNSaISt4pairIS_IiiES0_EED2Ev(%"class.std::allocator"* %34) #3
  br label %968

453:                                              ; preds = %841, %839, %826, %824, %793, %765, %759, %753, %750, %738, %726, %720, %714, %711, %699, %674, %662, %650, %632, %620, %608, %591, %579, %567, %563, %554, %553, %552, %532, %528, %522, %517, %508, %503, %498, %481, %469, %457, %441, %437, %431, %426, %417, %412, %407, %390, %378, %366, %362, %353, %352, %351
  %454 = landingpad { i8*, i32 }
          cleanup
  %455 = extractvalue { i8*, i32 } %454, 0
  %456 = extractvalue { i8*, i32 } %454, 1
  br label %967

457:                                              ; preds = %416, %411, %403
  %458 = getelementptr inbounds %"struct.std::pair.0", %"struct.std::pair.0"* %35, i32 0, i32 0
  %459 = bitcast %"struct.std::pair"* %49 to i8*
  %460 = bitcast %"struct.std::pair"* %458 to i8*
  call void @llvm.memcpy.p0i8.p0i8.i64(i8* align 4 %459, i8* align 4 %460, i64 8, i1 false)
  %461 = getelementptr inbounds %"struct.std::pair.0", %"struct.std::pair.0"* %36, i32 0, i32 1
  %462 = bitcast %"struct.std::pair"* %50 to i8*
  %463 = bitcast %"struct.std::pair"* %461 to i8*
  call void @llvm.memcpy.p0i8.p0i8.i64(i8* align 4 %462, i8* align 4 %463, i64 8, i1 false)
  %464 = bitcast %"struct.std::pair"* %49 to i64*
  %465 = load i64, i64* %464, align 4
  %466 = bitcast %"struct.std::pair"* %50 to i64*
  %467 = load i64, i64* %466, align 4
  %468 = invoke double @_Z4distSt4pairIiiES0_(i64 %465, i64 %467)
          to label %469 unwind label %453

469:                                              ; preds = %457
  %470 = getelementptr inbounds %"struct.std::pair.0", %"struct.std::pair.0"* %35, i32 0, i32 1
  %471 = bitcast %"struct.std::pair"* %51 to i8*
  %472 = bitcast %"struct.std::pair"* %470 to i8*
  call void @llvm.memcpy.p0i8.p0i8.i64(i8* align 4 %471, i8* align 4 %472, i64 8, i1 false)
  %473 = getelementptr inbounds %"struct.std::pair.0", %"struct.std::pair.0"* %36, i32 0, i32 1
  %474 = bitcast %"struct.std::pair"* %52 to i8*
  %475 = bitcast %"struct.std::pair"* %473 to i8*
  call void @llvm.memcpy.p0i8.p0i8.i64(i8* align 4 %474, i8* align 4 %475, i64 8, i1 false)
  %476 = bitcast %"struct.std::pair"* %51 to i64*
  %477 = load i64, i64* %476, align 4
  %478 = bitcast %"struct.std::pair"* %52 to i64*
  %479 = load i64, i64* %478, align 4
  %480 = invoke double @_Z4distSt4pairIiiES0_(i64 %477, i64 %479)
          to label %481 unwind label %453

481:                                              ; preds = %469
  %482 = fadd double %468, %480
  %483 = getelementptr inbounds %"struct.std::pair.0", %"struct.std::pair.0"* %35, i32 0, i32 0
  %484 = bitcast %"struct.std::pair"* %53 to i8*
  %485 = bitcast %"struct.std::pair"* %483 to i8*
  call void @llvm.memcpy.p0i8.p0i8.i64(i8* align 4 %484, i8* align 4 %485, i64 8, i1 false)
  %486 = getelementptr inbounds %"struct.std::pair.0", %"struct.std::pair.0"* %35, i32 0, i32 1
  %487 = bitcast %"struct.std::pair"* %54 to i8*
  %488 = bitcast %"struct.std::pair"* %486 to i8*
  call void @llvm.memcpy.p0i8.p0i8.i64(i8* align 4 %487, i8* align 4 %488, i64 8, i1 false)
  %489 = bitcast %"struct.std::pair"* %53 to i64*
  %490 = load i64, i64* %489, align 4
  %491 = bitcast %"struct.std::pair"* %54 to i64*
  %492 = load i64, i64* %491, align 4
  %493 = invoke double @_Z4distSt4pairIiiES0_(i64 %490, i64 %492)
          to label %494 unwind label %453

494:                                              ; preds = %481
  %495 = fsub double %482, %493
  %496 = call double @llvm.fabs.f64(double %495)
  %497 = fcmp olt double %496, 1.000000e-09
  br i1 %497, label %498, label %540

498:                                              ; preds = %494
  %499 = getelementptr inbounds %"struct.std::pair.0", %"struct.std::pair.0"* %35, i32 0, i32 0
  %500 = getelementptr inbounds %"struct.std::pair.0", %"struct.std::pair.0"* %36, i32 0, i32 1
  %501 = invoke zeroext i1 @_ZStneIiiEbRKSt4pairIT_T0_ES5_(%"struct.std::pair"* dereferenceable(8) %499, %"struct.std::pair"* dereferenceable(8) %500)
          to label %502 unwind label %453

502:                                              ; preds = %498
  br i1 %501, label %503, label %540

503:                                              ; preds = %502
  %504 = getelementptr inbounds %"struct.std::pair.0", %"struct.std::pair.0"* %35, i32 0, i32 1
  %505 = getelementptr inbounds %"struct.std::pair.0", %"struct.std::pair.0"* %36, i32 0, i32 1
  %506 = invoke zeroext i1 @_ZStneIiiEbRKSt4pairIT_T0_ES5_(%"struct.std::pair"* dereferenceable(8) %504, %"struct.std::pair"* dereferenceable(8) %505)
          to label %507 unwind label %453

507:                                              ; preds = %503
  br i1 %506, label %508, label %540

508:                                              ; preds = %507
  %509 = call %"struct.std::pair.0"* @_ZNSt6vectorISt4pairIS0_IiiES1_ESaIS2_EE5beginEv(%"class.std::vector"* %31) #3
  %510 = getelementptr inbounds %"class.__gnu_cxx::__normal_iterator", %"class.__gnu_cxx::__normal_iterator"* %57, i32 0, i32 0
  store %"struct.std::pair.0"* %509, %"struct.std::pair.0"** %510, align 8
  %511 = sext i32 %.017 to i64
  %512 = call %"struct.std::pair.0"* @_ZNK9__gnu_cxx17__normal_iteratorIPSt4pairIS1_IiiES2_ESt6vectorIS3_SaIS3_EEEplEl(%"class.__gnu_cxx::__normal_iterator"* %57, i64 %511) #3
  %513 = getelementptr inbounds %"class.__gnu_cxx::__normal_iterator", %"class.__gnu_cxx::__normal_iterator"* %56, i32 0, i32 0
  store %"struct.std::pair.0"* %512, %"struct.std::pair.0"** %513, align 8
  call void @_ZN9__gnu_cxx17__normal_iteratorIPKSt4pairIS1_IiiES2_ESt6vectorIS3_SaIS3_EEEC2IPS3_EERKNS0_IT_NS_11__enable_ifIXsr3std10__are_sameISC_SB_EE7__valueES8_E6__typeEEE(%"class.__gnu_cxx::__normal_iterator.12"* %55, %"class.__gnu_cxx::__normal_iterator"* dereferenceable(8) %56) #3
  %514 = getelementptr inbounds %"class.__gnu_cxx::__normal_iterator.12", %"class.__gnu_cxx::__normal_iterator.12"* %55, i32 0, i32 0
  %515 = load %"struct.std::pair.0"*, %"struct.std::pair.0"** %514, align 8
  %516 = invoke %"struct.std::pair.0"* @_ZNSt6vectorISt4pairIS0_IiiES1_ESaIS2_EE5eraseEN9__gnu_cxx17__normal_iteratorIPKS2_S4_EE(%"class.std::vector"* %31, %"struct.std::pair.0"* %515)
          to label %517 unwind label %453

517:                                              ; preds = %508
  %518 = getelementptr inbounds %"class.__gnu_cxx::__normal_iterator", %"class.__gnu_cxx::__normal_iterator"* %58, i32 0, i32 0
  store %"struct.std::pair.0"* %516, %"struct.std::pair.0"** %518, align 8
  %519 = getelementptr inbounds %"struct.std::pair.0", %"struct.std::pair.0"* %35, i32 0, i32 0
  %520 = getelementptr inbounds %"struct.std::pair.0", %"struct.std::pair.0"* %36, i32 0, i32 1
  %521 = invoke { i64, i64 } @_ZSt9make_pairIRSt4pairIiiES2_ES0_INSt17__decay_and_stripIT_E6__typeENS3_IT0_E6__typeEEOS4_OS7_(%"struct.std::pair"* dereferenceable(8) %519, %"struct.std::pair"* dereferenceable(8) %520)
          to label %522 unwind label %453

522:                                              ; preds = %517
  %523 = bitcast %"struct.std::pair.0"* %59 to { i64, i64 }*
  %524 = getelementptr inbounds { i64, i64 }, { i64, i64 }* %523, i32 0, i32 0
  %525 = extractvalue { i64, i64 } %521, 0
  store i64 %525, i64* %524, align 4
  %526 = getelementptr inbounds { i64, i64 }, { i64, i64 }* %523, i32 0, i32 1
  %527 = extractvalue { i64, i64 } %521, 1
  store i64 %527, i64* %526, align 4
  invoke void @_ZNSt6vectorISt4pairIS0_IiiES1_ESaIS2_EE9push_backEOS2_(%"class.std::vector"* %31, %"struct.std::pair.0"* dereferenceable(16) %59)
          to label %528 unwind label %453

528:                                              ; preds = %522
  %529 = getelementptr inbounds %"struct.std::pair.0", %"struct.std::pair.0"* %36, i32 0, i32 1
  %530 = getelementptr inbounds %"struct.std::pair.0", %"struct.std::pair.0"* %35, i32 0, i32 1
  %531 = invoke { i64, i64 } @_ZSt9make_pairIRSt4pairIiiES2_ES0_INSt17__decay_and_stripIT_E6__typeENS3_IT0_E6__typeEEOS4_OS7_(%"struct.std::pair"* dereferenceable(8) %529, %"struct.std::pair"* dereferenceable(8) %530)
          to label %532 unwind label %453

532:                                              ; preds = %528
  %533 = bitcast %"struct.std::pair.0"* %60 to { i64, i64 }*
  %534 = getelementptr inbounds { i64, i64 }, { i64, i64 }* %533, i32 0, i32 0
  %535 = extractvalue { i64, i64 } %531, 0
  store i64 %535, i64* %534, align 4
  %536 = getelementptr inbounds { i64, i64 }, { i64, i64 }* %533, i32 0, i32 1
  %537 = extractvalue { i64, i64 } %531, 1
  store i64 %537, i64* %536, align 4
  invoke void @_ZNSt6vectorISt4pairIS0_IiiES1_ESaIS2_EE9push_backEOS2_(%"class.std::vector"* %31, %"struct.std::pair.0"* dereferenceable(16) %60)
          to label %538 unwind label %453

538:                                              ; preds = %532
  %539 = add nsw i32 %.017, -1
  br label %544

540:                                              ; preds = %507, %502, %494
  br label %541

541:                                              ; preds = %540
  br label %542

542:                                              ; preds = %541
  %543 = add nsw i32 %.019, 1
  br label %358

544:                                              ; preds = %538, %447, %358
  %.118 = phi i32 [ %448, %447 ], [ %539, %538 ], [ %.017, %358 ]
  br label %545

545:                                              ; preds = %544
  %546 = add nsw i32 %.118, 1
  br label %347

547:                                              ; preds = %347
  br label %548

548:                                              ; preds = %776, %547
  %.020 = phi i32 [ 0, %547 ], [ %777, %776 ]
  %549 = sext i32 %.020 to i64
  %550 = call i64 @_ZNKSt6vectorISt4pairIS0_IiiES1_ESaIS2_EE4sizeEv(%"class.std::vector"* %31) #3
  %551 = icmp ult i64 %549, %550
  br i1 %551, label %552, label %778

552:                                              ; preds = %548
  invoke void @_ZNSt4pairIS_IiiES0_EC2IS0_S0_Lb1EEEv(%"struct.std::pair.0"* %61)
          to label %553 unwind label %453

553:                                              ; preds = %552
  invoke void @_ZNSt4pairIS_IiiES0_EC2IS0_S0_Lb1EEEv(%"struct.std::pair.0"* %62)
          to label %554 unwind label %453

554:                                              ; preds = %553
  %555 = sext i32 %.020 to i64
  %556 = call dereferenceable(16) %"struct.std::pair.0"* @_ZNSt6vectorISt4pairIS0_IiiES1_ESaIS2_EEixEm(%"class.std::vector"* %31, i64 %555) #3
  %557 = invoke dereferenceable(16) %"struct.std::pair.0"* @_ZNSt4pairIS_IiiES0_EaSERKS1_(%"struct.std::pair.0"* %61, %"struct.std::pair.0"* dereferenceable(16) %556)
          to label %558 unwind label %453

558:                                              ; preds = %554
  br label %559

559:                                              ; preds = %695, %558
  %.028 = phi i32 [ 0, %558 ], [ %696, %695 ]
  %.024 = phi i8 [ 1, %558 ], [ %.327, %695 ]
  %.021 = phi i8 [ 1, %558 ], [ %.3, %695 ]
  %560 = sext i32 %.028 to i64
  %561 = call i64 @_ZNKSt6vectorISt4pairIS0_IiiES1_ESaIS2_EE4sizeEv(%"class.std::vector"* @sign) #3
  %562 = icmp ult i64 %560, %561
  br i1 %562, label %563, label %697

563:                                              ; preds = %559
  %564 = sext i32 %.028 to i64
  %565 = call dereferenceable(16) %"struct.std::pair.0"* @_ZNSt6vectorISt4pairIS0_IiiES1_ESaIS2_EEixEm(%"class.std::vector"* @sign, i64 %564) #3
  %566 = invoke dereferenceable(16) %"struct.std::pair.0"* @_ZNSt4pairIS_IiiES0_EaSERKS1_(%"struct.std::pair.0"* %62, %"struct.std::pair.0"* dereferenceable(16) %565)
          to label %567 unwind label %453

567:                                              ; preds = %563
  %568 = getelementptr inbounds %"struct.std::pair.0", %"struct.std::pair.0"* %61, i32 0, i32 0
  %569 = bitcast %"struct.std::pair"* %63 to i8*
  %570 = bitcast %"struct.std::pair"* %568 to i8*
  call void @llvm.memcpy.p0i8.p0i8.i64(i8* align 4 %569, i8* align 4 %570, i64 8, i1 false)
  %571 = getelementptr inbounds %"struct.std::pair.0", %"struct.std::pair.0"* %62, i32 0, i32 0
  %572 = bitcast %"struct.std::pair"* %64 to i8*
  %573 = bitcast %"struct.std::pair"* %571 to i8*
  call void @llvm.memcpy.p0i8.p0i8.i64(i8* align 4 %572, i8* align 4 %573, i64 8, i1 false)
  %574 = bitcast %"struct.std::pair"* %63 to i64*
  %575 = load i64, i64* %574, align 4
  %576 = bitcast %"struct.std::pair"* %64 to i64*
  %577 = load i64, i64* %576, align 4
  %578 = invoke double @_Z4distSt4pairIiiES0_(i64 %575, i64 %577)
          to label %579 unwind label %453

579:                                              ; preds = %567
  %580 = getelementptr inbounds %"struct.std::pair.0", %"struct.std::pair.0"* %61, i32 0, i32 1
  %581 = bitcast %"struct.std::pair"* %65 to i8*
  %582 = bitcast %"struct.std::pair"* %580 to i8*
  call void @llvm.memcpy.p0i8.p0i8.i64(i8* align 4 %581, i8* align 4 %582, i64 8, i1 false)
  %583 = getelementptr inbounds %"struct.std::pair.0", %"struct.std::pair.0"* %62, i32 0, i32 0
  %584 = bitcast %"struct.std::pair"* %66 to i8*
  %585 = bitcast %"struct.std::pair"* %583 to i8*
  call void @llvm.memcpy.p0i8.p0i8.i64(i8* align 4 %584, i8* align 4 %585, i64 8, i1 false)
  %586 = bitcast %"struct.std::pair"* %65 to i64*
  %587 = load i64, i64* %586, align 4
  %588 = bitcast %"struct.std::pair"* %66 to i64*
  %589 = load i64, i64* %588, align 4
  %590 = invoke double @_Z4distSt4pairIiiES0_(i64 %587, i64 %589)
          to label %591 unwind label %453

591:                                              ; preds = %579
  %592 = fadd double %578, %590
  %593 = getelementptr inbounds %"struct.std::pair.0", %"struct.std::pair.0"* %61, i32 0, i32 0
  %594 = bitcast %"struct.std::pair"* %67 to i8*
  %595 = bitcast %"struct.std::pair"* %593 to i8*
  call void @llvm.memcpy.p0i8.p0i8.i64(i8* align 4 %594, i8* align 4 %595, i64 8, i1 false)
  %596 = getelementptr inbounds %"struct.std::pair.0", %"struct.std::pair.0"* %61, i32 0, i32 1
  %597 = bitcast %"struct.std::pair"* %68 to i8*
  %598 = bitcast %"struct.std::pair"* %596 to i8*
  call void @llvm.memcpy.p0i8.p0i8.i64(i8* align 4 %597, i8* align 4 %598, i64 8, i1 false)
  %599 = bitcast %"struct.std::pair"* %67 to i64*
  %600 = load i64, i64* %599, align 4
  %601 = bitcast %"struct.std::pair"* %68 to i64*
  %602 = load i64, i64* %601, align 4
  %603 = invoke double @_Z4distSt4pairIiiES0_(i64 %600, i64 %602)
          to label %604 unwind label %453

604:                                              ; preds = %591
  %605 = fsub double %592, %603
  %606 = call double @llvm.fabs.f64(double %605)
  %607 = fcmp olt double %606, 1.000000e-09
  br i1 %607, label %608, label %694

608:                                              ; preds = %604
  %609 = getelementptr inbounds %"struct.std::pair.0", %"struct.std::pair.0"* %61, i32 0, i32 0
  %610 = bitcast %"struct.std::pair"* %69 to i8*
  %611 = bitcast %"struct.std::pair"* %609 to i8*
  call void @llvm.memcpy.p0i8.p0i8.i64(i8* align 4 %610, i8* align 4 %611, i64 8, i1 false)
  %612 = getelementptr inbounds %"struct.std::pair.0", %"struct.std::pair.0"* %62, i32 0, i32 0
  %613 = bitcast %"struct.std::pair"* %70 to i8*
  %614 = bitcast %"struct.std::pair"* %612 to i8*
  call void @llvm.memcpy.p0i8.p0i8.i64(i8* align 4 %613, i8* align 4 %614, i64 8, i1 false)
  %615 = bitcast %"struct.std::pair"* %69 to i64*
  %616 = load i64, i64* %615, align 4
  %617 = bitcast %"struct.std::pair"* %70 to i64*
  %618 = load i64, i64* %617, align 4
  %619 = invoke double @_Z7sqrdistSt4pairIiiES0_(i64 %616, i64 %618)
          to label %620 unwind label %453

620:                                              ; preds = %608
  %621 = getelementptr inbounds %"struct.std::pair.0", %"struct.std::pair.0"* %62, i32 0, i32 0
  %622 = bitcast %"struct.std::pair"* %71 to i8*
  %623 = bitcast %"struct.std::pair"* %621 to i8*
  call void @llvm.memcpy.p0i8.p0i8.i64(i8* align 4 %622, i8* align 4 %623, i64 8, i1 false)
  %624 = getelementptr inbounds %"struct.std::pair.0", %"struct.std::pair.0"* %62, i32 0, i32 1
  %625 = bitcast %"struct.std::pair"* %72 to i8*
  %626 = bitcast %"struct.std::pair"* %624 to i8*
  call void @llvm.memcpy.p0i8.p0i8.i64(i8* align 4 %625, i8* align 4 %626, i64 8, i1 false)
  %627 = bitcast %"struct.std::pair"* %71 to i64*
  %628 = load i64, i64* %627, align 4
  %629 = bitcast %"struct.std::pair"* %72 to i64*
  %630 = load i64, i64* %629, align 4
  %631 = invoke double @_Z7sqrdistSt4pairIiiES0_(i64 %628, i64 %630)
          to label %632 unwind label %453

632:                                              ; preds = %620
  %633 = fadd double %619, %631
  %634 = getelementptr inbounds %"struct.std::pair.0", %"struct.std::pair.0"* %61, i32 0, i32 0
  %635 = bitcast %"struct.std::pair"* %73 to i8*
  %636 = bitcast %"struct.std::pair"* %634 to i8*
  call void @llvm.memcpy.p0i8.p0i8.i64(i8* align 4 %635, i8* align 4 %636, i64 8, i1 false)
  %637 = getelementptr inbounds %"struct.std::pair.0", %"struct.std::pair.0"* %62, i32 0, i32 1
  %638 = bitcast %"struct.std::pair"* %74 to i8*
  %639 = bitcast %"struct.std::pair"* %637 to i8*
  call void @llvm.memcpy.p0i8.p0i8.i64(i8* align 4 %638, i8* align 4 %639, i64 8, i1 false)
  %640 = bitcast %"struct.std::pair"* %73 to i64*
  %641 = load i64, i64* %640, align 4
  %642 = bitcast %"struct.std::pair"* %74 to i64*
  %643 = load i64, i64* %642, align 4
  %644 = invoke double @_Z7sqrdistSt4pairIiiES0_(i64 %641, i64 %643)
          to label %645 unwind label %453

645:                                              ; preds = %632
  %646 = fsub double %633, %644
  %647 = call double @llvm.fabs.f64(double %646)
  %648 = fcmp olt double %647, 1.000000e-09
  br i1 %648, label %649, label %650

649:                                              ; preds = %645
  br label %693

650:                                              ; preds = %645
  %651 = getelementptr inbounds %"struct.std::pair.0", %"struct.std::pair.0"* %61, i32 0, i32 0
  %652 = bitcast %"struct.std::pair"* %75 to i8*
  %653 = bitcast %"struct.std::pair"* %651 to i8*
  call void @llvm.memcpy.p0i8.p0i8.i64(i8* align 4 %652, i8* align 4 %653, i64 8, i1 false)
  %654 = getelementptr inbounds %"struct.std::pair.0", %"struct.std::pair.0"* %62, i32 0, i32 0
  %655 = bitcast %"struct.std::pair"* %76 to i8*
  %656 = bitcast %"struct.std::pair"* %654 to i8*
  call void @llvm.memcpy.p0i8.p0i8.i64(i8* align 4 %655, i8* align 4 %656, i64 8, i1 false)
  %657 = bitcast %"struct.std::pair"* %75 to i64*
  %658 = load i64, i64* %657, align 4
  %659 = bitcast %"struct.std::pair"* %76 to i64*
  %660 = load i64, i64* %659, align 4
  %661 = invoke double @_Z7sqrdistSt4pairIiiES0_(i64 %658, i64 %660)
          to label %662 unwind label %453

662:                                              ; preds = %650
  %663 = getelementptr inbounds %"struct.std::pair.0", %"struct.std::pair.0"* %62, i32 0, i32 0
  %664 = bitcast %"struct.std::pair"* %77 to i8*
  %665 = bitcast %"struct.std::pair"* %663 to i8*
  call void @llvm.memcpy.p0i8.p0i8.i64(i8* align 4 %664, i8* align 4 %665, i64 8, i1 false)
  %666 = getelementptr inbounds %"struct.std::pair.0", %"struct.std::pair.0"* %62, i32 0, i32 1
  %667 = bitcast %"struct.std::pair"* %78 to i8*
  %668 = bitcast %"struct.std::pair"* %666 to i8*
  call void @llvm.memcpy.p0i8.p0i8.i64(i8* align 4 %667, i8* align 4 %668, i64 8, i1 false)
  %669 = bitcast %"struct.std::pair"* %77 to i64*
  %670 = load i64, i64* %669, align 4
  %671 = bitcast %"struct.std::pair"* %78 to i64*
  %672 = load i64, i64* %671, align 4
  %673 = invoke double @_Z7sqrdistSt4pairIiiES0_(i64 %670, i64 %672)
          to label %674 unwind label %453

674:                                              ; preds = %662
  %675 = fadd double %661, %673
  %676 = getelementptr inbounds %"struct.std::pair.0", %"struct.std::pair.0"* %61, i32 0, i32 0
  %677 = bitcast %"struct.std::pair"* %79 to i8*
  %678 = bitcast %"struct.std::pair"* %676 to i8*
  call void @llvm.memcpy.p0i8.p0i8.i64(i8* align 4 %677, i8* align 4 %678, i64 8, i1 false)
  %679 = getelementptr inbounds %"struct.std::pair.0", %"struct.std::pair.0"* %62, i32 0, i32 1
  %680 = bitcast %"struct.std::pair"* %80 to i8*
  %681 = bitcast %"struct.std::pair"* %679 to i8*
  call void @llvm.memcpy.p0i8.p0i8.i64(i8* align 4 %680, i8* align 4 %681, i64 8, i1 false)
  %682 = bitcast %"struct.std::pair"* %79 to i64*
  %683 = load i64, i64* %682, align 4
  %684 = bitcast %"struct.std::pair"* %80 to i64*
  %685 = load i64, i64* %684, align 4
  %686 = invoke double @_Z7sqrdistSt4pairIiiES0_(i64 %683, i64 %685)
          to label %687 unwind label %453

687:                                              ; preds = %674
  %688 = fsub double %675, %686
  %689 = fcmp ogt double %688, 0.000000e+00
  br i1 %689, label %690, label %691

690:                                              ; preds = %687
  br label %692

691:                                              ; preds = %687
  br label %692

692:                                              ; preds = %691, %690
  %.125 = phi i8 [ 0, %690 ], [ %.024, %691 ]
  %.122 = phi i8 [ %.021, %690 ], [ 0, %691 ]
  br label %693

693:                                              ; preds = %692, %649
  %.226 = phi i8 [ 0, %649 ], [ %.125, %692 ]
  %.223 = phi i8 [ 0, %649 ], [ %.122, %692 ]
  br label %694

694:                                              ; preds = %693, %604
  %.327 = phi i8 [ %.226, %693 ], [ %.024, %604 ]
  %.3 = phi i8 [ %.223, %693 ], [ %.021, %604 ]
  br label %695

695:                                              ; preds = %694
  %696 = add nsw i32 %.028, 1
  br label %559

697:                                              ; preds = %559
  %698 = trunc i8 %.021 to i1
  br i1 %698, label %699, label %736

699:                                              ; preds = %697
  %700 = getelementptr inbounds %"struct.std::pair.0", %"struct.std::pair.0"* %61, i32 0, i32 0
  %701 = bitcast %"struct.std::pair"* %81 to i8*
  %702 = bitcast %"struct.std::pair"* %700 to i8*
  call void @llvm.memcpy.p0i8.p0i8.i64(i8* align 4 %701, i8* align 4 %702, i64 8, i1 false)
  %703 = getelementptr inbounds %"struct.std::pair.0", %"struct.std::pair.0"* %61, i32 0, i32 1
  %704 = bitcast %"struct.std::pair"* %82 to i8*
  %705 = bitcast %"struct.std::pair"* %703 to i8*
  call void @llvm.memcpy.p0i8.p0i8.i64(i8* align 4 %704, i8* align 4 %705, i64 8, i1 false)
  %706 = bitcast %"struct.std::pair"* %81 to i64*
  %707 = load i64, i64* %706, align 4
  %708 = bitcast %"struct.std::pair"* %82 to i64*
  %709 = load i64, i64* %708, align 4
  %710 = invoke double @_Z4distSt4pairIiiES0_(i64 %707, i64 %709)
          to label %711 unwind label %453

711:                                              ; preds = %699
  %712 = getelementptr inbounds %"struct.std::pair.0", %"struct.std::pair.0"* %61, i32 0, i32 0
  %713 = invoke dereferenceable(4) i32* @_ZNSt3mapISt4pairIiiEiSt4lessIS1_ESaIS0_IKS1_iEEEixERS4_(%"class.std::map"* %18, %"struct.std::pair"* dereferenceable(8) %712)
          to label %714 unwind label %453

714:                                              ; preds = %711
  %715 = load i32, i32* %713, align 4
  %716 = sext i32 %715 to i64
  %717 = getelementptr inbounds [512 x [512 x double]], [512 x [512 x double]]* %30, i64 0, i64 %716
  %718 = getelementptr inbounds %"struct.std::pair.0", %"struct.std::pair.0"* %61, i32 0, i32 1
  %719 = invoke dereferenceable(4) i32* @_ZNSt3mapISt4pairIiiEiSt4lessIS1_ESaIS0_IKS1_iEEEixERS4_(%"class.std::map"* %18, %"struct.std::pair"* dereferenceable(8) %718)
          to label %720 unwind label %453

720:                                              ; preds = %714
  %721 = load i32, i32* %719, align 4
  %722 = sext i32 %721 to i64
  %723 = getelementptr inbounds [512 x double], [512 x double]* %717, i64 0, i64 %722
  store double %710, double* %723, align 8
  %724 = getelementptr inbounds %"struct.std::pair.0", %"struct.std::pair.0"* %61, i32 0, i32 0
  %725 = invoke dereferenceable(4) i32* @_ZNSt3mapISt4pairIiiEiSt4lessIS1_ESaIS0_IKS1_iEEEixERS4_(%"class.std::map"* %18, %"struct.std::pair"* dereferenceable(8) %724)
          to label %726 unwind label %453

726:                                              ; preds = %720
  %727 = load i32, i32* %725, align 4
  %728 = sext i32 %727 to i64
  %729 = getelementptr inbounds [512 x [512 x double]], [512 x [512 x double]]* %29, i64 0, i64 %728
  %730 = getelementptr inbounds %"struct.std::pair.0", %"struct.std::pair.0"* %61, i32 0, i32 1
  %731 = invoke dereferenceable(4) i32* @_ZNSt3mapISt4pairIiiEiSt4lessIS1_ESaIS0_IKS1_iEEEixERS4_(%"class.std::map"* %18, %"struct.std::pair"* dereferenceable(8) %730)
          to label %732 unwind label %453

732:                                              ; preds = %726
  %733 = load i32, i32* %731, align 4
  %734 = sext i32 %733 to i64
  %735 = getelementptr inbounds [512 x double], [512 x double]* %729, i64 0, i64 %734
  store double %710, double* %735, align 8
  br label %736

736:                                              ; preds = %732, %697
  %737 = trunc i8 %.024 to i1
  br i1 %737, label %738, label %775

738:                                              ; preds = %736
  %739 = getelementptr inbounds %"struct.std::pair.0", %"struct.std::pair.0"* %61, i32 0, i32 0
  %740 = bitcast %"struct.std::pair"* %83 to i8*
  %741 = bitcast %"struct.std::pair"* %739 to i8*
  call void @llvm.memcpy.p0i8.p0i8.i64(i8* align 4 %740, i8* align 4 %741, i64 8, i1 false)
  %742 = getelementptr inbounds %"struct.std::pair.0", %"struct.std::pair.0"* %61, i32 0, i32 1
  %743 = bitcast %"struct.std::pair"* %84 to i8*
  %744 = bitcast %"struct.std::pair"* %742 to i8*
  call void @llvm.memcpy.p0i8.p0i8.i64(i8* align 4 %743, i8* align 4 %744, i64 8, i1 false)
  %745 = bitcast %"struct.std::pair"* %83 to i64*
  %746 = load i64, i64* %745, align 4
  %747 = bitcast %"struct.std::pair"* %84 to i64*
  %748 = load i64, i64* %747, align 4
  %749 = invoke double @_Z4distSt4pairIiiES0_(i64 %746, i64 %748)
          to label %750 unwind label %453

750:                                              ; preds = %738
  %751 = getelementptr inbounds %"struct.std::pair.0", %"struct.std::pair.0"* %61, i32 0, i32 1
  %752 = invoke dereferenceable(4) i32* @_ZNSt3mapISt4pairIiiEiSt4lessIS1_ESaIS0_IKS1_iEEEixERS4_(%"class.std::map"* %18, %"struct.std::pair"* dereferenceable(8) %751)
          to label %753 unwind label %453

753:                                              ; preds = %750
  %754 = load i32, i32* %752, align 4
  %755 = sext i32 %754 to i64
  %756 = getelementptr inbounds [512 x [512 x double]], [512 x [512 x double]]* %30, i64 0, i64 %755
  %757 = getelementptr inbounds %"struct.std::pair.0", %"struct.std::pair.0"* %61, i32 0, i32 0
  %758 = invoke dereferenceable(4) i32* @_ZNSt3mapISt4pairIiiEiSt4lessIS1_ESaIS0_IKS1_iEEEixERS4_(%"class.std::map"* %18, %"struct.std::pair"* dereferenceable(8) %757)
          to label %759 unwind label %453

759:                                              ; preds = %753
  %760 = load i32, i32* %758, align 4
  %761 = sext i32 %760 to i64
  %762 = getelementptr inbounds [512 x double], [512 x double]* %756, i64 0, i64 %761
  store double %749, double* %762, align 8
  %763 = getelementptr inbounds %"struct.std::pair.0", %"struct.std::pair.0"* %61, i32 0, i32 1
  %764 = invoke dereferenceable(4) i32* @_ZNSt3mapISt4pairIiiEiSt4lessIS1_ESaIS0_IKS1_iEEEixERS4_(%"class.std::map"* %18, %"struct.std::pair"* dereferenceable(8) %763)
          to label %765 unwind label %453

765:                                              ; preds = %759
  %766 = load i32, i32* %764, align 4
  %767 = sext i32 %766 to i64
  %768 = getelementptr inbounds [512 x [512 x double]], [512 x [512 x double]]* %29, i64 0, i64 %767
  %769 = getelementptr inbounds %"struct.std::pair.0", %"struct.std::pair.0"* %61, i32 0, i32 0
  %770 = invoke dereferenceable(4) i32* @_ZNSt3mapISt4pairIiiEiSt4lessIS1_ESaIS0_IKS1_iEEEixERS4_(%"class.std::map"* %18, %"struct.std::pair"* dereferenceable(8) %769)
          to label %771 unwind label %453

771:                                              ; preds = %765
  %772 = load i32, i32* %770, align 4
  %773 = sext i32 %772 to i64
  %774 = getelementptr inbounds [512 x double], [512 x double]* %768, i64 0, i64 %773
  store double %749, double* %774, align 8
  br label %775

775:                                              ; preds = %771, %736
  br label %776

776:                                              ; preds = %775
  %777 = add nsw i32 %.020, 1
  br label %548

778:                                              ; preds = %548
  br label %779

779:                                              ; preds = %822, %778
  %.029 = phi i32 [ 0, %778 ], [ %823, %822 ]
  %780 = sext i32 %.029 to i64
  %781 = call i64 @_ZNKSt3mapISt4pairIiiEiSt4lessIS1_ESaIS0_IKS1_iEEE4sizeEv(%"class.std::map"* %18) #3
  %782 = icmp ult i64 %780, %781
  br i1 %782, label %783, label %824

783:                                              ; preds = %779
  br label %784

784:                                              ; preds = %819, %783
  %.030 = phi i32 [ 0, %783 ], [ %820, %819 ]
  %785 = sext i32 %.030 to i64
  %786 = call i64 @_ZNKSt3mapISt4pairIiiEiSt4lessIS1_ESaIS0_IKS1_iEEE4sizeEv(%"class.std::map"* %18) #3
  %787 = icmp ult i64 %785, %786
  br i1 %787, label %788, label %821

788:                                              ; preds = %784
  br label %789

789:                                              ; preds = %816, %788
  %.031 = phi i32 [ 0, %788 ], [ %817, %816 ]
  %790 = sext i32 %.031 to i64
  %791 = call i64 @_ZNKSt3mapISt4pairIiiEiSt4lessIS1_ESaIS0_IKS1_iEEE4sizeEv(%"class.std::map"* %18) #3
  %792 = icmp ult i64 %790, %791
  br i1 %792, label %793, label %818

793:                                              ; preds = %789
  %794 = sext i32 %.030 to i64
  %795 = getelementptr inbounds [512 x [512 x double]], [512 x [512 x double]]* %30, i64 0, i64 %794
  %796 = sext i32 %.031 to i64
  %797 = getelementptr inbounds [512 x double], [512 x double]* %795, i64 0, i64 %796
  %798 = sext i32 %.030 to i64
  %799 = getelementptr inbounds [512 x [512 x double]], [512 x [512 x double]]* %30, i64 0, i64 %798
  %800 = sext i32 %.029 to i64
  %801 = getelementptr inbounds [512 x double], [512 x double]* %799, i64 0, i64 %800
  %802 = load double, double* %801, align 8
  %803 = sext i32 %.029 to i64
  %804 = getelementptr inbounds [512 x [512 x double]], [512 x [512 x double]]* %30, i64 0, i64 %803
  %805 = sext i32 %.031 to i64
  %806 = getelementptr inbounds [512 x double], [512 x double]* %804, i64 0, i64 %805
  %807 = load double, double* %806, align 8
  %808 = fadd double %802, %807
  store double %808, double* %85, align 8
  %809 = invoke dereferenceable(8) double* @_ZSt3minIdERKT_S2_S2_(double* dereferenceable(8) %797, double* dereferenceable(8) %85)
          to label %810 unwind label %453

810:                                              ; preds = %793
  %811 = load double, double* %809, align 8
  %812 = sext i32 %.030 to i64
  %813 = getelementptr inbounds [512 x [512 x double]], [512 x [512 x double]]* %30, i64 0, i64 %812
  %814 = sext i32 %.031 to i64
  %815 = getelementptr inbounds [512 x double], [512 x double]* %813, i64 0, i64 %814
  store double %811, double* %815, align 8
  br label %816

816:                                              ; preds = %810
  %817 = add nsw i32 %.031, 1
  br label %789

818:                                              ; preds = %789
  br label %819

819:                                              ; preds = %818
  %820 = add nsw i32 %.030, 1
  br label %784

821:                                              ; preds = %784
  br label %822

822:                                              ; preds = %821
  %823 = add nsw i32 %.029, 1
  br label %779

824:                                              ; preds = %779
  %825 = invoke dereferenceable(4) i32* @_ZNSt3mapISt4pairIiiEiSt4lessIS1_ESaIS0_IKS1_iEEEixERS4_(%"class.std::map"* %18, %"struct.std::pair"* dereferenceable(8) @s)
          to label %826 unwind label %453

826:                                              ; preds = %824
  %827 = load i32, i32* %825, align 4
  %828 = sext i32 %827 to i64
  %829 = getelementptr inbounds [512 x [512 x double]], [512 x [512 x double]]* %30, i64 0, i64 %828
  %830 = invoke dereferenceable(4) i32* @_ZNSt3mapISt4pairIiiEiSt4lessIS1_ESaIS0_IKS1_iEEEixERS4_(%"class.std::map"* %18, %"struct.std::pair"* dereferenceable(8) @g)
          to label %831 unwind label %453

831:                                              ; preds = %826
  %832 = load i32, i32* %830, align 4
  %833 = sext i32 %832 to i64
  %834 = getelementptr inbounds [512 x double], [512 x double]* %829, i64 0, i64 %833
  %835 = load double, double* %834, align 8
  %836 = fsub double %835, 1.000000e+09
  %837 = call double @llvm.fabs.f64(double %836)
  %838 = fcmp olt double %837, 1.000000e-09
  br i1 %838, label %839, label %844

839:                                              ; preds = %831
  %840 = invoke dereferenceable(272) %"class.std::basic_ostream"* @_ZNSolsEi(%"class.std::basic_ostream"* @_ZSt4cout, i32 -1)
          to label %841 unwind label %453

841:                                              ; preds = %839
  %842 = invoke dereferenceable(272) %"class.std::basic_ostream"* @_ZNSolsEPFRSoS_E(%"class.std::basic_ostream"* %840, %"class.std::basic_ostream"* (%"class.std::basic_ostream"*)* @_ZSt4endlIcSt11char_traitsIcEERSt13basic_ostreamIT_T0_ES6_)
          to label %843 unwind label %453

843:                                              ; preds = %841
  br label %966

844:                                              ; preds = %831
  call void @_ZNSt6vectorIiSaIiEEC2Ev(%"class.std::vector.13"* %86) #3
  %845 = invoke dereferenceable(4) i32* @_ZNSt3mapISt4pairIiiEiSt4lessIS1_ESaIS0_IKS1_iEEEixERS4_(%"class.std::map"* %18, %"struct.std::pair"* dereferenceable(8) @g)
          to label %846 unwind label %889

846:                                              ; preds = %844
  %847 = load i32, i32* %845, align 4
  store i32 %847, i32* %87, align 4
  %848 = invoke dereferenceable(4) i32* @_ZNSt3mapISt4pairIiiEiSt4lessIS1_ESaIS0_IKS1_iEEEixERS4_(%"class.std::map"* %18, %"struct.std::pair"* dereferenceable(8) @s)
          to label %849 unwind label %889

849:                                              ; preds = %846
  %850 = load i32, i32* %848, align 4
  store i32 %850, i32* %88, align 4
  br label %851

851:                                              ; preds = %896, %849
  %852 = load i32, i32* %87, align 4
  %853 = load i32, i32* %88, align 4
  %854 = icmp ne i32 %852, %853
  br i1 %854, label %855, label %897

855:                                              ; preds = %851
  invoke void @_ZNSt6vectorIiSaIiEE9push_backERKi(%"class.std::vector.13"* %86, i32* dereferenceable(4) %87)
          to label %856 unwind label %889

856:                                              ; preds = %855
  br label %857

857:                                              ; preds = %894, %856
  %.033 = phi i32 [ -1, %856 ], [ %.134, %894 ]
  %.032 = phi i32 [ 0, %856 ], [ %895, %894 ]
  %858 = sext i32 %.032 to i64
  %859 = call i64 @_ZNKSt3mapISt4pairIiiEiSt4lessIS1_ESaIS0_IKS1_iEEE4sizeEv(%"class.std::map"* %18) #3
  %860 = icmp ult i64 %858, %859
  br i1 %860, label %861, label %896

861:                                              ; preds = %857
  %862 = load i32, i32* %87, align 4
  %863 = icmp ne i32 %.032, %862
  br i1 %863, label %864, label %893

864:                                              ; preds = %861
  %865 = load i32, i32* %88, align 4
  %866 = sext i32 %865 to i64
  %867 = getelementptr inbounds [512 x [512 x double]], [512 x [512 x double]]* %30, i64 0, i64 %866
  %868 = sext i32 %.032 to i64
  %869 = getelementptr inbounds [512 x double], [512 x double]* %867, i64 0, i64 %868
  %870 = load double, double* %869, align 8
  %871 = sext i32 %.032 to i64
  %872 = getelementptr inbounds [512 x [512 x double]], [512 x [512 x double]]* %29, i64 0, i64 %871
  %873 = load i32, i32* %87, align 4
  %874 = sext i32 %873 to i64
  %875 = getelementptr inbounds [512 x double], [512 x double]* %872, i64 0, i64 %874
  %876 = load double, double* %875, align 8
  %877 = fadd double %870, %876
  %878 = load i32, i32* %88, align 4
  %879 = sext i32 %878 to i64
  %880 = getelementptr inbounds [512 x [512 x double]], [512 x [512 x double]]* %30, i64 0, i64 %879
  %881 = load i32, i32* %87, align 4
  %882 = sext i32 %881 to i64
  %883 = getelementptr inbounds [512 x double], [512 x double]* %880, i64 0, i64 %882
  %884 = load double, double* %883, align 8
  %885 = fsub double %877, %884
  %886 = call double @llvm.fabs.f64(double %885)
  %887 = fcmp olt double %886, 1.000000e-09
  br i1 %887, label %888, label %893

888:                                              ; preds = %864
  br label %893

889:                                              ; preds = %898, %897, %855, %846, %844
  %890 = landingpad { i8*, i32 }
          cleanup
  %891 = extractvalue { i8*, i32 } %890, 0
  %892 = extractvalue { i8*, i32 } %890, 1
  br label %965

893:                                              ; preds = %888, %864, %861
  %.134 = phi i32 [ %.032, %888 ], [ %.033, %864 ], [ %.033, %861 ]
  br label %894

894:                                              ; preds = %893
  %895 = add nsw i32 %.032, 1
  br label %857

896:                                              ; preds = %857
  store i32 %.033, i32* %87, align 4
  br label %851

897:                                              ; preds = %851
  invoke void @_ZNSt6vectorIiSaIiEE9push_backERKi(%"class.std::vector.13"* %86, i32* dereferenceable(4) %88)
          to label %898 unwind label %889

898:                                              ; preds = %897
  %899 = call i32* @_ZNSt6vectorIiSaIiEE5beginEv(%"class.std::vector.13"* %86) #3
  %900 = getelementptr inbounds %"class.__gnu_cxx::__normal_iterator.18", %"class.__gnu_cxx::__normal_iterator.18"* %89, i32 0, i32 0
  store i32* %899, i32** %900, align 8
  %901 = call i32* @_ZNSt6vectorIiSaIiEE3endEv(%"class.std::vector.13"* %86) #3
  %902 = getelementptr inbounds %"class.__gnu_cxx::__normal_iterator.18", %"class.__gnu_cxx::__normal_iterator.18"* %90, i32 0, i32 0
  store i32* %901, i32** %902, align 8
  %903 = getelementptr inbounds %"class.__gnu_cxx::__normal_iterator.18", %"class.__gnu_cxx::__normal_iterator.18"* %89, i32 0, i32 0
  %904 = load i32*, i32** %903, align 8
  %905 = getelementptr inbounds %"class.__gnu_cxx::__normal_iterator.18", %"class.__gnu_cxx::__normal_iterator.18"* %90, i32 0, i32 0
  %906 = load i32*, i32** %905, align 8
  invoke void @_ZSt7reverseIN9__gnu_cxx17__normal_iteratorIPiSt6vectorIiSaIiEEEEEvT_S7_(i32* %904, i32* %906)
          to label %907 unwind label %889

907:                                              ; preds = %898
  call void @_ZNSt6vectorISt4pairIiiESaIS1_EEC2Ev(%"class.std::vector.19"* %91) #3
  %908 = call i64 @_ZNKSt3mapISt4pairIiiEiSt4lessIS1_ESaIS0_IKS1_iEEE4sizeEv(%"class.std::map"* %18) #3
  invoke void @_ZNSt6vectorISt4pairIiiESaIS1_EE6resizeEm(%"class.std::vector.19"* %91, i64 %908)
          to label %909 unwind label %929

909:                                              ; preds = %907
  %910 = call %"struct.std::_Rb_tree_node_base"* @_ZNSt3mapISt4pairIiiEiSt4lessIS1_ESaIS0_IKS1_iEEE5beginEv(%"class.std::map"* %18) #3
  %911 = getelementptr inbounds %"struct.std::_Rb_tree_iterator", %"struct.std::_Rb_tree_iterator"* %92, i32 0, i32 0
  store %"struct.std::_Rb_tree_node_base"* %910, %"struct.std::_Rb_tree_node_base"** %911, align 8
  br label %912

912:                                              ; preds = %926, %909
  %913 = call %"struct.std::_Rb_tree_node_base"* @_ZNSt3mapISt4pairIiiEiSt4lessIS1_ESaIS0_IKS1_iEEE3endEv(%"class.std::map"* %18) #3
  %914 = getelementptr inbounds %"struct.std::_Rb_tree_iterator", %"struct.std::_Rb_tree_iterator"* %93, i32 0, i32 0
  store %"struct.std::_Rb_tree_node_base"* %913, %"struct.std::_Rb_tree_node_base"** %914, align 8
  %915 = call zeroext i1 @_ZNKSt17_Rb_tree_iteratorISt4pairIKS0_IiiEiEEneERKS4_(%"struct.std::_Rb_tree_iterator"* %92, %"struct.std::_Rb_tree_iterator"* dereferenceable(8) %93) #3
  br i1 %915, label %916, label %933

916:                                              ; preds = %912
  %917 = call %"struct.std::pair.24"* @_ZNKSt17_Rb_tree_iteratorISt4pairIKS0_IiiEiEEptEv(%"struct.std::_Rb_tree_iterator"* %92) #3
  %918 = getelementptr inbounds %"struct.std::pair.24", %"struct.std::pair.24"* %917, i32 0, i32 0
  %919 = call %"struct.std::pair.24"* @_ZNKSt17_Rb_tree_iteratorISt4pairIKS0_IiiEiEEptEv(%"struct.std::_Rb_tree_iterator"* %92) #3
  %920 = getelementptr inbounds %"struct.std::pair.24", %"struct.std::pair.24"* %919, i32 0, i32 1
  %921 = load i32, i32* %920, align 4
  %922 = sext i32 %921 to i64
  %923 = call dereferenceable(8) %"struct.std::pair"* @_ZNSt6vectorISt4pairIiiESaIS1_EEixEm(%"class.std::vector.19"* %91, i64 %922) #3
  %924 = invoke dereferenceable(8) %"struct.std::pair"* @_ZNSt4pairIiiEaSERKS0_(%"struct.std::pair"* %923, %"struct.std::pair"* dereferenceable(8) %918)
          to label %925 unwind label %929

925:                                              ; preds = %916
  br label %926

926:                                              ; preds = %925
  %927 = call %"struct.std::_Rb_tree_node_base"* @_ZNSt17_Rb_tree_iteratorISt4pairIKS0_IiiEiEEppEi(%"struct.std::_Rb_tree_iterator"* %92, i32 0) #3
  %928 = getelementptr inbounds %"struct.std::_Rb_tree_iterator", %"struct.std::_Rb_tree_iterator"* %94, i32 0, i32 0
  store %"struct.std::_Rb_tree_node_base"* %927, %"struct.std::_Rb_tree_node_base"** %928, align 8
  br label %912

929:                                              ; preds = %962, %960, %955, %951, %949, %938, %916, %907
  %930 = landingpad { i8*, i32 }
          cleanup
  %931 = extractvalue { i8*, i32 } %930, 0
  %932 = extractvalue { i8*, i32 } %930, 1
  call void @_ZNSt6vectorISt4pairIiiESaIS1_EED2Ev(%"class.std::vector.19"* %91) #3
  br label %965

933:                                              ; preds = %912
  br label %934

934:                                              ; preds = %958, %933
  %.0 = phi i32 [ 0, %933 ], [ %959, %958 ]
  %935 = sext i32 %.0 to i64
  %936 = call i64 @_ZNKSt6vectorIiSaIiEE4sizeEv(%"class.std::vector.13"* %86) #3
  %937 = icmp ult i64 %935, %936
  br i1 %937, label %938, label %960

938:                                              ; preds = %934
  %939 = sext i32 %.0 to i64
  %940 = call dereferenceable(4) i32* @_ZNSt6vectorIiSaIiEEixEm(%"class.std::vector.13"* %86, i64 %939) #3
  %941 = load i32, i32* %940, align 4
  %942 = sext i32 %941 to i64
  %943 = call dereferenceable(8) %"struct.std::pair"* @_ZNSt6vectorISt4pairIiiESaIS1_EEixEm(%"class.std::vector.19"* %91, i64 %942) #3
  %944 = bitcast %"struct.std::pair"* %95 to i8*
  %945 = bitcast %"struct.std::pair"* %943 to i8*
  call void @llvm.memcpy.p0i8.p0i8.i64(i8* align 4 %944, i8* align 4 %945, i64 8, i1 false)
  %946 = getelementptr inbounds %"struct.std::pair", %"struct.std::pair"* %95, i32 0, i32 0
  %947 = load i32, i32* %946, align 4
  %948 = invoke dereferenceable(272) %"class.std::basic_ostream"* @_ZNSolsEi(%"class.std::basic_ostream"* @_ZSt4cout, i32 %947)
          to label %949 unwind label %929

949:                                              ; preds = %938
  %950 = invoke dereferenceable(272) %"class.std::basic_ostream"* @_ZStlsISt11char_traitsIcEERSt13basic_ostreamIcT_ES5_PKc(%"class.std::basic_ostream"* dereferenceable(272) %948, i8* getelementptr inbounds ([2 x i8], [2 x i8]* @.str, i32 0, i32 0))
          to label %951 unwind label %929

951:                                              ; preds = %949
  %952 = getelementptr inbounds %"struct.std::pair", %"struct.std::pair"* %95, i32 0, i32 1
  %953 = load i32, i32* %952, align 4
  %954 = invoke dereferenceable(272) %"class.std::basic_ostream"* @_ZNSolsEi(%"class.std::basic_ostream"* %950, i32 %953)
          to label %955 unwind label %929

955:                                              ; preds = %951
  %956 = invoke dereferenceable(272) %"class.std::basic_ostream"* @_ZNSolsEPFRSoS_E(%"class.std::basic_ostream"* %954, %"class.std::basic_ostream"* (%"class.std::basic_ostream"*)* @_ZSt4endlIcSt11char_traitsIcEERSt13basic_ostreamIT_T0_ES6_)
          to label %957 unwind label %929

957:                                              ; preds = %955
  br label %958

958:                                              ; preds = %957
  %959 = add nsw i32 %.0, 1
  br label %934

960:                                              ; preds = %934
  %961 = invoke dereferenceable(272) %"class.std::basic_ostream"* @_ZNSolsEi(%"class.std::basic_ostream"* @_ZSt4cout, i32 0)
          to label %962 unwind label %929

962:                                              ; preds = %960
  %963 = invoke dereferenceable(272) %"class.std::basic_ostream"* @_ZNSolsEPFRSoS_E(%"class.std::basic_ostream"* %961, %"class.std::basic_ostream"* (%"class.std::basic_ostream"*)* @_ZSt4endlIcSt11char_traitsIcEERSt13basic_ostreamIT_T0_ES6_)
          to label %964 unwind label %929

964:                                              ; preds = %962
  call void @_ZNSt6vectorISt4pairIiiESaIS1_EED2Ev(%"class.std::vector.19"* %91) #3
  call void @_ZNSt6vectorIiSaIiEED2Ev(%"class.std::vector.13"* %86) #3
  br label %966

965:                                              ; preds = %929, %889
  %.012 = phi i32 [ %892, %889 ], [ %932, %929 ]
  %.09 = phi i8* [ %891, %889 ], [ %931, %929 ]
  call void @_ZNSt6vectorIiSaIiEED2Ev(%"class.std::vector.13"* %86) #3
  br label %967

966:                                              ; preds = %964, %843
  call void @_ZNSt6vectorISt4pairIS0_IiiES1_ESaIS2_EED2Ev(%"class.std::vector"* %31) #3
  call void @_ZNSt3mapISt4pairIiiEiSt4lessIS1_ESaIS0_IKS1_iEEED2Ev(%"class.std::map"* %18) #3
  br label %96

967:                                              ; preds = %965, %453
  %.113 = phi i32 [ %456, %453 ], [ %.012, %965 ]
  %.110 = phi i8* [ %455, %453 ], [ %.09, %965 ]
  call void @_ZNSt6vectorISt4pairIS0_IiiES1_ESaIS2_EED2Ev(%"class.std::vector"* %31) #3
  br label %968

968:                                              ; preds = %967, %449, %273
  %.214 = phi i32 [ %276, %273 ], [ %.113, %967 ], [ %452, %449 ]
  %.211 = phi i8* [ %275, %273 ], [ %.110, %967 ], [ %451, %449 ]
  call void @_ZNSt3mapISt4pairIiiEiSt4lessIS1_ESaIS0_IKS1_iEEED2Ev(%"class.std::map"* %18) #3
  br label %970

969:                                              ; preds = %96
  ret i32 0

970:                                              ; preds = %968
  %971 = insertvalue { i8*, i32 } undef, i8* %.211, 0
  %972 = insertvalue { i8*, i32 } %971, i32 %.214, 1
  resume { i8*, i32 } %972
}

declare dereferenceable(280) %"class.std::basic_istream"* @_ZNSirsERi(%"class.std::basic_istream"*, i32* dereferenceable(4)) #1

; Function Attrs: noinline nounwind uwtable
define linkonce_odr void @_ZNSt6vectorISt4pairIS0_IiiES1_ESaIS2_EE5clearEv(%"class.std::vector"* %0) #4 comdat align 2 {
  %2 = bitcast %"class.std::vector"* %0 to %"struct.std::_Vector_base"*
  %3 = getelementptr inbounds %"struct.std::_Vector_base", %"struct.std::_Vector_base"* %2, i32 0, i32 0
  %4 = getelementptr inbounds %"struct.std::_Vector_base<std::pair<std::pair<int, int>, std::pair<int, int> >, std::allocator<std::pair<std::pair<int, int>, std::pair<int, int> > > >::_Vector_impl", %"struct.std::_Vector_base<std::pair<std::pair<int, int>, std::pair<int, int> >, std::allocator<std::pair<std::pair<int, int>, std::pair<int, int> > > >::_Vector_impl"* %3, i32 0, i32 0
  %5 = load %"struct.std::pair.0"*, %"struct.std::pair.0"** %4, align 8
  call void @_ZNSt6vectorISt4pairIS0_IiiES1_ESaIS2_EE15_M_erase_at_endEPS2_(%"class.std::vector"* %0, %"struct.std::pair.0"* %5) #3
  ret void
}

; Function Attrs: noinline nounwind uwtable
define linkonce_odr void @_ZNSt4pairIiiEC2IiiLb1EEEv(%"struct.std::pair"* %0) unnamed_addr #4 comdat align 2 {
  %2 = bitcast %"struct.std::pair"* %0 to %"class.std::__pair_base"*
  %3 = getelementptr inbounds %"struct.std::pair", %"struct.std::pair"* %0, i32 0, i32 0
  store i32 0, i32* %3, align 4
  %4 = getelementptr inbounds %"struct.std::pair", %"struct.std::pair"* %0, i32 0, i32 1
  store i32 0, i32* %4, align 4
  ret void
}

; Function Attrs: noinline uwtable
define linkonce_odr void @_ZNSt6vectorISt4pairIS0_IiiES1_ESaIS2_EE9push_backEOS2_(%"class.std::vector"* %0, %"struct.std::pair.0"* dereferenceable(16) %1) #0 comdat align 2 {
  %3 = call dereferenceable(16) %"struct.std::pair.0"* @_ZSt4moveIRSt4pairIS0_IiiES1_EEONSt16remove_referenceIT_E4typeEOS5_(%"struct.std::pair.0"* dereferenceable(16) %1) #3
  call void @_ZNSt6vectorISt4pairIS0_IiiES1_ESaIS2_EE12emplace_backIJS2_EEEvDpOT_(%"class.std::vector"* %0, %"struct.std::pair.0"* dereferenceable(16) %3)
  ret void
}

; Function Attrs: noinline uwtable
define linkonce_odr { i64, i64 } @_ZSt9make_pairIRSt4pairIiiES2_ES0_INSt17__decay_and_stripIT_E6__typeENS3_IT0_E6__typeEEOS4_OS7_(%"struct.std::pair"* dereferenceable(8) %0, %"struct.std::pair"* dereferenceable(8) %1) #0 comdat {
  %3 = alloca %"struct.std::pair.0", align 4
  %4 = call dereferenceable(8) %"struct.std::pair"* @_ZSt7forwardIRSt4pairIiiEEOT_RNSt16remove_referenceIS3_E4typeE(%"struct.std::pair"* dereferenceable(8) %0) #3
  %5 = call dereferenceable(8) %"struct.std::pair"* @_ZSt7forwardIRSt4pairIiiEEOT_RNSt16remove_referenceIS3_E4typeE(%"struct.std::pair"* dereferenceable(8) %1) #3
  call void @_ZNSt4pairIS_IiiES0_EC2IRS0_S3_Lb1EEEOT_OT0_(%"struct.std::pair.0"* %3, %"struct.std::pair"* dereferenceable(8) %4, %"struct.std::pair"* dereferenceable(8) %5)
  %6 = bitcast %"struct.std::pair.0"* %3 to { i64, i64 }*
  %7 = load { i64, i64 }, { i64, i64 }* %6, align 4
  ret { i64, i64 } %7
}

; Function Attrs: noinline nounwind uwtable
define linkonce_odr i64 @_ZNKSt6vectorISt4pairIS0_IiiES1_ESaIS2_EE4sizeEv(%"class.std::vector"* %0) #4 comdat align 2 {
  %2 = bitcast %"class.std::vector"* %0 to %"struct.std::_Vector_base"*
  %3 = getelementptr inbounds %"struct.std::_Vector_base", %"struct.std::_Vector_base"* %2, i32 0, i32 0
  %4 = getelementptr inbounds %"struct.std::_Vector_base<std::pair<std::pair<int, int>, std::pair<int, int> >, std::allocator<std::pair<std::pair<int, int>, std::pair<int, int> > > >::_Vector_impl", %"struct.std::_Vector_base<std::pair<std::pair<int, int>, std::pair<int, int> >, std::allocator<std::pair<std::pair<int, int>, std::pair<int, int> > > >::_Vector_impl"* %3, i32 0, i32 1
  %5 = load %"struct.std::pair.0"*, %"struct.std::pair.0"** %4, align 8
  %6 = bitcast %"class.std::vector"* %0 to %"struct.std::_Vector_base"*
  %7 = getelementptr inbounds %"struct.std::_Vector_base", %"struct.std::_Vector_base"* %6, i32 0, i32 0
  %8 = getelementptr inbounds %"struct.std::_Vector_base<std::pair<std::pair<int, int>, std::pair<int, int> >, std::allocator<std::pair<std::pair<int, int>, std::pair<int, int> > > >::_Vector_impl", %"struct.std::_Vector_base<std::pair<std::pair<int, int>, std::pair<int, int> >, std::allocator<std::pair<std::pair<int, int>, std::pair<int, int> > > >::_Vector_impl"* %7, i32 0, i32 0
  %9 = load %"struct.std::pair.0"*, %"struct.std::pair.0"** %8, align 8
  %10 = ptrtoint %"struct.std::pair.0"* %5 to i64
  %11 = ptrtoint %"struct.std::pair.0"* %9 to i64
  %12 = sub i64 %10, %11
  %13 = sdiv exact i64 %12, 16
  ret i64 %13
}

; Function Attrs: noinline uwtable
define linkonce_odr void @_ZNSt4pairIS_IiiES0_EC2IS0_S0_Lb1EEEv(%"struct.std::pair.0"* %0) unnamed_addr #0 comdat align 2 {
  %2 = bitcast %"struct.std::pair.0"* %0 to %"class.std::__pair_base.1"*
  %3 = getelementptr inbounds %"struct.std::pair.0", %"struct.std::pair.0"* %0, i32 0, i32 0
  call void @_ZNSt4pairIiiEC2IiiLb1EEEv(%"struct.std::pair"* %3)
  %4 = getelementptr inbounds %"struct.std::pair.0", %"struct.std::pair.0"* %0, i32 0, i32 1
  call void @_ZNSt4pairIiiEC2IiiLb1EEEv(%"struct.std::pair"* %4)
  ret void
}

; Function Attrs: noinline nounwind uwtable
define linkonce_odr dereferenceable(16) %"struct.std::pair.0"* @_ZNSt6vectorISt4pairIS0_IiiES1_ESaIS2_EEixEm(%"class.std::vector"* %0, i64 %1) #4 comdat align 2 {
  %3 = bitcast %"class.std::vector"* %0 to %"struct.std::_Vector_base"*
  %4 = getelementptr inbounds %"struct.std::_Vector_base", %"struct.std::_Vector_base"* %3, i32 0, i32 0
  %5 = getelementptr inbounds %"struct.std::_Vector_base<std::pair<std::pair<int, int>, std::pair<int, int> >, std::allocator<std::pair<std::pair<int, int>, std::pair<int, int> > > >::_Vector_impl", %"struct.std::_Vector_base<std::pair<std::pair<int, int>, std::pair<int, int> >, std::allocator<std::pair<std::pair<int, int>, std::pair<int, int> > > >::_Vector_impl"* %4, i32 0, i32 0
  %6 = load %"struct.std::pair.0"*, %"struct.std::pair.0"** %5, align 8
  %7 = getelementptr inbounds %"struct.std::pair.0", %"struct.std::pair.0"* %6, i64 %1
  ret %"struct.std::pair.0"* %7
}

; Function Attrs: noinline uwtable
define linkonce_odr dereferenceable(16) %"struct.std::pair.0"* @_ZNSt4pairIS_IiiES0_EaSERKS1_(%"struct.std::pair.0"* %0, %"struct.std::pair.0"* dereferenceable(16) %1) #0 comdat align 2 {
  %3 = getelementptr inbounds %"struct.std::pair.0", %"struct.std::pair.0"* %1, i32 0, i32 0
  %4 = getelementptr inbounds %"struct.std::pair.0", %"struct.std::pair.0"* %0, i32 0, i32 0
  %5 = call dereferenceable(8) %"struct.std::pair"* @_ZNSt4pairIiiEaSERKS0_(%"struct.std::pair"* %4, %"struct.std::pair"* dereferenceable(8) %3)
  %6 = getelementptr inbounds %"struct.std::pair.0", %"struct.std::pair.0"* %1, i32 0, i32 1
  %7 = getelementptr inbounds %"struct.std::pair.0", %"struct.std::pair.0"* %0, i32 0, i32 1
  %8 = call dereferenceable(8) %"struct.std::pair"* @_ZNSt4pairIiiEaSERKS0_(%"struct.std::pair"* %7, %"struct.std::pair"* dereferenceable(8) %6)
  ret %"struct.std::pair.0"* %0
}

; Function Attrs: nocallback nofree nosync nounwind readnone speculatable willreturn
declare double @llvm.fabs.f64(double) #6

; Function Attrs: noinline nounwind uwtable
define linkonce_odr void @_ZSt4swapIiiENSt9enable_ifIXsr6__and_ISt14__is_swappableIT_ES1_IT0_EEE5valueEvE4typeERSt4pairIS2_S4_ESA_(%"struct.std::pair"* dereferenceable(8) %0, %"struct.std::pair"* dereferenceable(8) %1) #4 comdat {
  call void @_ZNSt4pairIiiE4swapERS0_(%"struct.std::pair"* %0, %"struct.std::pair"* dereferenceable(8) %1) #3
  ret void
}

; Function Attrs: noinline uwtable
define linkonce_odr void @_ZNSt6vectorISt4pairIS0_IiiES1_ESaIS2_EE9push_backERKS2_(%"class.std::vector"* %0, %"struct.std::pair.0"* dereferenceable(16) %1) #0 comdat align 2 {
  %3 = alloca %"class.__gnu_cxx::__normal_iterator", align 8
  %4 = bitcast %"class.std::vector"* %0 to %"struct.std::_Vector_base"*
  %5 = getelementptr inbounds %"struct.std::_Vector_base", %"struct.std::_Vector_base"* %4, i32 0, i32 0
  %6 = getelementptr inbounds %"struct.std::_Vector_base<std::pair<std::pair<int, int>, std::pair<int, int> >, std::allocator<std::pair<std::pair<int, int>, std::pair<int, int> > > >::_Vector_impl", %"struct.std::_Vector_base<std::pair<std::pair<int, int>, std::pair<int, int> >, std::allocator<std::pair<std::pair<int, int>, std::pair<int, int> > > >::_Vector_impl"* %5, i32 0, i32 1
  %7 = load %"struct.std::pair.0"*, %"struct.std::pair.0"** %6, align 8
  %8 = bitcast %"class.std::vector"* %0 to %"struct.std::_Vector_base"*
  %9 = getelementptr inbounds %"struct.std::_Vector_base", %"struct.std::_Vector_base"* %8, i32 0, i32 0
  %10 = getelementptr inbounds %"struct.std::_Vector_base<std::pair<std::pair<int, int>, std::pair<int, int> >, std::allocator<std::pair<std::pair<int, int>, std::pair<int, int> > > >::_Vector_impl", %"struct.std::_Vector_base<std::pair<std::pair<int, int>, std::pair<int, int> >, std::allocator<std::pair<std::pair<int, int>, std::pair<int, int> > > >::_Vector_impl"* %9, i32 0, i32 2
  %11 = load %"struct.std::pair.0"*, %"struct.std::pair.0"** %10, align 8
  %12 = icmp ne %"struct.std::pair.0"* %7, %11
  br i1 %12, label %13, label %26

13:                                               ; preds = %2
  %14 = bitcast %"class.std::vector"* %0 to %"struct.std::_Vector_base"*
  %15 = getelementptr inbounds %"struct.std::_Vector_base", %"struct.std::_Vector_base"* %14, i32 0, i32 0
  %16 = bitcast %"struct.std::_Vector_base<std::pair<std::pair<int, int>, std::pair<int, int> >, std::allocator<std::pair<std::pair<int, int>, std::pair<int, int> > > >::_Vector_impl"* %15 to %"class.std::allocator"*
  %17 = bitcast %"class.std::vector"* %0 to %"struct.std::_Vector_base"*
  %18 = getelementptr inbounds %"struct.std::_Vector_base", %"struct.std::_Vector_base"* %17, i32 0, i32 0
  %19 = getelementptr inbounds %"struct.std::_Vector_base<std::pair<std::pair<int, int>, std::pair<int, int> >, std::allocator<std::pair<std::pair<int, int>, std::pair<int, int> > > >::_Vector_impl", %"struct.std::_Vector_base<std::pair<std::pair<int, int>, std::pair<int, int> >, std::allocator<std::pair<std::pair<int, int>, std::pair<int, int> > > >::_Vector_impl"* %18, i32 0, i32 1
  %20 = load %"struct.std::pair.0"*, %"struct.std::pair.0"** %19, align 8
  call void @_ZNSt16allocator_traitsISaISt4pairIS0_IiiES1_EEE9constructIS2_JRKS2_EEEvRS3_PT_DpOT0_(%"class.std::allocator"* dereferenceable(1) %16, %"struct.std::pair.0"* %20, %"struct.std::pair.0"* dereferenceable(16) %1)
  %21 = bitcast %"class.std::vector"* %0 to %"struct.std::_Vector_base"*
  %22 = getelementptr inbounds %"struct.std::_Vector_base", %"struct.std::_Vector_base"* %21, i32 0, i32 0
  %23 = getelementptr inbounds %"struct.std::_Vector_base<std::pair<std::pair<int, int>, std::pair<int, int> >, std::allocator<std::pair<std::pair<int, int>, std::pair<int, int> > > >::_Vector_impl", %"struct.std::_Vector_base<std::pair<std::pair<int, int>, std::pair<int, int> >, std::allocator<std::pair<std::pair<int, int>, std::pair<int, int> > > >::_Vector_impl"* %22, i32 0, i32 1
  %24 = load %"struct.std::pair.0"*, %"struct.std::pair.0"** %23, align 8
  %25 = getelementptr inbounds %"struct.std::pair.0", %"struct.std::pair.0"* %24, i32 1
  store %"struct.std::pair.0"* %25, %"struct.std::pair.0"** %23, align 8
  br label %31

26:                                               ; preds = %2
  %27 = call %"struct.std::pair.0"* @_ZNSt6vectorISt4pairIS0_IiiES1_ESaIS2_EE3endEv(%"class.std::vector"* %0) #3
  %28 = getelementptr inbounds %"class.__gnu_cxx::__normal_iterator", %"class.__gnu_cxx::__normal_iterator"* %3, i32 0, i32 0
  store %"struct.std::pair.0"* %27, %"struct.std::pair.0"** %28, align 8
  %29 = getelementptr inbounds %"class.__gnu_cxx::__normal_iterator", %"class.__gnu_cxx::__normal_iterator"* %3, i32 0, i32 0
  %30 = load %"struct.std::pair.0"*, %"struct.std::pair.0"** %29, align 8
  call void @_ZNSt6vectorISt4pairIS0_IiiES1_ESaIS2_EE17_M_realloc_insertIJRKS2_EEEvN9__gnu_cxx17__normal_iteratorIPS2_S4_EEDpOT_(%"class.std::vector"* %0, %"struct.std::pair.0"* %30, %"struct.std::pair.0"* dereferenceable(16) %1)
  br label %31

31:                                               ; preds = %26, %13
  ret void
}

; Function Attrs: noinline nounwind uwtable
define linkonce_odr void @_ZNSt3mapISt4pairIiiEiSt4lessIS1_ESaIS0_IKS1_iEEEC2Ev(%"class.std::map"* %0) unnamed_addr #4 comdat align 2 {
  %2 = getelementptr inbounds %"class.std::map", %"class.std::map"* %0, i32 0, i32 0
  call void @_ZNSt8_Rb_treeISt4pairIiiES0_IKS1_iESt10_Select1stIS3_ESt4lessIS1_ESaIS3_EEC2Ev(%"class.std::_Rb_tree"* %2) #3
  ret void
}

; Function Attrs: noinline uwtable
define linkonce_odr %"struct.std::_Rb_tree_node_base"* @_ZNSt3mapISt4pairIiiEiSt4lessIS1_ESaIS0_IKS1_iEEE4findERS4_(%"class.std::map"* %0, %"struct.std::pair"* dereferenceable(8) %1) #0 comdat align 2 {
  %3 = alloca %"struct.std::_Rb_tree_iterator", align 8
  %4 = getelementptr inbounds %"class.std::map", %"class.std::map"* %0, i32 0, i32 0
  %5 = call %"struct.std::_Rb_tree_node_base"* @_ZNSt8_Rb_treeISt4pairIiiES0_IKS1_iESt10_Select1stIS3_ESt4lessIS1_ESaIS3_EE4findERS2_(%"class.std::_Rb_tree"* %4, %"struct.std::pair"* dereferenceable(8) %1)
  %6 = getelementptr inbounds %"struct.std::_Rb_tree_iterator", %"struct.std::_Rb_tree_iterator"* %3, i32 0, i32 0
  store %"struct.std::_Rb_tree_node_base"* %5, %"struct.std::_Rb_tree_node_base"** %6, align 8
  %7 = getelementptr inbounds %"struct.std::_Rb_tree_iterator", %"struct.std::_Rb_tree_iterator"* %3, i32 0, i32 0
  %8 = load %"struct.std::_Rb_tree_node_base"*, %"struct.std::_Rb_tree_node_base"** %7, align 8
  ret %"struct.std::_Rb_tree_node_base"* %8
}

declare i32 @__gxx_personality_v0(...)

; Function Attrs: noinline nounwind uwtable
define linkonce_odr zeroext i1 @_ZNKSt17_Rb_tree_iteratorISt4pairIKS0_IiiEiEEeqERKS4_(%"struct.std::_Rb_tree_iterator"* %0, %"struct.std::_Rb_tree_iterator"* dereferenceable(8) %1) #4 comdat align 2 {
  %3 = getelementptr inbounds %"struct.std::_Rb_tree_iterator", %"struct.std::_Rb_tree_iterator"* %0, i32 0, i32 0
  %4 = load %"struct.std::_Rb_tree_node_base"*, %"struct.std::_Rb_tree_node_base"** %3, align 8
  %5 = getelementptr inbounds %"struct.std::_Rb_tree_iterator", %"struct.std::_Rb_tree_iterator"* %1, i32 0, i32 0
  %6 = load %"struct.std::_Rb_tree_node_base"*, %"struct.std::_Rb_tree_node_base"** %5, align 8
  %7 = icmp eq %"struct.std::_Rb_tree_node_base"* %4, %6
  ret i1 %7
}

; Function Attrs: noinline nounwind uwtable
define linkonce_odr %"struct.std::_Rb_tree_node_base"* @_ZNSt3mapISt4pairIiiEiSt4lessIS1_ESaIS0_IKS1_iEEE3endEv(%"class.std::map"* %0) #4 comdat align 2 {
  %2 = alloca %"struct.std::_Rb_tree_iterator", align 8
  %3 = getelementptr inbounds %"class.std::map", %"class.std::map"* %0, i32 0, i32 0
  %4 = call %"struct.std::_Rb_tree_node_base"* @_ZNSt8_Rb_treeISt4pairIiiES0_IKS1_iESt10_Select1stIS3_ESt4lessIS1_ESaIS3_EE3endEv(%"class.std::_Rb_tree"* %3) #3
  %5 = getelementptr inbounds %"struct.std::_Rb_tree_iterator", %"struct.std::_Rb_tree_iterator"* %2, i32 0, i32 0
  store %"struct.std::_Rb_tree_node_base"* %4, %"struct.std::_Rb_tree_node_base"** %5, align 8
  %6 = getelementptr inbounds %"struct.std::_Rb_tree_iterator", %"struct.std::_Rb_tree_iterator"* %2, i32 0, i32 0
  %7 = load %"struct.std::_Rb_tree_node_base"*, %"struct.std::_Rb_tree_node_base"** %6, align 8
  ret %"struct.std::_Rb_tree_node_base"* %7
}

; Function Attrs: noinline uwtable
define linkonce_odr { %"struct.std::_Rb_tree_node_base"*, i8 } @_ZNSt3mapISt4pairIiiEiSt4lessIS1_ESaIS0_IKS1_iEEE6insertIS0_IS1_mEEENSt9enable_ifIXsr16is_constructibleIS5_T_EE5valueES0_ISt17_Rb_tree_iteratorIS5_EbEE4typeEOSB_(%"class.std::map"* %0, %"struct.std::pair.9"* dereferenceable(16) %1) #0 comdat align 2 {
  %3 = alloca %"struct.std::pair.6", align 8
  %4 = getelementptr inbounds %"class.std::map", %"class.std::map"* %0, i32 0, i32 0
  %5 = call dereferenceable(16) %"struct.std::pair.9"* @_ZSt7forwardISt4pairIS0_IiiEmEEOT_RNSt16remove_referenceIS3_E4typeE(%"struct.std::pair.9"* dereferenceable(16) %1) #3
  %6 = call { %"struct.std::_Rb_tree_node_base"*, i8 } @_ZNSt8_Rb_treeISt4pairIiiES0_IKS1_iESt10_Select1stIS3_ESt4lessIS1_ESaIS3_EE17_M_emplace_uniqueIJS0_IS1_mEEEES0_ISt17_Rb_tree_iteratorIS3_EbEDpOT_(%"class.std::_Rb_tree"* %4, %"struct.std::pair.9"* dereferenceable(16) %5)
  %7 = bitcast %"struct.std::pair.6"* %3 to { %"struct.std::_Rb_tree_node_base"*, i8 }*
  %8 = getelementptr inbounds { %"struct.std::_Rb_tree_node_base"*, i8 }, { %"struct.std::_Rb_tree_node_base"*, i8 }* %7, i32 0, i32 0
  %9 = extractvalue { %"struct.std::_Rb_tree_node_base"*, i8 } %6, 0
  store %"struct.std::_Rb_tree_node_base"* %9, %"struct.std::_Rb_tree_node_base"** %8, align 8
  %10 = getelementptr inbounds { %"struct.std::_Rb_tree_node_base"*, i8 }, { %"struct.std::_Rb_tree_node_base"*, i8 }* %7, i32 0, i32 1
  %11 = extractvalue { %"struct.std::_Rb_tree_node_base"*, i8 } %6, 1
  store i8 %11, i8* %10, align 8
  %12 = bitcast %"struct.std::pair.6"* %3 to { %"struct.std::_Rb_tree_node_base"*, i8 }*
  %13 = load { %"struct.std::_Rb_tree_node_base"*, i8 }, { %"struct.std::_Rb_tree_node_base"*, i8 }* %12, align 8
  ret { %"struct.std::_Rb_tree_node_base"*, i8 } %13
}

; Function Attrs: noinline uwtable
define linkonce_odr { i64, i64 } @_ZSt9make_pairIRSt4pairIiiEmES0_INSt17__decay_and_stripIT_E6__typeENS3_IT0_E6__typeEEOS4_OS7_(%"struct.std::pair"* dereferenceable(8) %0, i64* dereferenceable(8) %1) #0 comdat {
  %3 = alloca %"struct.std::pair.9", align 8
  %4 = call dereferenceable(8) %"struct.std::pair"* @_ZSt7forwardIRSt4pairIiiEEOT_RNSt16remove_referenceIS3_E4typeE(%"struct.std::pair"* dereferenceable(8) %0) #3
  %5 = call dereferenceable(8) i64* @_ZSt7forwardImEOT_RNSt16remove_referenceIS0_E4typeE(i64* dereferenceable(8) %1) #3
  call void @_ZNSt4pairIS_IiiEmEC2IRS0_mLb1EEEOT_OT0_(%"struct.std::pair.9"* %3, %"struct.std::pair"* dereferenceable(8) %4, i64* dereferenceable(8) %5)
  %6 = bitcast %"struct.std::pair.9"* %3 to { i64, i64 }*
  %7 = load { i64, i64 }, { i64, i64 }* %6, align 8
  ret { i64, i64 } %7
}

; Function Attrs: noinline nounwind uwtable
define linkonce_odr i64 @_ZNKSt3mapISt4pairIiiEiSt4lessIS1_ESaIS0_IKS1_iEEE4sizeEv(%"class.std::map"* %0) #4 comdat align 2 {
  %2 = getelementptr inbounds %"class.std::map", %"class.std::map"* %0, i32 0, i32 0
  %3 = call i64 @_ZNKSt8_Rb_treeISt4pairIiiES0_IKS1_iESt10_Select1stIS3_ESt4lessIS1_ESaIS3_EE4sizeEv(%"class.std::_Rb_tree"* %2) #3
  ret i64 %3
}

; Function Attrs: noinline nounwind uwtable
define linkonce_odr %"struct.std::pair.0"* @_ZNSt6vectorISt4pairIS0_IiiES1_ESaIS2_EE5beginEv(%"class.std::vector"* %0) #4 comdat align 2 {
  %2 = alloca %"class.__gnu_cxx::__normal_iterator", align 8
  %3 = bitcast %"class.std::vector"* %0 to %"struct.std::_Vector_base"*
  %4 = getelementptr inbounds %"struct.std::_Vector_base", %"struct.std::_Vector_base"* %3, i32 0, i32 0
  %5 = getelementptr inbounds %"struct.std::_Vector_base<std::pair<std::pair<int, int>, std::pair<int, int> >, std::allocator<std::pair<std::pair<int, int>, std::pair<int, int> > > >::_Vector_impl", %"struct.std::_Vector_base<std::pair<std::pair<int, int>, std::pair<int, int> >, std::allocator<std::pair<std::pair<int, int>, std::pair<int, int> > > >::_Vector_impl"* %4, i32 0, i32 0
  call void @_ZN9__gnu_cxx17__normal_iteratorIPSt4pairIS1_IiiES2_ESt6vectorIS3_SaIS3_EEEC2ERKS4_(%"class.__gnu_cxx::__normal_iterator"* %2, %"struct.std::pair.0"** dereferenceable(8) %5) #3
  %6 = getelementptr inbounds %"class.__gnu_cxx::__normal_iterator", %"class.__gnu_cxx::__normal_iterator"* %2, i32 0, i32 0
  %7 = load %"struct.std::pair.0"*, %"struct.std::pair.0"** %6, align 8
  ret %"struct.std::pair.0"* %7
}

; Function Attrs: noinline nounwind uwtable
define linkonce_odr %"struct.std::pair.0"* @_ZNSt6vectorISt4pairIS0_IiiES1_ESaIS2_EE3endEv(%"class.std::vector"* %0) #4 comdat align 2 {
  %2 = alloca %"class.__gnu_cxx::__normal_iterator", align 8
  %3 = bitcast %"class.std::vector"* %0 to %"struct.std::_Vector_base"*
  %4 = getelementptr inbounds %"struct.std::_Vector_base", %"struct.std::_Vector_base"* %3, i32 0, i32 0
  %5 = getelementptr inbounds %"struct.std::_Vector_base<std::pair<std::pair<int, int>, std::pair<int, int> >, std::allocator<std::pair<std::pair<int, int>, std::pair<int, int> > > >::_Vector_impl", %"struct.std::_Vector_base<std::pair<std::pair<int, int>, std::pair<int, int> >, std::allocator<std::pair<std::pair<int, int>, std::pair<int, int> > > >::_Vector_impl"* %4, i32 0, i32 1
  call void @_ZN9__gnu_cxx17__normal_iteratorIPSt4pairIS1_IiiES2_ESt6vectorIS3_SaIS3_EEEC2ERKS4_(%"class.__gnu_cxx::__normal_iterator"* %2, %"struct.std::pair.0"** dereferenceable(8) %5) #3
  %6 = getelementptr inbounds %"class.__gnu_cxx::__normal_iterator", %"class.__gnu_cxx::__normal_iterator"* %2, i32 0, i32 0
  %7 = load %"struct.std::pair.0"*, %"struct.std::pair.0"** %6, align 8
  ret %"struct.std::pair.0"* %7
}

; Function Attrs: noinline nounwind uwtable
define linkonce_odr void @_ZNSaISt4pairIS_IiiES0_EEC2Ev(%"class.std::allocator"* %0) unnamed_addr #4 comdat align 2 {
  %2 = bitcast %"class.std::allocator"* %0 to %"class.__gnu_cxx::new_allocator"*
  call void @_ZN9__gnu_cxx13new_allocatorISt4pairIS1_IiiES2_EEC2Ev(%"class.__gnu_cxx::new_allocator"* %2) #3
  ret void
}

; Function Attrs: noinline uwtable
define linkonce_odr void @_ZNSt6vectorISt4pairIS0_IiiES1_ESaIS2_EEC2IN9__gnu_cxx17__normal_iteratorIPS2_S4_EEvEET_SA_RKS3_(%"class.std::vector"* %0, %"struct.std::pair.0"* %1, %"struct.std::pair.0"* %2, %"class.std::allocator"* dereferenceable(1) %3) unnamed_addr #0 comdat align 2 personality i8* bitcast (i32 (...)* @__gxx_personality_v0 to i8*) {
  %5 = alloca %"class.__gnu_cxx::__normal_iterator", align 8
  %6 = alloca %"class.__gnu_cxx::__normal_iterator", align 8
  %7 = alloca %"class.__gnu_cxx::__normal_iterator", align 8
  %8 = alloca %"class.__gnu_cxx::__normal_iterator", align 8
  %9 = getelementptr inbounds %"class.__gnu_cxx::__normal_iterator", %"class.__gnu_cxx::__normal_iterator"* %5, i32 0, i32 0
  store %"struct.std::pair.0"* %1, %"struct.std::pair.0"** %9, align 8
  %10 = getelementptr inbounds %"class.__gnu_cxx::__normal_iterator", %"class.__gnu_cxx::__normal_iterator"* %6, i32 0, i32 0
  store %"struct.std::pair.0"* %2, %"struct.std::pair.0"** %10, align 8
  %11 = bitcast %"class.std::vector"* %0 to %"struct.std::_Vector_base"*
  call void @_ZNSt12_Vector_baseISt4pairIS0_IiiES1_ESaIS2_EEC2ERKS3_(%"struct.std::_Vector_base"* %11, %"class.std::allocator"* dereferenceable(1) %3) #3
  %12 = bitcast %"class.__gnu_cxx::__normal_iterator"* %7 to i8*
  %13 = bitcast %"class.__gnu_cxx::__normal_iterator"* %5 to i8*
  call void @llvm.memcpy.p0i8.p0i8.i64(i8* align 8 %12, i8* align 8 %13, i64 8, i1 false)
  %14 = bitcast %"class.__gnu_cxx::__normal_iterator"* %8 to i8*
  %15 = bitcast %"class.__gnu_cxx::__normal_iterator"* %6 to i8*
  call void @llvm.memcpy.p0i8.p0i8.i64(i8* align 8 %14, i8* align 8 %15, i64 8, i1 false)
  %16 = getelementptr inbounds %"class.__gnu_cxx::__normal_iterator", %"class.__gnu_cxx::__normal_iterator"* %7, i32 0, i32 0
  %17 = load %"struct.std::pair.0"*, %"struct.std::pair.0"** %16, align 8
  %18 = getelementptr inbounds %"class.__gnu_cxx::__normal_iterator", %"class.__gnu_cxx::__normal_iterator"* %8, i32 0, i32 0
  %19 = load %"struct.std::pair.0"*, %"struct.std::pair.0"** %18, align 8
  invoke void @_ZNSt6vectorISt4pairIS0_IiiES1_ESaIS2_EE22_M_initialize_dispatchIN9__gnu_cxx17__normal_iteratorIPS2_S4_EEEEvT_SA_St12__false_type(%"class.std::vector"* %0, %"struct.std::pair.0"* %17, %"struct.std::pair.0"* %19)
          to label %20 unwind label %21

20:                                               ; preds = %4
  ret void

21:                                               ; preds = %4
  %22 = landingpad { i8*, i32 }
          cleanup
  %23 = extractvalue { i8*, i32 } %22, 0
  %24 = extractvalue { i8*, i32 } %22, 1
  %25 = bitcast %"class.std::vector"* %0 to %"struct.std::_Vector_base"*
  call void @_ZNSt12_Vector_baseISt4pairIS0_IiiES1_ESaIS2_EED2Ev(%"struct.std::_Vector_base"* %25) #3
  br label %26

26:                                               ; preds = %21
  %27 = insertvalue { i8*, i32 } undef, i8* %23, 0
  %28 = insertvalue { i8*, i32 } %27, i32 %24, 1
  resume { i8*, i32 } %28
}

; Function Attrs: noinline nounwind uwtable
define linkonce_odr void @_ZNSaISt4pairIS_IiiES0_EED2Ev(%"class.std::allocator"* %0) unnamed_addr #4 comdat align 2 {
  %2 = bitcast %"class.std::allocator"* %0 to %"class.__gnu_cxx::new_allocator"*
  call void @_ZN9__gnu_cxx13new_allocatorISt4pairIS1_IiiES2_EED2Ev(%"class.__gnu_cxx::new_allocator"* %2) #3
  ret void
}

; Function Attrs: noinline uwtable
define linkonce_odr zeroext i1 @_ZStneIiiEbRKSt4pairIT_T0_ES5_(%"struct.std::pair"* dereferenceable(8) %0, %"struct.std::pair"* dereferenceable(8) %1) #0 comdat {
  %3 = call zeroext i1 @_ZSteqIiiEbRKSt4pairIT_T0_ES5_(%"struct.std::pair"* dereferenceable(8) %0, %"struct.std::pair"* dereferenceable(8) %1)
  %4 = xor i1 %3, true
  ret i1 %4
}

; Function Attrs: noinline uwtable
define linkonce_odr %"struct.std::pair.0"* @_ZNSt6vectorISt4pairIS0_IiiES1_ESaIS2_EE5eraseEN9__gnu_cxx17__normal_iteratorIPKS2_S4_EE(%"class.std::vector"* %0, %"struct.std::pair.0"* %1) #0 comdat align 2 {
  %3 = alloca %"class.__gnu_cxx::__normal_iterator", align 8
  %4 = alloca %"class.__gnu_cxx::__normal_iterator.12", align 8
  %5 = alloca %"class.__gnu_cxx::__normal_iterator", align 8
  %6 = alloca %"class.__gnu_cxx::__normal_iterator", align 8
  %7 = alloca %"class.__gnu_cxx::__normal_iterator.12", align 8
  %8 = getelementptr inbounds %"class.__gnu_cxx::__normal_iterator.12", %"class.__gnu_cxx::__normal_iterator.12"* %4, i32 0, i32 0
  store %"struct.std::pair.0"* %1, %"struct.std::pair.0"** %8, align 8
  %9 = call %"struct.std::pair.0"* @_ZNSt6vectorISt4pairIS0_IiiES1_ESaIS2_EE5beginEv(%"class.std::vector"* %0) #3
  %10 = getelementptr inbounds %"class.__gnu_cxx::__normal_iterator", %"class.__gnu_cxx::__normal_iterator"* %6, i32 0, i32 0
  store %"struct.std::pair.0"* %9, %"struct.std::pair.0"** %10, align 8
  %11 = call %"struct.std::pair.0"* @_ZNKSt6vectorISt4pairIS0_IiiES1_ESaIS2_EE6cbeginEv(%"class.std::vector"* %0) #3
  %12 = getelementptr inbounds %"class.__gnu_cxx::__normal_iterator.12", %"class.__gnu_cxx::__normal_iterator.12"* %7, i32 0, i32 0
  store %"struct.std::pair.0"* %11, %"struct.std::pair.0"** %12, align 8
  %13 = call i64 @_ZN9__gnu_cxxmiIPKSt4pairIS1_IiiES2_ESt6vectorIS3_SaIS3_EEEENS_17__normal_iteratorIT_T0_E15difference_typeERKSC_SF_(%"class.__gnu_cxx::__normal_iterator.12"* dereferenceable(8) %4, %"class.__gnu_cxx::__normal_iterator.12"* dereferenceable(8) %7) #3
  %14 = call %"struct.std::pair.0"* @_ZNK9__gnu_cxx17__normal_iteratorIPSt4pairIS1_IiiES2_ESt6vectorIS3_SaIS3_EEEplEl(%"class.__gnu_cxx::__normal_iterator"* %6, i64 %13) #3
  %15 = getelementptr inbounds %"class.__gnu_cxx::__normal_iterator", %"class.__gnu_cxx::__normal_iterator"* %5, i32 0, i32 0
  store %"struct.std::pair.0"* %14, %"struct.std::pair.0"** %15, align 8
  %16 = getelementptr inbounds %"class.__gnu_cxx::__normal_iterator", %"class.__gnu_cxx::__normal_iterator"* %5, i32 0, i32 0
  %17 = load %"struct.std::pair.0"*, %"struct.std::pair.0"** %16, align 8
  %18 = call %"struct.std::pair.0"* @_ZNSt6vectorISt4pairIS0_IiiES1_ESaIS2_EE8_M_eraseEN9__gnu_cxx17__normal_iteratorIPS2_S4_EE(%"class.std::vector"* %0, %"struct.std::pair.0"* %17)
  %19 = getelementptr inbounds %"class.__gnu_cxx::__normal_iterator", %"class.__gnu_cxx::__normal_iterator"* %3, i32 0, i32 0
  store %"struct.std::pair.0"* %18, %"struct.std::pair.0"** %19, align 8
  %20 = getelementptr inbounds %"class.__gnu_cxx::__normal_iterator", %"class.__gnu_cxx::__normal_iterator"* %3, i32 0, i32 0
  %21 = load %"struct.std::pair.0"*, %"struct.std::pair.0"** %20, align 8
  ret %"struct.std::pair.0"* %21
}

; Function Attrs: noinline nounwind uwtable
define linkonce_odr %"struct.std::pair.0"* @_ZNK9__gnu_cxx17__normal_iteratorIPSt4pairIS1_IiiES2_ESt6vectorIS3_SaIS3_EEEplEl(%"class.__gnu_cxx::__normal_iterator"* %0, i64 %1) #4 comdat align 2 {
  %3 = alloca %"class.__gnu_cxx::__normal_iterator", align 8
  %4 = alloca %"struct.std::pair.0"*, align 8
  %5 = getelementptr inbounds %"class.__gnu_cxx::__normal_iterator", %"class.__gnu_cxx::__normal_iterator"* %0, i32 0, i32 0
  %6 = load %"struct.std::pair.0"*, %"struct.std::pair.0"** %5, align 8
  %7 = getelementptr inbounds %"struct.std::pair.0", %"struct.std::pair.0"* %6, i64 %1
  store %"struct.std::pair.0"* %7, %"struct.std::pair.0"** %4, align 8
  call void @_ZN9__gnu_cxx17__normal_iteratorIPSt4pairIS1_IiiES2_ESt6vectorIS3_SaIS3_EEEC2ERKS4_(%"class.__gnu_cxx::__normal_iterator"* %3, %"struct.std::pair.0"** dereferenceable(8) %4) #3
  %8 = getelementptr inbounds %"class.__gnu_cxx::__normal_iterator", %"class.__gnu_cxx::__normal_iterator"* %3, i32 0, i32 0
  %9 = load %"struct.std::pair.0"*, %"struct.std::pair.0"** %8, align 8
  ret %"struct.std::pair.0"* %9
}

; Function Attrs: noinline nounwind uwtable
define linkonce_odr void @_ZN9__gnu_cxx17__normal_iteratorIPKSt4pairIS1_IiiES2_ESt6vectorIS3_SaIS3_EEEC2IPS3_EERKNS0_IT_NS_11__enable_ifIXsr3std10__are_sameISC_SB_EE7__valueES8_E6__typeEEE(%"class.__gnu_cxx::__normal_iterator.12"* %0, %"class.__gnu_cxx::__normal_iterator"* dereferenceable(8) %1) unnamed_addr #4 comdat align 2 {
  %3 = getelementptr inbounds %"class.__gnu_cxx::__normal_iterator.12", %"class.__gnu_cxx::__normal_iterator.12"* %0, i32 0, i32 0
  %4 = call dereferenceable(8) %"struct.std::pair.0"** @_ZNK9__gnu_cxx17__normal_iteratorIPSt4pairIS1_IiiES2_ESt6vectorIS3_SaIS3_EEE4baseEv(%"class.__gnu_cxx::__normal_iterator"* %1) #3
  %5 = load %"struct.std::pair.0"*, %"struct.std::pair.0"** %4, align 8
  store %"struct.std::pair.0"* %5, %"struct.std::pair.0"** %3, align 8
  ret void
}

; Function Attrs: noinline uwtable
define linkonce_odr dereferenceable(4) i32* @_ZNSt3mapISt4pairIiiEiSt4lessIS1_ESaIS0_IKS1_iEEEixERS4_(%"class.std::map"* %0, %"struct.std::pair"* dereferenceable(8) %1) #0 comdat align 2 {
  %3 = alloca %"struct.std::_Rb_tree_iterator", align 8
  %4 = alloca %"struct.std::_Rb_tree_iterator", align 8
  %5 = alloca %"struct.std::less", align 1
  %6 = alloca %"struct.std::_Rb_tree_iterator", align 8
  %7 = alloca %"struct.std::_Rb_tree_const_iterator", align 8
  %8 = alloca %"class.std::tuple", align 8
  %9 = alloca %"class.std::tuple.30", align 1
  %10 = call %"struct.std::_Rb_tree_node_base"* @_ZNSt3mapISt4pairIiiEiSt4lessIS1_ESaIS0_IKS1_iEEE11lower_boundERS4_(%"class.std::map"* %0, %"struct.std::pair"* dereferenceable(8) %1)
  %11 = getelementptr inbounds %"struct.std::_Rb_tree_iterator", %"struct.std::_Rb_tree_iterator"* %3, i32 0, i32 0
  store %"struct.std::_Rb_tree_node_base"* %10, %"struct.std::_Rb_tree_node_base"** %11, align 8
  %12 = call %"struct.std::_Rb_tree_node_base"* @_ZNSt3mapISt4pairIiiEiSt4lessIS1_ESaIS0_IKS1_iEEE3endEv(%"class.std::map"* %0) #3
  %13 = getelementptr inbounds %"struct.std::_Rb_tree_iterator", %"struct.std::_Rb_tree_iterator"* %4, i32 0, i32 0
  store %"struct.std::_Rb_tree_node_base"* %12, %"struct.std::_Rb_tree_node_base"** %13, align 8
  %14 = call zeroext i1 @_ZNKSt17_Rb_tree_iteratorISt4pairIKS0_IiiEiEEeqERKS4_(%"struct.std::_Rb_tree_iterator"* %3, %"struct.std::_Rb_tree_iterator"* dereferenceable(8) %4) #3
  br i1 %14, label %19, label %15

15:                                               ; preds = %2
  call void @_ZNKSt3mapISt4pairIiiEiSt4lessIS1_ESaIS0_IKS1_iEEE8key_compEv(%"class.std::map"* %0)
  %16 = call dereferenceable(12) %"struct.std::pair.24"* @_ZNKSt17_Rb_tree_iteratorISt4pairIKS0_IiiEiEEdeEv(%"struct.std::_Rb_tree_iterator"* %3) #3
  %17 = getelementptr inbounds %"struct.std::pair.24", %"struct.std::pair.24"* %16, i32 0, i32 0
  %18 = call zeroext i1 @_ZNKSt4lessISt4pairIiiEEclERKS1_S4_(%"struct.std::less"* %5, %"struct.std::pair"* dereferenceable(8) %1, %"struct.std::pair"* dereferenceable(8) %17)
  br label %19

19:                                               ; preds = %15, %2
  %20 = phi i1 [ true, %2 ], [ %18, %15 ]
  br i1 %20, label %21, label %29

21:                                               ; preds = %19
  %22 = getelementptr inbounds %"class.std::map", %"class.std::map"* %0, i32 0, i32 0
  call void @_ZNSt23_Rb_tree_const_iteratorISt4pairIKS0_IiiEiEEC2ERKSt17_Rb_tree_iteratorIS3_E(%"struct.std::_Rb_tree_const_iterator"* %7, %"struct.std::_Rb_tree_iterator"* dereferenceable(8) %3) #3
  call void @_ZNSt5tupleIJRKSt4pairIiiEEEC2IvLb1EEES3_(%"class.std::tuple"* %8, %"struct.std::pair"* dereferenceable(8) %1)
  %23 = getelementptr inbounds %"struct.std::_Rb_tree_const_iterator", %"struct.std::_Rb_tree_const_iterator"* %7, i32 0, i32 0
  %24 = load %"struct.std::_Rb_tree_node_base"*, %"struct.std::_Rb_tree_node_base"** %23, align 8
  %25 = call %"struct.std::_Rb_tree_node_base"* @_ZNSt8_Rb_treeISt4pairIiiES0_IKS1_iESt10_Select1stIS3_ESt4lessIS1_ESaIS3_EE22_M_emplace_hint_uniqueIJRKSt21piecewise_construct_tSt5tupleIJRS2_EESE_IJEEEEESt17_Rb_tree_iteratorIS3_ESt23_Rb_tree_const_iteratorIS3_EDpOT_(%"class.std::_Rb_tree"* %22, %"struct.std::_Rb_tree_node_base"* %24, %"struct.std::piecewise_construct_t"* dereferenceable(1) @_ZStL19piecewise_construct, %"class.std::tuple"* dereferenceable(8) %8, %"class.std::tuple.30"* dereferenceable(1) %9)
  %26 = getelementptr inbounds %"struct.std::_Rb_tree_iterator", %"struct.std::_Rb_tree_iterator"* %6, i32 0, i32 0
  store %"struct.std::_Rb_tree_node_base"* %25, %"struct.std::_Rb_tree_node_base"** %26, align 8
  %27 = bitcast %"struct.std::_Rb_tree_iterator"* %3 to i8*
  %28 = bitcast %"struct.std::_Rb_tree_iterator"* %6 to i8*
  call void @llvm.memcpy.p0i8.p0i8.i64(i8* align 8 %27, i8* align 8 %28, i64 8, i1 false)
  br label %29

29:                                               ; preds = %21, %19
  %30 = call dereferenceable(12) %"struct.std::pair.24"* @_ZNKSt17_Rb_tree_iteratorISt4pairIKS0_IiiEiEEdeEv(%"struct.std::_Rb_tree_iterator"* %3) #3
  %31 = getelementptr inbounds %"struct.std::pair.24", %"struct.std::pair.24"* %30, i32 0, i32 1
  ret i32* %31
}

; Function Attrs: noinline nounwind uwtable
define linkonce_odr dereferenceable(8) double* @_ZSt3minIdERKT_S2_S2_(double* dereferenceable(8) %0, double* dereferenceable(8) %1) #4 comdat {
  %3 = load double, double* %1, align 8
  %4 = load double, double* %0, align 8
  %5 = fcmp olt double %3, %4
  br i1 %5, label %6, label %7

6:                                                ; preds = %2
  br label %8

7:                                                ; preds = %2
  br label %8

8:                                                ; preds = %7, %6
  %.0 = phi double* [ %1, %6 ], [ %0, %7 ]
  ret double* %.0
}

declare dereferenceable(272) %"class.std::basic_ostream"* @_ZNSolsEi(%"class.std::basic_ostream"*, i32) #1

declare dereferenceable(272) %"class.std::basic_ostream"* @_ZNSolsEPFRSoS_E(%"class.std::basic_ostream"*, %"class.std::basic_ostream"* (%"class.std::basic_ostream"*)*) #1

declare dereferenceable(272) %"class.std::basic_ostream"* @_ZSt4endlIcSt11char_traitsIcEERSt13basic_ostreamIT_T0_ES6_(%"class.std::basic_ostream"* dereferenceable(272)) #1

; Function Attrs: noinline nounwind uwtable
define linkonce_odr void @_ZNSt6vectorIiSaIiEEC2Ev(%"class.std::vector.13"* %0) unnamed_addr #4 comdat align 2 personality i8* bitcast (i32 (...)* @__gxx_personality_v0 to i8*) {
  %2 = bitcast %"class.std::vector.13"* %0 to %"struct.std::_Vector_base.14"*
  invoke void @_ZNSt12_Vector_baseIiSaIiEEC2Ev(%"struct.std::_Vector_base.14"* %2)
          to label %3 unwind label %4

3:                                                ; preds = %1
  ret void

4:                                                ; preds = %1
  %5 = landingpad { i8*, i32 }
          catch i8* null
  %6 = extractvalue { i8*, i32 } %5, 0
  call void @__clang_call_terminate(i8* %6) #14
  unreachable
}

; Function Attrs: noinline uwtable
define linkonce_odr void @_ZNSt6vectorIiSaIiEE9push_backERKi(%"class.std::vector.13"* %0, i32* dereferenceable(4) %1) #0 comdat align 2 {
  %3 = alloca %"class.__gnu_cxx::__normal_iterator.18", align 8
  %4 = bitcast %"class.std::vector.13"* %0 to %"struct.std::_Vector_base.14"*
  %5 = getelementptr inbounds %"struct.std::_Vector_base.14", %"struct.std::_Vector_base.14"* %4, i32 0, i32 0
  %6 = getelementptr inbounds %"struct.std::_Vector_base<int, std::allocator<int> >::_Vector_impl", %"struct.std::_Vector_base<int, std::allocator<int> >::_Vector_impl"* %5, i32 0, i32 1
  %7 = load i32*, i32** %6, align 8
  %8 = bitcast %"class.std::vector.13"* %0 to %"struct.std::_Vector_base.14"*
  %9 = getelementptr inbounds %"struct.std::_Vector_base.14", %"struct.std::_Vector_base.14"* %8, i32 0, i32 0
  %10 = getelementptr inbounds %"struct.std::_Vector_base<int, std::allocator<int> >::_Vector_impl", %"struct.std::_Vector_base<int, std::allocator<int> >::_Vector_impl"* %9, i32 0, i32 2
  %11 = load i32*, i32** %10, align 8
  %12 = icmp ne i32* %7, %11
  br i1 %12, label %13, label %26

13:                                               ; preds = %2
  %14 = bitcast %"class.std::vector.13"* %0 to %"struct.std::_Vector_base.14"*
  %15 = getelementptr inbounds %"struct.std::_Vector_base.14", %"struct.std::_Vector_base.14"* %14, i32 0, i32 0
  %16 = bitcast %"struct.std::_Vector_base<int, std::allocator<int> >::_Vector_impl"* %15 to %"class.std::allocator.15"*
  %17 = bitcast %"class.std::vector.13"* %0 to %"struct.std::_Vector_base.14"*
  %18 = getelementptr inbounds %"struct.std::_Vector_base.14", %"struct.std::_Vector_base.14"* %17, i32 0, i32 0
  %19 = getelementptr inbounds %"struct.std::_Vector_base<int, std::allocator<int> >::_Vector_impl", %"struct.std::_Vector_base<int, std::allocator<int> >::_Vector_impl"* %18, i32 0, i32 1
  %20 = load i32*, i32** %19, align 8
  call void @_ZNSt16allocator_traitsISaIiEE9constructIiJRKiEEEvRS0_PT_DpOT0_(%"class.std::allocator.15"* dereferenceable(1) %16, i32* %20, i32* dereferenceable(4) %1)
  %21 = bitcast %"class.std::vector.13"* %0 to %"struct.std::_Vector_base.14"*
  %22 = getelementptr inbounds %"struct.std::_Vector_base.14", %"struct.std::_Vector_base.14"* %21, i32 0, i32 0
  %23 = getelementptr inbounds %"struct.std::_Vector_base<int, std::allocator<int> >::_Vector_impl", %"struct.std::_Vector_base<int, std::allocator<int> >::_Vector_impl"* %22, i32 0, i32 1
  %24 = load i32*, i32** %23, align 8
  %25 = getelementptr inbounds i32, i32* %24, i32 1
  store i32* %25, i32** %23, align 8
  br label %31

26:                                               ; preds = %2
  %27 = call i32* @_ZNSt6vectorIiSaIiEE3endEv(%"class.std::vector.13"* %0) #3
  %28 = getelementptr inbounds %"class.__gnu_cxx::__normal_iterator.18", %"class.__gnu_cxx::__normal_iterator.18"* %3, i32 0, i32 0
  store i32* %27, i32** %28, align 8
  %29 = getelementptr inbounds %"class.__gnu_cxx::__normal_iterator.18", %"class.__gnu_cxx::__normal_iterator.18"* %3, i32 0, i32 0
  %30 = load i32*, i32** %29, align 8
  call void @_ZNSt6vectorIiSaIiEE17_M_realloc_insertIJRKiEEEvN9__gnu_cxx17__normal_iteratorIPiS1_EEDpOT_(%"class.std::vector.13"* %0, i32* %30, i32* dereferenceable(4) %1)
  br label %31

31:                                               ; preds = %26, %13
  ret void
}

; Function Attrs: noinline uwtable
define linkonce_odr void @_ZSt7reverseIN9__gnu_cxx17__normal_iteratorIPiSt6vectorIiSaIiEEEEEvT_S7_(i32* %0, i32* %1) #0 comdat {
  %3 = alloca %"class.__gnu_cxx::__normal_iterator.18", align 8
  %4 = alloca %"class.__gnu_cxx::__normal_iterator.18", align 8
  %5 = alloca %"class.__gnu_cxx::__normal_iterator.18", align 8
  %6 = alloca %"class.__gnu_cxx::__normal_iterator.18", align 8
  %7 = getelementptr inbounds %"class.__gnu_cxx::__normal_iterator.18", %"class.__gnu_cxx::__normal_iterator.18"* %3, i32 0, i32 0
  store i32* %0, i32** %7, align 8
  %8 = getelementptr inbounds %"class.__gnu_cxx::__normal_iterator.18", %"class.__gnu_cxx::__normal_iterator.18"* %4, i32 0, i32 0
  store i32* %1, i32** %8, align 8
  %9 = bitcast %"class.__gnu_cxx::__normal_iterator.18"* %5 to i8*
  %10 = bitcast %"class.__gnu_cxx::__normal_iterator.18"* %3 to i8*
  call void @llvm.memcpy.p0i8.p0i8.i64(i8* align 8 %9, i8* align 8 %10, i64 8, i1 false)
  %11 = bitcast %"class.__gnu_cxx::__normal_iterator.18"* %6 to i8*
  %12 = bitcast %"class.__gnu_cxx::__normal_iterator.18"* %4 to i8*
  call void @llvm.memcpy.p0i8.p0i8.i64(i8* align 8 %11, i8* align 8 %12, i64 8, i1 false)
  call void @_ZSt19__iterator_categoryIN9__gnu_cxx17__normal_iteratorIPiSt6vectorIiSaIiEEEEENSt15iterator_traitsIT_E17iterator_categoryERKS8_(%"class.__gnu_cxx::__normal_iterator.18"* dereferenceable(8) %3)
  %13 = getelementptr inbounds %"class.__gnu_cxx::__normal_iterator.18", %"class.__gnu_cxx::__normal_iterator.18"* %5, i32 0, i32 0
  %14 = load i32*, i32** %13, align 8
  %15 = getelementptr inbounds %"class.__gnu_cxx::__normal_iterator.18", %"class.__gnu_cxx::__normal_iterator.18"* %6, i32 0, i32 0
  %16 = load i32*, i32** %15, align 8
  call void @_ZSt9__reverseIN9__gnu_cxx17__normal_iteratorIPiSt6vectorIiSaIiEEEEEvT_S7_St26random_access_iterator_tag(i32* %14, i32* %16)
  ret void
}

; Function Attrs: noinline nounwind uwtable
define linkonce_odr i32* @_ZNSt6vectorIiSaIiEE5beginEv(%"class.std::vector.13"* %0) #4 comdat align 2 {
  %2 = alloca %"class.__gnu_cxx::__normal_iterator.18", align 8
  %3 = bitcast %"class.std::vector.13"* %0 to %"struct.std::_Vector_base.14"*
  %4 = getelementptr inbounds %"struct.std::_Vector_base.14", %"struct.std::_Vector_base.14"* %3, i32 0, i32 0
  %5 = getelementptr inbounds %"struct.std::_Vector_base<int, std::allocator<int> >::_Vector_impl", %"struct.std::_Vector_base<int, std::allocator<int> >::_Vector_impl"* %4, i32 0, i32 0
  call void @_ZN9__gnu_cxx17__normal_iteratorIPiSt6vectorIiSaIiEEEC2ERKS1_(%"class.__gnu_cxx::__normal_iterator.18"* %2, i32** dereferenceable(8) %5) #3
  %6 = getelementptr inbounds %"class.__gnu_cxx::__normal_iterator.18", %"class.__gnu_cxx::__normal_iterator.18"* %2, i32 0, i32 0
  %7 = load i32*, i32** %6, align 8
  ret i32* %7
}

; Function Attrs: noinline nounwind uwtable
define linkonce_odr i32* @_ZNSt6vectorIiSaIiEE3endEv(%"class.std::vector.13"* %0) #4 comdat align 2 {
  %2 = alloca %"class.__gnu_cxx::__normal_iterator.18", align 8
  %3 = bitcast %"class.std::vector.13"* %0 to %"struct.std::_Vector_base.14"*
  %4 = getelementptr inbounds %"struct.std::_Vector_base.14", %"struct.std::_Vector_base.14"* %3, i32 0, i32 0
  %5 = getelementptr inbounds %"struct.std::_Vector_base<int, std::allocator<int> >::_Vector_impl", %"struct.std::_Vector_base<int, std::allocator<int> >::_Vector_impl"* %4, i32 0, i32 1
  call void @_ZN9__gnu_cxx17__normal_iteratorIPiSt6vectorIiSaIiEEEC2ERKS1_(%"class.__gnu_cxx::__normal_iterator.18"* %2, i32** dereferenceable(8) %5) #3
  %6 = getelementptr inbounds %"class.__gnu_cxx::__normal_iterator.18", %"class.__gnu_cxx::__normal_iterator.18"* %2, i32 0, i32 0
  %7 = load i32*, i32** %6, align 8
  ret i32* %7
}

; Function Attrs: noinline nounwind uwtable
define linkonce_odr void @_ZNSt6vectorISt4pairIiiESaIS1_EEC2Ev(%"class.std::vector.19"* %0) unnamed_addr #4 comdat align 2 personality i8* bitcast (i32 (...)* @__gxx_personality_v0 to i8*) {
  %2 = bitcast %"class.std::vector.19"* %0 to %"struct.std::_Vector_base.20"*
  invoke void @_ZNSt12_Vector_baseISt4pairIiiESaIS1_EEC2Ev(%"struct.std::_Vector_base.20"* %2)
          to label %3 unwind label %4

3:                                                ; preds = %1
  ret void

4:                                                ; preds = %1
  %5 = landingpad { i8*, i32 }
          catch i8* null
  %6 = extractvalue { i8*, i32 } %5, 0
  call void @__clang_call_terminate(i8* %6) #14
  unreachable
}

; Function Attrs: noinline uwtable
define linkonce_odr void @_ZNSt6vectorISt4pairIiiESaIS1_EE6resizeEm(%"class.std::vector.19"* %0, i64 %1) #0 comdat align 2 {
  %3 = call i64 @_ZNKSt6vectorISt4pairIiiESaIS1_EE4sizeEv(%"class.std::vector.19"* %0) #3
  %4 = icmp ugt i64 %1, %3
  br i1 %4, label %5, label %8

5:                                                ; preds = %2
  %6 = call i64 @_ZNKSt6vectorISt4pairIiiESaIS1_EE4sizeEv(%"class.std::vector.19"* %0) #3
  %7 = sub i64 %1, %6
  call void @_ZNSt6vectorISt4pairIiiESaIS1_EE17_M_default_appendEm(%"class.std::vector.19"* %0, i64 %7)
  br label %18

8:                                                ; preds = %2
  %9 = call i64 @_ZNKSt6vectorISt4pairIiiESaIS1_EE4sizeEv(%"class.std::vector.19"* %0) #3
  %10 = icmp ult i64 %1, %9
  br i1 %10, label %11, label %17

11:                                               ; preds = %8
  %12 = bitcast %"class.std::vector.19"* %0 to %"struct.std::_Vector_base.20"*
  %13 = getelementptr inbounds %"struct.std::_Vector_base.20", %"struct.std::_Vector_base.20"* %12, i32 0, i32 0
  %14 = getelementptr inbounds %"struct.std::_Vector_base<std::pair<int, int>, std::allocator<std::pair<int, int> > >::_Vector_impl", %"struct.std::_Vector_base<std::pair<int, int>, std::allocator<std::pair<int, int> > >::_Vector_impl"* %13, i32 0, i32 0
  %15 = load %"struct.std::pair"*, %"struct.std::pair"** %14, align 8
  %16 = getelementptr inbounds %"struct.std::pair", %"struct.std::pair"* %15, i64 %1
  call void @_ZNSt6vectorISt4pairIiiESaIS1_EE15_M_erase_at_endEPS1_(%"class.std::vector.19"* %0, %"struct.std::pair"* %16) #3
  br label %17

17:                                               ; preds = %11, %8
  br label %18

18:                                               ; preds = %17, %5
  ret void
}

; Function Attrs: noinline nounwind uwtable
define linkonce_odr %"struct.std::_Rb_tree_node_base"* @_ZNSt3mapISt4pairIiiEiSt4lessIS1_ESaIS0_IKS1_iEEE5beginEv(%"class.std::map"* %0) #4 comdat align 2 {
  %2 = alloca %"struct.std::_Rb_tree_iterator", align 8
  %3 = getelementptr inbounds %"class.std::map", %"class.std::map"* %0, i32 0, i32 0
  %4 = call %"struct.std::_Rb_tree_node_base"* @_ZNSt8_Rb_treeISt4pairIiiES0_IKS1_iESt10_Select1stIS3_ESt4lessIS1_ESaIS3_EE5beginEv(%"class.std::_Rb_tree"* %3) #3
  %5 = getelementptr inbounds %"struct.std::_Rb_tree_iterator", %"struct.std::_Rb_tree_iterator"* %2, i32 0, i32 0
  store %"struct.std::_Rb_tree_node_base"* %4, %"struct.std::_Rb_tree_node_base"** %5, align 8
  %6 = getelementptr inbounds %"struct.std::_Rb_tree_iterator", %"struct.std::_Rb_tree_iterator"* %2, i32 0, i32 0
  %7 = load %"struct.std::_Rb_tree_node_base"*, %"struct.std::_Rb_tree_node_base"** %6, align 8
  ret %"struct.std::_Rb_tree_node_base"* %7
}

; Function Attrs: noinline nounwind uwtable
define linkonce_odr zeroext i1 @_ZNKSt17_Rb_tree_iteratorISt4pairIKS0_IiiEiEEneERKS4_(%"struct.std::_Rb_tree_iterator"* %0, %"struct.std::_Rb_tree_iterator"* dereferenceable(8) %1) #4 comdat align 2 {
  %3 = getelementptr inbounds %"struct.std::_Rb_tree_iterator", %"struct.std::_Rb_tree_iterator"* %0, i32 0, i32 0
  %4 = load %"struct.std::_Rb_tree_node_base"*, %"struct.std::_Rb_tree_node_base"** %3, align 8
  %5 = getelementptr inbounds %"struct.std::_Rb_tree_iterator", %"struct.std::_Rb_tree_iterator"* %1, i32 0, i32 0
  %6 = load %"struct.std::_Rb_tree_node_base"*, %"struct.std::_Rb_tree_node_base"** %5, align 8
  %7 = icmp ne %"struct.std::_Rb_tree_node_base"* %4, %6
  ret i1 %7
}

; Function Attrs: noinline nounwind uwtable
define linkonce_odr %"struct.std::pair.24"* @_ZNKSt17_Rb_tree_iteratorISt4pairIKS0_IiiEiEEptEv(%"struct.std::_Rb_tree_iterator"* %0) #4 comdat align 2 personality i8* bitcast (i32 (...)* @__gxx_personality_v0 to i8*) {
  %2 = getelementptr inbounds %"struct.std::_Rb_tree_iterator", %"struct.std::_Rb_tree_iterator"* %0, i32 0, i32 0
  %3 = load %"struct.std::_Rb_tree_node_base"*, %"struct.std::_Rb_tree_node_base"** %2, align 8
  %4 = bitcast %"struct.std::_Rb_tree_node_base"* %3 to %"struct.std::_Rb_tree_node"*
  %5 = invoke %"struct.std::pair.24"* @_ZNSt13_Rb_tree_nodeISt4pairIKS0_IiiEiEE9_M_valptrEv(%"struct.std::_Rb_tree_node"* %4)
          to label %6 unwind label %7

6:                                                ; preds = %1
  ret %"struct.std::pair.24"* %5

7:                                                ; preds = %1
  %8 = landingpad { i8*, i32 }
          catch i8* null
  %9 = extractvalue { i8*, i32 } %8, 0
  call void @__clang_call_terminate(i8* %9) #14
  unreachable
}

; Function Attrs: noinline nounwind uwtable
define linkonce_odr dereferenceable(8) %"struct.std::pair"* @_ZNSt6vectorISt4pairIiiESaIS1_EEixEm(%"class.std::vector.19"* %0, i64 %1) #4 comdat align 2 {
  %3 = bitcast %"class.std::vector.19"* %0 to %"struct.std::_Vector_base.20"*
  %4 = getelementptr inbounds %"struct.std::_Vector_base.20", %"struct.std::_Vector_base.20"* %3, i32 0, i32 0
  %5 = getelementptr inbounds %"struct.std::_Vector_base<std::pair<int, int>, std::allocator<std::pair<int, int> > >::_Vector_impl", %"struct.std::_Vector_base<std::pair<int, int>, std::allocator<std::pair<int, int> > >::_Vector_impl"* %4, i32 0, i32 0
  %6 = load %"struct.std::pair"*, %"struct.std::pair"** %5, align 8
  %7 = getelementptr inbounds %"struct.std::pair", %"struct.std::pair"* %6, i64 %1
  ret %"struct.std::pair"* %7
}

; Function Attrs: noinline nounwind uwtable
define linkonce_odr dereferenceable(8) %"struct.std::pair"* @_ZNSt4pairIiiEaSERKS0_(%"struct.std::pair"* %0, %"struct.std::pair"* dereferenceable(8) %1) #4 comdat align 2 {
  %3 = getelementptr inbounds %"struct.std::pair", %"struct.std::pair"* %1, i32 0, i32 0
  %4 = load i32, i32* %3, align 4
  %5 = getelementptr inbounds %"struct.std::pair", %"struct.std::pair"* %0, i32 0, i32 0
  store i32 %4, i32* %5, align 4
  %6 = getelementptr inbounds %"struct.std::pair", %"struct.std::pair"* %1, i32 0, i32 1
  %7 = load i32, i32* %6, align 4
  %8 = getelementptr inbounds %"struct.std::pair", %"struct.std::pair"* %0, i32 0, i32 1
  store i32 %7, i32* %8, align 4
  ret %"struct.std::pair"* %0
}

; Function Attrs: noinline nounwind uwtable
define linkonce_odr %"struct.std::_Rb_tree_node_base"* @_ZNSt17_Rb_tree_iteratorISt4pairIKS0_IiiEiEEppEi(%"struct.std::_Rb_tree_iterator"* %0, i32 %1) #4 comdat align 2 {
  %3 = alloca %"struct.std::_Rb_tree_iterator", align 8
  %4 = bitcast %"struct.std::_Rb_tree_iterator"* %3 to i8*
  %5 = bitcast %"struct.std::_Rb_tree_iterator"* %0 to i8*
  call void @llvm.memcpy.p0i8.p0i8.i64(i8* align 8 %4, i8* align 8 %5, i64 8, i1 false)
  %6 = getelementptr inbounds %"struct.std::_Rb_tree_iterator", %"struct.std::_Rb_tree_iterator"* %0, i32 0, i32 0
  %7 = load %"struct.std::_Rb_tree_node_base"*, %"struct.std::_Rb_tree_node_base"** %6, align 8
  %8 = call %"struct.std::_Rb_tree_node_base"* @_ZSt18_Rb_tree_incrementPSt18_Rb_tree_node_base(%"struct.std::_Rb_tree_node_base"* %7) #15
  %9 = getelementptr inbounds %"struct.std::_Rb_tree_iterator", %"struct.std::_Rb_tree_iterator"* %0, i32 0, i32 0
  store %"struct.std::_Rb_tree_node_base"* %8, %"struct.std::_Rb_tree_node_base"** %9, align 8
  %10 = getelementptr inbounds %"struct.std::_Rb_tree_iterator", %"struct.std::_Rb_tree_iterator"* %3, i32 0, i32 0
  %11 = load %"struct.std::_Rb_tree_node_base"*, %"struct.std::_Rb_tree_node_base"** %10, align 8
  ret %"struct.std::_Rb_tree_node_base"* %11
}

; Function Attrs: noinline nounwind uwtable
define linkonce_odr i64 @_ZNKSt6vectorIiSaIiEE4sizeEv(%"class.std::vector.13"* %0) #4 comdat align 2 {
  %2 = bitcast %"class.std::vector.13"* %0 to %"struct.std::_Vector_base.14"*
  %3 = getelementptr inbounds %"struct.std::_Vector_base.14", %"struct.std::_Vector_base.14"* %2, i32 0, i32 0
  %4 = getelementptr inbounds %"struct.std::_Vector_base<int, std::allocator<int> >::_Vector_impl", %"struct.std::_Vector_base<int, std::allocator<int> >::_Vector_impl"* %3, i32 0, i32 1
  %5 = load i32*, i32** %4, align 8
  %6 = bitcast %"class.std::vector.13"* %0 to %"struct.std::_Vector_base.14"*
  %7 = getelementptr inbounds %"struct.std::_Vector_base.14", %"struct.std::_Vector_base.14"* %6, i32 0, i32 0
  %8 = getelementptr inbounds %"struct.std::_Vector_base<int, std::allocator<int> >::_Vector_impl", %"struct.std::_Vector_base<int, std::allocator<int> >::_Vector_impl"* %7, i32 0, i32 0
  %9 = load i32*, i32** %8, align 8
  %10 = ptrtoint i32* %5 to i64
  %11 = ptrtoint i32* %9 to i64
  %12 = sub i64 %10, %11
  %13 = sdiv exact i64 %12, 4
  ret i64 %13
}

; Function Attrs: noinline nounwind uwtable
define linkonce_odr dereferenceable(4) i32* @_ZNSt6vectorIiSaIiEEixEm(%"class.std::vector.13"* %0, i64 %1) #4 comdat align 2 {
  %3 = bitcast %"class.std::vector.13"* %0 to %"struct.std::_Vector_base.14"*
  %4 = getelementptr inbounds %"struct.std::_Vector_base.14", %"struct.std::_Vector_base.14"* %3, i32 0, i32 0
  %5 = getelementptr inbounds %"struct.std::_Vector_base<int, std::allocator<int> >::_Vector_impl", %"struct.std::_Vector_base<int, std::allocator<int> >::_Vector_impl"* %4, i32 0, i32 0
  %6 = load i32*, i32** %5, align 8
  %7 = getelementptr inbounds i32, i32* %6, i64 %1
  ret i32* %7
}

declare dereferenceable(272) %"class.std::basic_ostream"* @_ZStlsISt11char_traitsIcEERSt13basic_ostreamIcT_ES5_PKc(%"class.std::basic_ostream"* dereferenceable(272), i8*) #1

; Function Attrs: noinline nounwind uwtable
define linkonce_odr void @_ZNSt6vectorISt4pairIiiESaIS1_EED2Ev(%"class.std::vector.19"* %0) unnamed_addr #4 comdat align 2 personality i8* bitcast (i32 (...)* @__gxx_personality_v0 to i8*) {
  %2 = bitcast %"class.std::vector.19"* %0 to %"struct.std::_Vector_base.20"*
  %3 = getelementptr inbounds %"struct.std::_Vector_base.20", %"struct.std::_Vector_base.20"* %2, i32 0, i32 0
  %4 = getelementptr inbounds %"struct.std::_Vector_base<std::pair<int, int>, std::allocator<std::pair<int, int> > >::_Vector_impl", %"struct.std::_Vector_base<std::pair<int, int>, std::allocator<std::pair<int, int> > >::_Vector_impl"* %3, i32 0, i32 0
  %5 = load %"struct.std::pair"*, %"struct.std::pair"** %4, align 8
  %6 = bitcast %"class.std::vector.19"* %0 to %"struct.std::_Vector_base.20"*
  %7 = getelementptr inbounds %"struct.std::_Vector_base.20", %"struct.std::_Vector_base.20"* %6, i32 0, i32 0
  %8 = getelementptr inbounds %"struct.std::_Vector_base<std::pair<int, int>, std::allocator<std::pair<int, int> > >::_Vector_impl", %"struct.std::_Vector_base<std::pair<int, int>, std::allocator<std::pair<int, int> > >::_Vector_impl"* %7, i32 0, i32 1
  %9 = load %"struct.std::pair"*, %"struct.std::pair"** %8, align 8
  %10 = bitcast %"class.std::vector.19"* %0 to %"struct.std::_Vector_base.20"*
  %11 = call dereferenceable(1) %"class.std::allocator.21"* @_ZNSt12_Vector_baseISt4pairIiiESaIS1_EE19_M_get_Tp_allocatorEv(%"struct.std::_Vector_base.20"* %10) #3
  invoke void @_ZSt8_DestroyIPSt4pairIiiES1_EvT_S3_RSaIT0_E(%"struct.std::pair"* %5, %"struct.std::pair"* %9, %"class.std::allocator.21"* dereferenceable(1) %11)
          to label %12 unwind label %14

12:                                               ; preds = %1
  %13 = bitcast %"class.std::vector.19"* %0 to %"struct.std::_Vector_base.20"*
  call void @_ZNSt12_Vector_baseISt4pairIiiESaIS1_EED2Ev(%"struct.std::_Vector_base.20"* %13) #3
  ret void

14:                                               ; preds = %1
  %15 = landingpad { i8*, i32 }
          catch i8* null
  %16 = extractvalue { i8*, i32 } %15, 0
  %17 = extractvalue { i8*, i32 } %15, 1
  %18 = bitcast %"class.std::vector.19"* %0 to %"struct.std::_Vector_base.20"*
  call void @_ZNSt12_Vector_baseISt4pairIiiESaIS1_EED2Ev(%"struct.std::_Vector_base.20"* %18) #3
  br label %19

19:                                               ; preds = %14
  call void @__clang_call_terminate(i8* %16) #14
  unreachable
}

; Function Attrs: noinline nounwind uwtable
define linkonce_odr void @_ZNSt6vectorIiSaIiEED2Ev(%"class.std::vector.13"* %0) unnamed_addr #4 comdat align 2 personality i8* bitcast (i32 (...)* @__gxx_personality_v0 to i8*) {
  %2 = bitcast %"class.std::vector.13"* %0 to %"struct.std::_Vector_base.14"*
  %3 = getelementptr inbounds %"struct.std::_Vector_base.14", %"struct.std::_Vector_base.14"* %2, i32 0, i32 0
  %4 = getelementptr inbounds %"struct.std::_Vector_base<int, std::allocator<int> >::_Vector_impl", %"struct.std::_Vector_base<int, std::allocator<int> >::_Vector_impl"* %3, i32 0, i32 0
  %5 = load i32*, i32** %4, align 8
  %6 = bitcast %"class.std::vector.13"* %0 to %"struct.std::_Vector_base.14"*
  %7 = getelementptr inbounds %"struct.std::_Vector_base.14", %"struct.std::_Vector_base.14"* %6, i32 0, i32 0
  %8 = getelementptr inbounds %"struct.std::_Vector_base<int, std::allocator<int> >::_Vector_impl", %"struct.std::_Vector_base<int, std::allocator<int> >::_Vector_impl"* %7, i32 0, i32 1
  %9 = load i32*, i32** %8, align 8
  %10 = bitcast %"class.std::vector.13"* %0 to %"struct.std::_Vector_base.14"*
  %11 = call dereferenceable(1) %"class.std::allocator.15"* @_ZNSt12_Vector_baseIiSaIiEE19_M_get_Tp_allocatorEv(%"struct.std::_Vector_base.14"* %10) #3
  invoke void @_ZSt8_DestroyIPiiEvT_S1_RSaIT0_E(i32* %5, i32* %9, %"class.std::allocator.15"* dereferenceable(1) %11)
          to label %12 unwind label %14

12:                                               ; preds = %1
  %13 = bitcast %"class.std::vector.13"* %0 to %"struct.std::_Vector_base.14"*
  call void @_ZNSt12_Vector_baseIiSaIiEED2Ev(%"struct.std::_Vector_base.14"* %13) #3
  ret void

14:                                               ; preds = %1
  %15 = landingpad { i8*, i32 }
          catch i8* null
  %16 = extractvalue { i8*, i32 } %15, 0
  %17 = extractvalue { i8*, i32 } %15, 1
  %18 = bitcast %"class.std::vector.13"* %0 to %"struct.std::_Vector_base.14"*
  call void @_ZNSt12_Vector_baseIiSaIiEED2Ev(%"struct.std::_Vector_base.14"* %18) #3
  br label %19

19:                                               ; preds = %14
  call void @__clang_call_terminate(i8* %16) #14
  unreachable
}

; Function Attrs: noinline nounwind uwtable
define linkonce_odr void @_ZNSt3mapISt4pairIiiEiSt4lessIS1_ESaIS0_IKS1_iEEED2Ev(%"class.std::map"* %0) unnamed_addr #4 comdat align 2 {
  %2 = getelementptr inbounds %"class.std::map", %"class.std::map"* %0, i32 0, i32 0
  call void @_ZNSt8_Rb_treeISt4pairIiiES0_IKS1_iESt10_Select1stIS3_ESt4lessIS1_ESaIS3_EED2Ev(%"class.std::_Rb_tree"* %2) #3
  ret void
}

; Function Attrs: nounwind
declare double @sqrt(double) #2

; Function Attrs: noinline nounwind uwtable
define linkonce_odr dereferenceable(8) %"struct.std::pair"* @_ZSt7forwardIRSt4pairIiiEEOT_RNSt16remove_referenceIS3_E4typeE(%"struct.std::pair"* dereferenceable(8) %0) #4 comdat {
  ret %"struct.std::pair"* %0
}

; Function Attrs: noinline nounwind uwtable
define linkonce_odr void @_ZNSt4pairIS_IiiES0_EC2IRS0_S3_Lb1EEEOT_OT0_(%"struct.std::pair.0"* %0, %"struct.std::pair"* dereferenceable(8) %1, %"struct.std::pair"* dereferenceable(8) %2) unnamed_addr #4 comdat align 2 {
  %4 = bitcast %"struct.std::pair.0"* %0 to %"class.std::__pair_base.1"*
  %5 = getelementptr inbounds %"struct.std::pair.0", %"struct.std::pair.0"* %0, i32 0, i32 0
  %6 = call dereferenceable(8) %"struct.std::pair"* @_ZSt7forwardIRSt4pairIiiEEOT_RNSt16remove_referenceIS3_E4typeE(%"struct.std::pair"* dereferenceable(8) %1) #3
  %7 = bitcast %"struct.std::pair"* %5 to i8*
  %8 = bitcast %"struct.std::pair"* %6 to i8*
  call void @llvm.memcpy.p0i8.p0i8.i64(i8* align 4 %7, i8* align 4 %8, i64 8, i1 false)
  %9 = getelementptr inbounds %"struct.std::pair.0", %"struct.std::pair.0"* %0, i32 0, i32 1
  %10 = call dereferenceable(8) %"struct.std::pair"* @_ZSt7forwardIRSt4pairIiiEEOT_RNSt16remove_referenceIS3_E4typeE(%"struct.std::pair"* dereferenceable(8) %2) #3
  %11 = bitcast %"struct.std::pair"* %9 to i8*
  %12 = bitcast %"struct.std::pair"* %10 to i8*
  call void @llvm.memcpy.p0i8.p0i8.i64(i8* align 4 %11, i8* align 4 %12, i64 8, i1 false)
  ret void
}

; Function Attrs: noinline nounwind uwtable
define linkonce_odr void @_ZNSt8_Rb_treeISt4pairIiiES0_IKS1_iESt10_Select1stIS3_ESt4lessIS1_ESaIS3_EEC2Ev(%"class.std::_Rb_tree"* %0) unnamed_addr #4 comdat align 2 {
  %2 = getelementptr inbounds %"class.std::_Rb_tree", %"class.std::_Rb_tree"* %0, i32 0, i32 0
  call void @_ZNSt8_Rb_treeISt4pairIiiES0_IKS1_iESt10_Select1stIS3_ESt4lessIS1_ESaIS3_EE13_Rb_tree_implIS7_Lb1EEC2Ev(%"struct.std::_Rb_tree<std::pair<int, int>, std::pair<const std::pair<int, int>, int>, std::_Select1st<std::pair<const std::pair<int, int>, int> >, std::less<std::pair<int, int> >, std::allocator<std::pair<const std::pair<int, int>, int> > >::_Rb_tree_impl"* %2) #3
  ret void
}

; Function Attrs: noinline nounwind uwtable
define linkonce_odr void @_ZNSt8_Rb_treeISt4pairIiiES0_IKS1_iESt10_Select1stIS3_ESt4lessIS1_ESaIS3_EE13_Rb_tree_implIS7_Lb1EEC2Ev(%"struct.std::_Rb_tree<std::pair<int, int>, std::pair<const std::pair<int, int>, int>, std::_Select1st<std::pair<const std::pair<int, int>, int> >, std::less<std::pair<int, int> >, std::allocator<std::pair<const std::pair<int, int>, int> > >::_Rb_tree_impl"* %0) unnamed_addr #4 comdat align 2 {
  %2 = bitcast %"struct.std::_Rb_tree<std::pair<int, int>, std::pair<const std::pair<int, int>, int>, std::_Select1st<std::pair<const std::pair<int, int>, int> >, std::less<std::pair<int, int> >, std::allocator<std::pair<const std::pair<int, int>, int> > >::_Rb_tree_impl"* %0 to %"class.std::allocator.3"*
  call void @_ZNSaISt13_Rb_tree_nodeISt4pairIKS0_IiiEiEEEC2Ev(%"class.std::allocator.3"* %2) #3
  %3 = bitcast %"struct.std::_Rb_tree<std::pair<int, int>, std::pair<const std::pair<int, int>, int>, std::_Select1st<std::pair<const std::pair<int, int>, int> >, std::less<std::pair<int, int> >, std::allocator<std::pair<const std::pair<int, int>, int> > >::_Rb_tree_impl"* %0 to %"struct.std::_Rb_tree_key_compare"*
  call void @_ZNSt20_Rb_tree_key_compareISt4lessISt4pairIiiEEEC2Ev(%"struct.std::_Rb_tree_key_compare"* %3) #3
  %4 = bitcast %"struct.std::_Rb_tree<std::pair<int, int>, std::pair<const std::pair<int, int>, int>, std::_Select1st<std::pair<const std::pair<int, int>, int> >, std::less<std::pair<int, int> >, std::allocator<std::pair<const std::pair<int, int>, int> > >::_Rb_tree_impl"* %0 to i8*
  %5 = getelementptr inbounds i8, i8* %4, i64 8
  %6 = bitcast i8* %5 to %"struct.std::_Rb_tree_header"*
  call void @_ZNSt15_Rb_tree_headerC2Ev(%"struct.std::_Rb_tree_header"* %6) #3
  ret void
}

; Function Attrs: noinline nounwind uwtable
define linkonce_odr void @_ZNSaISt13_Rb_tree_nodeISt4pairIKS0_IiiEiEEEC2Ev(%"class.std::allocator.3"* %0) unnamed_addr #4 comdat align 2 {
  %2 = bitcast %"class.std::allocator.3"* %0 to %"class.__gnu_cxx::new_allocator.4"*
  call void @_ZN9__gnu_cxx13new_allocatorISt13_Rb_tree_nodeISt4pairIKS2_IiiEiEEEC2Ev(%"class.__gnu_cxx::new_allocator.4"* %2) #3
  ret void
}

; Function Attrs: noinline nounwind uwtable
define linkonce_odr void @_ZNSt20_Rb_tree_key_compareISt4lessISt4pairIiiEEEC2Ev(%"struct.std::_Rb_tree_key_compare"* %0) unnamed_addr #4 comdat align 2 {
  %2 = getelementptr inbounds %"struct.std::_Rb_tree_key_compare", %"struct.std::_Rb_tree_key_compare"* %0, i32 0, i32 0
  ret void
}

; Function Attrs: noinline nounwind uwtable
define linkonce_odr void @_ZNSt15_Rb_tree_headerC2Ev(%"struct.std::_Rb_tree_header"* %0) unnamed_addr #4 comdat align 2 personality i8* bitcast (i32 (...)* @__gxx_personality_v0 to i8*) {
  %2 = getelementptr inbounds %"struct.std::_Rb_tree_header", %"struct.std::_Rb_tree_header"* %0, i32 0, i32 0
  %3 = getelementptr inbounds %"struct.std::_Rb_tree_header", %"struct.std::_Rb_tree_header"* %0, i32 0, i32 0
  %4 = getelementptr inbounds %"struct.std::_Rb_tree_node_base", %"struct.std::_Rb_tree_node_base"* %3, i32 0, i32 0
  store i32 0, i32* %4, align 8
  invoke void @_ZNSt15_Rb_tree_header8_M_resetEv(%"struct.std::_Rb_tree_header"* %0)
          to label %5 unwind label %6

5:                                                ; preds = %1
  ret void

6:                                                ; preds = %1
  %7 = landingpad { i8*, i32 }
          catch i8* null
  %8 = extractvalue { i8*, i32 } %7, 0
  call void @__clang_call_terminate(i8* %8) #14
  unreachable
}

; Function Attrs: noinline nounwind uwtable
define linkonce_odr void @_ZN9__gnu_cxx13new_allocatorISt13_Rb_tree_nodeISt4pairIKS2_IiiEiEEEC2Ev(%"class.__gnu_cxx::new_allocator.4"* %0) unnamed_addr #4 comdat align 2 {
  ret void
}

; Function Attrs: noinline nounwind uwtable
define linkonce_odr void @_ZNSt15_Rb_tree_header8_M_resetEv(%"struct.std::_Rb_tree_header"* %0) #4 comdat align 2 {
  %2 = getelementptr inbounds %"struct.std::_Rb_tree_header", %"struct.std::_Rb_tree_header"* %0, i32 0, i32 0
  %3 = getelementptr inbounds %"struct.std::_Rb_tree_node_base", %"struct.std::_Rb_tree_node_base"* %2, i32 0, i32 1
  store %"struct.std::_Rb_tree_node_base"* null, %"struct.std::_Rb_tree_node_base"** %3, align 8
  %4 = getelementptr inbounds %"struct.std::_Rb_tree_header", %"struct.std::_Rb_tree_header"* %0, i32 0, i32 0
  %5 = getelementptr inbounds %"struct.std::_Rb_tree_header", %"struct.std::_Rb_tree_header"* %0, i32 0, i32 0
  %6 = getelementptr inbounds %"struct.std::_Rb_tree_node_base", %"struct.std::_Rb_tree_node_base"* %5, i32 0, i32 2
  store %"struct.std::_Rb_tree_node_base"* %4, %"struct.std::_Rb_tree_node_base"** %6, align 8
  %7 = getelementptr inbounds %"struct.std::_Rb_tree_header", %"struct.std::_Rb_tree_header"* %0, i32 0, i32 0
  %8 = getelementptr inbounds %"struct.std::_Rb_tree_header", %"struct.std::_Rb_tree_header"* %0, i32 0, i32 0
  %9 = getelementptr inbounds %"struct.std::_Rb_tree_node_base", %"struct.std::_Rb_tree_node_base"* %8, i32 0, i32 3
  store %"struct.std::_Rb_tree_node_base"* %7, %"struct.std::_Rb_tree_node_base"** %9, align 8
  %10 = getelementptr inbounds %"struct.std::_Rb_tree_header", %"struct.std::_Rb_tree_header"* %0, i32 0, i32 1
  store i64 0, i64* %10, align 8
  ret void
}

; Function Attrs: noinline noreturn nounwind
define linkonce_odr hidden void @__clang_call_terminate(i8* %0) #7 comdat {
  %2 = call i8* @__cxa_begin_catch(i8* %0) #3
  call void @_ZSt9terminatev() #14
  unreachable
}

declare i8* @__cxa_begin_catch(i8*)

declare void @_ZSt9terminatev()

; Function Attrs: noinline nounwind uwtable
define linkonce_odr dereferenceable(8) i64* @_ZSt7forwardImEOT_RNSt16remove_referenceIS0_E4typeE(i64* dereferenceable(8) %0) #4 comdat {
  ret i64* %0
}

; Function Attrs: noinline nounwind uwtable
define linkonce_odr void @_ZNSt4pairIS_IiiEmEC2IRS0_mLb1EEEOT_OT0_(%"struct.std::pair.9"* %0, %"struct.std::pair"* dereferenceable(8) %1, i64* dereferenceable(8) %2) unnamed_addr #4 comdat align 2 {
  %4 = bitcast %"struct.std::pair.9"* %0 to %"class.std::__pair_base.10"*
  %5 = getelementptr inbounds %"struct.std::pair.9", %"struct.std::pair.9"* %0, i32 0, i32 0
  %6 = call dereferenceable(8) %"struct.std::pair"* @_ZSt7forwardIRSt4pairIiiEEOT_RNSt16remove_referenceIS3_E4typeE(%"struct.std::pair"* dereferenceable(8) %1) #3
  %7 = bitcast %"struct.std::pair"* %5 to i8*
  %8 = bitcast %"struct.std::pair"* %6 to i8*
  call void @llvm.memcpy.p0i8.p0i8.i64(i8* align 4 %7, i8* align 4 %8, i64 8, i1 false)
  %9 = getelementptr inbounds %"struct.std::pair.9", %"struct.std::pair.9"* %0, i32 0, i32 1
  %10 = call dereferenceable(8) i64* @_ZSt7forwardImEOT_RNSt16remove_referenceIS0_E4typeE(i64* dereferenceable(8) %2) #3
  %11 = load i64, i64* %10, align 8
  store i64 %11, i64* %9, align 8
  ret void
}

; Function Attrs: noinline nounwind uwtable
define linkonce_odr zeroext i1 @_ZSteqIiiEbRKSt4pairIT_T0_ES5_(%"struct.std::pair"* dereferenceable(8) %0, %"struct.std::pair"* dereferenceable(8) %1) #4 comdat {
  %3 = getelementptr inbounds %"struct.std::pair", %"struct.std::pair"* %0, i32 0, i32 0
  %4 = load i32, i32* %3, align 4
  %5 = getelementptr inbounds %"struct.std::pair", %"struct.std::pair"* %1, i32 0, i32 0
  %6 = load i32, i32* %5, align 4
  %7 = icmp eq i32 %4, %6
  br i1 %7, label %8, label %14

8:                                                ; preds = %2
  %9 = getelementptr inbounds %"struct.std::pair", %"struct.std::pair"* %0, i32 0, i32 1
  %10 = load i32, i32* %9, align 4
  %11 = getelementptr inbounds %"struct.std::pair", %"struct.std::pair"* %1, i32 0, i32 1
  %12 = load i32, i32* %11, align 4
  %13 = icmp eq i32 %10, %12
  br label %14

14:                                               ; preds = %8, %2
  %15 = phi i1 [ false, %2 ], [ %13, %8 ]
  ret i1 %15
}

; Function Attrs: noinline nounwind uwtable
define linkonce_odr void @_ZNSt8_Rb_treeISt4pairIiiES0_IKS1_iESt10_Select1stIS3_ESt4lessIS1_ESaIS3_EED2Ev(%"class.std::_Rb_tree"* %0) unnamed_addr #4 comdat align 2 personality i8* bitcast (i32 (...)* @__gxx_personality_v0 to i8*) {
  %2 = call %"struct.std::_Rb_tree_node"* @_ZNSt8_Rb_treeISt4pairIiiES0_IKS1_iESt10_Select1stIS3_ESt4lessIS1_ESaIS3_EE8_M_beginEv(%"class.std::_Rb_tree"* %0) #3
  invoke void @_ZNSt8_Rb_treeISt4pairIiiES0_IKS1_iESt10_Select1stIS3_ESt4lessIS1_ESaIS3_EE8_M_eraseEPSt13_Rb_tree_nodeIS3_E(%"class.std::_Rb_tree"* %0, %"struct.std::_Rb_tree_node"* %2)
          to label %3 unwind label %5

3:                                                ; preds = %1
  %4 = getelementptr inbounds %"class.std::_Rb_tree", %"class.std::_Rb_tree"* %0, i32 0, i32 0
  call void @_ZNSt8_Rb_treeISt4pairIiiES0_IKS1_iESt10_Select1stIS3_ESt4lessIS1_ESaIS3_EE13_Rb_tree_implIS7_Lb1EED2Ev(%"struct.std::_Rb_tree<std::pair<int, int>, std::pair<const std::pair<int, int>, int>, std::_Select1st<std::pair<const std::pair<int, int>, int> >, std::less<std::pair<int, int> >, std::allocator<std::pair<const std::pair<int, int>, int> > >::_Rb_tree_impl"* %4) #3
  ret void

5:                                                ; preds = %1
  %6 = landingpad { i8*, i32 }
          catch i8* null
  %7 = extractvalue { i8*, i32 } %6, 0
  %8 = extractvalue { i8*, i32 } %6, 1
  %9 = getelementptr inbounds %"class.std::_Rb_tree", %"class.std::_Rb_tree"* %0, i32 0, i32 0
  call void @_ZNSt8_Rb_treeISt4pairIiiES0_IKS1_iESt10_Select1stIS3_ESt4lessIS1_ESaIS3_EE13_Rb_tree_implIS7_Lb1EED2Ev(%"struct.std::_Rb_tree<std::pair<int, int>, std::pair<const std::pair<int, int>, int>, std::_Select1st<std::pair<const std::pair<int, int>, int> >, std::less<std::pair<int, int> >, std::allocator<std::pair<const std::pair<int, int>, int> > >::_Rb_tree_impl"* %9) #3
  br label %10

10:                                               ; preds = %5
  call void @__clang_call_terminate(i8* %7) #14
  unreachable
}

; Function Attrs: noinline uwtable
define linkonce_odr void @_ZNSt8_Rb_treeISt4pairIiiES0_IKS1_iESt10_Select1stIS3_ESt4lessIS1_ESaIS3_EE8_M_eraseEPSt13_Rb_tree_nodeIS3_E(%"class.std::_Rb_tree"* %0, %"struct.std::_Rb_tree_node"* %1) #0 comdat align 2 {
  br label %3

3:                                                ; preds = %5, %2
  %.0 = phi %"struct.std::_Rb_tree_node"* [ %1, %2 ], [ %9, %5 ]
  %4 = icmp ne %"struct.std::_Rb_tree_node"* %.0, null
  br i1 %4, label %5, label %10

5:                                                ; preds = %3
  %6 = bitcast %"struct.std::_Rb_tree_node"* %.0 to %"struct.std::_Rb_tree_node_base"*
  %7 = call %"struct.std::_Rb_tree_node"* @_ZNSt8_Rb_treeISt4pairIiiES0_IKS1_iESt10_Select1stIS3_ESt4lessIS1_ESaIS3_EE8_S_rightEPSt18_Rb_tree_node_base(%"struct.std::_Rb_tree_node_base"* %6) #3
  call void @_ZNSt8_Rb_treeISt4pairIiiES0_IKS1_iESt10_Select1stIS3_ESt4lessIS1_ESaIS3_EE8_M_eraseEPSt13_Rb_tree_nodeIS3_E(%"class.std::_Rb_tree"* %0, %"struct.std::_Rb_tree_node"* %7)
  %8 = bitcast %"struct.std::_Rb_tree_node"* %.0 to %"struct.std::_Rb_tree_node_base"*
  %9 = call %"struct.std::_Rb_tree_node"* @_ZNSt8_Rb_treeISt4pairIiiES0_IKS1_iESt10_Select1stIS3_ESt4lessIS1_ESaIS3_EE7_S_leftEPSt18_Rb_tree_node_base(%"struct.std::_Rb_tree_node_base"* %8) #3
  call void @_ZNSt8_Rb_treeISt4pairIiiES0_IKS1_iESt10_Select1stIS3_ESt4lessIS1_ESaIS3_EE12_M_drop_nodeEPSt13_Rb_tree_nodeIS3_E(%"class.std::_Rb_tree"* %0, %"struct.std::_Rb_tree_node"* %.0) #3
  br label %3

10:                                               ; preds = %3
  ret void
}

; Function Attrs: noinline nounwind uwtable
define linkonce_odr %"struct.std::_Rb_tree_node"* @_ZNSt8_Rb_treeISt4pairIiiES0_IKS1_iESt10_Select1stIS3_ESt4lessIS1_ESaIS3_EE8_M_beginEv(%"class.std::_Rb_tree"* %0) #4 comdat align 2 {
  %2 = getelementptr inbounds %"class.std::_Rb_tree", %"class.std::_Rb_tree"* %0, i32 0, i32 0
  %3 = bitcast %"struct.std::_Rb_tree<std::pair<int, int>, std::pair<const std::pair<int, int>, int>, std::_Select1st<std::pair<const std::pair<int, int>, int> >, std::less<std::pair<int, int> >, std::allocator<std::pair<const std::pair<int, int>, int> > >::_Rb_tree_impl"* %2 to i8*
  %4 = getelementptr inbounds i8, i8* %3, i64 8
  %5 = bitcast i8* %4 to %"struct.std::_Rb_tree_header"*
  %6 = getelementptr inbounds %"struct.std::_Rb_tree_header", %"struct.std::_Rb_tree_header"* %5, i32 0, i32 0
  %7 = getelementptr inbounds %"struct.std::_Rb_tree_node_base", %"struct.std::_Rb_tree_node_base"* %6, i32 0, i32 1
  %8 = load %"struct.std::_Rb_tree_node_base"*, %"struct.std::_Rb_tree_node_base"** %7, align 8
  %9 = bitcast %"struct.std::_Rb_tree_node_base"* %8 to %"struct.std::_Rb_tree_node"*
  ret %"struct.std::_Rb_tree_node"* %9
}

; Function Attrs: noinline nounwind uwtable
define linkonce_odr void @_ZNSt8_Rb_treeISt4pairIiiES0_IKS1_iESt10_Select1stIS3_ESt4lessIS1_ESaIS3_EE13_Rb_tree_implIS7_Lb1EED2Ev(%"struct.std::_Rb_tree<std::pair<int, int>, std::pair<const std::pair<int, int>, int>, std::_Select1st<std::pair<const std::pair<int, int>, int> >, std::less<std::pair<int, int> >, std::allocator<std::pair<const std::pair<int, int>, int> > >::_Rb_tree_impl"* %0) unnamed_addr #4 comdat align 2 {
  %2 = bitcast %"struct.std::_Rb_tree<std::pair<int, int>, std::pair<const std::pair<int, int>, int>, std::_Select1st<std::pair<const std::pair<int, int>, int> >, std::less<std::pair<int, int> >, std::allocator<std::pair<const std::pair<int, int>, int> > >::_Rb_tree_impl"* %0 to %"class.std::allocator.3"*
  call void @_ZNSaISt13_Rb_tree_nodeISt4pairIKS0_IiiEiEEED2Ev(%"class.std::allocator.3"* %2) #3
  ret void
}

; Function Attrs: noinline nounwind uwtable
define linkonce_odr %"struct.std::_Rb_tree_node"* @_ZNSt8_Rb_treeISt4pairIiiES0_IKS1_iESt10_Select1stIS3_ESt4lessIS1_ESaIS3_EE8_S_rightEPSt18_Rb_tree_node_base(%"struct.std::_Rb_tree_node_base"* %0) #4 comdat align 2 {
  %2 = getelementptr inbounds %"struct.std::_Rb_tree_node_base", %"struct.std::_Rb_tree_node_base"* %0, i32 0, i32 3
  %3 = load %"struct.std::_Rb_tree_node_base"*, %"struct.std::_Rb_tree_node_base"** %2, align 8
  %4 = bitcast %"struct.std::_Rb_tree_node_base"* %3 to %"struct.std::_Rb_tree_node"*
  ret %"struct.std::_Rb_tree_node"* %4
}

; Function Attrs: noinline nounwind uwtable
define linkonce_odr %"struct.std::_Rb_tree_node"* @_ZNSt8_Rb_treeISt4pairIiiES0_IKS1_iESt10_Select1stIS3_ESt4lessIS1_ESaIS3_EE7_S_leftEPSt18_Rb_tree_node_base(%"struct.std::_Rb_tree_node_base"* %0) #4 comdat align 2 {
  %2 = getelementptr inbounds %"struct.std::_Rb_tree_node_base", %"struct.std::_Rb_tree_node_base"* %0, i32 0, i32 2
  %3 = load %"struct.std::_Rb_tree_node_base"*, %"struct.std::_Rb_tree_node_base"** %2, align 8
  %4 = bitcast %"struct.std::_Rb_tree_node_base"* %3 to %"struct.std::_Rb_tree_node"*
  ret %"struct.std::_Rb_tree_node"* %4
}

; Function Attrs: noinline nounwind uwtable
define linkonce_odr void @_ZNSt8_Rb_treeISt4pairIiiES0_IKS1_iESt10_Select1stIS3_ESt4lessIS1_ESaIS3_EE12_M_drop_nodeEPSt13_Rb_tree_nodeIS3_E(%"class.std::_Rb_tree"* %0, %"struct.std::_Rb_tree_node"* %1) #4 comdat align 2 {
  call void @_ZNSt8_Rb_treeISt4pairIiiES0_IKS1_iESt10_Select1stIS3_ESt4lessIS1_ESaIS3_EE15_M_destroy_nodeEPSt13_Rb_tree_nodeIS3_E(%"class.std::_Rb_tree"* %0, %"struct.std::_Rb_tree_node"* %1) #3
  call void @_ZNSt8_Rb_treeISt4pairIiiES0_IKS1_iESt10_Select1stIS3_ESt4lessIS1_ESaIS3_EE11_M_put_nodeEPSt13_Rb_tree_nodeIS3_E(%"class.std::_Rb_tree"* %0, %"struct.std::_Rb_tree_node"* %1) #3
  ret void
}

; Function Attrs: noinline nounwind uwtable
define linkonce_odr void @_ZNSt8_Rb_treeISt4pairIiiES0_IKS1_iESt10_Select1stIS3_ESt4lessIS1_ESaIS3_EE15_M_destroy_nodeEPSt13_Rb_tree_nodeIS3_E(%"class.std::_Rb_tree"* %0, %"struct.std::_Rb_tree_node"* %1) #4 comdat align 2 personality i8* bitcast (i32 (...)* @__gxx_personality_v0 to i8*) {
  %3 = call dereferenceable(1) %"class.std::allocator.3"* @_ZNSt8_Rb_treeISt4pairIiiES0_IKS1_iESt10_Select1stIS3_ESt4lessIS1_ESaIS3_EE21_M_get_Node_allocatorEv(%"class.std::_Rb_tree"* %0) #3
  %4 = invoke %"struct.std::pair.24"* @_ZNSt13_Rb_tree_nodeISt4pairIKS0_IiiEiEE9_M_valptrEv(%"struct.std::_Rb_tree_node"* %1)
          to label %5 unwind label %7

5:                                                ; preds = %2
  invoke void @_ZNSt16allocator_traitsISaISt13_Rb_tree_nodeISt4pairIKS1_IiiEiEEEE7destroyIS4_EEvRS6_PT_(%"class.std::allocator.3"* dereferenceable(1) %3, %"struct.std::pair.24"* %4)
          to label %6 unwind label %7

6:                                                ; preds = %5
  ret void

7:                                                ; preds = %5, %2
  %8 = landingpad { i8*, i32 }
          catch i8* null
  %9 = extractvalue { i8*, i32 } %8, 0
  call void @__clang_call_terminate(i8* %9) #14
  unreachable
}

; Function Attrs: noinline nounwind uwtable
define linkonce_odr void @_ZNSt8_Rb_treeISt4pairIiiES0_IKS1_iESt10_Select1stIS3_ESt4lessIS1_ESaIS3_EE11_M_put_nodeEPSt13_Rb_tree_nodeIS3_E(%"class.std::_Rb_tree"* %0, %"struct.std::_Rb_tree_node"* %1) #4 comdat align 2 personality i8* bitcast (i32 (...)* @__gxx_personality_v0 to i8*) {
  %3 = call dereferenceable(1) %"class.std::allocator.3"* @_ZNSt8_Rb_treeISt4pairIiiES0_IKS1_iESt10_Select1stIS3_ESt4lessIS1_ESaIS3_EE21_M_get_Node_allocatorEv(%"class.std::_Rb_tree"* %0) #3
  invoke void @_ZNSt16allocator_traitsISaISt13_Rb_tree_nodeISt4pairIKS1_IiiEiEEEE10deallocateERS6_PS5_m(%"class.std::allocator.3"* dereferenceable(1) %3, %"struct.std::_Rb_tree_node"* %1, i64 1)
          to label %4 unwind label %5

4:                                                ; preds = %2
  ret void

5:                                                ; preds = %2
  %6 = landingpad { i8*, i32 }
          catch i8* null
  %7 = extractvalue { i8*, i32 } %6, 0
  call void @__clang_call_terminate(i8* %7) #14
  unreachable
}

; Function Attrs: noinline uwtable
define linkonce_odr void @_ZNSt16allocator_traitsISaISt13_Rb_tree_nodeISt4pairIKS1_IiiEiEEEE7destroyIS4_EEvRS6_PT_(%"class.std::allocator.3"* dereferenceable(1) %0, %"struct.std::pair.24"* %1) #0 comdat align 2 {
  %3 = bitcast %"class.std::allocator.3"* %0 to %"class.__gnu_cxx::new_allocator.4"*
  call void @_ZN9__gnu_cxx13new_allocatorISt13_Rb_tree_nodeISt4pairIKS2_IiiEiEEE7destroyIS5_EEvPT_(%"class.__gnu_cxx::new_allocator.4"* %3, %"struct.std::pair.24"* %1)
  ret void
}

; Function Attrs: noinline nounwind uwtable
define linkonce_odr dereferenceable(1) %"class.std::allocator.3"* @_ZNSt8_Rb_treeISt4pairIiiES0_IKS1_iESt10_Select1stIS3_ESt4lessIS1_ESaIS3_EE21_M_get_Node_allocatorEv(%"class.std::_Rb_tree"* %0) #4 comdat align 2 {
  %2 = getelementptr inbounds %"class.std::_Rb_tree", %"class.std::_Rb_tree"* %0, i32 0, i32 0
  %3 = bitcast %"struct.std::_Rb_tree<std::pair<int, int>, std::pair<const std::pair<int, int>, int>, std::_Select1st<std::pair<const std::pair<int, int>, int> >, std::less<std::pair<int, int> >, std::allocator<std::pair<const std::pair<int, int>, int> > >::_Rb_tree_impl"* %2 to %"class.std::allocator.3"*
  ret %"class.std::allocator.3"* %3
}

; Function Attrs: noinline nounwind uwtable
define linkonce_odr %"struct.std::pair.24"* @_ZNSt13_Rb_tree_nodeISt4pairIKS0_IiiEiEE9_M_valptrEv(%"struct.std::_Rb_tree_node"* %0) #4 comdat align 2 {
  %2 = getelementptr inbounds %"struct.std::_Rb_tree_node", %"struct.std::_Rb_tree_node"* %0, i32 0, i32 1
  %3 = call %"struct.std::pair.24"* @_ZN9__gnu_cxx16__aligned_membufISt4pairIKS1_IiiEiEE6_M_ptrEv(%"struct.__gnu_cxx::__aligned_membuf"* %2) #3
  ret %"struct.std::pair.24"* %3
}

; Function Attrs: noinline nounwind uwtable
define linkonce_odr void @_ZN9__gnu_cxx13new_allocatorISt13_Rb_tree_nodeISt4pairIKS2_IiiEiEEE7destroyIS5_EEvPT_(%"class.__gnu_cxx::new_allocator.4"* %0, %"struct.std::pair.24"* %1) #4 comdat align 2 {
  ret void
}

; Function Attrs: noinline nounwind uwtable
define linkonce_odr %"struct.std::pair.24"* @_ZN9__gnu_cxx16__aligned_membufISt4pairIKS1_IiiEiEE6_M_ptrEv(%"struct.__gnu_cxx::__aligned_membuf"* %0) #4 comdat align 2 {
  %2 = call i8* @_ZN9__gnu_cxx16__aligned_membufISt4pairIKS1_IiiEiEE7_M_addrEv(%"struct.__gnu_cxx::__aligned_membuf"* %0) #3
  %3 = bitcast i8* %2 to %"struct.std::pair.24"*
  ret %"struct.std::pair.24"* %3
}

; Function Attrs: noinline nounwind uwtable
define linkonce_odr i8* @_ZN9__gnu_cxx16__aligned_membufISt4pairIKS1_IiiEiEE7_M_addrEv(%"struct.__gnu_cxx::__aligned_membuf"* %0) #4 comdat align 2 {
  %2 = getelementptr inbounds %"struct.__gnu_cxx::__aligned_membuf", %"struct.__gnu_cxx::__aligned_membuf"* %0, i32 0, i32 0
  %3 = bitcast [12 x i8]* %2 to i8*
  ret i8* %3
}

; Function Attrs: noinline uwtable
define linkonce_odr void @_ZNSt16allocator_traitsISaISt13_Rb_tree_nodeISt4pairIKS1_IiiEiEEEE10deallocateERS6_PS5_m(%"class.std::allocator.3"* dereferenceable(1) %0, %"struct.std::_Rb_tree_node"* %1, i64 %2) #0 comdat align 2 {
  %4 = bitcast %"class.std::allocator.3"* %0 to %"class.__gnu_cxx::new_allocator.4"*
  call void @_ZN9__gnu_cxx13new_allocatorISt13_Rb_tree_nodeISt4pairIKS2_IiiEiEEE10deallocateEPS6_m(%"class.__gnu_cxx::new_allocator.4"* %4, %"struct.std::_Rb_tree_node"* %1, i64 %2)
  ret void
}

; Function Attrs: noinline nounwind uwtable
define linkonce_odr void @_ZN9__gnu_cxx13new_allocatorISt13_Rb_tree_nodeISt4pairIKS2_IiiEiEEE10deallocateEPS6_m(%"class.__gnu_cxx::new_allocator.4"* %0, %"struct.std::_Rb_tree_node"* %1, i64 %2) #4 comdat align 2 {
  %4 = bitcast %"struct.std::_Rb_tree_node"* %1 to i8*
  call void @_ZdlPv(i8* %4) #3
  ret void
}

; Function Attrs: nobuiltin nounwind
declare void @_ZdlPv(i8*) #8

; Function Attrs: noinline nounwind uwtable
define linkonce_odr void @_ZNSaISt13_Rb_tree_nodeISt4pairIKS0_IiiEiEEED2Ev(%"class.std::allocator.3"* %0) unnamed_addr #4 comdat align 2 {
  %2 = bitcast %"class.std::allocator.3"* %0 to %"class.__gnu_cxx::new_allocator.4"*
  call void @_ZN9__gnu_cxx13new_allocatorISt13_Rb_tree_nodeISt4pairIKS2_IiiEiEEED2Ev(%"class.__gnu_cxx::new_allocator.4"* %2) #3
  ret void
}

; Function Attrs: noinline nounwind uwtable
define linkonce_odr void @_ZN9__gnu_cxx13new_allocatorISt13_Rb_tree_nodeISt4pairIKS2_IiiEiEEED2Ev(%"class.__gnu_cxx::new_allocator.4"* %0) unnamed_addr #4 comdat align 2 {
  ret void
}

; Function Attrs: noinline uwtable
define linkonce_odr void @_ZNSt12_Vector_baseISt4pairIS0_IiiES1_ESaIS2_EEC2Ev(%"struct.std::_Vector_base"* %0) unnamed_addr #0 comdat align 2 {
  %2 = getelementptr inbounds %"struct.std::_Vector_base", %"struct.std::_Vector_base"* %0, i32 0, i32 0
  call void @_ZNSt12_Vector_baseISt4pairIS0_IiiES1_ESaIS2_EE12_Vector_implC2Ev(%"struct.std::_Vector_base<std::pair<std::pair<int, int>, std::pair<int, int> >, std::allocator<std::pair<std::pair<int, int>, std::pair<int, int> > > >::_Vector_impl"* %2)
  ret void
}

; Function Attrs: noinline nounwind uwtable
define linkonce_odr void @_ZNSt12_Vector_baseISt4pairIS0_IiiES1_ESaIS2_EE12_Vector_implC2Ev(%"struct.std::_Vector_base<std::pair<std::pair<int, int>, std::pair<int, int> >, std::allocator<std::pair<std::pair<int, int>, std::pair<int, int> > > >::_Vector_impl"* %0) unnamed_addr #4 comdat align 2 {
  %2 = bitcast %"struct.std::_Vector_base<std::pair<std::pair<int, int>, std::pair<int, int> >, std::allocator<std::pair<std::pair<int, int>, std::pair<int, int> > > >::_Vector_impl"* %0 to %"class.std::allocator"*
  call void @_ZNSaISt4pairIS_IiiES0_EEC2Ev(%"class.std::allocator"* %2) #3
  %3 = getelementptr inbounds %"struct.std::_Vector_base<std::pair<std::pair<int, int>, std::pair<int, int> >, std::allocator<std::pair<std::pair<int, int>, std::pair<int, int> > > >::_Vector_impl", %"struct.std::_Vector_base<std::pair<std::pair<int, int>, std::pair<int, int> >, std::allocator<std::pair<std::pair<int, int>, std::pair<int, int> > > >::_Vector_impl"* %0, i32 0, i32 0
  store %"struct.std::pair.0"* null, %"struct.std::pair.0"** %3, align 8
  %4 = getelementptr inbounds %"struct.std::_Vector_base<std::pair<std::pair<int, int>, std::pair<int, int> >, std::allocator<std::pair<std::pair<int, int>, std::pair<int, int> > > >::_Vector_impl", %"struct.std::_Vector_base<std::pair<std::pair<int, int>, std::pair<int, int> >, std::allocator<std::pair<std::pair<int, int>, std::pair<int, int> > > >::_Vector_impl"* %0, i32 0, i32 1
  store %"struct.std::pair.0"* null, %"struct.std::pair.0"** %4, align 8
  %5 = getelementptr inbounds %"struct.std::_Vector_base<std::pair<std::pair<int, int>, std::pair<int, int> >, std::allocator<std::pair<std::pair<int, int>, std::pair<int, int> > > >::_Vector_impl", %"struct.std::_Vector_base<std::pair<std::pair<int, int>, std::pair<int, int> >, std::allocator<std::pair<std::pair<int, int>, std::pair<int, int> > > >::_Vector_impl"* %0, i32 0, i32 2
  store %"struct.std::pair.0"* null, %"struct.std::pair.0"** %5, align 8
  ret void
}

; Function Attrs: noinline nounwind uwtable
define linkonce_odr void @_ZN9__gnu_cxx13new_allocatorISt4pairIS1_IiiES2_EEC2Ev(%"class.__gnu_cxx::new_allocator"* %0) unnamed_addr #4 comdat align 2 {
  ret void
}

; Function Attrs: noinline uwtable
define linkonce_odr void @_ZSt8_DestroyIPSt4pairIS0_IiiES1_ES2_EvT_S4_RSaIT0_E(%"struct.std::pair.0"* %0, %"struct.std::pair.0"* %1, %"class.std::allocator"* dereferenceable(1) %2) #0 comdat {
  call void @_ZSt8_DestroyIPSt4pairIS0_IiiES1_EEvT_S4_(%"struct.std::pair.0"* %0, %"struct.std::pair.0"* %1)
  ret void
}

; Function Attrs: noinline nounwind uwtable
define linkonce_odr dereferenceable(1) %"class.std::allocator"* @_ZNSt12_Vector_baseISt4pairIS0_IiiES1_ESaIS2_EE19_M_get_Tp_allocatorEv(%"struct.std::_Vector_base"* %0) #4 comdat align 2 {
  %2 = getelementptr inbounds %"struct.std::_Vector_base", %"struct.std::_Vector_base"* %0, i32 0, i32 0
  %3 = bitcast %"struct.std::_Vector_base<std::pair<std::pair<int, int>, std::pair<int, int> >, std::allocator<std::pair<std::pair<int, int>, std::pair<int, int> > > >::_Vector_impl"* %2 to %"class.std::allocator"*
  ret %"class.std::allocator"* %3
}

; Function Attrs: noinline nounwind uwtable
define linkonce_odr void @_ZNSt12_Vector_baseISt4pairIS0_IiiES1_ESaIS2_EED2Ev(%"struct.std::_Vector_base"* %0) unnamed_addr #4 comdat align 2 personality i8* bitcast (i32 (...)* @__gxx_personality_v0 to i8*) {
  %2 = getelementptr inbounds %"struct.std::_Vector_base", %"struct.std::_Vector_base"* %0, i32 0, i32 0
  %3 = getelementptr inbounds %"struct.std::_Vector_base<std::pair<std::pair<int, int>, std::pair<int, int> >, std::allocator<std::pair<std::pair<int, int>, std::pair<int, int> > > >::_Vector_impl", %"struct.std::_Vector_base<std::pair<std::pair<int, int>, std::pair<int, int> >, std::allocator<std::pair<std::pair<int, int>, std::pair<int, int> > > >::_Vector_impl"* %2, i32 0, i32 0
  %4 = load %"struct.std::pair.0"*, %"struct.std::pair.0"** %3, align 8
  %5 = getelementptr inbounds %"struct.std::_Vector_base", %"struct.std::_Vector_base"* %0, i32 0, i32 0
  %6 = getelementptr inbounds %"struct.std::_Vector_base<std::pair<std::pair<int, int>, std::pair<int, int> >, std::allocator<std::pair<std::pair<int, int>, std::pair<int, int> > > >::_Vector_impl", %"struct.std::_Vector_base<std::pair<std::pair<int, int>, std::pair<int, int> >, std::allocator<std::pair<std::pair<int, int>, std::pair<int, int> > > >::_Vector_impl"* %5, i32 0, i32 2
  %7 = load %"struct.std::pair.0"*, %"struct.std::pair.0"** %6, align 8
  %8 = getelementptr inbounds %"struct.std::_Vector_base", %"struct.std::_Vector_base"* %0, i32 0, i32 0
  %9 = getelementptr inbounds %"struct.std::_Vector_base<std::pair<std::pair<int, int>, std::pair<int, int> >, std::allocator<std::pair<std::pair<int, int>, std::pair<int, int> > > >::_Vector_impl", %"struct.std::_Vector_base<std::pair<std::pair<int, int>, std::pair<int, int> >, std::allocator<std::pair<std::pair<int, int>, std::pair<int, int> > > >::_Vector_impl"* %8, i32 0, i32 0
  %10 = load %"struct.std::pair.0"*, %"struct.std::pair.0"** %9, align 8
  %11 = ptrtoint %"struct.std::pair.0"* %7 to i64
  %12 = ptrtoint %"struct.std::pair.0"* %10 to i64
  %13 = sub i64 %11, %12
  %14 = sdiv exact i64 %13, 16
  invoke void @_ZNSt12_Vector_baseISt4pairIS0_IiiES1_ESaIS2_EE13_M_deallocateEPS2_m(%"struct.std::_Vector_base"* %0, %"struct.std::pair.0"* %4, i64 %14)
          to label %15 unwind label %17

15:                                               ; preds = %1
  %16 = getelementptr inbounds %"struct.std::_Vector_base", %"struct.std::_Vector_base"* %0, i32 0, i32 0
  call void @_ZNSt12_Vector_baseISt4pairIS0_IiiES1_ESaIS2_EE12_Vector_implD2Ev(%"struct.std::_Vector_base<std::pair<std::pair<int, int>, std::pair<int, int> >, std::allocator<std::pair<std::pair<int, int>, std::pair<int, int> > > >::_Vector_impl"* %16) #3
  ret void

17:                                               ; preds = %1
  %18 = landingpad { i8*, i32 }
          catch i8* null
  %19 = extractvalue { i8*, i32 } %18, 0
  %20 = extractvalue { i8*, i32 } %18, 1
  %21 = getelementptr inbounds %"struct.std::_Vector_base", %"struct.std::_Vector_base"* %0, i32 0, i32 0
  call void @_ZNSt12_Vector_baseISt4pairIS0_IiiES1_ESaIS2_EE12_Vector_implD2Ev(%"struct.std::_Vector_base<std::pair<std::pair<int, int>, std::pair<int, int> >, std::allocator<std::pair<std::pair<int, int>, std::pair<int, int> > > >::_Vector_impl"* %21) #3
  br label %22

22:                                               ; preds = %17
  call void @__clang_call_terminate(i8* %19) #14
  unreachable
}

; Function Attrs: noinline uwtable
define linkonce_odr void @_ZSt8_DestroyIPSt4pairIS0_IiiES1_EEvT_S4_(%"struct.std::pair.0"* %0, %"struct.std::pair.0"* %1) #0 comdat {
  call void @_ZNSt12_Destroy_auxILb1EE9__destroyIPSt4pairIS2_IiiES3_EEEvT_S6_(%"struct.std::pair.0"* %0, %"struct.std::pair.0"* %1)
  ret void
}

; Function Attrs: noinline nounwind uwtable
define linkonce_odr void @_ZNSt12_Destroy_auxILb1EE9__destroyIPSt4pairIS2_IiiES3_EEEvT_S6_(%"struct.std::pair.0"* %0, %"struct.std::pair.0"* %1) #4 comdat align 2 {
  ret void
}

; Function Attrs: noinline uwtable
define linkonce_odr void @_ZNSt12_Vector_baseISt4pairIS0_IiiES1_ESaIS2_EE13_M_deallocateEPS2_m(%"struct.std::_Vector_base"* %0, %"struct.std::pair.0"* %1, i64 %2) #0 comdat align 2 {
  %4 = icmp ne %"struct.std::pair.0"* %1, null
  br i1 %4, label %5, label %8

5:                                                ; preds = %3
  %6 = getelementptr inbounds %"struct.std::_Vector_base", %"struct.std::_Vector_base"* %0, i32 0, i32 0
  %7 = bitcast %"struct.std::_Vector_base<std::pair<std::pair<int, int>, std::pair<int, int> >, std::allocator<std::pair<std::pair<int, int>, std::pair<int, int> > > >::_Vector_impl"* %6 to %"class.std::allocator"*
  call void @_ZNSt16allocator_traitsISaISt4pairIS0_IiiES1_EEE10deallocateERS3_PS2_m(%"class.std::allocator"* dereferenceable(1) %7, %"struct.std::pair.0"* %1, i64 %2)
  br label %8

8:                                                ; preds = %5, %3
  ret void
}

; Function Attrs: noinline nounwind uwtable
define linkonce_odr void @_ZNSt12_Vector_baseISt4pairIS0_IiiES1_ESaIS2_EE12_Vector_implD2Ev(%"struct.std::_Vector_base<std::pair<std::pair<int, int>, std::pair<int, int> >, std::allocator<std::pair<std::pair<int, int>, std::pair<int, int> > > >::_Vector_impl"* %0) unnamed_addr #4 comdat align 2 {
  %2 = bitcast %"struct.std::_Vector_base<std::pair<std::pair<int, int>, std::pair<int, int> >, std::allocator<std::pair<std::pair<int, int>, std::pair<int, int> > > >::_Vector_impl"* %0 to %"class.std::allocator"*
  call void @_ZNSaISt4pairIS_IiiES0_EED2Ev(%"class.std::allocator"* %2) #3
  ret void
}

; Function Attrs: noinline uwtable
define linkonce_odr void @_ZNSt16allocator_traitsISaISt4pairIS0_IiiES1_EEE10deallocateERS3_PS2_m(%"class.std::allocator"* dereferenceable(1) %0, %"struct.std::pair.0"* %1, i64 %2) #0 comdat align 2 {
  %4 = bitcast %"class.std::allocator"* %0 to %"class.__gnu_cxx::new_allocator"*
  call void @_ZN9__gnu_cxx13new_allocatorISt4pairIS1_IiiES2_EE10deallocateEPS3_m(%"class.__gnu_cxx::new_allocator"* %4, %"struct.std::pair.0"* %1, i64 %2)
  ret void
}

; Function Attrs: noinline nounwind uwtable
define linkonce_odr void @_ZN9__gnu_cxx13new_allocatorISt4pairIS1_IiiES2_EE10deallocateEPS3_m(%"class.__gnu_cxx::new_allocator"* %0, %"struct.std::pair.0"* %1, i64 %2) #4 comdat align 2 {
  %4 = bitcast %"struct.std::pair.0"* %1 to i8*
  call void @_ZdlPv(i8* %4) #3
  ret void
}

; Function Attrs: noinline nounwind uwtable
define linkonce_odr void @_ZN9__gnu_cxx13new_allocatorISt4pairIS1_IiiES2_EED2Ev(%"class.__gnu_cxx::new_allocator"* %0) unnamed_addr #4 comdat align 2 {
  ret void
}

; Function Attrs: noinline nounwind uwtable
define linkonce_odr void @_ZNSt6vectorISt4pairIS0_IiiES1_ESaIS2_EE15_M_erase_at_endEPS2_(%"class.std::vector"* %0, %"struct.std::pair.0"* %1) #4 comdat align 2 personality i8* bitcast (i32 (...)* @__gxx_personality_v0 to i8*) {
  %3 = bitcast %"class.std::vector"* %0 to %"struct.std::_Vector_base"*
  %4 = getelementptr inbounds %"struct.std::_Vector_base", %"struct.std::_Vector_base"* %3, i32 0, i32 0
  %5 = getelementptr inbounds %"struct.std::_Vector_base<std::pair<std::pair<int, int>, std::pair<int, int> >, std::allocator<std::pair<std::pair<int, int>, std::pair<int, int> > > >::_Vector_impl", %"struct.std::_Vector_base<std::pair<std::pair<int, int>, std::pair<int, int> >, std::allocator<std::pair<std::pair<int, int>, std::pair<int, int> > > >::_Vector_impl"* %4, i32 0, i32 1
  %6 = load %"struct.std::pair.0"*, %"struct.std::pair.0"** %5, align 8
  %7 = ptrtoint %"struct.std::pair.0"* %6 to i64
  %8 = ptrtoint %"struct.std::pair.0"* %1 to i64
  %9 = sub i64 %7, %8
  %10 = sdiv exact i64 %9, 16
  %11 = icmp ne i64 %10, 0
  br i1 %11, label %12, label %23

12:                                               ; preds = %2
  %13 = bitcast %"class.std::vector"* %0 to %"struct.std::_Vector_base"*
  %14 = getelementptr inbounds %"struct.std::_Vector_base", %"struct.std::_Vector_base"* %13, i32 0, i32 0
  %15 = getelementptr inbounds %"struct.std::_Vector_base<std::pair<std::pair<int, int>, std::pair<int, int> >, std::allocator<std::pair<std::pair<int, int>, std::pair<int, int> > > >::_Vector_impl", %"struct.std::_Vector_base<std::pair<std::pair<int, int>, std::pair<int, int> >, std::allocator<std::pair<std::pair<int, int>, std::pair<int, int> > > >::_Vector_impl"* %14, i32 0, i32 1
  %16 = load %"struct.std::pair.0"*, %"struct.std::pair.0"** %15, align 8
  %17 = bitcast %"class.std::vector"* %0 to %"struct.std::_Vector_base"*
  %18 = call dereferenceable(1) %"class.std::allocator"* @_ZNSt12_Vector_baseISt4pairIS0_IiiES1_ESaIS2_EE19_M_get_Tp_allocatorEv(%"struct.std::_Vector_base"* %17) #3
  invoke void @_ZSt8_DestroyIPSt4pairIS0_IiiES1_ES2_EvT_S4_RSaIT0_E(%"struct.std::pair.0"* %1, %"struct.std::pair.0"* %16, %"class.std::allocator"* dereferenceable(1) %18)
          to label %19 unwind label %24

19:                                               ; preds = %12
  %20 = bitcast %"class.std::vector"* %0 to %"struct.std::_Vector_base"*
  %21 = getelementptr inbounds %"struct.std::_Vector_base", %"struct.std::_Vector_base"* %20, i32 0, i32 0
  %22 = getelementptr inbounds %"struct.std::_Vector_base<std::pair<std::pair<int, int>, std::pair<int, int> >, std::allocator<std::pair<std::pair<int, int>, std::pair<int, int> > > >::_Vector_impl", %"struct.std::_Vector_base<std::pair<std::pair<int, int>, std::pair<int, int> >, std::allocator<std::pair<std::pair<int, int>, std::pair<int, int> > > >::_Vector_impl"* %21, i32 0, i32 1
  store %"struct.std::pair.0"* %1, %"struct.std::pair.0"** %22, align 8
  br label %23

23:                                               ; preds = %19, %2
  ret void

24:                                               ; preds = %12
  %25 = landingpad { i8*, i32 }
          catch i8* null
  %26 = extractvalue { i8*, i32 } %25, 0
  call void @__clang_call_terminate(i8* %26) #14
  unreachable
}

; Function Attrs: noinline uwtable
define linkonce_odr void @_ZNSt6vectorISt4pairIS0_IiiES1_ESaIS2_EE12emplace_backIJS2_EEEvDpOT_(%"class.std::vector"* %0, %"struct.std::pair.0"* dereferenceable(16) %1) #0 comdat align 2 {
  %3 = alloca %"class.__gnu_cxx::__normal_iterator", align 8
  %4 = bitcast %"class.std::vector"* %0 to %"struct.std::_Vector_base"*
  %5 = getelementptr inbounds %"struct.std::_Vector_base", %"struct.std::_Vector_base"* %4, i32 0, i32 0
  %6 = getelementptr inbounds %"struct.std::_Vector_base<std::pair<std::pair<int, int>, std::pair<int, int> >, std::allocator<std::pair<std::pair<int, int>, std::pair<int, int> > > >::_Vector_impl", %"struct.std::_Vector_base<std::pair<std::pair<int, int>, std::pair<int, int> >, std::allocator<std::pair<std::pair<int, int>, std::pair<int, int> > > >::_Vector_impl"* %5, i32 0, i32 1
  %7 = load %"struct.std::pair.0"*, %"struct.std::pair.0"** %6, align 8
  %8 = bitcast %"class.std::vector"* %0 to %"struct.std::_Vector_base"*
  %9 = getelementptr inbounds %"struct.std::_Vector_base", %"struct.std::_Vector_base"* %8, i32 0, i32 0
  %10 = getelementptr inbounds %"struct.std::_Vector_base<std::pair<std::pair<int, int>, std::pair<int, int> >, std::allocator<std::pair<std::pair<int, int>, std::pair<int, int> > > >::_Vector_impl", %"struct.std::_Vector_base<std::pair<std::pair<int, int>, std::pair<int, int> >, std::allocator<std::pair<std::pair<int, int>, std::pair<int, int> > > >::_Vector_impl"* %9, i32 0, i32 2
  %11 = load %"struct.std::pair.0"*, %"struct.std::pair.0"** %10, align 8
  %12 = icmp ne %"struct.std::pair.0"* %7, %11
  br i1 %12, label %13, label %27

13:                                               ; preds = %2
  %14 = bitcast %"class.std::vector"* %0 to %"struct.std::_Vector_base"*
  %15 = getelementptr inbounds %"struct.std::_Vector_base", %"struct.std::_Vector_base"* %14, i32 0, i32 0
  %16 = bitcast %"struct.std::_Vector_base<std::pair<std::pair<int, int>, std::pair<int, int> >, std::allocator<std::pair<std::pair<int, int>, std::pair<int, int> > > >::_Vector_impl"* %15 to %"class.std::allocator"*
  %17 = bitcast %"class.std::vector"* %0 to %"struct.std::_Vector_base"*
  %18 = getelementptr inbounds %"struct.std::_Vector_base", %"struct.std::_Vector_base"* %17, i32 0, i32 0
  %19 = getelementptr inbounds %"struct.std::_Vector_base<std::pair<std::pair<int, int>, std::pair<int, int> >, std::allocator<std::pair<std::pair<int, int>, std::pair<int, int> > > >::_Vector_impl", %"struct.std::_Vector_base<std::pair<std::pair<int, int>, std::pair<int, int> >, std::allocator<std::pair<std::pair<int, int>, std::pair<int, int> > > >::_Vector_impl"* %18, i32 0, i32 1
  %20 = load %"struct.std::pair.0"*, %"struct.std::pair.0"** %19, align 8
  %21 = call dereferenceable(16) %"struct.std::pair.0"* @_ZSt7forwardISt4pairIS0_IiiES1_EEOT_RNSt16remove_referenceIS3_E4typeE(%"struct.std::pair.0"* dereferenceable(16) %1) #3
  call void @_ZNSt16allocator_traitsISaISt4pairIS0_IiiES1_EEE9constructIS2_JS2_EEEvRS3_PT_DpOT0_(%"class.std::allocator"* dereferenceable(1) %16, %"struct.std::pair.0"* %20, %"struct.std::pair.0"* dereferenceable(16) %21)
  %22 = bitcast %"class.std::vector"* %0 to %"struct.std::_Vector_base"*
  %23 = getelementptr inbounds %"struct.std::_Vector_base", %"struct.std::_Vector_base"* %22, i32 0, i32 0
  %24 = getelementptr inbounds %"struct.std::_Vector_base<std::pair<std::pair<int, int>, std::pair<int, int> >, std::allocator<std::pair<std::pair<int, int>, std::pair<int, int> > > >::_Vector_impl", %"struct.std::_Vector_base<std::pair<std::pair<int, int>, std::pair<int, int> >, std::allocator<std::pair<std::pair<int, int>, std::pair<int, int> > > >::_Vector_impl"* %23, i32 0, i32 1
  %25 = load %"struct.std::pair.0"*, %"struct.std::pair.0"** %24, align 8
  %26 = getelementptr inbounds %"struct.std::pair.0", %"struct.std::pair.0"* %25, i32 1
  store %"struct.std::pair.0"* %26, %"struct.std::pair.0"** %24, align 8
  br label %33

27:                                               ; preds = %2
  %28 = call %"struct.std::pair.0"* @_ZNSt6vectorISt4pairIS0_IiiES1_ESaIS2_EE3endEv(%"class.std::vector"* %0) #3
  %29 = getelementptr inbounds %"class.__gnu_cxx::__normal_iterator", %"class.__gnu_cxx::__normal_iterator"* %3, i32 0, i32 0
  store %"struct.std::pair.0"* %28, %"struct.std::pair.0"** %29, align 8
  %30 = call dereferenceable(16) %"struct.std::pair.0"* @_ZSt7forwardISt4pairIS0_IiiES1_EEOT_RNSt16remove_referenceIS3_E4typeE(%"struct.std::pair.0"* dereferenceable(16) %1) #3
  %31 = getelementptr inbounds %"class.__gnu_cxx::__normal_iterator", %"class.__gnu_cxx::__normal_iterator"* %3, i32 0, i32 0
  %32 = load %"struct.std::pair.0"*, %"struct.std::pair.0"** %31, align 8
  call void @_ZNSt6vectorISt4pairIS0_IiiES1_ESaIS2_EE17_M_realloc_insertIJS2_EEEvN9__gnu_cxx17__normal_iteratorIPS2_S4_EEDpOT_(%"class.std::vector"* %0, %"struct.std::pair.0"* %32, %"struct.std::pair.0"* dereferenceable(16) %30)
  br label %33

33:                                               ; preds = %27, %13
  ret void
}

; Function Attrs: noinline nounwind uwtable
define linkonce_odr dereferenceable(16) %"struct.std::pair.0"* @_ZSt4moveIRSt4pairIS0_IiiES1_EEONSt16remove_referenceIT_E4typeEOS5_(%"struct.std::pair.0"* dereferenceable(16) %0) #4 comdat {
  ret %"struct.std::pair.0"* %0
}

; Function Attrs: noinline uwtable
define linkonce_odr void @_ZNSt16allocator_traitsISaISt4pairIS0_IiiES1_EEE9constructIS2_JS2_EEEvRS3_PT_DpOT0_(%"class.std::allocator"* dereferenceable(1) %0, %"struct.std::pair.0"* %1, %"struct.std::pair.0"* dereferenceable(16) %2) #0 comdat align 2 {
  %4 = bitcast %"class.std::allocator"* %0 to %"class.__gnu_cxx::new_allocator"*
  %5 = call dereferenceable(16) %"struct.std::pair.0"* @_ZSt7forwardISt4pairIS0_IiiES1_EEOT_RNSt16remove_referenceIS3_E4typeE(%"struct.std::pair.0"* dereferenceable(16) %2) #3
  call void @_ZN9__gnu_cxx13new_allocatorISt4pairIS1_IiiES2_EE9constructIS3_JS3_EEEvPT_DpOT0_(%"class.__gnu_cxx::new_allocator"* %4, %"struct.std::pair.0"* %1, %"struct.std::pair.0"* dereferenceable(16) %5)
  ret void
}

; Function Attrs: noinline nounwind uwtable
define linkonce_odr dereferenceable(16) %"struct.std::pair.0"* @_ZSt7forwardISt4pairIS0_IiiES1_EEOT_RNSt16remove_referenceIS3_E4typeE(%"struct.std::pair.0"* dereferenceable(16) %0) #4 comdat {
  ret %"struct.std::pair.0"* %0
}

; Function Attrs: noinline uwtable
define linkonce_odr void @_ZNSt6vectorISt4pairIS0_IiiES1_ESaIS2_EE17_M_realloc_insertIJS2_EEEvN9__gnu_cxx17__normal_iteratorIPS2_S4_EEDpOT_(%"class.std::vector"* %0, %"struct.std::pair.0"* %1, %"struct.std::pair.0"* dereferenceable(16) %2) #0 comdat align 2 personality i8* bitcast (i32 (...)* @__gxx_personality_v0 to i8*) {
  %4 = alloca %"class.__gnu_cxx::__normal_iterator", align 8
  %5 = alloca %"class.__gnu_cxx::__normal_iterator", align 8
  %6 = getelementptr inbounds %"class.__gnu_cxx::__normal_iterator", %"class.__gnu_cxx::__normal_iterator"* %4, i32 0, i32 0
  store %"struct.std::pair.0"* %1, %"struct.std::pair.0"** %6, align 8
  %7 = call i64 @_ZNKSt6vectorISt4pairIS0_IiiES1_ESaIS2_EE12_M_check_lenEmPKc(%"class.std::vector"* %0, i64 1, i8* getelementptr inbounds ([26 x i8], [26 x i8]* @.str.4, i32 0, i32 0))
  %8 = bitcast %"class.std::vector"* %0 to %"struct.std::_Vector_base"*
  %9 = getelementptr inbounds %"struct.std::_Vector_base", %"struct.std::_Vector_base"* %8, i32 0, i32 0
  %10 = getelementptr inbounds %"struct.std::_Vector_base<std::pair<std::pair<int, int>, std::pair<int, int> >, std::allocator<std::pair<std::pair<int, int>, std::pair<int, int> > > >::_Vector_impl", %"struct.std::_Vector_base<std::pair<std::pair<int, int>, std::pair<int, int> >, std::allocator<std::pair<std::pair<int, int>, std::pair<int, int> > > >::_Vector_impl"* %9, i32 0, i32 0
  %11 = load %"struct.std::pair.0"*, %"struct.std::pair.0"** %10, align 8
  %12 = bitcast %"class.std::vector"* %0 to %"struct.std::_Vector_base"*
  %13 = getelementptr inbounds %"struct.std::_Vector_base", %"struct.std::_Vector_base"* %12, i32 0, i32 0
  %14 = getelementptr inbounds %"struct.std::_Vector_base<std::pair<std::pair<int, int>, std::pair<int, int> >, std::allocator<std::pair<std::pair<int, int>, std::pair<int, int> > > >::_Vector_impl", %"struct.std::_Vector_base<std::pair<std::pair<int, int>, std::pair<int, int> >, std::allocator<std::pair<std::pair<int, int>, std::pair<int, int> > > >::_Vector_impl"* %13, i32 0, i32 1
  %15 = load %"struct.std::pair.0"*, %"struct.std::pair.0"** %14, align 8
  %16 = call %"struct.std::pair.0"* @_ZNSt6vectorISt4pairIS0_IiiES1_ESaIS2_EE5beginEv(%"class.std::vector"* %0) #3
  %17 = getelementptr inbounds %"class.__gnu_cxx::__normal_iterator", %"class.__gnu_cxx::__normal_iterator"* %5, i32 0, i32 0
  store %"struct.std::pair.0"* %16, %"struct.std::pair.0"** %17, align 8
  %18 = call i64 @_ZN9__gnu_cxxmiIPSt4pairIS1_IiiES2_ESt6vectorIS3_SaIS3_EEEENS_17__normal_iteratorIT_T0_E15difference_typeERKSB_SE_(%"class.__gnu_cxx::__normal_iterator"* dereferenceable(8) %4, %"class.__gnu_cxx::__normal_iterator"* dereferenceable(8) %5) #3
  %19 = bitcast %"class.std::vector"* %0 to %"struct.std::_Vector_base"*
  %20 = call %"struct.std::pair.0"* @_ZNSt12_Vector_baseISt4pairIS0_IiiES1_ESaIS2_EE11_M_allocateEm(%"struct.std::_Vector_base"* %19, i64 %7)
  %21 = bitcast %"class.std::vector"* %0 to %"struct.std::_Vector_base"*
  %22 = getelementptr inbounds %"struct.std::_Vector_base", %"struct.std::_Vector_base"* %21, i32 0, i32 0
  %23 = bitcast %"struct.std::_Vector_base<std::pair<std::pair<int, int>, std::pair<int, int> >, std::allocator<std::pair<std::pair<int, int>, std::pair<int, int> > > >::_Vector_impl"* %22 to %"class.std::allocator"*
  %24 = getelementptr inbounds %"struct.std::pair.0", %"struct.std::pair.0"* %20, i64 %18
  %25 = call dereferenceable(16) %"struct.std::pair.0"* @_ZSt7forwardISt4pairIS0_IiiES1_EEOT_RNSt16remove_referenceIS3_E4typeE(%"struct.std::pair.0"* dereferenceable(16) %2) #3
  invoke void @_ZNSt16allocator_traitsISaISt4pairIS0_IiiES1_EEE9constructIS2_JS2_EEEvRS3_PT_DpOT0_(%"class.std::allocator"* dereferenceable(1) %23, %"struct.std::pair.0"* %24, %"struct.std::pair.0"* dereferenceable(16) %25)
          to label %26 unwind label %40

26:                                               ; preds = %3
  %27 = call dereferenceable(8) %"struct.std::pair.0"** @_ZNK9__gnu_cxx17__normal_iteratorIPSt4pairIS1_IiiES2_ESt6vectorIS3_SaIS3_EEE4baseEv(%"class.__gnu_cxx::__normal_iterator"* %4) #3
  %28 = load %"struct.std::pair.0"*, %"struct.std::pair.0"** %27, align 8
  %29 = bitcast %"class.std::vector"* %0 to %"struct.std::_Vector_base"*
  %30 = call dereferenceable(1) %"class.std::allocator"* @_ZNSt12_Vector_baseISt4pairIS0_IiiES1_ESaIS2_EE19_M_get_Tp_allocatorEv(%"struct.std::_Vector_base"* %29) #3
  %31 = invoke %"struct.std::pair.0"* @_ZSt34__uninitialized_move_if_noexcept_aIPSt4pairIS0_IiiES1_ES3_SaIS2_EET0_T_S6_S5_RT1_(%"struct.std::pair.0"* %11, %"struct.std::pair.0"* %28, %"struct.std::pair.0"* %20, %"class.std::allocator"* dereferenceable(1) %30)
          to label %32 unwind label %40

32:                                               ; preds = %26
  %33 = getelementptr inbounds %"struct.std::pair.0", %"struct.std::pair.0"* %31, i32 1
  %34 = call dereferenceable(8) %"struct.std::pair.0"** @_ZNK9__gnu_cxx17__normal_iteratorIPSt4pairIS1_IiiES2_ESt6vectorIS3_SaIS3_EEE4baseEv(%"class.__gnu_cxx::__normal_iterator"* %4) #3
  %35 = load %"struct.std::pair.0"*, %"struct.std::pair.0"** %34, align 8
  %36 = bitcast %"class.std::vector"* %0 to %"struct.std::_Vector_base"*
  %37 = call dereferenceable(1) %"class.std::allocator"* @_ZNSt12_Vector_baseISt4pairIS0_IiiES1_ESaIS2_EE19_M_get_Tp_allocatorEv(%"struct.std::_Vector_base"* %36) #3
  %38 = invoke %"struct.std::pair.0"* @_ZSt34__uninitialized_move_if_noexcept_aIPSt4pairIS0_IiiES1_ES3_SaIS2_EET0_T_S6_S5_RT1_(%"struct.std::pair.0"* %35, %"struct.std::pair.0"* %15, %"struct.std::pair.0"* %33, %"class.std::allocator"* dereferenceable(1) %37)
          to label %39 unwind label %40

39:                                               ; preds = %32
  br label %65

40:                                               ; preds = %32, %26, %3
  %.0 = phi %"struct.std::pair.0"* [ %33, %32 ], [ null, %26 ], [ %20, %3 ]
  %41 = landingpad { i8*, i32 }
          catch i8* null
  %42 = extractvalue { i8*, i32 } %41, 0
  %43 = extractvalue { i8*, i32 } %41, 1
  br label %44

44:                                               ; preds = %40
  %45 = call i8* @__cxa_begin_catch(i8* %42) #3
  %46 = icmp ne %"struct.std::pair.0"* %.0, null
  br i1 %46, label %57, label %47

47:                                               ; preds = %44
  %48 = bitcast %"class.std::vector"* %0 to %"struct.std::_Vector_base"*
  %49 = getelementptr inbounds %"struct.std::_Vector_base", %"struct.std::_Vector_base"* %48, i32 0, i32 0
  %50 = bitcast %"struct.std::_Vector_base<std::pair<std::pair<int, int>, std::pair<int, int> >, std::allocator<std::pair<std::pair<int, int>, std::pair<int, int> > > >::_Vector_impl"* %49 to %"class.std::allocator"*
  %51 = getelementptr inbounds %"struct.std::pair.0", %"struct.std::pair.0"* %20, i64 %18
  invoke void @_ZNSt16allocator_traitsISaISt4pairIS0_IiiES1_EEE7destroyIS2_EEvRS3_PT_(%"class.std::allocator"* dereferenceable(1) %50, %"struct.std::pair.0"* %51)
          to label %52 unwind label %53

52:                                               ; preds = %47
  br label %61

53:                                               ; preds = %63, %61, %57, %47
  %54 = landingpad { i8*, i32 }
          cleanup
  %55 = extractvalue { i8*, i32 } %54, 0
  %56 = extractvalue { i8*, i32 } %54, 1
  invoke void @__cxa_end_catch()
          to label %64 unwind label %90

57:                                               ; preds = %44
  %58 = bitcast %"class.std::vector"* %0 to %"struct.std::_Vector_base"*
  %59 = call dereferenceable(1) %"class.std::allocator"* @_ZNSt12_Vector_baseISt4pairIS0_IiiES1_ESaIS2_EE19_M_get_Tp_allocatorEv(%"struct.std::_Vector_base"* %58) #3
  invoke void @_ZSt8_DestroyIPSt4pairIS0_IiiES1_ES2_EvT_S4_RSaIT0_E(%"struct.std::pair.0"* %20, %"struct.std::pair.0"* %.0, %"class.std::allocator"* dereferenceable(1) %59)
          to label %60 unwind label %53

60:                                               ; preds = %57
  br label %61

61:                                               ; preds = %60, %52
  %62 = bitcast %"class.std::vector"* %0 to %"struct.std::_Vector_base"*
  invoke void @_ZNSt12_Vector_baseISt4pairIS0_IiiES1_ESaIS2_EE13_M_deallocateEPS2_m(%"struct.std::_Vector_base"* %62, %"struct.std::pair.0"* %20, i64 %7)
          to label %63 unwind label %53

63:                                               ; preds = %61
  invoke void @__cxa_rethrow() #16
          to label %93 unwind label %53

64:                                               ; preds = %53
  br label %87

65:                                               ; preds = %39
  %66 = bitcast %"class.std::vector"* %0 to %"struct.std::_Vector_base"*
  %67 = call dereferenceable(1) %"class.std::allocator"* @_ZNSt12_Vector_baseISt4pairIS0_IiiES1_ESaIS2_EE19_M_get_Tp_allocatorEv(%"struct.std::_Vector_base"* %66) #3
  call void @_ZSt8_DestroyIPSt4pairIS0_IiiES1_ES2_EvT_S4_RSaIT0_E(%"struct.std::pair.0"* %11, %"struct.std::pair.0"* %15, %"class.std::allocator"* dereferenceable(1) %67)
  %68 = bitcast %"class.std::vector"* %0 to %"struct.std::_Vector_base"*
  %69 = bitcast %"class.std::vector"* %0 to %"struct.std::_Vector_base"*
  %70 = getelementptr inbounds %"struct.std::_Vector_base", %"struct.std::_Vector_base"* %69, i32 0, i32 0
  %71 = getelementptr inbounds %"struct.std::_Vector_base<std::pair<std::pair<int, int>, std::pair<int, int> >, std::allocator<std::pair<std::pair<int, int>, std::pair<int, int> > > >::_Vector_impl", %"struct.std::_Vector_base<std::pair<std::pair<int, int>, std::pair<int, int> >, std::allocator<std::pair<std::pair<int, int>, std::pair<int, int> > > >::_Vector_impl"* %70, i32 0, i32 2
  %72 = load %"struct.std::pair.0"*, %"struct.std::pair.0"** %71, align 8
  %73 = ptrtoint %"struct.std::pair.0"* %72 to i64
  %74 = ptrtoint %"struct.std::pair.0"* %11 to i64
  %75 = sub i64 %73, %74
  %76 = sdiv exact i64 %75, 16
  call void @_ZNSt12_Vector_baseISt4pairIS0_IiiES1_ESaIS2_EE13_M_deallocateEPS2_m(%"struct.std::_Vector_base"* %68, %"struct.std::pair.0"* %11, i64 %76)
  %77 = bitcast %"class.std::vector"* %0 to %"struct.std::_Vector_base"*
  %78 = getelementptr inbounds %"struct.std::_Vector_base", %"struct.std::_Vector_base"* %77, i32 0, i32 0
  %79 = getelementptr inbounds %"struct.std::_Vector_base<std::pair<std::pair<int, int>, std::pair<int, int> >, std::allocator<std::pair<std::pair<int, int>, std::pair<int, int> > > >::_Vector_impl", %"struct.std::_Vector_base<std::pair<std::pair<int, int>, std::pair<int, int> >, std::allocator<std::pair<std::pair<int, int>, std::pair<int, int> > > >::_Vector_impl"* %78, i32 0, i32 0
  store %"struct.std::pair.0"* %20, %"struct.std::pair.0"** %79, align 8
  %80 = bitcast %"class.std::vector"* %0 to %"struct.std::_Vector_base"*
  %81 = getelementptr inbounds %"struct.std::_Vector_base", %"struct.std::_Vector_base"* %80, i32 0, i32 0
  %82 = getelementptr inbounds %"struct.std::_Vector_base<std::pair<std::pair<int, int>, std::pair<int, int> >, std::allocator<std::pair<std::pair<int, int>, std::pair<int, int> > > >::_Vector_impl", %"struct.std::_Vector_base<std::pair<std::pair<int, int>, std::pair<int, int> >, std::allocator<std::pair<std::pair<int, int>, std::pair<int, int> > > >::_Vector_impl"* %81, i32 0, i32 1
  store %"struct.std::pair.0"* %38, %"struct.std::pair.0"** %82, align 8
  %83 = getelementptr inbounds %"struct.std::pair.0", %"struct.std::pair.0"* %20, i64 %7
  %84 = bitcast %"class.std::vector"* %0 to %"struct.std::_Vector_base"*
  %85 = getelementptr inbounds %"struct.std::_Vector_base", %"struct.std::_Vector_base"* %84, i32 0, i32 0
  %86 = getelementptr inbounds %"struct.std::_Vector_base<std::pair<std::pair<int, int>, std::pair<int, int> >, std::allocator<std::pair<std::pair<int, int>, std::pair<int, int> > > >::_Vector_impl", %"struct.std::_Vector_base<std::pair<std::pair<int, int>, std::pair<int, int> >, std::allocator<std::pair<std::pair<int, int>, std::pair<int, int> > > >::_Vector_impl"* %85, i32 0, i32 2
  store %"struct.std::pair.0"* %83, %"struct.std::pair.0"** %86, align 8
  ret void

87:                                               ; preds = %64
  %88 = insertvalue { i8*, i32 } undef, i8* %55, 0
  %89 = insertvalue { i8*, i32 } %88, i32 %56, 1
  resume { i8*, i32 } %89

90:                                               ; preds = %53
  %91 = landingpad { i8*, i32 }
          catch i8* null
  %92 = extractvalue { i8*, i32 } %91, 0
  call void @__clang_call_terminate(i8* %92) #14
  unreachable

93:                                               ; preds = %63
  unreachable
}

; Function Attrs: noinline nounwind uwtable
define linkonce_odr void @_ZN9__gnu_cxx13new_allocatorISt4pairIS1_IiiES2_EE9constructIS3_JS3_EEEvPT_DpOT0_(%"class.__gnu_cxx::new_allocator"* %0, %"struct.std::pair.0"* %1, %"struct.std::pair.0"* dereferenceable(16) %2) #4 comdat align 2 {
  %4 = bitcast %"struct.std::pair.0"* %1 to i8*
  %5 = bitcast i8* %4 to %"struct.std::pair.0"*
  %6 = call dereferenceable(16) %"struct.std::pair.0"* @_ZSt7forwardISt4pairIS0_IiiES1_EEOT_RNSt16remove_referenceIS3_E4typeE(%"struct.std::pair.0"* dereferenceable(16) %2) #3
  %7 = bitcast %"struct.std::pair.0"* %5 to i8*
  %8 = bitcast %"struct.std::pair.0"* %6 to i8*
  call void @llvm.memcpy.p0i8.p0i8.i64(i8* align 4 %7, i8* align 4 %8, i64 16, i1 false)
  ret void
}

; Function Attrs: noinline uwtable
define linkonce_odr i64 @_ZNKSt6vectorISt4pairIS0_IiiES1_ESaIS2_EE12_M_check_lenEmPKc(%"class.std::vector"* %0, i64 %1, i8* %2) #0 comdat align 2 {
  %4 = alloca i64, align 8
  %5 = alloca i64, align 8
  store i64 %1, i64* %4, align 8
  %6 = call i64 @_ZNKSt6vectorISt4pairIS0_IiiES1_ESaIS2_EE8max_sizeEv(%"class.std::vector"* %0) #3
  %7 = call i64 @_ZNKSt6vectorISt4pairIS0_IiiES1_ESaIS2_EE4sizeEv(%"class.std::vector"* %0) #3
  %8 = sub i64 %6, %7
  %9 = load i64, i64* %4, align 8
  %10 = icmp ult i64 %8, %9
  br i1 %10, label %11, label %12

11:                                               ; preds = %3
  call void @_ZSt20__throw_length_errorPKc(i8* %2) #16
  unreachable

12:                                               ; preds = %3
  %13 = call i64 @_ZNKSt6vectorISt4pairIS0_IiiES1_ESaIS2_EE4sizeEv(%"class.std::vector"* %0) #3
  %14 = call i64 @_ZNKSt6vectorISt4pairIS0_IiiES1_ESaIS2_EE4sizeEv(%"class.std::vector"* %0) #3
  store i64 %14, i64* %5, align 8
  %15 = call dereferenceable(8) i64* @_ZSt3maxImERKT_S2_S2_(i64* dereferenceable(8) %5, i64* dereferenceable(8) %4)
  %16 = load i64, i64* %15, align 8
  %17 = add i64 %13, %16
  %18 = call i64 @_ZNKSt6vectorISt4pairIS0_IiiES1_ESaIS2_EE4sizeEv(%"class.std::vector"* %0) #3
  %19 = icmp ult i64 %17, %18
  br i1 %19, label %23, label %20

20:                                               ; preds = %12
  %21 = call i64 @_ZNKSt6vectorISt4pairIS0_IiiES1_ESaIS2_EE8max_sizeEv(%"class.std::vector"* %0) #3
  %22 = icmp ugt i64 %17, %21
  br i1 %22, label %23, label %25

23:                                               ; preds = %20, %12
  %24 = call i64 @_ZNKSt6vectorISt4pairIS0_IiiES1_ESaIS2_EE8max_sizeEv(%"class.std::vector"* %0) #3
  br label %26

25:                                               ; preds = %20
  br label %26

26:                                               ; preds = %25, %23
  %27 = phi i64 [ %24, %23 ], [ %17, %25 ]
  ret i64 %27
}

; Function Attrs: noinline nounwind uwtable
define linkonce_odr i64 @_ZN9__gnu_cxxmiIPSt4pairIS1_IiiES2_ESt6vectorIS3_SaIS3_EEEENS_17__normal_iteratorIT_T0_E15difference_typeERKSB_SE_(%"class.__gnu_cxx::__normal_iterator"* dereferenceable(8) %0, %"class.__gnu_cxx::__normal_iterator"* dereferenceable(8) %1) #4 comdat {
  %3 = call dereferenceable(8) %"struct.std::pair.0"** @_ZNK9__gnu_cxx17__normal_iteratorIPSt4pairIS1_IiiES2_ESt6vectorIS3_SaIS3_EEE4baseEv(%"class.__gnu_cxx::__normal_iterator"* %0) #3
  %4 = load %"struct.std::pair.0"*, %"struct.std::pair.0"** %3, align 8
  %5 = call dereferenceable(8) %"struct.std::pair.0"** @_ZNK9__gnu_cxx17__normal_iteratorIPSt4pairIS1_IiiES2_ESt6vectorIS3_SaIS3_EEE4baseEv(%"class.__gnu_cxx::__normal_iterator"* %1) #3
  %6 = load %"struct.std::pair.0"*, %"struct.std::pair.0"** %5, align 8
  %7 = ptrtoint %"struct.std::pair.0"* %4 to i64
  %8 = ptrtoint %"struct.std::pair.0"* %6 to i64
  %9 = sub i64 %7, %8
  %10 = sdiv exact i64 %9, 16
  ret i64 %10
}

; Function Attrs: noinline uwtable
define linkonce_odr %"struct.std::pair.0"* @_ZNSt12_Vector_baseISt4pairIS0_IiiES1_ESaIS2_EE11_M_allocateEm(%"struct.std::_Vector_base"* %0, i64 %1) #0 comdat align 2 {
  %3 = icmp ne i64 %1, 0
  br i1 %3, label %4, label %8

4:                                                ; preds = %2
  %5 = getelementptr inbounds %"struct.std::_Vector_base", %"struct.std::_Vector_base"* %0, i32 0, i32 0
  %6 = bitcast %"struct.std::_Vector_base<std::pair<std::pair<int, int>, std::pair<int, int> >, std::allocator<std::pair<std::pair<int, int>, std::pair<int, int> > > >::_Vector_impl"* %5 to %"class.std::allocator"*
