; ModuleID = '/home/pedro/tcc/exDataset/codenet/data/selection/p00975/s907976436.ll'
source_filename = "/home/pedro/tcc/exDataset/codenet/data/selection/p00975/s907976436.cpp"
target datalayout = "e-m:e-i64:64-f80:128-n8:16:32:64-S128"
target triple = "x86_64-pc-linux-gnu"

%"class.std::vector" = type { %"struct.std::_Vector_base" }
%"struct.std::_Vector_base" = type { %"struct.std::_Vector_base<std::array<int, 8>, std::allocator<std::array<int, 8> > >::_Vector_impl" }
%"struct.std::_Vector_base<std::array<int, 8>, std::allocator<std::array<int, 8> > >::_Vector_impl" = type { %"struct.std::array"*, %"struct.std::array"*, %"struct.std::array"* }
%"struct.std::array" = type { [8 x i32] }
%"class.std::vector.0" = type { %"struct.std::_Vector_base.1" }
%"struct.std::_Vector_base.1" = type { %"struct.std::_Vector_base<int, std::allocator<int> >::_Vector_impl" }
%"struct.std::_Vector_base<int, std::allocator<int> >::_Vector_impl" = type { i32*, i32*, i32* }
%"class.std::allocator" = type { i8 }
%"class.std::allocator.2" = type { i8 }
%class.anon = type { i32*, i32* }
%"class.std::vector.5" = type { %"struct.std::_Vector_base.6" }
%"struct.std::_Vector_base.6" = type { %"struct.std::_Vector_base<std::pair<int, int>, std::allocator<std::pair<int, int> > >::_Vector_impl" }
%"struct.std::_Vector_base<std::pair<int, int>, std::allocator<std::pair<int, int> > >::_Vector_impl" = type { %"struct.std::pair"*, %"struct.std::pair"*, %"struct.std::pair"* }
%"struct.std::pair" = type { i32, i32 }
%"class.std::allocator.7" = type { i8 }
%"class.__gnu_cxx::__normal_iterator" = type { i32* }
%class.anon.10 = type { %"class.std::vector.5"* }
%class.anon.11 = type { i8*, i32* }
%"class.__gnu_cxx::new_allocator.8" = type { i8 }
%"class.__gnu_cxx::new_allocator.3" = type { i8 }
%"struct.__gnu_cxx::__ops::_Iter_comp_iter" = type { %class.anon.10 }
%"class.__gnu_cxx::new_allocator" = type { i8 }
%"class.__gnu_cxx::__normal_iterator.12" = type { i32* }
%"class.std::move_iterator" = type { i32* }
%"class.std::__pair_base" = type { i8 }
%"class.__gnu_cxx::__normal_iterator.13" = type { %"struct.std::array"* }
%"struct.__gnu_cxx::__ops::_Iter_comp_val" = type { %class.anon.10 }
%"struct.__gnu_cxx::__ops::_Val_comp_iter" = type { %class.anon.10 }

$_ZNSt6vectorISt5arrayIiLm8EESaIS1_EEC2Ev = comdat any

$_ZNSt6vectorISt5arrayIiLm8EESaIS1_EED2Ev = comdat any

$_ZNSt6vectorIiSaIiEEC2Ev = comdat any

$_ZNSt6vectorIiSaIiEED2Ev = comdat any

$_ZNSt6vectorISt5arrayIiLm8EESaIS1_EEixEm = comdat any

$_ZNSt5arrayIiLm8EE5beginEv = comdat any

$_ZNSt5arrayIiLm8EE3endEv = comdat any

$_ZNSt6vectorIiSaIiEEixEm = comdat any

$_ZNSt6vectorIiSaIiEE6assignEmRKi = comdat any

$_ZNSaISt4pairIiiEEC2Ev = comdat any

$_ZNSt6vectorISt4pairIiiESaIS1_EEC2EmRKS2_ = comdat any

$_ZNSaISt4pairIiiEED2Ev = comdat any

$_ZNSt6vectorISt4pairIiiESaIS1_EEixEm = comdat any

$_ZSt4fillIPiiEvT_S1_RKT0_ = comdat any

$_ZNSt6vectorISt5arrayIiLm8EESaIS1_EE6assignEmRKS1_ = comdat any

$_ZNSt5arrayIiLm8EEixEm = comdat any

$_ZNSaIiEC2Ev = comdat any

$_ZNSt6vectorIiSaIiEEC2EmRKS0_ = comdat any

$_ZNSaIiED2Ev = comdat any

$_ZSt4iotaIN9__gnu_cxx17__normal_iteratorIPiSt6vectorIiSaIiEEEEiEvT_S7_T0_ = comdat any

$_ZNSt6vectorIiSaIiEE5beginEv = comdat any

$_ZNSt6vectorIiSaIiEE3endEv = comdat any

$_ZN9__gnu_cxxneIPiSt6vectorIiSaIiEEEEbRKNS_17__normal_iteratorIT_T0_EESA_ = comdat any

$_ZNK9__gnu_cxx17__normal_iteratorIPiSt6vectorIiSaIiEEEdeEv = comdat any

$_ZN9__gnu_cxx17__normal_iteratorIPiSt6vectorIiSaIiEEEppEv = comdat any

$_ZNSt6vectorISt4pairIiiESaIS1_EED2Ev = comdat any

$_ZNSt12_Vector_baseISt5arrayIiLm8EESaIS1_EEC2Ev = comdat any

$__clang_call_terminate = comdat any

$_ZNSt12_Vector_baseISt5arrayIiLm8EESaIS1_EE12_Vector_implC2Ev = comdat any

$_ZNSaISt5arrayIiLm8EEEC2Ev = comdat any

$_ZN9__gnu_cxx13new_allocatorISt5arrayIiLm8EEEC2Ev = comdat any

$_ZSt8_DestroyIPSt5arrayIiLm8EES1_EvT_S3_RSaIT0_E = comdat any

$_ZNSt12_Vector_baseISt5arrayIiLm8EESaIS1_EE19_M_get_Tp_allocatorEv = comdat any

$_ZNSt12_Vector_baseISt5arrayIiLm8EESaIS1_EED2Ev = comdat any

$_ZSt8_DestroyIPSt5arrayIiLm8EEEvT_S3_ = comdat any

$_ZNSt12_Destroy_auxILb1EE9__destroyIPSt5arrayIiLm8EEEEvT_S5_ = comdat any

$_ZNSt12_Vector_baseISt5arrayIiLm8EESaIS1_EE13_M_deallocateEPS1_m = comdat any

$_ZNSt12_Vector_baseISt5arrayIiLm8EESaIS1_EE12_Vector_implD2Ev = comdat any

$_ZNSt16allocator_traitsISaISt5arrayIiLm8EEEE10deallocateERS2_PS1_m = comdat any

$_ZN9__gnu_cxx13new_allocatorISt5arrayIiLm8EEE10deallocateEPS2_m = comdat any

$_ZNSaISt5arrayIiLm8EEED2Ev = comdat any

$_ZN9__gnu_cxx13new_allocatorISt5arrayIiLm8EEED2Ev = comdat any

$_ZNSt12_Vector_baseIiSaIiEEC2Ev = comdat any

$_ZNSt12_Vector_baseIiSaIiEE12_Vector_implC2Ev = comdat any

$_ZN9__gnu_cxx13new_allocatorIiEC2Ev = comdat any

$_ZSt8_DestroyIPiiEvT_S1_RSaIT0_E = comdat any

$_ZNSt12_Vector_baseIiSaIiEE19_M_get_Tp_allocatorEv = comdat any

$_ZNSt12_Vector_baseIiSaIiEED2Ev = comdat any

$_ZSt8_DestroyIPiEvT_S1_ = comdat any

$_ZNSt12_Destroy_auxILb1EE9__destroyIPiEEvT_S3_ = comdat any

$_ZNSt12_Vector_baseIiSaIiEE13_M_deallocateEPim = comdat any

$_ZNSt12_Vector_baseIiSaIiEE12_Vector_implD2Ev = comdat any

$_ZNSt16allocator_traitsISaIiEE10deallocateERS0_Pim = comdat any

$_ZN9__gnu_cxx13new_allocatorIiE10deallocateEPim = comdat any

$_ZN9__gnu_cxx13new_allocatorIiED2Ev = comdat any

$_ZNSt5arrayIiLm8EE4dataEv = comdat any

$_ZNSt14__array_traitsIiLm8EE6_S_ptrERA8_Ki = comdat any

$_ZNSt6vectorIiSaIiEE9push_backERKi = comdat any

$_ZNKSt6vectorIiSaIiEE5emptyEv = comdat any

$_ZNSt6vectorIiSaIiEE4backEv = comdat any

$_ZNSt6vectorIiSaIiEE8pop_backEv = comdat any

$_ZNSt16allocator_traitsISaIiEE9constructIiJRKiEEEvRS0_PT_DpOT0_ = comdat any

$_ZNSt6vectorIiSaIiEE17_M_realloc_insertIJRKiEEEvN9__gnu_cxx17__normal_iteratorIPiS1_EEDpOT_ = comdat any

$_ZN9__gnu_cxx13new_allocatorIiE9constructIiJRKiEEEvPT_DpOT0_ = comdat any

$_ZSt7forwardIRKiEOT_RNSt16remove_referenceIS2_E4typeE = comdat any

$_ZNKSt6vectorIiSaIiEE12_M_check_lenEmPKc = comdat any

$_ZN9__gnu_cxxmiIPiSt6vectorIiSaIiEEEENS_17__normal_iteratorIT_T0_E15difference_typeERKS8_SB_ = comdat any

$_ZNSt12_Vector_baseIiSaIiEE11_M_allocateEm = comdat any

$_ZSt34__uninitialized_move_if_noexcept_aIPiS0_SaIiEET0_T_S3_S2_RT1_ = comdat any

$_ZNK9__gnu_cxx17__normal_iteratorIPiSt6vectorIiSaIiEEE4baseEv = comdat any

$_ZNSt16allocator_traitsISaIiEE7destroyIiEEvRS0_PT_ = comdat any

$_ZNKSt6vectorIiSaIiEE8max_sizeEv = comdat any

$_ZNKSt6vectorIiSaIiEE4sizeEv = comdat any

$_ZSt3maxImERKT_S2_S2_ = comdat any

$_ZNSt16allocator_traitsISaIiEE8max_sizeERKS0_ = comdat any

$_ZNKSt12_Vector_baseIiSaIiEE19_M_get_Tp_allocatorEv = comdat any

$_ZNK9__gnu_cxx13new_allocatorIiE8max_sizeEv = comdat any

$_ZNSt16allocator_traitsISaIiEE8allocateERS0_m = comdat any

$_ZN9__gnu_cxx13new_allocatorIiE8allocateEmPKv = comdat any

$_ZSt22__uninitialized_copy_aISt13move_iteratorIPiES1_iET0_T_S4_S3_RSaIT1_E = comdat any

$_ZSt32__make_move_if_noexcept_iteratorIiSt13move_iteratorIPiEET0_PT_ = comdat any

$_ZSt18uninitialized_copyISt13move_iteratorIPiES1_ET0_T_S4_S3_ = comdat any

$_ZNSt20__uninitialized_copyILb1EE13__uninit_copyISt13move_iteratorIPiES3_EET0_T_S6_S5_ = comdat any

$_ZSt4copyISt13move_iteratorIPiES1_ET0_T_S4_S3_ = comdat any

$_ZSt14__copy_move_a2ILb1EPiS0_ET1_T0_S2_S1_ = comdat any

$_ZSt12__miter_baseIPiEDTcl12__miter_basecldtfp_4baseEEESt13move_iteratorIT_E = comdat any

$_ZSt13__copy_move_aILb1EPiS0_ET1_T0_S2_S1_ = comdat any

$_ZSt12__niter_baseIPiET_S1_ = comdat any

$_ZNSt11__copy_moveILb1ELb1ESt26random_access_iterator_tagE8__copy_mIiEEPT_PKS3_S6_S4_ = comdat any

$_ZSt12__miter_baseIPiET_S1_ = comdat any

$_ZNKSt13move_iteratorIPiE4baseEv = comdat any

$_ZNSt13move_iteratorIPiEC2ES0_ = comdat any

$_ZN9__gnu_cxx13new_allocatorIiE7destroyIiEEvPT_ = comdat any

$_ZN9__gnu_cxxeqIPKiSt6vectorIiSaIiEEEEbRKNS_17__normal_iteratorIT_T0_EESB_ = comdat any

$_ZNKSt6vectorIiSaIiEE5beginEv = comdat any

$_ZNKSt6vectorIiSaIiEE3endEv = comdat any

$_ZNK9__gnu_cxx17__normal_iteratorIPKiSt6vectorIiSaIiEEE4baseEv = comdat any

$_ZN9__gnu_cxx17__normal_iteratorIPKiSt6vectorIiSaIiEEEC2ERKS2_ = comdat any

$_ZNK9__gnu_cxx17__normal_iteratorIPiSt6vectorIiSaIiEEEmiEl = comdat any

$_ZN9__gnu_cxx17__normal_iteratorIPiSt6vectorIiSaIiEEEC2ERKS1_ = comdat any

$_ZNSt6vectorIiSaIiEE14_M_fill_assignEmRKi = comdat any

$_ZNKSt6vectorIiSaIiEE8capacityEv = comdat any

$_ZNSt6vectorIiSaIiEEC2EmRKiRKS0_ = comdat any

$_ZNSt12_Vector_baseIiSaIiEE12_Vector_impl12_M_swap_dataERS2_ = comdat any

$_ZSt4fillIN9__gnu_cxx17__normal_iteratorIPiSt6vectorIiSaIiEEEEiEvT_S7_RKT0_ = comdat any

$_ZSt24__uninitialized_fill_n_aIPimiiET_S1_T0_RKT1_RSaIT2_E = comdat any

$_ZNSt6vectorIiSaIiEE15_M_erase_at_endEPi = comdat any

$_ZSt6fill_nIPimiET_S1_T0_RKT1_ = comdat any

$_ZNSt12_Vector_baseIiSaIiEEC2EmRKS0_ = comdat any

$_ZNSt6vectorIiSaIiEE18_M_fill_initializeEmRKi = comdat any

$_ZNSt12_Vector_baseIiSaIiEE12_Vector_implC2ERKS0_ = comdat any

$_ZNSt12_Vector_baseIiSaIiEE17_M_create_storageEm = comdat any

$_ZNSaIiEC2ERKS_ = comdat any

$_ZN9__gnu_cxx13new_allocatorIiEC2ERKS1_ = comdat any

$_ZSt4swapIPiENSt9enable_ifIXsr6__and_ISt6__not_ISt15__is_tuple_likeIT_EESt21is_move_constructibleIS4_ESt18is_move_assignableIS4_EEE5valueEvE4typeERS4_SD_ = comdat any

$_ZSt4moveIRPiEONSt16remove_referenceIT_E4typeEOS3_ = comdat any

$_ZSt8__fill_aIPiiEN9__gnu_cxx11__enable_ifIXsr11__is_scalarIT0_EE7__valueEvE6__typeET_S6_RKS3_ = comdat any

$_ZSt12__niter_baseIPiSt6vectorIiSaIiEEET_N9__gnu_cxx17__normal_iteratorIS4_T0_EE = comdat any

$_ZSt20uninitialized_fill_nIPimiET_S1_T0_RKT1_ = comdat any

$_ZNSt22__uninitialized_fill_nILb1EE15__uninit_fill_nIPimiEET_S3_T0_RKT1_ = comdat any

$_ZSt10__fill_n_aIPimiEN9__gnu_cxx11__enable_ifIXsr11__is_scalarIT1_EE7__valueET_E6__typeES4_T0_RKS3_ = comdat any

$_ZN9__gnu_cxx13new_allocatorISt4pairIiiEEC2Ev = comdat any

$_ZN9__gnu_cxx13new_allocatorISt4pairIiiEED2Ev = comdat any

$_ZNSt12_Vector_baseISt4pairIiiESaIS1_EEC2EmRKS2_ = comdat any

$_ZNSt6vectorISt4pairIiiESaIS1_EE21_M_default_initializeEm = comdat any

$_ZNSt12_Vector_baseISt4pairIiiESaIS1_EED2Ev = comdat any

$_ZNSt12_Vector_baseISt4pairIiiESaIS1_EE12_Vector_implC2ERKS2_ = comdat any

$_ZNSt12_Vector_baseISt4pairIiiESaIS1_EE17_M_create_storageEm = comdat any

$_ZNSt12_Vector_baseISt4pairIiiESaIS1_EE12_Vector_implD2Ev = comdat any

$_ZNSaISt4pairIiiEEC2ERKS1_ = comdat any

$_ZN9__gnu_cxx13new_allocatorISt4pairIiiEEC2ERKS3_ = comdat any

$_ZNSt12_Vector_baseISt4pairIiiESaIS1_EE11_M_allocateEm = comdat any

$_ZNSt16allocator_traitsISaISt4pairIiiEEE8allocateERS2_m = comdat any

$_ZN9__gnu_cxx13new_allocatorISt4pairIiiEE8allocateEmPKv = comdat any

$_ZNK9__gnu_cxx13new_allocatorISt4pairIiiEE8max_sizeEv = comdat any

$_ZSt27__uninitialized_default_n_aIPSt4pairIiiEmS1_ET_S3_T0_RSaIT1_E = comdat any

$_ZNSt12_Vector_baseISt4pairIiiESaIS1_EE19_M_get_Tp_allocatorEv = comdat any

$_ZSt25__uninitialized_default_nIPSt4pairIiiEmET_S3_T0_ = comdat any

$_ZNSt27__uninitialized_default_n_1ILb0EE18__uninit_default_nIPSt4pairIiiEmEET_S5_T0_ = comdat any

$_ZSt10_ConstructISt4pairIiiEJEEvPT_DpOT0_ = comdat any

$_ZSt11__addressofISt4pairIiiEEPT_RS2_ = comdat any

$_ZSt8_DestroyIPSt4pairIiiEEvT_S3_ = comdat any

$_ZNSt4pairIiiEC2IiiLb1EEEv = comdat any

$_ZNSt12_Destroy_auxILb1EE9__destroyIPSt4pairIiiEEEvT_S5_ = comdat any

$_ZNSt12_Vector_baseISt4pairIiiESaIS1_EE13_M_deallocateEPS1_m = comdat any

$_ZNSt16allocator_traitsISaISt4pairIiiEEE10deallocateERS2_PS1_m = comdat any

$_ZN9__gnu_cxx13new_allocatorISt4pairIiiEE10deallocateEPS2_m = comdat any

$_ZSt8_DestroyIPSt4pairIiiES1_EvT_S3_RSaIT0_E = comdat any

$_ZNSt6vectorISt5arrayIiLm8EESaIS1_EE14_M_fill_assignEmRKS1_ = comdat any

$_ZNKSt6vectorISt5arrayIiLm8EESaIS1_EE8capacityEv = comdat any

$_ZNSt6vectorISt5arrayIiLm8EESaIS1_EEC2EmRKS1_RKS2_ = comdat any

$_ZNSt12_Vector_baseISt5arrayIiLm8EESaIS1_EE12_Vector_impl12_M_swap_dataERS4_ = comdat any

$_ZNKSt6vectorISt5arrayIiLm8EESaIS1_EE4sizeEv = comdat any

$_ZSt4fillIN9__gnu_cxx17__normal_iteratorIPSt5arrayIiLm8EESt6vectorIS3_SaIS3_EEEES3_EvT_S9_RKT0_ = comdat any

$_ZNSt6vectorISt5arrayIiLm8EESaIS1_EE5beginEv = comdat any

$_ZNSt6vectorISt5arrayIiLm8EESaIS1_EE3endEv = comdat any

$_ZSt24__uninitialized_fill_n_aIPSt5arrayIiLm8EEmS1_S1_ET_S3_T0_RKT1_RSaIT2_E = comdat any

$_ZNSt6vectorISt5arrayIiLm8EESaIS1_EE15_M_erase_at_endEPS1_ = comdat any

$_ZSt6fill_nIPSt5arrayIiLm8EEmS1_ET_S3_T0_RKT1_ = comdat any

$_ZNSt12_Vector_baseISt5arrayIiLm8EESaIS1_EEC2EmRKS2_ = comdat any

$_ZNSt6vectorISt5arrayIiLm8EESaIS1_EE18_M_fill_initializeEmRKS1_ = comdat any

$_ZNSt12_Vector_baseISt5arrayIiLm8EESaIS1_EE12_Vector_implC2ERKS2_ = comdat any

$_ZNSt12_Vector_baseISt5arrayIiLm8EESaIS1_EE17_M_create_storageEm = comdat any

$_ZNSaISt5arrayIiLm8EEEC2ERKS1_ = comdat any

$_ZN9__gnu_cxx13new_allocatorISt5arrayIiLm8EEEC2ERKS3_ = comdat any

$_ZNSt12_Vector_baseISt5arrayIiLm8EESaIS1_EE11_M_allocateEm = comdat any

$_ZNSt16allocator_traitsISaISt5arrayIiLm8EEEE8allocateERS2_m = comdat any

$_ZN9__gnu_cxx13new_allocatorISt5arrayIiLm8EEE8allocateEmPKv = comdat any

$_ZNK9__gnu_cxx13new_allocatorISt5arrayIiLm8EEE8max_sizeEv = comdat any

$_ZSt4swapIPSt5arrayIiLm8EEENSt9enable_ifIXsr6__and_ISt6__not_ISt15__is_tuple_likeIT_EESt21is_move_constructibleIS6_ESt18is_move_assignableIS6_EEE5valueEvE4typeERS6_SF_ = comdat any

$_ZSt4moveIRPSt5arrayIiLm8EEEONSt16remove_referenceIT_E4typeEOS5_ = comdat any

$_ZSt8__fill_aIPSt5arrayIiLm8EES1_EN9__gnu_cxx11__enable_ifIXntsr11__is_scalarIT0_EE7__valueEvE6__typeET_S8_RKS5_ = comdat any

$_ZSt12__niter_baseIPSt5arrayIiLm8EESt6vectorIS1_SaIS1_EEET_N9__gnu_cxx17__normal_iteratorIS6_T0_EE = comdat any

$_ZNK9__gnu_cxx17__normal_iteratorIPSt5arrayIiLm8EESt6vectorIS2_SaIS2_EEE4baseEv = comdat any

$_ZN9__gnu_cxx17__normal_iteratorIPSt5arrayIiLm8EESt6vectorIS2_SaIS2_EEEC2ERKS3_ = comdat any

$_ZSt20uninitialized_fill_nIPSt5arrayIiLm8EEmS1_ET_S3_T0_RKT1_ = comdat any

$_ZNSt22__uninitialized_fill_nILb1EE15__uninit_fill_nIPSt5arrayIiLm8EEmS3_EET_S5_T0_RKT1_ = comdat any

$_ZSt10__fill_n_aIPSt5arrayIiLm8EEmS1_EN9__gnu_cxx11__enable_ifIXntsr11__is_scalarIT1_EE7__valueET_E6__typeES6_T0_RKS5_ = comdat any

$_ZSt12__niter_baseIPSt5arrayIiLm8EEET_S3_ = comdat any

$_ZNSt14__array_traitsIiLm8EE6_S_refERA8_Kim = comdat any

$_ZNSt6vectorIiSaIiEE21_M_default_initializeEm = comdat any

$_ZSt27__uninitialized_default_n_aIPimiET_S1_T0_RSaIT1_E = comdat any

$_ZSt25__uninitialized_default_nIPimET_S1_T0_ = comdat any

$_ZNSt27__uninitialized_default_n_1ILb1EE18__uninit_default_nIPimEET_S3_T0_ = comdat any

$_ZSt4__lgl = comdat any

$_ZN9__gnu_cxxltIPiSt6vectorIiSaIiEEEEbRKNS_17__normal_iteratorIT_T0_EESA_ = comdat any

$_ZSt4moveIRiEONSt16remove_referenceIT_E4typeEOS2_ = comdat any

$_ZNK9__gnu_cxx17__normal_iteratorIPiSt6vectorIiSaIiEEEplEl = comdat any

$_ZStgtIiiEbRKSt4pairIT_T0_ES5_ = comdat any

$_ZStltIiiEbRKSt4pairIT_T0_ES5_ = comdat any

$_ZN9__gnu_cxx17__normal_iteratorIPiSt6vectorIiSaIiEEEmmEv = comdat any

$_ZSt9iter_swapIN9__gnu_cxx17__normal_iteratorIPiSt6vectorIiSaIiEEEES6_EvT_T0_ = comdat any

$_ZSt4swapIiENSt9enable_ifIXsr6__and_ISt6__not_ISt15__is_tuple_likeIT_EESt21is_move_constructibleIS3_ESt18is_move_assignableIS3_EEE5valueEvE4typeERS3_SC_ = comdat any

$_ZN9__gnu_cxxeqIPiSt6vectorIiSaIiEEEEbRKNS_17__normal_iteratorIT_T0_EESA_ = comdat any

$_ZSt13move_backwardIN9__gnu_cxx17__normal_iteratorIPiSt6vectorIiSaIiEEEES6_ET0_T_S8_S7_ = comdat any

$_ZSt23__copy_move_backward_a2ILb1EN9__gnu_cxx17__normal_iteratorIPiSt6vectorIiSaIiEEEES6_ET1_T0_S8_S7_ = comdat any

$_ZSt12__miter_baseIN9__gnu_cxx17__normal_iteratorIPiSt6vectorIiSaIiEEEEET_S7_ = comdat any

$_ZSt22__copy_move_backward_aILb1EPiS0_ET1_T0_S2_S1_ = comdat any

$_ZNSt20__copy_move_backwardILb1ELb1ESt26random_access_iterator_tagE13__copy_move_bIiEEPT_PKS3_S6_S4_ = comdat any

@G = global %"class.std::vector" zeroinitializer, align 8
@__dso_handle = external hidden global i8
@colors = global %"class.std::vector.0" zeroinitializer, align 8
@gens = global %"class.std::vector.0" zeroinitializer, align 8
@gen = global i32 0, align 4
@.str = private unnamed_addr constant [24 x i8] c"from >= 0 && other >= 0\00", align 1
@.str.3 = private unnamed_addr constant [71 x i8] c"/home/pedro/tcc/exDataset/codenet/data/selection/p00975/s907976436.cpp\00", align 1
@__PRETTY_FUNCTION__._Z4flipii = private unnamed_addr constant [20 x i8] c"void flip(int, int)\00", align 1
@.str.4 = private unnamed_addr constant [5 x i8] c"%d%d\00", align 1
@.str.5 = private unnamed_addr constant [21 x i8] c"from >= 0 && to >= 0\00", align 1
@__PRETTY_FUNCTION__.main = private unnamed_addr constant [11 x i8] c"int main()\00", align 1
@.str.6 = private unnamed_addr constant [7 x i8] c"c >= 0\00", align 1
@.str.7 = private unnamed_addr constant [4 x i8] c"%d\0A\00", align 1
@.str.8 = private unnamed_addr constant [26 x i8] c"vector::_M_realloc_insert\00", align 1
@llvm.global_ctors = appending global [1 x { i32, void ()*, i8* }] [{ i32, void ()*, i8* } { i32 65535, void ()* @_GLOBAL__sub_I_s907976436.cpp, i8* null }]

; Function Attrs: noinline uwtable
define internal void @__cxx_global_var_init() #0 section ".text.startup" {
  call void @_ZNSt6vectorISt5arrayIiLm8EESaIS1_EEC2Ev(%"class.std::vector"* @G) #2
  %1 = call i32 @__cxa_atexit(void (i8*)* bitcast (void (%"class.std::vector"*)* @_ZNSt6vectorISt5arrayIiLm8EESaIS1_EED2Ev to void (i8*)*), i8* bitcast (%"class.std::vector"* @G to i8*), i8* @__dso_handle) #2
  ret void
}

; Function Attrs: noinline nounwind uwtable
define linkonce_odr void @_ZNSt6vectorISt5arrayIiLm8EESaIS1_EEC2Ev(%"class.std::vector"* %0) unnamed_addr #1 comdat align 2 personality i8* bitcast (i32 (...)* @__gxx_personality_v0 to i8*) {
  %2 = bitcast %"class.std::vector"* %0 to %"struct.std::_Vector_base"*
  invoke void @_ZNSt12_Vector_baseISt5arrayIiLm8EESaIS1_EEC2Ev(%"struct.std::_Vector_base"* %2)
          to label %3 unwind label %4

3:                                                ; preds = %1
  ret void

4:                                                ; preds = %1
  %5 = landingpad { i8*, i32 }
          catch i8* null
  %6 = extractvalue { i8*, i32 } %5, 0
  call void @__clang_call_terminate(i8* %6) #13
  unreachable
}

; Function Attrs: noinline nounwind uwtable
define linkonce_odr void @_ZNSt6vectorISt5arrayIiLm8EESaIS1_EED2Ev(%"class.std::vector"* %0) unnamed_addr #1 comdat align 2 personality i8* bitcast (i32 (...)* @__gxx_personality_v0 to i8*) {
  %2 = bitcast %"class.std::vector"* %0 to %"struct.std::_Vector_base"*
  %3 = getelementptr inbounds %"struct.std::_Vector_base", %"struct.std::_Vector_base"* %2, i32 0, i32 0
  %4 = getelementptr inbounds %"struct.std::_Vector_base<std::array<int, 8>, std::allocator<std::array<int, 8> > >::_Vector_impl", %"struct.std::_Vector_base<std::array<int, 8>, std::allocator<std::array<int, 8> > >::_Vector_impl"* %3, i32 0, i32 0
  %5 = load %"struct.std::array"*, %"struct.std::array"** %4, align 8
  %6 = bitcast %"class.std::vector"* %0 to %"struct.std::_Vector_base"*
  %7 = getelementptr inbounds %"struct.std::_Vector_base", %"struct.std::_Vector_base"* %6, i32 0, i32 0
  %8 = getelementptr inbounds %"struct.std::_Vector_base<std::array<int, 8>, std::allocator<std::array<int, 8> > >::_Vector_impl", %"struct.std::_Vector_base<std::array<int, 8>, std::allocator<std::array<int, 8> > >::_Vector_impl"* %7, i32 0, i32 1
  %9 = load %"struct.std::array"*, %"struct.std::array"** %8, align 8
  %10 = bitcast %"class.std::vector"* %0 to %"struct.std::_Vector_base"*
  %11 = call dereferenceable(1) %"class.std::allocator"* @_ZNSt12_Vector_baseISt5arrayIiLm8EESaIS1_EE19_M_get_Tp_allocatorEv(%"struct.std::_Vector_base"* %10) #2
  invoke void @_ZSt8_DestroyIPSt5arrayIiLm8EES1_EvT_S3_RSaIT0_E(%"struct.std::array"* %5, %"struct.std::array"* %9, %"class.std::allocator"* dereferenceable(1) %11)
          to label %12 unwind label %14

12:                                               ; preds = %1
  %13 = bitcast %"class.std::vector"* %0 to %"struct.std::_Vector_base"*
  call void @_ZNSt12_Vector_baseISt5arrayIiLm8EESaIS1_EED2Ev(%"struct.std::_Vector_base"* %13) #2
  ret void

14:                                               ; preds = %1
  %15 = landingpad { i8*, i32 }
          catch i8* null
  %16 = extractvalue { i8*, i32 } %15, 0
  %17 = extractvalue { i8*, i32 } %15, 1
  %18 = bitcast %"class.std::vector"* %0 to %"struct.std::_Vector_base"*
  call void @_ZNSt12_Vector_baseISt5arrayIiLm8EESaIS1_EED2Ev(%"struct.std::_Vector_base"* %18) #2
  br label %19

19:                                               ; preds = %14
  call void @__clang_call_terminate(i8* %16) #13
  unreachable
}

; Function Attrs: nounwind
declare i32 @__cxa_atexit(void (i8*)*, i8*, i8*) #2

; Function Attrs: noinline uwtable
define internal void @__cxx_global_var_init.1() #0 section ".text.startup" {
  call void @_ZNSt6vectorIiSaIiEEC2Ev(%"class.std::vector.0"* @colors) #2
  %1 = call i32 @__cxa_atexit(void (i8*)* bitcast (void (%"class.std::vector.0"*)* @_ZNSt6vectorIiSaIiEED2Ev to void (i8*)*), i8* bitcast (%"class.std::vector.0"* @colors to i8*), i8* @__dso_handle) #2
  ret void
}

; Function Attrs: noinline nounwind uwtable
define linkonce_odr void @_ZNSt6vectorIiSaIiEEC2Ev(%"class.std::vector.0"* %0) unnamed_addr #1 comdat align 2 personality i8* bitcast (i32 (...)* @__gxx_personality_v0 to i8*) {
  %2 = bitcast %"class.std::vector.0"* %0 to %"struct.std::_Vector_base.1"*
  invoke void @_ZNSt12_Vector_baseIiSaIiEEC2Ev(%"struct.std::_Vector_base.1"* %2)
          to label %3 unwind label %4

3:                                                ; preds = %1
  ret void

4:                                                ; preds = %1
  %5 = landingpad { i8*, i32 }
          catch i8* null
  %6 = extractvalue { i8*, i32 } %5, 0
  call void @__clang_call_terminate(i8* %6) #13
  unreachable
}

; Function Attrs: noinline nounwind uwtable
define linkonce_odr void @_ZNSt6vectorIiSaIiEED2Ev(%"class.std::vector.0"* %0) unnamed_addr #1 comdat align 2 personality i8* bitcast (i32 (...)* @__gxx_personality_v0 to i8*) {
  %2 = bitcast %"class.std::vector.0"* %0 to %"struct.std::_Vector_base.1"*
  %3 = getelementptr inbounds %"struct.std::_Vector_base.1", %"struct.std::_Vector_base.1"* %2, i32 0, i32 0
  %4 = getelementptr inbounds %"struct.std::_Vector_base<int, std::allocator<int> >::_Vector_impl", %"struct.std::_Vector_base<int, std::allocator<int> >::_Vector_impl"* %3, i32 0, i32 0
  %5 = load i32*, i32** %4, align 8
  %6 = bitcast %"class.std::vector.0"* %0 to %"struct.std::_Vector_base.1"*
  %7 = getelementptr inbounds %"struct.std::_Vector_base.1", %"struct.std::_Vector_base.1"* %6, i32 0, i32 0
  %8 = getelementptr inbounds %"struct.std::_Vector_base<int, std::allocator<int> >::_Vector_impl", %"struct.std::_Vector_base<int, std::allocator<int> >::_Vector_impl"* %7, i32 0, i32 1
  %9 = load i32*, i32** %8, align 8
  %10 = bitcast %"class.std::vector.0"* %0 to %"struct.std::_Vector_base.1"*
  %11 = call dereferenceable(1) %"class.std::allocator.2"* @_ZNSt12_Vector_baseIiSaIiEE19_M_get_Tp_allocatorEv(%"struct.std::_Vector_base.1"* %10) #2
  invoke void @_ZSt8_DestroyIPiiEvT_S1_RSaIT0_E(i32* %5, i32* %9, %"class.std::allocator.2"* dereferenceable(1) %11)
          to label %12 unwind label %14

12:                                               ; preds = %1
  %13 = bitcast %"class.std::vector.0"* %0 to %"struct.std::_Vector_base.1"*
  call void @_ZNSt12_Vector_baseIiSaIiEED2Ev(%"struct.std::_Vector_base.1"* %13) #2
  ret void

14:                                               ; preds = %1
  %15 = landingpad { i8*, i32 }
          catch i8* null
  %16 = extractvalue { i8*, i32 } %15, 0
  %17 = extractvalue { i8*, i32 } %15, 1
  %18 = bitcast %"class.std::vector.0"* %0 to %"struct.std::_Vector_base.1"*
  call void @_ZNSt12_Vector_baseIiSaIiEED2Ev(%"struct.std::_Vector_base.1"* %18) #2
  br label %19

19:                                               ; preds = %14
  call void @__clang_call_terminate(i8* %16) #13
  unreachable
}

; Function Attrs: noinline uwtable
define internal void @__cxx_global_var_init.2() #0 section ".text.startup" {
  call void @_ZNSt6vectorIiSaIiEEC2Ev(%"class.std::vector.0"* @gens) #2
  %1 = call i32 @__cxa_atexit(void (i8*)* bitcast (void (%"class.std::vector.0"*)* @_ZNSt6vectorIiSaIiEED2Ev to void (i8*)*), i8* bitcast (%"class.std::vector.0"* @gens to i8*), i8* @__dso_handle) #2
  ret void
}

; Function Attrs: noinline nounwind uwtable
define i32 @_Z8getcolori(i32 %0) #1 {
  %2 = sext i32 %0 to i64
  %3 = call dereferenceable(32) %"struct.std::array"* @_ZNSt6vectorISt5arrayIiLm8EESaIS1_EEixEm(%"class.std::vector"* @G, i64 %2) #2
  %4 = call i32* @_ZNSt5arrayIiLm8EE5beginEv(%"struct.std::array"* %3) #2
  %5 = call i32* @_ZNSt5arrayIiLm8EE3endEv(%"struct.std::array"* %3) #2
  br label %6

6:                                                ; preds = %24, %1
  %.03 = phi i32* [ %4, %1 ], [ %25, %24 ]
  %.02 = phi i32 [ 15, %1 ], [ %.1, %24 ]
  %7 = icmp ne i32* %.03, %5
  br i1 %7, label %8, label %26

8:                                                ; preds = %6
  %9 = load i32, i32* %.03, align 4
  %10 = icmp sge i32 %9, 0
  br i1 %10, label %11, label %23

11:                                               ; preds = %8
  %12 = sext i32 %9 to i64
  %13 = call dereferenceable(4) i32* @_ZNSt6vectorIiSaIiEEixEm(%"class.std::vector.0"* @colors, i64 %12) #2
  %14 = load i32, i32* %13, align 4
  %15 = icmp sge i32 %14, 0
  br i1 %15, label %16, label %23

16:                                               ; preds = %11
  %17 = sext i32 %9 to i64
  %18 = call dereferenceable(4) i32* @_ZNSt6vectorIiSaIiEEixEm(%"class.std::vector.0"* @colors, i64 %17) #2
  %19 = load i32, i32* %18, align 4
  %20 = shl i32 1, %19
  %21 = xor i32 %20, -1
  %22 = and i32 %.02, %21
  br label %23

23:                                               ; preds = %16, %11, %8
  %.1 = phi i32 [ %22, %16 ], [ %.02, %11 ], [ %.02, %8 ]
  br label %24

24:                                               ; preds = %23
  %25 = getelementptr inbounds i32, i32* %.03, i32 1
  br label %6

26:                                               ; preds = %6
  %27 = icmp eq i32 %.02, 0
  br i1 %27, label %28, label %29

28:                                               ; preds = %26
  br label %38

29:                                               ; preds = %26
  br label %30

30:                                               ; preds = %36, %29
  %.01 = phi i32 [ 0, %29 ], [ %37, %36 ]
  %31 = ashr i32 %.02, %.01
  %32 = and i32 %31, 1
  %33 = icmp ne i32 %32, 0
  br i1 %33, label %34, label %35

34:                                               ; preds = %30
  br label %38

35:                                               ; preds = %30
  br label %36

36:                                               ; preds = %35
  %37 = add nsw i32 %.01, 1
  br label %30

38:                                               ; preds = %34, %28
  %.0 = phi i32 [ -1, %28 ], [ %.01, %34 ]
  ret i32 %.0
}

; Function Attrs: noinline nounwind uwtable
define linkonce_odr dereferenceable(32) %"struct.std::array"* @_ZNSt6vectorISt5arrayIiLm8EESaIS1_EEixEm(%"class.std::vector"* %0, i64 %1) #1 comdat align 2 {
  %3 = bitcast %"class.std::vector"* %0 to %"struct.std::_Vector_base"*
  %4 = getelementptr inbounds %"struct.std::_Vector_base", %"struct.std::_Vector_base"* %3, i32 0, i32 0
  %5 = getelementptr inbounds %"struct.std::_Vector_base<std::array<int, 8>, std::allocator<std::array<int, 8> > >::_Vector_impl", %"struct.std::_Vector_base<std::array<int, 8>, std::allocator<std::array<int, 8> > >::_Vector_impl"* %4, i32 0, i32 0
  %6 = load %"struct.std::array"*, %"struct.std::array"** %5, align 8
  %7 = getelementptr inbounds %"struct.std::array", %"struct.std::array"* %6, i64 %1
  ret %"struct.std::array"* %7
}

; Function Attrs: noinline nounwind uwtable
define linkonce_odr i32* @_ZNSt5arrayIiLm8EE5beginEv(%"struct.std::array"* %0) #1 comdat align 2 {
  %2 = call i32* @_ZNSt5arrayIiLm8EE4dataEv(%"struct.std::array"* %0) #2
  ret i32* %2
}

; Function Attrs: noinline nounwind uwtable
define linkonce_odr i32* @_ZNSt5arrayIiLm8EE3endEv(%"struct.std::array"* %0) #1 comdat align 2 {
  %2 = call i32* @_ZNSt5arrayIiLm8EE4dataEv(%"struct.std::array"* %0) #2
  %3 = getelementptr inbounds i32, i32* %2, i64 8
  ret i32* %3
}

; Function Attrs: noinline nounwind uwtable
define linkonce_odr dereferenceable(4) i32* @_ZNSt6vectorIiSaIiEEixEm(%"class.std::vector.0"* %0, i64 %1) #1 comdat align 2 {
  %3 = bitcast %"class.std::vector.0"* %0 to %"struct.std::_Vector_base.1"*
  %4 = getelementptr inbounds %"struct.std::_Vector_base.1", %"struct.std::_Vector_base.1"* %3, i32 0, i32 0
  %5 = getelementptr inbounds %"struct.std::_Vector_base<int, std::allocator<int> >::_Vector_impl", %"struct.std::_Vector_base<int, std::allocator<int> >::_Vector_impl"* %4, i32 0, i32 0
  %6 = load i32*, i32** %5, align 8
  %7 = getelementptr inbounds i32, i32* %6, i64 %1
  ret i32* %7
}

; Function Attrs: noinline uwtable
define void @_Z4flipii(i32 %0, i32 %1) #0 {
  %3 = alloca i32, align 4
  %4 = alloca i32, align 4
  %5 = alloca %class.anon, align 8
  %6 = icmp sge i32 %0, 0
  br i1 %6, label %7, label %9

7:                                                ; preds = %2
  %8 = icmp sge i32 %1, 0
  br label %9

9:                                                ; preds = %7, %2
  %10 = phi i1 [ false, %2 ], [ %8, %7 ]
  br i1 %10, label %11, label %12

11:                                               ; preds = %9
  br label %14

12:                                               ; preds = %9
  call void @__assert_fail(i8* getelementptr inbounds ([24 x i8], [24 x i8]* @.str, i32 0, i32 0), i8* getelementptr inbounds ([71 x i8], [71 x i8]* @.str.3, i32 0, i32 0), i32 48, i8* getelementptr inbounds ([20 x i8], [20 x i8]* @__PRETTY_FUNCTION__._Z4flipii, i32 0, i32 0)) #13
  unreachable

13:                                               ; No predecessors!
  br label %14

14:                                               ; preds = %13, %11
  %15 = sext i32 %0 to i64
  %16 = call dereferenceable(4) i32* @_ZNSt6vectorIiSaIiEEixEm(%"class.std::vector.0"* @colors, i64 %15) #2
  %17 = load i32, i32* %16, align 4
  store i32 %17, i32* %3, align 4
  %18 = sext i32 %1 to i64
  %19 = call dereferenceable(4) i32* @_ZNSt6vectorIiSaIiEEixEm(%"class.std::vector.0"* @colors, i64 %18) #2
  %20 = load i32, i32* %19, align 4
  store i32 %20, i32* %4, align 4
  %21 = load i32, i32* %3, align 4
  %22 = load i32, i32* %4, align 4
  %23 = getelementptr inbounds %class.anon, %class.anon* %5, i32 0, i32 0
  store i32* %3, i32** %23, align 8
  %24 = getelementptr inbounds %class.anon, %class.anon* %5, i32 0, i32 1
  store i32* %4, i32** %24, align 8
  %25 = bitcast %class.anon* %5 to { i32*, i32* }*
  %26 = getelementptr inbounds { i32*, i32* }, { i32*, i32* }* %25, i32 0, i32 0
  %27 = load i32*, i32** %26, align 8
  %28 = getelementptr inbounds { i32*, i32* }, { i32*, i32* }* %25, i32 0, i32 1
  %29 = load i32*, i32** %28, align 8
  call void @"_Z3dfsIZ4flipiiE3$_0EviiiT_"(i32 %0, i32 %21, i32 %22, i32* %27, i32* %29)
  ret void
}

; Function Attrs: noreturn nounwind
declare void @__assert_fail(i8*, i8*, i32, i8*) #3

; Function Attrs: noinline uwtable
define internal void @"_Z3dfsIZ4flipiiE3$_0EviiiT_"(i32 %0, i32 %1, i32 %2, i32* %3, i32* %4) #0 personality i8* bitcast (i32 (...)* @__gxx_personality_v0 to i8*) {
  %6 = alloca %class.anon, align 8
  %7 = alloca i32, align 4
  %8 = alloca %"class.std::vector.0", align 8
  %9 = alloca i32, align 4
  %10 = bitcast %class.anon* %6 to { i32*, i32* }*
  %11 = getelementptr inbounds { i32*, i32* }, { i32*, i32* }* %10, i32 0, i32 0
  store i32* %3, i32** %11, align 8
  %12 = getelementptr inbounds { i32*, i32* }, { i32*, i32* }* %10, i32 0, i32 1
  store i32* %4, i32** %12, align 8
  store i32 %0, i32* %7, align 4
  %13 = load i32, i32* @gen, align 4
  %14 = add nsw i32 %13, 1
  store i32 %14, i32* @gen, align 4
  call void @_ZNSt6vectorIiSaIiEEC2Ev(%"class.std::vector.0"* %8) #2
  invoke void @_ZNSt6vectorIiSaIiEE9push_backERKi(%"class.std::vector.0"* %8, i32* dereferenceable(4) %7)
          to label %15 unwind label %64

15:                                               ; preds = %5
  %16 = load i32, i32* @gen, align 4
  %17 = load i32, i32* %7, align 4
  %18 = sext i32 %17 to i64
  %19 = call dereferenceable(4) i32* @_ZNSt6vectorIiSaIiEEixEm(%"class.std::vector.0"* @gens, i64 %18) #2
  store i32 %16, i32* %19, align 4
  br label %20

20:                                               ; preds = %71, %15
  %21 = call zeroext i1 @_ZNKSt6vectorIiSaIiEE5emptyEv(%"class.std::vector.0"* %8) #2
  %22 = xor i1 %21, true
  br i1 %22, label %23, label %72

23:                                               ; preds = %20
  %24 = call dereferenceable(4) i32* @_ZNSt6vectorIiSaIiEE4backEv(%"class.std::vector.0"* %8) #2
  %25 = load i32, i32* %24, align 4
  store i32 %25, i32* %7, align 4
  call void @_ZNSt6vectorIiSaIiEE8pop_backEv(%"class.std::vector.0"* %8) #2
  %26 = load i32, i32* %7, align 4
  invoke void @"_ZZ4flipiiENK3$_0clEi"(%class.anon* %6, i32 %26)
          to label %27 unwind label %64

27:                                               ; preds = %23
  %28 = load i32, i32* %7, align 4
  %29 = sext i32 %28 to i64
  %30 = call dereferenceable(32) %"struct.std::array"* @_ZNSt6vectorISt5arrayIiLm8EESaIS1_EEixEm(%"class.std::vector"* @G, i64 %29) #2
  %31 = call i32* @_ZNSt5arrayIiLm8EE5beginEv(%"struct.std::array"* %30) #2
  %32 = call i32* @_ZNSt5arrayIiLm8EE3endEv(%"struct.std::array"* %30) #2
  br label %33

33:                                               ; preds = %69, %27
  %.0 = phi i32* [ %31, %27 ], [ %70, %69 ]
  %34 = icmp ne i32* %.0, %32
  br i1 %34, label %35, label %71

35:                                               ; preds = %33
  %36 = load i32, i32* %.0, align 4
  store i32 %36, i32* %9, align 4
  %37 = load i32, i32* %9, align 4
  %38 = icmp sge i32 %37, 0
  br i1 %38, label %39, label %68

39:                                               ; preds = %35
  %40 = load i32, i32* %9, align 4
  %41 = sext i32 %40 to i64
  %42 = call dereferenceable(4) i32* @_ZNSt6vectorIiSaIiEEixEm(%"class.std::vector.0"* @gens, i64 %41) #2
  %43 = load i32, i32* %42, align 4
  %44 = load i32, i32* @gen, align 4
  %45 = icmp ne i32 %43, %44
  br i1 %45, label %46, label %68

46:                                               ; preds = %39
  %47 = load i32, i32* %9, align 4
  %48 = sext i32 %47 to i64
  %49 = call dereferenceable(4) i32* @_ZNSt6vectorIiSaIiEEixEm(%"class.std::vector.0"* @colors, i64 %48) #2
  %50 = load i32, i32* %49, align 4
  %51 = icmp eq i32 %50, %1
  br i1 %51, label %58, label %52

52:                                               ; preds = %46
  %53 = load i32, i32* %9, align 4
  %54 = sext i32 %53 to i64
  %55 = call dereferenceable(4) i32* @_ZNSt6vectorIiSaIiEEixEm(%"class.std::vector.0"* @colors, i64 %54) #2
  %56 = load i32, i32* %55, align 4
  %57 = icmp eq i32 %56, %2
  br i1 %57, label %58, label %68

58:                                               ; preds = %52, %46
  %59 = load i32, i32* @gen, align 4
  %60 = load i32, i32* %9, align 4
  %61 = sext i32 %60 to i64
  %62 = call dereferenceable(4) i32* @_ZNSt6vectorIiSaIiEEixEm(%"class.std::vector.0"* @gens, i64 %61) #2
  store i32 %59, i32* %62, align 4
  invoke void @_ZNSt6vectorIiSaIiEE9push_backERKi(%"class.std::vector.0"* %8, i32* dereferenceable(4) %9)
          to label %63 unwind label %64

63:                                               ; preds = %58
  br label %68

64:                                               ; preds = %58, %23, %5
  %65 = landingpad { i8*, i32 }
          cleanup
  %66 = extractvalue { i8*, i32 } %65, 0
  %67 = extractvalue { i8*, i32 } %65, 1
  call void @_ZNSt6vectorIiSaIiEED2Ev(%"class.std::vector.0"* %8) #2
  br label %73

68:                                               ; preds = %63, %52, %39, %35
  br label %69

69:                                               ; preds = %68
  %70 = getelementptr inbounds i32, i32* %.0, i32 1
  br label %33

71:                                               ; preds = %33
  br label %20

72:                                               ; preds = %20
  call void @_ZNSt6vectorIiSaIiEED2Ev(%"class.std::vector.0"* %8) #2
  ret void

73:                                               ; preds = %64
  %74 = insertvalue { i8*, i32 } undef, i8* %66, 0
  %75 = insertvalue { i8*, i32 } %74, i32 %67, 1
  resume { i8*, i32 } %75
}

; Function Attrs: noinline norecurse uwtable
define i32 @main() #4 personality i8* bitcast (i32 (...)* @__gxx_personality_v0 to i8*) {
  %1 = alloca i32, align 4
  %2 = alloca i32, align 4
  %3 = alloca i32, align 4
  %4 = alloca %"class.std::vector.5", align 8
  %5 = alloca %"class.std::allocator.7", align 1
  %6 = alloca %"struct.std::array", align 4
  %7 = alloca i32, align 4
  %8 = alloca i32, align 4
  %9 = alloca i32, align 4
  %10 = alloca %"class.std::vector.0", align 8
  %11 = alloca %"class.std::allocator.2", align 1
  %12 = alloca %"class.__gnu_cxx::__normal_iterator", align 8
  %13 = alloca %"class.__gnu_cxx::__normal_iterator", align 8
  %14 = alloca %"class.__gnu_cxx::__normal_iterator", align 8
  %15 = alloca %"class.__gnu_cxx::__normal_iterator", align 8
  %16 = alloca %class.anon.10, align 8
  %17 = alloca i32, align 4
  %18 = alloca %"class.__gnu_cxx::__normal_iterator", align 8
  %19 = alloca %"class.__gnu_cxx::__normal_iterator", align 8
  %20 = alloca i32, align 4
  %21 = alloca i8, align 1
  %22 = alloca %class.anon.11, align 8
  %23 = alloca %"class.__gnu_cxx::__normal_iterator", align 8
  %24 = alloca %"class.__gnu_cxx::__normal_iterator", align 8
  %25 = call i32 (i8*, ...) @scanf(i8* getelementptr inbounds ([5 x i8], [5 x i8]* @.str.4, i32 0, i32 0), i32* %1, i32* %2)
  %26 = load i32, i32* %1, align 4
  %27 = sext i32 %26 to i64
  store i32 -1, i32* %3, align 4
  call void @_ZNSt6vectorIiSaIiEE6assignEmRKi(%"class.std::vector.0"* @gens, i64 %27, i32* dereferenceable(4) %3)
  %28 = load i32, i32* %1, align 4
  %29 = sext i32 %28 to i64
  call void @_ZNSaISt4pairIiiEEC2Ev(%"class.std::allocator.7"* %5) #2
  invoke void @_ZNSt6vectorISt4pairIiiESaIS1_EEC2EmRKS2_(%"class.std::vector.5"* %4, i64 %29, %"class.std::allocator.7"* dereferenceable(1) %5)
          to label %30 unwind label %45

30:                                               ; preds = %0
  call void @_ZNSaISt4pairIiiEED2Ev(%"class.std::allocator.7"* %5) #2
  br label %31

31:                                               ; preds = %43, %30
  %.03 = phi i32 [ 0, %30 ], [ %44, %43 ]
  %32 = load i32, i32* %1, align 4
  %33 = icmp slt i32 %.03, %32
  br i1 %33, label %34, label %53

34:                                               ; preds = %31
  %35 = sext i32 %.03 to i64
  %36 = call dereferenceable(8) %"struct.std::pair"* @_ZNSt6vectorISt4pairIiiESaIS1_EEixEm(%"class.std::vector.5"* %4, i64 %35) #2
  %37 = getelementptr inbounds %"struct.std::pair", %"struct.std::pair"* %36, i32 0, i32 1
  %38 = sext i32 %.03 to i64
  %39 = call dereferenceable(8) %"struct.std::pair"* @_ZNSt6vectorISt4pairIiiESaIS1_EEixEm(%"class.std::vector.5"* %4, i64 %38) #2
  %40 = getelementptr inbounds %"struct.std::pair", %"struct.std::pair"* %39, i32 0, i32 0
  %41 = invoke i32 (i8*, ...) @scanf(i8* getelementptr inbounds ([5 x i8], [5 x i8]* @.str.4, i32 0, i32 0), i32* %37, i32* %40)
          to label %42 unwind label %49

42:                                               ; preds = %34
  br label %43

43:                                               ; preds = %42
  %44 = add nsw i32 %.03, 1
  br label %31

45:                                               ; preds = %0
  %46 = landingpad { i8*, i32 }
          cleanup
  %47 = extractvalue { i8*, i32 } %46, 0
  %48 = extractvalue { i8*, i32 } %46, 1
  call void @_ZNSaISt4pairIiiEED2Ev(%"class.std::allocator.7"* %5) #2
  br label %309

49:                                               ; preds = %63, %56, %53, %34
  %50 = landingpad { i8*, i32 }
          cleanup
  %51 = extractvalue { i8*, i32 } %50, 0
  %52 = extractvalue { i8*, i32 } %50, 1
  br label %308

53:                                               ; preds = %31
  %54 = call i32* @_ZNSt5arrayIiLm8EE5beginEv(%"struct.std::array"* %6) #2
  %55 = call i32* @_ZNSt5arrayIiLm8EE3endEv(%"struct.std::array"* %6) #2
  store i32 -1, i32* %7, align 4
  invoke void @_ZSt4fillIPiiEvT_S1_RKT0_(i32* %54, i32* %55, i32* dereferenceable(4) %7)
          to label %56 unwind label %49

56:                                               ; preds = %53
  %57 = load i32, i32* %1, align 4
  %58 = sext i32 %57 to i64
  invoke void @_ZNSt6vectorISt5arrayIiLm8EESaIS1_EE6assignEmRKS1_(%"class.std::vector"* @G, i64 %58, %"struct.std::array"* dereferenceable(32) %6)
          to label %59 unwind label %49

59:                                               ; preds = %56
  br label %60

60:                                               ; preds = %178, %59
  %.04 = phi i32 [ 0, %59 ], [ %179, %178 ]
  %61 = load i32, i32* %2, align 4
  %62 = icmp slt i32 %.04, %61
  br i1 %62, label %63, label %180

63:                                               ; preds = %60
  %64 = invoke i32 (i8*, ...) @scanf(i8* getelementptr inbounds ([5 x i8], [5 x i8]* @.str.4, i32 0, i32 0), i32* %8, i32* %9)
          to label %65 unwind label %49

65:                                               ; preds = %63
  %66 = load i32, i32* %8, align 4
  %67 = add nsw i32 %66, -1
  store i32 %67, i32* %8, align 4
  %68 = load i32, i32* %9, align 4
  %69 = add nsw i32 %68, -1
  store i32 %69, i32* %9, align 4
  %70 = load i32, i32* %8, align 4
  %71 = sext i32 %70 to i64
  %72 = call dereferenceable(8) %"struct.std::pair"* @_ZNSt6vectorISt4pairIiiESaIS1_EEixEm(%"class.std::vector.5"* %4, i64 %71) #2
  %73 = getelementptr inbounds %"struct.std::pair", %"struct.std::pair"* %72, i32 0, i32 0
  %74 = load i32, i32* %73, align 4
  %75 = load i32, i32* %9, align 4
  %76 = sext i32 %75 to i64
  %77 = call dereferenceable(8) %"struct.std::pair"* @_ZNSt6vectorISt4pairIiiESaIS1_EEixEm(%"class.std::vector.5"* %4, i64 %76) #2
  %78 = getelementptr inbounds %"struct.std::pair", %"struct.std::pair"* %77, i32 0, i32 0
  %79 = load i32, i32* %78, align 4
  %80 = icmp eq i32 %74, %79
  br i1 %80, label %81, label %95

81:                                               ; preds = %65
  %82 = load i32, i32* %8, align 4
  %83 = sext i32 %82 to i64
  %84 = call dereferenceable(8) %"struct.std::pair"* @_ZNSt6vectorISt4pairIiiESaIS1_EEixEm(%"class.std::vector.5"* %4, i64 %83) #2
  %85 = getelementptr inbounds %"struct.std::pair", %"struct.std::pair"* %84, i32 0, i32 1
  %86 = load i32, i32* %85, align 4
  %87 = load i32, i32* %9, align 4
  %88 = sext i32 %87 to i64
  %89 = call dereferenceable(8) %"struct.std::pair"* @_ZNSt6vectorISt4pairIiiESaIS1_EEixEm(%"class.std::vector.5"* %4, i64 %88) #2
  %90 = getelementptr inbounds %"struct.std::pair", %"struct.std::pair"* %89, i32 0, i32 1
  %91 = load i32, i32* %90, align 4
  %92 = icmp slt i32 %86, %91
  %93 = zext i1 %92 to i64
  %94 = select i1 %92, i32 0, i32 4
  br label %163

95:                                               ; preds = %65
  %96 = load i32, i32* %8, align 4
  %97 = sext i32 %96 to i64
  %98 = call dereferenceable(8) %"struct.std::pair"* @_ZNSt6vectorISt4pairIiiESaIS1_EEixEm(%"class.std::vector.5"* %4, i64 %97) #2
  %99 = getelementptr inbounds %"struct.std::pair", %"struct.std::pair"* %98, i32 0, i32 1
  %100 = load i32, i32* %99, align 4
  %101 = load i32, i32* %9, align 4
  %102 = sext i32 %101 to i64
  %103 = call dereferenceable(8) %"struct.std::pair"* @_ZNSt6vectorISt4pairIiiESaIS1_EEixEm(%"class.std::vector.5"* %4, i64 %102) #2
  %104 = getelementptr inbounds %"struct.std::pair", %"struct.std::pair"* %103, i32 0, i32 1
  %105 = load i32, i32* %104, align 4
  %106 = icmp eq i32 %100, %105
  br i1 %106, label %107, label %121

107:                                              ; preds = %95
  %108 = load i32, i32* %8, align 4
  %109 = sext i32 %108 to i64
  %110 = call dereferenceable(8) %"struct.std::pair"* @_ZNSt6vectorISt4pairIiiESaIS1_EEixEm(%"class.std::vector.5"* %4, i64 %109) #2
  %111 = getelementptr inbounds %"struct.std::pair", %"struct.std::pair"* %110, i32 0, i32 0
  %112 = load i32, i32* %111, align 4
  %113 = load i32, i32* %9, align 4
  %114 = sext i32 %113 to i64
  %115 = call dereferenceable(8) %"struct.std::pair"* @_ZNSt6vectorISt4pairIiiESaIS1_EEixEm(%"class.std::vector.5"* %4, i64 %114) #2
  %116 = getelementptr inbounds %"struct.std::pair", %"struct.std::pair"* %115, i32 0, i32 0
  %117 = load i32, i32* %116, align 4
  %118 = icmp slt i32 %112, %117
  %119 = zext i1 %118 to i64
  %120 = select i1 %118, i32 2, i32 6
  br label %162

121:                                              ; preds = %95
  %122 = load i32, i32* %8, align 4
  %123 = sext i32 %122 to i64
  %124 = call dereferenceable(8) %"struct.std::pair"* @_ZNSt6vectorISt4pairIiiESaIS1_EEixEm(%"class.std::vector.5"* %4, i64 %123) #2
  %125 = getelementptr inbounds %"struct.std::pair", %"struct.std::pair"* %124, i32 0, i32 0
  %126 = load i32, i32* %125, align 4
  %127 = load i32, i32* %9, align 4
  %128 = sext i32 %127 to i64
  %129 = call dereferenceable(8) %"struct.std::pair"* @_ZNSt6vectorISt4pairIiiESaIS1_EEixEm(%"class.std::vector.5"* %4, i64 %128) #2
  %130 = getelementptr inbounds %"struct.std::pair", %"struct.std::pair"* %129, i32 0, i32 0
  %131 = load i32, i32* %130, align 4
  %132 = icmp slt i32 %126, %131
  br i1 %132, label %133, label %147

133:                                              ; preds = %121
  %134 = load i32, i32* %8, align 4
  %135 = sext i32 %134 to i64
  %136 = call dereferenceable(8) %"struct.std::pair"* @_ZNSt6vectorISt4pairIiiESaIS1_EEixEm(%"class.std::vector.5"* %4, i64 %135) #2
  %137 = getelementptr inbounds %"struct.std::pair", %"struct.std::pair"* %136, i32 0, i32 1
  %138 = load i32, i32* %137, align 4
  %139 = load i32, i32* %9, align 4
  %140 = sext i32 %139 to i64
  %141 = call dereferenceable(8) %"struct.std::pair"* @_ZNSt6vectorISt4pairIiiESaIS1_EEixEm(%"class.std::vector.5"* %4, i64 %140) #2
  %142 = getelementptr inbounds %"struct.std::pair", %"struct.std::pair"* %141, i32 0, i32 1
  %143 = load i32, i32* %142, align 4
  %144 = icmp slt i32 %138, %143
  %145 = zext i1 %144 to i64
  %146 = select i1 %144, i32 1, i32 3
  br label %161

147:                                              ; preds = %121
  %148 = load i32, i32* %8, align 4
  %149 = sext i32 %148 to i64
  %150 = call dereferenceable(8) %"struct.std::pair"* @_ZNSt6vectorISt4pairIiiESaIS1_EEixEm(%"class.std::vector.5"* %4, i64 %149) #2
  %151 = getelementptr inbounds %"struct.std::pair", %"struct.std::pair"* %150, i32 0, i32 1
  %152 = load i32, i32* %151, align 4
  %153 = load i32, i32* %9, align 4
  %154 = sext i32 %153 to i64
  %155 = call dereferenceable(8) %"struct.std::pair"* @_ZNSt6vectorISt4pairIiiESaIS1_EEixEm(%"class.std::vector.5"* %4, i64 %154) #2
  %156 = getelementptr inbounds %"struct.std::pair", %"struct.std::pair"* %155, i32 0, i32 1
  %157 = load i32, i32* %156, align 4
  %158 = icmp slt i32 %152, %157
  %159 = zext i1 %158 to i64
  %160 = select i1 %158, i32 7, i32 5
  br label %161

161:                                              ; preds = %147, %133
  %.05 = phi i32 [ %146, %133 ], [ %160, %147 ]
  br label %162

162:                                              ; preds = %161, %107
  %.16 = phi i32 [ %120, %107 ], [ %.05, %161 ]
  br label %163

163:                                              ; preds = %162, %81
  %.2 = phi i32 [ %94, %81 ], [ %.16, %162 ]
  %164 = load i32, i32* %9, align 4
  %165 = load i32, i32* %8, align 4
  %166 = sext i32 %165 to i64
  %167 = call dereferenceable(32) %"struct.std::array"* @_ZNSt6vectorISt5arrayIiLm8EESaIS1_EEixEm(%"class.std::vector"* @G, i64 %166) #2
  %168 = sext i32 %.2 to i64
  %169 = call dereferenceable(4) i32* @_ZNSt5arrayIiLm8EEixEm(%"struct.std::array"* %167, i64 %168) #2
  store i32 %164, i32* %169, align 4
  %170 = load i32, i32* %8, align 4
  %171 = load i32, i32* %9, align 4
  %172 = sext i32 %171 to i64
  %173 = call dereferenceable(32) %"struct.std::array"* @_ZNSt6vectorISt5arrayIiLm8EESaIS1_EEixEm(%"class.std::vector"* @G, i64 %172) #2
  %174 = add nsw i32 %.2, 4
  %175 = and i32 %174, 7
  %176 = sext i32 %175 to i64
  %177 = call dereferenceable(4) i32* @_ZNSt5arrayIiLm8EEixEm(%"struct.std::array"* %173, i64 %176) #2
  store i32 %170, i32* %177, align 4
  br label %178

178:                                              ; preds = %163
  %179 = add nsw i32 %.04, 1
  br label %60

180:                                              ; preds = %60
  %181 = load i32, i32* %1, align 4
  %182 = sext i32 %181 to i64
  call void @_ZNSaIiEC2Ev(%"class.std::allocator.2"* %11) #2
  invoke void @_ZNSt6vectorIiSaIiEEC2EmRKS0_(%"class.std::vector.0"* %10, i64 %182, %"class.std::allocator.2"* dereferenceable(1) %11)
          to label %183 unwind label %223

183:                                              ; preds = %180
  call void @_ZNSaIiED2Ev(%"class.std::allocator.2"* %11) #2
  %184 = call i32* @_ZNSt6vectorIiSaIiEE5beginEv(%"class.std::vector.0"* %10) #2
  %185 = getelementptr inbounds %"class.__gnu_cxx::__normal_iterator", %"class.__gnu_cxx::__normal_iterator"* %12, i32 0, i32 0
  store i32* %184, i32** %185, align 8
  %186 = call i32* @_ZNSt6vectorIiSaIiEE3endEv(%"class.std::vector.0"* %10) #2
  %187 = getelementptr inbounds %"class.__gnu_cxx::__normal_iterator", %"class.__gnu_cxx::__normal_iterator"* %13, i32 0, i32 0
  store i32* %186, i32** %187, align 8
  %188 = getelementptr inbounds %"class.__gnu_cxx::__normal_iterator", %"class.__gnu_cxx::__normal_iterator"* %12, i32 0, i32 0
  %189 = load i32*, i32** %188, align 8
  %190 = getelementptr inbounds %"class.__gnu_cxx::__normal_iterator", %"class.__gnu_cxx::__normal_iterator"* %13, i32 0, i32 0
  %191 = load i32*, i32** %190, align 8
  invoke void @_ZSt4iotaIN9__gnu_cxx17__normal_iteratorIPiSt6vectorIiSaIiEEEEiEvT_S7_T0_(i32* %189, i32* %191, i32 0)
          to label %192 unwind label %227

192:                                              ; preds = %183
  %193 = call i32* @_ZNSt6vectorIiSaIiEE5beginEv(%"class.std::vector.0"* %10) #2
  %194 = getelementptr inbounds %"class.__gnu_cxx::__normal_iterator", %"class.__gnu_cxx::__normal_iterator"* %14, i32 0, i32 0
  store i32* %193, i32** %194, align 8
  %195 = call i32* @_ZNSt6vectorIiSaIiEE3endEv(%"class.std::vector.0"* %10) #2
  %196 = getelementptr inbounds %"class.__gnu_cxx::__normal_iterator", %"class.__gnu_cxx::__normal_iterator"* %15, i32 0, i32 0
  store i32* %195, i32** %196, align 8
  %197 = getelementptr inbounds %class.anon.10, %class.anon.10* %16, i32 0, i32 0
  store %"class.std::vector.5"* %4, %"class.std::vector.5"** %197, align 8
  %198 = getelementptr inbounds %"class.__gnu_cxx::__normal_iterator", %"class.__gnu_cxx::__normal_iterator"* %14, i32 0, i32 0
  %199 = load i32*, i32** %198, align 8
  %200 = getelementptr inbounds %"class.__gnu_cxx::__normal_iterator", %"class.__gnu_cxx::__normal_iterator"* %15, i32 0, i32 0
  %201 = load i32*, i32** %200, align 8
  %202 = getelementptr inbounds %class.anon.10, %class.anon.10* %16, i32 0, i32 0
  %203 = load %"class.std::vector.5"*, %"class.std::vector.5"** %202, align 8
  invoke void @"_ZSt4sortIN9__gnu_cxx17__normal_iteratorIPiSt6vectorIiSaIiEEEEZ4mainE3$_1EvT_S8_T0_"(i32* %199, i32* %201, %"class.std::vector.5"* %203)
          to label %204 unwind label %227

204:                                              ; preds = %192
  %205 = load i32, i32* %1, align 4
  %206 = sext i32 %205 to i64
  store i32 -1, i32* %17, align 4
  invoke void @_ZNSt6vectorIiSaIiEE6assignEmRKi(%"class.std::vector.0"* @colors, i64 %206, i32* dereferenceable(4) %17)
          to label %207 unwind label %227

207:                                              ; preds = %204
  %208 = call i32* @_ZNSt6vectorIiSaIiEE5beginEv(%"class.std::vector.0"* %10) #2
  %209 = getelementptr inbounds %"class.__gnu_cxx::__normal_iterator", %"class.__gnu_cxx::__normal_iterator"* %18, i32 0, i32 0
  store i32* %208, i32** %209, align 8
  %210 = call i32* @_ZNSt6vectorIiSaIiEE3endEv(%"class.std::vector.0"* %10) #2
  %211 = getelementptr inbounds %"class.__gnu_cxx::__normal_iterator", %"class.__gnu_cxx::__normal_iterator"* %19, i32 0, i32 0
  store i32* %210, i32** %211, align 8
  br label %212

212:                                              ; preds = %290, %207
  %213 = call zeroext i1 @_ZN9__gnu_cxxneIPiSt6vectorIiSaIiEEEEbRKNS_17__normal_iteratorIT_T0_EESA_(%"class.__gnu_cxx::__normal_iterator"* dereferenceable(8) %18, %"class.__gnu_cxx::__normal_iterator"* dereferenceable(8) %19) #2
  br i1 %213, label %214, label %292

214:                                              ; preds = %212
  %215 = call dereferenceable(4) i32* @_ZNK9__gnu_cxx17__normal_iteratorIPiSt6vectorIiSaIiEEEdeEv(%"class.__gnu_cxx::__normal_iterator"* %18) #2
  %216 = load i32, i32* %215, align 4
  %217 = invoke i32 @_Z8getcolori(i32 %216)
          to label %218 unwind label %227

218:                                              ; preds = %214
  %219 = icmp sge i32 %217, 0
  br i1 %219, label %220, label %231

220:                                              ; preds = %218
  %221 = sext i32 %216 to i64
  %222 = call dereferenceable(4) i32* @_ZNSt6vectorIiSaIiEEixEm(%"class.std::vector.0"* @colors, i64 %221) #2
  store i32 %217, i32* %222, align 4
  br label %290

223:                                              ; preds = %180
  %224 = landingpad { i8*, i32 }
          cleanup
  %225 = extractvalue { i8*, i32 } %224, 0
  %226 = extractvalue { i8*, i32 } %224, 1
  call void @_ZNSaIiED2Ev(%"class.std::allocator.2"* %11) #2
  br label %308

227:                                              ; preds = %299, %280, %270, %267, %249, %214, %204, %192, %183
  %228 = landingpad { i8*, i32 }
          cleanup
  %229 = extractvalue { i8*, i32 } %228, 0
  %230 = extractvalue { i8*, i32 } %228, 1
  call void @_ZNSt6vectorIiSaIiEED2Ev(%"class.std::vector.0"* %10) #2
  br label %308

231:                                              ; preds = %218
  %232 = sext i32 %216 to i64
  %233 = call dereferenceable(32) %"struct.std::array"* @_ZNSt6vectorISt5arrayIiLm8EESaIS1_EEixEm(%"class.std::vector"* @G, i64 %232) #2
  %234 = call dereferenceable(4) i32* @_ZNSt5arrayIiLm8EEixEm(%"struct.std::array"* %233, i64 0) #2
  %235 = load i32, i32* %234, align 4
  %236 = sext i32 %216 to i64
  %237 = call dereferenceable(32) %"struct.std::array"* @_ZNSt6vectorISt5arrayIiLm8EESaIS1_EEixEm(%"class.std::vector"* @G, i64 %236) #2
  %238 = call dereferenceable(4) i32* @_ZNSt5arrayIiLm8EEixEm(%"struct.std::array"* %237, i64 2) #2
  %239 = load i32, i32* %238, align 4
  store i32 %239, i32* %20, align 4
  %240 = icmp sge i32 %235, 0
  br i1 %240, label %241, label %244

241:                                              ; preds = %231
  %242 = load i32, i32* %20, align 4
  %243 = icmp sge i32 %242, 0
  br label %244

244:                                              ; preds = %241, %231
  %245 = phi i1 [ false, %231 ], [ %243, %241 ]
  br i1 %245, label %246, label %247

246:                                              ; preds = %244
  br label %249

247:                                              ; preds = %244
  call void @__assert_fail(i8* getelementptr inbounds ([21 x i8], [21 x i8]* @.str.5, i32 0, i32 0), i8* getelementptr inbounds ([71 x i8], [71 x i8]* @.str.3, i32 0, i32 0), i32 101, i8* getelementptr inbounds ([11 x i8], [11 x i8]* @__PRETTY_FUNCTION__.main, i32 0, i32 0)) #13
  unreachable

248:                                              ; No predecessors!
  br label %249

249:                                              ; preds = %248, %246
  store i8 0, i8* %21, align 1
  %250 = sext i32 %235 to i64
  %251 = call dereferenceable(4) i32* @_ZNSt6vectorIiSaIiEEixEm(%"class.std::vector.0"* @colors, i64 %250) #2
  %252 = load i32, i32* %251, align 4
  %253 = load i32, i32* %20, align 4
  %254 = sext i32 %253 to i64
  %255 = call dereferenceable(4) i32* @_ZNSt6vectorIiSaIiEEixEm(%"class.std::vector.0"* @colors, i64 %254) #2
  %256 = load i32, i32* %255, align 4
  %257 = getelementptr inbounds %class.anon.11, %class.anon.11* %22, i32 0, i32 0
  store i8* %21, i8** %257, align 8
  %258 = getelementptr inbounds %class.anon.11, %class.anon.11* %22, i32 0, i32 1
  store i32* %20, i32** %258, align 8
  %259 = bitcast %class.anon.11* %22 to { i8*, i32* }*
  %260 = getelementptr inbounds { i8*, i32* }, { i8*, i32* }* %259, i32 0, i32 0
  %261 = load i8*, i8** %260, align 8
  %262 = getelementptr inbounds { i8*, i32* }, { i8*, i32* }* %259, i32 0, i32 1
  %263 = load i32*, i32** %262, align 8
  invoke void @"_Z3dfsIZ4mainE3$_2EviiiT_"(i32 %235, i32 %252, i32 %256, i8* %261, i32* %263)
          to label %264 unwind label %227

264:                                              ; preds = %249
  %265 = load i8, i8* %21, align 1
  %266 = trunc i8 %265 to i1
  br i1 %266, label %270, label %267

267:                                              ; preds = %264
  %268 = load i32, i32* %20, align 4
  invoke void @_Z4flipii(i32 %235, i32 %268)
          to label %269 unwind label %227

269:                                              ; preds = %267
  br label %280

270:                                              ; preds = %264
  %271 = sext i32 %216 to i64
  %272 = call dereferenceable(32) %"struct.std::array"* @_ZNSt6vectorISt5arrayIiLm8EESaIS1_EEixEm(%"class.std::vector"* @G, i64 %271) #2
  %273 = call dereferenceable(4) i32* @_ZNSt5arrayIiLm8EEixEm(%"struct.std::array"* %272, i64 1) #2
  %274 = load i32, i32* %273, align 4
  %275 = sext i32 %216 to i64
  %276 = call dereferenceable(32) %"struct.std::array"* @_ZNSt6vectorISt5arrayIiLm8EESaIS1_EEixEm(%"class.std::vector"* @G, i64 %275) #2
  %277 = call dereferenceable(4) i32* @_ZNSt5arrayIiLm8EEixEm(%"struct.std::array"* %276, i64 3) #2
  %278 = load i32, i32* %277, align 4
  invoke void @_Z4flipii(i32 %274, i32 %278)
          to label %279 unwind label %227

279:                                              ; preds = %270
  br label %280

280:                                              ; preds = %279, %269
  %281 = invoke i32 @_Z8getcolori(i32 %216)
          to label %282 unwind label %227

282:                                              ; preds = %280
  %283 = icmp sge i32 %281, 0
  br i1 %283, label %284, label %285

284:                                              ; preds = %282
  br label %287

285:                                              ; preds = %282
  call void @__assert_fail(i8* getelementptr inbounds ([7 x i8], [7 x i8]* @.str.6, i32 0, i32 0), i8* getelementptr inbounds ([71 x i8], [71 x i8]* @.str.3, i32 0, i32 0), i32 111, i8* getelementptr inbounds ([11 x i8], [11 x i8]* @__PRETTY_FUNCTION__.main, i32 0, i32 0)) #13
  unreachable

286:                                              ; No predecessors!
  br label %287

287:                                              ; preds = %286, %284
  %288 = sext i32 %216 to i64
  %289 = call dereferenceable(4) i32* @_ZNSt6vectorIiSaIiEEixEm(%"class.std::vector.0"* @colors, i64 %288) #2
  store i32 %281, i32* %289, align 4
  br label %290

290:                                              ; preds = %287, %220
  %291 = call dereferenceable(8) %"class.__gnu_cxx::__normal_iterator"* @_ZN9__gnu_cxx17__normal_iteratorIPiSt6vectorIiSaIiEEEppEv(%"class.__gnu_cxx::__normal_iterator"* %18) #2
  br label %212

292:                                              ; preds = %212
  %293 = call i32* @_ZNSt6vectorIiSaIiEE5beginEv(%"class.std::vector.0"* @colors) #2
  %294 = getelementptr inbounds %"class.__gnu_cxx::__normal_iterator", %"class.__gnu_cxx::__normal_iterator"* %23, i32 0, i32 0
  store i32* %293, i32** %294, align 8
  %295 = call i32* @_ZNSt6vectorIiSaIiEE3endEv(%"class.std::vector.0"* @colors) #2
  %296 = getelementptr inbounds %"class.__gnu_cxx::__normal_iterator", %"class.__gnu_cxx::__normal_iterator"* %24, i32 0, i32 0
  store i32* %295, i32** %296, align 8
  br label %297

297:                                              ; preds = %305, %292
  %298 = call zeroext i1 @_ZN9__gnu_cxxneIPiSt6vectorIiSaIiEEEEbRKNS_17__normal_iteratorIT_T0_EESA_(%"class.__gnu_cxx::__normal_iterator"* dereferenceable(8) %23, %"class.__gnu_cxx::__normal_iterator"* dereferenceable(8) %24) #2
  br i1 %298, label %299, label %307

299:                                              ; preds = %297
  %300 = call dereferenceable(4) i32* @_ZNK9__gnu_cxx17__normal_iteratorIPiSt6vectorIiSaIiEEEdeEv(%"class.__gnu_cxx::__normal_iterator"* %23) #2
  %301 = load i32, i32* %300, align 4
  %302 = add nsw i32 %301, 1
  %303 = invoke i32 (i8*, ...) @printf(i8* getelementptr inbounds ([4 x i8], [4 x i8]* @.str.7, i32 0, i32 0), i32 %302)
          to label %304 unwind label %227

304:                                              ; preds = %299
  br label %305

305:                                              ; preds = %304
  %306 = call dereferenceable(8) %"class.__gnu_cxx::__normal_iterator"* @_ZN9__gnu_cxx17__normal_iteratorIPiSt6vectorIiSaIiEEEppEv(%"class.__gnu_cxx::__normal_iterator"* %23) #2
  br label %297

307:                                              ; preds = %297
  call void @_ZNSt6vectorIiSaIiEED2Ev(%"class.std::vector.0"* %10) #2
  call void @_ZNSt6vectorISt4pairIiiESaIS1_EED2Ev(%"class.std::vector.5"* %4) #2
  ret i32 0

308:                                              ; preds = %227, %223, %49
  %.01 = phi i32 [ %52, %49 ], [ %230, %227 ], [ %226, %223 ]
  %.0 = phi i8* [ %51, %49 ], [ %229, %227 ], [ %225, %223 ]
  call void @_ZNSt6vectorISt4pairIiiESaIS1_EED2Ev(%"class.std::vector.5"* %4) #2
  br label %309

309:                                              ; preds = %308, %45
  %.12 = phi i32 [ %.01, %308 ], [ %48, %45 ]
  %.1 = phi i8* [ %.0, %308 ], [ %47, %45 ]
  %310 = insertvalue { i8*, i32 } undef, i8* %.1, 0
  %311 = insertvalue { i8*, i32 } %310, i32 %.12, 1
  resume { i8*, i32 } %311
}

declare i32 @scanf(i8*, ...) #5

; Function Attrs: noinline uwtable
define linkonce_odr void @_ZNSt6vectorIiSaIiEE6assignEmRKi(%"class.std::vector.0"* %0, i64 %1, i32* dereferenceable(4) %2) #0 comdat align 2 {
  call void @_ZNSt6vectorIiSaIiEE14_M_fill_assignEmRKi(%"class.std::vector.0"* %0, i64 %1, i32* dereferenceable(4) %2)
  ret void
}

; Function Attrs: noinline nounwind uwtable
define linkonce_odr void @_ZNSaISt4pairIiiEEC2Ev(%"class.std::allocator.7"* %0) unnamed_addr #1 comdat align 2 {
  %2 = bitcast %"class.std::allocator.7"* %0 to %"class.__gnu_cxx::new_allocator.8"*
  call void @_ZN9__gnu_cxx13new_allocatorISt4pairIiiEEC2Ev(%"class.__gnu_cxx::new_allocator.8"* %2) #2
  ret void
}

; Function Attrs: noinline uwtable
define linkonce_odr void @_ZNSt6vectorISt4pairIiiESaIS1_EEC2EmRKS2_(%"class.std::vector.5"* %0, i64 %1, %"class.std::allocator.7"* dereferenceable(1) %2) unnamed_addr #0 comdat align 2 personality i8* bitcast (i32 (...)* @__gxx_personality_v0 to i8*) {
  %4 = bitcast %"class.std::vector.5"* %0 to %"struct.std::_Vector_base.6"*
  call void @_ZNSt12_Vector_baseISt4pairIiiESaIS1_EEC2EmRKS2_(%"struct.std::_Vector_base.6"* %4, i64 %1, %"class.std::allocator.7"* dereferenceable(1) %2)
  invoke void @_ZNSt6vectorISt4pairIiiESaIS1_EE21_M_default_initializeEm(%"class.std::vector.5"* %0, i64 %1)
          to label %5 unwind label %6

5:                                                ; preds = %3
  ret void

6:                                                ; preds = %3
  %7 = landingpad { i8*, i32 }
          cleanup
  %8 = extractvalue { i8*, i32 } %7, 0
  %9 = extractvalue { i8*, i32 } %7, 1
  %10 = bitcast %"class.std::vector.5"* %0 to %"struct.std::_Vector_base.6"*
  call void @_ZNSt12_Vector_baseISt4pairIiiESaIS1_EED2Ev(%"struct.std::_Vector_base.6"* %10) #2
  br label %11

11:                                               ; preds = %6
  %12 = insertvalue { i8*, i32 } undef, i8* %8, 0
  %13 = insertvalue { i8*, i32 } %12, i32 %9, 1
  resume { i8*, i32 } %13
}

declare i32 @__gxx_personality_v0(...)

; Function Attrs: noinline nounwind uwtable
define linkonce_odr void @_ZNSaISt4pairIiiEED2Ev(%"class.std::allocator.7"* %0) unnamed_addr #1 comdat align 2 {
  %2 = bitcast %"class.std::allocator.7"* %0 to %"class.__gnu_cxx::new_allocator.8"*
  call void @_ZN9__gnu_cxx13new_allocatorISt4pairIiiEED2Ev(%"class.__gnu_cxx::new_allocator.8"* %2) #2
  ret void
}

; Function Attrs: noinline nounwind uwtable
define linkonce_odr dereferenceable(8) %"struct.std::pair"* @_ZNSt6vectorISt4pairIiiESaIS1_EEixEm(%"class.std::vector.5"* %0, i64 %1) #1 comdat align 2 {
  %3 = bitcast %"class.std::vector.5"* %0 to %"struct.std::_Vector_base.6"*
  %4 = getelementptr inbounds %"struct.std::_Vector_base.6", %"struct.std::_Vector_base.6"* %3, i32 0, i32 0
  %5 = getelementptr inbounds %"struct.std::_Vector_base<std::pair<int, int>, std::allocator<std::pair<int, int> > >::_Vector_impl", %"struct.std::_Vector_base<std::pair<int, int>, std::allocator<std::pair<int, int> > >::_Vector_impl"* %4, i32 0, i32 0
  %6 = load %"struct.std::pair"*, %"struct.std::pair"** %5, align 8
  %7 = getelementptr inbounds %"struct.std::pair", %"struct.std::pair"* %6, i64 %1
  ret %"struct.std::pair"* %7
}

; Function Attrs: noinline nounwind uwtable
define linkonce_odr void @_ZSt4fillIPiiEvT_S1_RKT0_(i32* %0, i32* %1, i32* dereferenceable(4) %2) #1 comdat {
  %4 = call i32* @_ZSt12__niter_baseIPiET_S1_(i32* %0)
  %5 = call i32* @_ZSt12__niter_baseIPiET_S1_(i32* %1)
  call void @_ZSt8__fill_aIPiiEN9__gnu_cxx11__enable_ifIXsr11__is_scalarIT0_EE7__valueEvE6__typeET_S6_RKS3_(i32* %4, i32* %5, i32* dereferenceable(4) %2)
  ret void
}

; Function Attrs: noinline uwtable
define linkonce_odr void @_ZNSt6vectorISt5arrayIiLm8EESaIS1_EE6assignEmRKS1_(%"class.std::vector"* %0, i64 %1, %"struct.std::array"* dereferenceable(32) %2) #0 comdat align 2 {
  call void @_ZNSt6vectorISt5arrayIiLm8EESaIS1_EE14_M_fill_assignEmRKS1_(%"class.std::vector"* %0, i64 %1, %"struct.std::array"* dereferenceable(32) %2)
  ret void
}

; Function Attrs: noinline nounwind uwtable
define linkonce_odr dereferenceable(4) i32* @_ZNSt5arrayIiLm8EEixEm(%"struct.std::array"* %0, i64 %1) #1 comdat align 2 {
  %3 = getelementptr inbounds %"struct.std::array", %"struct.std::array"* %0, i32 0, i32 0
  %4 = call dereferenceable(4) i32* @_ZNSt14__array_traitsIiLm8EE6_S_refERA8_Kim([8 x i32]* dereferenceable(32) %3, i64 %1) #2
  ret i32* %4
}

; Function Attrs: noinline nounwind uwtable
define linkonce_odr void @_ZNSaIiEC2Ev(%"class.std::allocator.2"* %0) unnamed_addr #1 comdat align 2 {
  %2 = bitcast %"class.std::allocator.2"* %0 to %"class.__gnu_cxx::new_allocator.3"*
  call void @_ZN9__gnu_cxx13new_allocatorIiEC2Ev(%"class.__gnu_cxx::new_allocator.3"* %2) #2
  ret void
}

; Function Attrs: noinline uwtable
define linkonce_odr void @_ZNSt6vectorIiSaIiEEC2EmRKS0_(%"class.std::vector.0"* %0, i64 %1, %"class.std::allocator.2"* dereferenceable(1) %2) unnamed_addr #0 comdat align 2 personality i8* bitcast (i32 (...)* @__gxx_personality_v0 to i8*) {
  %4 = bitcast %"class.std::vector.0"* %0 to %"struct.std::_Vector_base.1"*
  call void @_ZNSt12_Vector_baseIiSaIiEEC2EmRKS0_(%"struct.std::_Vector_base.1"* %4, i64 %1, %"class.std::allocator.2"* dereferenceable(1) %2)
  invoke void @_ZNSt6vectorIiSaIiEE21_M_default_initializeEm(%"class.std::vector.0"* %0, i64 %1)
          to label %5 unwind label %6

5:                                                ; preds = %3
  ret void

6:                                                ; preds = %3
  %7 = landingpad { i8*, i32 }
          cleanup
  %8 = extractvalue { i8*, i32 } %7, 0
  %9 = extractvalue { i8*, i32 } %7, 1
  %10 = bitcast %"class.std::vector.0"* %0 to %"struct.std::_Vector_base.1"*
  call void @_ZNSt12_Vector_baseIiSaIiEED2Ev(%"struct.std::_Vector_base.1"* %10) #2
  br label %11

11:                                               ; preds = %6
  %12 = insertvalue { i8*, i32 } undef, i8* %8, 0
  %13 = insertvalue { i8*, i32 } %12, i32 %9, 1
  resume { i8*, i32 } %13
}

; Function Attrs: noinline nounwind uwtable
define linkonce_odr void @_ZNSaIiED2Ev(%"class.std::allocator.2"* %0) unnamed_addr #1 comdat align 2 {
  %2 = bitcast %"class.std::allocator.2"* %0 to %"class.__gnu_cxx::new_allocator.3"*
  call void @_ZN9__gnu_cxx13new_allocatorIiED2Ev(%"class.__gnu_cxx::new_allocator.3"* %2) #2
  ret void
}

; Function Attrs: noinline nounwind uwtable
define linkonce_odr void @_ZSt4iotaIN9__gnu_cxx17__normal_iteratorIPiSt6vectorIiSaIiEEEEiEvT_S7_T0_(i32* %0, i32* %1, i32 %2) #1 comdat {
  %4 = alloca %"class.__gnu_cxx::__normal_iterator", align 8
  %5 = alloca %"class.__gnu_cxx::__normal_iterator", align 8
  %6 = getelementptr inbounds %"class.__gnu_cxx::__normal_iterator", %"class.__gnu_cxx::__normal_iterator"* %4, i32 0, i32 0
  store i32* %0, i32** %6, align 8
  %7 = getelementptr inbounds %"class.__gnu_cxx::__normal_iterator", %"class.__gnu_cxx::__normal_iterator"* %5, i32 0, i32 0
  store i32* %1, i32** %7, align 8
  br label %8

8:                                                ; preds = %13, %3
  %.0 = phi i32 [ %2, %3 ], [ %12, %13 ]
  %9 = call zeroext i1 @_ZN9__gnu_cxxneIPiSt6vectorIiSaIiEEEEbRKNS_17__normal_iteratorIT_T0_EESA_(%"class.__gnu_cxx::__normal_iterator"* dereferenceable(8) %4, %"class.__gnu_cxx::__normal_iterator"* dereferenceable(8) %5) #2
  br i1 %9, label %10, label %15

10:                                               ; preds = %8
  %11 = call dereferenceable(4) i32* @_ZNK9__gnu_cxx17__normal_iteratorIPiSt6vectorIiSaIiEEEdeEv(%"class.__gnu_cxx::__normal_iterator"* %4) #2
  store i32 %.0, i32* %11, align 4
  %12 = add nsw i32 %.0, 1
  br label %13

13:                                               ; preds = %10
  %14 = call dereferenceable(8) %"class.__gnu_cxx::__normal_iterator"* @_ZN9__gnu_cxx17__normal_iteratorIPiSt6vectorIiSaIiEEEppEv(%"class.__gnu_cxx::__normal_iterator"* %4) #2
  br label %8

15:                                               ; preds = %8
  ret void
}

; Function Attrs: noinline nounwind uwtable
define linkonce_odr i32* @_ZNSt6vectorIiSaIiEE5beginEv(%"class.std::vector.0"* %0) #1 comdat align 2 {
  %2 = alloca %"class.__gnu_cxx::__normal_iterator", align 8
  %3 = bitcast %"class.std::vector.0"* %0 to %"struct.std::_Vector_base.1"*
  %4 = getelementptr inbounds %"struct.std::_Vector_base.1", %"struct.std::_Vector_base.1"* %3, i32 0, i32 0
  %5 = getelementptr inbounds %"struct.std::_Vector_base<int, std::allocator<int> >::_Vector_impl", %"struct.std::_Vector_base<int, std::allocator<int> >::_Vector_impl"* %4, i32 0, i32 0
  call void @_ZN9__gnu_cxx17__normal_iteratorIPiSt6vectorIiSaIiEEEC2ERKS1_(%"class.__gnu_cxx::__normal_iterator"* %2, i32** dereferenceable(8) %5) #2
  %6 = getelementptr inbounds %"class.__gnu_cxx::__normal_iterator", %"class.__gnu_cxx::__normal_iterator"* %2, i32 0, i32 0
  %7 = load i32*, i32** %6, align 8
  ret i32* %7
}

; Function Attrs: noinline nounwind uwtable
define linkonce_odr i32* @_ZNSt6vectorIiSaIiEE3endEv(%"class.std::vector.0"* %0) #1 comdat align 2 {
  %2 = alloca %"class.__gnu_cxx::__normal_iterator", align 8
  %3 = bitcast %"class.std::vector.0"* %0 to %"struct.std::_Vector_base.1"*
  %4 = getelementptr inbounds %"struct.std::_Vector_base.1", %"struct.std::_Vector_base.1"* %3, i32 0, i32 0
  %5 = getelementptr inbounds %"struct.std::_Vector_base<int, std::allocator<int> >::_Vector_impl", %"struct.std::_Vector_base<int, std::allocator<int> >::_Vector_impl"* %4, i32 0, i32 1
  call void @_ZN9__gnu_cxx17__normal_iteratorIPiSt6vectorIiSaIiEEEC2ERKS1_(%"class.__gnu_cxx::__normal_iterator"* %2, i32** dereferenceable(8) %5) #2
  %6 = getelementptr inbounds %"class.__gnu_cxx::__normal_iterator", %"class.__gnu_cxx::__normal_iterator"* %2, i32 0, i32 0
  %7 = load i32*, i32** %6, align 8
  ret i32* %7
}

; Function Attrs: noinline uwtable
define internal void @"_ZSt4sortIN9__gnu_cxx17__normal_iteratorIPiSt6vectorIiSaIiEEEEZ4mainE3$_1EvT_S8_T0_"(i32* %0, i32* %1, %"class.std::vector.5"* %2) #0 {
  %4 = alloca %"class.__gnu_cxx::__normal_iterator", align 8
  %5 = alloca %"class.__gnu_cxx::__normal_iterator", align 8
  %6 = alloca %class.anon.10, align 8
  %7 = alloca %"class.__gnu_cxx::__normal_iterator", align 8
  %8 = alloca %"class.__gnu_cxx::__normal_iterator", align 8
  %9 = alloca %"struct.__gnu_cxx::__ops::_Iter_comp_iter", align 8
  %10 = alloca %class.anon.10, align 8
  %11 = getelementptr inbounds %"class.__gnu_cxx::__normal_iterator", %"class.__gnu_cxx::__normal_iterator"* %4, i32 0, i32 0
  store i32* %0, i32** %11, align 8
  %12 = getelementptr inbounds %"class.__gnu_cxx::__normal_iterator", %"class.__gnu_cxx::__normal_iterator"* %5, i32 0, i32 0
  store i32* %1, i32** %12, align 8
  %13 = getelementptr inbounds %class.anon.10, %class.anon.10* %6, i32 0, i32 0
  store %"class.std::vector.5"* %2, %"class.std::vector.5"** %13, align 8
  %14 = bitcast %"class.__gnu_cxx::__normal_iterator"* %7 to i8*
  %15 = bitcast %"class.__gnu_cxx::__normal_iterator"* %4 to i8*
  call void @llvm.memcpy.p0i8.p0i8.i64(i8* align 8 %14, i8* align 8 %15, i64 8, i1 false)
  %16 = bitcast %"class.__gnu_cxx::__normal_iterator"* %8 to i8*
  %17 = bitcast %"class.__gnu_cxx::__normal_iterator"* %5 to i8*
  call void @llvm.memcpy.p0i8.p0i8.i64(i8* align 8 %16, i8* align 8 %17, i64 8, i1 false)
  %18 = bitcast %class.anon.10* %10 to i8*
  %19 = bitcast %class.anon.10* %6 to i8*
  call void @llvm.memcpy.p0i8.p0i8.i64(i8* align 8 %18, i8* align 8 %19, i64 8, i1 false)
  %20 = getelementptr inbounds %class.anon.10, %class.anon.10* %10, i32 0, i32 0
  %21 = load %"class.std::vector.5"*, %"class.std::vector.5"** %20, align 8
  %22 = call %"class.std::vector.5"* @"_ZN9__gnu_cxx5__ops16__iter_comp_iterIZ4mainE3$_1EENS0_15_Iter_comp_iterIT_EES4_"(%"class.std::vector.5"* %21)
  %23 = getelementptr inbounds %"struct.__gnu_cxx::__ops::_Iter_comp_iter", %"struct.__gnu_cxx::__ops::_Iter_comp_iter"* %9, i32 0, i32 0
  %24 = getelementptr inbounds %class.anon.10, %class.anon.10* %23, i32 0, i32 0
  store %"class.std::vector.5"* %22, %"class.std::vector.5"** %24, align 8
  %25 = getelementptr inbounds %"class.__gnu_cxx::__normal_iterator", %"class.__gnu_cxx::__normal_iterator"* %7, i32 0, i32 0
  %26 = load i32*, i32** %25, align 8
  %27 = getelementptr inbounds %"class.__gnu_cxx::__normal_iterator", %"class.__gnu_cxx::__normal_iterator"* %8, i32 0, i32 0
  %28 = load i32*, i32** %27, align 8
  %29 = getelementptr inbounds %"struct.__gnu_cxx::__ops::_Iter_comp_iter", %"struct.__gnu_cxx::__ops::_Iter_comp_iter"* %9, i32 0, i32 0
  %30 = getelementptr inbounds %class.anon.10, %class.anon.10* %29, i32 0, i32 0
  %31 = load %"class.std::vector.5"*, %"class.std::vector.5"** %30, align 8
  call void @"_ZSt6__sortIN9__gnu_cxx17__normal_iteratorIPiSt6vectorIiSaIiEEEENS0_5__ops15_Iter_comp_iterIZ4mainE3$_1EEEvT_SB_T0_"(i32* %26, i32* %28, %"class.std::vector.5"* %31)
  ret void
}

; Function Attrs: noinline nounwind uwtable
define linkonce_odr zeroext i1 @_ZN9__gnu_cxxneIPiSt6vectorIiSaIiEEEEbRKNS_17__normal_iteratorIT_T0_EESA_(%"class.__gnu_cxx::__normal_iterator"* dereferenceable(8) %0, %"class.__gnu_cxx::__normal_iterator"* dereferenceable(8) %1) #1 comdat {
  %3 = call dereferenceable(8) i32** @_ZNK9__gnu_cxx17__normal_iteratorIPiSt6vectorIiSaIiEEE4baseEv(%"class.__gnu_cxx::__normal_iterator"* %0) #2
  %4 = load i32*, i32** %3, align 8
  %5 = call dereferenceable(8) i32** @_ZNK9__gnu_cxx17__normal_iteratorIPiSt6vectorIiSaIiEEE4baseEv(%"class.__gnu_cxx::__normal_iterator"* %1) #2
  %6 = load i32*, i32** %5, align 8
  %7 = icmp ne i32* %4, %6
  ret i1 %7
}

; Function Attrs: noinline nounwind uwtable
define linkonce_odr dereferenceable(4) i32* @_ZNK9__gnu_cxx17__normal_iteratorIPiSt6vectorIiSaIiEEEdeEv(%"class.__gnu_cxx::__normal_iterator"* %0) #1 comdat align 2 {
  %2 = getelementptr inbounds %"class.__gnu_cxx::__normal_iterator", %"class.__gnu_cxx::__normal_iterator"* %0, i32 0, i32 0
  %3 = load i32*, i32** %2, align 8
  ret i32* %3
}

; Function Attrs: noinline uwtable
define internal void @"_Z3dfsIZ4mainE3$_2EviiiT_"(i32 %0, i32 %1, i32 %2, i8* %3, i32* %4) #0 personality i8* bitcast (i32 (...)* @__gxx_personality_v0 to i8*) {
  %6 = alloca %class.anon.11, align 8
  %7 = alloca i32, align 4
  %8 = alloca %"class.std::vector.0", align 8
  %9 = alloca i32, align 4
  %10 = bitcast %class.anon.11* %6 to { i8*, i32* }*
  %11 = getelementptr inbounds { i8*, i32* }, { i8*, i32* }* %10, i32 0, i32 0
  store i8* %3, i8** %11, align 8
  %12 = getelementptr inbounds { i8*, i32* }, { i8*, i32* }* %10, i32 0, i32 1
  store i32* %4, i32** %12, align 8
  store i32 %0, i32* %7, align 4
  %13 = load i32, i32* @gen, align 4
  %14 = add nsw i32 %13, 1
  store i32 %14, i32* @gen, align 4
  call void @_ZNSt6vectorIiSaIiEEC2Ev(%"class.std::vector.0"* %8) #2
  invoke void @_ZNSt6vectorIiSaIiEE9push_backERKi(%"class.std::vector.0"* %8, i32* dereferenceable(4) %7)
          to label %15 unwind label %64

15:                                               ; preds = %5
  %16 = load i32, i32* @gen, align 4
  %17 = load i32, i32* %7, align 4
  %18 = sext i32 %17 to i64
  %19 = call dereferenceable(4) i32* @_ZNSt6vectorIiSaIiEEixEm(%"class.std::vector.0"* @gens, i64 %18) #2
  store i32 %16, i32* %19, align 4
  br label %20

20:                                               ; preds = %71, %15
  %21 = call zeroext i1 @_ZNKSt6vectorIiSaIiEE5emptyEv(%"class.std::vector.0"* %8) #2
  %22 = xor i1 %21, true
  br i1 %22, label %23, label %72

23:                                               ; preds = %20
  %24 = call dereferenceable(4) i32* @_ZNSt6vectorIiSaIiEE4backEv(%"class.std::vector.0"* %8) #2
  %25 = load i32, i32* %24, align 4
  store i32 %25, i32* %7, align 4
  call void @_ZNSt6vectorIiSaIiEE8pop_backEv(%"class.std::vector.0"* %8) #2
  %26 = load i32, i32* %7, align 4
  invoke void @"_ZZ4mainENK3$_2clEi"(%class.anon.11* %6, i32 %26)
          to label %27 unwind label %64

27:                                               ; preds = %23
  %28 = load i32, i32* %7, align 4
  %29 = sext i32 %28 to i64
  %30 = call dereferenceable(32) %"struct.std::array"* @_ZNSt6vectorISt5arrayIiLm8EESaIS1_EEixEm(%"class.std::vector"* @G, i64 %29) #2
  %31 = call i32* @_ZNSt5arrayIiLm8EE5beginEv(%"struct.std::array"* %30) #2
  %32 = call i32* @_ZNSt5arrayIiLm8EE3endEv(%"struct.std::array"* %30) #2
  br label %33

33:                                               ; preds = %69, %27
  %.0 = phi i32* [ %31, %27 ], [ %70, %69 ]
  %34 = icmp ne i32* %.0, %32
  br i1 %34, label %35, label %71

35:                                               ; preds = %33
  %36 = load i32, i32* %.0, align 4
  store i32 %36, i32* %9, align 4
  %37 = load i32, i32* %9, align 4
  %38 = icmp sge i32 %37, 0
  br i1 %38, label %39, label %68

39:                                               ; preds = %35
  %40 = load i32, i32* %9, align 4
  %41 = sext i32 %40 to i64
  %42 = call dereferenceable(4) i32* @_ZNSt6vectorIiSaIiEEixEm(%"class.std::vector.0"* @gens, i64 %41) #2
  %43 = load i32, i32* %42, align 4
  %44 = load i32, i32* @gen, align 4
  %45 = icmp ne i32 %43, %44
  br i1 %45, label %46, label %68

46:                                               ; preds = %39
  %47 = load i32, i32* %9, align 4
  %48 = sext i32 %47 to i64
  %49 = call dereferenceable(4) i32* @_ZNSt6vectorIiSaIiEEixEm(%"class.std::vector.0"* @colors, i64 %48) #2
  %50 = load i32, i32* %49, align 4
  %51 = icmp eq i32 %50, %1
  br i1 %51, label %58, label %52

52:                                               ; preds = %46
  %53 = load i32, i32* %9, align 4
  %54 = sext i32 %53 to i64
  %55 = call dereferenceable(4) i32* @_ZNSt6vectorIiSaIiEEixEm(%"class.std::vector.0"* @colors, i64 %54) #2
  %56 = load i32, i32* %55, align 4
  %57 = icmp eq i32 %56, %2
  br i1 %57, label %58, label %68

58:                                               ; preds = %52, %46
  %59 = load i32, i32* @gen, align 4
  %60 = load i32, i32* %9, align 4
  %61 = sext i32 %60 to i64
  %62 = call dereferenceable(4) i32* @_ZNSt6vectorIiSaIiEEixEm(%"class.std::vector.0"* @gens, i64 %61) #2
  store i32 %59, i32* %62, align 4
  invoke void @_ZNSt6vectorIiSaIiEE9push_backERKi(%"class.std::vector.0"* %8, i32* dereferenceable(4) %9)
          to label %63 unwind label %64

63:                                               ; preds = %58
  br label %68

64:                                               ; preds = %58, %23, %5
  %65 = landingpad { i8*, i32 }
          cleanup
  %66 = extractvalue { i8*, i32 } %65, 0
  %67 = extractvalue { i8*, i32 } %65, 1
  call void @_ZNSt6vectorIiSaIiEED2Ev(%"class.std::vector.0"* %8) #2
  br label %73

68:                                               ; preds = %63, %52, %39, %35
  br label %69

69:                                               ; preds = %68
  %70 = getelementptr inbounds i32, i32* %.0, i32 1
  br label %33

71:                                               ; preds = %33
  br label %20

72:                                               ; preds = %20
  call void @_ZNSt6vectorIiSaIiEED2Ev(%"class.std::vector.0"* %8) #2
  ret void

73:                                               ; preds = %64
  %74 = insertvalue { i8*, i32 } undef, i8* %66, 0
  %75 = insertvalue { i8*, i32 } %74, i32 %67, 1
  resume { i8*, i32 } %75
}

; Function Attrs: noinline nounwind uwtable
define linkonce_odr dereferenceable(8) %"class.__gnu_cxx::__normal_iterator"* @_ZN9__gnu_cxx17__normal_iteratorIPiSt6vectorIiSaIiEEEppEv(%"class.__gnu_cxx::__normal_iterator"* %0) #1 comdat align 2 {
  %2 = getelementptr inbounds %"class.__gnu_cxx::__normal_iterator", %"class.__gnu_cxx::__normal_iterator"* %0, i32 0, i32 0
  %3 = load i32*, i32** %2, align 8
  %4 = getelementptr inbounds i32, i32* %3, i32 1
  store i32* %4, i32** %2, align 8
  ret %"class.__gnu_cxx::__normal_iterator"* %0
}

declare i32 @printf(i8*, ...) #5

; Function Attrs: noinline nounwind uwtable
define linkonce_odr void @_ZNSt6vectorISt4pairIiiESaIS1_EED2Ev(%"class.std::vector.5"* %0) unnamed_addr #1 comdat align 2 personality i8* bitcast (i32 (...)* @__gxx_personality_v0 to i8*) {
  %2 = bitcast %"class.std::vector.5"* %0 to %"struct.std::_Vector_base.6"*
  %3 = getelementptr inbounds %"struct.std::_Vector_base.6", %"struct.std::_Vector_base.6"* %2, i32 0, i32 0
  %4 = getelementptr inbounds %"struct.std::_Vector_base<std::pair<int, int>, std::allocator<std::pair<int, int> > >::_Vector_impl", %"struct.std::_Vector_base<std::pair<int, int>, std::allocator<std::pair<int, int> > >::_Vector_impl"* %3, i32 0, i32 0
  %5 = load %"struct.std::pair"*, %"struct.std::pair"** %4, align 8
  %6 = bitcast %"class.std::vector.5"* %0 to %"struct.std::_Vector_base.6"*
  %7 = getelementptr inbounds %"struct.std::_Vector_base.6", %"struct.std::_Vector_base.6"* %6, i32 0, i32 0
  %8 = getelementptr inbounds %"struct.std::_Vector_base<std::pair<int, int>, std::allocator<std::pair<int, int> > >::_Vector_impl", %"struct.std::_Vector_base<std::pair<int, int>, std::allocator<std::pair<int, int> > >::_Vector_impl"* %7, i32 0, i32 1
  %9 = load %"struct.std::pair"*, %"struct.std::pair"** %8, align 8
  %10 = bitcast %"class.std::vector.5"* %0 to %"struct.std::_Vector_base.6"*
  %11 = call dereferenceable(1) %"class.std::allocator.7"* @_ZNSt12_Vector_baseISt4pairIiiESaIS1_EE19_M_get_Tp_allocatorEv(%"struct.std::_Vector_base.6"* %10) #2
  invoke void @_ZSt8_DestroyIPSt4pairIiiES1_EvT_S3_RSaIT0_E(%"struct.std::pair"* %5, %"struct.std::pair"* %9, %"class.std::allocator.7"* dereferenceable(1) %11)
          to label %12 unwind label %14

12:                                               ; preds = %1
  %13 = bitcast %"class.std::vector.5"* %0 to %"struct.std::_Vector_base.6"*
  call void @_ZNSt12_Vector_baseISt4pairIiiESaIS1_EED2Ev(%"struct.std::_Vector_base.6"* %13) #2
  ret void

14:                                               ; preds = %1
  %15 = landingpad { i8*, i32 }
          catch i8* null
  %16 = extractvalue { i8*, i32 } %15, 0
  %17 = extractvalue { i8*, i32 } %15, 1
  %18 = bitcast %"class.std::vector.5"* %0 to %"struct.std::_Vector_base.6"*
  call void @_ZNSt12_Vector_baseISt4pairIiiESaIS1_EED2Ev(%"struct.std::_Vector_base.6"* %18) #2
  br label %19

19:                                               ; preds = %14
  call void @__clang_call_terminate(i8* %16) #13
  unreachable
}

; Function Attrs: noinline uwtable
define linkonce_odr void @_ZNSt12_Vector_baseISt5arrayIiLm8EESaIS1_EEC2Ev(%"struct.std::_Vector_base"* %0) unnamed_addr #0 comdat align 2 {
  %2 = getelementptr inbounds %"struct.std::_Vector_base", %"struct.std::_Vector_base"* %0, i32 0, i32 0
  call void @_ZNSt12_Vector_baseISt5arrayIiLm8EESaIS1_EE12_Vector_implC2Ev(%"struct.std::_Vector_base<std::array<int, 8>, std::allocator<std::array<int, 8> > >::_Vector_impl"* %2)
  ret void
}

; Function Attrs: noinline noreturn nounwind
define linkonce_odr hidden void @__clang_call_terminate(i8* %0) #6 comdat {
  %2 = call i8* @__cxa_begin_catch(i8* %0) #2
  call void @_ZSt9terminatev() #13
  unreachable
}

declare i8* @__cxa_begin_catch(i8*)

declare void @_ZSt9terminatev()

; Function Attrs: noinline nounwind uwtable
define linkonce_odr void @_ZNSt12_Vector_baseISt5arrayIiLm8EESaIS1_EE12_Vector_implC2Ev(%"struct.std::_Vector_base<std::array<int, 8>, std::allocator<std::array<int, 8> > >::_Vector_impl"* %0) unnamed_addr #1 comdat align 2 {
  %2 = bitcast %"struct.std::_Vector_base<std::array<int, 8>, std::allocator<std::array<int, 8> > >::_Vector_impl"* %0 to %"class.std::allocator"*
  call void @_ZNSaISt5arrayIiLm8EEEC2Ev(%"class.std::allocator"* %2) #2
  %3 = getelementptr inbounds %"struct.std::_Vector_base<std::array<int, 8>, std::allocator<std::array<int, 8> > >::_Vector_impl", %"struct.std::_Vector_base<std::array<int, 8>, std::allocator<std::array<int, 8> > >::_Vector_impl"* %0, i32 0, i32 0
  store %"struct.std::array"* null, %"struct.std::array"** %3, align 8
  %4 = getelementptr inbounds %"struct.std::_Vector_base<std::array<int, 8>, std::allocator<std::array<int, 8> > >::_Vector_impl", %"struct.std::_Vector_base<std::array<int, 8>, std::allocator<std::array<int, 8> > >::_Vector_impl"* %0, i32 0, i32 1
  store %"struct.std::array"* null, %"struct.std::array"** %4, align 8
  %5 = getelementptr inbounds %"struct.std::_Vector_base<std::array<int, 8>, std::allocator<std::array<int, 8> > >::_Vector_impl", %"struct.std::_Vector_base<std::array<int, 8>, std::allocator<std::array<int, 8> > >::_Vector_impl"* %0, i32 0, i32 2
  store %"struct.std::array"* null, %"struct.std::array"** %5, align 8
  ret void
}

; Function Attrs: noinline nounwind uwtable
define linkonce_odr void @_ZNSaISt5arrayIiLm8EEEC2Ev(%"class.std::allocator"* %0) unnamed_addr #1 comdat align 2 {
  %2 = bitcast %"class.std::allocator"* %0 to %"class.__gnu_cxx::new_allocator"*
  call void @_ZN9__gnu_cxx13new_allocatorISt5arrayIiLm8EEEC2Ev(%"class.__gnu_cxx::new_allocator"* %2) #2
  ret void
}

; Function Attrs: noinline nounwind uwtable
define linkonce_odr void @_ZN9__gnu_cxx13new_allocatorISt5arrayIiLm8EEEC2Ev(%"class.__gnu_cxx::new_allocator"* %0) unnamed_addr #1 comdat align 2 {
  ret void
}

; Function Attrs: noinline uwtable
define linkonce_odr void @_ZSt8_DestroyIPSt5arrayIiLm8EES1_EvT_S3_RSaIT0_E(%"struct.std::array"* %0, %"struct.std::array"* %1, %"class.std::allocator"* dereferenceable(1) %2) #0 comdat {
  call void @_ZSt8_DestroyIPSt5arrayIiLm8EEEvT_S3_(%"struct.std::array"* %0, %"struct.std::array"* %1)
  ret void
}

; Function Attrs: noinline nounwind uwtable
define linkonce_odr dereferenceable(1) %"class.std::allocator"* @_ZNSt12_Vector_baseISt5arrayIiLm8EESaIS1_EE19_M_get_Tp_allocatorEv(%"struct.std::_Vector_base"* %0) #1 comdat align 2 {
  %2 = getelementptr inbounds %"struct.std::_Vector_base", %"struct.std::_Vector_base"* %0, i32 0, i32 0
  %3 = bitcast %"struct.std::_Vector_base<std::array<int, 8>, std::allocator<std::array<int, 8> > >::_Vector_impl"* %2 to %"class.std::allocator"*
  ret %"class.std::allocator"* %3
}

; Function Attrs: noinline nounwind uwtable
define linkonce_odr void @_ZNSt12_Vector_baseISt5arrayIiLm8EESaIS1_EED2Ev(%"struct.std::_Vector_base"* %0) unnamed_addr #1 comdat align 2 personality i8* bitcast (i32 (...)* @__gxx_personality_v0 to i8*) {
  %2 = getelementptr inbounds %"struct.std::_Vector_base", %"struct.std::_Vector_base"* %0, i32 0, i32 0
  %3 = getelementptr inbounds %"struct.std::_Vector_base<std::array<int, 8>, std::allocator<std::array<int, 8> > >::_Vector_impl", %"struct.std::_Vector_base<std::array<int, 8>, std::allocator<std::array<int, 8> > >::_Vector_impl"* %2, i32 0, i32 0
  %4 = load %"struct.std::array"*, %"struct.std::array"** %3, align 8
  %5 = getelementptr inbounds %"struct.std::_Vector_base", %"struct.std::_Vector_base"* %0, i32 0, i32 0
  %6 = getelementptr inbounds %"struct.std::_Vector_base<std::array<int, 8>, std::allocator<std::array<int, 8> > >::_Vector_impl", %"struct.std::_Vector_base<std::array<int, 8>, std::allocator<std::array<int, 8> > >::_Vector_impl"* %5, i32 0, i32 2
  %7 = load %"struct.std::array"*, %"struct.std::array"** %6, align 8
  %8 = getelementptr inbounds %"struct.std::_Vector_base", %"struct.std::_Vector_base"* %0, i32 0, i32 0
  %9 = getelementptr inbounds %"struct.std::_Vector_base<std::array<int, 8>, std::allocator<std::array<int, 8> > >::_Vector_impl", %"struct.std::_Vector_base<std::array<int, 8>, std::allocator<std::array<int, 8> > >::_Vector_impl"* %8, i32 0, i32 0
  %10 = load %"struct.std::array"*, %"struct.std::array"** %9, align 8
  %11 = ptrtoint %"struct.std::array"* %7 to i64
  %12 = ptrtoint %"struct.std::array"* %10 to i64
  %13 = sub i64 %11, %12
  %14 = sdiv exact i64 %13, 32
  invoke void @_ZNSt12_Vector_baseISt5arrayIiLm8EESaIS1_EE13_M_deallocateEPS1_m(%"struct.std::_Vector_base"* %0, %"struct.std::array"* %4, i64 %14)
          to label %15 unwind label %17

15:                                               ; preds = %1
  %16 = getelementptr inbounds %"struct.std::_Vector_base", %"struct.std::_Vector_base"* %0, i32 0, i32 0
  call void @_ZNSt12_Vector_baseISt5arrayIiLm8EESaIS1_EE12_Vector_implD2Ev(%"struct.std::_Vector_base<std::array<int, 8>, std::allocator<std::array<int, 8> > >::_Vector_impl"* %16) #2
  ret void

17:                                               ; preds = %1
  %18 = landingpad { i8*, i32 }
          catch i8* null
  %19 = extractvalue { i8*, i32 } %18, 0
  %20 = extractvalue { i8*, i32 } %18, 1
  %21 = getelementptr inbounds %"struct.std::_Vector_base", %"struct.std::_Vector_base"* %0, i32 0, i32 0
  call void @_ZNSt12_Vector_baseISt5arrayIiLm8EESaIS1_EE12_Vector_implD2Ev(%"struct.std::_Vector_base<std::array<int, 8>, std::allocator<std::array<int, 8> > >::_Vector_impl"* %21) #2
  br label %22

22:                                               ; preds = %17
  call void @__clang_call_terminate(i8* %19) #13
  unreachable
}

; Function Attrs: noinline uwtable
define linkonce_odr void @_ZSt8_DestroyIPSt5arrayIiLm8EEEvT_S3_(%"struct.std::array"* %0, %"struct.std::array"* %1) #0 comdat {
  call void @_ZNSt12_Destroy_auxILb1EE9__destroyIPSt5arrayIiLm8EEEEvT_S5_(%"struct.std::array"* %0, %"struct.std::array"* %1)
  ret void
}

; Function Attrs: noinline nounwind uwtable
define linkonce_odr void @_ZNSt12_Destroy_auxILb1EE9__destroyIPSt5arrayIiLm8EEEEvT_S5_(%"struct.std::array"* %0, %"struct.std::array"* %1) #1 comdat align 2 {
  ret void
}

; Function Attrs: noinline uwtable
define linkonce_odr void @_ZNSt12_Vector_baseISt5arrayIiLm8EESaIS1_EE13_M_deallocateEPS1_m(%"struct.std::_Vector_base"* %0, %"struct.std::array"* %1, i64 %2) #0 comdat align 2 {
  %4 = icmp ne %"struct.std::array"* %1, null
  br i1 %4, label %5, label %8

5:                                                ; preds = %3
  %6 = getelementptr inbounds %"struct.std::_Vector_base", %"struct.std::_Vector_base"* %0, i32 0, i32 0
  %7 = bitcast %"struct.std::_Vector_base<std::array<int, 8>, std::allocator<std::array<int, 8> > >::_Vector_impl"* %6 to %"class.std::allocator"*
  call void @_ZNSt16allocator_traitsISaISt5arrayIiLm8EEEE10deallocateERS2_PS1_m(%"class.std::allocator"* dereferenceable(1) %7, %"struct.std::array"* %1, i64 %2)
  br label %8

8:                                                ; preds = %5, %3
  ret void
}

; Function Attrs: noinline nounwind uwtable
define linkonce_odr void @_ZNSt12_Vector_baseISt5arrayIiLm8EESaIS1_EE12_Vector_implD2Ev(%"struct.std::_Vector_base<std::array<int, 8>, std::allocator<std::array<int, 8> > >::_Vector_impl"* %0) unnamed_addr #1 comdat align 2 {
  %2 = bitcast %"struct.std::_Vector_base<std::array<int, 8>, std::allocator<std::array<int, 8> > >::_Vector_impl"* %0 to %"class.std::allocator"*
  call void @_ZNSaISt5arrayIiLm8EEED2Ev(%"class.std::allocator"* %2) #2
  ret void
}

; Function Attrs: noinline uwtable
define linkonce_odr void @_ZNSt16allocator_traitsISaISt5arrayIiLm8EEEE10deallocateERS2_PS1_m(%"class.std::allocator"* dereferenceable(1) %0, %"struct.std::array"* %1, i64 %2) #0 comdat align 2 {
  %4 = bitcast %"class.std::allocator"* %0 to %"class.__gnu_cxx::new_allocator"*
  call void @_ZN9__gnu_cxx13new_allocatorISt5arrayIiLm8EEE10deallocateEPS2_m(%"class.__gnu_cxx::new_allocator"* %4, %"struct.std::array"* %1, i64 %2)
  ret void
}

; Function Attrs: noinline nounwind uwtable
define linkonce_odr void @_ZN9__gnu_cxx13new_allocatorISt5arrayIiLm8EEE10deallocateEPS2_m(%"class.__gnu_cxx::new_allocator"* %0, %"struct.std::array"* %1, i64 %2) #1 comdat align 2 {
  %4 = bitcast %"struct.std::array"* %1 to i8*
  call void @_ZdlPv(i8* %4) #2
  ret void
}

; Function Attrs: nobuiltin nounwind
declare void @_ZdlPv(i8*) #7

; Function Attrs: noinline nounwind uwtable
define linkonce_odr void @_ZNSaISt5arrayIiLm8EEED2Ev(%"class.std::allocator"* %0) unnamed_addr #1 comdat align 2 {
  %2 = bitcast %"class.std::allocator"* %0 to %"class.__gnu_cxx::new_allocator"*
  call void @_ZN9__gnu_cxx13new_allocatorISt5arrayIiLm8EEED2Ev(%"class.__gnu_cxx::new_allocator"* %2) #2
  ret void
}

; Function Attrs: noinline nounwind uwtable
define linkonce_odr void @_ZN9__gnu_cxx13new_allocatorISt5arrayIiLm8EEED2Ev(%"class.__gnu_cxx::new_allocator"* %0) unnamed_addr #1 comdat align 2 {
  ret void
}

; Function Attrs: noinline uwtable
define linkonce_odr void @_ZNSt12_Vector_baseIiSaIiEEC2Ev(%"struct.std::_Vector_base.1"* %0) unnamed_addr #0 comdat align 2 {
  %2 = getelementptr inbounds %"struct.std::_Vector_base.1", %"struct.std::_Vector_base.1"* %0, i32 0, i32 0
  call void @_ZNSt12_Vector_baseIiSaIiEE12_Vector_implC2Ev(%"struct.std::_Vector_base<int, std::allocator<int> >::_Vector_impl"* %2)
  ret void
}

; Function Attrs: noinline nounwind uwtable
define linkonce_odr void @_ZNSt12_Vector_baseIiSaIiEE12_Vector_implC2Ev(%"struct.std::_Vector_base<int, std::allocator<int> >::_Vector_impl"* %0) unnamed_addr #1 comdat align 2 {
  %2 = bitcast %"struct.std::_Vector_base<int, std::allocator<int> >::_Vector_impl"* %0 to %"class.std::allocator.2"*
  call void @_ZNSaIiEC2Ev(%"class.std::allocator.2"* %2) #2
  %3 = getelementptr inbounds %"struct.std::_Vector_base<int, std::allocator<int> >::_Vector_impl", %"struct.std::_Vector_base<int, std::allocator<int> >::_Vector_impl"* %0, i32 0, i32 0
  store i32* null, i32** %3, align 8
  %4 = getelementptr inbounds %"struct.std::_Vector_base<int, std::allocator<int> >::_Vector_impl", %"struct.std::_Vector_base<int, std::allocator<int> >::_Vector_impl"* %0, i32 0, i32 1
  store i32* null, i32** %4, align 8
  %5 = getelementptr inbounds %"struct.std::_Vector_base<int, std::allocator<int> >::_Vector_impl", %"struct.std::_Vector_base<int, std::allocator<int> >::_Vector_impl"* %0, i32 0, i32 2
  store i32* null, i32** %5, align 8
  ret void
}

; Function Attrs: noinline nounwind uwtable
define linkonce_odr void @_ZN9__gnu_cxx13new_allocatorIiEC2Ev(%"class.__gnu_cxx::new_allocator.3"* %0) unnamed_addr #1 comdat align 2 {
  ret void
}

; Function Attrs: noinline uwtable
define linkonce_odr void @_ZSt8_DestroyIPiiEvT_S1_RSaIT0_E(i32* %0, i32* %1, %"class.std::allocator.2"* dereferenceable(1) %2) #0 comdat {
  call void @_ZSt8_DestroyIPiEvT_S1_(i32* %0, i32* %1)
  ret void
}

; Function Attrs: noinline nounwind uwtable
define linkonce_odr dereferenceable(1) %"class.std::allocator.2"* @_ZNSt12_Vector_baseIiSaIiEE19_M_get_Tp_allocatorEv(%"struct.std::_Vector_base.1"* %0) #1 comdat align 2 {
  %2 = getelementptr inbounds %"struct.std::_Vector_base.1", %"struct.std::_Vector_base.1"* %0, i32 0, i32 0
  %3 = bitcast %"struct.std::_Vector_base<int, std::allocator<int> >::_Vector_impl"* %2 to %"class.std::allocator.2"*
  ret %"class.std::allocator.2"* %3
}

; Function Attrs: noinline nounwind uwtable
define linkonce_odr void @_ZNSt12_Vector_baseIiSaIiEED2Ev(%"struct.std::_Vector_base.1"* %0) unnamed_addr #1 comdat align 2 personality i8* bitcast (i32 (...)* @__gxx_personality_v0 to i8*) {
  %2 = getelementptr inbounds %"struct.std::_Vector_base.1", %"struct.std::_Vector_base.1"* %0, i32 0, i32 0
  %3 = getelementptr inbounds %"struct.std::_Vector_base<int, std::allocator<int> >::_Vector_impl", %"struct.std::_Vector_base<int, std::allocator<int> >::_Vector_impl"* %2, i32 0, i32 0
  %4 = load i32*, i32** %3, align 8
  %5 = getelementptr inbounds %"struct.std::_Vector_base.1", %"struct.std::_Vector_base.1"* %0, i32 0, i32 0
  %6 = getelementptr inbounds %"struct.std::_Vector_base<int, std::allocator<int> >::_Vector_impl", %"struct.std::_Vector_base<int, std::allocator<int> >::_Vector_impl"* %5, i32 0, i32 2
  %7 = load i32*, i32** %6, align 8
  %8 = getelementptr inbounds %"struct.std::_Vector_base.1", %"struct.std::_Vector_base.1"* %0, i32 0, i32 0
  %9 = getelementptr inbounds %"struct.std::_Vector_base<int, std::allocator<int> >::_Vector_impl", %"struct.std::_Vector_base<int, std::allocator<int> >::_Vector_impl"* %8, i32 0, i32 0
  %10 = load i32*, i32** %9, align 8
  %11 = ptrtoint i32* %7 to i64
  %12 = ptrtoint i32* %10 to i64
  %13 = sub i64 %11, %12
  %14 = sdiv exact i64 %13, 4
  invoke void @_ZNSt12_Vector_baseIiSaIiEE13_M_deallocateEPim(%"struct.std::_Vector_base.1"* %0, i32* %4, i64 %14)
          to label %15 unwind label %17

15:                                               ; preds = %1
  %16 = getelementptr inbounds %"struct.std::_Vector_base.1", %"struct.std::_Vector_base.1"* %0, i32 0, i32 0
  call void @_ZNSt12_Vector_baseIiSaIiEE12_Vector_implD2Ev(%"struct.std::_Vector_base<int, std::allocator<int> >::_Vector_impl"* %16) #2
  ret void

17:                                               ; preds = %1
  %18 = landingpad { i8*, i32 }
          catch i8* null
  %19 = extractvalue { i8*, i32 } %18, 0
  %20 = extractvalue { i8*, i32 } %18, 1
  %21 = getelementptr inbounds %"struct.std::_Vector_base.1", %"struct.std::_Vector_base.1"* %0, i32 0, i32 0
  call void @_ZNSt12_Vector_baseIiSaIiEE12_Vector_implD2Ev(%"struct.std::_Vector_base<int, std::allocator<int> >::_Vector_impl"* %21) #2
  br label %22

22:                                               ; preds = %17
  call void @__clang_call_terminate(i8* %19) #13
  unreachable
}

; Function Attrs: noinline uwtable
define linkonce_odr void @_ZSt8_DestroyIPiEvT_S1_(i32* %0, i32* %1) #0 comdat {
  call void @_ZNSt12_Destroy_auxILb1EE9__destroyIPiEEvT_S3_(i32* %0, i32* %1)
  ret void
}

; Function Attrs: noinline nounwind uwtable
define linkonce_odr void @_ZNSt12_Destroy_auxILb1EE9__destroyIPiEEvT_S3_(i32* %0, i32* %1) #1 comdat align 2 {
  ret void
}

; Function Attrs: noinline uwtable
define linkonce_odr void @_ZNSt12_Vector_baseIiSaIiEE13_M_deallocateEPim(%"struct.std::_Vector_base.1"* %0, i32* %1, i64 %2) #0 comdat align 2 {
  %4 = icmp ne i32* %1, null
  br i1 %4, label %5, label %8

5:                                                ; preds = %3
  %6 = getelementptr inbounds %"struct.std::_Vector_base.1", %"struct.std::_Vector_base.1"* %0, i32 0, i32 0
  %7 = bitcast %"struct.std::_Vector_base<int, std::allocator<int> >::_Vector_impl"* %6 to %"class.std::allocator.2"*
  call void @_ZNSt16allocator_traitsISaIiEE10deallocateERS0_Pim(%"class.std::allocator.2"* dereferenceable(1) %7, i32* %1, i64 %2)
  br label %8

8:                                                ; preds = %5, %3
  ret void
}

; Function Attrs: noinline nounwind uwtable
define linkonce_odr void @_ZNSt12_Vector_baseIiSaIiEE12_Vector_implD2Ev(%"struct.std::_Vector_base<int, std::allocator<int> >::_Vector_impl"* %0) unnamed_addr #1 comdat align 2 {
  %2 = bitcast %"struct.std::_Vector_base<int, std::allocator<int> >::_Vector_impl"* %0 to %"class.std::allocator.2"*
  call void @_ZNSaIiED2Ev(%"class.std::allocator.2"* %2) #2
  ret void
}

; Function Attrs: noinline uwtable
define linkonce_odr void @_ZNSt16allocator_traitsISaIiEE10deallocateERS0_Pim(%"class.std::allocator.2"* dereferenceable(1) %0, i32* %1, i64 %2) #0 comdat align 2 {
  %4 = bitcast %"class.std::allocator.2"* %0 to %"class.__gnu_cxx::new_allocator.3"*
  call void @_ZN9__gnu_cxx13new_allocatorIiE10deallocateEPim(%"class.__gnu_cxx::new_allocator.3"* %4, i32* %1, i64 %2)
  ret void
}

; Function Attrs: noinline nounwind uwtable
define linkonce_odr void @_ZN9__gnu_cxx13new_allocatorIiE10deallocateEPim(%"class.__gnu_cxx::new_allocator.3"* %0, i32* %1, i64 %2) #1 comdat align 2 {
  %4 = bitcast i32* %1 to i8*
  call void @_ZdlPv(i8* %4) #2
  ret void
}

; Function Attrs: noinline nounwind uwtable
define linkonce_odr void @_ZN9__gnu_cxx13new_allocatorIiED2Ev(%"class.__gnu_cxx::new_allocator.3"* %0) unnamed_addr #1 comdat align 2 {
  ret void
}

; Function Attrs: noinline nounwind uwtable
define linkonce_odr i32* @_ZNSt5arrayIiLm8EE4dataEv(%"struct.std::array"* %0) #1 comdat align 2 {
  %2 = getelementptr inbounds %"struct.std::array", %"struct.std::array"* %0, i32 0, i32 0
  %3 = call i32* @_ZNSt14__array_traitsIiLm8EE6_S_ptrERA8_Ki([8 x i32]* dereferenceable(32) %2) #2
  ret i32* %3
}

; Function Attrs: noinline nounwind uwtable
define linkonce_odr i32* @_ZNSt14__array_traitsIiLm8EE6_S_ptrERA8_Ki([8 x i32]* dereferenceable(32) %0) #1 comdat align 2 {
  %2 = getelementptr inbounds [8 x i32], [8 x i32]* %0, i32 0, i32 0
  ret i32* %2
}

; Function Attrs: noinline uwtable
define linkonce_odr void @_ZNSt6vectorIiSaIiEE9push_backERKi(%"class.std::vector.0"* %0, i32* dereferenceable(4) %1) #0 comdat align 2 {
  %3 = alloca %"class.__gnu_cxx::__normal_iterator", align 8
  %4 = bitcast %"class.std::vector.0"* %0 to %"struct.std::_Vector_base.1"*
  %5 = getelementptr inbounds %"struct.std::_Vector_base.1", %"struct.std::_Vector_base.1"* %4, i32 0, i32 0
  %6 = getelementptr inbounds %"struct.std::_Vector_base<int, std::allocator<int> >::_Vector_impl", %"struct.std::_Vector_base<int, std::allocator<int> >::_Vector_impl"* %5, i32 0, i32 1
  %7 = load i32*, i32** %6, align 8
  %8 = bitcast %"class.std::vector.0"* %0 to %"struct.std::_Vector_base.1"*
  %9 = getelementptr inbounds %"struct.std::_Vector_base.1", %"struct.std::_Vector_base.1"* %8, i32 0, i32 0
  %10 = getelementptr inbounds %"struct.std::_Vector_base<int, std::allocator<int> >::_Vector_impl", %"struct.std::_Vector_base<int, std::allocator<int> >::_Vector_impl"* %9, i32 0, i32 2
  %11 = load i32*, i32** %10, align 8
  %12 = icmp ne i32* %7, %11
  br i1 %12, label %13, label %26

13:                                               ; preds = %2
  %14 = bitcast %"class.std::vector.0"* %0 to %"struct.std::_Vector_base.1"*
  %15 = getelementptr inbounds %"struct.std::_Vector_base.1", %"struct.std::_Vector_base.1"* %14, i32 0, i32 0
  %16 = bitcast %"struct.std::_Vector_base<int, std::allocator<int> >::_Vector_impl"* %15 to %"class.std::allocator.2"*
  %17 = bitcast %"class.std::vector.0"* %0 to %"struct.std::_Vector_base.1"*
  %18 = getelementptr inbounds %"struct.std::_Vector_base.1", %"struct.std::_Vector_base.1"* %17, i32 0, i32 0
  %19 = getelementptr inbounds %"struct.std::_Vector_base<int, std::allocator<int> >::_Vector_impl", %"struct.std::_Vector_base<int, std::allocator<int> >::_Vector_impl"* %18, i32 0, i32 1
  %20 = load i32*, i32** %19, align 8
  call void @_ZNSt16allocator_traitsISaIiEE9constructIiJRKiEEEvRS0_PT_DpOT0_(%"class.std::allocator.2"* dereferenceable(1) %16, i32* %20, i32* dereferenceable(4) %1)
  %21 = bitcast %"class.std::vector.0"* %0 to %"struct.std::_Vector_base.1"*
  %22 = getelementptr inbounds %"struct.std::_Vector_base.1", %"struct.std::_Vector_base.1"* %21, i32 0, i32 0
  %23 = getelementptr inbounds %"struct.std::_Vector_base<int, std::allocator<int> >::_Vector_impl", %"struct.std::_Vector_base<int, std::allocator<int> >::_Vector_impl"* %22, i32 0, i32 1
  %24 = load i32*, i32** %23, align 8
  %25 = getelementptr inbounds i32, i32* %24, i32 1
  store i32* %25, i32** %23, align 8
  br label %31

26:                                               ; preds = %2
  %27 = call i32* @_ZNSt6vectorIiSaIiEE3endEv(%"class.std::vector.0"* %0) #2
  %28 = getelementptr inbounds %"class.__gnu_cxx::__normal_iterator", %"class.__gnu_cxx::__normal_iterator"* %3, i32 0, i32 0
  store i32* %27, i32** %28, align 8
  %29 = getelementptr inbounds %"class.__gnu_cxx::__normal_iterator", %"class.__gnu_cxx::__normal_iterator"* %3, i32 0, i32 0
  %30 = load i32*, i32** %29, align 8
  call void @_ZNSt6vectorIiSaIiEE17_M_realloc_insertIJRKiEEEvN9__gnu_cxx17__normal_iteratorIPiS1_EEDpOT_(%"class.std::vector.0"* %0, i32* %30, i32* dereferenceable(4) %1)
  br label %31

31:                                               ; preds = %26, %13
  ret void
}

; Function Attrs: noinline nounwind uwtable
define linkonce_odr zeroext i1 @_ZNKSt6vectorIiSaIiEE5emptyEv(%"class.std::vector.0"* %0) #1 comdat align 2 {
  %2 = alloca %"class.__gnu_cxx::__normal_iterator.12", align 8
  %3 = alloca %"class.__gnu_cxx::__normal_iterator.12", align 8
  %4 = call i32* @_ZNKSt6vectorIiSaIiEE5beginEv(%"class.std::vector.0"* %0) #2
  %5 = getelementptr inbounds %"class.__gnu_cxx::__normal_iterator.12", %"class.__gnu_cxx::__normal_iterator.12"* %2, i32 0, i32 0
  store i32* %4, i32** %5, align 8
  %6 = call i32* @_ZNKSt6vectorIiSaIiEE3endEv(%"class.std::vector.0"* %0) #2
  %7 = getelementptr inbounds %"class.__gnu_cxx::__normal_iterator.12", %"class.__gnu_cxx::__normal_iterator.12"* %3, i32 0, i32 0
  store i32* %6, i32** %7, align 8
  %8 = call zeroext i1 @_ZN9__gnu_cxxeqIPKiSt6vectorIiSaIiEEEEbRKNS_17__normal_iteratorIT_T0_EESB_(%"class.__gnu_cxx::__normal_iterator.12"* dereferenceable(8) %2, %"class.__gnu_cxx::__normal_iterator.12"* dereferenceable(8) %3) #2
  ret i1 %8
}

; Function Attrs: noinline nounwind uwtable
define linkonce_odr dereferenceable(4) i32* @_ZNSt6vectorIiSaIiEE4backEv(%"class.std::vector.0"* %0) #1 comdat align 2 {
  %2 = alloca %"class.__gnu_cxx::__normal_iterator", align 8
  %3 = alloca %"class.__gnu_cxx::__normal_iterator", align 8
  %4 = call i32* @_ZNSt6vectorIiSaIiEE3endEv(%"class.std::vector.0"* %0) #2
  %5 = getelementptr inbounds %"class.__gnu_cxx::__normal_iterator", %"class.__gnu_cxx::__normal_iterator"* %2, i32 0, i32 0
  store i32* %4, i32** %5, align 8
  %6 = call i32* @_ZNK9__gnu_cxx17__normal_iteratorIPiSt6vectorIiSaIiEEEmiEl(%"class.__gnu_cxx::__normal_iterator"* %2, i64 1) #2
  %7 = getelementptr inbounds %"class.__gnu_cxx::__normal_iterator", %"class.__gnu_cxx::__normal_iterator"* %3, i32 0, i32 0
  store i32* %6, i32** %7, align 8
  %8 = call dereferenceable(4) i32* @_ZNK9__gnu_cxx17__normal_iteratorIPiSt6vectorIiSaIiEEEdeEv(%"class.__gnu_cxx::__normal_iterator"* %3) #2
  ret i32* %8
}

; Function Attrs: noinline nounwind uwtable
define linkonce_odr void @_ZNSt6vectorIiSaIiEE8pop_backEv(%"class.std::vector.0"* %0) #1 comdat align 2 personality i8* bitcast (i32 (...)* @__gxx_personality_v0 to i8*) {
  %2 = bitcast %"class.std::vector.0"* %0 to %"struct.std::_Vector_base.1"*
  %3 = getelementptr inbounds %"struct.std::_Vector_base.1", %"struct.std::_Vector_base.1"* %2, i32 0, i32 0
  %4 = getelementptr inbounds %"struct.std::_Vector_base<int, std::allocator<int> >::_Vector_impl", %"struct.std::_Vector_base<int, std::allocator<int> >::_Vector_impl"* %3, i32 0, i32 1
  %5 = load i32*, i32** %4, align 8
  %6 = getelementptr inbounds i32, i32* %5, i32 -1
  store i32* %6, i32** %4, align 8
  %7 = bitcast %"class.std::vector.0"* %0 to %"struct.std::_Vector_base.1"*
  %8 = getelementptr inbounds %"struct.std::_Vector_base.1", %"struct.std::_Vector_base.1"* %7, i32 0, i32 0
  %9 = bitcast %"struct.std::_Vector_base<int, std::allocator<int> >::_Vector_impl"* %8 to %"class.std::allocator.2"*
  %10 = bitcast %"class.std::vector.0"* %0 to %"struct.std::_Vector_base.1"*
  %11 = getelementptr inbounds %"struct.std::_Vector_base.1", %"struct.std::_Vector_base.1"* %10, i32 0, i32 0
  %12 = getelementptr inbounds %"struct.std::_Vector_base<int, std::allocator<int> >::_Vector_impl", %"struct.std::_Vector_base<int, std::allocator<int> >::_Vector_impl"* %11, i32 0, i32 1
  %13 = load i32*, i32** %12, align 8
  invoke void @_ZNSt16allocator_traitsISaIiEE7destroyIiEEvRS0_PT_(%"class.std::allocator.2"* dereferenceable(1) %9, i32* %13)
          to label %14 unwind label %15

14:                                               ; preds = %1
  ret void

15:                                               ; preds = %1
  %16 = landingpad { i8*, i32 }
          catch i8* null
  %17 = extractvalue { i8*, i32 } %16, 0
  call void @__clang_call_terminate(i8* %17) #13
  unreachable
}

; Function Attrs: noinline nounwind uwtable
define internal void @"_ZZ4flipiiENK3$_0clEi"(%class.anon* %0, i32 %1) #1 align 2 {
  %3 = getelementptr inbounds %class.anon, %class.anon* %0, i32 0, i32 0
  %4 = load i32*, i32** %3, align 8
  %5 = load i32, i32* %4, align 4
  %6 = getelementptr inbounds %class.anon, %class.anon* %0, i32 0, i32 1
  %7 = load i32*, i32** %6, align 8
  %8 = load i32, i32* %7, align 4
  %9 = xor i32 %5, %8
  %10 = sext i32 %1 to i64
  %11 = call dereferenceable(4) i32* @_ZNSt6vectorIiSaIiEEixEm(%"class.std::vector.0"* @colors, i64 %10) #2
  %12 = load i32, i32* %11, align 4
  %13 = xor i32 %12, %9
  store i32 %13, i32* %11, align 4
  ret void
}

; Function Attrs: noinline uwtable
define linkonce_odr void @_ZNSt16allocator_traitsISaIiEE9constructIiJRKiEEEvRS0_PT_DpOT0_(%"class.std::allocator.2"* dereferenceable(1) %0, i32* %1, i32* dereferenceable(4) %2) #0 comdat align 2 {
  %4 = bitcast %"class.std::allocator.2"* %0 to %"class.__gnu_cxx::new_allocator.3"*
  %5 = call dereferenceable(4) i32* @_ZSt7forwardIRKiEOT_RNSt16remove_referenceIS2_E4typeE(i32* dereferenceable(4) %2) #2
  call void @_ZN9__gnu_cxx13new_allocatorIiE9constructIiJRKiEEEvPT_DpOT0_(%"class.__gnu_cxx::new_allocator.3"* %4, i32* %1, i32* dereferenceable(4) %5)
  ret void
}

; Function Attrs: noinline uwtable
define linkonce_odr void @_ZNSt6vectorIiSaIiEE17_M_realloc_insertIJRKiEEEvN9__gnu_cxx17__normal_iteratorIPiS1_EEDpOT_(%"class.std::vector.0"* %0, i32* %1, i32* dereferenceable(4) %2) #0 comdat align 2 personality i8* bitcast (i32 (...)* @__gxx_personality_v0 to i8*) {
  %4 = alloca %"class.__gnu_cxx::__normal_iterator", align 8
  %5 = alloca %"class.__gnu_cxx::__normal_iterator", align 8
  %6 = getelementptr inbounds %"class.__gnu_cxx::__normal_iterator", %"class.__gnu_cxx::__normal_iterator"* %4, i32 0, i32 0
  store i32* %1, i32** %6, align 8
  %7 = call i64 @_ZNKSt6vectorIiSaIiEE12_M_check_lenEmPKc(%"class.std::vector.0"* %0, i64 1, i8* getelementptr inbounds ([26 x i8], [26 x i8]* @.str.8, i32 0, i32 0))
  %8 = bitcast %"class.std::vector.0"* %0 to %"struct.std::_Vector_base.1"*
  %9 = getelementptr inbounds %"struct.std::_Vector_base.1", %"struct.std::_Vector_base.1"* %8, i32 0, i32 0
  %10 = getelementptr inbounds %"struct.std::_Vector_base<int, std::allocator<int> >::_Vector_impl", %"struct.std::_Vector_base<int, std::allocator<int> >::_Vector_impl"* %9, i32 0, i32 0
  %11 = load i32*, i32** %10, align 8
  %12 = bitcast %"class.std::vector.0"* %0 to %"struct.std::_Vector_base.1"*
  %13 = getelementptr inbounds %"struct.std::_Vector_base.1", %"struct.std::_Vector_base.1"* %12, i32 0, i32 0
  %14 = getelementptr inbounds %"struct.std::_Vector_base<int, std::allocator<int> >::_Vector_impl", %"struct.std::_Vector_base<int, std::allocator<int> >::_Vector_impl"* %13, i32 0, i32 1
  %15 = load i32*, i32** %14, align 8
  %16 = call i32* @_ZNSt6vectorIiSaIiEE5beginEv(%"class.std::vector.0"* %0) #2
  %17 = getelementptr inbounds %"class.__gnu_cxx::__normal_iterator", %"class.__gnu_cxx::__normal_iterator"* %5, i32 0, i32 0
  store i32* %16, i32** %17, align 8
  %18 = call i64 @_ZN9__gnu_cxxmiIPiSt6vectorIiSaIiEEEENS_17__normal_iteratorIT_T0_E15difference_typeERKS8_SB_(%"class.__gnu_cxx::__normal_iterator"* dereferenceable(8) %4, %"class.__gnu_cxx::__normal_iterator"* dereferenceable(8) %5) #2
  %19 = bitcast %"class.std::vector.0"* %0 to %"struct.std::_Vector_base.1"*
  %20 = call i32* @_ZNSt12_Vector_baseIiSaIiEE11_M_allocateEm(%"struct.std::_Vector_base.1"* %19, i64 %7)
  %21 = bitcast %"class.std::vector.0"* %0 to %"struct.std::_Vector_base.1"*
  %22 = getelementptr inbounds %"struct.std::_Vector_base.1", %"struct.std::_Vector_base.1"* %21, i32 0, i32 0
  %23 = bitcast %"struct.std::_Vector_base<int, std::allocator<int> >::_Vector_impl"* %22 to %"class.std::allocator.2"*
  %24 = getelementptr inbounds i32, i32* %20, i64 %18
  %25 = call dereferenceable(4) i32* @_ZSt7forwardIRKiEOT_RNSt16remove_referenceIS2_E4typeE(i32* dereferenceable(4) %2) #2
  invoke void @_ZNSt16allocator_traitsISaIiEE9constructIiJRKiEEEvRS0_PT_DpOT0_(%"class.std::allocator.2"* dereferenceable(1) %23, i32* %24, i32* dereferenceable(4) %25)
          to label %26 unwind label %40

26:                                               ; preds = %3
  %27 = call dereferenceable(8) i32** @_ZNK9__gnu_cxx17__normal_iteratorIPiSt6vectorIiSaIiEEE4baseEv(%"class.__gnu_cxx::__normal_iterator"* %4) #2
  %28 = load i32*, i32** %27, align 8
  %29 = bitcast %"class.std::vector.0"* %0 to %"struct.std::_Vector_base.1"*
  %30 = call dereferenceable(1) %"class.std::allocator.2"* @_ZNSt12_Vector_baseIiSaIiEE19_M_get_Tp_allocatorEv(%"struct.std::_Vector_base.1"* %29) #2
  %31 = invoke i32* @_ZSt34__uninitialized_move_if_noexcept_aIPiS0_SaIiEET0_T_S3_S2_RT1_(i32* %11, i32* %28, i32* %20, %"class.std::allocator.2"* dereferenceable(1) %30)
          to label %32 unwind label %40

32:                                               ; preds = %26
  %33 = getelementptr inbounds i32, i32* %31, i32 1
  %34 = call dereferenceable(8) i32** @_ZNK9__gnu_cxx17__normal_iteratorIPiSt6vectorIiSaIiEEE4baseEv(%"class.__gnu_cxx::__normal_iterator"* %4) #2
  %35 = load i32*, i32** %34, align 8
  %36 = bitcast %"class.std::vector.0"* %0 to %"struct.std::_Vector_base.1"*
  %37 = call dereferenceable(1) %"class.std::allocator.2"* @_ZNSt12_Vector_baseIiSaIiEE19_M_get_Tp_allocatorEv(%"struct.std::_Vector_base.1"* %36) #2
  %38 = invoke i32* @_ZSt34__uninitialized_move_if_noexcept_aIPiS0_SaIiEET0_T_S3_S2_RT1_(i32* %35, i32* %15, i32* %33, %"class.std::allocator.2"* dereferenceable(1) %37)
          to label %39 unwind label %40

39:                                               ; preds = %32
  br label %65

40:                                               ; preds = %32, %26, %3
  %.0 = phi i32* [ %33, %32 ], [ null, %26 ], [ %20, %3 ]
  %41 = landingpad { i8*, i32 }
          catch i8* null
  %42 = extractvalue { i8*, i32 } %41, 0
  %43 = extractvalue { i8*, i32 } %41, 1
  br label %44

44:                                               ; preds = %40
  %45 = call i8* @__cxa_begin_catch(i8* %42) #2
  %46 = icmp ne i32* %.0, null
  br i1 %46, label %57, label %47

47:                                               ; preds = %44
  %48 = bitcast %"class.std::vector.0"* %0 to %"struct.std::_Vector_base.1"*
  %49 = getelementptr inbounds %"struct.std::_Vector_base.1", %"struct.std::_Vector_base.1"* %48, i32 0, i32 0
  %50 = bitcast %"struct.std::_Vector_base<int, std::allocator<int> >::_Vector_impl"* %49 to %"class.std::allocator.2"*
  %51 = getelementptr inbounds i32, i32* %20, i64 %18
  invoke void @_ZNSt16allocator_traitsISaIiEE7destroyIiEEvRS0_PT_(%"class.std::allocator.2"* dereferenceable(1) %50, i32* %51)
          to label %52 unwind label %53

52:                                               ; preds = %47
  br label %61

53:                                               ; preds = %63, %61, %57, %47
  %54 = landingpad { i8*, i32 }
          cleanup
  %55 = extractvalue { i8*, i32 } %54, 0
  %56 = extractvalue { i8*, i32 } %54, 1
  invoke void @__cxa_end_catch()
          to label %64 unwind label %90

57:                                               ; preds = %44
  %58 = bitcast %"class.std::vector.0"* %0 to %"struct.std::_Vector_base.1"*
  %59 = call dereferenceable(1) %"class.std::allocator.2"* @_ZNSt12_Vector_baseIiSaIiEE19_M_get_Tp_allocatorEv(%"struct.std::_Vector_base.1"* %58) #2
  invoke void @_ZSt8_DestroyIPiiEvT_S1_RSaIT0_E(i32* %20, i32* %.0, %"class.std::allocator.2"* dereferenceable(1) %59)
          to label %60 unwind label %53

60:                                               ; preds = %57
  br label %61

61:                                               ; preds = %60, %52
  %62 = bitcast %"class.std::vector.0"* %0 to %"struct.std::_Vector_base.1"*
  invoke void @_ZNSt12_Vector_baseIiSaIiEE13_M_deallocateEPim(%"struct.std::_Vector_base.1"* %62, i32* %20, i64 %7)
          to label %63 unwind label %53

63:                                               ; preds = %61
  invoke void @__cxa_rethrow() #14
          to label %93 unwind label %53

64:                                               ; preds = %53
  br label %87

65:                                               ; preds = %39
  %66 = bitcast %"class.std::vector.0"* %0 to %"struct.std::_Vector_base.1"*
  %67 = call dereferenceable(1) %"class.std::allocator.2"* @_ZNSt12_Vector_baseIiSaIiEE19_M_get_Tp_allocatorEv(%"struct.std::_Vector_base.1"* %66) #2
  call void @_ZSt8_DestroyIPiiEvT_S1_RSaIT0_E(i32* %11, i32* %15, %"class.std::allocator.2"* dereferenceable(1) %67)
  %68 = bitcast %"class.std::vector.0"* %0 to %"struct.std::_Vector_base.1"*
  %69 = bitcast %"class.std::vector.0"* %0 to %"struct.std::_Vector_base.1"*
  %70 = getelementptr inbounds %"struct.std::_Vector_base.1", %"struct.std::_Vector_base.1"* %69, i32 0, i32 0
  %71 = getelementptr inbounds %"struct.std::_Vector_base<int, std::allocator<int> >::_Vector_impl", %"struct.std::_Vector_base<int, std::allocator<int> >::_Vector_impl"* %70, i32 0, i32 2
  %72 = load i32*, i32** %71, align 8
  %73 = ptrtoint i32* %72 to i64
  %74 = ptrtoint i32* %11 to i64
  %75 = sub i64 %73, %74
  %76 = sdiv exact i64 %75, 4
  call void @_ZNSt12_Vector_baseIiSaIiEE13_M_deallocateEPim(%"struct.std::_Vector_base.1"* %68, i32* %11, i64 %76)
  %77 = bitcast %"class.std::vector.0"* %0 to %"struct.std::_Vector_base.1"*
  %78 = getelementptr inbounds %"struct.std::_Vector_base.1", %"struct.std::_Vector_base.1"* %77, i32 0, i32 0
  %79 = getelementptr inbounds %"struct.std::_Vector_base<int, std::allocator<int> >::_Vector_impl", %"struct.std::_Vector_base<int, std::allocator<int> >::_Vector_impl"* %78, i32 0, i32 0
  store i32* %20, i32** %79, align 8
  %80 = bitcast %"class.std::vector.0"* %0 to %"struct.std::_Vector_base.1"*
  %81 = getelementptr inbounds %"struct.std::_Vector_base.1", %"struct.std::_Vector_base.1"* %80, i32 0, i32 0
  %82 = getelementptr inbounds %"struct.std::_Vector_base<int, std::allocator<int> >::_Vector_impl", %"struct.std::_Vector_base<int, std::allocator<int> >::_Vector_impl"* %81, i32 0, i32 1
  store i32* %38, i32** %82, align 8
  %83 = getelementptr inbounds i32, i32* %20, i64 %7
  %84 = bitcast %"class.std::vector.0"* %0 to %"struct.std::_Vector_base.1"*
  %85 = getelementptr inbounds %"struct.std::_Vector_base.1", %"struct.std::_Vector_base.1"* %84, i32 0, i32 0
  %86 = getelementptr inbounds %"struct.std::_Vector_base<int, std::allocator<int> >::_Vector_impl", %"struct.std::_Vector_base<int, std::allocator<int> >::_Vector_impl"* %85, i32 0, i32 2
  store i32* %83, i32** %86, align 8
  ret void

87:                                               ; preds = %64
  %88 = insertvalue { i8*, i32 } undef, i8* %55, 0
  %89 = insertvalue { i8*, i32 } %88, i32 %56, 1
  resume { i8*, i32 } %89

90:                                               ; preds = %53
  %91 = landingpad { i8*, i32 }
          catch i8* null
  %92 = extractvalue { i8*, i32 } %91, 0
  call void @__clang_call_terminate(i8* %92) #13
  unreachable

93:                                               ; preds = %63
  unreachable
}

; Function Attrs: noinline nounwind uwtable
define linkonce_odr void @_ZN9__gnu_cxx13new_allocatorIiE9constructIiJRKiEEEvPT_DpOT0_(%"class.__gnu_cxx::new_allocator.3"* %0, i32* %1, i32* dereferenceable(4) %2) #1 comdat align 2 {
  %4 = bitcast i32* %1 to i8*
  %5 = bitcast i8* %4 to i32*
  %6 = call dereferenceable(4) i32* @_ZSt7forwardIRKiEOT_RNSt16remove_referenceIS2_E4typeE(i32* dereferenceable(4) %2) #2
  %7 = load i32, i32* %6, align 4
  store i32 %7, i32* %5, align 4
  ret void
}

; Function Attrs: noinline nounwind uwtable
define linkonce_odr dereferenceable(4) i32* @_ZSt7forwardIRKiEOT_RNSt16remove_referenceIS2_E4typeE(i32* dereferenceable(4) %0) #1 comdat {
  ret i32* %0
}

; Function Attrs: noinline uwtable
define linkonce_odr i64 @_ZNKSt6vectorIiSaIiEE12_M_check_lenEmPKc(%"class.std::vector.0"* %0, i64 %1, i8* %2) #0 comdat align 2 {
  %4 = alloca i64, align 8
  %5 = alloca i64, align 8
  store i64 %1, i64* %4, align 8
  %6 = call i64 @_ZNKSt6vectorIiSaIiEE8max_sizeEv(%"class.std::vector.0"* %0) #2
  %7 = call i64 @_ZNKSt6vectorIiSaIiEE4sizeEv(%"class.std::vector.0"* %0) #2
  %8 = sub i64 %6, %7
  %9 = load i64, i64* %4, align 8
  %10 = icmp ult i64 %8, %9
  br i1 %10, label %11, label %12

11:                                               ; preds = %3
  call void @_ZSt20__throw_length_errorPKc(i8* %2) #14
  unreachable

12:                                               ; preds = %3
  %13 = call i64 @_ZNKSt6vectorIiSaIiEE4sizeEv(%"class.std::vector.0"* %0) #2
  %14 = call i64 @_ZNKSt6vectorIiSaIiEE4sizeEv(%"class.std::vector.0"* %0) #2
  store i64 %14, i64* %5, align 8
  %15 = call dereferenceable(8) i64* @_ZSt3maxImERKT_S2_S2_(i64* dereferenceable(8) %5, i64* dereferenceable(8) %4)
  %16 = load i64, i64* %15, align 8
  %17 = add i64 %13, %16
  %18 = call i64 @_ZNKSt6vectorIiSaIiEE4sizeEv(%"class.std::vector.0"* %0) #2
  %19 = icmp ult i64 %17, %18
  br i1 %19, label %23, label %20

20:                                               ; preds = %12
  %21 = call i64 @_ZNKSt6vectorIiSaIiEE8max_sizeEv(%"class.std::vector.0"* %0) #2
  %22 = icmp ugt i64 %17, %21
  br i1 %22, label %23, label %25

23:                                               ; preds = %20, %12
  %24 = call i64 @_ZNKSt6vectorIiSaIiEE8max_sizeEv(%"class.std::vector.0"* %0) #2
  br label %26

25:                                               ; preds = %20
  br label %26

26:                                               ; preds = %25, %23
  %27 = phi i64 [ %24, %23 ], [ %17, %25 ]
  ret i64 %27
}

; Function Attrs: noinline nounwind uwtable
define linkonce_odr i64 @_ZN9__gnu_cxxmiIPiSt6vectorIiSaIiEEEENS_17__normal_iteratorIT_T0_E15difference_typeERKS8_SB_(%"class.__gnu_cxx::__normal_iterator"* dereferenceable(8) %0, %"class.__gnu_cxx::__normal_iterator"* dereferenceable(8) %1) #1 comdat {
  %3 = call dereferenceable(8) i32** @_ZNK9__gnu_cxx17__normal_iteratorIPiSt6vectorIiSaIiEEE4baseEv(%"class.__gnu_cxx::__normal_iterator"* %0) #2
  %4 = load i32*, i32** %3, align 8
  %5 = call dereferenceable(8) i32** @_ZNK9__gnu_cxx17__normal_iteratorIPiSt6vectorIiSaIiEEE4baseEv(%"class.__gnu_cxx::__normal_iterator"* %1) #2
  %6 = load i32*, i32** %5, align 8
  %7 = ptrtoint i32* %4 to i64
  %8 = ptrtoint i32* %6 to i64
  %9 = sub i64 %7, %8
  %10 = sdiv exact i64 %9, 4
  ret i64 %10
}

; Function Attrs: noinline uwtable
define linkonce_odr i32* @_ZNSt12_Vector_baseIiSaIiEE11_M_allocateEm(%"struct.std::_Vector_base.1"* %0, i64 %1) #0 comdat align 2 {
  %3 = icmp ne i64 %1, 0
  br i1 %3, label %4, label %8

4:                                                ; preds = %2
  %5 = getelementptr inbounds %"struct.std::_Vector_base.1", %"struct.std::_Vector_base.1"* %0, i32 0, i32 0
  %6 = bitcast %"struct.std::_Vector_base<int, std::allocator<int> >::_Vector_impl"* %5 to %"class.std::allocator.2"*
  %7 = call i32* @_ZNSt16allocator_traitsISaIiEE8allocateERS0_m(%"class.std::allocator.2"* dereferenceable(1) %6, i64 %1)
  br label %9

8:                                                ; preds = %2
  br label %9

9:                                                ; preds = %8, %4
  %10 = phi i32* [ %7, %4 ], [ null, %8 ]
  ret i32* %10
}

; Function Attrs: noinline uwtable
define linkonce_odr i32* @_ZSt34__uninitialized_move_if_noexcept_aIPiS0_SaIiEET0_T_S3_S2_RT1_(i32* %0, i32* %1, i32* %2, %"class.std::allocator.2"* dereferenceable(1) %3) #0 comdat {
  %5 = alloca %"class.std::move_iterator", align 8
  %6 = alloca %"class.std::move_iterator", align 8
  %7 = call i32* @_ZSt32__make_move_if_noexcept_iteratorIiSt13move_iteratorIPiEET0_PT_(i32* %0)
  %8 = getelementptr inbounds %"class.std::move_iterator", %"class.std::move_iterator"* %5, i32 0, i32 0
  store i32* %7, i32** %8, align 8
  %9 = call i32* @_ZSt32__make_move_if_noexcept_iteratorIiSt13move_iteratorIPiEET0_PT_(i32* %1)
  %10 = getelementptr inbounds %"class.std::move_iterator", %"class.std::move_iterator"* %6, i32 0, i32 0
  store i32* %9, i32** %10, align 8
  %11 = getelementptr inbounds %"class.std::move_iterator", %"class.std::move_iterator"* %5, i32 0, i32 0
  %12 = load i32*, i32** %11, align 8
  %13 = getelementptr inbounds %"class.std::move_iterator", %"class.std::move_iterator"* %6, i32 0, i32 0
  %14 = load i32*, i32** %13, align 8
  %15 = call i32* @_ZSt22__uninitialized_copy_aISt13move_iteratorIPiES1_iET0_T_S4_S3_RSaIT1_E(i32* %12, i32* %14, i32* %2, %"class.std::allocator.2"* dereferenceable(1) %3)
  ret i32* %15
}

; Function Attrs: noinline nounwind uwtable
define linkonce_odr dereferenceable(8) i32** @_ZNK9__gnu_cxx17__normal_iteratorIPiSt6vectorIiSaIiEEE4baseEv(%"class.__gnu_cxx::__normal_iterator"* %0) #1 comdat align 2 {
  %2 = getelementptr inbounds %"class.__gnu_cxx::__normal_iterator", %"class.__gnu_cxx::__normal_iterator"* %0, i32 0, i32 0
  ret i32** %2
}

; Function Attrs: noinline uwtable
define linkonce_odr void @_ZNSt16allocator_traitsISaIiEE7destroyIiEEvRS0_PT_(%"class.std::allocator.2"* dereferenceable(1) %0, i32* %1) #0 comdat align 2 {
  %3 = bitcast %"class.std::allocator.2"* %0 to %"class.__gnu_cxx::new_allocator.3"*
  call void @_ZN9__gnu_cxx13new_allocatorIiE7destroyIiEEvPT_(%"class.__gnu_cxx::new_allocator.3"* %3, i32* %1)
  ret void
}

declare void @__cxa_rethrow()

declare void @__cxa_end_catch()

; Function Attrs: noinline nounwind uwtable
define linkonce_odr i64 @_ZNKSt6vectorIiSaIiEE8max_sizeEv(%"class.std::vector.0"* %0) #1 comdat align 2 {
  %2 = bitcast %"class.std::vector.0"* %0 to %"struct.std::_Vector_base.1"*
  %3 = call dereferenceable(1) %"class.std::allocator.2"* @_ZNKSt12_Vector_baseIiSaIiEE19_M_get_Tp_allocatorEv(%"struct.std::_Vector_base.1"* %2) #2
  %4 = call i64 @_ZNSt16allocator_traitsISaIiEE8max_sizeERKS0_(%"class.std::allocator.2"* dereferenceable(1) %3) #2
  ret i64 %4
}

; Function Attrs: noinline nounwind uwtable
define linkonce_odr i64 @_ZNKSt6vectorIiSaIiEE4sizeEv(%"class.std::vector.0"* %0) #1 comdat align 2 {
  %2 = bitcast %"class.std::vector.0"* %0 to %"struct.std::_Vector_base.1"*
  %3 = getelementptr inbounds %"struct.std::_Vector_base.1", %"struct.std::_Vector_base.1"* %2, i32 0, i32 0
  %4 = getelementptr inbounds %"struct.std::_Vector_base<int, std::allocator<int> >::_Vector_impl", %"struct.std::_Vector_base<int, std::allocator<int> >::_Vector_impl"* %3, i32 0, i32 1
  %5 = load i32*, i32** %4, align 8
  %6 = bitcast %"class.std::vector.0"* %0 to %"struct.std::_Vector_base.1"*
  %7 = getelementptr inbounds %"struct.std::_Vector_base.1", %"struct.std::_Vector_base.1"* %6, i32 0, i32 0
  %8 = getelementptr inbounds %"struct.std::_Vector_base<int, std::allocator<int> >::_Vector_impl", %"struct.std::_Vector_base<int, std::allocator<int> >::_Vector_impl"* %7, i32 0, i32 0
  %9 = load i32*, i32** %8, align 8
  %10 = ptrtoint i32* %5 to i64
  %11 = ptrtoint i32* %9 to i64
  %12 = sub i64 %10, %11
  %13 = sdiv exact i64 %12, 4
  ret i64 %13
}

; Function Attrs: noreturn
declare void @_ZSt20__throw_length_errorPKc(i8*) #8

; Function Attrs: noinline nounwind uwtable
define linkonce_odr dereferenceable(8) i64* @_ZSt3maxImERKT_S2_S2_(i64* dereferenceable(8) %0, i64* dereferenceable(8) %1) #1 comdat {
  %3 = load i64, i64* %0, align 8
  %4 = load i64, i64* %1, align 8
  %5 = icmp ult i64 %3, %4
  br i1 %5, label %6, label %7

6:                                                ; preds = %2
  br label %8

7:                                                ; preds = %2
  br label %8

8:                                                ; preds = %7, %6
  %.0 = phi i64* [ %1, %6 ], [ %0, %7 ]
  ret i64* %.0
}

; Function Attrs: noinline nounwind uwtable
define linkonce_odr i64 @_ZNSt16allocator_traitsISaIiEE8max_sizeERKS0_(%"class.std::allocator.2"* dereferenceable(1) %0) #1 comdat align 2 {
  %2 = bitcast %"class.std::allocator.2"* %0 to %"class.__gnu_cxx::new_allocator.3"*
  %3 = call i64 @_ZNK9__gnu_cxx13new_allocatorIiE8max_sizeEv(%"class.__gnu_cxx::new_allocator.3"* %2) #2
  ret i64 %3
}

; Function Attrs: noinline nounwind uwtable
define linkonce_odr dereferenceable(1) %"class.std::allocator.2"* @_ZNKSt12_Vector_baseIiSaIiEE19_M_get_Tp_allocatorEv(%"struct.std::_Vector_base.1"* %0) #1 comdat align 2 {
  %2 = getelementptr inbounds %"struct.std::_Vector_base.1", %"struct.std::_Vector_base.1"* %0, i32 0, i32 0
  %3 = bitcast %"struct.std::_Vector_base<int, std::allocator<int> >::_Vector_impl"* %2 to %"class.std::allocator.2"*
  ret %"class.std::allocator.2"* %3
}

; Function Attrs: noinline nounwind uwtable
define linkonce_odr i64 @_ZNK9__gnu_cxx13new_allocatorIiE8max_sizeEv(%"class.__gnu_cxx::new_allocator.3"* %0) #1 comdat align 2 {
  ret i64 4611686018427387903
}

; Function Attrs: noinline uwtable
define linkonce_odr i32* @_ZNSt16allocator_traitsISaIiEE8allocateERS0_m(%"class.std::allocator.2"* dereferenceable(1) %0, i64 %1) #0 comdat align 2 {
  %3 = bitcast %"class.std::allocator.2"* %0 to %"class.__gnu_cxx::new_allocator.3"*
  %4 = call i32* @_ZN9__gnu_cxx13new_allocatorIiE8allocateEmPKv(%"class.__gnu_cxx::new_allocator.3"* %3, i64 %1, i8* null)
  ret i32* %4
}

; Function Attrs: noinline uwtable
define linkonce_odr i32* @_ZN9__gnu_cxx13new_allocatorIiE8allocateEmPKv(%"class.__gnu_cxx::new_allocator.3"* %0, i64 %1, i8* %2) #0 comdat align 2 {
  %4 = call i64 @_ZNK9__gnu_cxx13new_allocatorIiE8max_sizeEv(%"class.__gnu_cxx::new_allocator.3"* %0) #2
  %5 = icmp ugt i64 %1, %4
  br i1 %5, label %6, label %7

6:                                                ; preds = %3
  call void @_ZSt17__throw_bad_allocv() #14
  unreachable

7:                                                ; preds = %3
  %8 = mul i64 %1, 4
  %9 = call i8* @_Znwm(i64 %8)
  %10 = bitcast i8* %9 to i32*
  ret i32* %10
}

; Function Attrs: noreturn
declare void @_ZSt17__throw_bad_allocv() #8

; Function Attrs: nobuiltin
declare noalias i8* @_Znwm(i64) #9

; Function Attrs: noinline uwtable
define linkonce_odr i32* @_ZSt22__uninitialized_copy_aISt13move_iteratorIPiES1_iET0_T_S4_S3_RSaIT1_E(i32* %0, i32* %1, i32* %2, %"class.std::allocator.2"* dereferenceable(1) %3) #0 comdat {
  %5 = alloca %"class.std::move_iterator", align 8
  %6 = alloca %"class.std::move_iterator", align 8
  %7 = alloca %"class.std::move_iterator", align 8
  %8 = alloca %"class.std::move_iterator", align 8
  %9 = getelementptr inbounds %"class.std::move_iterator", %"class.std::move_iterator"* %5, i32 0, i32 0
  store i32* %0, i32** %9, align 8
  %10 = getelementptr inbounds %"class.std::move_iterator", %"class.std::move_iterator"* %6, i32 0, i32 0
  store i32* %1, i32** %10, align 8
  %11 = bitcast %"class.std::move_iterator"* %7 to i8*
  %12 = bitcast %"class.std::move_iterator"* %5 to i8*
  call void @llvm.memcpy.p0i8.p0i8.i64(i8* align 8 %11, i8* align 8 %12, i64 8, i1 false)
  %13 = bitcast %"class.std::move_iterator"* %8 to i8*
  %14 = bitcast %"class.std::move_iterator"* %6 to i8*
  call void @llvm.memcpy.p0i8.p0i8.i64(i8* align 8 %13, i8* align 8 %14, i64 8, i1 false)
  %15 = getelementptr inbounds %"class.std::move_iterator", %"class.std::move_iterator"* %7, i32 0, i32 0
  %16 = load i32*, i32** %15, align 8
  %17 = getelementptr inbounds %"class.std::move_iterator", %"class.std::move_iterator"* %8, i32 0, i32 0
  %18 = load i32*, i32** %17, align 8
  %19 = call i32* @_ZSt18uninitialized_copyISt13move_iteratorIPiES1_ET0_T_S4_S3_(i32* %16, i32* %18, i32* %2)
  ret i32* %19
}

; Function Attrs: noinline uwtable
define linkonce_odr i32* @_ZSt32__make_move_if_noexcept_iteratorIiSt13move_iteratorIPiEET0_PT_(i32* %0) #0 comdat {
  %2 = alloca %"class.std::move_iterator", align 8
  call void @_ZNSt13move_iteratorIPiEC2ES0_(%"class.std::move_iterator"* %2, i32* %0)
  %3 = getelementptr inbounds %"class.std::move_iterator", %"class.std::move_iterator"* %2, i32 0, i32 0
  %4 = load i32*, i32** %3, align 8
  ret i32* %4
}

; Function Attrs: noinline uwtable
define linkonce_odr i32* @_ZSt18uninitialized_copyISt13move_iteratorIPiES1_ET0_T_S4_S3_(i32* %0, i32* %1, i32* %2) #0 comdat {
  %4 = alloca %"class.std::move_iterator", align 8
  %5 = alloca %"class.std::move_iterator", align 8
  %6 = alloca %"class.std::move_iterator", align 8
  %7 = alloca %"class.std::move_iterator", align 8
  %8 = getelementptr inbounds %"class.std::move_iterator", %"class.std::move_iterator"* %4, i32 0, i32 0
  store i32* %0, i32** %8, align 8
  %9 = getelementptr inbounds %"class.std::move_iterator", %"class.std::move_iterator"* %5, i32 0, i32 0
  store i32* %1, i32** %9, align 8
  %10 = bitcast %"class.std::move_iterator"* %6 to i8*
  %11 = bitcast %"class.std::move_iterator"* %4 to i8*
  call void @llvm.memcpy.p0i8.p0i8.i64(i8* align 8 %10, i8* align 8 %11, i64 8, i1 false)
  %12 = bitcast %"class.std::move_iterator"* %7 to i8*
  %13 = bitcast %"class.std::move_iterator"* %5 to i8*
  call void @llvm.memcpy.p0i8.p0i8.i64(i8* align 8 %12, i8* align 8 %13, i64 8, i1 false)
  %14 = getelementptr inbounds %"class.std::move_iterator", %"class.std::move_iterator"* %6, i32 0, i32 0
  %15 = load i32*, i32** %14, align 8
  %16 = getelementptr inbounds %"class.std::move_iterator", %"class.std::move_iterator"* %7, i32 0, i32 0
  %17 = load i32*, i32** %16, align 8
  %18 = call i32* @_ZNSt20__uninitialized_copyILb1EE13__uninit_copyISt13move_iteratorIPiES3_EET0_T_S6_S5_(i32* %15, i32* %17, i32* %2)
  ret i32* %18
}

; Function Attrs: noinline uwtable
define linkonce_odr i32* @_ZNSt20__uninitialized_copyILb1EE13__uninit_copyISt13move_iteratorIPiES3_EET0_T_S6_S5_(i32* %0, i32* %1, i32* %2) #0 comdat align 2 {
  %4 = alloca %"class.std::move_iterator", align 8
  %5 = alloca %"class.std::move_iterator", align 8
  %6 = alloca %"class.std::move_iterator", align 8
  %7 = alloca %"class.std::move_iterator", align 8
  %8 = getelementptr inbounds %"class.std::move_iterator", %"class.std::move_iterator"* %4, i32 0, i32 0
  store i32* %0, i32** %8, align 8
  %9 = getelementptr inbounds %"class.std::move_iterator", %"class.std::move_iterator"* %5, i32 0, i32 0
  store i32* %1, i32** %9, align 8
  %10 = bitcast %"class.std::move_iterator"* %6 to i8*
  %11 = bitcast %"class.std::move_iterator"* %4 to i8*
  call void @llvm.memcpy.p0i8.p0i8.i64(i8* align 8 %10, i8* align 8 %11, i64 8, i1 false)
  %12 = bitcast %"class.std::move_iterator"* %7 to i8*
  %13 = bitcast %"class.std::move_iterator"* %5 to i8*
  call void @llvm.memcpy.p0i8.p0i8.i64(i8* align 8 %12, i8* align 8 %13, i64 8, i1 false)
  %14 = getelementptr inbounds %"class.std::move_iterator", %"class.std::move_iterator"* %6, i32 0, i32 0
  %15 = load i32*, i32** %14, align 8
  %16 = getelementptr inbounds %"class.std::move_iterator", %"class.std::move_iterator"* %7, i32 0, i32 0
  %17 = load i32*, i32** %16, align 8
  %18 = call i32* @_ZSt4copyISt13move_iteratorIPiES1_ET0_T_S4_S3_(i32* %15, i32* %17, i32* %2)
  ret i32* %18
}

; Function Attrs: noinline uwtable
define linkonce_odr i32* @_ZSt4copyISt13move_iteratorIPiES1_ET0_T_S4_S3_(i32* %0, i32* %1, i32* %2) #0 comdat {
  %4 = alloca %"class.std::move_iterator", align 8
  %5 = alloca %"class.std::move_iterator", align 8
  %6 = alloca %"class.std::move_iterator", align 8
  %7 = alloca %"class.std::move_iterator", align 8
  %8 = getelementptr inbounds %"class.std::move_iterator", %"class.std::move_iterator"* %4, i32 0, i32 0
  store i32* %0, i32** %8, align 8
  %9 = getelementptr inbounds %"class.std::move_iterator", %"class.std::move_iterator"* %5, i32 0, i32 0
  store i32* %1, i32** %9, align 8
  %10 = bitcast %"class.std::move_iterator"* %6 to i8*
  %11 = bitcast %"class.std::move_iterator"* %4 to i8*
  call void @llvm.memcpy.p0i8.p0i8.i64(i8* align 8 %10, i8* align 8 %11, i64 8, i1 false)
  %12 = getelementptr inbounds %"class.std::move_iterator", %"class.std::move_iterator"* %6, i32 0, i32 0
  %13 = load i32*, i32** %12, align 8
  %14 = call i32* @_ZSt12__miter_baseIPiEDTcl12__miter_basecldtfp_4baseEEESt13move_iteratorIT_E(i32* %13)
  %15 = bitcast %"class.std::move_iterator"* %7 to i8*
  %16 = bitcast %"class.std::move_iterator"* %5 to i8*
  call void @llvm.memcpy.p0i8.p0i8.i64(i8* align 8 %15, i8* align 8 %16, i64 8, i1 false)
  %17 = getelementptr inbounds %"class.std::move_iterator", %"class.std::move_iterator"* %7, i32 0, i32 0
  %18 = load i32*, i32** %17, align 8
  %19 = call i32* @_ZSt12__miter_baseIPiEDTcl12__miter_basecldtfp_4baseEEESt13move_iteratorIT_E(i32* %18)
  %20 = call i32* @_ZSt14__copy_move_a2ILb1EPiS0_ET1_T0_S2_S1_(i32* %14, i32* %19, i32* %2)
  ret i32* %20
}

; Function Attrs: noinline uwtable
define linkonce_odr i32* @_ZSt14__copy_move_a2ILb1EPiS0_ET1_T0_S2_S1_(i32* %0, i32* %1, i32* %2) #0 comdat {
  %4 = call i32* @_ZSt12__niter_baseIPiET_S1_(i32* %0)
  %5 = call i32* @_ZSt12__niter_baseIPiET_S1_(i32* %1)
  %6 = call i32* @_ZSt12__niter_baseIPiET_S1_(i32* %2)
  %7 = call i32* @_ZSt13__copy_move_aILb1EPiS0_ET1_T0_S2_S1_(i32* %4, i32* %5, i32* %6)
  ret i32* %7
}

; Function Attrs: noinline uwtable
define linkonce_odr i32* @_ZSt12__miter_baseIPiEDTcl12__miter_basecldtfp_4baseEEESt13move_iteratorIT_E(i32* %0) #0 comdat {
  %2 = alloca %"class.std::move_iterator", align 8
  %3 = getelementptr inbounds %"class.std::move_iterator", %"class.std::move_iterator"* %2, i32 0, i32 0
  store i32* %0, i32** %3, align 8
  %4 = call i32* @_ZNKSt13move_iteratorIPiE4baseEv(%"class.std::move_iterator"* %2)
  %5 = call i32* @_ZSt12__miter_baseIPiET_S1_(i32* %4)
  ret i32* %5
}

; Function Attrs: noinline uwtable
define linkonce_odr i32* @_ZSt13__copy_move_aILb1EPiS0_ET1_T0_S2_S1_(i32* %0, i32* %1, i32* %2) #0 comdat {
  %4 = call i32* @_ZNSt11__copy_moveILb1ELb1ESt26random_access_iterator_tagE8__copy_mIiEEPT_PKS3_S6_S4_(i32* %0, i32* %1, i32* %2)
  ret i32* %4
}

; Function Attrs: noinline nounwind uwtable
define linkonce_odr i32* @_ZSt12__niter_baseIPiET_S1_(i32* %0) #1 comdat {
  ret i32* %0
}

; Function Attrs: noinline nounwind uwtable
define linkonce_odr i32* @_ZNSt11__copy_moveILb1ELb1ESt26random_access_iterator_tagE8__copy_mIiEEPT_PKS3_S6_S4_(i32* %0, i32* %1, i32* %2) #1 comdat align 2 {
  %4 = ptrtoint i32* %1 to i64
  %5 = ptrtoint i32* %0 to i64
  %6 = sub i64 %4, %5
  %7 = sdiv exact i64 %6, 4
  %8 = icmp ne i64 %7, 0
  br i1 %8, label %9, label %13

9:                                                ; preds = %3
  %10 = bitcast i32* %2 to i8*
  %11 = bitcast i32* %0 to i8*
  %12 = mul i64 4, %7
  call void @llvm.memmove.p0i8.p0i8.i64(i8* align 4 %10, i8* align 4 %11, i64 %12, i1 false)
  br label %13

13:                                               ; preds = %9, %3
  %14 = getelementptr inbounds i32, i32* %2, i64 %7
  ret i32* %14
}

; Function Attrs: noinline nounwind uwtable
define linkonce_odr i32* @_ZSt12__miter_baseIPiET_S1_(i32* %0) #1 comdat {
  ret i32* %0
}

; Function Attrs: noinline nounwind uwtable
define linkonce_odr i32* @_ZNKSt13move_iteratorIPiE4baseEv(%"class.std::move_iterator"* %0) #1 comdat align 2 {
  %2 = getelementptr inbounds %"class.std::move_iterator", %"class.std::move_iterator"* %0, i32 0, i32 0
  %3 = load i32*, i32** %2, align 8
  ret i32* %3
}

; Function Attrs: noinline nounwind uwtable
define linkonce_odr void @_ZNSt13move_iteratorIPiEC2ES0_(%"class.std::move_iterator"* %0, i32* %1) unnamed_addr #1 comdat align 2 {
  %3 = getelementptr inbounds %"class.std::move_iterator", %"class.std::move_iterator"* %0, i32 0, i32 0
  store i32* %1, i32** %3, align 8
  ret void
}

; Function Attrs: noinline nounwind uwtable
define linkonce_odr void @_ZN9__gnu_cxx13new_allocatorIiE7destroyIiEEvPT_(%"class.__gnu_cxx::new_allocator.3"* %0, i32* %1) #1 comdat align 2 {
  ret void
}

; Function Attrs: noinline nounwind uwtable
define linkonce_odr zeroext i1 @_ZN9__gnu_cxxeqIPKiSt6vectorIiSaIiEEEEbRKNS_17__normal_iteratorIT_T0_EESB_(%"class.__gnu_cxx::__normal_iterator.12"* dereferenceable(8) %0, %"class.__gnu_cxx::__normal_iterator.12"* dereferenceable(8) %1) #1 comdat {
  %3 = call dereferenceable(8) i32** @_ZNK9__gnu_cxx17__normal_iteratorIPKiSt6vectorIiSaIiEEE4baseEv(%"class.__gnu_cxx::__normal_iterator.12"* %0) #2
  %4 = load i32*, i32** %3, align 8
  %5 = call dereferenceable(8) i32** @_ZNK9__gnu_cxx17__normal_iteratorIPKiSt6vectorIiSaIiEEE4baseEv(%"class.__gnu_cxx::__normal_iterator.12"* %1) #2
  %6 = load i32*, i32** %5, align 8
  %7 = icmp eq i32* %4, %6
  ret i1 %7
}

; Function Attrs: noinline nounwind uwtable
define linkonce_odr i32* @_ZNKSt6vectorIiSaIiEE5beginEv(%"class.std::vector.0"* %0) #1 comdat align 2 {
  %2 = alloca %"class.__gnu_cxx::__normal_iterator.12", align 8
  %3 = alloca i32*, align 8
  %4 = bitcast %"class.std::vector.0"* %0 to %"struct.std::_Vector_base.1"*
  %5 = getelementptr inbounds %"struct.std::_Vector_base.1", %"struct.std::_Vector_base.1"* %4, i32 0, i32 0
  %6 = getelementptr inbounds %"struct.std::_Vector_base<int, std::allocator<int> >::_Vector_impl", %"struct.std::_Vector_base<int, std::allocator<int> >::_Vector_impl"* %5, i32 0, i32 0
  %7 = load i32*, i32** %6, align 8
  store i32* %7, i32** %3, align 8
  call void @_ZN9__gnu_cxx17__normal_iteratorIPKiSt6vectorIiSaIiEEEC2ERKS2_(%"class.__gnu_cxx::__normal_iterator.12"* %2, i32** dereferenceable(8) %3) #2
  %8 = getelementptr inbounds %"class.__gnu_cxx::__normal_iterator.12", %"class.__gnu_cxx::__normal_iterator.12"* %2, i32 0, i32 0
  %9 = load i32*, i32** %8, align 8
  ret i32* %9
}

; Function Attrs: noinline nounwind uwtable
define linkonce_odr i32* @_ZNKSt6vectorIiSaIiEE3endEv(%"class.std::vector.0"* %0) #1 comdat align 2 {
  %2 = alloca %"class.__gnu_cxx::__normal_iterator.12", align 8
  %3 = alloca i32*, align 8
  %4 = bitcast %"class.std::vector.0"* %0 to %"struct.std::_Vector_base.1"*
  %5 = getelementptr inbounds %"struct.std::_Vector_base.1", %"struct.std::_Vector_base.1"* %4, i32 0, i32 0
  %6 = getelementptr inbounds %"struct.std::_Vector_base<int, std::allocator<int> >::_Vector_impl", %"struct.std::_Vector_base<int, std::allocator<int> >::_Vector_impl"* %5, i32 0, i32 1
  %7 = load i32*, i32** %6, align 8
  store i32* %7, i32** %3, align 8
  call void @_ZN9__gnu_cxx17__normal_iteratorIPKiSt6vectorIiSaIiEEEC2ERKS2_(%"class.__gnu_cxx::__normal_iterator.12"* %2, i32** dereferenceable(8) %3) #2
  %8 = getelementptr inbounds %"class.__gnu_cxx::__normal_iterator.12", %"class.__gnu_cxx::__normal_iterator.12"* %2, i32 0, i32 0
  %9 = load i32*, i32** %8, align 8
  ret i32* %9
}

; Function Attrs: noinline nounwind uwtable
define linkonce_odr dereferenceable(8) i32** @_ZNK9__gnu_cxx17__normal_iteratorIPKiSt6vectorIiSaIiEEE4baseEv(%"class.__gnu_cxx::__normal_iterator.12"* %0) #1 comdat align 2 {
  %2 = getelementptr inbounds %"class.__gnu_cxx::__normal_iterator.12", %"class.__gnu_cxx::__normal_iterator.12"* %0, i32 0, i32 0
  ret i32** %2
}

; Function Attrs: noinline nounwind uwtable
define linkonce_odr void @_ZN9__gnu_cxx17__normal_iteratorIPKiSt6vectorIiSaIiEEEC2ERKS2_(%"class.__gnu_cxx::__normal_iterator.12"* %0, i32** dereferenceable(8) %1) unnamed_addr #1 comdat align 2 {
  %3 = getelementptr inbounds %"class.__gnu_cxx::__normal_iterator.12", %"class.__gnu_cxx::__normal_iterator.12"* %0, i32 0, i32 0
  %4 = load i32*, i32** %1, align 8
  store i32* %4, i32** %3, align 8
  ret void
}

; Function Attrs: noinline nounwind uwtable
define linkonce_odr i32* @_ZNK9__gnu_cxx17__normal_iteratorIPiSt6vectorIiSaIiEEEmiEl(%"class.__gnu_cxx::__normal_iterator"* %0, i64 %1) #1 comdat align 2 {
  %3 = alloca %"class.__gnu_cxx::__normal_iterator", align 8
  %4 = alloca i32*, align 8
  %5 = getelementptr inbounds %"class.__gnu_cxx::__normal_iterator", %"class.__gnu_cxx::__normal_iterator"* %0, i32 0, i32 0
  %6 = load i32*, i32** %5, align 8
  %7 = sub i64 0, %1
  %8 = getelementptr inbounds i32, i32* %6, i64 %7
  store i32* %8, i32** %4, align 8
  call void @_ZN9__gnu_cxx17__normal_iteratorIPiSt6vectorIiSaIiEEEC2ERKS1_(%"class.__gnu_cxx::__normal_iterator"* %3, i32** dereferenceable(8) %4) #2
  %9 = getelementptr inbounds %"class.__gnu_cxx::__normal_iterator", %"class.__gnu_cxx::__normal_iterator"* %3, i32 0, i32 0
  %10 = load i32*, i32** %9, align 8
  ret i32* %10
}

; Function Attrs: noinline nounwind uwtable
define linkonce_odr void @_ZN9__gnu_cxx17__normal_iteratorIPiSt6vectorIiSaIiEEEC2ERKS1_(%"class.__gnu_cxx::__normal_iterator"* %0, i32** dereferenceable(8) %1) unnamed_addr #1 comdat align 2 {
  %3 = getelementptr inbounds %"class.__gnu_cxx::__normal_iterator", %"class.__gnu_cxx::__normal_iterator"* %0, i32 0, i32 0
  %4 = load i32*, i32** %1, align 8
  store i32* %4, i32** %3, align 8
  ret void
}

; Function Attrs: noinline uwtable
define linkonce_odr void @_ZNSt6vectorIiSaIiEE14_M_fill_assignEmRKi(%"class.std::vector.0"* %0, i64 %1, i32* dereferenceable(4) %2) #0 comdat align 2 {
  %4 = alloca %"class.std::vector.0", align 8
  %5 = alloca %"class.__gnu_cxx::__normal_iterator", align 8
  %6 = alloca %"class.__gnu_cxx::__normal_iterator", align 8
  %7 = call i64 @_ZNKSt6vectorIiSaIiEE8capacityEv(%"class.std::vector.0"* %0) #2
  %8 = icmp ugt i64 %1, %7
  br i1 %8, label %9, label %16

9:                                                ; preds = %3
  %10 = bitcast %"class.std::vector.0"* %0 to %"struct.std::_Vector_base.1"*
  %11 = call dereferenceable(1) %"class.std::allocator.2"* @_ZNSt12_Vector_baseIiSaIiEE19_M_get_Tp_allocatorEv(%"struct.std::_Vector_base.1"* %10) #2
  call void @_ZNSt6vectorIiSaIiEEC2EmRKiRKS0_(%"class.std::vector.0"* %4, i64 %1, i32* dereferenceable(4) %2, %"class.std::allocator.2"* dereferenceable(1) %11)
  %12 = bitcast %"class.std::vector.0"* %4 to %"struct.std::_Vector_base.1"*
  %13 = getelementptr inbounds %"struct.std::_Vector_base.1", %"struct.std::_Vector_base.1"* %12, i32 0, i32 0
  %14 = bitcast %"class.std::vector.0"* %0 to %"struct.std::_Vector_base.1"*
  %15 = getelementptr inbounds %"struct.std::_Vector_base.1", %"struct.std::_Vector_base.1"* %14, i32 0, i32 0
  call void @_ZNSt12_Vector_baseIiSaIiEE12_Vector_impl12_M_swap_dataERS2_(%"struct.std::_Vector_base<int, std::allocator<int> >::_Vector_impl"* %13, %"struct.std::_Vector_base<int, std::allocator<int> >::_Vector_impl"* dereferenceable(24) %15) #2
  call void @_ZNSt6vectorIiSaIiEED2Ev(%"class.std::vector.0"* %4) #2
  br label %47

16:                                               ; preds = %3
  %17 = call i64 @_ZNKSt6vectorIiSaIiEE4sizeEv(%"class.std::vector.0"* %0) #2
  %18 = icmp ugt i64 %1, %17
  br i1 %18, label %19, label %40

19:                                               ; preds = %16
  %20 = call i32* @_ZNSt6vectorIiSaIiEE5beginEv(%"class.std::vector.0"* %0) #2
  %21 = getelementptr inbounds %"class.__gnu_cxx::__normal_iterator", %"class.__gnu_cxx::__normal_iterator"* %5, i32 0, i32 0
  store i32* %20, i32** %21, align 8
  %22 = call i32* @_ZNSt6vectorIiSaIiEE3endEv(%"class.std::vector.0"* %0) #2
  %23 = getelementptr inbounds %"class.__gnu_cxx::__normal_iterator", %"class.__gnu_cxx::__normal_iterator"* %6, i32 0, i32 0
  store i32* %22, i32** %23, align 8
  %24 = getelementptr inbounds %"class.__gnu_cxx::__normal_iterator", %"class.__gnu_cxx::__normal_iterator"* %5, i32 0, i32 0
  %25 = load i32*, i32** %24, align 8
  %26 = getelementptr inbounds %"class.__gnu_cxx::__normal_iterator", %"class.__gnu_cxx::__normal_iterator"* %6, i32 0, i32 0
  %27 = load i32*, i32** %26, align 8
  call void @_ZSt4fillIN9__gnu_cxx17__normal_iteratorIPiSt6vectorIiSaIiEEEEiEvT_S7_RKT0_(i32* %25, i32* %27, i32* dereferenceable(4) %2)
  %28 = call i64 @_ZNKSt6vectorIiSaIiEE4sizeEv(%"class.std::vector.0"* %0) #2
  %29 = sub i64 %1, %28
  %30 = bitcast %"class.std::vector.0"* %0 to %"struct.std::_Vector_base.1"*
  %31 = getelementptr inbounds %"struct.std::_Vector_base.1", %"struct.std::_Vector_base.1"* %30, i32 0, i32 0
  %32 = getelementptr inbounds %"struct.std::_Vector_base<int, std::allocator<int> >::_Vector_impl", %"struct.std::_Vector_base<int, std::allocator<int> >::_Vector_impl"* %31, i32 0, i32 1
  %33 = load i32*, i32** %32, align 8
  %34 = bitcast %"class.std::vector.0"* %0 to %"struct.std::_Vector_base.1"*
  %35 = call dereferenceable(1) %"class.std::allocator.2"* @_ZNSt12_Vector_baseIiSaIiEE19_M_get_Tp_allocatorEv(%"struct.std::_Vector_base.1"* %34) #2
  %36 = call i32* @_ZSt24__uninitialized_fill_n_aIPimiiET_S1_T0_RKT1_RSaIT2_E(i32* %33, i64 %29, i32* dereferenceable(4) %2, %"class.std::allocator.2"* dereferenceable(1) %35)
  %37 = bitcast %"class.std::vector.0"* %0 to %"struct.std::_Vector_base.1"*
  %38 = getelementptr inbounds %"struct.std::_Vector_base.1", %"struct.std::_Vector_base.1"* %37, i32 0, i32 0
  %39 = getelementptr inbounds %"struct.std::_Vector_base<int, std::allocator<int> >::_Vector_impl", %"struct.std::_Vector_base<int, std::allocator<int> >::_Vector_impl"* %38, i32 0, i32 1
  store i32* %36, i32** %39, align 8
  br label %46

40:                                               ; preds = %16
  %41 = bitcast %"class.std::vector.0"* %0 to %"struct.std::_Vector_base.1"*
  %42 = getelementptr inbounds %"struct.std::_Vector_base.1", %"struct.std::_Vector_base.1"* %41, i32 0, i32 0
  %43 = getelementptr inbounds %"struct.std::_Vector_base<int, std::allocator<int> >::_Vector_impl", %"struct.std::_Vector_base<int, std::allocator<int> >::_Vector_impl"* %42, i32 0, i32 0
  %44 = load i32*, i32** %43, align 8
  %45 = call i32* @_ZSt6fill_nIPimiET_S1_T0_RKT1_(i32* %44, i64 %1, i32* dereferenceable(4) %2)
  call void @_ZNSt6vectorIiSaIiEE15_M_erase_at_endEPi(%"class.std::vector.0"* %0, i32* %45) #2
  br label %46

46:                                               ; preds = %40, %19
  br label %47

47:                                               ; preds = %46, %9
  ret void
}

; Function Attrs: noinline nounwind uwtable
define linkonce_odr i64 @_ZNKSt6vectorIiSaIiEE8capacityEv(%"class.std::vector.0"* %0) #1 comdat align 2 {
  %2 = bitcast %"class.std::vector.0"* %0 to %"struct.std::_Vector_base.1"*
  %3 = getelementptr inbounds %"struct.std::_Vector_base.1", %"struct.std::_Vector_base.1"* %2, i32 0, i32 0
  %4 = getelementptr inbounds %"struct.std::_Vector_base<int, std::allocator<int> >::_Vector_impl", %"struct.std::_Vector_base<int, std::allocator<int> >::_Vector_impl"* %3, i32 0, i32 2
  %5 = load i32*, i32** %4, align 8
  %6 = bitcast %"class.std::vector.0"* %0 to %"struct.std::_Vector_base.1"*
  %7 = getelementptr inbounds %"struct.std::_Vector_base.1", %"struct.std::_Vector_base.1"* %6, i32 0, i32 0
  %8 = getelementptr inbounds %"struct.std::_Vector_base<int, std::allocator<int> >::_Vector_impl", %"struct.std::_Vector_base<int, std::allocator<int> >::_Vector_impl"* %7, i32 0, i32 0
  %9 = load i32*, i32** %8, align 8
  %10 = ptrtoint i32* %5 to i64
  %11 = ptrtoint i32* %9 to i64
  %12 = sub i64 %10, %11
  %13 = sdiv exact i64 %12, 4
  ret i64 %13
}

; Function Attrs: noinline uwtable
define linkonce_odr void @_ZNSt6vectorIiSaIiEEC2EmRKiRKS0_(%"class.std::vector.0"* %0, i64 %1, i32* dereferenceable(4) %2, %"class.std::allocator.2"* dereferenceable(1) %3) unnamed_addr #0 comdat align 2 personality i8* bitcast (i32 (...)* @__gxx_personality_v0 to i8*) {
  %5 = bitcast %"class.std::vector.0"* %0 to %"struct.std::_Vector_base.1"*
  call void @_ZNSt12_Vector_baseIiSaIiEEC2EmRKS0_(%"struct.std::_Vector_base.1"* %5, i64 %1, %"class.std::allocator.2"* dereferenceable(1) %3)
  invoke void @_ZNSt6vectorIiSaIiEE18_M_fill_initializeEmRKi(%"class.std::vector.0"* %0, i64 %1, i32* dereferenceable(4) %2)
          to label %6 unwind label %7

6:                                                ; preds = %4
  ret void

7:                                                ; preds = %4
  %8 = landingpad { i8*, i32 }
          cleanup
  %9 = extractvalue { i8*, i32 } %8, 0
  %10 = extractvalue { i8*, i32 } %8, 1
  %11 = bitcast %"class.std::vector.0"* %0 to %"struct.std::_Vector_base.1"*
  call void @_ZNSt12_Vector_baseIiSaIiEED2Ev(%"struct.std::_Vector_base.1"* %11) #2
  br label %12

12:                                               ; preds = %7
  %13 = insertvalue { i8*, i32 } undef, i8* %9, 0
  %14 = insertvalue { i8*, i32 } %13, i32 %10, 1
  resume { i8*, i32 } %14
}

; Function Attrs: noinline nounwind uwtable
define linkonce_odr void @_ZNSt12_Vector_baseIiSaIiEE12_Vector_impl12_M_swap_dataERS2_(%"struct.std::_Vector_base<int, std::allocator<int> >::_Vector_impl"* %0, %"struct.std::_Vector_base<int, std::allocator<int> >::_Vector_impl"* dereferenceable(24) %1) #1 comdat align 2 {
  %3 = getelementptr inbounds %"struct.std::_Vector_base<int, std::allocator<int> >::_Vector_impl", %"struct.std::_Vector_base<int, std::allocator<int> >::_Vector_impl"* %0, i32 0, i32 0
  %4 = getelementptr inbounds %"struct.std::_Vector_base<int, std::allocator<int> >::_Vector_impl", %"struct.std::_Vector_base<int, std::allocator<int> >::_Vector_impl"* %1, i32 0, i32 0
  call void @_ZSt4swapIPiENSt9enable_ifIXsr6__and_ISt6__not_ISt15__is_tuple_likeIT_EESt21is_move_constructibleIS4_ESt18is_move_assignableIS4_EEE5valueEvE4typeERS4_SD_(i32** dereferenceable(8) %3, i32** dereferenceable(8) %4) #2
  %5 = getelementptr inbounds %"struct.std::_Vector_base<int, std::allocator<int> >::_Vector_impl", %"struct.std::_Vector_base<int, std::allocator<int> >::_Vector_impl"* %0, i32 0, i32 1
  %6 = getelementptr inbounds %"struct.std::_Vector_base<int, std::allocator<int> >::_Vector_impl", %"struct.std::_Vector_base<int, std::allocator<int> >::_Vector_impl"* %1, i32 0, i32 1
  call void @_ZSt4swapIPiENSt9enable_ifIXsr6__and_ISt6__not_ISt15__is_tuple_likeIT_EESt21is_move_constructibleIS4_ESt18is_move_assignableIS4_EEE5valueEvE4typeERS4_SD_(i32** dereferenceable(8) %5, i32** dereferenceable(8) %6) #2
  %7 = getelementptr inbounds %"struct.std::_Vector_base<int, std::allocator<int> >::_Vector_impl", %"struct.std::_Vector_base<int, std::allocator<int> >::_Vector_impl"* %0, i32 0, i32 2
  %8 = getelementptr inbounds %"struct.std::_Vector_base<int, std::allocator<int> >::_Vector_impl", %"struct.std::_Vector_base<int, std::allocator<int> >::_Vector_impl"* %1, i32 0, i32 2
  call void @_ZSt4swapIPiENSt9enable_ifIXsr6__and_ISt6__not_ISt15__is_tuple_likeIT_EESt21is_move_constructibleIS4_ESt18is_move_assignableIS4_EEE5valueEvE4typeERS4_SD_(i32** dereferenceable(8) %7, i32** dereferenceable(8) %8) #2
  ret void
}

; Function Attrs: noinline uwtable
define linkonce_odr void @_ZSt4fillIN9__gnu_cxx17__normal_iteratorIPiSt6vectorIiSaIiEEEEiEvT_S7_RKT0_(i32* %0, i32* %1, i32* dereferenceable(4) %2) #0 comdat {
  %4 = alloca %"class.__gnu_cxx::__normal_iterator", align 8
  %5 = alloca %"class.__gnu_cxx::__normal_iterator", align 8
  %6 = alloca %"class.__gnu_cxx::__normal_iterator", align 8
  %7 = alloca %"class.__gnu_cxx::__normal_iterator", align 8
  %8 = getelementptr inbounds %"class.__gnu_cxx::__normal_iterator", %"class.__gnu_cxx::__normal_iterator"* %4, i32 0, i32 0
  store i32* %0, i32** %8, align 8
  %9 = getelementptr inbounds %"class.__gnu_cxx::__normal_iterator", %"class.__gnu_cxx::__normal_iterator"* %5, i32 0, i32 0
  store i32* %1, i32** %9, align 8
  %10 = bitcast %"class.__gnu_cxx::__normal_iterator"* %6 to i8*
  %11 = bitcast %"class.__gnu_cxx::__normal_iterator"* %4 to i8*
  call void @llvm.memcpy.p0i8.p0i8.i64(i8* align 8 %10, i8* align 8 %11, i64 8, i1 false)
  %12 = getelementptr inbounds %"class.__gnu_cxx::__normal_iterator", %"class.__gnu_cxx::__normal_iterator"* %6, i32 0, i32 0
  %13 = load i32*, i32** %12, align 8
  %14 = call i32* @_ZSt12__niter_baseIPiSt6vectorIiSaIiEEET_N9__gnu_cxx17__normal_iteratorIS4_T0_EE(i32* %13)
  %15 = bitcast %"class.__gnu_cxx::__normal_iterator"* %7 to i8*
  %16 = bitcast %"class.__gnu_cxx::__normal_iterator"* %5 to i8*
  call void @llvm.memcpy.p0i8.p0i8.i64(i8* align 8 %15, i8* align 8 %16, i64 8, i1 false)
  %17 = getelementptr inbounds %"class.__gnu_cxx::__normal_iterator", %"class.__gnu_cxx::__normal_iterator"* %7, i32 0, i32 0
  %18 = load i32*, i32** %17, align 8
  %19 = call i32* @_ZSt12__niter_baseIPiSt6vectorIiSaIiEEET_N9__gnu_cxx17__normal_iteratorIS4_T0_EE(i32* %18)
  call void @_ZSt8__fill_aIPiiEN9__gnu_cxx11__enable_ifIXsr11__is_scalarIT0_EE7__valueEvE6__typeET_S6_RKS3_(i32* %14, i32* %19, i32* dereferenceable(4) %2)
  ret void
}

; Function Attrs: noinline uwtable
define linkonce_odr i32* @_ZSt24__uninitialized_fill_n_aIPimiiET_S1_T0_RKT1_RSaIT2_E(i32* %0, i64 %1, i32* dereferenceable(4) %2, %"class.std::allocator.2"* dereferenceable(1) %3) #0 comdat {
  %5 = call i32* @_ZSt20uninitialized_fill_nIPimiET_S1_T0_RKT1_(i32* %0, i64 %1, i32* dereferenceable(4) %2)
  ret i32* %5
}

; Function Attrs: noinline nounwind uwtable
define linkonce_odr void @_ZNSt6vectorIiSaIiEE15_M_erase_at_endEPi(%"class.std::vector.0"* %0, i32* %1) #1 comdat align 2 personality i8* bitcast (i32 (...)* @__gxx_personality_v0 to i8*) {
  %3 = bitcast %"class.std::vector.0"* %0 to %"struct.std::_Vector_base.1"*
  %4 = getelementptr inbounds %"struct.std::_Vector_base.1", %"struct.std::_Vector_base.1"* %3, i32 0, i32 0
  %5 = getelementptr inbounds %"struct.std::_Vector_base<int, std::allocator<int> >::_Vector_impl", %"struct.std::_Vector_base<int, std::allocator<int> >::_Vector_impl"* %4, i32 0, i32 1
  %6 = load i32*, i32** %5, align 8
  %7 = ptrtoint i32* %6 to i64
  %8 = ptrtoint i32* %1 to i64
  %9 = sub i64 %7, %8
  %10 = sdiv exact i64 %9, 4
  %11 = icmp ne i64 %10, 0
  br i1 %11, label %12, label %23

12:                                               ; preds = %2
  %13 = bitcast %"class.std::vector.0"* %0 to %"struct.std::_Vector_base.1"*
  %14 = getelementptr inbounds %"struct.std::_Vector_base.1", %"struct.std::_Vector_base.1"* %13, i32 0, i32 0
  %15 = getelementptr inbounds %"struct.std::_Vector_base<int, std::allocator<int> >::_Vector_impl", %"struct.std::_Vector_base<int, std::allocator<int> >::_Vector_impl"* %14, i32 0, i32 1
  %16 = load i32*, i32** %15, align 8
  %17 = bitcast %"class.std::vector.0"* %0 to %"struct.std::_Vector_base.1"*
  %18 = call dereferenceable(1) %"class.std::allocator.2"* @_ZNSt12_Vector_baseIiSaIiEE19_M_get_Tp_allocatorEv(%"struct.std::_Vector_base.1"* %17) #2
  invoke void @_ZSt8_DestroyIPiiEvT_S1_RSaIT0_E(i32* %1, i32* %16, %"class.std::allocator.2"* dereferenceable(1) %18)
          to label %19 unwind label %24

19:                                               ; preds = %12
  %20 = bitcast %"class.std::vector.0"* %0 to %"struct.std::_Vector_base.1"*
  %21 = getelementptr inbounds %"struct.std::_Vector_base.1", %"struct.std::_Vector_base.1"* %20, i32 0, i32 0
  %22 = getelementptr inbounds %"struct.std::_Vector_base<int, std::allocator<int> >::_Vector_impl", %"struct.std::_Vector_base<int, std::allocator<int> >::_Vector_impl"* %21, i32 0, i32 1
  store i32* %1, i32** %22, align 8
  br label %23

23:                                               ; preds = %19, %2
  ret void

24:                                               ; preds = %12
  %25 = landingpad { i8*, i32 }
          catch i8* null
  %26 = extractvalue { i8*, i32 } %25, 0
  call void @__clang_call_terminate(i8* %26) #13
  unreachable
}

; Function Attrs: noinline uwtable
define linkonce_odr i32* @_ZSt6fill_nIPimiET_S1_T0_RKT1_(i32* %0, i64 %1, i32* dereferenceable(4) %2) #0 comdat {
  %4 = call i32* @_ZSt12__niter_baseIPiET_S1_(i32* %0)
  %5 = call i32* @_ZSt10__fill_n_aIPimiEN9__gnu_cxx11__enable_ifIXsr11__is_scalarIT1_EE7__valueET_E6__typeES4_T0_RKS3_(i32* %4, i64 %1, i32* dereferenceable(4) %2)
  ret i32* %5
}

; Function Attrs: noinline uwtable
define linkonce_odr void @_ZNSt12_Vector_baseIiSaIiEEC2EmRKS0_(%"struct.std::_Vector_base.1"* %0, i64 %1, %"class.std::allocator.2"* dereferenceable(1) %2) unnamed_addr #0 comdat align 2 personality i8* bitcast (i32 (...)* @__gxx_personality_v0 to i8*) {
  %4 = getelementptr inbounds %"struct.std::_Vector_base.1", %"struct.std::_Vector_base.1"* %0, i32 0, i32 0
  call void @_ZNSt12_Vector_baseIiSaIiEE12_Vector_implC2ERKS0_(%"struct.std::_Vector_base<int, std::allocator<int> >::_Vector_impl"* %4, %"class.std::allocator.2"* dereferenceable(1) %2) #2
  invoke void @_ZNSt12_Vector_baseIiSaIiEE17_M_create_storageEm(%"struct.std::_Vector_base.1"* %0, i64 %1)
          to label %5 unwind label %6

5:                                                ; preds = %3
  ret void

6:                                                ; preds = %3
  %7 = landingpad { i8*, i32 }
          cleanup
  %8 = extractvalue { i8*, i32 } %7, 0
  %9 = extractvalue { i8*, i32 } %7, 1
  call void @_ZNSt12_Vector_baseIiSaIiEE12_Vector_implD2Ev(%"struct.std::_Vector_base<int, std::allocator<int> >::_Vector_impl"* %4) #2
  br label %10

10:                                               ; preds = %6
  %11 = insertvalue { i8*, i32 } undef, i8* %8, 0
  %12 = insertvalue { i8*, i32 } %11, i32 %9, 1
  resume { i8*, i32 } %12
}

; Function Attrs: noinline uwtable
define linkonce_odr void @_ZNSt6vectorIiSaIiEE18_M_fill_initializeEmRKi(%"class.std::vector.0"* %0, i64 %1, i32* dereferenceable(4) %2) #0 comdat align 2 {
  %4 = bitcast %"class.std::vector.0"* %0 to %"struct.std::_Vector_base.1"*
  %5 = getelementptr inbounds %"struct.std::_Vector_base.1", %"struct.std::_Vector_base.1"* %4, i32 0, i32 0
  %6 = getelementptr inbounds %"struct.std::_Vector_base<int, std::allocator<int> >::_Vector_impl", %"struct.std::_Vector_base<int, std::allocator<int> >::_Vector_impl"* %5, i32 0, i32 0
  %7 = load i32*, i32** %6, align 8
  %8 = bitcast %"class.std::vector.0"* %0 to %"struct.std::_Vector_base.1"*
  %9 = call dereferenceable(1) %"class.std::allocator.2"* @_ZNSt12_Vector_baseIiSaIiEE19_M_get_Tp_allocatorEv(%"struct.std::_Vector_base.1"* %8) #2
  %10 = call i32* @_ZSt24__uninitialized_fill_n_aIPimiiET_S1_T0_RKT1_RSaIT2_E(i32* %7, i64 %1, i32* dereferenceable(4) %2, %"class.std::allocator.2"* dereferenceable(1) %9)
  %11 = bitcast %"class.std::vector.0"* %0 to %"struct.std::_Vector_base.1"*
  %12 = getelementptr inbounds %"struct.std::_Vector_base.1", %"struct.std::_Vector_base.1"* %11, i32 0, i32 0
  %13 = getelementptr inbounds %"struct.std::_Vector_base<int, std::allocator<int> >::_Vector_impl", %"struct.std::_Vector_base<int, std::allocator<int> >::_Vector_impl"* %12, i32 0, i32 1
  store i32* %10, i32** %13, align 8
  ret void
}

; Function Attrs: noinline nounwind uwtable
define linkonce_odr void @_ZNSt12_Vector_baseIiSaIiEE12_Vector_implC2ERKS0_(%"struct.std::_Vector_base<int, std::allocator<int> >::_Vector_impl"* %0, %"class.std::allocator.2"* dereferenceable(1) %1) unnamed_addr #1 comdat align 2 {
  %3 = bitcast %"struct.std::_Vector_base<int, std::allocator<int> >::_Vector_impl"* %0 to %"class.std::allocator.2"*
  call void @_ZNSaIiEC2ERKS_(%"class.std::allocator.2"* %3, %"class.std::allocator.2"* dereferenceable(1) %1) #2
  %4 = getelementptr inbounds %"struct.std::_Vector_base<int, std::allocator<int> >::_Vector_impl", %"struct.std::_Vector_base<int, std::allocator<int> >::_Vector_impl"* %0, i32 0, i32 0
  store i32* null, i32** %4, align 8
  %5 = getelementptr inbounds %"struct.std::_Vector_base<int, std::allocator<int> >::_Vector_impl", %"struct.std::_Vector_base<int, std::allocator<int> >::_Vector_impl"* %0, i32 0, i32 1
  store i32* null, i32** %5, align 8
  %6 = getelementptr inbounds %"struct.std::_Vector_base<int, std::allocator<int> >::_Vector_impl", %"struct.std::_Vector_base<int, std::allocator<int> >::_Vector_impl"* %0, i32 0, i32 2
  store i32* null, i32** %6, align 8
  ret void
}

; Function Attrs: noinline uwtable
define linkonce_odr void @_ZNSt12_Vector_baseIiSaIiEE17_M_create_storageEm(%"struct.std::_Vector_base.1"* %0, i64 %1) #0 comdat align 2 {
  %3 = call i32* @_ZNSt12_Vector_baseIiSaIiEE11_M_allocateEm(%"struct.std::_Vector_base.1"* %0, i64 %1)
  %4 = getelementptr inbounds %"struct.std::_Vector_base.1", %"struct.std::_Vector_base.1"* %0, i32 0, i32 0
  %5 = getelementptr inbounds %"struct.std::_Vector_base<int, std::allocator<int> >::_Vector_impl", %"struct.std::_Vector_base<int, std::allocator<int> >::_Vector_impl"* %4, i32 0, i32 0
  store i32* %3, i32** %5, align 8
  %6 = getelementptr inbounds %"struct.std::_Vector_base.1", %"struct.std::_Vector_base.1"* %0, i32 0, i32 0
  %7 = getelementptr inbounds %"struct.std::_Vector_base<int, std::allocator<int> >::_Vector_impl", %"struct.std::_Vector_base<int, std::allocator<int> >::_Vector_impl"* %6, i32 0, i32 0
  %8 = load i32*, i32** %7, align 8
  %9 = getelementptr inbounds %"struct.std::_Vector_base.1", %"struct.std::_Vector_base.1"* %0, i32 0, i32 0
  %10 = getelementptr inbounds %"struct.std::_Vector_base<int, std::allocator<int> >::_Vector_impl", %"struct.std::_Vector_base<int, std::allocator<int> >::_Vector_impl"* %9, i32 0, i32 1
  store i32* %8, i32** %10, align 8
  %11 = getelementptr inbounds %"struct.std::_Vector_base.1", %"struct.std::_Vector_base.1"* %0, i32 0, i32 0
  %12 = getelementptr inbounds %"struct.std::_Vector_base<int, std::allocator<int> >::_Vector_impl", %"struct.std::_Vector_base<int, std::allocator<int> >::_Vector_impl"* %11, i32 0, i32 0
  %13 = load i32*, i32** %12, align 8
  %14 = getelementptr inbounds i32, i32* %13, i64 %1
  %15 = getelementptr inbounds %"struct.std::_Vector_base.1", %"struct.std::_Vector_base.1"* %0, i32 0, i32 0
  %16 = getelementptr inbounds %"struct.std::_Vector_base<int, std::allocator<int> >::_Vector_impl", %"struct.std::_Vector_base<int, std::allocator<int> >::_Vector_impl"* %15, i32 0, i32 2
  store i32* %14, i32** %16, align 8
  ret void
}

; Function Attrs: noinline nounwind uwtable
define linkonce_odr void @_ZNSaIiEC2ERKS_(%"class.std::allocator.2"* %0, %"class.std::allocator.2"* dereferenceable(1) %1) unnamed_addr #1 comdat align 2 {
  %3 = bitcast %"class.std::allocator.2"* %0 to %"class.__gnu_cxx::new_allocator.3"*
  %4 = bitcast %"class.std::allocator.2"* %1 to %"class.__gnu_cxx::new_allocator.3"*
  call void @_ZN9__gnu_cxx13new_allocatorIiEC2ERKS1_(%"class.__gnu_cxx::new_allocator.3"* %3, %"class.__gnu_cxx::new_allocator.3"* dereferenceable(1) %4) #2
  ret void
}

; Function Attrs: noinline nounwind uwtable
define linkonce_odr void @_ZN9__gnu_cxx13new_allocatorIiEC2ERKS1_(%"class.__gnu_cxx::new_allocator.3"* %0, %"class.__gnu_cxx::new_allocator.3"* dereferenceable(1) %1) unnamed_addr #1 comdat align 2 {
  ret void
}

; Function Attrs: noinline nounwind uwtable
define linkonce_odr void @_ZSt4swapIPiENSt9enable_ifIXsr6__and_ISt6__not_ISt15__is_tuple_likeIT_EESt21is_move_constructibleIS4_ESt18is_move_assignableIS4_EEE5valueEvE4typeERS4_SD_(i32** dereferenceable(8) %0, i32** dereferenceable(8) %1) #1 comdat {
  %3 = alloca i32*, align 8
  %4 = call dereferenceable(8) i32** @_ZSt4moveIRPiEONSt16remove_referenceIT_E4typeEOS3_(i32** dereferenceable(8) %0) #2
  %5 = load i32*, i32** %4, align 8
  store i32* %5, i32** %3, align 8
  %6 = call dereferenceable(8) i32** @_ZSt4moveIRPiEONSt16remove_referenceIT_E4typeEOS3_(i32** dereferenceable(8) %1) #2
  %7 = load i32*, i32** %6, align 8
  store i32* %7, i32** %0, align 8
  %8 = call dereferenceable(8) i32** @_ZSt4moveIRPiEONSt16remove_referenceIT_E4typeEOS3_(i32** dereferenceable(8) %3) #2
  %9 = load i32*, i32** %8, align 8
  store i32* %9, i32** %1, align 8
  ret void
}

; Function Attrs: noinline nounwind uwtable
define linkonce_odr dereferenceable(8) i32** @_ZSt4moveIRPiEONSt16remove_referenceIT_E4typeEOS3_(i32** dereferenceable(8) %0) #1 comdat {
  ret i32** %0
}

; Function Attrs: noinline nounwind uwtable
define linkonce_odr void @_ZSt8__fill_aIPiiEN9__gnu_cxx11__enable_ifIXsr11__is_scalarIT0_EE7__valueEvE6__typeET_S6_RKS3_(i32* %0, i32* %1, i32* dereferenceable(4) %2) #1 comdat {
  %4 = load i32, i32* %2, align 4
  br label %5

5:                                                ; preds = %8, %3
  %.0 = phi i32* [ %0, %3 ], [ %9, %8 ]
  %6 = icmp ne i32* %.0, %1
  br i1 %6, label %7, label %10

7:                                                ; preds = %5
  store i32 %4, i32* %.0, align 4
  br label %8

8:                                                ; preds = %7
  %9 = getelementptr inbounds i32, i32* %.0, i32 1
  br label %5

10:                                               ; preds = %5
  ret void
}

; Function Attrs: noinline nounwind uwtable
define linkonce_odr i32* @_ZSt12__niter_baseIPiSt6vectorIiSaIiEEET_N9__gnu_cxx17__normal_iteratorIS4_T0_EE(i32* %0) #1 comdat {
  %2 = alloca %"class.__gnu_cxx::__normal_iterator", align 8
  %3 = getelementptr inbounds %"class.__gnu_cxx::__normal_iterator", %"class.__gnu_cxx::__normal_iterator"* %2, i32 0, i32 0
  store i32* %0, i32** %3, align 8
  %4 = call dereferenceable(8) i32** @_ZNK9__gnu_cxx17__normal_iteratorIPiSt6vectorIiSaIiEEE4baseEv(%"class.__gnu_cxx::__normal_iterator"* %2) #2
  %5 = load i32*, i32** %4, align 8
  ret i32* %5
}

; Function Attrs: noinline uwtable
define linkonce_odr i32* @_ZSt20uninitialized_fill_nIPimiET_S1_T0_RKT1_(i32* %0, i64 %1, i32* dereferenceable(4) %2) #0 comdat {
  %4 = call i32* @_ZNSt22__uninitialized_fill_nILb1EE15__uninit_fill_nIPimiEET_S3_T0_RKT1_(i32* %0, i64 %1, i32* dereferenceable(4) %2)
  ret i32* %4
}

; Function Attrs: noinline uwtable
define linkonce_odr i32* @_ZNSt22__uninitialized_fill_nILb1EE15__uninit_fill_nIPimiEET_S3_T0_RKT1_(i32* %0, i64 %1, i32* dereferenceable(4) %2) #0 comdat align 2 {
  %4 = call i32* @_ZSt6fill_nIPimiET_S1_T0_RKT1_(i32* %0, i64 %1, i32* dereferenceable(4) %2)
  ret i32* %4
}

; Function Attrs: noinline nounwind uwtable
define linkonce_odr i32* @_ZSt10__fill_n_aIPimiEN9__gnu_cxx11__enable_ifIXsr11__is_scalarIT1_EE7__valueET_E6__typeES4_T0_RKS3_(i32* %0, i64 %1, i32* dereferenceable(4) %2) #1 comdat {
  %4 = load i32, i32* %2, align 4
  br label %5

5:                                                ; preds = %8, %3
  %.01 = phi i64 [ %1, %3 ], [ %9, %8 ]
  %.0 = phi i32* [ %0, %3 ], [ %10, %8 ]
  %6 = icmp ugt i64 %.01, 0
  br i1 %6, label %7, label %11

7:                                                ; preds = %5
  store i32 %4, i32* %.0, align 4
  br label %8

8:                                                ; preds = %7
  %9 = add i64 %.01, -1
  %10 = getelementptr inbounds i32, i32* %.0, i32 1
  br label %5

11:                                               ; preds = %5
  ret i32* %.0
}

; Function Attrs: noinline nounwind uwtable
define linkonce_odr void @_ZN9__gnu_cxx13new_allocatorISt4pairIiiEEC2Ev(%"class.__gnu_cxx::new_allocator.8"* %0) unnamed_addr #1 comdat align 2 {
  ret void
}

; Function Attrs: noinline nounwind uwtable
define linkonce_odr void @_ZN9__gnu_cxx13new_allocatorISt4pairIiiEED2Ev(%"class.__gnu_cxx::new_allocator.8"* %0) unnamed_addr #1 comdat align 2 {
  ret void
}

; Function Attrs: noinline uwtable
define linkonce_odr void @_ZNSt12_Vector_baseISt4pairIiiESaIS1_EEC2EmRKS2_(%"struct.std::_Vector_base.6"* %0, i64 %1, %"class.std::allocator.7"* dereferenceable(1) %2) unnamed_addr #0 comdat align 2 personality i8* bitcast (i32 (...)* @__gxx_personality_v0 to i8*) {
  %4 = getelementptr inbounds %"struct.std::_Vector_base.6", %"struct.std::_Vector_base.6"* %0, i32 0, i32 0
  call void @_ZNSt12_Vector_baseISt4pairIiiESaIS1_EE12_Vector_implC2ERKS2_(%"struct.std::_Vector_base<std::pair<int, int>, std::allocator<std::pair<int, int> > >::_Vector_impl"* %4, %"class.std::allocator.7"* dereferenceable(1) %2) #2
  invoke void @_ZNSt12_Vector_baseISt4pairIiiESaIS1_EE17_M_create_storageEm(%"struct.std::_Vector_base.6"* %0, i64 %1)
          to label %5 unwind label %6

5:                                                ; preds = %3
  ret void

6:                                                ; preds = %3
  %7 = landingpad { i8*, i32 }
          cleanup
  %8 = extractvalue { i8*, i32 } %7, 0
  %9 = extractvalue { i8*, i32 } %7, 1
  call void @_ZNSt12_Vector_baseISt4pairIiiESaIS1_EE12_Vector_implD2Ev(%"struct.std::_Vector_base<std::pair<int, int>, std::allocator<std::pair<int, int> > >::_Vector_impl"* %4) #2
  br label %10

10:                                               ; preds = %6
  %11 = insertvalue { i8*, i32 } undef, i8* %8, 0
  %12 = insertvalue { i8*, i32 } %11, i32 %9, 1
  resume { i8*, i32 } %12
}

; Function Attrs: noinline uwtable
define linkonce_odr void @_ZNSt6vectorISt4pairIiiESaIS1_EE21_M_default_initializeEm(%"class.std::vector.5"* %0, i64 %1) #0 comdat align 2 {
  %3 = bitcast %"class.std::vector.5"* %0 to %"struct.std::_Vector_base.6"*
  %4 = getelementptr inbounds %"struct.std::_Vector_base.6", %"struct.std::_Vector_base.6"* %3, i32 0, i32 0
  %5 = getelementptr inbounds %"struct.std::_Vector_base<std::pair<int, int>, std::allocator<std::pair<int, int> > >::_Vector_impl", %"struct.std::_Vector_base<std::pair<int, int>, std::allocator<std::pair<int, int> > >::_Vector_impl"* %4, i32 0, i32 0
  %6 = load %"struct.std::pair"*, %"struct.std::pair"** %5, align 8
  %7 = bitcast %"class.std::vector.5"* %0 to %"struct.std::_Vector_base.6"*
  %8 = call dereferenceable(1) %"class.std::allocator.7"* @_ZNSt12_Vector_baseISt4pairIiiESaIS1_EE19_M_get_Tp_allocatorEv(%"struct.std::_Vector_base.6"* %7) #2
  %9 = call %"struct.std::pair"* @_ZSt27__uninitialized_default_n_aIPSt4pairIiiEmS1_ET_S3_T0_RSaIT1_E(%"struct.std::pair"* %6, i64 %1, %"class.std::allocator.7"* dereferenceable(1) %8)
  %10 = bitcast %"class.std::vector.5"* %0 to %"struct.std::_Vector_base.6"*
  %11 = getelementptr inbounds %"struct.std::_Vector_base.6", %"struct.std::_Vector_base.6"* %10, i32 0, i32 0
  %12 = getelementptr inbounds %"struct.std::_Vector_base<std::pair<int, int>, std::allocator<std::pair<int, int> > >::_Vector_impl", %"struct.std::_Vector_base<std::pair<int, int>, std::allocator<std::pair<int, int> > >::_Vector_impl"* %11, i32 0, i32 1
  store %"struct.std::pair"* %9, %"struct.std::pair"** %12, align 8
  ret void
}

; Function Attrs: noinline nounwind uwtable
define linkonce_odr void @_ZNSt12_Vector_baseISt4pairIiiESaIS1_EED2Ev(%"struct.std::_Vector_base.6"* %0) unnamed_addr #1 comdat align 2 personality i8* bitcast (i32 (...)* @__gxx_personality_v0 to i8*) {
  %2 = getelementptr inbounds %"struct.std::_Vector_base.6", %"struct.std::_Vector_base.6"* %0, i32 0, i32 0
  %3 = getelementptr inbounds %"struct.std::_Vector_base<std::pair<int, int>, std::allocator<std::pair<int, int> > >::_Vector_impl", %"struct.std::_Vector_base<std::pair<int, int>, std::allocator<std::pair<int, int> > >::_Vector_impl"* %2, i32 0, i32 0
  %4 = load %"struct.std::pair"*, %"struct.std::pair"** %3, align 8
  %5 = getelementptr inbounds %"struct.std::_Vector_base.6", %"struct.std::_Vector_base.6"* %0, i32 0, i32 0
  %6 = getelementptr inbounds %"struct.std::_Vector_base<std::pair<int, int>, std::allocator<std::pair<int, int> > >::_Vector_impl", %"struct.std::_Vector_base<std::pair<int, int>, std::allocator<std::pair<int, int> > >::_Vector_impl"* %5, i32 0, i32 2
  %7 = load %"struct.std::pair"*, %"struct.std::pair"** %6, align 8
  %8 = getelementptr inbounds %"struct.std::_Vector_base.6", %"struct.std::_Vector_base.6"* %0, i32 0, i32 0
  %9 = getelementptr inbounds %"struct.std::_Vector_base<std::pair<int, int>, std::allocator<std::pair<int, int> > >::_Vector_impl", %"struct.std::_Vector_base<std::pair<int, int>, std::allocator<std::pair<int, int> > >::_Vector_impl"* %8, i32 0, i32 0
  %10 = load %"struct.std::pair"*, %"struct.std::pair"** %9, align 8
  %11 = ptrtoint %"struct.std::pair"* %7 to i64
  %12 = ptrtoint %"struct.std::pair"* %10 to i64
  %13 = sub i64 %11, %12
  %14 = sdiv exact i64 %13, 8
  invoke void @_ZNSt12_Vector_baseISt4pairIiiESaIS1_EE13_M_deallocateEPS1_m(%"struct.std::_Vector_base.6"* %0, %"struct.std::pair"* %4, i64 %14)
          to label %15 unwind label %17

15:                                               ; preds = %1
  %16 = getelementptr inbounds %"struct.std::_Vector_base.6", %"struct.std::_Vector_base.6"* %0, i32 0, i32 0
  call void @_ZNSt12_Vector_baseISt4pairIiiESaIS1_EE12_Vector_implD2Ev(%"struct.std::_Vector_base<std::pair<int, int>, std::allocator<std::pair<int, int> > >::_Vector_impl"* %16) #2
  ret void

17:                                               ; preds = %1
  %18 = landingpad { i8*, i32 }
          catch i8* null
  %19 = extractvalue { i8*, i32 } %18, 0
  %20 = extractvalue { i8*, i32 } %18, 1
  %21 = getelementptr inbounds %"struct.std::_Vector_base.6", %"struct.std::_Vector_base.6"* %0, i32 0, i32 0
  call void @_ZNSt12_Vector_baseISt4pairIiiESaIS1_EE12_Vector_implD2Ev(%"struct.std::_Vector_base<std::pair<int, int>, std::allocator<std::pair<int, int> > >::_Vector_impl"* %21) #2
  br label %22

22:                                               ; preds = %17
  call void @__clang_call_terminate(i8* %19) #13
  unreachable
}

; Function Attrs: noinline nounwind uwtable
define linkonce_odr void @_ZNSt12_Vector_baseISt4pairIiiESaIS1_EE12_Vector_implC2ERKS2_(%"struct.std::_Vector_base<std::pair<int, int>, std::allocator<std::pair<int, int> > >::_Vector_impl"* %0, %"class.std::allocator.7"* dereferenceable(1) %1) unnamed_addr #1 comdat align 2 {
  %3 = bitcast %"struct.std::_Vector_base<std::pair<int, int>, std::allocator<std::pair<int, int> > >::_Vector_impl"* %0 to %"class.std::allocator.7"*
  call void @_ZNSaISt4pairIiiEEC2ERKS1_(%"class.std::allocator.7"* %3, %"class.std::allocator.7"* dereferenceable(1) %1) #2
  %4 = getelementptr inbounds %"struct.std::_Vector_base<std::pair<int, int>, std::allocator<std::pair<int, int> > >::_Vector_impl", %"struct.std::_Vector_base<std::pair<int, int>, std::allocator<std::pair<int, int> > >::_Vector_impl"* %0, i32 0, i32 0
  store %"struct.std::pair"* null, %"struct.std::pair"** %4, align 8
  %5 = getelementptr inbounds %"struct.std::_Vector_base<std::pair<int, int>, std::allocator<std::pair<int, int> > >::_Vector_impl", %"struct.std::_Vector_base<std::pair<int, int>, std::allocator<std::pair<int, int> > >::_Vector_impl"* %0, i32 0, i32 1
  store %"struct.std::pair"* null, %"struct.std::pair"** %5, align 8
  %6 = getelementptr inbounds %"struct.std::_Vector_base<std::pair<int, int>, std::allocator<std::pair<int, int> > >::_Vector_impl", %"struct.std::_Vector_base<std::pair<int, int>, std::allocator<std::pair<int, int> > >::_Vector_impl"* %0, i32 0, i32 2
  store %"struct.std::pair"* null, %"struct.std::pair"** %6, align 8
  ret void
}

; Function Attrs: noinline uwtable
define linkonce_odr void @_ZNSt12_Vector_baseISt4pairIiiESaIS1_EE17_M_create_storageEm(%"struct.std::_Vector_base.6"* %0, i64 %1) #0 comdat align 2 {
  %3 = call %"struct.std::pair"* @_ZNSt12_Vector_baseISt4pairIiiESaIS1_EE11_M_allocateEm(%"struct.std::_Vector_base.6"* %0, i64 %1)
  %4 = getelementptr inbounds %"struct.std::_Vector_base.6", %"struct.std::_Vector_base.6"* %0, i32 0, i32 0
  %5 = getelementptr inbounds %"struct.std::_Vector_base<std::pair<int, int>, std::allocator<std::pair<int, int> > >::_Vector_impl", %"struct.std::_Vector_base<std::pair<int, int>, std::allocator<std::pair<int, int> > >::_Vector_impl"* %4, i32 0, i32 0
  store %"struct.std::pair"* %3, %"struct.std::pair"** %5, align 8
  %6 = getelementptr inbounds %"struct.std::_Vector_base.6", %"struct.std::_Vector_base.6"* %0, i32 0, i32 0
  %7 = getelementptr inbounds %"struct.std::_Vector_base<std::pair<int, int>, std::allocator<std::pair<int, int> > >::_Vector_impl", %"struct.std::_Vector_base<std::pair<int, int>, std::allocator<std::pair<int, int> > >::_Vector_impl"* %6, i32 0, i32 0
  %8 = load %"struct.std::pair"*, %"struct.std::pair"** %7, align 8
  %9 = getelementptr inbounds %"struct.std::_Vector_base.6", %"struct.std::_Vector_base.6"* %0, i32 0, i32 0
  %10 = getelementptr inbounds %"struct.std::_Vector_base<std::pair<int, int>, std::allocator<std::pair<int, int> > >::_Vector_impl", %"struct.std::_Vector_base<std::pair<int, int>, std::allocator<std::pair<int, int> > >::_Vector_impl"* %9, i32 0, i32 1
  store %"struct.std::pair"* %8, %"struct.std::pair"** %10, align 8
  %11 = getelementptr inbounds %"struct.std::_Vector_base.6", %"struct.std::_Vector_base.6"* %0, i32 0, i32 0
  %12 = getelementptr inbounds %"struct.std::_Vector_base<std::pair<int, int>, std::allocator<std::pair<int, int> > >::_Vector_impl", %"struct.std::_Vector_base<std::pair<int, int>, std::allocator<std::pair<int, int> > >::_Vector_impl"* %11, i32 0, i32 0
  %13 = load %"struct.std::pair"*, %"struct.std::pair"** %12, align 8
  %14 = getelementptr inbounds %"struct.std::pair", %"struct.std::pair"* %13, i64 %1
  %15 = getelementptr inbounds %"struct.std::_Vector_base.6", %"struct.std::_Vector_base.6"* %0, i32 0, i32 0
  %16 = getelementptr inbounds %"struct.std::_Vector_base<std::pair<int, int>, std::allocator<std::pair<int, int> > >::_Vector_impl", %"struct.std::_Vector_base<std::pair<int, int>, std::allocator<std::pair<int, int> > >::_Vector_impl"* %15, i32 0, i32 2
  store %"struct.std::pair"* %14, %"struct.std::pair"** %16, align 8
  ret void
}

; Function Attrs: noinline nounwind uwtable
define linkonce_odr void @_ZNSt12_Vector_baseISt4pairIiiESaIS1_EE12_Vector_implD2Ev(%"struct.std::_Vector_base<std::pair<int, int>, std::allocator<std::pair<int, int> > >::_Vector_impl"* %0) unnamed_addr #1 comdat align 2 {
  %2 = bitcast %"struct.std::_Vector_base<std::pair<int, int>, std::allocator<std::pair<int, int> > >::_Vector_impl"* %0 to %"class.std::allocator.7"*
  call void @_ZNSaISt4pairIiiEED2Ev(%"class.std::allocator.7"* %2) #2
  ret void
}

; Function Attrs: noinline nounwind uwtable
define linkonce_odr void @_ZNSaISt4pairIiiEEC2ERKS1_(%"class.std::allocator.7"* %0, %"class.std::allocator.7"* dereferenceable(1) %1) unnamed_addr #1 comdat align 2 {
  %3 = bitcast %"class.std::allocator.7"* %0 to %"class.__gnu_cxx::new_allocator.8"*
  %4 = bitcast %"class.std::allocator.7"* %1 to %"class.__gnu_cxx::new_allocator.8"*
  call void @_ZN9__gnu_cxx13new_allocatorISt4pairIiiEEC2ERKS3_(%"class.__gnu_cxx::new_allocator.8"* %3, %"class.__gnu_cxx::new_allocator.8"* dereferenceable(1) %4) #2
  ret void
}

; Function Attrs: noinline nounwind uwtable
define linkonce_odr void @_ZN9__gnu_cxx13new_allocatorISt4pairIiiEEC2ERKS3_(%"class.__gnu_cxx::new_allocator.8"* %0, %"class.__gnu_cxx::new_allocator.8"* dereferenceable(1) %1) unnamed_addr #1 comdat align 2 {
  ret void
}

; Function Attrs: noinline uwtable
define linkonce_odr %"struct.std::pair"* @_ZNSt12_Vector_baseISt4pairIiiESaIS1_EE11_M_allocateEm(%"struct.std::_Vector_base.6"* %0, i64 %1) #0 comdat align 2 {
  %3 = icmp ne i64 %1, 0
  br i1 %3, label %4, label %8

4:                                                ; preds = %2
  %5 = getelementptr inbounds %"struct.std::_Vector_base.6", %"struct.std::_Vector_base.6"* %0, i32 0, i32 0
  %6 = bitcast %"struct.std::_Vector_base<std::pair<int, int>, std::allocator<std::pair<int, int> > >::_Vector_impl"* %5 to %"class.std::allocator.7"*
  %7 = call %"struct.std::pair"* @_ZNSt16allocator_traitsISaISt4pairIiiEEE8allocateERS2_m(%"class.std::allocator.7"* dereferenceable(1) %6, i64 %1)
  br label %9

8:                                                ; preds = %2
  br label %9

9:                                                ; preds = %8, %4
  %10 = phi %"struct.std::pair"* [ %7, %4 ], [ null, %8 ]
  ret %"struct.std::pair"* %10
}

; Function Attrs: noinline uwtable
define linkonce_odr %"struct.std::pair"* @_ZNSt16allocator_traitsISaISt4pairIiiEEE8allocateERS2_m(%"class.std::allocator.7"* dereferenceable(1) %0, i64 %1) #0 comdat align 2 {
  %3 = bitcast %"class.std::allocator.7"* %0 to %"class.__gnu_cxx::new_allocator.8"*
  %4 = call %"struct.std::pair"* @_ZN9__gnu_cxx13new_allocatorISt4pairIiiEE8allocateEmPKv(%"class.__gnu_cxx::new_allocator.8"* %3, i64 %1, i8* null)
  ret %"struct.std::pair"* %4
}

; Function Attrs: noinline uwtable
define linkonce_odr %"struct.std::pair"* @_ZN9__gnu_cxx13new_allocatorISt4pairIiiEE8allocateEmPKv(%"class.__gnu_cxx::new_allocator.8"* %0, i64 %1, i8* %2) #0 comdat align 2 {
  %4 = call i64 @_ZNK9__gnu_cxx13new_allocatorISt4pairIiiEE8max_sizeEv(%"class.__gnu_cxx::new_allocator.8"* %0) #2
  %5 = icmp ugt i64 %1, %4
  br i1 %5, label %6, label %7

6:                                                ; preds = %3
  call void @_ZSt17__throw_bad_allocv() #14
  unreachable

7:                                                ; preds = %3
  %8 = mul i64 %1, 8
  %9 = call i8* @_Znwm(i64 %8)
  %10 = bitcast i8* %9 to %"struct.std::pair"*
  ret %"struct.std::pair"* %10
}

; Function Attrs: noinline nounwind uwtable
define linkonce_odr i64 @_ZNK9__gnu_cxx13new_allocatorISt4pairIiiEE8max_sizeEv(%"class.__gnu_cxx::new_allocator.8"* %0) #1 comdat align 2 {
  ret i64 2305843009213693951
}

; Function Attrs: noinline uwtable
define linkonce_odr %"struct.std::pair"* @_ZSt27__uninitialized_default_n_aIPSt4pairIiiEmS1_ET_S3_T0_RSaIT1_E(%"struct.std::pair"* %0, i64 %1, %"class.std::allocator.7"* dereferenceable(1) %2) #0 comdat {
  %4 = call %"struct.std::pair"* @_ZSt25__uninitialized_default_nIPSt4pairIiiEmET_S3_T0_(%"struct.std::pair"* %0, i64 %1)
  ret %"struct.std::pair"* %4
}

; Function Attrs: noinline nounwind uwtable
define linkonce_odr dereferenceable(1) %"class.std::allocator.7"* @_ZNSt12_Vector_baseISt4pairIiiESaIS1_EE19_M_get_Tp_allocatorEv(%"struct.std::_Vector_base.6"* %0) #1 comdat align 2 {
  %2 = getelementptr inbounds %"struct.std::_Vector_base.6", %"struct.std::_Vector_base.6"* %0, i32 0, i32 0
  %3 = bitcast %"struct.std::_Vector_base<std::pair<int, int>, std::allocator<std::pair<int, int> > >::_Vector_impl"* %2 to %"class.std::allocator.7"*
  ret %"class.std::allocator.7"* %3
}

; Function Attrs: noinline uwtable
define linkonce_odr %"struct.std::pair"* @_ZSt25__uninitialized_default_nIPSt4pairIiiEmET_S3_T0_(%"struct.std::pair"* %0, i64 %1) #0 comdat {
  %3 = call %"struct.std::pair"* @_ZNSt27__uninitialized_default_n_1ILb0EE18__uninit_default_nIPSt4pairIiiEmEET_S5_T0_(%"struct.std::pair"* %0, i64 %1)
  ret %"struct.std::pair"* %3
}

; Function Attrs: noinline uwtable
define linkonce_odr %"struct.std::pair"* @_ZNSt27__uninitialized_default_n_1ILb0EE18__uninit_default_nIPSt4pairIiiEmEET_S5_T0_(%"struct.std::pair"* %0, i64 %1) #0 comdat align 2 personality i8* bitcast (i32 (...)* @__gxx_personality_v0 to i8*) {
  br label %3

3:                                                ; preds = %8, %2
  %.01 = phi %"struct.std::pair"* [ %0, %2 ], [ %10, %8 ]
  %.0 = phi i64 [ %1, %2 ], [ %9, %8 ]
  %4 = icmp ugt i64 %.0, 0
  br i1 %4, label %5, label %18

5:                                                ; preds = %3
  %6 = call %"struct.std::pair"* @_ZSt11__addressofISt4pairIiiEEPT_RS2_(%"struct.std::pair"* dereferenceable(8) %.01) #2
  invoke void @_ZSt10_ConstructISt4pairIiiEJEEvPT_DpOT0_(%"struct.std::pair"* %6)
          to label %7 unwind label %11

7:                                                ; preds = %5
  br label %8

8:                                                ; preds = %7
  %9 = add i64 %.0, -1
  %10 = getelementptr inbounds %"struct.std::pair", %"struct.std::pair"* %.01, i32 1
  br label %3

11:                                               ; preds = %5
  %12 = landingpad { i8*, i32 }
          catch i8* null
  %13 = extractvalue { i8*, i32 } %12, 0
  %14 = extractvalue { i8*, i32 } %12, 1
  br label %15

15:                                               ; preds = %11
  %16 = call i8* @__cxa_begin_catch(i8* %13) #2
  invoke void @_ZSt8_DestroyIPSt4pairIiiEEvT_S3_(%"struct.std::pair"* %0, %"struct.std::pair"* %.01)
          to label %17 unwind label %19

17:                                               ; preds = %15
  invoke void @__cxa_rethrow() #14
          to label %31 unwind label %19

18:                                               ; preds = %3
  ret %"struct.std::pair"* %.01

19:                                               ; preds = %17, %15
  %20 = landingpad { i8*, i32 }
          cleanup
  %21 = extractvalue { i8*, i32 } %20, 0
  %22 = extractvalue { i8*, i32 } %20, 1
  invoke void @__cxa_end_catch()
          to label %23 unwind label %28

23:                                               ; preds = %19
  br label %25

24:                                               ; No predecessors!
  call void @llvm.trap()
  unreachable

25:                                               ; preds = %23
  %26 = insertvalue { i8*, i32 } undef, i8* %21, 0
  %27 = insertvalue { i8*, i32 } %26, i32 %22, 1
  resume { i8*, i32 } %27

28:                                               ; preds = %19
  %29 = landingpad { i8*, i32 }
          catch i8* null
  %30 = extractvalue { i8*, i32 } %29, 0
  call void @__clang_call_terminate(i8* %30) #13
  unreachable

31:                                               ; preds = %17
  unreachable
}

; Function Attrs: noinline uwtable
define linkonce_odr void @_ZSt10_ConstructISt4pairIiiEJEEvPT_DpOT0_(%"struct.std::pair"* %0) #0 comdat {
  %2 = bitcast %"struct.std::pair"* %0 to i8*
  %3 = bitcast i8* %2 to %"struct.std::pair"*
  call void @_ZNSt4pairIiiEC2IiiLb1EEEv(%"struct.std::pair"* %3)
  ret void
}

; Function Attrs: noinline nounwind uwtable
define linkonce_odr %"struct.std::pair"* @_ZSt11__addressofISt4pairIiiEEPT_RS2_(%"struct.std::pair"* dereferenceable(8) %0) #1 comdat {
  ret %"struct.std::pair"* %0
}

; Function Attrs: noinline uwtable
define linkonce_odr void @_ZSt8_DestroyIPSt4pairIiiEEvT_S3_(%"struct.std::pair"* %0, %"struct.std::pair"* %1) #0 comdat {
  call void @_ZNSt12_Destroy_auxILb1EE9__destroyIPSt4pairIiiEEEvT_S5_(%"struct.std::pair"* %0, %"struct.std::pair"* %1)
  ret void
}

; Function Attrs: cold noreturn nounwind
declare void @llvm.trap() #10

; Function Attrs: noinline nounwind uwtable
define linkonce_odr void @_ZNSt4pairIiiEC2IiiLb1EEEv(%"struct.std::pair"* %0) unnamed_addr #1 comdat align 2 {
  %2 = bitcast %"struct.std::pair"* %0 to %"class.std::__pair_base"*
  %3 = getelementptr inbounds %"struct.std::pair", %"struct.std::pair"* %0, i32 0, i32 0
  store i32 0, i32* %3, align 4
  %4 = getelementptr inbounds %"struct.std::pair", %"struct.std::pair"* %0, i32 0, i32 1
  store i32 0, i32* %4, align 4
  ret void
}

; Function Attrs: noinline nounwind uwtable
define linkonce_odr void @_ZNSt12_Destroy_auxILb1EE9__destroyIPSt4pairIiiEEEvT_S5_(%"struct.std::pair"* %0, %"struct.std::pair"* %1) #1 comdat align 2 {
  ret void
}

; Function Attrs: noinline uwtable
define linkonce_odr void @_ZNSt12_Vector_baseISt4pairIiiESaIS1_EE13_M_deallocateEPS1_m(%"struct.std::_Vector_base.6"* %0, %"struct.std::pair"* %1, i64 %2) #0 comdat align 2 {
  %4 = icmp ne %"struct.std::pair"* %1, null
  br i1 %4, label %5, label %8

5:                                                ; preds = %3
  %6 = getelementptr inbounds %"struct.std::_Vector_base.6", %"struct.std::_Vector_base.6"* %0, i32 0, i32 0
  %7 = bitcast %"struct.std::_Vector_base<std::pair<int, int>, std::allocator<std::pair<int, int> > >::_Vector_impl"* %6 to %"class.std::allocator.7"*
  call void @_ZNSt16allocator_traitsISaISt4pairIiiEEE10deallocateERS2_PS1_m(%"class.std::allocator.7"* dereferenceable(1) %7, %"struct.std::pair"* %1, i64 %2)
  br label %8

8:                                                ; preds = %5, %3
  ret void
}

; Function Attrs: noinline uwtable
define linkonce_odr void @_ZNSt16allocator_traitsISaISt4pairIiiEEE10deallocateERS2_PS1_m(%"class.std::allocator.7"* dereferenceable(1) %0, %"struct.std::pair"* %1, i64 %2) #0 comdat align 2 {
  %4 = bitcast %"class.std::allocator.7"* %0 to %"class.__gnu_cxx::new_allocator.8"*
  call void @_ZN9__gnu_cxx13new_allocatorISt4pairIiiEE10deallocateEPS2_m(%"class.__gnu_cxx::new_allocator.8"* %4, %"struct.std::pair"* %1, i64 %2)
  ret void
}

; Function Attrs: noinline nounwind uwtable
define linkonce_odr void @_ZN9__gnu_cxx13new_allocatorISt4pairIiiEE10deallocateEPS2_m(%"class.__gnu_cxx::new_allocator.8"* %0, %"struct.std::pair"* %1, i64 %2) #1 comdat align 2 {
  %4 = bitcast %"struct.std::pair"* %1 to i8*
  call void @_ZdlPv(i8* %4) #2
  ret void
}

; Function Attrs: noinline uwtable
define linkonce_odr void @_ZSt8_DestroyIPSt4pairIiiES1_EvT_S3_RSaIT0_E(%"struct.std::pair"* %0, %"struct.std::pair"* %1, %"class.std::allocator.7"* dereferenceable(1) %2) #0 comdat {
  call void @_ZSt8_DestroyIPSt4pairIiiEEvT_S3_(%"struct.std::pair"* %0, %"struct.std::pair"* %1)
  ret void
}

; Function Attrs: noinline uwtable
define linkonce_odr void @_ZNSt6vectorISt5arrayIiLm8EESaIS1_EE14_M_fill_assignEmRKS1_(%"class.std::vector"* %0, i64 %1, %"struct.std::array"* dereferenceable(32) %2) #0 comdat align 2 {
  %4 = alloca %"class.std::vector", align 8
  %5 = alloca %"class.__gnu_cxx::__normal_iterator.13", align 8
  %6 = alloca %"class.__gnu_cxx::__normal_iterator.13", align 8
  %7 = call i64 @_ZNKSt6vectorISt5arrayIiLm8EESaIS1_EE8capacityEv(%"class.std::vector"* %0) #2
  %8 = icmp ugt i64 %1, %7
  br i1 %8, label %9, label %16

9:                                                ; preds = %3
  %10 = bitcast %"class.std::vector"* %0 to %"struct.std::_Vector_base"*
  %11 = call dereferenceable(1) %"class.std::allocator"* @_ZNSt12_Vector_baseISt5arrayIiLm8EESaIS1_EE19_M_get_Tp_allocatorEv(%"struct.std::_Vector_base"* %10) #2
  call void @_ZNSt6vectorISt5arrayIiLm8EESaIS1_EEC2EmRKS1_RKS2_(%"class.std::vector"* %4, i64 %1, %"struct.std::array"* dereferenceable(32) %2, %"class.std::allocator"* dereferenceable(1) %11)
  %12 = bitcast %"class.std::vector"* %4 to %"struct.std::_Vector_base"*
  %13 = getelementptr inbounds %"struct.std::_Vector_base", %"struct.std::_Vector_base"* %12, i32 0, i32 0
  %14 = bitcast %"class.std::vector"* %0 to %"struct.std::_Vector_base"*
  %15 = getelementptr inbounds %"struct.std::_Vector_base", %"struct.std::_Vector_base"* %14, i32 0, i32 0
  call void @_ZNSt12_Vector_baseISt5arrayIiLm8EESaIS1_EE12_Vector_impl12_M_swap_dataERS4_(%"struct.std::_Vector_base<std::array<int, 8>, std::allocator<std::array<int, 8> > >::_Vector_impl"* %13, %"struct.std::_Vector_base<std::array<int, 8>, std::allocator<std::array<int, 8> > >::_Vector_impl"* dereferenceable(24) %15) #2
  call void @_ZNSt6vectorISt5arrayIiLm8EESaIS1_EED2Ev(%"class.std::vector"* %4) #2
  br label %47

16:                                               ; preds = %3
  %17 = call i64 @_ZNKSt6vectorISt5arrayIiLm8EESaIS1_EE4sizeEv(%"class.std::vector"* %0) #2
  %18 = icmp ugt i64 %1, %17
  br i1 %18, label %19, label %40

19:                                               ; preds = %16
  %20 = call %"struct.std::array"* @_ZNSt6vectorISt5arrayIiLm8EESaIS1_EE5beginEv(%"class.std::vector"* %0) #2
  %21 = getelementptr inbounds %"class.__gnu_cxx::__normal_iterator.13", %"class.__gnu_cxx::__normal_iterator.13"* %5, i32 0, i32 0
  store %"struct.std::array"* %20, %"struct.std::array"** %21, align 8
  %22 = call %"struct.std::array"* @_ZNSt6vectorISt5arrayIiLm8EESaIS1_EE3endEv(%"class.std::vector"* %0) #2
  %23 = getelementptr inbounds %"class.__gnu_cxx::__normal_iterator.13", %"class.__gnu_cxx::__normal_iterator.13"* %6, i32 0, i32 0
  store %"struct.std::array"* %22, %"struct.std::array"** %23, align 8
  %24 = getelementptr inbounds %"class.__gnu_cxx::__normal_iterator.13", %"class.__gnu_cxx::__normal_iterator.13"* %5, i32 0, i32 0
  %25 = load %"struct.std::array"*, %"struct.std::array"** %24, align 8
  %26 = getelementptr inbounds %"class.__gnu_cxx::__normal_iterator.13", %"class.__gnu_cxx::__normal_iterator.13"* %6, i32 0, i32 0
  %27 = load %"struct.std::array"*, %"struct.std::array"** %26, align 8
  call void @_ZSt4fillIN9__gnu_cxx17__normal_iteratorIPSt5arrayIiLm8EESt6vectorIS3_SaIS3_EEEES3_EvT_S9_RKT0_(%"struct.std::array"* %25, %"struct.std::array"* %27, %"struct.std::array"* dereferenceable(32) %2)
  %28 = call i64 @_ZNKSt6vectorISt5arrayIiLm8EESaIS1_EE4sizeEv(%"class.std::vector"* %0) #2
  %29 = sub i64 %1, %28
  %30 = bitcast %"class.std::vector"* %0 to %"struct.std::_Vector_base"*
  %31 = getelementptr inbounds %"struct.std::_Vector_base", %"struct.std::_Vector_base"* %30, i32 0, i32 0
  %32 = getelementptr inbounds %"struct.std::_Vector_base<std::array<int, 8>, std::allocator<std::array<int, 8> > >::_Vector_impl", %"struct.std::_Vector_base<std::array<int, 8>, std::allocator<std::array<int, 8> > >::_Vector_impl"* %31, i32 0, i32 1
  %33 = load %"struct.std::array"*, %"struct.std::array"** %32, align 8
  %34 = bitcast %"class.std::vector"* %0 to %"struct.std::_Vector_base"*
  %35 = call dereferenceable(1) %"class.std::allocator"* @_ZNSt12_Vector_baseISt5arrayIiLm8EESaIS1_EE19_M_get_Tp_allocatorEv(%"struct.std::_Vector_base"* %34) #2
  %36 = call %"struct.std::array"* @_ZSt24__uninitialized_fill_n_aIPSt5arrayIiLm8EEmS1_S1_ET_S3_T0_RKT1_RSaIT2_E(%"struct.std::array"* %33, i64 %29, %"struct.std::array"* dereferenceable(32) %2, %"class.std::allocator"* dereferenceable(1) %35)
  %37 = bitcast %"class.std::vector"* %0 to %"struct.std::_Vector_base"*
  %38 = getelementptr inbounds %"struct.std::_Vector_base", %"struct.std::_Vector_base"* %37, i32 0, i32 0
  %39 = getelementptr inbounds %"struct.std::_Vector_base<std::array<int, 8>, std::allocator<std::array<int, 8> > >::_Vector_impl", %"struct.std::_Vector_base<std::array<int, 8>, std::allocator<std::array<int, 8> > >::_Vector_impl"* %38, i32 0, i32 1
  store %"struct.std::array"* %36, %"struct.std::array"** %39, align 8
  br label %46

40:                                               ; preds = %16
  %41 = bitcast %"class.std::vector"* %0 to %"struct.std::_Vector_base"*
  %42 = getelementptr inbounds %"struct.std::_Vector_base", %"struct.std::_Vector_base"* %41, i32 0, i32 0
  %43 = getelementptr inbounds %"struct.std::_Vector_base<std::array<int, 8>, std::allocator<std::array<int, 8> > >::_Vector_impl", %"struct.std::_Vector_base<std::array<int, 8>, std::allocator<std::array<int, 8> > >::_Vector_impl"* %42, i32 0, i32 0
  %44 = load %"struct.std::array"*, %"struct.std::array"** %43, align 8
  %45 = call %"struct.std::array"* @_ZSt6fill_nIPSt5arrayIiLm8EEmS1_ET_S3_T0_RKT1_(%"struct.std::array"* %44, i64 %1, %"struct.std::array"* dereferenceable(32) %2)
  call void @_ZNSt6vectorISt5arrayIiLm8EESaIS1_EE15_M_erase_at_endEPS1_(%"class.std::vector"* %0, %"struct.std::array"* %45) #2
  br label %46

46:                                               ; preds = %40, %19
  br label %47

47:                                               ; preds = %46, %9
  ret void
}

; Function Attrs: noinline nounwind uwtable
define linkonce_odr i64 @_ZNKSt6vectorISt5arrayIiLm8EESaIS1_EE8capacityEv(%"class.std::vector"* %0) #1 comdat align 2 {
  %2 = bitcast %"class.std::vector"* %0 to %"struct.std::_Vector_base"*
  %3 = getelementptr inbounds %"struct.std::_Vector_base", %"struct.std::_Vector_base"* %2, i32 0, i32 0
  %4 = getelementptr inbounds %"struct.std::_Vector_base<std::array<int, 8>, std::allocator<std::array<int, 8> > >::_Vector_impl", %"struct.std::_Vector_base<std::array<int, 8>, std::allocator<std::array<int, 8> > >::_Vector_impl"* %3, i32 0, i32 2
  %5 = load %"struct.std::array"*, %"struct.std::array"** %4, align 8
  %6 = bitcast %"class.std::vector"* %0 to %"struct.std::_Vector_base"*
  %7 = getelementptr inbounds %"struct.std::_Vector_base", %"struct.std::_Vector_base"* %6, i32 0, i32 0
  %8 = getelementptr inbounds %"struct.std::_Vector_base<std::array<int, 8>, std::allocator<std::array<int, 8> > >::_Vector_impl", %"struct.std::_Vector_base<std::array<int, 8>, std::allocator<std::array<int, 8> > >::_Vector_impl"* %7, i32 0, i32 0
  %9 = load %"struct.std::array"*, %"struct.std::array"** %8, align 8
  %10 = ptrtoint %"struct.std::array"* %5 to i64
  %11 = ptrtoint %"struct.std::array"* %9 to i64
  %12 = sub i64 %10, %11
  %13 = sdiv exact i64 %12, 32
  ret i64 %13
}

; Function Attrs: noinline uwtable
define linkonce_odr void @_ZNSt6vectorISt5arrayIiLm8EESaIS1_EEC2EmRKS1_RKS2_(%"class.std::vector"* %0, i64 %1, %"struct.std::array"* dereferenceable(32) %2, %"class.std::allocator"* dereferenceable(1) %3) unnamed_addr #0 comdat align 2 personality i8* bitcast (i32 (...)* @__gxx_personality_v0 to i8*) {
  %5 = bitcast %"class.std::vector"* %0 to %"struct.std::_Vector_base"*
  call void @_ZNSt12_Vector_baseISt5arrayIiLm8EESaIS1_EEC2EmRKS2_(%"struct.std::_Vector_base"* %5, i64 %1, %"class.std::allocator"* dereferenceable(1) %3)
  invoke void @_ZNSt6vectorISt5arrayIiLm8EESaIS1_EE18_M_fill_initializeEmRKS1_(%"class.std::vector"* %0, i64 %1, %"struct.std::array"* dereferenceable(32) %2)
          to label %6 unwind label %7

6:                                                ; preds = %4
  ret void

7:                                                ; preds = %4
  %8 = landingpad { i8*, i32 }
          cleanup
  %9 = extractvalue { i8*, i32 } %8, 0
  %10 = extractvalue { i8*, i32 } %8, 1
  %11 = bitcast %"class.std::vector"* %0 to %"struct.std::_Vector_base"*
  call void @_ZNSt12_Vector_baseISt5arrayIiLm8EESaIS1_EED2Ev(%"struct.std::_Vector_base"* %11) #2
  br label %12

12:                                               ; preds = %7
  %13 = insertvalue { i8*, i32 } undef, i8* %9, 0
  %14 = insertvalue { i8*, i32 } %13, i32 %10, 1
  resume { i8*, i32 } %14
}

; Function Attrs: noinline nounwind uwtable
define linkonce_odr void @_ZNSt12_Vector_baseISt5arrayIiLm8EESaIS1_EE12_Vector_impl12_M_swap_dataERS4_(%"struct.std::_Vector_base<std::array<int, 8>, std::allocator<std::array<int, 8> > >::_Vector_impl"* %0, %"struct.std::_Vector_base<std::array<int, 8>, std::allocator<std::array<int, 8> > >::_Vector_impl"* dereferenceable(24) %1) #1 comdat align 2 {
  %3 = getelementptr inbounds %"struct.std::_Vector_base<std::array<int, 8>, std::allocator<std::array<int, 8> > >::_Vector_impl", %"struct.std::_Vector_base<std::array<int, 8>, std::allocator<std::array<int, 8> > >::_Vector_impl"* %0, i32 0, i32 0
  %4 = getelementptr inbounds %"struct.std::_Vector_base<std::array<int, 8>, std::allocator<std::array<int, 8> > >::_Vector_impl", %"struct.std::_Vector_base<std::array<int, 8>, std::allocator<std::array<int, 8> > >::_Vector_impl"* %1, i32 0, i32 0
  call void @_ZSt4swapIPSt5arrayIiLm8EEENSt9enable_ifIXsr6__and_ISt6__not_ISt15__is_tuple_likeIT_EESt21is_move_constructibleIS6_ESt18is_move_assignableIS6_EEE5valueEvE4typeERS6_SF_(%"struct.std::array"** dereferenceable(8) %3, %"struct.std::array"** dereferenceable(8) %4) #2
  %5 = getelementptr inbounds %"struct.std::_Vector_base<std::array<int, 8>, std::allocator<std::array<int, 8> > >::_Vector_impl", %"struct.std::_Vector_base<std::array<int, 8>, std::allocator<std::array<int, 8> > >::_Vector_impl"* %0, i32 0, i32 1
  %6 = getelementptr inbounds %"struct.std::_Vector_base<std::array<int, 8>, std::allocator<std::array<int, 8> > >::_Vector_impl", %"struct.std::_Vector_base<std::array<int, 8>, std::allocator<std::array<int, 8> > >::_Vector_impl"* %1, i32 0, i32 1
  call void @_ZSt4swapIPSt5arrayIiLm8EEENSt9enable_ifIXsr6__and_ISt6__not_ISt15__is_tuple_likeIT_EESt21is_move_constructibleIS6_ESt18is_move_assignableIS6_EEE5valueEvE4typeERS6_SF_(%"struct.std::array"** dereferenceable(8) %5, %"struct.std::array"** dereferenceable(8) %6) #2
  %7 = getelementptr inbounds %"struct.std::_Vector_base<std::array<int, 8>, std::allocator<std::array<int, 8> > >::_Vector_impl", %"struct.std::_Vector_base<std::array<int, 8>, std::allocator<std::array<int, 8> > >::_Vector_impl"* %0, i32 0, i32 2
  %8 = getelementptr inbounds %"struct.std::_Vector_base<std::array<int, 8>, std::allocator<std::array<int, 8> > >::_Vector_impl", %"struct.std::_Vector_base<std::array<int, 8>, std::allocator<std::array<int, 8> > >::_Vector_impl"* %1, i32 0, i32 2
  call void @_ZSt4swapIPSt5arrayIiLm8EEENSt9enable_ifIXsr6__and_ISt6__not_ISt15__is_tuple_likeIT_EESt21is_move_constructibleIS6_ESt18is_move_assignableIS6_EEE5valueEvE4typeERS6_SF_(%"struct.std::array"** dereferenceable(8) %7, %"struct.std::array"** dereferenceable(8) %8) #2
  ret void
}

; Function Attrs: noinline nounwind uwtable
define linkonce_odr i64 @_ZNKSt6vectorISt5arrayIiLm8EESaIS1_EE4sizeEv(%"class.std::vector"* %0) #1 comdat align 2 {
  %2 = bitcast %"class.std::vector"* %0 to %"struct.std::_Vector_base"*
  %3 = getelementptr inbounds %"struct.std::_Vector_base", %"struct.std::_Vector_base"* %2, i32 0, i32 0
  %4 = getelementptr inbounds %"struct.std::_Vector_base<std::array<int, 8>, std::allocator<std::array<int, 8> > >::_Vector_impl", %"struct.std::_Vector_base<std::array<int, 8>, std::allocator<std::array<int, 8> > >::_Vector_impl"* %3, i32 0, i32 1
  %5 = load %"struct.std::array"*, %"struct.std::array"** %4, align 8
  %6 = bitcast %"class.std::vector"* %0 to %"struct.std::_Vector_base"*
  %7 = getelementptr inbounds %"struct.std::_Vector_base", %"struct.std::_Vector_base"* %6, i32 0, i32 0
  %8 = getelementptr inbounds %"struct.std::_Vector_base<std::array<int, 8>, std::allocator<std::array<int, 8> > >::_Vector_impl", %"struct.std::_Vector_base<std::array<int, 8>, std::allocator<std::array<int, 8> > >::_Vector_impl"* %7, i32 0, i32 0
  %9 = load %"struct.std::array"*, %"struct.std::array"** %8, align 8
  %10 = ptrtoint %"struct.std::array"* %5 to i64
  %11 = ptrtoint %"struct.std::array"* %9 to i64
  %12 = sub i64 %10, %11
  %13 = sdiv exact i64 %12, 32
  ret i64 %13
}

; Function Attrs: noinline uwtable
define linkonce_odr void @_ZSt4fillIN9__gnu_cxx17__normal_iteratorIPSt5arrayIiLm8EESt6vectorIS3_SaIS3_EEEES3_EvT_S9_RKT0_(%"struct.std::array"* %0, %"struct.std::array"* %1, %"struct.std::array"* dereferenceable(32) %2) #0 comdat {
  %4 = alloca %"class.__gnu_cxx::__normal_iterator.13", align 8
  %5 = alloca %"class.__gnu_cxx::__normal_iterator.13", align 8
  %6 = alloca %"class.__gnu_cxx::__normal_iterator.13", align 8
  %7 = alloca %"class.__gnu_cxx::__normal_iterator.13", align 8
  %8 = getelementptr inbounds %"class.__gnu_cxx::__normal_iterator.13", %"class.__gnu_cxx::__normal_iterator.13"* %4, i32 0, i32 0
  store %"struct.std::array"* %0, %"struct.std::array"** %8, align 8
  %9 = getelementptr inbounds %"class.__gnu_cxx::__normal_iterator.13", %"class.__gnu_cxx::__normal_iterator.13"* %5, i32 0, i32 0
  store %"struct.std::array"* %1, %"struct.std::array"** %9, align 8
  %10 = bitcast %"class.__gnu_cxx::__normal_iterator.13"* %6 to i8*
  %11 = bitcast %"class.__gnu_cxx::__normal_iterator.13"* %4 to i8*
  call void @llvm.memcpy.p0i8.p0i8.i64(i8* align 8 %10, i8* align 8 %11, i64 8, i1 false)
  %12 = getelementptr inbounds %"class.__gnu_cxx::__normal_iterator.13", %"class.__gnu_cxx::__normal_iterator.13"* %6, i32 0, i32 0
  %13 = load %"struct.std::array"*, %"struct.std::array"** %12, align 8
  %14 = call %"struct.std::array"* @_ZSt12__niter_baseIPSt5arrayIiLm8EESt6vectorIS1_SaIS1_EEET_N9__gnu_cxx17__normal_iteratorIS6_T0_EE(%"struct.std::array"* %13)
  %15 = bitcast %"class.__gnu_cxx::__normal_iterator.13"* %7 to i8*
  %16 = bitcast %"class.__gnu_cxx::__normal_iterator.13"* %5 to i8*
  call void @llvm.memcpy.p0i8.p0i8.i64(i8* align 8 %15, i8* align 8 %16, i64 8, i1 false)
  %17 = getelementptr inbounds %"class.__gnu_cxx::__normal_iterator.13", %"class.__gnu_cxx::__normal_iterator.13"* %7, i32 0, i32 0
  %18 = load %"struct.std::array"*, %"struct.std::array"** %17, align 8
  %19 = call %"struct.std::array"* @_ZSt12__niter_baseIPSt5arrayIiLm8EESt6vectorIS1_SaIS1_EEET_N9__gnu_cxx17__normal_iteratorIS6_T0_EE(%"struct.std::array"* %18)
  call void @_ZSt8__fill_aIPSt5arrayIiLm8EES1_EN9__gnu_cxx11__enable_ifIXntsr11__is_scalarIT0_EE7__valueEvE6__typeET_S8_RKS5_(%"struct.std::array"* %14, %"struct.std::array"* %19, %"struct.std::array"* dereferenceable(32) %2)
  ret void
}

; Function Attrs: noinline nounwind uwtable
define linkonce_odr %"struct.std::array"* @_ZNSt6vectorISt5arrayIiLm8EESaIS1_EE5beginEv(%"class.std::vector"* %0) #1 comdat align 2 {
  %2 = alloca %"class.__gnu_cxx::__normal_iterator.13", align 8
  %3 = bitcast %"class.std::vector"* %0 to %"struct.std::_Vector_base"*
  %4 = getelementptr inbounds %"struct.std::_Vector_base", %"struct.std::_Vector_base"* %3, i32 0, i32 0
  %5 = getelementptr inbounds %"struct.std::_Vector_base<std::array<int, 8>, std::allocator<std::array<int, 8> > >::_Vector_impl", %"struct.std::_Vector_base<std::array<int, 8>, std::allocator<std::array<int, 8> > >::_Vector_impl"* %4, i32 0, i32 0
  call void @_ZN9__gnu_cxx17__normal_iteratorIPSt5arrayIiLm8EESt6vectorIS2_SaIS2_EEEC2ERKS3_(%"class.__gnu_cxx::__normal_iterator.13"* %2, %"struct.std::array"** dereferenceable(8) %5) #2
  %6 = getelementptr inbounds %"class.__gnu_cxx::__normal_iterator.13", %"class.__gnu_cxx::__normal_iterator.13"* %2, i32 0, i32 0
  %7 = load %"struct.std::array"*, %"struct.std::array"** %6, align 8
  ret %"struct.std::array"* %7
}

; Function Attrs: noinline nounwind uwtable
define linkonce_odr %"struct.std::array"* @_ZNSt6vectorISt5arrayIiLm8EESaIS1_EE3endEv(%"class.std::vector"* %0) #1 comdat align 2 {
  %2 = alloca %"class.__gnu_cxx::__normal_iterator.13", align 8
  %3 = bitcast %"class.std::vector"* %0 to %"struct.std::_Vector_base"*
  %4 = getelementptr inbounds %"struct.std::_Vector_base", %"struct.std::_Vector_base"* %3, i32 0, i32 0
  %5 = getelementptr inbounds %"struct.std::_Vector_base<std::array<int, 8>, std::allocator<std::array<int, 8> > >::_Vector_impl", %"struct.std::_Vector_base<std::array<int, 8>, std::allocator<std::array<int, 8> > >::_Vector_impl"* %4, i32 0, i32 1
  call void @_ZN9__gnu_cxx17__normal_iteratorIPSt5arrayIiLm8EESt6vectorIS2_SaIS2_EEEC2ERKS3_(%"class.__gnu_cxx::__normal_iterator.13"* %2, %"struct.std::array"** dereferenceable(8) %5) #2
  %6 = getelementptr inbounds %"class.__gnu_cxx::__normal_iterator.13", %"class.__gnu_cxx::__normal_iterator.13"* %2, i32 0, i32 0
  %7 = load %"struct.std::array"*, %"struct.std::array"** %6, align 8
  ret %"struct.std::array"* %7
}

; Function Attrs: noinline uwtable
define linkonce_odr %"struct.std::array"* @_ZSt24__uninitialized_fill_n_aIPSt5arrayIiLm8EEmS1_S1_ET_S3_T0_RKT1_RSaIT2_E(%"struct.std::array"* %0, i64 %1, %"struct.std::array"* dereferenceable(32) %2, %"class.std::allocator"* dereferenceable(1) %3) #0 comdat {
  %5 = call %"struct.std::array"* @_ZSt20uninitialized_fill_nIPSt5arrayIiLm8EEmS1_ET_S3_T0_RKT1_(%"struct.std::array"* %0, i64 %1, %"struct.std::array"* dereferenceable(32) %2)
  ret %"struct.std::array"* %5
}

; Function Attrs: noinline nounwind uwtable
define linkonce_odr void @_ZNSt6vectorISt5arrayIiLm8EESaIS1_EE15_M_erase_at_endEPS1_(%"class.std::vector"* %0, %"struct.std::array"* %1) #1 comdat align 2 personality i8* bitcast (i32 (...)* @__gxx_personality_v0 to i8*) {
  %3 = bitcast %"class.std::vector"* %0 to %"struct.std::_Vector_base"*
  %4 = getelementptr inbounds %"struct.std::_Vector_base", %"struct.std::_Vector_base"* %3, i32 0, i32 0
  %5 = getelementptr inbounds %"struct.std::_Vector_base<std::array<int, 8>, std::allocator<std::array<int, 8> > >::_Vector_impl", %"struct.std::_Vector_base<std::array<int, 8>, std::allocator<std::array<int, 8> > >::_Vector_impl"* %4, i32 0, i32 1
  %6 = load %"struct.std::array"*, %"struct.std::array"** %5, align 8
  %7 = ptrtoint %"struct.std::array"* %6 to i64
  %8 = ptrtoint %"struct.std::array"* %1 to i64
  %9 = sub i64 %7, %8
  %10 = sdiv exact i64 %9, 32
  %11 = icmp ne i64 %10, 0
  br i1 %11, label %12, label %23

12:                                               ; preds = %2
  %13 = bitcast %"class.std::vector"* %0 to %"struct.std::_Vector_base"*
  %14 = getelementptr inbounds %"struct.std::_Vector_base", %"struct.std::_Vector_base"* %13, i32 0, i32 0
  %15 = getelementptr inbounds %"struct.std::_Vector_base<std::array<int, 8>, std::allocator<std::array<int, 8> > >::_Vector_impl", %"struct.std::_Vector_base<std::array<int, 8>, std::allocator<std::array<int, 8> > >::_Vector_impl"* %14, i32 0, i32 1
  %16 = load %"struct.std::array"*, %"struct.std::array"** %15, align 8
  %17 = bitcast %"class.std::vector"* %0 to %"struct.std::_Vector_base"*
  %18 = call dereferenceable(1) %"class.std::allocator"* @_ZNSt12_Vector_baseISt5arrayIiLm8EESaIS1_EE19_M_get_Tp_allocatorEv(%"struct.std::_Vector_base"* %17) #2
  invoke void @_ZSt8_DestroyIPSt5arrayIiLm8EES1_EvT_S3_RSaIT0_E(%"struct.std::array"* %1, %"struct.std::array"* %16, %"class.std::allocator"* dereferenceable(1) %18)
          to label %19 unwind label %24

19:                                               ; preds = %12
  %20 = bitcast %"class.std::vector"* %0 to %"struct.std::_Vector_base"*
  %21 = getelementptr inbounds %"struct.std::_Vector_base", %"struct.std::_Vector_base"* %20, i32 0, i32 0
  %22 = getelementptr inbounds %"struct.std::_Vector_base<std::array<int, 8>, std::allocator<std::array<int, 8> > >::_Vector_impl", %"struct.std::_Vector_base<std::array<int, 8>, std::allocator<std::array<int, 8> > >::_Vector_impl"* %21, i32 0, i32 1
  store %"struct.std::array"* %1, %"struct.std::array"** %22, align 8
  br label %23

23:                                               ; preds = %19, %2
  ret void

24:                                               ; preds = %12
  %25 = landingpad { i8*, i32 }
          catch i8* null
  %26 = extractvalue { i8*, i32 } %25, 0
  call void @__clang_call_terminate(i8* %26) #13
  unreachable
}

; Function Attrs: noinline uwtable
define linkonce_odr %"struct.std::array"* @_ZSt6fill_nIPSt5arrayIiLm8EEmS1_ET_S3_T0_RKT1_(%"struct.std::array"* %0, i64 %1, %"struct.std::array"* dereferenceable(32) %2) #0 comdat {
  %4 = call %"struct.std::array"* @_ZSt12__niter_baseIPSt5arrayIiLm8EEET_S3_(%"struct.std::array"* %0)
  %5 = call %"struct.std::array"* @_ZSt10__fill_n_aIPSt5arrayIiLm8EEmS1_EN9__gnu_cxx11__enable_ifIXntsr11__is_scalarIT1_EE7__valueET_E6__typeES6_T0_RKS5_(%"struct.std::array"* %4, i64 %1, %"struct.std::array"* dereferenceable(32) %2)
  ret %"struct.std::array"* %5
}

; Function Attrs: noinline uwtable
define linkonce_odr void @_ZNSt12_Vector_baseISt5arrayIiLm8EESaIS1_EEC2EmRKS2_(%"struct.std::_Vector_base"* %0, i64 %1, %"class.std::allocator"* dereferenceable(1) %2) unnamed_addr #0 comdat align 2 personality i8* bitcast (i32 (...)* @__gxx_personality_v0 to i8*) {
  %4 = getelementptr inbounds %"struct.std::_Vector_base", %"struct.std::_Vector_base"* %0, i32 0, i32 0
  call void @_ZNSt12_Vector_baseISt5arrayIiLm8EESaIS1_EE12_Vector_implC2ERKS2_(%"struct.std::_Vector_base<std::array<int, 8>, std::allocator<std::array<int, 8> > >::_Vector_impl"* %4, %"class.std::allocator"* dereferenceable(1) %2) #2
  invoke void @_ZNSt12_Vector_baseISt5arrayIiLm8EESaIS1_EE17_M_create_storageEm(%"struct.std::_Vector_base"* %0, i64 %1)
          to label %5 unwind label %6

5:                                                ; preds = %3
  ret void

6:                                                ; preds = %3
  %7 = landingpad { i8*, i32 }
          cleanup
  %8 = extractvalue { i8*, i32 } %7, 0
  %9 = extractvalue { i8*, i32 } %7, 1
  call void @_ZNSt12_Vector_baseISt5arrayIiLm8EESaIS1_EE12_Vector_implD2Ev(%"struct.std::_Vector_base<std::array<int, 8>, std::allocator<std::array<int, 8> > >::_Vector_impl"* %4) #2
  br label %10

10:                                               ; preds = %6
  %11 = insertvalue { i8*, i32 } undef, i8* %8, 0
  %12 = insertvalue { i8*, i32 } %11, i32 %9, 1
  resume { i8*, i32 } %12
}

; Function Attrs: noinline uwtable
define linkonce_odr void @_ZNSt6vectorISt5arrayIiLm8EESaIS1_EE18_M_fill_initializeEmRKS1_(%"class.std::vector"* %0, i64 %1, %"struct.std::array"* dereferenceable(32) %2) #0 comdat align 2 {
  %4 = bitcast %"class.std::vector"* %0 to %"struct.std::_Vector_base"*
  %5 = getelementptr inbounds %"struct.std::_Vector_base", %"struct.std::_Vector_base"* %4, i32 0, i32 0
  %6 = getelementptr inbounds %"struct.std::_Vector_base<std::array<int, 8>, std::allocator<std::array<int, 8> > >::_Vector_impl", %"struct.std::_Vector_base<std::array<int, 8>, std::allocator<std::array<int, 8> > >::_Vector_impl"* %5, i32 0, i32 0
  %7 = load %"struct.std::array"*, %"struct.std::array"** %6, align 8
  %8 = bitcast %"class.std::vector"* %0 to %"struct.std::_Vector_base"*
  %9 = call dereferenceable(1) %"class.std::allocator"* @_ZNSt12_Vector_baseISt5arrayIiLm8EESaIS1_EE19_M_get_Tp_allocatorEv(%"struct.std::_Vector_base"* %8) #2
  %10 = call %"struct.std::array"* @_ZSt24__uninitialized_fill_n_aIPSt5arrayIiLm8EEmS1_S1_ET_S3_T0_RKT1_RSaIT2_E(%"struct.std::array"* %7, i64 %1, %"struct.std::array"* dereferenceable(32) %2, %"class.std::allocator"* dereferenceable(1) %9)
  %11 = bitcast %"class.std::vector"* %0 to %"struct.std::_Vector_base"*
  %12 = getelementptr inbounds %"struct.std::_Vector_base", %"struct.std::_Vector_base"* %11, i32 0, i32 0
  %13 = getelementptr inbounds %"struct.std::_Vector_base<std::array<int, 8>, std::allocator<std::array<int, 8> > >::_Vector_impl", %"struct.std::_Vector_base<std::array<int, 8>, std::allocator<std::array<int, 8> > >::_Vector_impl"* %12, i32 0, i32 1
  store %"struct.std::array"* %10, %"struct.std::array"** %13, align 8
  ret void
}

; Function Attrs: noinline nounwind uwtable
define linkonce_odr void @_ZNSt12_Vector_baseISt5arrayIiLm8EESaIS1_EE12_Vector_implC2ERKS2_(%"struct.std::_Vector_base<std::array<int, 8>, std::allocator<std::array<int, 8> > >::_Vector_impl"* %0, %"class.std::allocator"* dereferenceable(1) %1) unnamed_addr #1 comdat align 2 {
  %3 = bitcast %"struct.std::_Vector_base<std::array<int, 8>, std::allocator<std::array<int, 8> > >::_Vector_impl"* %0 to %"class.std::allocator"*
  call void @_ZNSaISt5arrayIiLm8EEEC2ERKS1_(%"class.std::allocator"* %3, %"class.std::allocator"* dereferenceable(1) %1) #2
  %4 = getelementptr inbounds %"struct.std::_Vector_base<std::array<int, 8>, std::allocator<std::array<int, 8> > >::_Vector_impl", %"struct.std::_Vector_base<std::array<int, 8>, std::allocator<std::array<int, 8> > >::_Vector_impl"* %0, i32 0, i32 0
  store %"struct.std::array"* null, %"struct.std::array"** %4, align 8
  %5 = getelementptr inbounds %"struct.std::_Vector_base<std::array<int, 8>, std::allocator<std::array<int, 8> > >::_Vector_impl", %"struct.std::_Vector_base<std::array<int, 8>, std::allocator<std::array<int, 8> > >::_Vector_impl"* %0, i32 0, i32 1
  store %"struct.std::array"* null, %"struct.std::array"** %5, align 8
  %6 = getelementptr inbounds %"struct.std::_Vector_base<std::array<int, 8>, std::allocator<std::array<int, 8> > >::_Vector_impl", %"struct.std::_Vector_base<std::array<int, 8>, std::allocator<std::array<int, 8> > >::_Vector_impl"* %0, i32 0, i32 2
  store %"struct.std::array"* null, %"struct.std::array"** %6, align 8
  ret void
}

; Function Attrs: noinline uwtable
define linkonce_odr void @_ZNSt12_Vector_baseISt5arrayIiLm8EESaIS1_EE17_M_create_storageEm(%"struct.std::_Vector_base"* %0, i64 %1) #0 comdat align 2 {
  %3 = call %"struct.std::array"* @_ZNSt12_Vector_baseISt5arrayIiLm8EESaIS1_EE11_M_allocateEm(%"struct.std::_Vector_base"* %0, i64 %1)
  %4 = getelementptr inbounds %"struct.std::_Vector_base", %"struct.std::_Vector_base"* %0, i32 0, i32 0
  %5 = getelementptr inbounds %"struct.std::_Vector_base<std::array<int, 8>, std::allocator<std::array<int, 8> > >::_Vector_impl", %"struct.std::_Vector_base<std::array<int, 8>, std::allocator<std::array<int, 8> > >::_Vector_impl"* %4, i32 0, i32 0
  store %"struct.std::array"* %3, %"struct.std::array"** %5, align 8
  %6 = getelementptr inbounds %"struct.std::_Vector_base", %"struct.std::_Vector_base"* %0, i32 0, i32 0
  %7 = getelementptr inbounds %"struct.std::_Vector_base<std::array<int, 8>, std::allocator<std::array<int, 8> > >::_Vector_impl", %"struct.std::_Vector_base<std::array<int, 8>, std::allocator<std::array<int, 8> > >::_Vector_impl"* %6, i32 0, i32 0
  %8 = load %"struct.std::array"*, %"struct.std::array"** %7, align 8
  %9 = getelementptr inbounds %"struct.std::_Vector_base", %"struct.std::_Vector_base"* %0, i32 0, i32 0
  %10 = getelementptr inbounds %"struct.std::_Vector_base<std::array<int, 8>, std::allocator<std::array<int, 8> > >::_Vector_impl", %"struct.std::_Vector_base<std::array<int, 8>, std::allocator<std::array<int, 8> > >::_Vector_impl"* %9, i32 0, i32 1
  store %"struct.std::array"* %8, %"struct.std::array"** %10, align 8
  %11 = getelementptr inbounds %"struct.std::_Vector_base", %"struct.std::_Vector_base"* %0, i32 0, i32 0
  %12 = getelementptr inbounds %"struct.std::_Vector_base<std::array<int, 8>, std::allocator<std::array<int, 8> > >::_Vector_impl", %"struct.std::_Vector_base<std::array<int, 8>, std::allocator<std::array<int, 8> > >::_Vector_impl"* %11, i32 0, i32 0
  %13 = load %"struct.std::array"*, %"struct.std::array"** %12, align 8
  %14 = getelementptr inbounds %"struct.std::array", %"struct.std::array"* %13, i64 %1
  %15 = getelementptr inbounds %"struct.std::_Vector_base", %"struct.std::_Vector_base"* %0, i32 0, i32 0
  %16 = getelementptr inbounds %"struct.std::_Vector_base<std::array<int, 8>, std::allocator<std::array<int, 8> > >::_Vector_impl", %"struct.std::_Vector_base<std::array<int, 8>, std::allocator<std::array<int, 8> > >::_Vector_impl"* %15, i32 0, i32 2
  store %"struct.std::array"* %14, %"struct.std::array"** %16, align 8
  ret void
}

; Function Attrs: noinline nounwind uwtable
define linkonce_odr void @_ZNSaISt5arrayIiLm8EEEC2ERKS1_(%"class.std::allocator"* %0, %"class.std::allocator"* dereferenceable(1) %1) unnamed_addr #1 comdat align 2 {
  %3 = bitcast %"class.std::allocator"* %0 to %"class.__gnu_cxx::new_allocator"*
  %4 = bitcast %"class.std::allocator"* %1 to %"class.__gnu_cxx::new_allocator"*
  call void @_ZN9__gnu_cxx13new_allocatorISt5arrayIiLm8EEEC2ERKS3_(%"class.__gnu_cxx::new_allocator"* %3, %"class.__gnu_cxx::new_allocator"* dereferenceable(1) %4) #2
  ret void
}

; Function Attrs: noinline nounwind uwtable
define linkonce_odr void @_ZN9__gnu_cxx13new_allocatorISt5arrayIiLm8EEEC2ERKS3_(%"class.__gnu_cxx::new_allocator"* %0, %"class.__gnu_cxx::new_allocator"* dereferenceable(1) %1) unnamed_addr #1 comdat align 2 {
  ret void
}

; Function Attrs: noinline uwtable
define linkonce_odr %"struct.std::array"* @_ZNSt12_Vector_baseISt5arrayIiLm8EESaIS1_EE11_M_allocateEm(%"struct.std::_Vector_base"* %0, i64 %1) #0 comdat align 2 {
  %3 = icmp ne i64 %1, 0
  br i1 %3, label %4, label %8

4:                                                ; preds = %2
  %5 = getelementptr inbounds %"struct.std::_Vector_base", %"struct.std::_Vector_base"* %0, i32 0, i32 0
  %6 = bitcast %"struct.std::_Vector_base<std::array<int, 8>, std::allocator<std::array<int, 8> > >::_Vector_impl"* %5 to %"class.std::allocator"*
  %7 = call %"struct.std::array"* @_ZNSt16allocator_traitsISaISt5arrayIiLm8EEEE8allocateERS2_m(%"class.std::allocator"* dereferenceable(1) %6, i64 %1)
  br label %9

8:                                                ; preds = %2
  br label %9

9:                                                ; preds = %8, %4
  %10 = phi %"struct.std::array"* [ %7, %4 ], [ null, %8 ]
  ret %"struct.std::array"* %10
}

; Function Attrs: noinline uwtable
define linkonce_odr %"struct.std::array"* @_ZNSt16allocator_traitsISaISt5arrayIiLm8EEEE8allocateERS2_m(%"class.std::allocator"* dereferenceable(1) %0, i64 %1) #0 comdat align 2 {
  %3 = bitcast %"class.std::allocator"* %0 to %"class.__gnu_cxx::new_allocator"*
  %4 = call %"struct.std::array"* @_ZN9__gnu_cxx13new_allocatorISt5arrayIiLm8EEE8allocateEmPKv(%"class.__gnu_cxx::new_allocator"* %3, i64 %1, i8* null)
  ret %"struct.std::array"* %4
}

; Function Attrs: noinline uwtable
define linkonce_odr %"struct.std::array"* @_ZN9__gnu_cxx13new_allocatorISt5arrayIiLm8EEE8allocateEmPKv(%"class.__gnu_cxx::new_allocator"* %0, i64 %1, i8* %2) #0 comdat align 2 {
  %4 = call i64 @_ZNK9__gnu_cxx13new_allocatorISt5arrayIiLm8EEE8max_sizeEv(%"class.__gnu_cxx::new_allocator"* %0) #2
  %5 = icmp ugt i64 %1, %4
  br i1 %5, label %6, label %7

6:                                                ; preds = %3
  call void @_ZSt17__throw_bad_allocv() #14
  unreachable

7:                                                ; preds = %3
  %8 = mul i64 %1, 32
  %9 = call i8* @_Znwm(i64 %8)
  %10 = bitcast i8* %9 to %"struct.std::array"*
  ret %"struct.std::array"* %10
}

; Function Attrs: noinline nounwind uwtable
define linkonce_odr i64 @_ZNK9__gnu_cxx13new_allocatorISt5arrayIiLm8EEE8max_sizeEv(%"class.__gnu_cxx::new_allocator"* %0) #1 comdat align 2 {
  ret i64 576460752303423487
}

; Function Attrs: noinline nounwind uwtable
define linkonce_odr void @_ZSt4swapIPSt5arrayIiLm8EEENSt9enable_ifIXsr6__and_ISt6__not_ISt15__is_tuple_likeIT_EESt21is_move_constructibleIS6_ESt18is_move_assignableIS6_EEE5valueEvE4typeERS6_SF_(%"struct.std::array"** dereferenceable(8) %0, %"struct.std::array"** dereferenceable(8) %1) #1 comdat {
  %3 = alloca %"struct.std::array"*, align 8
  %4 = call dereferenceable(8) %"struct.std::array"** @_ZSt4moveIRPSt5arrayIiLm8EEEONSt16remove_referenceIT_E4typeEOS5_(%"struct.std::array"** dereferenceable(8) %0) #2
  %5 = load %"struct.std::array"*, %"struct.std::array"** %4, align 8
  store %"struct.std::array"* %5, %"struct.std::array"** %3, align 8
  %6 = call dereferenceable(8) %"struct.std::array"** @_ZSt4moveIRPSt5arrayIiLm8EEEONSt16remove_referenceIT_E4typeEOS5_(%"struct.std::array"** dereferenceable(8) %1) #2
  %7 = load %"struct.std::array"*, %"struct.std::array"** %6, align 8
  store %"struct.std::array"* %7, %"struct.std::array"** %0, align 8
  %8 = call dereferenceable(8) %"struct.std::array"** @_ZSt4moveIRPSt5arrayIiLm8EEEONSt16remove_referenceIT_E4typeEOS5_(%"struct.std::array"** dereferenceable(8) %3) #2
  %9 = load %"struct.std::array"*, %"struct.std::array"** %8, align 8
  store %"struct.std::array"* %9, %"struct.std::array"** %1, align 8
  ret void
}

; Function Attrs: noinline nounwind uwtable
define linkonce_odr dereferenceable(8) %"struct.std::array"** @_ZSt4moveIRPSt5arrayIiLm8EEEONSt16remove_referenceIT_E4typeEOS5_(%"struct.std::array"** dereferenceable(8) %0) #1 comdat {
  ret %"struct.std::array"** %0
}

; Function Attrs: noinline nounwind uwtable
define linkonce_odr void @_ZSt8__fill_aIPSt5arrayIiLm8EES1_EN9__gnu_cxx11__enable_ifIXntsr11__is_scalarIT0_EE7__valueEvE6__typeET_S8_RKS5_(%"struct.std::array"* %0, %"struct.std::array"* %1, %"struct.std::array"* dereferenceable(32) %2) #1 comdat {
  br label %4

4:                                                ; preds = %9, %3
  %.0 = phi %"struct.std::array"* [ %0, %3 ], [ %10, %9 ]
  %5 = icmp ne %"struct.std::array"* %.0, %1
  br i1 %5, label %6, label %11

6:                                                ; preds = %4
  %7 = bitcast %"struct.std::array"* %.0 to i8*
  %8 = bitcast %"struct.std::array"* %2 to i8*
  call void @llvm.memcpy.p0i8.p0i8.i64(i8* align 4 %7, i8* align 4 %8, i64 32, i1 false)
  br label %9

9:                                                ; preds = %6
  %10 = getelementptr inbounds %"struct.std::array", %"struct.std::array"* %.0, i32 1
  br label %4

11:                                               ; preds = %4
  ret void
}

; Function Attrs: noinline nounwind uwtable
define linkonce_odr %"struct.std::array"* @_ZSt12__niter_baseIPSt5arrayIiLm8EESt6vectorIS1_SaIS1_EEET_N9__gnu_cxx17__normal_iteratorIS6_T0_EE(%"struct.std::array"* %0) #1 comdat {
  %2 = alloca %"class.__gnu_cxx::__normal_iterator.13", align 8
  %3 = getelementptr inbounds %"class.__gnu_cxx::__normal_iterator.13", %"class.__gnu_cxx::__normal_iterator.13"* %2, i32 0, i32 0
  store %"struct.std::array"* %0, %"struct.std::array"** %3, align 8
  %4 = call dereferenceable(8) %"struct.std::array"** @_ZNK9__gnu_cxx17__normal_iteratorIPSt5arrayIiLm8EESt6vectorIS2_SaIS2_EEE4baseEv(%"class.__gnu_cxx::__normal_iterator.13"* %2) #2
  %5 = load %"struct.std::array"*, %"struct.std::array"** %4, align 8
  ret %"struct.std::array"* %5
}

; Function Attrs: noinline nounwind uwtable
define linkonce_odr dereferenceable(8) %"struct.std::array"** @_ZNK9__gnu_cxx17__normal_iteratorIPSt5arrayIiLm8EESt6vectorIS2_SaIS2_EEE4baseEv(%"class.__gnu_cxx::__normal_iterator.13"* %0) #1 comdat align 2 {
  %2 = getelementptr inbounds %"class.__gnu_cxx::__normal_iterator.13", %"class.__gnu_cxx::__normal_iterator.13"* %0, i32 0, i32 0
  ret %"struct.std::array"** %2
}

; Function Attrs: noinline nounwind uwtable
define linkonce_odr void @_ZN9__gnu_cxx17__normal_iteratorIPSt5arrayIiLm8EESt6vectorIS2_SaIS2_EEEC2ERKS3_(%"class.__gnu_cxx::__normal_iterator.13"* %0, %"struct.std::array"** dereferenceable(8) %1) unnamed_addr #1 comdat align 2 {
  %3 = getelementptr inbounds %"class.__gnu_cxx::__normal_iterator.13", %"class.__gnu_cxx::__normal_iterator.13"* %0, i32 0, i32 0
  %4 = load %"struct.std::array"*, %"struct.std::array"** %1, align 8
  store %"struct.std::array"* %4, %"struct.std::array"** %3, align 8
  ret void
}

; Function Attrs: noinline uwtable
define linkonce_odr %"struct.std::array"* @_ZSt20uninitialized_fill_nIPSt5arrayIiLm8EEmS1_ET_S3_T0_RKT1_(%"struct.std::array"* %0, i64 %1, %"struct.std::array"* dereferenceable(32) %2) #0 comdat {
  %4 = call %"struct.std::array"* @_ZNSt22__uninitialized_fill_nILb1EE15__uninit_fill_nIPSt5arrayIiLm8EEmS3_EET_S5_T0_RKT1_(%"struct.std::array"* %0, i64 %1, %"struct.std::array"* dereferenceable(32) %2)
  ret %"struct.std::array"* %4
}

; Function Attrs: noinline uwtable
define linkonce_odr %"struct.std::array"* @_ZNSt22__uninitialized_fill_nILb1EE15__uninit_fill_nIPSt5arrayIiLm8EEmS3_EET_S5_T0_RKT1_(%"struct.std::array"* %0, i64 %1, %"struct.std::array"* dereferenceable(32) %2) #0 comdat align 2 {
  %4 = call %"struct.std::array"* @_ZSt6fill_nIPSt5arrayIiLm8EEmS1_ET_S3_T0_RKT1_(%"struct.std::array"* %0, i64 %1, %"struct.std::array"* dereferenceable(32) %2)
  ret %"struct.std::array"* %4
}

; Function Attrs: noinline nounwind uwtable
define linkonce_odr %"struct.std::array"* @_ZSt10__fill_n_aIPSt5arrayIiLm8EEmS1_EN9__gnu_cxx11__enable_ifIXntsr11__is_scalarIT1_EE7__valueET_E6__typeES6_T0_RKS5_(%"struct.std::array"* %0, i64 %1, %"struct.std::array"* dereferenceable(32) %2) #1 comdat {
  br label %4

4:                                                ; preds = %9, %3
  %.01 = phi i64 [ %1, %3 ], [ %10, %9 ]
  %.0 = phi %"struct.std::array"* [ %0, %3 ], [ %11, %9 ]
  %5 = icmp ugt i64 %.01, 0
  br i1 %5, label %6, label %12

6:                                                ; preds = %4
  %7 = bitcast %"struct.std::array"* %.0 to i8*
  %8 = bitcast %"struct.std::array"* %2 to i8*
  call void @llvm.memcpy.p0i8.p0i8.i64(i8* align 4 %7, i8* align 4 %8, i64 32, i1 false)
  br label %9

9:                                                ; preds = %6
  %10 = add i64 %.01, -1
  %11 = getelementptr inbounds %"struct.std::array", %"struct.std::array"* %.0, i32 1
  br label %4

12:                                               ; preds = %4
  ret %"struct.std::array"* %.0
}

; Function Attrs: noinline nounwind uwtable
define linkonce_odr %"struct.std::array"* @_ZSt12__niter_baseIPSt5arrayIiLm8EEET_S3_(%"struct.std::array"* %0) #1 comdat {
  ret %"struct.std::array"* %0
}

; Function Attrs: noinline nounwind uwtable
define linkonce_odr dereferenceable(4) i32* @_ZNSt14__array_traitsIiLm8EE6_S_refERA8_Kim([8 x i32]* dereferenceable(32) %0, i64 %1) #1 comdat align 2 {
  %3 = getelementptr inbounds [8 x i32], [8 x i32]* %0, i64 0, i64 %1
  ret i32* %3
}

; Function Attrs: noinline uwtable
define linkonce_odr void @_ZNSt6vectorIiSaIiEE21_M_default_initializeEm(%"class.std::vector.0"* %0, i64 %1) #0 comdat align 2 {
  %3 = bitcast %"class.std::vector.0"* %0 to %"struct.std::_Vector_base.1"*
  %4 = getelementptr inbounds %"struct.std::_Vector_base.1", %"struct.std::_Vector_base.1"* %3, i32 0, i32 0
  %5 = getelementptr inbounds %"struct.std::_Vector_base<int, std::allocator<int> >::_Vector_impl", %"struct.std::_Vector_base<int, std::allocator<int> >::_Vector_impl"* %4, i32 0, i32 0
  %6 = load i32*, i32** %5, align 8
  %7 = bitcast %"class.std::vector.0"* %0 to %"struct.std::_Vector_base.1"*
  %8 = call dereferenceable(1) %"class.std::allocator.2"* @_ZNSt12_Vector_baseIiSaIiEE19_M_get_Tp_allocatorEv(%"struct.std::_Vector_base.1"* %7) #2
  %9 = call i32* @_ZSt27__uninitialized_default_n_aIPimiET_S1_T0_RSaIT1_E(i32* %6, i64 %1, %"class.std::allocator.2"* dereferenceable(1) %8)
  %10 = bitcast %"class.std::vector.0"* %0 to %"struct.std::_Vector_base.1"*
  %11 = getelementptr inbounds %"struct.std::_Vector_base.1", %"struct.std::_Vector_base.1"* %10, i32 0, i32 0
  %12 = getelementptr inbounds %"struct.std::_Vector_base<int, std::allocator<int> >::_Vector_impl", %"struct.std::_Vector_base<int, std::allocator<int> >::_Vector_impl"* %11, i32 0, i32 1
  store i32* %9, i32** %12, align 8
  ret void
}

; Function Attrs: noinline uwtable
define linkonce_odr i32* @_ZSt27__uninitialized_default_n_aIPimiET_S1_T0_RSaIT1_E(i32* %0, i64 %1, %"class.std::allocator.2"* dereferenceable(1) %2) #0 comdat {
  %4 = call i32* @_ZSt25__uninitialized_default_nIPimET_S1_T0_(i32* %0, i64 %1)
  ret i32* %4
}

; Function Attrs: noinline uwtable
define linkonce_odr i32* @_ZSt25__uninitialized_default_nIPimET_S1_T0_(i32* %0, i64 %1) #0 comdat {
  %3 = call i32* @_ZNSt27__uninitialized_default_n_1ILb1EE18__uninit_default_nIPimEET_S3_T0_(i32* %0, i64 %1)
  ret i32* %3
}

; Function Attrs: noinline uwtable
define linkonce_odr i32* @_ZNSt27__uninitialized_default_n_1ILb1EE18__uninit_default_nIPimEET_S3_T0_(i32* %0, i64 %1) #0 comdat align 2 {
  %3 = alloca i32, align 4
  store i32 0, i32* %3, align 4
  %4 = call i32* @_ZSt6fill_nIPimiET_S1_T0_RKT1_(i32* %0, i64 %1, i32* dereferenceable(4) %3)
  ret i32* %4
}

; Function Attrs: noinline uwtable
define internal void @"_ZSt6__sortIN9__gnu_cxx17__normal_iteratorIPiSt6vectorIiSaIiEEEENS0_5__ops15_Iter_comp_iterIZ4mainE3$_1EEEvT_SB_T0_"(i32* %0, i32* %1, %"class.std::vector.5"* %2) #0 {
  %4 = alloca %"class.__gnu_cxx::__normal_iterator", align 8
  %5 = alloca %"class.__gnu_cxx::__normal_iterator", align 8
  %6 = alloca %"struct.__gnu_cxx::__ops::_Iter_comp_iter", align 8
  %7 = alloca %"class.__gnu_cxx::__normal_iterator", align 8
  %8 = alloca %"class.__gnu_cxx::__normal_iterator", align 8
  %9 = alloca %"struct.__gnu_cxx::__ops::_Iter_comp_iter", align 8
  %10 = alloca %"class.__gnu_cxx::__normal_iterator", align 8
  %11 = alloca %"class.__gnu_cxx::__normal_iterator", align 8
  %12 = alloca %"struct.__gnu_cxx::__ops::_Iter_comp_iter", align 8
  %13 = getelementptr inbounds %"class.__gnu_cxx::__normal_iterator", %"class.__gnu_cxx::__normal_iterator"* %4, i32 0, i32 0
  store i32* %0, i32** %13, align 8
  %14 = getelementptr inbounds %"class.__gnu_cxx::__normal_iterator", %"class.__gnu_cxx::__normal_iterator"* %5, i32 0, i32 0
  store i32* %1, i32** %14, align 8
  %15 = getelementptr inbounds %"struct.__gnu_cxx::__ops::_Iter_comp_iter", %"struct.__gnu_cxx::__ops::_Iter_comp_iter"* %6, i32 0, i32 0
  %16 = getelementptr inbounds %class.anon.10, %class.anon.10* %15, i32 0, i32 0
  store %"class.std::vector.5"* %2, %"class.std::vector.5"** %16, align 8
  %17 = call zeroext i1 @_ZN9__gnu_cxxneIPiSt6vectorIiSaIiEEEEbRKNS_17__normal_iteratorIT_T0_EESA_(%"class.__gnu_cxx::__normal_iterator"* dereferenceable(8) %4, %"class.__gnu_cxx::__normal_iterator"* dereferenceable(8) %5) #2
  br i1 %17, label %18, label %48

18:                                               ; preds = %3
  %19 = bitcast %"class.__gnu_cxx::__normal_iterator"* %7 to i8*
  %20 = bitcast %"class.__gnu_cxx::__normal_iterator"* %4 to i8*
  call void @llvm.memcpy.p0i8.p0i8.i64(i8* align 8 %19, i8* align 8 %20, i64 8, i1 false)
  %21 = bitcast %"class.__gnu_cxx::__normal_iterator"* %8 to i8*
  %22 = bitcast %"class.__gnu_cxx::__normal_iterator"* %5 to i8*
  call void @llvm.memcpy.p0i8.p0i8.i64(i8* align 8 %21, i8* align 8 %22, i64 8, i1 false)
  %23 = call i64 @_ZN9__gnu_cxxmiIPiSt6vectorIiSaIiEEEENS_17__normal_iteratorIT_T0_E15difference_typeERKS8_SB_(%"class.__gnu_cxx::__normal_iterator"* dereferenceable(8) %5, %"class.__gnu_cxx::__normal_iterator"* dereferenceable(8) %4) #2
  %24 = call i64 @_ZSt4__lgl(i64 %23)
  %25 = mul nsw i64 %24, 2
  %26 = bitcast %"struct.__gnu_cxx::__ops::_Iter_comp_iter"* %9 to i8*
  %27 = bitcast %"struct.__gnu_cxx::__ops::_Iter_comp_iter"* %6 to i8*
  call void @llvm.memcpy.p0i8.p0i8.i64(i8* align 8 %26, i8* align 8 %27, i64 8, i1 false)
  %28 = getelementptr inbounds %"class.__gnu_cxx::__normal_iterator", %"class.__gnu_cxx::__normal_iterator"* %7, i32 0, i32 0
  %29 = load i32*, i32** %28, align 8
  %30 = getelementptr inbounds %"class.__gnu_cxx::__normal_iterator", %"class.__gnu_cxx::__normal_iterator"* %8, i32 0, i32 0
  %31 = load i32*, i32** %30, align 8
  %32 = getelementptr inbounds %"struct.__gnu_cxx::__ops::_Iter_comp_iter", %"struct.__gnu_cxx::__ops::_Iter_comp_iter"* %9, i32 0, i32 0
  %33 = getelementptr inbounds %class.anon.10, %class.anon.10* %32, i32 0, i32 0
  %34 = load %"class.std::vector.5"*, %"class.std::vector.5"** %33, align 8
  call void @"_ZSt16__introsort_loopIN9__gnu_cxx17__normal_iteratorIPiSt6vectorIiSaIiEEEElNS0_5__ops15_Iter_comp_iterIZ4mainE3$_1EEEvT_SB_T0_T1_"(i32* %29, i32* %31, i64 %25, %"class.std::vector.5"* %34)
  %35 = bitcast %"class.__gnu_cxx::__normal_iterator"* %10 to i8*
  %36 = bitcast %"class.__gnu_cxx::__normal_iterator"* %4 to i8*
  call void @llvm.memcpy.p0i8.p0i8.i64(i8* align 8 %35, i8* align 8 %36, i64 8, i1 false)
  %37 = bitcast %"class.__gnu_cxx::__normal_iterator"* %11 to i8*
  %38 = bitcast %"class.__gnu_cxx::__normal_iterator"* %5 to i8*
  call void @llvm.memcpy.p0i8.p0i8.i64(i8* align 8 %37, i8* align 8 %38, i64 8, i1 false)
  %39 = bitcast %"struct.__gnu_cxx::__ops::_Iter_comp_iter"* %12 to i8*
  %40 = bitcast %"struct.__gnu_cxx::__ops::_Iter_comp_iter"* %6 to i8*
  call void @llvm.memcpy.p0i8.p0i8.i64(i8* align 8 %39, i8* align 8 %40, i64 8, i1 false)
  %41 = getelementptr inbounds %"class.__gnu_cxx::__normal_iterator", %"class.__gnu_cxx::__normal_iterator"* %10, i32 0, i32 0
  %42 = load i32*, i32** %41, align 8
  %43 = getelementptr inbounds %"class.__gnu_cxx::__normal_iterator", %"class.__gnu_cxx::__normal_iterator"* %11, i32 0, i32 0
  %44 = load i32*, i32** %43, align 8
  %45 = getelementptr inbounds %"struct.__gnu_cxx::__ops::_Iter_comp_iter", %"struct.__gnu_cxx::__ops::_Iter_comp_iter"* %12, i32 0, i32 0
  %46 = getelementptr inbounds %class.anon.10, %class.anon.10* %45, i32 0, i32 0
  %47 = load %"class.std::vector.5"*, %"class.std::vector.5"** %46, align 8
  call void @"_ZSt22__final_insertion_sortIN9__gnu_cxx17__normal_iteratorIPiSt6vectorIiSaIiEEEENS0_5__ops15_Iter_comp_iterIZ4mainE3$_1EEEvT_SB_T0_"(i32* %42, i32* %44, %"class.std::vector.5"* %47)
  br label %48

48:                                               ; preds = %18, %3
  ret void
}

; Function Attrs: noinline uwtable
define internal %"class.std::vector.5"* @"_ZN9__gnu_cxx5__ops16__iter_comp_iterIZ4mainE3$_1EENS0_15_Iter_comp_iterIT_EES4_"(%"class.std::vector.5"* %0) #0 {
  %2 = alloca %"struct.__gnu_cxx::__ops::_Iter_comp_iter", align 8
  %3 = alloca %class.anon.10, align 8
  %4 = alloca %class.anon.10, align 8
  %5 = getelementptr inbounds %class.anon.10, %class.anon.10* %3, i32 0, i32 0
  store %"class.std::vector.5"* %0, %"class.std::vector.5"** %5, align 8
  %6 = call dereferenceable(8) %class.anon.10* @"_ZSt4moveIRZ4mainE3$_1EONSt16remove_referenceIT_E4typeEOS3_"(%class.anon.10* dereferenceable(8) %3) #2
  %7 = bitcast %class.anon.10* %4 to i8*
  %8 = bitcast %class.anon.10* %6 to i8*
  call void @llvm.memcpy.p0i8.p0i8.i64(i8* align 8 %7, i8* align 8 %8, i64 8, i1 false)
  %9 = getelementptr inbounds %class.anon.10, %class.anon.10* %4, i32 0, i32 0
  %10 = load %"class.std::vector.5"*, %"class.std::vector.5"** %9, align 8
  call void @"_ZN9__gnu_cxx5__ops15_Iter_comp_iterIZ4mainE3$_1EC2ES2_"(%"struct.__gnu_cxx::__ops::_Iter_comp_iter"* %2, %"class.std::vector.5"* %10)
  %11 = getelementptr inbounds %"struct.__gnu_cxx::__ops::_Iter_comp_iter", %"struct.__gnu_cxx::__ops::_Iter_comp_iter"* %2, i32 0, i32 0
  %12 = getelementptr inbounds %class.anon.10, %class.anon.10* %11, i32 0, i32 0
  %13 = load %"class.std::vector.5"*, %"class.std::vector.5"** %12, align 8
  ret %"class.std::vector.5"* %13
}

; Function Attrs: noinline uwtable
define internal void @"_ZSt16__introsort_loopIN9__gnu_cxx17__normal_iteratorIPiSt6vectorIiSaIiEEEElNS0_5__ops15_Iter_comp_iterIZ4mainE3$_1EEEvT_SB_T0_T1_"(i32* %0, i32* %1, i64 %2, %"class.std::vector.5"* %3) #0 {
  %5 = alloca %"class.__gnu_cxx::__normal_iterator", align 8
  %6 = alloca %"class.__gnu_cxx::__normal_iterator", align 8
  %7 = alloca %"struct.__gnu_cxx::__ops::_Iter_comp_iter", align 8
  %8 = alloca %"class.__gnu_cxx::__normal_iterator", align 8
  %9 = alloca %"class.__gnu_cxx::__normal_iterator", align 8
  %10 = alloca %"class.__gnu_cxx::__normal_iterator", align 8
  %11 = alloca %"struct.__gnu_cxx::__ops::_Iter_comp_iter", align 8
  %12 = alloca %"class.__gnu_cxx::__normal_iterator", align 8
  %13 = alloca %"class.__gnu_cxx::__normal_iterator", align 8
  %14 = alloca %"class.__gnu_cxx::__normal_iterator", align 8
  %15 = alloca %"struct.__gnu_cxx::__ops::_Iter_comp_iter", align 8
  %16 = alloca %"class.__gnu_cxx::__normal_iterator", align 8
  %17 = alloca %"class.__gnu_cxx::__normal_iterator", align 8
  %18 = alloca %"struct.__gnu_cxx::__ops::_Iter_comp_iter", align 8
  %19 = getelementptr inbounds %"class.__gnu_cxx::__normal_iterator", %"class.__gnu_cxx::__normal_iterator"* %5, i32 0, i32 0
  store i32* %0, i32** %19, align 8
  %20 = getelementptr inbounds %"class.__gnu_cxx::__normal_iterator", %"class.__gnu_cxx::__normal_iterator"* %6, i32 0, i32 0
  store i32* %1, i32** %20, align 8
  %21 = getelementptr inbounds %"struct.__gnu_cxx::__ops::_Iter_comp_iter", %"struct.__gnu_cxx::__ops::_Iter_comp_iter"* %7, i32 0, i32 0
  %22 = getelementptr inbounds %class.anon.10, %class.anon.10* %21, i32 0, i32 0
  store %"class.std::vector.5"* %3, %"class.std::vector.5"** %22, align 8
  br label %23

23:                                               ; preds = %46, %4
  %.0 = phi i64 [ %2, %4 ], [ %47, %46 ]
  %24 = call i64 @_ZN9__gnu_cxxmiIPiSt6vectorIiSaIiEEEENS_17__normal_iteratorIT_T0_E15difference_typeERKS8_SB_(%"class.__gnu_cxx::__normal_iterator"* dereferenceable(8) %6, %"class.__gnu_cxx::__normal_iterator"* dereferenceable(8) %5) #2
  %25 = icmp sgt i64 %24, 16
  br i1 %25, label %26, label %78

26:                                               ; preds = %23
  %27 = icmp eq i64 %.0, 0
  br i1 %27, label %28, label %46

28:                                               ; preds = %26
  %29 = bitcast %"class.__gnu_cxx::__normal_iterator"* %8 to i8*
  %30 = bitcast %"class.__gnu_cxx::__normal_iterator"* %5 to i8*
  call void @llvm.memcpy.p0i8.p0i8.i64(i8* align 8 %29, i8* align 8 %30, i64 8, i1 false)
  %31 = bitcast %"class.__gnu_cxx::__normal_iterator"* %9 to i8*
  %32 = bitcast %"class.__gnu_cxx::__normal_iterator"* %6 to i8*
  call void @llvm.memcpy.p0i8.p0i8.i64(i8* align 8 %31, i8* align 8 %32, i64 8, i1 false)
  %33 = bitcast %"class.__gnu_cxx::__normal_iterator"* %10 to i8*
  %34 = bitcast %"class.__gnu_cxx::__normal_iterator"* %6 to i8*
  call void @llvm.memcpy.p0i8.p0i8.i64(i8* align 8 %33, i8* align 8 %34, i64 8, i1 false)
  %35 = bitcast %"struct.__gnu_cxx::__ops::_Iter_comp_iter"* %11 to i8*
  %36 = bitcast %"struct.__gnu_cxx::__ops::_Iter_comp_iter"* %7 to i8*
  call void @llvm.memcpy.p0i8.p0i8.i64(i8* align 8 %35, i8* align 8 %36, i64 8, i1 false)
  %37 = getelementptr inbounds %"class.__gnu_cxx::__normal_iterator", %"class.__gnu_cxx::__normal_iterator"* %8, i32 0, i32 0
  %38 = load i32*, i32** %37, align 8
  %39 = getelementptr inbounds %"class.__gnu_cxx::__normal_iterator", %"class.__gnu_cxx::__normal_iterator"* %9, i32 0, i32 0
  %40 = load i32*, i32** %39, align 8
  %41 = getelementptr inbounds %"class.__gnu_cxx::__normal_iterator", %"class.__gnu_cxx::__normal_iterator"* %10, i32 0, i32 0
  %42 = load i32*, i32** %41, align 8
  %43 = getelementptr inbounds %"struct.__gnu_cxx::__ops::_Iter_comp_iter", %"struct.__gnu_cxx::__ops::_Iter_comp_iter"* %11, i32 0, i32 0
  %44 = getelementptr inbounds %class.anon.10, %class.anon.10* %43, i32 0, i32 0
  %45 = load %"class.std::vector.5"*, %"class.std::vector.5"** %44, align 8
  call void @"_ZSt14__partial_sortIN9__gnu_cxx17__normal_iteratorIPiSt6vectorIiSaIiEEEENS0_5__ops15_Iter_comp_iterIZ4mainE3$_1EEEvT_SB_SB_T0_"(i32* %38, i32* %40, i32* %42, %"class.std::vector.5"* %45)
  br label %78

46:                                               ; preds = %26
  %47 = add nsw i64 %.0, -1
  %48 = bitcast %"class.__gnu_cxx::__normal_iterator"* %13 to i8*
  %49 = bitcast %"class.__gnu_cxx::__normal_iterator"* %5 to i8*
  call void @llvm.memcpy.p0i8.p0i8.i64(i8* align 8 %48, i8* align 8 %49, i64 8, i1 false)
  %50 = bitcast %"class.__gnu_cxx::__normal_iterator"* %14 to i8*
  %51 = bitcast %"class.__gnu_cxx::__normal_iterator"* %6 to i8*
  call void @llvm.memcpy.p0i8.p0i8.i64(i8* align 8 %50, i8* align 8 %51, i64 8, i1 false)
  %52 = bitcast %"struct.__gnu_cxx::__ops::_Iter_comp_iter"* %15 to i8*
  %53 = bitcast %"struct.__gnu_cxx::__ops::_Iter_comp_iter"* %7 to i8*
  call void @llvm.memcpy.p0i8.p0i8.i64(i8* align 8 %52, i8* align 8 %53, i64 8, i1 false)
  %54 = getelementptr inbounds %"class.__gnu_cxx::__normal_iterator", %"class.__gnu_cxx::__normal_iterator"* %13, i32 0, i32 0
  %55 = load i32*, i32** %54, align 8
  %56 = getelementptr inbounds %"class.__gnu_cxx::__normal_iterator", %"class.__gnu_cxx::__normal_iterator"* %14, i32 0, i32 0
  %57 = load i32*, i32** %56, align 8
  %58 = getelementptr inbounds %"struct.__gnu_cxx::__ops::_Iter_comp_iter", %"struct.__gnu_cxx::__ops::_Iter_comp_iter"* %15, i32 0, i32 0
  %59 = getelementptr inbounds %class.anon.10, %class.anon.10* %58, i32 0, i32 0
  %60 = load %"class.std::vector.5"*, %"class.std::vector.5"** %59, align 8
  %61 = call i32* @"_ZSt27__unguarded_partition_pivotIN9__gnu_cxx17__normal_iteratorIPiSt6vectorIiSaIiEEEENS0_5__ops15_Iter_comp_iterIZ4mainE3$_1EEET_SB_SB_T0_"(i32* %55, i32* %57, %"class.std::vector.5"* %60)
  %62 = getelementptr inbounds %"class.__gnu_cxx::__normal_iterator", %"class.__gnu_cxx::__normal_iterator"* %12, i32 0, i32 0
  store i32* %61, i32** %62, align 8
  %63 = bitcast %"class.__gnu_cxx::__normal_iterator"* %16 to i8*
  %64 = bitcast %"class.__gnu_cxx::__normal_iterator"* %12 to i8*
  call void @llvm.memcpy.p0i8.p0i8.i64(i8* align 8 %63, i8* align 8 %64, i64 8, i1 false)
  %65 = bitcast %"class.__gnu_cxx::__normal_iterator"* %17 to i8*
  %66 = bitcast %"class.__gnu_cxx::__normal_iterator"* %6 to i8*
  call void @llvm.memcpy.p0i8.p0i8.i64(i8* align 8 %65, i8* align 8 %66, i64 8, i1 false)
  %67 = bitcast %"struct.__gnu_cxx::__ops::_Iter_comp_iter"* %18 to i8*
  %68 = bitcast %"struct.__gnu_cxx::__ops::_Iter_comp_iter"* %7 to i8*
  call void @llvm.memcpy.p0i8.p0i8.i64(i8* align 8 %67, i8* align 8 %68, i64 8, i1 false)
  %69 = getelementptr inbounds %"class.__gnu_cxx::__normal_iterator", %"class.__gnu_cxx::__normal_iterator"* %16, i32 0, i32 0
  %70 = load i32*, i32** %69, align 8
  %71 = getelementptr inbounds %"class.__gnu_cxx::__normal_iterator", %"class.__gnu_cxx::__normal_iterator"* %17, i32 0, i32 0
  %72 = load i32*, i32** %71, align 8
  %73 = getelementptr inbounds %"struct.__gnu_cxx::__ops::_Iter_comp_iter", %"struct.__gnu_cxx::__ops::_Iter_comp_iter"* %18, i32 0, i32 0
  %74 = getelementptr inbounds %class.anon.10, %class.anon.10* %73, i32 0, i32 0
  %75 = load %"class.std::vector.5"*, %"class.std::vector.5"** %74, align 8
  call void @"_ZSt16__introsort_loopIN9__gnu_cxx17__normal_iteratorIPiSt6vectorIiSaIiEEEElNS0_5__ops15_Iter_comp_iterIZ4mainE3$_1EEEvT_SB_T0_T1_"(i32* %70, i32* %72, i64 %47, %"class.std::vector.5"* %75)
  %76 = bitcast %"class.__gnu_cxx::__normal_iterator"* %6 to i8*
  %77 = bitcast %"class.__gnu_cxx::__normal_iterator"* %12 to i8*
  call void @llvm.memcpy.p0i8.p0i8.i64(i8* align 8 %76, i8* align 8 %77, i64 8, i1 false)
  br label %23

78:                                               ; preds = %28, %23
  ret void
}

; Function Attrs: noinline nounwind uwtable
define linkonce_odr i64 @_ZSt4__lgl(i64 %0) #1 comdat {
  %2 = call i64 @llvm.ctlz.i64(i64 %0, i1 true)
  %3 = trunc i64 %2 to i32
  %4 = sub nsw i32 63, %3
  %5 = sext i32 %4 to i64
  ret i64 %5
}

; Function Attrs: noinline uwtable
define internal void @"_ZSt22__final_insertion_sortIN9__gnu_cxx17__normal_iteratorIPiSt6vectorIiSaIiEEEENS0_5__ops15_Iter_comp_iterIZ4mainE3$_1EEEvT_SB_T0_"(i32* %0, i32* %1, %"class.std::vector.5"* %2) #0 {
  %4 = alloca %"class.__gnu_cxx::__normal_iterator", align 8
  %5 = alloca %"class.__gnu_cxx::__normal_iterator", align 8
  %6 = alloca %"struct.__gnu_cxx::__ops::_Iter_comp_iter", align 8
  %7 = alloca %"class.__gnu_cxx::__normal_iterator", align 8
  %8 = alloca %"class.__gnu_cxx::__normal_iterator", align 8
  %9 = alloca %"struct.__gnu_cxx::__ops::_Iter_comp_iter", align 8
  %10 = alloca %"class.__gnu_cxx::__normal_iterator", align 8
  %11 = alloca %"class.__gnu_cxx::__normal_iterator", align 8
  %12 = alloca %"struct.__gnu_cxx::__ops::_Iter_comp_iter", align 8
  %13 = alloca %"class.__gnu_cxx::__normal_iterator", align 8
  %14 = alloca %"class.__gnu_cxx::__normal_iterator", align 8
  %15 = alloca %"struct.__gnu_cxx::__ops::_Iter_comp_iter", align 8
  %16 = getelementptr inbounds %"class.__gnu_cxx::__normal_iterator", %"class.__gnu_cxx::__normal_iterator"* %4, i32 0, i32 0
  store i32* %0, i32** %16, align 8
