; ModuleID = '/home/pedro/tcc/exDataset/codenet/data/selection/p00921/s441660989.ll'
source_filename = "/home/pedro/tcc/exDataset/codenet/data/selection/p00921/s441660989.cpp"
target datalayout = "e-m:e-i64:64-f80:128-n8:16:32:64-S128"
target triple = "x86_64-pc-linux-gnu"

%"class.std::vector" = type { %"struct.std::_Vector_base" }
%"struct.std::_Vector_base" = type { %"struct.std::_Vector_base<std::complex<double>, std::allocator<std::complex<double> > >::_Vector_impl" }
%"struct.std::_Vector_base<std::complex<double>, std::allocator<std::complex<double> > >::_Vector_impl" = type { %"struct.std::complex"*, %"struct.std::complex"*, %"struct.std::complex"* }
%"struct.std::complex" = type { { double, double } }
%"class.std::vector.0" = type { %"struct.std::_Vector_base.1" }
%"struct.std::_Vector_base.1" = type { %"struct.std::_Vector_base<double, std::allocator<double> >::_Vector_impl" }
%"struct.std::_Vector_base<double, std::allocator<double> >::_Vector_impl" = type { double*, double*, double* }
%"class.std::allocator" = type { i8 }
%"class.std::allocator.2" = type { i8 }
%"class.__gnu_cxx::new_allocator" = type { i8 }
%"class.__gnu_cxx::__normal_iterator" = type { %"struct.std::complex"* }
%"class.std::move_iterator" = type { %"struct.std::complex"* }
%"class.__gnu_cxx::new_allocator.3" = type { i8 }
%"class.std::move_iterator.5" = type { double* }

$_ZSt4realIdET_RKSt7complexIS0_E = comdat any

$_ZSt4imagIdET_RKSt7complexIS0_E = comdat any

$_ZSt3absIdET_RKSt7complexIS0_E = comdat any

$_ZStmiIdESt7complexIT_ERKS2_S4_ = comdat any

$_ZSt3argIdET_RKSt7complexIS0_E = comdat any

$_ZSt3absd = comdat any

$_ZNSt6vectorISt7complexIdESaIS1_EE9push_backEOS1_ = comdat any

$_ZStplIdESt7complexIT_ERKS2_S4_ = comdat any

$_ZSt5polarIdESt7complexIT_ERKS1_S4_ = comdat any

$_ZSt4normIdET_RKSt7complexIS0_E = comdat any

$_ZStmlIdESt7complexIT_ERKS2_RKS1_ = comdat any

$_ZNSt6vectorISt7complexIdESaIS1_EEC2Ev = comdat any

$_ZNSt6vectorISt7complexIdESaIS1_EED2Ev = comdat any

$_ZNSt6vectorIdSaIdEEC2Ev = comdat any

$_ZNSt6vectorIdSaIdEED2Ev = comdat any

$_ZNSt7complexIdEC2Edd = comdat any

$_ZNSaISt7complexIdEEC2Ev = comdat any

$_ZNSt6vectorISt7complexIdESaIS1_EEC2IPS1_vEET_S6_RKS2_ = comdat any

$_ZNSaISt7complexIdEED2Ev = comdat any

$_ZNSt6vectorIdSaIdEE6resizeEm = comdat any

$_ZNKSt6vectorIdSaIdEE4sizeEv = comdat any

$_ZNSt6vectorIdSaIdEEixEm = comdat any

$_ZNSt6vectorISt7complexIdESaIS1_EEixEm = comdat any

$_ZNKSt6vectorISt7complexIdESaIS1_EE4sizeEv = comdat any

$_ZNSt6vectorISt7complexIdESaIS1_EE6resizeEm = comdat any

$_ZNKSt7complexIdE4realB5cxx11Ev = comdat any

$_ZNKSt7complexIdE4imagB5cxx11Ev = comdat any

$_ZNSt7complexIdEmIIdEERS0_RKS_IT_E = comdat any

$_ZSt13__complex_absCd = comdat any

$_ZNKSt7complexIdE5__repEv = comdat any

$_ZSt13__complex_argCd = comdat any

$_ZNSt7complexIdEpLIdEERS0_RKS_IT_E = comdat any

$_ZNSt6vectorISt7complexIdESaIS1_EE12emplace_backIJS1_EEEvDpOT_ = comdat any

$_ZSt4moveIRSt7complexIdEEONSt16remove_referenceIT_E4typeEOS4_ = comdat any

$_ZNSt16allocator_traitsISaISt7complexIdEEE9constructIS1_JS1_EEEvRS2_PT_DpOT0_ = comdat any

$_ZSt7forwardISt7complexIdEEOT_RNSt16remove_referenceIS2_E4typeE = comdat any

$_ZNSt6vectorISt7complexIdESaIS1_EE17_M_realloc_insertIJS1_EEEvN9__gnu_cxx17__normal_iteratorIPS1_S3_EEDpOT_ = comdat any

$_ZNSt6vectorISt7complexIdESaIS1_EE3endEv = comdat any

$_ZN9__gnu_cxx13new_allocatorISt7complexIdEE9constructIS2_JS2_EEEvPT_DpOT0_ = comdat any

$_ZNKSt6vectorISt7complexIdESaIS1_EE12_M_check_lenEmPKc = comdat any

$_ZN9__gnu_cxxmiIPSt7complexIdESt6vectorIS2_SaIS2_EEEENS_17__normal_iteratorIT_T0_E15difference_typeERKSA_SD_ = comdat any

$_ZNSt6vectorISt7complexIdESaIS1_EE5beginEv = comdat any

$_ZNSt12_Vector_baseISt7complexIdESaIS1_EE11_M_allocateEm = comdat any

$_ZSt34__uninitialized_move_if_noexcept_aIPSt7complexIdES2_SaIS1_EET0_T_S5_S4_RT1_ = comdat any

$_ZNK9__gnu_cxx17__normal_iteratorIPSt7complexIdESt6vectorIS2_SaIS2_EEE4baseEv = comdat any

$_ZNSt12_Vector_baseISt7complexIdESaIS1_EE19_M_get_Tp_allocatorEv = comdat any

$_ZNSt16allocator_traitsISaISt7complexIdEEE7destroyIS1_EEvRS2_PT_ = comdat any

$_ZSt8_DestroyIPSt7complexIdES1_EvT_S3_RSaIT0_E = comdat any

$_ZNSt12_Vector_baseISt7complexIdESaIS1_EE13_M_deallocateEPS1_m = comdat any

$__clang_call_terminate = comdat any

$_ZNKSt6vectorISt7complexIdESaIS1_EE8max_sizeEv = comdat any

$_ZSt3maxImERKT_S2_S2_ = comdat any

$_ZNSt16allocator_traitsISaISt7complexIdEEE8max_sizeERKS2_ = comdat any

$_ZNKSt12_Vector_baseISt7complexIdESaIS1_EE19_M_get_Tp_allocatorEv = comdat any

$_ZNK9__gnu_cxx13new_allocatorISt7complexIdEE8max_sizeEv = comdat any

$_ZN9__gnu_cxx17__normal_iteratorIPSt7complexIdESt6vectorIS2_SaIS2_EEEC2ERKS3_ = comdat any

$_ZNSt16allocator_traitsISaISt7complexIdEEE8allocateERS2_m = comdat any

$_ZN9__gnu_cxx13new_allocatorISt7complexIdEE8allocateEmPKv = comdat any

$_ZSt22__uninitialized_copy_aISt13move_iteratorIPSt7complexIdEES3_S2_ET0_T_S6_S5_RSaIT1_E = comdat any

$_ZSt32__make_move_if_noexcept_iteratorISt7complexIdESt13move_iteratorIPS1_EET0_PT_ = comdat any

$_ZSt18uninitialized_copyISt13move_iteratorIPSt7complexIdEES3_ET0_T_S6_S5_ = comdat any

$_ZNSt20__uninitialized_copyILb0EE13__uninit_copyISt13move_iteratorIPSt7complexIdEES5_EET0_T_S8_S7_ = comdat any

$_ZStneIPSt7complexIdEEbRKSt13move_iteratorIT_ES7_ = comdat any

$_ZSt10_ConstructISt7complexIdEJS1_EEvPT_DpOT0_ = comdat any

$_ZSt11__addressofISt7complexIdEEPT_RS2_ = comdat any

$_ZNKSt13move_iteratorIPSt7complexIdEEdeEv = comdat any

$_ZNSt13move_iteratorIPSt7complexIdEEppEv = comdat any

$_ZSt8_DestroyIPSt7complexIdEEvT_S3_ = comdat any

$_ZSteqIPSt7complexIdEEbRKSt13move_iteratorIT_ES7_ = comdat any

$_ZNKSt13move_iteratorIPSt7complexIdEE4baseEv = comdat any

$_ZNSt12_Destroy_auxILb1EE9__destroyIPSt7complexIdEEEvT_S5_ = comdat any

$_ZNSt13move_iteratorIPSt7complexIdEEC2ES2_ = comdat any

$_ZN9__gnu_cxx13new_allocatorISt7complexIdEE7destroyIS2_EEvPT_ = comdat any

$_ZNSt16allocator_traitsISaISt7complexIdEEE10deallocateERS2_PS1_m = comdat any

$_ZN9__gnu_cxx13new_allocatorISt7complexIdEE10deallocateEPS2_m = comdat any

$_ZNSt12_Norm_helperILb1EE8_S_do_itIdEET_RKSt7complexIS2_E = comdat any

$_ZNSt7complexIdEmLEd = comdat any

$_ZNSt12_Vector_baseISt7complexIdESaIS1_EEC2Ev = comdat any

$_ZNSt12_Vector_baseISt7complexIdESaIS1_EE12_Vector_implC2Ev = comdat any

$_ZN9__gnu_cxx13new_allocatorISt7complexIdEEC2Ev = comdat any

$_ZNSt12_Vector_baseISt7complexIdESaIS1_EED2Ev = comdat any

$_ZNSt12_Vector_baseISt7complexIdESaIS1_EE12_Vector_implD2Ev = comdat any

$_ZN9__gnu_cxx13new_allocatorISt7complexIdEED2Ev = comdat any

$_ZNSt12_Vector_baseIdSaIdEEC2Ev = comdat any

$_ZNSt12_Vector_baseIdSaIdEE12_Vector_implC2Ev = comdat any

$_ZNSaIdEC2Ev = comdat any

$_ZN9__gnu_cxx13new_allocatorIdEC2Ev = comdat any

$_ZSt8_DestroyIPddEvT_S1_RSaIT0_E = comdat any

$_ZNSt12_Vector_baseIdSaIdEE19_M_get_Tp_allocatorEv = comdat any

$_ZNSt12_Vector_baseIdSaIdEED2Ev = comdat any

$_ZSt8_DestroyIPdEvT_S1_ = comdat any

$_ZNSt12_Destroy_auxILb1EE9__destroyIPdEEvT_S3_ = comdat any

$_ZNSt12_Vector_baseIdSaIdEE13_M_deallocateEPdm = comdat any

$_ZNSt12_Vector_baseIdSaIdEE12_Vector_implD2Ev = comdat any

$_ZNSt16allocator_traitsISaIdEE10deallocateERS0_Pdm = comdat any

$_ZN9__gnu_cxx13new_allocatorIdE10deallocateEPdm = comdat any

$_ZNSaIdED2Ev = comdat any

$_ZN9__gnu_cxx13new_allocatorIdED2Ev = comdat any

$_ZNSt12_Vector_baseISt7complexIdESaIS1_EEC2ERKS2_ = comdat any

$_ZNSt6vectorISt7complexIdESaIS1_EE22_M_initialize_dispatchIPS1_EEvT_S6_St12__false_type = comdat any

$_ZNSt12_Vector_baseISt7complexIdESaIS1_EE12_Vector_implC2ERKS2_ = comdat any

$_ZNSaISt7complexIdEEC2ERKS1_ = comdat any

$_ZN9__gnu_cxx13new_allocatorISt7complexIdEEC2ERKS3_ = comdat any

$_ZNSt6vectorISt7complexIdESaIS1_EE19_M_range_initializeIPS1_EEvT_S6_St20forward_iterator_tag = comdat any

$_ZSt8distanceIPSt7complexIdEENSt15iterator_traitsIT_E15difference_typeES4_S4_ = comdat any

$_ZSt22__uninitialized_copy_aIPSt7complexIdES2_S1_ET0_T_S4_S3_RSaIT1_E = comdat any

$_ZSt10__distanceIPSt7complexIdEENSt15iterator_traitsIT_E15difference_typeES4_S4_St26random_access_iterator_tag = comdat any

$_ZSt19__iterator_categoryIPSt7complexIdEENSt15iterator_traitsIT_E17iterator_categoryERKS4_ = comdat any

$_ZSt18uninitialized_copyIPSt7complexIdES2_ET0_T_S4_S3_ = comdat any

$_ZNSt20__uninitialized_copyILb0EE13__uninit_copyIPSt7complexIdES4_EET0_T_S6_S5_ = comdat any

$_ZSt10_ConstructISt7complexIdEJRS1_EEvPT_DpOT0_ = comdat any

$_ZSt7forwardIRSt7complexIdEEOT_RNSt16remove_referenceIS3_E4typeE = comdat any

$_ZNSt6vectorIdSaIdEE17_M_default_appendEm = comdat any

$_ZNSt6vectorIdSaIdEE15_M_erase_at_endEPd = comdat any

$_ZNKSt6vectorIdSaIdEE8max_sizeEv = comdat any

$_ZSt27__uninitialized_default_n_aIPdmdET_S1_T0_RSaIT1_E = comdat any

$_ZNKSt6vectorIdSaIdEE12_M_check_lenEmPKc = comdat any

$_ZNSt12_Vector_baseIdSaIdEE11_M_allocateEm = comdat any

$_ZSt34__uninitialized_move_if_noexcept_aIPdS0_SaIdEET0_T_S3_S2_RT1_ = comdat any

$_ZNSt16allocator_traitsISaIdEE8max_sizeERKS0_ = comdat any

$_ZNKSt12_Vector_baseIdSaIdEE19_M_get_Tp_allocatorEv = comdat any

$_ZNK9__gnu_cxx13new_allocatorIdE8max_sizeEv = comdat any

$_ZSt25__uninitialized_default_nIPdmET_S1_T0_ = comdat any

$_ZNSt27__uninitialized_default_n_1ILb1EE18__uninit_default_nIPdmEET_S3_T0_ = comdat any

$_ZSt6fill_nIPdmdET_S1_T0_RKT1_ = comdat any

$_ZSt10__fill_n_aIPdmdEN9__gnu_cxx11__enable_ifIXsr11__is_scalarIT1_EE7__valueET_E6__typeES4_T0_RKS3_ = comdat any

$_ZSt12__niter_baseIPdET_S1_ = comdat any

$_ZNSt16allocator_traitsISaIdEE8allocateERS0_m = comdat any

$_ZN9__gnu_cxx13new_allocatorIdE8allocateEmPKv = comdat any

$_ZSt22__uninitialized_copy_aISt13move_iteratorIPdES1_dET0_T_S4_S3_RSaIT1_E = comdat any

$_ZSt32__make_move_if_noexcept_iteratorIdSt13move_iteratorIPdEET0_PT_ = comdat any

$_ZSt18uninitialized_copyISt13move_iteratorIPdES1_ET0_T_S4_S3_ = comdat any

$_ZNSt20__uninitialized_copyILb1EE13__uninit_copyISt13move_iteratorIPdES3_EET0_T_S6_S5_ = comdat any

$_ZSt4copyISt13move_iteratorIPdES1_ET0_T_S4_S3_ = comdat any

$_ZSt14__copy_move_a2ILb1EPdS0_ET1_T0_S2_S1_ = comdat any

$_ZSt12__miter_baseIPdEDTcl12__miter_basecldtfp_4baseEEESt13move_iteratorIT_E = comdat any

$_ZSt13__copy_move_aILb1EPdS0_ET1_T0_S2_S1_ = comdat any

$_ZNSt11__copy_moveILb1ELb1ESt26random_access_iterator_tagE8__copy_mIdEEPT_PKS3_S6_S4_ = comdat any

$_ZSt12__miter_baseIPdET_S1_ = comdat any

$_ZNKSt13move_iteratorIPdE4baseEv = comdat any

$_ZNSt13move_iteratorIPdEC2ES0_ = comdat any

$_ZNSt6vectorISt7complexIdESaIS1_EE17_M_default_appendEm = comdat any

$_ZNSt6vectorISt7complexIdESaIS1_EE15_M_erase_at_endEPS1_ = comdat any

$_ZSt27__uninitialized_default_n_aIPSt7complexIdEmS1_ET_S3_T0_RSaIT1_E = comdat any

$_ZSt25__uninitialized_default_nIPSt7complexIdEmET_S3_T0_ = comdat any

$_ZNSt27__uninitialized_default_n_1ILb0EE18__uninit_default_nIPSt7complexIdEmEET_S5_T0_ = comdat any

$_ZSt10_ConstructISt7complexIdEJEEvPT_DpOT0_ = comdat any

@ps = global %"class.std::vector" zeroinitializer, align 8
@__dso_handle = external hidden global i8
@hs = global %"class.std::vector.0" zeroinitializer, align 8
@ds = global %"class.std::vector.0" zeroinitializer, align 8
@wl = global double 0.000000e+00, align 8
@.str = private unnamed_addr constant [6 x i8] c"%d%lf\00", align 1
@.str.3 = private unnamed_addr constant [10 x i8] c"%lf%lf%lf\00", align 1
@.str.4 = private unnamed_addr constant [6 x i8] c"%.9f\0A\00", align 1
@.str.5 = private unnamed_addr constant [26 x i8] c"vector::_M_realloc_insert\00", align 1
@.str.6 = private unnamed_addr constant [26 x i8] c"vector::_M_default_append\00", align 1
@llvm.global_ctors = appending global [1 x { i32, void ()*, i8* }] [{ i32, void ()*, i8* } { i32 65535, void ()* @_GLOBAL__sub_I_s441660989.cpp, i8* null }]

; Function Attrs: noinline uwtable
define double @_Z3dotRKSt7complexIdES2_(%"struct.std::complex"* dereferenceable(16) %0, %"struct.std::complex"* dereferenceable(16) %1) #0 {
  %3 = call double @_ZSt4realIdET_RKSt7complexIS0_E(%"struct.std::complex"* dereferenceable(16) %0)
  %4 = call double @_ZSt4realIdET_RKSt7complexIS0_E(%"struct.std::complex"* dereferenceable(16) %1)
  %5 = fmul double %3, %4
  %6 = call double @_ZSt4imagIdET_RKSt7complexIS0_E(%"struct.std::complex"* dereferenceable(16) %0)
  %7 = call double @_ZSt4imagIdET_RKSt7complexIS0_E(%"struct.std::complex"* dereferenceable(16) %1)
  %8 = fmul double %6, %7
  %9 = fadd double %5, %8
  ret double %9
}

; Function Attrs: noinline uwtable
define linkonce_odr double @_ZSt4realIdET_RKSt7complexIS0_E(%"struct.std::complex"* dereferenceable(16) %0) #0 comdat {
  %2 = call double @_ZNKSt7complexIdE4realB5cxx11Ev(%"struct.std::complex"* %0)
  ret double %2
}

; Function Attrs: noinline uwtable
define linkonce_odr double @_ZSt4imagIdET_RKSt7complexIS0_E(%"struct.std::complex"* dereferenceable(16) %0) #0 comdat {
  %2 = call double @_ZNKSt7complexIdE4imagB5cxx11Ev(%"struct.std::complex"* %0)
  ret double %2
}

; Function Attrs: noinline uwtable
define void @_Z6intrccRKSt7complexIdEdS2_dRSt6vectorIS0_SaIS0_EE(%"struct.std::complex"* dereferenceable(16) %0, double %1, %"struct.std::complex"* dereferenceable(16) %2, double %3, %"class.std::vector"* dereferenceable(24) %4) #0 {
  %6 = alloca double, align 8
  %7 = alloca %"struct.std::complex", align 8
  %8 = alloca %"struct.std::complex", align 8
  %9 = alloca %"struct.std::complex", align 8
  %10 = alloca %"struct.std::complex", align 8
  %11 = alloca double, align 8
  %12 = alloca %"struct.std::complex", align 8
  %13 = alloca %"struct.std::complex", align 8
  %14 = alloca double, align 8
  store double %1, double* %6, align 8
  %15 = call { double, double } @_ZStmiIdESt7complexIT_ERKS2_S4_(%"struct.std::complex"* dereferenceable(16) %2, %"struct.std::complex"* dereferenceable(16) %0)
  %16 = getelementptr inbounds %"struct.std::complex", %"struct.std::complex"* %7, i32 0, i32 0
  %17 = getelementptr inbounds { double, double }, { double, double }* %16, i32 0, i32 0
  %18 = extractvalue { double, double } %15, 0
  store double %18, double* %17, align 8
  %19 = getelementptr inbounds { double, double }, { double, double }* %16, i32 0, i32 1
  %20 = extractvalue { double, double } %15, 1
  store double %20, double* %19, align 8
  %21 = call double @_ZSt3absIdET_RKSt7complexIS0_E(%"struct.std::complex"* dereferenceable(16) %7)
  %22 = call { double, double } @_ZStmiIdESt7complexIT_ERKS2_S4_(%"struct.std::complex"* dereferenceable(16) %2, %"struct.std::complex"* dereferenceable(16) %0)
  %23 = getelementptr inbounds %"struct.std::complex", %"struct.std::complex"* %8, i32 0, i32 0
  %24 = getelementptr inbounds { double, double }, { double, double }* %23, i32 0, i32 0
  %25 = extractvalue { double, double } %22, 0
  store double %25, double* %24, align 8
  %26 = getelementptr inbounds { double, double }, { double, double }* %23, i32 0, i32 1
  %27 = extractvalue { double, double } %22, 1
  store double %27, double* %26, align 8
  %28 = call double @_ZSt3argIdET_RKSt7complexIS0_E(%"struct.std::complex"* dereferenceable(16) %8)
  %29 = fmul double %21, %21
  %30 = load double, double* %6, align 8
  %31 = load double, double* %6, align 8
  %32 = fmul double %30, %31
  %33 = fadd double %29, %32
  %34 = fmul double %3, %3
  %35 = fsub double %33, %34
  %36 = fmul double 2.000000e+00, %21
  %37 = load double, double* %6, align 8
  %38 = fmul double %36, %37
  %39 = fdiv double %35, %38
  %40 = call double @_ZSt3absd(double %39)
  %41 = fcmp ogt double %40, 1.000000e+00
  br i1 %41, label %42, label %43

42:                                               ; preds = %5
  br label %71

43:                                               ; preds = %5
  %44 = call double @acos(double %39) #3
  %45 = fadd double %28, %44
  store double %45, double* %11, align 8
  %46 = call { double, double } @_ZSt5polarIdESt7complexIT_ERKS1_S4_(double* dereferenceable(8) %6, double* dereferenceable(8) %11)
  %47 = getelementptr inbounds %"struct.std::complex", %"struct.std::complex"* %10, i32 0, i32 0
  %48 = getelementptr inbounds { double, double }, { double, double }* %47, i32 0, i32 0
  %49 = extractvalue { double, double } %46, 0
  store double %49, double* %48, align 8
  %50 = getelementptr inbounds { double, double }, { double, double }* %47, i32 0, i32 1
  %51 = extractvalue { double, double } %46, 1
  store double %51, double* %50, align 8
  %52 = call { double, double } @_ZStplIdESt7complexIT_ERKS2_S4_(%"struct.std::complex"* dereferenceable(16) %0, %"struct.std::complex"* dereferenceable(16) %10)
  %53 = getelementptr inbounds %"struct.std::complex", %"struct.std::complex"* %9, i32 0, i32 0
  %54 = getelementptr inbounds { double, double }, { double, double }* %53, i32 0, i32 0
  %55 = extractvalue { double, double } %52, 0
  store double %55, double* %54, align 8
  %56 = getelementptr inbounds { double, double }, { double, double }* %53, i32 0, i32 1
  %57 = extractvalue { double, double } %52, 1
  store double %57, double* %56, align 8
  call void @_ZNSt6vectorISt7complexIdESaIS1_EE9push_backEOS1_(%"class.std::vector"* %4, %"struct.std::complex"* dereferenceable(16) %9)
  %58 = fsub double %28, %44
  store double %58, double* %14, align 8
  %59 = call { double, double } @_ZSt5polarIdESt7complexIT_ERKS1_S4_(double* dereferenceable(8) %6, double* dereferenceable(8) %14)
  %60 = getelementptr inbounds %"struct.std::complex", %"struct.std::complex"* %13, i32 0, i32 0
  %61 = getelementptr inbounds { double, double }, { double, double }* %60, i32 0, i32 0
  %62 = extractvalue { double, double } %59, 0
  store double %62, double* %61, align 8
  %63 = getelementptr inbounds { double, double }, { double, double }* %60, i32 0, i32 1
  %64 = extractvalue { double, double } %59, 1
  store double %64, double* %63, align 8
  %65 = call { double, double } @_ZStplIdESt7complexIT_ERKS2_S4_(%"struct.std::complex"* dereferenceable(16) %0, %"struct.std::complex"* dereferenceable(16) %13)
  %66 = getelementptr inbounds %"struct.std::complex", %"struct.std::complex"* %12, i32 0, i32 0
  %67 = getelementptr inbounds { double, double }, { double, double }* %66, i32 0, i32 0
  %68 = extractvalue { double, double } %65, 0
  store double %68, double* %67, align 8
  %69 = getelementptr inbounds { double, double }, { double, double }* %66, i32 0, i32 1
  %70 = extractvalue { double, double } %65, 1
  store double %70, double* %69, align 8
  call void @_ZNSt6vectorISt7complexIdESaIS1_EE9push_backEOS1_(%"class.std::vector"* %4, %"struct.std::complex"* dereferenceable(16) %12)
  br label %71

71:                                               ; preds = %43, %42
  ret void
}

; Function Attrs: noinline uwtable
define linkonce_odr double @_ZSt3absIdET_RKSt7complexIS0_E(%"struct.std::complex"* dereferenceable(16) %0) #0 comdat {
  %2 = alloca { double, double }, align 8
  %3 = call { double, double } @_ZNKSt7complexIdE5__repEv(%"struct.std::complex"* %0)
  %4 = extractvalue { double, double } %3, 0
  %5 = extractvalue { double, double } %3, 1
  %6 = getelementptr inbounds { double, double }, { double, double }* %2, i32 0, i32 0
  %7 = getelementptr inbounds { double, double }, { double, double }* %2, i32 0, i32 1
  store double %4, double* %6, align 8
  store double %5, double* %7, align 8
  %8 = getelementptr inbounds { double, double }, { double, double }* %2, i32 0, i32 0
  %9 = load double, double* %8, align 8
  %10 = getelementptr inbounds { double, double }, { double, double }* %2, i32 0, i32 1
  %11 = load double, double* %10, align 8
  %12 = call double @_ZSt13__complex_absCd(double %9, double %11)
  ret double %12
}

; Function Attrs: noinline uwtable
define linkonce_odr { double, double } @_ZStmiIdESt7complexIT_ERKS2_S4_(%"struct.std::complex"* dereferenceable(16) %0, %"struct.std::complex"* dereferenceable(16) %1) #0 comdat {
  %3 = alloca %"struct.std::complex", align 8
  %4 = bitcast %"struct.std::complex"* %3 to i8*
  %5 = bitcast %"struct.std::complex"* %0 to i8*
  call void @llvm.memcpy.p0i8.p0i8.i64(i8* align 8 %4, i8* align 8 %5, i64 16, i1 false)
  %6 = call dereferenceable(16) %"struct.std::complex"* @_ZNSt7complexIdEmIIdEERS0_RKS_IT_E(%"struct.std::complex"* %3, %"struct.std::complex"* dereferenceable(16) %1)
  %7 = getelementptr inbounds %"struct.std::complex", %"struct.std::complex"* %3, i32 0, i32 0
  %8 = load { double, double }, { double, double }* %7, align 8
  ret { double, double } %8
}

; Function Attrs: noinline uwtable
define linkonce_odr double @_ZSt3argIdET_RKSt7complexIS0_E(%"struct.std::complex"* dereferenceable(16) %0) #0 comdat {
  %2 = alloca { double, double }, align 8
  %3 = call { double, double } @_ZNKSt7complexIdE5__repEv(%"struct.std::complex"* %0)
  %4 = extractvalue { double, double } %3, 0
  %5 = extractvalue { double, double } %3, 1
  %6 = getelementptr inbounds { double, double }, { double, double }* %2, i32 0, i32 0
  %7 = getelementptr inbounds { double, double }, { double, double }* %2, i32 0, i32 1
  store double %4, double* %6, align 8
  store double %5, double* %7, align 8
  %8 = getelementptr inbounds { double, double }, { double, double }* %2, i32 0, i32 0
  %9 = load double, double* %8, align 8
  %10 = getelementptr inbounds { double, double }, { double, double }* %2, i32 0, i32 1
  %11 = load double, double* %10, align 8
  %12 = call double @_ZSt13__complex_argCd(double %9, double %11)
  ret double %12
}

; Function Attrs: noinline nounwind uwtable
define linkonce_odr double @_ZSt3absd(double %0) #1 comdat {
  %2 = call double @llvm.fabs.f64(double %0)
  ret double %2
}

; Function Attrs: nounwind
declare double @acos(double) #2

; Function Attrs: noinline uwtable
define linkonce_odr void @_ZNSt6vectorISt7complexIdESaIS1_EE9push_backEOS1_(%"class.std::vector"* %0, %"struct.std::complex"* dereferenceable(16) %1) #0 comdat align 2 {
  %3 = call dereferenceable(16) %"struct.std::complex"* @_ZSt4moveIRSt7complexIdEEONSt16remove_referenceIT_E4typeEOS4_(%"struct.std::complex"* dereferenceable(16) %1) #3
  call void @_ZNSt6vectorISt7complexIdESaIS1_EE12emplace_backIJS1_EEEvDpOT_(%"class.std::vector"* %0, %"struct.std::complex"* dereferenceable(16) %3)
  ret void
}

; Function Attrs: noinline uwtable
define linkonce_odr { double, double } @_ZStplIdESt7complexIT_ERKS2_S4_(%"struct.std::complex"* dereferenceable(16) %0, %"struct.std::complex"* dereferenceable(16) %1) #0 comdat {
  %3 = alloca %"struct.std::complex", align 8
  %4 = bitcast %"struct.std::complex"* %3 to i8*
  %5 = bitcast %"struct.std::complex"* %0 to i8*
  call void @llvm.memcpy.p0i8.p0i8.i64(i8* align 8 %4, i8* align 8 %5, i64 16, i1 false)
  %6 = call dereferenceable(16) %"struct.std::complex"* @_ZNSt7complexIdEpLIdEERS0_RKS_IT_E(%"struct.std::complex"* %3, %"struct.std::complex"* dereferenceable(16) %1)
  %7 = getelementptr inbounds %"struct.std::complex", %"struct.std::complex"* %3, i32 0, i32 0
  %8 = load { double, double }, { double, double }* %7, align 8
  ret { double, double } %8
}

; Function Attrs: noinline uwtable
define linkonce_odr { double, double } @_ZSt5polarIdESt7complexIT_ERKS1_S4_(double* dereferenceable(8) %0, double* dereferenceable(8) %1) #0 comdat {
  %3 = alloca %"struct.std::complex", align 8
  %4 = load double, double* %0, align 8
  %5 = load double, double* %1, align 8
  %6 = call double @cos(double %5) #3
  %7 = fmul double %4, %6
  %8 = load double, double* %0, align 8
  %9 = load double, double* %1, align 8
  %10 = call double @sin(double %9) #3
  %11 = fmul double %8, %10
  call void @_ZNSt7complexIdEC2Edd(%"struct.std::complex"* %3, double %7, double %11)
  %12 = getelementptr inbounds %"struct.std::complex", %"struct.std::complex"* %3, i32 0, i32 0
  %13 = load { double, double }, { double, double }* %12, align 8
  ret { double, double } %13
}

; Function Attrs: noinline uwtable
define void @_Z6intrlcRKSt7complexIdES2_S2_dRSt6vectorIS0_SaIS0_EE(%"struct.std::complex"* dereferenceable(16) %0, %"struct.std::complex"* dereferenceable(16) %1, %"struct.std::complex"* dereferenceable(16) %2, double %3, %"class.std::vector"* dereferenceable(24) %4) #0 {
  %6 = alloca %"struct.std::complex", align 8
  %7 = alloca %"struct.std::complex", align 8
  %8 = alloca double, align 8
  %9 = alloca double, align 8
  %10 = alloca %"struct.std::complex", align 8
  %11 = alloca %"struct.std::complex", align 8
  %12 = alloca %"struct.std::complex", align 8
  %13 = alloca %"struct.std::complex", align 8
  %14 = call { double, double } @_ZStmiIdESt7complexIT_ERKS2_S4_(%"struct.std::complex"* dereferenceable(16) %1, %"struct.std::complex"* dereferenceable(16) %0)
  %15 = getelementptr inbounds %"struct.std::complex", %"struct.std::complex"* %6, i32 0, i32 0
  %16 = getelementptr inbounds { double, double }, { double, double }* %15, i32 0, i32 0
  %17 = extractvalue { double, double } %14, 0
  store double %17, double* %16, align 8
  %18 = getelementptr inbounds { double, double }, { double, double }* %15, i32 0, i32 1
  %19 = extractvalue { double, double } %14, 1
  store double %19, double* %18, align 8
  %20 = call { double, double } @_ZStmiIdESt7complexIT_ERKS2_S4_(%"struct.std::complex"* dereferenceable(16) %2, %"struct.std::complex"* dereferenceable(16) %0)
  %21 = getelementptr inbounds %"struct.std::complex", %"struct.std::complex"* %7, i32 0, i32 0
  %22 = getelementptr inbounds { double, double }, { double, double }* %21, i32 0, i32 0
  %23 = extractvalue { double, double } %20, 0
  store double %23, double* %22, align 8
  %24 = getelementptr inbounds { double, double }, { double, double }* %21, i32 0, i32 1
  %25 = extractvalue { double, double } %20, 1
  store double %25, double* %24, align 8
  %26 = call double @_ZSt4normIdET_RKSt7complexIS0_E(%"struct.std::complex"* dereferenceable(16) %6)
  %27 = call double @_Z3dotRKSt7complexIdES2_(%"struct.std::complex"* dereferenceable(16) %6, %"struct.std::complex"* dereferenceable(16) %7)
  %28 = fsub double -0.000000e+00, %27
  %29 = call double @_ZSt4normIdET_RKSt7complexIS0_E(%"struct.std::complex"* dereferenceable(16) %7)
  %30 = fmul double %3, %3
  %31 = fsub double %29, %30
  %32 = fmul double %28, %28
  %33 = fmul double %26, %31
  %34 = fsub double %32, %33
  %35 = call double @_ZSt3absd(double %26)
  %36 = fcmp olt double %35, 1.000000e-10
  br i1 %36, label %39, label %37

37:                                               ; preds = %5
  %38 = fcmp olt double %34, 1.000000e-10
  br i1 %38, label %39, label %40

39:                                               ; preds = %37, %5
  br label %72

40:                                               ; preds = %37
  %41 = call double @sqrt(double %34) #3
  %42 = fsub double -0.000000e+00, %28
  %43 = fadd double %42, %41
  %44 = fdiv double %43, %26
  store double %44, double* %8, align 8
  %45 = fsub double -0.000000e+00, %28
  %46 = fsub double %45, %41
  %47 = fdiv double %46, %26
  store double %47, double* %9, align 8
  %48 = call { double, double } @_ZStmlIdESt7complexIT_ERKS2_RKS1_(%"struct.std::complex"* dereferenceable(16) %6, double* dereferenceable(8) %8)
  %49 = getelementptr inbounds %"struct.std::complex", %"struct.std::complex"* %11, i32 0, i32 0
  %50 = getelementptr inbounds { double, double }, { double, double }* %49, i32 0, i32 0
  %51 = extractvalue { double, double } %48, 0
  store double %51, double* %50, align 8
  %52 = getelementptr inbounds { double, double }, { double, double }* %49, i32 0, i32 1
  %53 = extractvalue { double, double } %48, 1
  store double %53, double* %52, align 8
  %54 = call { double, double } @_ZStplIdESt7complexIT_ERKS2_S4_(%"struct.std::complex"* dereferenceable(16) %0, %"struct.std::complex"* dereferenceable(16) %11)
  %55 = getelementptr inbounds %"struct.std::complex", %"struct.std::complex"* %10, i32 0, i32 0
  %56 = getelementptr inbounds { double, double }, { double, double }* %55, i32 0, i32 0
  %57 = extractvalue { double, double } %54, 0
  store double %57, double* %56, align 8
  %58 = getelementptr inbounds { double, double }, { double, double }* %55, i32 0, i32 1
  %59 = extractvalue { double, double } %54, 1
  store double %59, double* %58, align 8
  call void @_ZNSt6vectorISt7complexIdESaIS1_EE9push_backEOS1_(%"class.std::vector"* %4, %"struct.std::complex"* dereferenceable(16) %10)
  %60 = call { double, double } @_ZStmlIdESt7complexIT_ERKS2_RKS1_(%"struct.std::complex"* dereferenceable(16) %6, double* dereferenceable(8) %9)
  %61 = getelementptr inbounds %"struct.std::complex", %"struct.std::complex"* %13, i32 0, i32 0
  %62 = getelementptr inbounds { double, double }, { double, double }* %61, i32 0, i32 0
  %63 = extractvalue { double, double } %60, 0
  store double %63, double* %62, align 8
  %64 = getelementptr inbounds { double, double }, { double, double }* %61, i32 0, i32 1
  %65 = extractvalue { double, double } %60, 1
  store double %65, double* %64, align 8
  %66 = call { double, double } @_ZStplIdESt7complexIT_ERKS2_S4_(%"struct.std::complex"* dereferenceable(16) %0, %"struct.std::complex"* dereferenceable(16) %13)
  %67 = getelementptr inbounds %"struct.std::complex", %"struct.std::complex"* %12, i32 0, i32 0
  %68 = getelementptr inbounds { double, double }, { double, double }* %67, i32 0, i32 0
  %69 = extractvalue { double, double } %66, 0
  store double %69, double* %68, align 8
  %70 = getelementptr inbounds { double, double }, { double, double }* %67, i32 0, i32 1
  %71 = extractvalue { double, double } %66, 1
  store double %71, double* %70, align 8
  call void @_ZNSt6vectorISt7complexIdESaIS1_EE9push_backEOS1_(%"class.std::vector"* %4, %"struct.std::complex"* dereferenceable(16) %12)
  br label %72

72:                                               ; preds = %40, %39
  ret void
}

; Function Attrs: noinline uwtable
define linkonce_odr double @_ZSt4normIdET_RKSt7complexIS0_E(%"struct.std::complex"* dereferenceable(16) %0) #0 comdat {
  %2 = call double @_ZNSt12_Norm_helperILb1EE8_S_do_itIdEET_RKSt7complexIS2_E(%"struct.std::complex"* dereferenceable(16) %0)
  ret double %2
}

; Function Attrs: nounwind
declare double @sqrt(double) #2

; Function Attrs: noinline uwtable
define linkonce_odr { double, double } @_ZStmlIdESt7complexIT_ERKS2_RKS1_(%"struct.std::complex"* dereferenceable(16) %0, double* dereferenceable(8) %1) #0 comdat {
  %3 = alloca %"struct.std::complex", align 8
  %4 = bitcast %"struct.std::complex"* %3 to i8*
  %5 = bitcast %"struct.std::complex"* %0 to i8*
  call void @llvm.memcpy.p0i8.p0i8.i64(i8* align 8 %4, i8* align 8 %5, i64 16, i1 false)
  %6 = load double, double* %1, align 8
  %7 = call dereferenceable(16) %"struct.std::complex"* @_ZNSt7complexIdEmLEd(%"struct.std::complex"* %3, double %6)
  %8 = getelementptr inbounds %"struct.std::complex", %"struct.std::complex"* %3, i32 0, i32 0
  %9 = load { double, double }, { double, double }* %8, align 8
  ret { double, double } %9
}

; Function Attrs: noinline nounwind uwtable
define double @_Z4rtoddd(double %0, double %1) #1 {
  %3 = fcmp ole double %1, %0
  br i1 %3, label %4, label %5

4:                                                ; preds = %2
  br label %11

5:                                                ; preds = %2
  %6 = fsub double %1, %0
  %7 = fdiv double %6, %1
  %8 = call double @asin(double %7) #3
  %9 = call double @cos(double %8) #3
  %10 = fmul double %1, %9
  br label %11

11:                                               ; preds = %5, %4
  %.0 = phi double [ %1, %4 ], [ %10, %5 ]
  ret double %.0
}

; Function Attrs: nounwind
declare double @asin(double) #2

; Function Attrs: nounwind
declare double @cos(double) #2

; Function Attrs: noinline uwtable
define internal void @__cxx_global_var_init() #0 section ".text.startup" {
  call void @_ZNSt6vectorISt7complexIdESaIS1_EEC2Ev(%"class.std::vector"* @ps) #3
  %1 = call i32 @__cxa_atexit(void (i8*)* bitcast (void (%"class.std::vector"*)* @_ZNSt6vectorISt7complexIdESaIS1_EED2Ev to void (i8*)*), i8* bitcast (%"class.std::vector"* @ps to i8*), i8* @__dso_handle) #3
  ret void
}

; Function Attrs: noinline nounwind uwtable
define linkonce_odr void @_ZNSt6vectorISt7complexIdESaIS1_EEC2Ev(%"class.std::vector"* %0) unnamed_addr #1 comdat align 2 personality i8* bitcast (i32 (...)* @__gxx_personality_v0 to i8*) {
  %2 = bitcast %"class.std::vector"* %0 to %"struct.std::_Vector_base"*
  invoke void @_ZNSt12_Vector_baseISt7complexIdESaIS1_EEC2Ev(%"struct.std::_Vector_base"* %2)
          to label %3 unwind label %4

3:                                                ; preds = %1
  ret void

4:                                                ; preds = %1
  %5 = landingpad { i8*, i32 }
          catch i8* null
  %6 = extractvalue { i8*, i32 } %5, 0
  call void @__clang_call_terminate(i8* %6) #13
  unreachable
}

; Function Attrs: noinline nounwind uwtable
define linkonce_odr void @_ZNSt6vectorISt7complexIdESaIS1_EED2Ev(%"class.std::vector"* %0) unnamed_addr #1 comdat align 2 personality i8* bitcast (i32 (...)* @__gxx_personality_v0 to i8*) {
  %2 = bitcast %"class.std::vector"* %0 to %"struct.std::_Vector_base"*
  %3 = getelementptr inbounds %"struct.std::_Vector_base", %"struct.std::_Vector_base"* %2, i32 0, i32 0
  %4 = getelementptr inbounds %"struct.std::_Vector_base<std::complex<double>, std::allocator<std::complex<double> > >::_Vector_impl", %"struct.std::_Vector_base<std::complex<double>, std::allocator<std::complex<double> > >::_Vector_impl"* %3, i32 0, i32 0
  %5 = load %"struct.std::complex"*, %"struct.std::complex"** %4, align 8
  %6 = bitcast %"class.std::vector"* %0 to %"struct.std::_Vector_base"*
  %7 = getelementptr inbounds %"struct.std::_Vector_base", %"struct.std::_Vector_base"* %6, i32 0, i32 0
  %8 = getelementptr inbounds %"struct.std::_Vector_base<std::complex<double>, std::allocator<std::complex<double> > >::_Vector_impl", %"struct.std::_Vector_base<std::complex<double>, std::allocator<std::complex<double> > >::_Vector_impl"* %7, i32 0, i32 1
  %9 = load %"struct.std::complex"*, %"struct.std::complex"** %8, align 8
  %10 = bitcast %"class.std::vector"* %0 to %"struct.std::_Vector_base"*
  %11 = call dereferenceable(1) %"class.std::allocator"* @_ZNSt12_Vector_baseISt7complexIdESaIS1_EE19_M_get_Tp_allocatorEv(%"struct.std::_Vector_base"* %10) #3
  invoke void @_ZSt8_DestroyIPSt7complexIdES1_EvT_S3_RSaIT0_E(%"struct.std::complex"* %5, %"struct.std::complex"* %9, %"class.std::allocator"* dereferenceable(1) %11)
          to label %12 unwind label %14

12:                                               ; preds = %1
  %13 = bitcast %"class.std::vector"* %0 to %"struct.std::_Vector_base"*
  call void @_ZNSt12_Vector_baseISt7complexIdESaIS1_EED2Ev(%"struct.std::_Vector_base"* %13) #3
  ret void

14:                                               ; preds = %1
  %15 = landingpad { i8*, i32 }
          catch i8* null
  %16 = extractvalue { i8*, i32 } %15, 0
  %17 = extractvalue { i8*, i32 } %15, 1
  %18 = bitcast %"class.std::vector"* %0 to %"struct.std::_Vector_base"*
  call void @_ZNSt12_Vector_baseISt7complexIdESaIS1_EED2Ev(%"struct.std::_Vector_base"* %18) #3
  br label %19

19:                                               ; preds = %14
  call void @__clang_call_terminate(i8* %16) #13
  unreachable
}

; Function Attrs: nounwind
declare i32 @__cxa_atexit(void (i8*)*, i8*, i8*) #3

; Function Attrs: noinline uwtable
define internal void @__cxx_global_var_init.1() #0 section ".text.startup" {
  call void @_ZNSt6vectorIdSaIdEEC2Ev(%"class.std::vector.0"* @hs) #3
  %1 = call i32 @__cxa_atexit(void (i8*)* bitcast (void (%"class.std::vector.0"*)* @_ZNSt6vectorIdSaIdEED2Ev to void (i8*)*), i8* bitcast (%"class.std::vector.0"* @hs to i8*), i8* @__dso_handle) #3
  ret void
}

; Function Attrs: noinline nounwind uwtable
define linkonce_odr void @_ZNSt6vectorIdSaIdEEC2Ev(%"class.std::vector.0"* %0) unnamed_addr #1 comdat align 2 personality i8* bitcast (i32 (...)* @__gxx_personality_v0 to i8*) {
  %2 = bitcast %"class.std::vector.0"* %0 to %"struct.std::_Vector_base.1"*
  invoke void @_ZNSt12_Vector_baseIdSaIdEEC2Ev(%"struct.std::_Vector_base.1"* %2)
          to label %3 unwind label %4

3:                                                ; preds = %1
  ret void

4:                                                ; preds = %1
  %5 = landingpad { i8*, i32 }
          catch i8* null
  %6 = extractvalue { i8*, i32 } %5, 0
  call void @__clang_call_terminate(i8* %6) #13
  unreachable
}

; Function Attrs: noinline nounwind uwtable
define linkonce_odr void @_ZNSt6vectorIdSaIdEED2Ev(%"class.std::vector.0"* %0) unnamed_addr #1 comdat align 2 personality i8* bitcast (i32 (...)* @__gxx_personality_v0 to i8*) {
  %2 = bitcast %"class.std::vector.0"* %0 to %"struct.std::_Vector_base.1"*
  %3 = getelementptr inbounds %"struct.std::_Vector_base.1", %"struct.std::_Vector_base.1"* %2, i32 0, i32 0
  %4 = getelementptr inbounds %"struct.std::_Vector_base<double, std::allocator<double> >::_Vector_impl", %"struct.std::_Vector_base<double, std::allocator<double> >::_Vector_impl"* %3, i32 0, i32 0
  %5 = load double*, double** %4, align 8
  %6 = bitcast %"class.std::vector.0"* %0 to %"struct.std::_Vector_base.1"*
  %7 = getelementptr inbounds %"struct.std::_Vector_base.1", %"struct.std::_Vector_base.1"* %6, i32 0, i32 0
  %8 = getelementptr inbounds %"struct.std::_Vector_base<double, std::allocator<double> >::_Vector_impl", %"struct.std::_Vector_base<double, std::allocator<double> >::_Vector_impl"* %7, i32 0, i32 1
  %9 = load double*, double** %8, align 8
  %10 = bitcast %"class.std::vector.0"* %0 to %"struct.std::_Vector_base.1"*
  %11 = call dereferenceable(1) %"class.std::allocator.2"* @_ZNSt12_Vector_baseIdSaIdEE19_M_get_Tp_allocatorEv(%"struct.std::_Vector_base.1"* %10) #3
  invoke void @_ZSt8_DestroyIPddEvT_S1_RSaIT0_E(double* %5, double* %9, %"class.std::allocator.2"* dereferenceable(1) %11)
          to label %12 unwind label %14

12:                                               ; preds = %1
  %13 = bitcast %"class.std::vector.0"* %0 to %"struct.std::_Vector_base.1"*
  call void @_ZNSt12_Vector_baseIdSaIdEED2Ev(%"struct.std::_Vector_base.1"* %13) #3
  ret void

14:                                               ; preds = %1
  %15 = landingpad { i8*, i32 }
          catch i8* null
  %16 = extractvalue { i8*, i32 } %15, 0
  %17 = extractvalue { i8*, i32 } %15, 1
  %18 = bitcast %"class.std::vector.0"* %0 to %"struct.std::_Vector_base.1"*
  call void @_ZNSt12_Vector_baseIdSaIdEED2Ev(%"struct.std::_Vector_base.1"* %18) #3
  br label %19

19:                                               ; preds = %14
  call void @__clang_call_terminate(i8* %16) #13
  unreachable
}

; Function Attrs: noinline uwtable
define internal void @__cxx_global_var_init.2() #0 section ".text.startup" {
  call void @_ZNSt6vectorIdSaIdEEC2Ev(%"class.std::vector.0"* @ds) #3
  %1 = call i32 @__cxa_atexit(void (i8*)* bitcast (void (%"class.std::vector.0"*)* @_ZNSt6vectorIdSaIdEED2Ev to void (i8*)*), i8* bitcast (%"class.std::vector.0"* @ds to i8*), i8* @__dso_handle) #3
  ret void
}

; Function Attrs: noinline uwtable
define zeroext i1 @_Z5checkd(double %0) #0 personality i8* bitcast (i32 (...)* @__gxx_personality_v0 to i8*) {
  %2 = alloca [4 x %"struct.std::complex"], align 16
  %3 = alloca %"struct.std::complex", align 8
  %4 = alloca %"struct.std::complex", align 8
  %5 = alloca %"struct.std::complex", align 8
  %6 = alloca %"struct.std::complex", align 8
  %7 = alloca %"class.std::vector", align 8
  %8 = alloca %"class.std::allocator", align 1
  %9 = alloca %"struct.std::complex", align 8
  %10 = load double, double* @wl, align 8
  %11 = call double @_Z4rtoddd(double %10, double %0)
  %12 = fsub double 1.000000e+02, %11
  %13 = getelementptr inbounds [4 x %"struct.std::complex"], [4 x %"struct.std::complex"]* %2, i32 0, i32 0
  %14 = getelementptr inbounds %"struct.std::complex", %"struct.std::complex"* %13, i64 4
  br label %15

15:                                               ; preds = %15, %1
  %16 = phi %"struct.std::complex"* [ %13, %1 ], [ %17, %15 ]
  call void @_ZNSt7complexIdEC2Edd(%"struct.std::complex"* %16, double 0.000000e+00, double 0.000000e+00)
  %17 = getelementptr inbounds %"struct.std::complex", %"struct.std::complex"* %16, i64 1
  %18 = icmp eq %"struct.std::complex"* %17, %14
  br i1 %18, label %19, label %15

19:                                               ; preds = %15
  call void @_ZNSt7complexIdEC2Edd(%"struct.std::complex"* %3, double %11, double %11)
  %20 = getelementptr inbounds [4 x %"struct.std::complex"], [4 x %"struct.std::complex"]* %2, i64 0, i64 0
  %21 = bitcast %"struct.std::complex"* %20 to i8*
  %22 = bitcast %"struct.std::complex"* %3 to i8*
  call void @llvm.memcpy.p0i8.p0i8.i64(i8* align 8 %21, i8* align 8 %22, i64 16, i1 false)
  call void @_ZNSt7complexIdEC2Edd(%"struct.std::complex"* %4, double %11, double %12)
  %23 = getelementptr inbounds [4 x %"struct.std::complex"], [4 x %"struct.std::complex"]* %2, i64 0, i64 1
  %24 = bitcast %"struct.std::complex"* %23 to i8*
  %25 = bitcast %"struct.std::complex"* %4 to i8*
  call void @llvm.memcpy.p0i8.p0i8.i64(i8* align 8 %24, i8* align 8 %25, i64 16, i1 false)
  call void @_ZNSt7complexIdEC2Edd(%"struct.std::complex"* %5, double %12, double %12)
  %26 = getelementptr inbounds [4 x %"struct.std::complex"], [4 x %"struct.std::complex"]* %2, i64 0, i64 2
  %27 = bitcast %"struct.std::complex"* %26 to i8*
  %28 = bitcast %"struct.std::complex"* %5 to i8*
  call void @llvm.memcpy.p0i8.p0i8.i64(i8* align 8 %27, i8* align 8 %28, i64 16, i1 false)
  call void @_ZNSt7complexIdEC2Edd(%"struct.std::complex"* %6, double %12, double %11)
  %29 = getelementptr inbounds [4 x %"struct.std::complex"], [4 x %"struct.std::complex"]* %2, i64 0, i64 3
  %30 = bitcast %"struct.std::complex"* %29 to i8*
  %31 = bitcast %"struct.std::complex"* %6 to i8*
  call void @llvm.memcpy.p0i8.p0i8.i64(i8* align 8 %30, i8* align 8 %31, i64 16, i1 false)
  %32 = getelementptr inbounds [4 x %"struct.std::complex"], [4 x %"struct.std::complex"]* %2, i32 0, i32 0
  %33 = getelementptr inbounds [4 x %"struct.std::complex"], [4 x %"struct.std::complex"]* %2, i32 0, i32 0
  %34 = getelementptr inbounds %"struct.std::complex", %"struct.std::complex"* %33, i64 4
  call void @_ZNSaISt7complexIdEEC2Ev(%"class.std::allocator"* %8) #3
  invoke void @_ZNSt6vectorISt7complexIdESaIS1_EEC2IPS1_vEET_S6_RKS2_(%"class.std::vector"* %7, %"struct.std::complex"* %32, %"struct.std::complex"* %34, %"class.std::allocator"* dereferenceable(1) %8)
          to label %35 unwind label %49

35:                                               ; preds = %19
  call void @_ZNSaISt7complexIdEED2Ev(%"class.std::allocator"* %8) #3
  %36 = call i64 @_ZNKSt6vectorIdSaIdEE4sizeEv(%"class.std::vector.0"* @hs) #3
  invoke void @_ZNSt6vectorIdSaIdEE6resizeEm(%"class.std::vector.0"* @ds, i64 %36)
          to label %37 unwind label %53

37:                                               ; preds = %35
  br label %38

38:                                               ; preds = %47, %37
  %.05 = phi i64 [ 0, %37 ], [ %48, %47 ]
  %39 = call i64 @_ZNKSt6vectorIdSaIdEE4sizeEv(%"class.std::vector.0"* @hs) #3
  %40 = icmp ult i64 %.05, %39
  br i1 %40, label %41, label %57

41:                                               ; preds = %38
  %42 = call dereferenceable(8) double* @_ZNSt6vectorIdSaIdEEixEm(%"class.std::vector.0"* @hs, i64 %.05) #3
  %43 = load double, double* %42, align 8
  %44 = invoke double @_Z4rtoddd(double %43, double %0)
          to label %45 unwind label %53

45:                                               ; preds = %41
  %46 = call dereferenceable(8) double* @_ZNSt6vectorIdSaIdEEixEm(%"class.std::vector.0"* @ds, i64 %.05) #3
  store double %44, double* %46, align 8
  br label %47

47:                                               ; preds = %45
  %48 = add i64 %.05, 1
  br label %38

49:                                               ; preds = %19
  %50 = landingpad { i8*, i32 }
          cleanup
  %51 = extractvalue { i8*, i32 } %50, 0
  %52 = extractvalue { i8*, i32 } %50, 1
  call void @_ZNSaISt7complexIdEED2Ev(%"class.std::allocator"* %8) #3
  br label %148

53:                                               ; preds = %123, %119, %100, %97, %80, %64, %41, %35
  %54 = landingpad { i8*, i32 }
          cleanup
  %55 = extractvalue { i8*, i32 } %54, 0
  %56 = extractvalue { i8*, i32 } %54, 1
  call void @_ZNSt6vectorISt7complexIdESaIS1_EED2Ev(%"class.std::vector"* %7) #3
  br label %148

57:                                               ; preds = %38
  br label %58

58:                                               ; preds = %91, %57
  %.06 = phi i64 [ 0, %57 ], [ %92, %91 ]
  %59 = call i64 @_ZNKSt6vectorIdSaIdEE4sizeEv(%"class.std::vector.0"* @hs) #3
  %60 = icmp ult i64 %.06, %59
  br i1 %60, label %61, label %93

61:                                               ; preds = %58
  br label %62

62:                                               ; preds = %75, %61
  %.07 = phi i32 [ 0, %61 ], [ %76, %75 ]
  %63 = icmp slt i32 %.07, 4
  br i1 %63, label %64, label %77

64:                                               ; preds = %62
  %65 = sext i32 %.07 to i64
  %66 = getelementptr inbounds [4 x %"struct.std::complex"], [4 x %"struct.std::complex"]* %2, i64 0, i64 %65
  %67 = add nsw i32 %.07, 1
  %68 = and i32 %67, 3
  %69 = sext i32 %68 to i64
  %70 = getelementptr inbounds [4 x %"struct.std::complex"], [4 x %"struct.std::complex"]* %2, i64 0, i64 %69
  %71 = call dereferenceable(16) %"struct.std::complex"* @_ZNSt6vectorISt7complexIdESaIS1_EEixEm(%"class.std::vector"* @ps, i64 %.06) #3
  %72 = call dereferenceable(8) double* @_ZNSt6vectorIdSaIdEEixEm(%"class.std::vector.0"* @ds, i64 %.06) #3
  %73 = load double, double* %72, align 8
  invoke void @_Z6intrlcRKSt7complexIdES2_S2_dRSt6vectorIS0_SaIS0_EE(%"struct.std::complex"* dereferenceable(16) %66, %"struct.std::complex"* dereferenceable(16) %70, %"struct.std::complex"* dereferenceable(16) %71, double %73, %"class.std::vector"* dereferenceable(24) %7)
          to label %74 unwind label %53

74:                                               ; preds = %64
  br label %75

75:                                               ; preds = %74
  %76 = add nsw i32 %.07, 1
  br label %62

77:                                               ; preds = %62
  br label %78

78:                                               ; preds = %88, %77
  %.08 = phi i64 [ 0, %77 ], [ %89, %88 ]
  %79 = icmp ult i64 %.08, %.06
  br i1 %79, label %80, label %90

80:                                               ; preds = %78
  %81 = call dereferenceable(16) %"struct.std::complex"* @_ZNSt6vectorISt7complexIdESaIS1_EEixEm(%"class.std::vector"* @ps, i64 %.06) #3
  %82 = call dereferenceable(8) double* @_ZNSt6vectorIdSaIdEEixEm(%"class.std::vector.0"* @ds, i64 %.06) #3
  %83 = load double, double* %82, align 8
  %84 = call dereferenceable(16) %"struct.std::complex"* @_ZNSt6vectorISt7complexIdESaIS1_EEixEm(%"class.std::vector"* @ps, i64 %.08) #3
  %85 = call dereferenceable(8) double* @_ZNSt6vectorIdSaIdEEixEm(%"class.std::vector.0"* @ds, i64 %.08) #3
  %86 = load double, double* %85, align 8
  invoke void @_Z6intrccRKSt7complexIdEdS2_dRSt6vectorIS0_SaIS0_EE(%"struct.std::complex"* dereferenceable(16) %81, double %83, %"struct.std::complex"* dereferenceable(16) %84, double %86, %"class.std::vector"* dereferenceable(24) %7)
          to label %87 unwind label %53

87:                                               ; preds = %80
  br label %88

88:                                               ; preds = %87
  %89 = add i64 %.08, 1
  br label %78

90:                                               ; preds = %78
  br label %91

91:                                               ; preds = %90
  %92 = add i64 %.06, 1
  br label %58

93:                                               ; preds = %58
  br label %94

94:                                               ; preds = %144, %93
  %.09 = phi i64 [ 0, %93 ], [ %145, %144 ]
  %95 = call i64 @_ZNKSt6vectorISt7complexIdESaIS1_EE4sizeEv(%"class.std::vector"* %7) #3
  %96 = icmp ult i64 %.09, %95
  br i1 %96, label %97, label %146

97:                                               ; preds = %94
  %98 = call dereferenceable(16) %"struct.std::complex"* @_ZNSt6vectorISt7complexIdESaIS1_EEixEm(%"class.std::vector"* %7, i64 %.09) #3
  %99 = invoke double @_ZSt4realIdET_RKSt7complexIS0_E(%"struct.std::complex"* dereferenceable(16) %98)
          to label %100 unwind label %53

100:                                              ; preds = %97
  %101 = call dereferenceable(16) %"struct.std::complex"* @_ZNSt6vectorISt7complexIdESaIS1_EEixEm(%"class.std::vector"* %7, i64 %.09) #3
  %102 = invoke double @_ZSt4imagIdET_RKSt7complexIS0_E(%"struct.std::complex"* dereferenceable(16) %101)
          to label %103 unwind label %53

103:                                              ; preds = %100
  %104 = fsub double %11, 1.000000e-10
  %105 = fcmp ogt double %99, %104
  br i1 %105, label %106, label %143

106:                                              ; preds = %103
  %107 = fadd double %12, 1.000000e-10
  %108 = fcmp olt double %99, %107
  br i1 %108, label %109, label %143

109:                                              ; preds = %106
  %110 = fsub double %11, 1.000000e-10
  %111 = fcmp ogt double %102, %110
  br i1 %111, label %112, label %143

112:                                              ; preds = %109
  %113 = fadd double %12, 1.000000e-10
  %114 = fcmp olt double %102, %113
  br i1 %114, label %115, label %143

115:                                              ; preds = %112
  br label %116

116:                                              ; preds = %137, %115
  %.01 = phi i64 [ 0, %115 ], [ %138, %137 ]
  %117 = call i64 @_ZNKSt6vectorIdSaIdEE4sizeEv(%"class.std::vector.0"* @ds) #3
  %118 = icmp ult i64 %.01, %117
  br i1 %118, label %119, label %139

119:                                              ; preds = %116
  %120 = call dereferenceable(16) %"struct.std::complex"* @_ZNSt6vectorISt7complexIdESaIS1_EEixEm(%"class.std::vector"* %7, i64 %.09) #3
  %121 = call dereferenceable(16) %"struct.std::complex"* @_ZNSt6vectorISt7complexIdESaIS1_EEixEm(%"class.std::vector"* @ps, i64 %.01) #3
  %122 = invoke { double, double } @_ZStmiIdESt7complexIT_ERKS2_S4_(%"struct.std::complex"* dereferenceable(16) %120, %"struct.std::complex"* dereferenceable(16) %121)
          to label %123 unwind label %53

123:                                              ; preds = %119
  %124 = getelementptr inbounds %"struct.std::complex", %"struct.std::complex"* %9, i32 0, i32 0
  %125 = getelementptr inbounds { double, double }, { double, double }* %124, i32 0, i32 0
  %126 = extractvalue { double, double } %122, 0
  store double %126, double* %125, align 8
  %127 = getelementptr inbounds { double, double }, { double, double }* %124, i32 0, i32 1
  %128 = extractvalue { double, double } %122, 1
  store double %128, double* %127, align 8
  %129 = invoke double @_ZSt3absIdET_RKSt7complexIS0_E(%"struct.std::complex"* dereferenceable(16) %9)
          to label %130 unwind label %53

130:                                              ; preds = %123
  %131 = call dereferenceable(8) double* @_ZNSt6vectorIdSaIdEEixEm(%"class.std::vector.0"* @ds, i64 %.01) #3
  %132 = load double, double* %131, align 8
  %133 = fsub double %132, 1.000000e-10
  %134 = fcmp olt double %129, %133
  br i1 %134, label %135, label %136

135:                                              ; preds = %130
  br label %139

136:                                              ; preds = %130
  br label %137

137:                                              ; preds = %136
  %138 = add i64 %.01, 1
  br label %116

139:                                              ; preds = %135, %116
  %.02 = phi i8 [ 0, %135 ], [ 1, %116 ]
  %140 = trunc i8 %.02 to i1
  br i1 %140, label %141, label %142

141:                                              ; preds = %139
  br label %147

142:                                              ; preds = %139
  br label %143

143:                                              ; preds = %142, %112, %109, %106, %103
  br label %144

144:                                              ; preds = %143
  %145 = add i64 %.09, 1
  br label %94

146:                                              ; preds = %94
  br label %147

147:                                              ; preds = %146, %141
  %.0 = phi i1 [ true, %141 ], [ false, %146 ]
  call void @_ZNSt6vectorISt7complexIdESaIS1_EED2Ev(%"class.std::vector"* %7) #3
  ret i1 %.0

148:                                              ; preds = %53, %49
  %.04 = phi i32 [ %56, %53 ], [ %52, %49 ]
  %.03 = phi i8* [ %55, %53 ], [ %51, %49 ]
  %149 = insertvalue { i8*, i32 } undef, i8* %.03, 0
  %150 = insertvalue { i8*, i32 } %149, i32 %.04, 1
  resume { i8*, i32 } %150
}

; Function Attrs: noinline nounwind uwtable
define linkonce_odr void @_ZNSt7complexIdEC2Edd(%"struct.std::complex"* %0, double %1, double %2) unnamed_addr #1 comdat align 2 {
  %4 = getelementptr inbounds %"struct.std::complex", %"struct.std::complex"* %0, i32 0, i32 0
  %5 = getelementptr inbounds { double, double }, { double, double }* %4, i32 0, i32 0
  %6 = getelementptr inbounds { double, double }, { double, double }* %4, i32 0, i32 1
  store double %1, double* %5, align 8
  store double %2, double* %6, align 8
  ret void
}

; Function Attrs: noinline nounwind uwtable
define linkonce_odr void @_ZNSaISt7complexIdEEC2Ev(%"class.std::allocator"* %0) unnamed_addr #1 comdat align 2 {
  %2 = bitcast %"class.std::allocator"* %0 to %"class.__gnu_cxx::new_allocator"*
  call void @_ZN9__gnu_cxx13new_allocatorISt7complexIdEEC2Ev(%"class.__gnu_cxx::new_allocator"* %2) #3
  ret void
}

; Function Attrs: noinline uwtable
define linkonce_odr void @_ZNSt6vectorISt7complexIdESaIS1_EEC2IPS1_vEET_S6_RKS2_(%"class.std::vector"* %0, %"struct.std::complex"* %1, %"struct.std::complex"* %2, %"class.std::allocator"* dereferenceable(1) %3) unnamed_addr #0 comdat align 2 personality i8* bitcast (i32 (...)* @__gxx_personality_v0 to i8*) {
  %5 = bitcast %"class.std::vector"* %0 to %"struct.std::_Vector_base"*
  call void @_ZNSt12_Vector_baseISt7complexIdESaIS1_EEC2ERKS2_(%"struct.std::_Vector_base"* %5, %"class.std::allocator"* dereferenceable(1) %3) #3
  invoke void @_ZNSt6vectorISt7complexIdESaIS1_EE22_M_initialize_dispatchIPS1_EEvT_S6_St12__false_type(%"class.std::vector"* %0, %"struct.std::complex"* %1, %"struct.std::complex"* %2)
          to label %6 unwind label %7

6:                                                ; preds = %4
  ret void

7:                                                ; preds = %4
  %8 = landingpad { i8*, i32 }
          cleanup
  %9 = extractvalue { i8*, i32 } %8, 0
  %10 = extractvalue { i8*, i32 } %8, 1
  %11 = bitcast %"class.std::vector"* %0 to %"struct.std::_Vector_base"*
  call void @_ZNSt12_Vector_baseISt7complexIdESaIS1_EED2Ev(%"struct.std::_Vector_base"* %11) #3
  br label %12

12:                                               ; preds = %7
  %13 = insertvalue { i8*, i32 } undef, i8* %9, 0
  %14 = insertvalue { i8*, i32 } %13, i32 %10, 1
  resume { i8*, i32 } %14
}

declare i32 @__gxx_personality_v0(...)

; Function Attrs: noinline nounwind uwtable
define linkonce_odr void @_ZNSaISt7complexIdEED2Ev(%"class.std::allocator"* %0) unnamed_addr #1 comdat align 2 {
  %2 = bitcast %"class.std::allocator"* %0 to %"class.__gnu_cxx::new_allocator"*
  call void @_ZN9__gnu_cxx13new_allocatorISt7complexIdEED2Ev(%"class.__gnu_cxx::new_allocator"* %2) #3
  ret void
}

; Function Attrs: noinline uwtable
define linkonce_odr void @_ZNSt6vectorIdSaIdEE6resizeEm(%"class.std::vector.0"* %0, i64 %1) #0 comdat align 2 {
  %3 = call i64 @_ZNKSt6vectorIdSaIdEE4sizeEv(%"class.std::vector.0"* %0) #3
  %4 = icmp ugt i64 %1, %3
  br i1 %4, label %5, label %8

5:                                                ; preds = %2
  %6 = call i64 @_ZNKSt6vectorIdSaIdEE4sizeEv(%"class.std::vector.0"* %0) #3
  %7 = sub i64 %1, %6
  call void @_ZNSt6vectorIdSaIdEE17_M_default_appendEm(%"class.std::vector.0"* %0, i64 %7)
  br label %18

8:                                                ; preds = %2
  %9 = call i64 @_ZNKSt6vectorIdSaIdEE4sizeEv(%"class.std::vector.0"* %0) #3
  %10 = icmp ult i64 %1, %9
  br i1 %10, label %11, label %17

11:                                               ; preds = %8
  %12 = bitcast %"class.std::vector.0"* %0 to %"struct.std::_Vector_base.1"*
  %13 = getelementptr inbounds %"struct.std::_Vector_base.1", %"struct.std::_Vector_base.1"* %12, i32 0, i32 0
  %14 = getelementptr inbounds %"struct.std::_Vector_base<double, std::allocator<double> >::_Vector_impl", %"struct.std::_Vector_base<double, std::allocator<double> >::_Vector_impl"* %13, i32 0, i32 0
  %15 = load double*, double** %14, align 8
  %16 = getelementptr inbounds double, double* %15, i64 %1
  call void @_ZNSt6vectorIdSaIdEE15_M_erase_at_endEPd(%"class.std::vector.0"* %0, double* %16) #3
  br label %17

17:                                               ; preds = %11, %8
  br label %18

18:                                               ; preds = %17, %5
  ret void
}

; Function Attrs: noinline nounwind uwtable
define linkonce_odr i64 @_ZNKSt6vectorIdSaIdEE4sizeEv(%"class.std::vector.0"* %0) #1 comdat align 2 {
  %2 = bitcast %"class.std::vector.0"* %0 to %"struct.std::_Vector_base.1"*
  %3 = getelementptr inbounds %"struct.std::_Vector_base.1", %"struct.std::_Vector_base.1"* %2, i32 0, i32 0
  %4 = getelementptr inbounds %"struct.std::_Vector_base<double, std::allocator<double> >::_Vector_impl", %"struct.std::_Vector_base<double, std::allocator<double> >::_Vector_impl"* %3, i32 0, i32 1
  %5 = load double*, double** %4, align 8
  %6 = bitcast %"class.std::vector.0"* %0 to %"struct.std::_Vector_base.1"*
  %7 = getelementptr inbounds %"struct.std::_Vector_base.1", %"struct.std::_Vector_base.1"* %6, i32 0, i32 0
  %8 = getelementptr inbounds %"struct.std::_Vector_base<double, std::allocator<double> >::_Vector_impl", %"struct.std::_Vector_base<double, std::allocator<double> >::_Vector_impl"* %7, i32 0, i32 0
  %9 = load double*, double** %8, align 8
  %10 = ptrtoint double* %5 to i64
  %11 = ptrtoint double* %9 to i64
  %12 = sub i64 %10, %11
  %13 = sdiv exact i64 %12, 8
  ret i64 %13
}

; Function Attrs: noinline nounwind uwtable
define linkonce_odr dereferenceable(8) double* @_ZNSt6vectorIdSaIdEEixEm(%"class.std::vector.0"* %0, i64 %1) #1 comdat align 2 {
  %3 = bitcast %"class.std::vector.0"* %0 to %"struct.std::_Vector_base.1"*
  %4 = getelementptr inbounds %"struct.std::_Vector_base.1", %"struct.std::_Vector_base.1"* %3, i32 0, i32 0
  %5 = getelementptr inbounds %"struct.std::_Vector_base<double, std::allocator<double> >::_Vector_impl", %"struct.std::_Vector_base<double, std::allocator<double> >::_Vector_impl"* %4, i32 0, i32 0
  %6 = load double*, double** %5, align 8
  %7 = getelementptr inbounds double, double* %6, i64 %1
  ret double* %7
}

; Function Attrs: noinline nounwind uwtable
define linkonce_odr dereferenceable(16) %"struct.std::complex"* @_ZNSt6vectorISt7complexIdESaIS1_EEixEm(%"class.std::vector"* %0, i64 %1) #1 comdat align 2 {
  %3 = bitcast %"class.std::vector"* %0 to %"struct.std::_Vector_base"*
  %4 = getelementptr inbounds %"struct.std::_Vector_base", %"struct.std::_Vector_base"* %3, i32 0, i32 0
  %5 = getelementptr inbounds %"struct.std::_Vector_base<std::complex<double>, std::allocator<std::complex<double> > >::_Vector_impl", %"struct.std::_Vector_base<std::complex<double>, std::allocator<std::complex<double> > >::_Vector_impl"* %4, i32 0, i32 0
  %6 = load %"struct.std::complex"*, %"struct.std::complex"** %5, align 8
  %7 = getelementptr inbounds %"struct.std::complex", %"struct.std::complex"* %6, i64 %1
  ret %"struct.std::complex"* %7
}

; Function Attrs: noinline nounwind uwtable
define linkonce_odr i64 @_ZNKSt6vectorISt7complexIdESaIS1_EE4sizeEv(%"class.std::vector"* %0) #1 comdat align 2 {
  %2 = bitcast %"class.std::vector"* %0 to %"struct.std::_Vector_base"*
  %3 = getelementptr inbounds %"struct.std::_Vector_base", %"struct.std::_Vector_base"* %2, i32 0, i32 0
  %4 = getelementptr inbounds %"struct.std::_Vector_base<std::complex<double>, std::allocator<std::complex<double> > >::_Vector_impl", %"struct.std::_Vector_base<std::complex<double>, std::allocator<std::complex<double> > >::_Vector_impl"* %3, i32 0, i32 1
  %5 = load %"struct.std::complex"*, %"struct.std::complex"** %4, align 8
  %6 = bitcast %"class.std::vector"* %0 to %"struct.std::_Vector_base"*
  %7 = getelementptr inbounds %"struct.std::_Vector_base", %"struct.std::_Vector_base"* %6, i32 0, i32 0
  %8 = getelementptr inbounds %"struct.std::_Vector_base<std::complex<double>, std::allocator<std::complex<double> > >::_Vector_impl", %"struct.std::_Vector_base<std::complex<double>, std::allocator<std::complex<double> > >::_Vector_impl"* %7, i32 0, i32 0
  %9 = load %"struct.std::complex"*, %"struct.std::complex"** %8, align 8
  %10 = ptrtoint %"struct.std::complex"* %5 to i64
  %11 = ptrtoint %"struct.std::complex"* %9 to i64
  %12 = sub i64 %10, %11
  %13 = sdiv exact i64 %12, 16
  ret i64 %13
}

; Function Attrs: noinline norecurse uwtable
define i32 @main() #4 {
  %1 = alloca i32, align 4
  %2 = alloca double, align 8
  %3 = alloca double, align 8
  %4 = alloca %"struct.std::complex", align 8
  br label %5

5:                                                ; preds = %40, %0
  %6 = call i32 (i8*, ...) @scanf(i8* getelementptr inbounds ([6 x i8], [6 x i8]* @.str, i32 0, i32 0), i32* %1, double* @wl)
  %7 = load i32, i32* %1, align 4
  %8 = icmp ne i32 %7, 0
  br i1 %8, label %9, label %42

9:                                                ; preds = %5
  %10 = load i32, i32* %1, align 4
  %11 = sext i32 %10 to i64
  call void @_ZNSt6vectorISt7complexIdESaIS1_EE6resizeEm(%"class.std::vector"* @ps, i64 %11)
  %12 = load i32, i32* %1, align 4
  %13 = sext i32 %12 to i64
  call void @_ZNSt6vectorIdSaIdEE6resizeEm(%"class.std::vector.0"* @hs, i64 %13)
  br label %14

14:                                               ; preds = %27, %9
  %.01 = phi i32 [ 0, %9 ], [ %28, %27 ]
  %15 = load i32, i32* %1, align 4
  %16 = icmp slt i32 %.01, %15
  br i1 %16, label %17, label %29

17:                                               ; preds = %14
  %18 = sext i32 %.01 to i64
  %19 = call dereferenceable(8) double* @_ZNSt6vectorIdSaIdEEixEm(%"class.std::vector.0"* @hs, i64 %18) #3
  %20 = call i32 (i8*, ...) @scanf(i8* getelementptr inbounds ([10 x i8], [10 x i8]* @.str.3, i32 0, i32 0), double* %2, double* %3, double* %19)
  %21 = load double, double* %2, align 8
  %22 = load double, double* %3, align 8
  call void @_ZNSt7complexIdEC2Edd(%"struct.std::complex"* %4, double %21, double %22)
  %23 = sext i32 %.01 to i64
  %24 = call dereferenceable(16) %"struct.std::complex"* @_ZNSt6vectorISt7complexIdESaIS1_EEixEm(%"class.std::vector"* @ps, i64 %23) #3
  %25 = bitcast %"struct.std::complex"* %24 to i8*
  %26 = bitcast %"struct.std::complex"* %4 to i8*
  call void @llvm.memcpy.p0i8.p0i8.i64(i8* align 8 %25, i8* align 8 %26, i64 16, i1 false)
  br label %27

27:                                               ; preds = %17
  %28 = add nsw i32 %.01, 1
  br label %14

29:                                               ; preds = %14
  br label %30

30:                                               ; preds = %39, %29
  %.03 = phi double [ 2.000000e+02, %29 ], [ %.14, %39 ]
  %.02 = phi double [ 0.000000e+00, %29 ], [ %.1, %39 ]
  %.0 = phi i32 [ 200, %29 ], [ %31, %39 ]
  %31 = add nsw i32 %.0, -1
  %32 = icmp ne i32 %.0, 0
  br i1 %32, label %33, label %40

33:                                               ; preds = %30
  %34 = fadd double %.02, %.03
  %35 = fmul double %34, 5.000000e-01
  %36 = call zeroext i1 @_Z5checkd(double %35)
  br i1 %36, label %37, label %38

37:                                               ; preds = %33
  br label %39

38:                                               ; preds = %33
  br label %39

39:                                               ; preds = %38, %37
  %.14 = phi double [ %.03, %37 ], [ %35, %38 ]
  %.1 = phi double [ %35, %37 ], [ %.02, %38 ]
  br label %30

40:                                               ; preds = %30
  %41 = call i32 (i8*, ...) @printf(i8* getelementptr inbounds ([6 x i8], [6 x i8]* @.str.4, i32 0, i32 0), double %.02)
  br label %5

42:                                               ; preds = %5
  ret i32 0
}

declare i32 @scanf(i8*, ...) #5

; Function Attrs: noinline uwtable
define linkonce_odr void @_ZNSt6vectorISt7complexIdESaIS1_EE6resizeEm(%"class.std::vector"* %0, i64 %1) #0 comdat align 2 {
  %3 = call i64 @_ZNKSt6vectorISt7complexIdESaIS1_EE4sizeEv(%"class.std::vector"* %0) #3
  %4 = icmp ugt i64 %1, %3
  br i1 %4, label %5, label %8

5:                                                ; preds = %2
  %6 = call i64 @_ZNKSt6vectorISt7complexIdESaIS1_EE4sizeEv(%"class.std::vector"* %0) #3
  %7 = sub i64 %1, %6
  call void @_ZNSt6vectorISt7complexIdESaIS1_EE17_M_default_appendEm(%"class.std::vector"* %0, i64 %7)
  br label %18

8:                                                ; preds = %2
  %9 = call i64 @_ZNKSt6vectorISt7complexIdESaIS1_EE4sizeEv(%"class.std::vector"* %0) #3
  %10 = icmp ult i64 %1, %9
  br i1 %10, label %11, label %17

11:                                               ; preds = %8
  %12 = bitcast %"class.std::vector"* %0 to %"struct.std::_Vector_base"*
  %13 = getelementptr inbounds %"struct.std::_Vector_base", %"struct.std::_Vector_base"* %12, i32 0, i32 0
  %14 = getelementptr inbounds %"struct.std::_Vector_base<std::complex<double>, std::allocator<std::complex<double> > >::_Vector_impl", %"struct.std::_Vector_base<std::complex<double>, std::allocator<std::complex<double> > >::_Vector_impl"* %13, i32 0, i32 0
  %15 = load %"struct.std::complex"*, %"struct.std::complex"** %14, align 8
  %16 = getelementptr inbounds %"struct.std::complex", %"struct.std::complex"* %15, i64 %1
  call void @_ZNSt6vectorISt7complexIdESaIS1_EE15_M_erase_at_endEPS1_(%"class.std::vector"* %0, %"struct.std::complex"* %16) #3
  br label %17

17:                                               ; preds = %11, %8
  br label %18

18:                                               ; preds = %17, %5
  ret void
}

declare i32 @printf(i8*, ...) #5

; Function Attrs: noinline nounwind uwtable
define linkonce_odr double @_ZNKSt7complexIdE4realB5cxx11Ev(%"struct.std::complex"* %0) #1 comdat align 2 {
  %2 = getelementptr inbounds %"struct.std::complex", %"struct.std::complex"* %0, i32 0, i32 0
  %3 = getelementptr inbounds { double, double }, { double, double }* %2, i32 0, i32 0
  %4 = load double, double* %3, align 8
  ret double %4
}

; Function Attrs: noinline nounwind uwtable
define linkonce_odr double @_ZNKSt7complexIdE4imagB5cxx11Ev(%"struct.std::complex"* %0) #1 comdat align 2 {
  %2 = getelementptr inbounds %"struct.std::complex", %"struct.std::complex"* %0, i32 0, i32 0
  %3 = getelementptr inbounds { double, double }, { double, double }* %2, i32 0, i32 1
  %4 = load double, double* %3, align 8
  ret double %4
}

; Function Attrs: nocallback nofree nosync nounwind readnone speculatable willreturn
declare double @llvm.fabs.f64(double) #6

; Function Attrs: noinline nounwind uwtable
define linkonce_odr dereferenceable(16) %"struct.std::complex"* @_ZNSt7complexIdEmIIdEERS0_RKS_IT_E(%"struct.std::complex"* %0, %"struct.std::complex"* dereferenceable(16) %1) #1 comdat align 2 {
  %3 = call double @_ZNKSt7complexIdE4realB5cxx11Ev(%"struct.std::complex"* %1)
  %4 = getelementptr inbounds %"struct.std::complex", %"struct.std::complex"* %0, i32 0, i32 0
  %5 = getelementptr inbounds { double, double }, { double, double }* %4, i32 0, i32 0
  %6 = load double, double* %5, align 8
  %7 = fsub double %6, %3
  store double %7, double* %5, align 8
  %8 = call double @_ZNKSt7complexIdE4imagB5cxx11Ev(%"struct.std::complex"* %1)
  %9 = getelementptr inbounds %"struct.std::complex", %"struct.std::complex"* %0, i32 0, i32 0
  %10 = getelementptr inbounds { double, double }, { double, double }* %9, i32 0, i32 1
  %11 = load double, double* %10, align 8
  %12 = fsub double %11, %8
  store double %12, double* %10, align 8
  ret %"struct.std::complex"* %0
}

; Function Attrs: noinline nounwind uwtable
define linkonce_odr double @_ZSt13__complex_absCd(double %0, double %1) #1 comdat {
  %3 = alloca { double, double }, align 8
  %4 = alloca { double, double }, align 8
  %5 = getelementptr inbounds { double, double }, { double, double }* %3, i32 0, i32 0
  store double %0, double* %5, align 8
  %6 = getelementptr inbounds { double, double }, { double, double }* %3, i32 0, i32 1
  store double %1, double* %6, align 8
  %7 = getelementptr inbounds { double, double }, { double, double }* %3, i32 0, i32 0
  %8 = load double, double* %7, align 8
  %9 = getelementptr inbounds { double, double }, { double, double }* %3, i32 0, i32 1
  %10 = load double, double* %9, align 8
  %11 = getelementptr inbounds { double, double }, { double, double }* %4, i32 0, i32 0
  %12 = getelementptr inbounds { double, double }, { double, double }* %4, i32 0, i32 1
  store double %8, double* %11, align 8
  store double %10, double* %12, align 8
  %13 = getelementptr inbounds { double, double }, { double, double }* %4, i32 0, i32 0
  %14 = load double, double* %13, align 8
  %15 = getelementptr inbounds { double, double }, { double, double }* %4, i32 0, i32 1
  %16 = load double, double* %15, align 8
  %17 = call double @cabs(double %14, double %16) #3
  ret double %17
}

; Function Attrs: noinline nounwind uwtable
define linkonce_odr { double, double } @_ZNKSt7complexIdE5__repEv(%"struct.std::complex"* %0) #1 comdat align 2 {
  %2 = alloca { double, double }, align 8
  %3 = getelementptr inbounds %"struct.std::complex", %"struct.std::complex"* %0, i32 0, i32 0
  %4 = getelementptr inbounds { double, double }, { double, double }* %3, i32 0, i32 0
  %5 = load double, double* %4, align 8
  %6 = getelementptr inbounds { double, double }, { double, double }* %3, i32 0, i32 1
  %7 = load double, double* %6, align 8
  %8 = getelementptr inbounds { double, double }, { double, double }* %2, i32 0, i32 0
  %9 = getelementptr inbounds { double, double }, { double, double }* %2, i32 0, i32 1
  store double %5, double* %8, align 8
  store double %7, double* %9, align 8
  %10 = load { double, double }, { double, double }* %2, align 8
  ret { double, double } %10
}

; Function Attrs: nounwind
declare double @cabs(double, double) #2

; Function Attrs: noinline nounwind uwtable
define linkonce_odr double @_ZSt13__complex_argCd(double %0, double %1) #1 comdat {
  %3 = alloca { double, double }, align 8
  %4 = alloca { double, double }, align 8
  %5 = getelementptr inbounds { double, double }, { double, double }* %3, i32 0, i32 0
  store double %0, double* %5, align 8
  %6 = getelementptr inbounds { double, double }, { double, double }* %3, i32 0, i32 1
  store double %1, double* %6, align 8
  %7 = getelementptr inbounds { double, double }, { double, double }* %3, i32 0, i32 0
  %8 = load double, double* %7, align 8
  %9 = getelementptr inbounds { double, double }, { double, double }* %3, i32 0, i32 1
  %10 = load double, double* %9, align 8
  %11 = getelementptr inbounds { double, double }, { double, double }* %4, i32 0, i32 0
  %12 = getelementptr inbounds { double, double }, { double, double }* %4, i32 0, i32 1
  store double %8, double* %11, align 8
  store double %10, double* %12, align 8
  %13 = getelementptr inbounds { double, double }, { double, double }* %4, i32 0, i32 0
  %14 = load double, double* %13, align 8
  %15 = getelementptr inbounds { double, double }, { double, double }* %4, i32 0, i32 1
  %16 = load double, double* %15, align 8
  %17 = call double @carg(double %14, double %16) #3
  ret double %17
}

; Function Attrs: nounwind
declare double @carg(double, double) #2

; Function Attrs: nounwind
declare double @sin(double) #2

; Function Attrs: noinline nounwind uwtable
define linkonce_odr dereferenceable(16) %"struct.std::complex"* @_ZNSt7complexIdEpLIdEERS0_RKS_IT_E(%"struct.std::complex"* %0, %"struct.std::complex"* dereferenceable(16) %1) #1 comdat align 2 {
  %3 = call double @_ZNKSt7complexIdE4realB5cxx11Ev(%"struct.std::complex"* %1)
  %4 = getelementptr inbounds %"struct.std::complex", %"struct.std::complex"* %0, i32 0, i32 0
  %5 = getelementptr inbounds { double, double }, { double, double }* %4, i32 0, i32 0
  %6 = load double, double* %5, align 8
  %7 = fadd double %6, %3
  store double %7, double* %5, align 8
  %8 = call double @_ZNKSt7complexIdE4imagB5cxx11Ev(%"struct.std::complex"* %1)
  %9 = getelementptr inbounds %"struct.std::complex", %"struct.std::complex"* %0, i32 0, i32 0
  %10 = getelementptr inbounds { double, double }, { double, double }* %9, i32 0, i32 1
  %11 = load double, double* %10, align 8
  %12 = fadd double %11, %8
  store double %12, double* %10, align 8
  ret %"struct.std::complex"* %0
}

; Function Attrs: noinline uwtable
define linkonce_odr void @_ZNSt6vectorISt7complexIdESaIS1_EE12emplace_backIJS1_EEEvDpOT_(%"class.std::vector"* %0, %"struct.std::complex"* dereferenceable(16) %1) #0 comdat align 2 {
  %3 = alloca %"class.__gnu_cxx::__normal_iterator", align 8
  %4 = bitcast %"class.std::vector"* %0 to %"struct.std::_Vector_base"*
  %5 = getelementptr inbounds %"struct.std::_Vector_base", %"struct.std::_Vector_base"* %4, i32 0, i32 0
  %6 = getelementptr inbounds %"struct.std::_Vector_base<std::complex<double>, std::allocator<std::complex<double> > >::_Vector_impl", %"struct.std::_Vector_base<std::complex<double>, std::allocator<std::complex<double> > >::_Vector_impl"* %5, i32 0, i32 1
  %7 = load %"struct.std::complex"*, %"struct.std::complex"** %6, align 8
  %8 = bitcast %"class.std::vector"* %0 to %"struct.std::_Vector_base"*
  %9 = getelementptr inbounds %"struct.std::_Vector_base", %"struct.std::_Vector_base"* %8, i32 0, i32 0
  %10 = getelementptr inbounds %"struct.std::_Vector_base<std::complex<double>, std::allocator<std::complex<double> > >::_Vector_impl", %"struct.std::_Vector_base<std::complex<double>, std::allocator<std::complex<double> > >::_Vector_impl"* %9, i32 0, i32 2
  %11 = load %"struct.std::complex"*, %"struct.std::complex"** %10, align 8
  %12 = icmp ne %"struct.std::complex"* %7, %11
  br i1 %12, label %13, label %27

13:                                               ; preds = %2
  %14 = bitcast %"class.std::vector"* %0 to %"struct.std::_Vector_base"*
  %15 = getelementptr inbounds %"struct.std::_Vector_base", %"struct.std::_Vector_base"* %14, i32 0, i32 0
  %16 = bitcast %"struct.std::_Vector_base<std::complex<double>, std::allocator<std::complex<double> > >::_Vector_impl"* %15 to %"class.std::allocator"*
  %17 = bitcast %"class.std::vector"* %0 to %"struct.std::_Vector_base"*
  %18 = getelementptr inbounds %"struct.std::_Vector_base", %"struct.std::_Vector_base"* %17, i32 0, i32 0
  %19 = getelementptr inbounds %"struct.std::_Vector_base<std::complex<double>, std::allocator<std::complex<double> > >::_Vector_impl", %"struct.std::_Vector_base<std::complex<double>, std::allocator<std::complex<double> > >::_Vector_impl"* %18, i32 0, i32 1
  %20 = load %"struct.std::complex"*, %"struct.std::complex"** %19, align 8
  %21 = call dereferenceable(16) %"struct.std::complex"* @_ZSt7forwardISt7complexIdEEOT_RNSt16remove_referenceIS2_E4typeE(%"struct.std::complex"* dereferenceable(16) %1) #3
  call void @_ZNSt16allocator_traitsISaISt7complexIdEEE9constructIS1_JS1_EEEvRS2_PT_DpOT0_(%"class.std::allocator"* dereferenceable(1) %16, %"struct.std::complex"* %20, %"struct.std::complex"* dereferenceable(16) %21)
  %22 = bitcast %"class.std::vector"* %0 to %"struct.std::_Vector_base"*
  %23 = getelementptr inbounds %"struct.std::_Vector_base", %"struct.std::_Vector_base"* %22, i32 0, i32 0
  %24 = getelementptr inbounds %"struct.std::_Vector_base<std::complex<double>, std::allocator<std::complex<double> > >::_Vector_impl", %"struct.std::_Vector_base<std::complex<double>, std::allocator<std::complex<double> > >::_Vector_impl"* %23, i32 0, i32 1
  %25 = load %"struct.std::complex"*, %"struct.std::complex"** %24, align 8
  %26 = getelementptr inbounds %"struct.std::complex", %"struct.std::complex"* %25, i32 1
  store %"struct.std::complex"* %26, %"struct.std::complex"** %24, align 8
  br label %33

27:                                               ; preds = %2
  %28 = call %"struct.std::complex"* @_ZNSt6vectorISt7complexIdESaIS1_EE3endEv(%"class.std::vector"* %0) #3
  %29 = getelementptr inbounds %"class.__gnu_cxx::__normal_iterator", %"class.__gnu_cxx::__normal_iterator"* %3, i32 0, i32 0
  store %"struct.std::complex"* %28, %"struct.std::complex"** %29, align 8
  %30 = call dereferenceable(16) %"struct.std::complex"* @_ZSt7forwardISt7complexIdEEOT_RNSt16remove_referenceIS2_E4typeE(%"struct.std::complex"* dereferenceable(16) %1) #3
  %31 = getelementptr inbounds %"class.__gnu_cxx::__normal_iterator", %"class.__gnu_cxx::__normal_iterator"* %3, i32 0, i32 0
  %32 = load %"struct.std::complex"*, %"struct.std::complex"** %31, align 8
  call void @_ZNSt6vectorISt7complexIdESaIS1_EE17_M_realloc_insertIJS1_EEEvN9__gnu_cxx17__normal_iteratorIPS1_S3_EEDpOT_(%"class.std::vector"* %0, %"struct.std::complex"* %32, %"struct.std::complex"* dereferenceable(16) %30)
  br label %33

33:                                               ; preds = %27, %13
  ret void
}

; Function Attrs: noinline nounwind uwtable
define linkonce_odr dereferenceable(16) %"struct.std::complex"* @_ZSt4moveIRSt7complexIdEEONSt16remove_referenceIT_E4typeEOS4_(%"struct.std::complex"* dereferenceable(16) %0) #1 comdat {
  ret %"struct.std::complex"* %0
}

; Function Attrs: noinline uwtable
define linkonce_odr void @_ZNSt16allocator_traitsISaISt7complexIdEEE9constructIS1_JS1_EEEvRS2_PT_DpOT0_(%"class.std::allocator"* dereferenceable(1) %0, %"struct.std::complex"* %1, %"struct.std::complex"* dereferenceable(16) %2) #0 comdat align 2 {
  %4 = bitcast %"class.std::allocator"* %0 to %"class.__gnu_cxx::new_allocator"*
  %5 = call dereferenceable(16) %"struct.std::complex"* @_ZSt7forwardISt7complexIdEEOT_RNSt16remove_referenceIS2_E4typeE(%"struct.std::complex"* dereferenceable(16) %2) #3
  call void @_ZN9__gnu_cxx13new_allocatorISt7complexIdEE9constructIS2_JS2_EEEvPT_DpOT0_(%"class.__gnu_cxx::new_allocator"* %4, %"struct.std::complex"* %1, %"struct.std::complex"* dereferenceable(16) %5)
  ret void
}

; Function Attrs: noinline nounwind uwtable
define linkonce_odr dereferenceable(16) %"struct.std::complex"* @_ZSt7forwardISt7complexIdEEOT_RNSt16remove_referenceIS2_E4typeE(%"struct.std::complex"* dereferenceable(16) %0) #1 comdat {
  ret %"struct.std::complex"* %0
}

; Function Attrs: noinline uwtable
define linkonce_odr void @_ZNSt6vectorISt7complexIdESaIS1_EE17_M_realloc_insertIJS1_EEEvN9__gnu_cxx17__normal_iteratorIPS1_S3_EEDpOT_(%"class.std::vector"* %0, %"struct.std::complex"* %1, %"struct.std::complex"* dereferenceable(16) %2) #0 comdat align 2 personality i8* bitcast (i32 (...)* @__gxx_personality_v0 to i8*) {
  %4 = alloca %"class.__gnu_cxx::__normal_iterator", align 8
  %5 = alloca %"class.__gnu_cxx::__normal_iterator", align 8
  %6 = getelementptr inbounds %"class.__gnu_cxx::__normal_iterator", %"class.__gnu_cxx::__normal_iterator"* %4, i32 0, i32 0
  store %"struct.std::complex"* %1, %"struct.std::complex"** %6, align 8
  %7 = call i64 @_ZNKSt6vectorISt7complexIdESaIS1_EE12_M_check_lenEmPKc(%"class.std::vector"* %0, i64 1, i8* getelementptr inbounds ([26 x i8], [26 x i8]* @.str.5, i32 0, i32 0))
  %8 = bitcast %"class.std::vector"* %0 to %"struct.std::_Vector_base"*
  %9 = getelementptr inbounds %"struct.std::_Vector_base", %"struct.std::_Vector_base"* %8, i32 0, i32 0
  %10 = getelementptr inbounds %"struct.std::_Vector_base<std::complex<double>, std::allocator<std::complex<double> > >::_Vector_impl", %"struct.std::_Vector_base<std::complex<double>, std::allocator<std::complex<double> > >::_Vector_impl"* %9, i32 0, i32 0
  %11 = load %"struct.std::complex"*, %"struct.std::complex"** %10, align 8
  %12 = bitcast %"class.std::vector"* %0 to %"struct.std::_Vector_base"*
  %13 = getelementptr inbounds %"struct.std::_Vector_base", %"struct.std::_Vector_base"* %12, i32 0, i32 0
  %14 = getelementptr inbounds %"struct.std::_Vector_base<std::complex<double>, std::allocator<std::complex<double> > >::_Vector_impl", %"struct.std::_Vector_base<std::complex<double>, std::allocator<std::complex<double> > >::_Vector_impl"* %13, i32 0, i32 1
  %15 = load %"struct.std::complex"*, %"struct.std::complex"** %14, align 8
  %16 = call %"struct.std::complex"* @_ZNSt6vectorISt7complexIdESaIS1_EE5beginEv(%"class.std::vector"* %0) #3
  %17 = getelementptr inbounds %"class.__gnu_cxx::__normal_iterator", %"class.__gnu_cxx::__normal_iterator"* %5, i32 0, i32 0
  store %"struct.std::complex"* %16, %"struct.std::complex"** %17, align 8
  %18 = call i64 @_ZN9__gnu_cxxmiIPSt7complexIdESt6vectorIS2_SaIS2_EEEENS_17__normal_iteratorIT_T0_E15difference_typeERKSA_SD_(%"class.__gnu_cxx::__normal_iterator"* dereferenceable(8) %4, %"class.__gnu_cxx::__normal_iterator"* dereferenceable(8) %5) #3
  %19 = bitcast %"class.std::vector"* %0 to %"struct.std::_Vector_base"*
  %20 = call %"struct.std::complex"* @_ZNSt12_Vector_baseISt7complexIdESaIS1_EE11_M_allocateEm(%"struct.std::_Vector_base"* %19, i64 %7)
  %21 = bitcast %"class.std::vector"* %0 to %"struct.std::_Vector_base"*
  %22 = getelementptr inbounds %"struct.std::_Vector_base", %"struct.std::_Vector_base"* %21, i32 0, i32 0
  %23 = bitcast %"struct.std::_Vector_base<std::complex<double>, std::allocator<std::complex<double> > >::_Vector_impl"* %22 to %"class.std::allocator"*
  %24 = getelementptr inbounds %"struct.std::complex", %"struct.std::complex"* %20, i64 %18
  %25 = call dereferenceable(16) %"struct.std::complex"* @_ZSt7forwardISt7complexIdEEOT_RNSt16remove_referenceIS2_E4typeE(%"struct.std::complex"* dereferenceable(16) %2) #3
  invoke void @_ZNSt16allocator_traitsISaISt7complexIdEEE9constructIS1_JS1_EEEvRS2_PT_DpOT0_(%"class.std::allocator"* dereferenceable(1) %23, %"struct.std::complex"* %24, %"struct.std::complex"* dereferenceable(16) %25)
          to label %26 unwind label %40

26:                                               ; preds = %3
  %27 = call dereferenceable(8) %"struct.std::complex"** @_ZNK9__gnu_cxx17__normal_iteratorIPSt7complexIdESt6vectorIS2_SaIS2_EEE4baseEv(%"class.__gnu_cxx::__normal_iterator"* %4) #3
  %28 = load %"struct.std::complex"*, %"struct.std::complex"** %27, align 8
  %29 = bitcast %"class.std::vector"* %0 to %"struct.std::_Vector_base"*
  %30 = call dereferenceable(1) %"class.std::allocator"* @_ZNSt12_Vector_baseISt7complexIdESaIS1_EE19_M_get_Tp_allocatorEv(%"struct.std::_Vector_base"* %29) #3
  %31 = invoke %"struct.std::complex"* @_ZSt34__uninitialized_move_if_noexcept_aIPSt7complexIdES2_SaIS1_EET0_T_S5_S4_RT1_(%"struct.std::complex"* %11, %"struct.std::complex"* %28, %"struct.std::complex"* %20, %"class.std::allocator"* dereferenceable(1) %30)
          to label %32 unwind label %40

32:                                               ; preds = %26
  %33 = getelementptr inbounds %"struct.std::complex", %"struct.std::complex"* %31, i32 1
  %34 = call dereferenceable(8) %"struct.std::complex"** @_ZNK9__gnu_cxx17__normal_iteratorIPSt7complexIdESt6vectorIS2_SaIS2_EEE4baseEv(%"class.__gnu_cxx::__normal_iterator"* %4) #3
  %35 = load %"struct.std::complex"*, %"struct.std::complex"** %34, align 8
  %36 = bitcast %"class.std::vector"* %0 to %"struct.std::_Vector_base"*
  %37 = call dereferenceable(1) %"class.std::allocator"* @_ZNSt12_Vector_baseISt7complexIdESaIS1_EE19_M_get_Tp_allocatorEv(%"struct.std::_Vector_base"* %36) #3
  %38 = invoke %"struct.std::complex"* @_ZSt34__uninitialized_move_if_noexcept_aIPSt7complexIdES2_SaIS1_EET0_T_S5_S4_RT1_(%"struct.std::complex"* %35, %"struct.std::complex"* %15, %"struct.std::complex"* %33, %"class.std::allocator"* dereferenceable(1) %37)
          to label %39 unwind label %40

39:                                               ; preds = %32
  br label %65

40:                                               ; preds = %32, %26, %3
  %.0 = phi %"struct.std::complex"* [ %33, %32 ], [ null, %26 ], [ %20, %3 ]
  %41 = landingpad { i8*, i32 }
          catch i8* null
  %42 = extractvalue { i8*, i32 } %41, 0
  %43 = extractvalue { i8*, i32 } %41, 1
  br label %44

44:                                               ; preds = %40
  %45 = call i8* @__cxa_begin_catch(i8* %42) #3
  %46 = icmp ne %"struct.std::complex"* %.0, null
  br i1 %46, label %57, label %47

47:                                               ; preds = %44
  %48 = bitcast %"class.std::vector"* %0 to %"struct.std::_Vector_base"*
  %49 = getelementptr inbounds %"struct.std::_Vector_base", %"struct.std::_Vector_base"* %48, i32 0, i32 0
  %50 = bitcast %"struct.std::_Vector_base<std::complex<double>, std::allocator<std::complex<double> > >::_Vector_impl"* %49 to %"class.std::allocator"*
  %51 = getelementptr inbounds %"struct.std::complex", %"struct.std::complex"* %20, i64 %18
  invoke void @_ZNSt16allocator_traitsISaISt7complexIdEEE7destroyIS1_EEvRS2_PT_(%"class.std::allocator"* dereferenceable(1) %50, %"struct.std::complex"* %51)
          to label %52 unwind label %53

52:                                               ; preds = %47
  br label %61

53:                                               ; preds = %63, %61, %57, %47
  %54 = landingpad { i8*, i32 }
          cleanup
  %55 = extractvalue { i8*, i32 } %54, 0
  %56 = extractvalue { i8*, i32 } %54, 1
  invoke void @__cxa_end_catch()
          to label %64 unwind label %90

57:                                               ; preds = %44
  %58 = bitcast %"class.std::vector"* %0 to %"struct.std::_Vector_base"*
  %59 = call dereferenceable(1) %"class.std::allocator"* @_ZNSt12_Vector_baseISt7complexIdESaIS1_EE19_M_get_Tp_allocatorEv(%"struct.std::_Vector_base"* %58) #3
  invoke void @_ZSt8_DestroyIPSt7complexIdES1_EvT_S3_RSaIT0_E(%"struct.std::complex"* %20, %"struct.std::complex"* %.0, %"class.std::allocator"* dereferenceable(1) %59)
          to label %60 unwind label %53

60:                                               ; preds = %57
  br label %61

61:                                               ; preds = %60, %52
  %62 = bitcast %"class.std::vector"* %0 to %"struct.std::_Vector_base"*
  invoke void @_ZNSt12_Vector_baseISt7complexIdESaIS1_EE13_M_deallocateEPS1_m(%"struct.std::_Vector_base"* %62, %"struct.std::complex"* %20, i64 %7)
          to label %63 unwind label %53

63:                                               ; preds = %61
  invoke void @__cxa_rethrow() #14
          to label %93 unwind label %53

64:                                               ; preds = %53
  br label %87

65:                                               ; preds = %39
  %66 = bitcast %"class.std::vector"* %0 to %"struct.std::_Vector_base"*
  %67 = call dereferenceable(1) %"class.std::allocator"* @_ZNSt12_Vector_baseISt7complexIdESaIS1_EE19_M_get_Tp_allocatorEv(%"struct.std::_Vector_base"* %66) #3
  call void @_ZSt8_DestroyIPSt7complexIdES1_EvT_S3_RSaIT0_E(%"struct.std::complex"* %11, %"struct.std::complex"* %15, %"class.std::allocator"* dereferenceable(1) %67)
  %68 = bitcast %"class.std::vector"* %0 to %"struct.std::_Vector_base"*
  %69 = bitcast %"class.std::vector"* %0 to %"struct.std::_Vector_base"*
  %70 = getelementptr inbounds %"struct.std::_Vector_base", %"struct.std::_Vector_base"* %69, i32 0, i32 0
  %71 = getelementptr inbounds %"struct.std::_Vector_base<std::complex<double>, std::allocator<std::complex<double> > >::_Vector_impl", %"struct.std::_Vector_base<std::complex<double>, std::allocator<std::complex<double> > >::_Vector_impl"* %70, i32 0, i32 2
  %72 = load %"struct.std::complex"*, %"struct.std::complex"** %71, align 8
  %73 = ptrtoint %"struct.std::complex"* %72 to i64
  %74 = ptrtoint %"struct.std::complex"* %11 to i64
  %75 = sub i64 %73, %74
  %76 = sdiv exact i64 %75, 16
  call void @_ZNSt12_Vector_baseISt7complexIdESaIS1_EE13_M_deallocateEPS1_m(%"struct.std::_Vector_base"* %68, %"struct.std::complex"* %11, i64 %76)
  %77 = bitcast %"class.std::vector"* %0 to %"struct.std::_Vector_base"*
  %78 = getelementptr inbounds %"struct.std::_Vector_base", %"struct.std::_Vector_base"* %77, i32 0, i32 0
  %79 = getelementptr inbounds %"struct.std::_Vector_base<std::complex<double>, std::allocator<std::complex<double> > >::_Vector_impl", %"struct.std::_Vector_base<std::complex<double>, std::allocator<std::complex<double> > >::_Vector_impl"* %78, i32 0, i32 0
  store %"struct.std::complex"* %20, %"struct.std::complex"** %79, align 8
  %80 = bitcast %"class.std::vector"* %0 to %"struct.std::_Vector_base"*
  %81 = getelementptr inbounds %"struct.std::_Vector_base", %"struct.std::_Vector_base"* %80, i32 0, i32 0
  %82 = getelementptr inbounds %"struct.std::_Vector_base<std::complex<double>, std::allocator<std::complex<double> > >::_Vector_impl", %"struct.std::_Vector_base<std::complex<double>, std::allocator<std::complex<double> > >::_Vector_impl"* %81, i32 0, i32 1
  store %"struct.std::complex"* %38, %"struct.std::complex"** %82, align 8
  %83 = getelementptr inbounds %"struct.std::complex", %"struct.std::complex"* %20, i64 %7
  %84 = bitcast %"class.std::vector"* %0 to %"struct.std::_Vector_base"*
  %85 = getelementptr inbounds %"struct.std::_Vector_base", %"struct.std::_Vector_base"* %84, i32 0, i32 0
  %86 = getelementptr inbounds %"struct.std::_Vector_base<std::complex<double>, std::allocator<std::complex<double> > >::_Vector_impl", %"struct.std::_Vector_base<std::complex<double>, std::allocator<std::complex<double> > >::_Vector_impl"* %85, i32 0, i32 2
  store %"struct.std::complex"* %83, %"struct.std::complex"** %86, align 8
  ret void

87:                                               ; preds = %64
  %88 = insertvalue { i8*, i32 } undef, i8* %55, 0
  %89 = insertvalue { i8*, i32 } %88, i32 %56, 1
  resume { i8*, i32 } %89

90:                                               ; preds = %53
  %91 = landingpad { i8*, i32 }
          catch i8* null
  %92 = extractvalue { i8*, i32 } %91, 0
  call void @__clang_call_terminate(i8* %92) #13
  unreachable

93:                                               ; preds = %63
  unreachable
}

; Function Attrs: noinline nounwind uwtable
define linkonce_odr %"struct.std::complex"* @_ZNSt6vectorISt7complexIdESaIS1_EE3endEv(%"class.std::vector"* %0) #1 comdat align 2 {
  %2 = alloca %"class.__gnu_cxx::__normal_iterator", align 8
  %3 = bitcast %"class.std::vector"* %0 to %"struct.std::_Vector_base"*
  %4 = getelementptr inbounds %"struct.std::_Vector_base", %"struct.std::_Vector_base"* %3, i32 0, i32 0
  %5 = getelementptr inbounds %"struct.std::_Vector_base<std::complex<double>, std::allocator<std::complex<double> > >::_Vector_impl", %"struct.std::_Vector_base<std::complex<double>, std::allocator<std::complex<double> > >::_Vector_impl"* %4, i32 0, i32 1
  call void @_ZN9__gnu_cxx17__normal_iteratorIPSt7complexIdESt6vectorIS2_SaIS2_EEEC2ERKS3_(%"class.__gnu_cxx::__normal_iterator"* %2, %"struct.std::complex"** dereferenceable(8) %5) #3
  %6 = getelementptr inbounds %"class.__gnu_cxx::__normal_iterator", %"class.__gnu_cxx::__normal_iterator"* %2, i32 0, i32 0
  %7 = load %"struct.std::complex"*, %"struct.std::complex"** %6, align 8
  ret %"struct.std::complex"* %7
}

; Function Attrs: noinline nounwind uwtable
define linkonce_odr void @_ZN9__gnu_cxx13new_allocatorISt7complexIdEE9constructIS2_JS2_EEEvPT_DpOT0_(%"class.__gnu_cxx::new_allocator"* %0, %"struct.std::complex"* %1, %"struct.std::complex"* dereferenceable(16) %2) #1 comdat align 2 {
  %4 = bitcast %"struct.std::complex"* %1 to i8*
  %5 = bitcast i8* %4 to %"struct.std::complex"*
  %6 = call dereferenceable(16) %"struct.std::complex"* @_ZSt7forwardISt7complexIdEEOT_RNSt16remove_referenceIS2_E4typeE(%"struct.std::complex"* dereferenceable(16) %2) #3
  %7 = bitcast %"struct.std::complex"* %5 to i8*
  %8 = bitcast %"struct.std::complex"* %6 to i8*
  call void @llvm.memcpy.p0i8.p0i8.i64(i8* align 8 %7, i8* align 8 %8, i64 16, i1 false)
  ret void
}

; Function Attrs: noinline uwtable
define linkonce_odr i64 @_ZNKSt6vectorISt7complexIdESaIS1_EE12_M_check_lenEmPKc(%"class.std::vector"* %0, i64 %1, i8* %2) #0 comdat align 2 {
  %4 = alloca i64, align 8
  %5 = alloca i64, align 8
  store i64 %1, i64* %4, align 8
  %6 = call i64 @_ZNKSt6vectorISt7complexIdESaIS1_EE8max_sizeEv(%"class.std::vector"* %0) #3
  %7 = call i64 @_ZNKSt6vectorISt7complexIdESaIS1_EE4sizeEv(%"class.std::vector"* %0) #3
  %8 = sub i64 %6, %7
  %9 = load i64, i64* %4, align 8
  %10 = icmp ult i64 %8, %9
  br i1 %10, label %11, label %12

11:                                               ; preds = %3
  call void @_ZSt20__throw_length_errorPKc(i8* %2) #14
  unreachable

12:                                               ; preds = %3
  %13 = call i64 @_ZNKSt6vectorISt7complexIdESaIS1_EE4sizeEv(%"class.std::vector"* %0) #3
  %14 = call i64 @_ZNKSt6vectorISt7complexIdESaIS1_EE4sizeEv(%"class.std::vector"* %0) #3
  store i64 %14, i64* %5, align 8
  %15 = call dereferenceable(8) i64* @_ZSt3maxImERKT_S2_S2_(i64* dereferenceable(8) %5, i64* dereferenceable(8) %4)
  %16 = load i64, i64* %15, align 8
  %17 = add i64 %13, %16
  %18 = call i64 @_ZNKSt6vectorISt7complexIdESaIS1_EE4sizeEv(%"class.std::vector"* %0) #3
  %19 = icmp ult i64 %17, %18
  br i1 %19, label %23, label %20

20:                                               ; preds = %12
  %21 = call i64 @_ZNKSt6vectorISt7complexIdESaIS1_EE8max_sizeEv(%"class.std::vector"* %0) #3
  %22 = icmp ugt i64 %17, %21
  br i1 %22, label %23, label %25

23:                                               ; preds = %20, %12
  %24 = call i64 @_ZNKSt6vectorISt7complexIdESaIS1_EE8max_sizeEv(%"class.std::vector"* %0) #3
  br label %26

25:                                               ; preds = %20
  br label %26

26:                                               ; preds = %25, %23
  %27 = phi i64 [ %24, %23 ], [ %17, %25 ]
  ret i64 %27
}

; Function Attrs: noinline nounwind uwtable
define linkonce_odr i64 @_ZN9__gnu_cxxmiIPSt7complexIdESt6vectorIS2_SaIS2_EEEENS_17__normal_iteratorIT_T0_E15difference_typeERKSA_SD_(%"class.__gnu_cxx::__normal_iterator"* dereferenceable(8) %0, %"class.__gnu_cxx::__normal_iterator"* dereferenceable(8) %1) #1 comdat {
  %3 = call dereferenceable(8) %"struct.std::complex"** @_ZNK9__gnu_cxx17__normal_iteratorIPSt7complexIdESt6vectorIS2_SaIS2_EEE4baseEv(%"class.__gnu_cxx::__normal_iterator"* %0) #3
  %4 = load %"struct.std::complex"*, %"struct.std::complex"** %3, align 8
  %5 = call dereferenceable(8) %"struct.std::complex"** @_ZNK9__gnu_cxx17__normal_iteratorIPSt7complexIdESt6vectorIS2_SaIS2_EEE4baseEv(%"class.__gnu_cxx::__normal_iterator"* %1) #3
  %6 = load %"struct.std::complex"*, %"struct.std::complex"** %5, align 8
  %7 = ptrtoint %"struct.std::complex"* %4 to i64
  %8 = ptrtoint %"struct.std::complex"* %6 to i64
  %9 = sub i64 %7, %8
  %10 = sdiv exact i64 %9, 16
  ret i64 %10
}

; Function Attrs: noinline nounwind uwtable
define linkonce_odr %"struct.std::complex"* @_ZNSt6vectorISt7complexIdESaIS1_EE5beginEv(%"class.std::vector"* %0) #1 comdat align 2 {
  %2 = alloca %"class.__gnu_cxx::__normal_iterator", align 8
  %3 = bitcast %"class.std::vector"* %0 to %"struct.std::_Vector_base"*
  %4 = getelementptr inbounds %"struct.std::_Vector_base", %"struct.std::_Vector_base"* %3, i32 0, i32 0
  %5 = getelementptr inbounds %"struct.std::_Vector_base<std::complex<double>, std::allocator<std::complex<double> > >::_Vector_impl", %"struct.std::_Vector_base<std::complex<double>, std::allocator<std::complex<double> > >::_Vector_impl"* %4, i32 0, i32 0
  call void @_ZN9__gnu_cxx17__normal_iteratorIPSt7complexIdESt6vectorIS2_SaIS2_EEEC2ERKS3_(%"class.__gnu_cxx::__normal_iterator"* %2, %"struct.std::complex"** dereferenceable(8) %5) #3
  %6 = getelementptr inbounds %"class.__gnu_cxx::__normal_iterator", %"class.__gnu_cxx::__normal_iterator"* %2, i32 0, i32 0
  %7 = load %"struct.std::complex"*, %"struct.std::complex"** %6, align 8
  ret %"struct.std::complex"* %7
}

; Function Attrs: noinline uwtable
define linkonce_odr %"struct.std::complex"* @_ZNSt12_Vector_baseISt7complexIdESaIS1_EE11_M_allocateEm(%"struct.std::_Vector_base"* %0, i64 %1) #0 comdat align 2 {
  %3 = icmp ne i64 %1, 0
  br i1 %3, label %4, label %8

4:                                                ; preds = %2
  %5 = getelementptr inbounds %"struct.std::_Vector_base", %"struct.std::_Vector_base"* %0, i32 0, i32 0
  %6 = bitcast %"struct.std::_Vector_base<std::complex<double>, std::allocator<std::complex<double> > >::_Vector_impl"* %5 to %"class.std::allocator"*
  %7 = call %"struct.std::complex"* @_ZNSt16allocator_traitsISaISt7complexIdEEE8allocateERS2_m(%"class.std::allocator"* dereferenceable(1) %6, i64 %1)
  br label %9

8:                                                ; preds = %2
  br label %9

9:                                                ; preds = %8, %4
  %10 = phi %"struct.std::complex"* [ %7, %4 ], [ null, %8 ]
  ret %"struct.std::complex"* %10
}

; Function Attrs: noinline uwtable
define linkonce_odr %"struct.std::complex"* @_ZSt34__uninitialized_move_if_noexcept_aIPSt7complexIdES2_SaIS1_EET0_T_S5_S4_RT1_(%"struct.std::complex"* %0, %"struct.std::complex"* %1, %"struct.std::complex"* %2, %"class.std::allocator"* dereferenceable(1) %3) #0 comdat {
  %5 = alloca %"class.std::move_iterator", align 8
  %6 = alloca %"class.std::move_iterator", align 8
  %7 = call %"struct.std::complex"* @_ZSt32__make_move_if_noexcept_iteratorISt7complexIdESt13move_iteratorIPS1_EET0_PT_(%"struct.std::complex"* %0)
  %8 = getelementptr inbounds %"class.std::move_iterator", %"class.std::move_iterator"* %5, i32 0, i32 0
  store %"struct.std::complex"* %7, %"struct.std::complex"** %8, align 8
  %9 = call %"struct.std::complex"* @_ZSt32__make_move_if_noexcept_iteratorISt7complexIdESt13move_iteratorIPS1_EET0_PT_(%"struct.std::complex"* %1)
  %10 = getelementptr inbounds %"class.std::move_iterator", %"class.std::move_iterator"* %6, i32 0, i32 0
  store %"struct.std::complex"* %9, %"struct.std::complex"** %10, align 8
  %11 = getelementptr inbounds %"class.std::move_iterator", %"class.std::move_iterator"* %5, i32 0, i32 0
  %12 = load %"struct.std::complex"*, %"struct.std::complex"** %11, align 8
  %13 = getelementptr inbounds %"class.std::move_iterator", %"class.std::move_iterator"* %6, i32 0, i32 0
  %14 = load %"struct.std::complex"*, %"struct.std::complex"** %13, align 8
  %15 = call %"struct.std::complex"* @_ZSt22__uninitialized_copy_aISt13move_iteratorIPSt7complexIdEES3_S2_ET0_T_S6_S5_RSaIT1_E(%"struct.std::complex"* %12, %"struct.std::complex"* %14, %"struct.std::complex"* %2, %"class.std::allocator"* dereferenceable(1) %3)
  ret %"struct.std::complex"* %15
}

; Function Attrs: noinline nounwind uwtable
define linkonce_odr dereferenceable(8) %"struct.std::complex"** @_ZNK9__gnu_cxx17__normal_iteratorIPSt7complexIdESt6vectorIS2_SaIS2_EEE4baseEv(%"class.__gnu_cxx::__normal_iterator"* %0) #1 comdat align 2 {
  %2 = getelementptr inbounds %"class.__gnu_cxx::__normal_iterator", %"class.__gnu_cxx::__normal_iterator"* %0, i32 0, i32 0
  ret %"struct.std::complex"** %2
}

; Function Attrs: noinline nounwind uwtable
define linkonce_odr dereferenceable(1) %"class.std::allocator"* @_ZNSt12_Vector_baseISt7complexIdESaIS1_EE19_M_get_Tp_allocatorEv(%"struct.std::_Vector_base"* %0) #1 comdat align 2 {
  %2 = getelementptr inbounds %"struct.std::_Vector_base", %"struct.std::_Vector_base"* %0, i32 0, i32 0
  %3 = bitcast %"struct.std::_Vector_base<std::complex<double>, std::allocator<std::complex<double> > >::_Vector_impl"* %2 to %"class.std::allocator"*
  ret %"class.std::allocator"* %3
}

declare i8* @__cxa_begin_catch(i8*)

; Function Attrs: noinline uwtable
define linkonce_odr void @_ZNSt16allocator_traitsISaISt7complexIdEEE7destroyIS1_EEvRS2_PT_(%"class.std::allocator"* dereferenceable(1) %0, %"struct.std::complex"* %1) #0 comdat align 2 {
  %3 = bitcast %"class.std::allocator"* %0 to %"class.__gnu_cxx::new_allocator"*
  call void @_ZN9__gnu_cxx13new_allocatorISt7complexIdEE7destroyIS2_EEvPT_(%"class.__gnu_cxx::new_allocator"* %3, %"struct.std::complex"* %1)
  ret void
}

; Function Attrs: noinline uwtable
define linkonce_odr void @_ZSt8_DestroyIPSt7complexIdES1_EvT_S3_RSaIT0_E(%"struct.std::complex"* %0, %"struct.std::complex"* %1, %"class.std::allocator"* dereferenceable(1) %2) #0 comdat {
  call void @_ZSt8_DestroyIPSt7complexIdEEvT_S3_(%"struct.std::complex"* %0, %"struct.std::complex"* %1)
  ret void
}

; Function Attrs: noinline uwtable
define linkonce_odr void @_ZNSt12_Vector_baseISt7complexIdESaIS1_EE13_M_deallocateEPS1_m(%"struct.std::_Vector_base"* %0, %"struct.std::complex"* %1, i64 %2) #0 comdat align 2 {
  %4 = icmp ne %"struct.std::complex"* %1, null
  br i1 %4, label %5, label %8

5:                                                ; preds = %3
  %6 = getelementptr inbounds %"struct.std::_Vector_base", %"struct.std::_Vector_base"* %0, i32 0, i32 0
  %7 = bitcast %"struct.std::_Vector_base<std::complex<double>, std::allocator<std::complex<double> > >::_Vector_impl"* %6 to %"class.std::allocator"*
  call void @_ZNSt16allocator_traitsISaISt7complexIdEEE10deallocateERS2_PS1_m(%"class.std::allocator"* dereferenceable(1) %7, %"struct.std::complex"* %1, i64 %2)
  br label %8

8:                                                ; preds = %5, %3
  ret void
}

declare void @__cxa_rethrow()

declare void @__cxa_end_catch()

; Function Attrs: noinline noreturn nounwind
define linkonce_odr hidden void @__clang_call_terminate(i8* %0) #7 comdat {
  %2 = call i8* @__cxa_begin_catch(i8* %0) #3
  call void @_ZSt9terminatev() #13
  unreachable
}

declare void @_ZSt9terminatev()

; Function Attrs: noinline nounwind uwtable
define linkonce_odr i64 @_ZNKSt6vectorISt7complexIdESaIS1_EE8max_sizeEv(%"class.std::vector"* %0) #1 comdat align 2 {
  %2 = bitcast %"class.std::vector"* %0 to %"struct.std::_Vector_base"*
  %3 = call dereferenceable(1) %"class.std::allocator"* @_ZNKSt12_Vector_baseISt7complexIdESaIS1_EE19_M_get_Tp_allocatorEv(%"struct.std::_Vector_base"* %2) #3
  %4 = call i64 @_ZNSt16allocator_traitsISaISt7complexIdEEE8max_sizeERKS2_(%"class.std::allocator"* dereferenceable(1) %3) #3
  ret i64 %4
}

; Function Attrs: noreturn
declare void @_ZSt20__throw_length_errorPKc(i8*) #8

; Function Attrs: noinline nounwind uwtable
define linkonce_odr dereferenceable(8) i64* @_ZSt3maxImERKT_S2_S2_(i64* dereferenceable(8) %0, i64* dereferenceable(8) %1) #1 comdat {
  %3 = load i64, i64* %0, align 8
  %4 = load i64, i64* %1, align 8
  %5 = icmp ult i64 %3, %4
  br i1 %5, label %6, label %7

6:                                                ; preds = %2
  br label %8

7:                                                ; preds = %2
  br label %8

8:                                                ; preds = %7, %6
  %.0 = phi i64* [ %1, %6 ], [ %0, %7 ]
  ret i64* %.0
}

; Function Attrs: noinline nounwind uwtable
define linkonce_odr i64 @_ZNSt16allocator_traitsISaISt7complexIdEEE8max_sizeERKS2_(%"class.std::allocator"* dereferenceable(1) %0) #1 comdat align 2 {
  %2 = bitcast %"class.std::allocator"* %0 to %"class.__gnu_cxx::new_allocator"*
  %3 = call i64 @_ZNK9__gnu_cxx13new_allocatorISt7complexIdEE8max_sizeEv(%"class.__gnu_cxx::new_allocator"* %2) #3
  ret i64 %3
}

; Function Attrs: noinline nounwind uwtable
define linkonce_odr dereferenceable(1) %"class.std::allocator"* @_ZNKSt12_Vector_baseISt7complexIdESaIS1_EE19_M_get_Tp_allocatorEv(%"struct.std::_Vector_base"* %0) #1 comdat align 2 {
  %2 = getelementptr inbounds %"struct.std::_Vector_base", %"struct.std::_Vector_base"* %0, i32 0, i32 0
  %3 = bitcast %"struct.std::_Vector_base<std::complex<double>, std::allocator<std::complex<double> > >::_Vector_impl"* %2 to %"class.std::allocator"*
  ret %"class.std::allocator"* %3
}

; Function Attrs: noinline nounwind uwtable
define linkonce_odr i64 @_ZNK9__gnu_cxx13new_allocatorISt7complexIdEE8max_sizeEv(%"class.__gnu_cxx::new_allocator"* %0) #1 comdat align 2 {
  ret i64 1152921504606846975
}

; Function Attrs: noinline nounwind uwtable
define linkonce_odr void @_ZN9__gnu_cxx17__normal_iteratorIPSt7complexIdESt6vectorIS2_SaIS2_EEEC2ERKS3_(%"class.__gnu_cxx::__normal_iterator"* %0, %"struct.std::complex"** dereferenceable(8) %1) unnamed_addr #1 comdat align 2 {
  %3 = getelementptr inbounds %"class.__gnu_cxx::__normal_iterator", %"class.__gnu_cxx::__normal_iterator"* %0, i32 0, i32 0
  %4 = load %"struct.std::complex"*, %"struct.std::complex"** %1, align 8
  store %"struct.std::complex"* %4, %"struct.std::complex"** %3, align 8
  ret void
}

; Function Attrs: noinline uwtable
define linkonce_odr %"struct.std::complex"* @_ZNSt16allocator_traitsISaISt7complexIdEEE8allocateERS2_m(%"class.std::allocator"* dereferenceable(1) %0, i64 %1) #0 comdat align 2 {
  %3 = bitcast %"class.std::allocator"* %0 to %"class.__gnu_cxx::new_allocator"*
  %4 = call %"struct.std::complex"* @_ZN9__gnu_cxx13new_allocatorISt7complexIdEE8allocateEmPKv(%"class.__gnu_cxx::new_allocator"* %3, i64 %1, i8* null)
  ret %"struct.std::complex"* %4
}

; Function Attrs: noinline uwtable
define linkonce_odr %"struct.std::complex"* @_ZN9__gnu_cxx13new_allocatorISt7complexIdEE8allocateEmPKv(%"class.__gnu_cxx::new_allocator"* %0, i64 %1, i8* %2) #0 comdat align 2 {
  %4 = call i64 @_ZNK9__gnu_cxx13new_allocatorISt7complexIdEE8max_sizeEv(%"class.__gnu_cxx::new_allocator"* %0) #3
  %5 = icmp ugt i64 %1, %4
  br i1 %5, label %6, label %7

6:                                                ; preds = %3
  call void @_ZSt17__throw_bad_allocv() #14
  unreachable

7:                                                ; preds = %3
  %8 = mul i64 %1, 16
  %9 = call i8* @_Znwm(i64 %8)
  %10 = bitcast i8* %9 to %"struct.std::complex"*
  ret %"struct.std::complex"* %10
}

; Function Attrs: noreturn
declare void @_ZSt17__throw_bad_allocv() #8

; Function Attrs: nobuiltin
declare noalias i8* @_Znwm(i64) #9

; Function Attrs: noinline uwtable
define linkonce_odr %"struct.std::complex"* @_ZSt22__uninitialized_copy_aISt13move_iteratorIPSt7complexIdEES3_S2_ET0_T_S6_S5_RSaIT1_E(%"struct.std::complex"* %0, %"struct.std::complex"* %1, %"struct.std::complex"* %2, %"class.std::allocator"* dereferenceable(1) %3) #0 comdat {
  %5 = alloca %"class.std::move_iterator", align 8
  %6 = alloca %"class.std::move_iterator", align 8
  %7 = alloca %"class.std::move_iterator", align 8
  %8 = alloca %"class.std::move_iterator", align 8
  %9 = getelementptr inbounds %"class.std::move_iterator", %"class.std::move_iterator"* %5, i32 0, i32 0
  store %"struct.std::complex"* %0, %"struct.std::complex"** %9, align 8
  %10 = getelementptr inbounds %"class.std::move_iterator", %"class.std::move_iterator"* %6, i32 0, i32 0
  store %"struct.std::complex"* %1, %"struct.std::complex"** %10, align 8
  %11 = bitcast %"class.std::move_iterator"* %7 to i8*
  %12 = bitcast %"class.std::move_iterator"* %5 to i8*
  call void @llvm.memcpy.p0i8.p0i8.i64(i8* align 8 %11, i8* align 8 %12, i64 8, i1 false)
  %13 = bitcast %"class.std::move_iterator"* %8 to i8*
  %14 = bitcast %"class.std::move_iterator"* %6 to i8*
  call void @llvm.memcpy.p0i8.p0i8.i64(i8* align 8 %13, i8* align 8 %14, i64 8, i1 false)
  %15 = getelementptr inbounds %"class.std::move_iterator", %"class.std::move_iterator"* %7, i32 0, i32 0
  %16 = load %"struct.std::complex"*, %"struct.std::complex"** %15, align 8
  %17 = getelementptr inbounds %"class.std::move_iterator", %"class.std::move_iterator"* %8, i32 0, i32 0
  %18 = load %"struct.std::complex"*, %"struct.std::complex"** %17, align 8
  %19 = call %"struct.std::complex"* @_ZSt18uninitialized_copyISt13move_iteratorIPSt7complexIdEES3_ET0_T_S6_S5_(%"struct.std::complex"* %16, %"struct.std::complex"* %18, %"struct.std::complex"* %2)
  ret %"struct.std::complex"* %19
}

; Function Attrs: noinline uwtable
define linkonce_odr %"struct.std::complex"* @_ZSt32__make_move_if_noexcept_iteratorISt7complexIdESt13move_iteratorIPS1_EET0_PT_(%"struct.std::complex"* %0) #0 comdat {
  %2 = alloca %"class.std::move_iterator", align 8
  call void @_ZNSt13move_iteratorIPSt7complexIdEEC2ES2_(%"class.std::move_iterator"* %2, %"struct.std::complex"* %0)
  %3 = getelementptr inbounds %"class.std::move_iterator", %"class.std::move_iterator"* %2, i32 0, i32 0
  %4 = load %"struct.std::complex"*, %"struct.std::complex"** %3, align 8
  ret %"struct.std::complex"* %4
}

; Function Attrs: noinline uwtable
define linkonce_odr %"struct.std::complex"* @_ZSt18uninitialized_copyISt13move_iteratorIPSt7complexIdEES3_ET0_T_S6_S5_(%"struct.std::complex"* %0, %"struct.std::complex"* %1, %"struct.std::complex"* %2) #0 comdat {
  %4 = alloca %"class.std::move_iterator", align 8
  %5 = alloca %"class.std::move_iterator", align 8
  %6 = alloca %"class.std::move_iterator", align 8
  %7 = alloca %"class.std::move_iterator", align 8
  %8 = getelementptr inbounds %"class.std::move_iterator", %"class.std::move_iterator"* %4, i32 0, i32 0
  store %"struct.std::complex"* %0, %"struct.std::complex"** %8, align 8
  %9 = getelementptr inbounds %"class.std::move_iterator", %"class.std::move_iterator"* %5, i32 0, i32 0
  store %"struct.std::complex"* %1, %"struct.std::complex"** %9, align 8
  %10 = bitcast %"class.std::move_iterator"* %6 to i8*
  %11 = bitcast %"class.std::move_iterator"* %4 to i8*
  call void @llvm.memcpy.p0i8.p0i8.i64(i8* align 8 %10, i8* align 8 %11, i64 8, i1 false)
  %12 = bitcast %"class.std::move_iterator"* %7 to i8*
  %13 = bitcast %"class.std::move_iterator"* %5 to i8*
  call void @llvm.memcpy.p0i8.p0i8.i64(i8* align 8 %12, i8* align 8 %13, i64 8, i1 false)
  %14 = getelementptr inbounds %"class.std::move_iterator", %"class.std::move_iterator"* %6, i32 0, i32 0
  %15 = load %"struct.std::complex"*, %"struct.std::complex"** %14, align 8
  %16 = getelementptr inbounds %"class.std::move_iterator", %"class.std::move_iterator"* %7, i32 0, i32 0
  %17 = load %"struct.std::complex"*, %"struct.std::complex"** %16, align 8
  %18 = call %"struct.std::complex"* @_ZNSt20__uninitialized_copyILb0EE13__uninit_copyISt13move_iteratorIPSt7complexIdEES5_EET0_T_S8_S7_(%"struct.std::complex"* %15, %"struct.std::complex"* %17, %"struct.std::complex"* %2)
  ret %"struct.std::complex"* %18
}

; Function Attrs: noinline uwtable
define linkonce_odr %"struct.std::complex"* @_ZNSt20__uninitialized_copyILb0EE13__uninit_copyISt13move_iteratorIPSt7complexIdEES5_EET0_T_S8_S7_(%"struct.std::complex"* %0, %"struct.std::complex"* %1, %"struct.std::complex"* %2) #0 comdat align 2 personality i8* bitcast (i32 (...)* @__gxx_personality_v0 to i8*) {
  %4 = alloca %"class.std::move_iterator", align 8
  %5 = alloca %"class.std::move_iterator", align 8
  %6 = getelementptr inbounds %"class.std::move_iterator", %"class.std::move_iterator"* %4, i32 0, i32 0
  store %"struct.std::complex"* %0, %"struct.std::complex"** %6, align 8
  %7 = getelementptr inbounds %"class.std::move_iterator", %"class.std::move_iterator"* %5, i32 0, i32 0
  store %"struct.std::complex"* %1, %"struct.std::complex"** %7, align 8
  br label %8

8:                                                ; preds = %18, %3
  %.0 = phi %"struct.std::complex"* [ %2, %3 ], [ %19, %18 ]
  %9 = invoke zeroext i1 @_ZStneIPSt7complexIdEEbRKSt13move_iteratorIT_ES7_(%"class.std::move_iterator"* dereferenceable(8) %4, %"class.std::move_iterator"* dereferenceable(8) %5)
          to label %10 unwind label %20

10:                                               ; preds = %8
  br i1 %9, label %11, label %27

11:                                               ; preds = %10
  %12 = call %"struct.std::complex"* @_ZSt11__addressofISt7complexIdEEPT_RS2_(%"struct.std::complex"* dereferenceable(16) %.0) #3
  %13 = invoke dereferenceable(16) %"struct.std::complex"* @_ZNKSt13move_iteratorIPSt7complexIdEEdeEv(%"class.std::move_iterator"* %4)
          to label %14 unwind label %20

14:                                               ; preds = %11
  invoke void @_ZSt10_ConstructISt7complexIdEJS1_EEvPT_DpOT0_(%"struct.std::complex"* %12, %"struct.std::complex"* dereferenceable(16) %13)
          to label %15 unwind label %20

15:                                               ; preds = %14
  br label %16

16:                                               ; preds = %15
  %17 = invoke dereferenceable(8) %"class.std::move_iterator"* @_ZNSt13move_iteratorIPSt7complexIdEEppEv(%"class.std::move_iterator"* %4)
          to label %18 unwind label %20

18:                                               ; preds = %16
  %19 = getelementptr inbounds %"struct.std::complex", %"struct.std::complex"* %.0, i32 1
  br label %8

20:                                               ; preds = %16, %14, %11, %8
  %21 = landingpad { i8*, i32 }
          catch i8* null
  %22 = extractvalue { i8*, i32 } %21, 0
  %23 = extractvalue { i8*, i32 } %21, 1
  br label %24

24:                                               ; preds = %20
  %25 = call i8* @__cxa_begin_catch(i8* %22) #3
  invoke void @_ZSt8_DestroyIPSt7complexIdEEvT_S3_(%"struct.std::complex"* %2, %"struct.std::complex"* %.0)
          to label %26 unwind label %28

26:                                               ; preds = %24
  invoke void @__cxa_rethrow() #14
          to label %40 unwind label %28

27:                                               ; preds = %10
  ret %"struct.std::complex"* %.0

28:                                               ; preds = %26, %24
  %29 = landingpad { i8*, i32 }
          cleanup
  %30 = extractvalue { i8*, i32 } %29, 0
  %31 = extractvalue { i8*, i32 } %29, 1
  invoke void @__cxa_end_catch()
          to label %32 unwind label %37

32:                                               ; preds = %28
  br label %34

33:                                               ; No predecessors!
  call void @llvm.trap()
  unreachable

34:                                               ; preds = %32
  %35 = insertvalue { i8*, i32 } undef, i8* %30, 0
  %36 = insertvalue { i8*, i32 } %35, i32 %31, 1
  resume { i8*, i32 } %36

37:                                               ; preds = %28
  %38 = landingpad { i8*, i32 }
          catch i8* null
  %39 = extractvalue { i8*, i32 } %38, 0
  call void @__clang_call_terminate(i8* %39) #13
  unreachable

40:                                               ; preds = %26
  unreachable
}

; Function Attrs: noinline uwtable
define linkonce_odr zeroext i1 @_ZStneIPSt7complexIdEEbRKSt13move_iteratorIT_ES7_(%"class.std::move_iterator"* dereferenceable(8) %0, %"class.std::move_iterator"* dereferenceable(8) %1) #0 comdat {
  %3 = call zeroext i1 @_ZSteqIPSt7complexIdEEbRKSt13move_iteratorIT_ES7_(%"class.std::move_iterator"* dereferenceable(8) %0, %"class.std::move_iterator"* dereferenceable(8) %1)
  %4 = xor i1 %3, true
  ret i1 %4
}

; Function Attrs: noinline nounwind uwtable
define linkonce_odr void @_ZSt10_ConstructISt7complexIdEJS1_EEvPT_DpOT0_(%"struct.std::complex"* %0, %"struct.std::complex"* dereferenceable(16) %1) #1 comdat {
  %3 = bitcast %"struct.std::complex"* %0 to i8*
  %4 = bitcast i8* %3 to %"struct.std::complex"*
  %5 = call dereferenceable(16) %"struct.std::complex"* @_ZSt7forwardISt7complexIdEEOT_RNSt16remove_referenceIS2_E4typeE(%"struct.std::complex"* dereferenceable(16) %1) #3
  %6 = bitcast %"struct.std::complex"* %4 to i8*
  %7 = bitcast %"struct.std::complex"* %5 to i8*
  call void @llvm.memcpy.p0i8.p0i8.i64(i8* align 8 %6, i8* align 8 %7, i64 16, i1 false)
  ret void
}

; Function Attrs: noinline nounwind uwtable
define linkonce_odr %"struct.std::complex"* @_ZSt11__addressofISt7complexIdEEPT_RS2_(%"struct.std::complex"* dereferenceable(16) %0) #1 comdat {
  ret %"struct.std::complex"* %0
}

; Function Attrs: noinline nounwind uwtable
define linkonce_odr dereferenceable(16) %"struct.std::complex"* @_ZNKSt13move_iteratorIPSt7complexIdEEdeEv(%"class.std::move_iterator"* %0) #1 comdat align 2 {
  %2 = getelementptr inbounds %"class.std::move_iterator", %"class.std::move_iterator"* %0, i32 0, i32 0
  %3 = load %"struct.std::complex"*, %"struct.std::complex"** %2, align 8
  ret %"struct.std::complex"* %3
}

; Function Attrs: noinline nounwind uwtable
define linkonce_odr dereferenceable(8) %"class.std::move_iterator"* @_ZNSt13move_iteratorIPSt7complexIdEEppEv(%"class.std::move_iterator"* %0) #1 comdat align 2 {
  %2 = getelementptr inbounds %"class.std::move_iterator", %"class.std::move_iterator"* %0, i32 0, i32 0
  %3 = load %"struct.std::complex"*, %"struct.std::complex"** %2, align 8
  %4 = getelementptr inbounds %"struct.std::complex", %"struct.std::complex"* %3, i32 1
  store %"struct.std::complex"* %4, %"struct.std::complex"** %2, align 8
  ret %"class.std::move_iterator"* %0
}

; Function Attrs: noinline uwtable
define linkonce_odr void @_ZSt8_DestroyIPSt7complexIdEEvT_S3_(%"struct.std::complex"* %0, %"struct.std::complex"* %1) #0 comdat {
  call void @_ZNSt12_Destroy_auxILb1EE9__destroyIPSt7complexIdEEEvT_S5_(%"struct.std::complex"* %0, %"struct.std::complex"* %1)
  ret void
}

; Function Attrs: cold noreturn nounwind
declare void @llvm.trap() #10

; Function Attrs: noinline uwtable
define linkonce_odr zeroext i1 @_ZSteqIPSt7complexIdEEbRKSt13move_iteratorIT_ES7_(%"class.std::move_iterator"* dereferenceable(8) %0, %"class.std::move_iterator"* dereferenceable(8) %1) #0 comdat {
  %3 = call %"struct.std::complex"* @_ZNKSt13move_iteratorIPSt7complexIdEE4baseEv(%"class.std::move_iterator"* %0)
  %4 = call %"struct.std::complex"* @_ZNKSt13move_iteratorIPSt7complexIdEE4baseEv(%"class.std::move_iterator"* %1)
  %5 = icmp eq %"struct.std::complex"* %3, %4
  ret i1 %5
}

; Function Attrs: noinline nounwind uwtable
define linkonce_odr %"struct.std::complex"* @_ZNKSt13move_iteratorIPSt7complexIdEE4baseEv(%"class.std::move_iterator"* %0) #1 comdat align 2 {
  %2 = getelementptr inbounds %"class.std::move_iterator", %"class.std::move_iterator"* %0, i32 0, i32 0
  %3 = load %"struct.std::complex"*, %"struct.std::complex"** %2, align 8
  ret %"struct.std::complex"* %3
}

; Function Attrs: noinline nounwind uwtable
define linkonce_odr void @_ZNSt12_Destroy_auxILb1EE9__destroyIPSt7complexIdEEEvT_S5_(%"struct.std::complex"* %0, %"struct.std::complex"* %1) #1 comdat align 2 {
  ret void
}

; Function Attrs: noinline nounwind uwtable
define linkonce_odr void @_ZNSt13move_iteratorIPSt7complexIdEEC2ES2_(%"class.std::move_iterator"* %0, %"struct.std::complex"* %1) unnamed_addr #1 comdat align 2 {
  %3 = getelementptr inbounds %"class.std::move_iterator", %"class.std::move_iterator"* %0, i32 0, i32 0
  store %"struct.std::complex"* %1, %"struct.std::complex"** %3, align 8
  ret void
}

; Function Attrs: noinline nounwind uwtable
define linkonce_odr void @_ZN9__gnu_cxx13new_allocatorISt7complexIdEE7destroyIS2_EEvPT_(%"class.__gnu_cxx::new_allocator"* %0, %"struct.std::complex"* %1) #1 comdat align 2 {
  ret void
}

; Function Attrs: noinline uwtable
define linkonce_odr void @_ZNSt16allocator_traitsISaISt7complexIdEEE10deallocateERS2_PS1_m(%"class.std::allocator"* dereferenceable(1) %0, %"struct.std::complex"* %1, i64 %2) #0 comdat align 2 {
  %4 = bitcast %"class.std::allocator"* %0 to %"class.__gnu_cxx::new_allocator"*
  call void @_ZN9__gnu_cxx13new_allocatorISt7complexIdEE10deallocateEPS2_m(%"class.__gnu_cxx::new_allocator"* %4, %"struct.std::complex"* %1, i64 %2)
  ret void
}

; Function Attrs: noinline nounwind uwtable
define linkonce_odr void @_ZN9__gnu_cxx13new_allocatorISt7complexIdEE10deallocateEPS2_m(%"class.__gnu_cxx::new_allocator"* %0, %"struct.std::complex"* %1, i64 %2) #1 comdat align 2 {
  %4 = bitcast %"struct.std::complex"* %1 to i8*
  call void @_ZdlPv(i8* %4) #3
  ret void
}

; Function Attrs: nobuiltin nounwind
declare void @_ZdlPv(i8*) #11

; Function Attrs: noinline uwtable
define linkonce_odr double @_ZNSt12_Norm_helperILb1EE8_S_do_itIdEET_RKSt7complexIS2_E(%"struct.std::complex"* dereferenceable(16) %0) #0 comdat align 2 {
  %2 = call double @_ZSt3absIdET_RKSt7complexIS0_E(%"struct.std::complex"* dereferenceable(16) %0)
  %3 = fmul double %2, %2
  ret double %3
}

; Function Attrs: noinline nounwind uwtable
define linkonce_odr dereferenceable(16) %"struct.std::complex"* @_ZNSt7complexIdEmLEd(%"struct.std::complex"* %0, double %1) #1 comdat align 2 {
  %3 = getelementptr inbounds %"struct.std::complex", %"struct.std::complex"* %0, i32 0, i32 0
  %4 = getelementptr inbounds { double, double }, { double, double }* %3, i32 0, i32 0
  %5 = load double, double* %4, align 8
  %6 = getelementptr inbounds { double, double }, { double, double }* %3, i32 0, i32 1
  %7 = load double, double* %6, align 8
  %8 = fmul double %5, %1
  %9 = fmul double %7, %1
  %10 = getelementptr inbounds { double, double }, { double, double }* %3, i32 0, i32 0
  %11 = getelementptr inbounds { double, double }, { double, double }* %3, i32 0, i32 1
  store double %8, double* %10, align 8
  store double %9, double* %11, align 8
  ret %"struct.std::complex"* %0
}

; Function Attrs: noinline uwtable
define linkonce_odr void @_ZNSt12_Vector_baseISt7complexIdESaIS1_EEC2Ev(%"struct.std::_Vector_base"* %0) unnamed_addr #0 comdat align 2 {
  %2 = getelementptr inbounds %"struct.std::_Vector_base", %"struct.std::_Vector_base"* %0, i32 0, i32 0
  call void @_ZNSt12_Vector_baseISt7complexIdESaIS1_EE12_Vector_implC2Ev(%"struct.std::_Vector_base<std::complex<double>, std::allocator<std::complex<double> > >::_Vector_impl"* %2)
  ret void
}

; Function Attrs: noinline nounwind uwtable
define linkonce_odr void @_ZNSt12_Vector_baseISt7complexIdESaIS1_EE12_Vector_implC2Ev(%"struct.std::_Vector_base<std::complex<double>, std::allocator<std::complex<double> > >::_Vector_impl"* %0) unnamed_addr #1 comdat align 2 {
  %2 = bitcast %"struct.std::_Vector_base<std::complex<double>, std::allocator<std::complex<double> > >::_Vector_impl"* %0 to %"class.std::allocator"*
  call void @_ZNSaISt7complexIdEEC2Ev(%"class.std::allocator"* %2) #3
  %3 = getelementptr inbounds %"struct.std::_Vector_base<std::complex<double>, std::allocator<std::complex<double> > >::_Vector_impl", %"struct.std::_Vector_base<std::complex<double>, std::allocator<std::complex<double> > >::_Vector_impl"* %0, i32 0, i32 0
  store %"struct.std::complex"* null, %"struct.std::complex"** %3, align 8
  %4 = getelementptr inbounds %"struct.std::_Vector_base<std::complex<double>, std::allocator<std::complex<double> > >::_Vector_impl", %"struct.std::_Vector_base<std::complex<double>, std::allocator<std::complex<double> > >::_Vector_impl"* %0, i32 0, i32 1
  store %"struct.std::complex"* null, %"struct.std::complex"** %4, align 8
  %5 = getelementptr inbounds %"struct.std::_Vector_base<std::complex<double>, std::allocator<std::complex<double> > >::_Vector_impl", %"struct.std::_Vector_base<std::complex<double>, std::allocator<std::complex<double> > >::_Vector_impl"* %0, i32 0, i32 2
  store %"struct.std::complex"* null, %"struct.std::complex"** %5, align 8
  ret void
}

; Function Attrs: noinline nounwind uwtable
define linkonce_odr void @_ZN9__gnu_cxx13new_allocatorISt7complexIdEEC2Ev(%"class.__gnu_cxx::new_allocator"* %0) unnamed_addr #1 comdat align 2 {
  ret void
}

; Function Attrs: noinline nounwind uwtable
define linkonce_odr void @_ZNSt12_Vector_baseISt7complexIdESaIS1_EED2Ev(%"struct.std::_Vector_base"* %0) unnamed_addr #1 comdat align 2 personality i8* bitcast (i32 (...)* @__gxx_personality_v0 to i8*) {
  %2 = getelementptr inbounds %"struct.std::_Vector_base", %"struct.std::_Vector_base"* %0, i32 0, i32 0
  %3 = getelementptr inbounds %"struct.std::_Vector_base<std::complex<double>, std::allocator<std::complex<double> > >::_Vector_impl", %"struct.std::_Vector_base<std::complex<double>, std::allocator<std::complex<double> > >::_Vector_impl"* %2, i32 0, i32 0
  %4 = load %"struct.std::complex"*, %"struct.std::complex"** %3, align 8
  %5 = getelementptr inbounds %"struct.std::_Vector_base", %"struct.std::_Vector_base"* %0, i32 0, i32 0
  %6 = getelementptr inbounds %"struct.std::_Vector_base<std::complex<double>, std::allocator<std::complex<double> > >::_Vector_impl", %"struct.std::_Vector_base<std::complex<double>, std::allocator<std::complex<double> > >::_Vector_impl"* %5, i32 0, i32 2
  %7 = load %"struct.std::complex"*, %"struct.std::complex"** %6, align 8
  %8 = getelementptr inbounds %"struct.std::_Vector_base", %"struct.std::_Vector_base"* %0, i32 0, i32 0
  %9 = getelementptr inbounds %"struct.std::_Vector_base<std::complex<double>, std::allocator<std::complex<double> > >::_Vector_impl", %"struct.std::_Vector_base<std::complex<double>, std::allocator<std::complex<double> > >::_Vector_impl"* %8, i32 0, i32 0
  %10 = load %"struct.std::complex"*, %"struct.std::complex"** %9, align 8
  %11 = ptrtoint %"struct.std::complex"* %7 to i64
  %12 = ptrtoint %"struct.std::complex"* %10 to i64
  %13 = sub i64 %11, %12
  %14 = sdiv exact i64 %13, 16
  invoke void @_ZNSt12_Vector_baseISt7complexIdESaIS1_EE13_M_deallocateEPS1_m(%"struct.std::_Vector_base"* %0, %"struct.std::complex"* %4, i64 %14)
          to label %15 unwind label %17

15:                                               ; preds = %1
  %16 = getelementptr inbounds %"struct.std::_Vector_base", %"struct.std::_Vector_base"* %0, i32 0, i32 0
  call void @_ZNSt12_Vector_baseISt7complexIdESaIS1_EE12_Vector_implD2Ev(%"struct.std::_Vector_base<std::complex<double>, std::allocator<std::complex<double> > >::_Vector_impl"* %16) #3
  ret void

17:                                               ; preds = %1
  %18 = landingpad { i8*, i32 }
          catch i8* null
  %19 = extractvalue { i8*, i32 } %18, 0
  %20 = extractvalue { i8*, i32 } %18, 1
  %21 = getelementptr inbounds %"struct.std::_Vector_base", %"struct.std::_Vector_base"* %0, i32 0, i32 0
  call void @_ZNSt12_Vector_baseISt7complexIdESaIS1_EE12_Vector_implD2Ev(%"struct.std::_Vector_base<std::complex<double>, std::allocator<std::complex<double> > >::_Vector_impl"* %21) #3
  br label %22

22:                                               ; preds = %17
  call void @__clang_call_terminate(i8* %19) #13
  unreachable
}

; Function Attrs: noinline nounwind uwtable
define linkonce_odr void @_ZNSt12_Vector_baseISt7complexIdESaIS1_EE12_Vector_implD2Ev(%"struct.std::_Vector_base<std::complex<double>, std::allocator<std::complex<double> > >::_Vector_impl"* %0) unnamed_addr #1 comdat align 2 {
  %2 = bitcast %"struct.std::_Vector_base<std::complex<double>, std::allocator<std::complex<double> > >::_Vector_impl"* %0 to %"class.std::allocator"*
  call void @_ZNSaISt7complexIdEED2Ev(%"class.std::allocator"* %2) #3
  ret void
}

; Function Attrs: noinline nounwind uwtable
define linkonce_odr void @_ZN9__gnu_cxx13new_allocatorISt7complexIdEED2Ev(%"class.__gnu_cxx::new_allocator"* %0) unnamed_addr #1 comdat align 2 {
  ret void
}

; Function Attrs: noinline uwtable
define linkonce_odr void @_ZNSt12_Vector_baseIdSaIdEEC2Ev(%"struct.std::_Vector_base.1"* %0) unnamed_addr #0 comdat align 2 {
  %2 = getelementptr inbounds %"struct.std::_Vector_base.1", %"struct.std::_Vector_base.1"* %0, i32 0, i32 0
  call void @_ZNSt12_Vector_baseIdSaIdEE12_Vector_implC2Ev(%"struct.std::_Vector_base<double, std::allocator<double> >::_Vector_impl"* %2)
  ret void
}

; Function Attrs: noinline nounwind uwtable
define linkonce_odr void @_ZNSt12_Vector_baseIdSaIdEE12_Vector_implC2Ev(%"struct.std::_Vector_base<double, std::allocator<double> >::_Vector_impl"* %0) unnamed_addr #1 comdat align 2 {
  %2 = bitcast %"struct.std::_Vector_base<double, std::allocator<double> >::_Vector_impl"* %0 to %"class.std::allocator.2"*
  call void @_ZNSaIdEC2Ev(%"class.std::allocator.2"* %2) #3
  %3 = getelementptr inbounds %"struct.std::_Vector_base<double, std::allocator<double> >::_Vector_impl", %"struct.std::_Vector_base<double, std::allocator<double> >::_Vector_impl"* %0, i32 0, i32 0
  store double* null, double** %3, align 8
  %4 = getelementptr inbounds %"struct.std::_Vector_base<double, std::allocator<double> >::_Vector_impl", %"struct.std::_Vector_base<double, std::allocator<double> >::_Vector_impl"* %0, i32 0, i32 1
  store double* null, double** %4, align 8
  %5 = getelementptr inbounds %"struct.std::_Vector_base<double, std::allocator<double> >::_Vector_impl", %"struct.std::_Vector_base<double, std::allocator<double> >::_Vector_impl"* %0, i32 0, i32 2
  store double* null, double** %5, align 8
  ret void
}

; Function Attrs: noinline nounwind uwtable
define linkonce_odr void @_ZNSaIdEC2Ev(%"class.std::allocator.2"* %0) unnamed_addr #1 comdat align 2 {
  %2 = bitcast %"class.std::allocator.2"* %0 to %"class.__gnu_cxx::new_allocator.3"*
  call void @_ZN9__gnu_cxx13new_allocatorIdEC2Ev(%"class.__gnu_cxx::new_allocator.3"* %2) #3
  ret void
}

; Function Attrs: noinline nounwind uwtable
define linkonce_odr void @_ZN9__gnu_cxx13new_allocatorIdEC2Ev(%"class.__gnu_cxx::new_allocator.3"* %0) unnamed_addr #1 comdat align 2 {
  ret void
}

; Function Attrs: noinline uwtable
define linkonce_odr void @_ZSt8_DestroyIPddEvT_S1_RSaIT0_E(double* %0, double* %1, %"class.std::allocator.2"* dereferenceable(1) %2) #0 comdat {
  call void @_ZSt8_DestroyIPdEvT_S1_(double* %0, double* %1)
  ret void
}

; Function Attrs: noinline nounwind uwtable
define linkonce_odr dereferenceable(1) %"class.std::allocator.2"* @_ZNSt12_Vector_baseIdSaIdEE19_M_get_Tp_allocatorEv(%"struct.std::_Vector_base.1"* %0) #1 comdat align 2 {
  %2 = getelementptr inbounds %"struct.std::_Vector_base.1", %"struct.std::_Vector_base.1"* %0, i32 0, i32 0
  %3 = bitcast %"struct.std::_Vector_base<double, std::allocator<double> >::_Vector_impl"* %2 to %"class.std::allocator.2"*
  ret %"class.std::allocator.2"* %3
}

; Function Attrs: noinline nounwind uwtable
define linkonce_odr void @_ZNSt12_Vector_baseIdSaIdEED2Ev(%"struct.std::_Vector_base.1"* %0) unnamed_addr #1 comdat align 2 personality i8* bitcast (i32 (...)* @__gxx_personality_v0 to i8*) {
  %2 = getelementptr inbounds %"struct.std::_Vector_base.1", %"struct.std::_Vector_base.1"* %0, i32 0, i32 0
  %3 = getelementptr inbounds %"struct.std::_Vector_base<double, std::allocator<double> >::_Vector_impl", %"struct.std::_Vector_base<double, std::allocator<double> >::_Vector_impl"* %2, i32 0, i32 0
  %4 = load double*, double** %3, align 8
  %5 = getelementptr inbounds %"struct.std::_Vector_base.1", %"struct.std::_Vector_base.1"* %0, i32 0, i32 0
  %6 = getelementptr inbounds %"struct.std::_Vector_base<double, std::allocator<double> >::_Vector_impl", %"struct.std::_Vector_base<double, std::allocator<double> >::_Vector_impl"* %5, i32 0, i32 2
  %7 = load double*, double** %6, align 8
  %8 = getelementptr inbounds %"struct.std::_Vector_base.1", %"struct.std::_Vector_base.1"* %0, i32 0, i32 0
  %9 = getelementptr inbounds %"struct.std::_Vector_base<double, std::allocator<double> >::_Vector_impl", %"struct.std::_Vector_base<double, std::allocator<double> >::_Vector_impl"* %8, i32 0, i32 0
  %10 = load double*, double** %9, align 8
  %11 = ptrtoint double* %7 to i64
  %12 = ptrtoint double* %10 to i64
  %13 = sub i64 %11, %12
  %14 = sdiv exact i64 %13, 8
  invoke void @_ZNSt12_Vector_baseIdSaIdEE13_M_deallocateEPdm(%"struct.std::_Vector_base.1"* %0, double* %4, i64 %14)
          to label %15 unwind label %17

15:                                               ; preds = %1
  %16 = getelementptr inbounds %"struct.std::_Vector_base.1", %"struct.std::_Vector_base.1"* %0, i32 0, i32 0
  call void @_ZNSt12_Vector_baseIdSaIdEE12_Vector_implD2Ev(%"struct.std::_Vector_base<double, std::allocator<double> >::_Vector_impl"* %16) #3
  ret void

17:                                               ; preds = %1
  %18 = landingpad { i8*, i32 }
          catch i8* null
  %19 = extractvalue { i8*, i32 } %18, 0
  %20 = extractvalue { i8*, i32 } %18, 1
  %21 = getelementptr inbounds %"struct.std::_Vector_base.1", %"struct.std::_Vector_base.1"* %0, i32 0, i32 0
  call void @_ZNSt12_Vector_baseIdSaIdEE12_Vector_implD2Ev(%"struct.std::_Vector_base<double, std::allocator<double> >::_Vector_impl"* %21) #3
  br label %22

22:                                               ; preds = %17
  call void @__clang_call_terminate(i8* %19) #13
  unreachable
}

; Function Attrs: noinline uwtable
define linkonce_odr void @_ZSt8_DestroyIPdEvT_S1_(double* %0, double* %1) #0 comdat {
  call void @_ZNSt12_Destroy_auxILb1EE9__destroyIPdEEvT_S3_(double* %0, double* %1)
  ret void
}

; Function Attrs: noinline nounwind uwtable
define linkonce_odr void @_ZNSt12_Destroy_auxILb1EE9__destroyIPdEEvT_S3_(double* %0, double* %1) #1 comdat align 2 {
  ret void
}

; Function Attrs: noinline uwtable
define linkonce_odr void @_ZNSt12_Vector_baseIdSaIdEE13_M_deallocateEPdm(%"struct.std::_Vector_base.1"* %0, double* %1, i64 %2) #0 comdat align 2 {
  %4 = icmp ne double* %1, null
  br i1 %4, label %5, label %8

5:                                                ; preds = %3
  %6 = getelementptr inbounds %"struct.std::_Vector_base.1", %"struct.std::_Vector_base.1"* %0, i32 0, i32 0
  %7 = bitcast %"struct.std::_Vector_base<double, std::allocator<double> >::_Vector_impl"* %6 to %"class.std::allocator.2"*
  call void @_ZNSt16allocator_traitsISaIdEE10deallocateERS0_Pdm(%"class.std::allocator.2"* dereferenceable(1) %7, double* %1, i64 %2)
  br label %8

8:                                                ; preds = %5, %3
  ret void
}

; Function Attrs: noinline nounwind uwtable
define linkonce_odr void @_ZNSt12_Vector_baseIdSaIdEE12_Vector_implD2Ev(%"struct.std::_Vector_base<double, std::allocator<double> >::_Vector_impl"* %0) unnamed_addr #1 comdat align 2 {
  %2 = bitcast %"struct.std::_Vector_base<double, std::allocator<double> >::_Vector_impl"* %0 to %"class.std::allocator.2"*
  call void @_ZNSaIdED2Ev(%"class.std::allocator.2"* %2) #3
  ret void
}

; Function Attrs: noinline uwtable
define linkonce_odr void @_ZNSt16allocator_traitsISaIdEE10deallocateERS0_Pdm(%"class.std::allocator.2"* dereferenceable(1) %0, double* %1, i64 %2) #0 comdat align 2 {
  %4 = bitcast %"class.std::allocator.2"* %0 to %"class.__gnu_cxx::new_allocator.3"*
  call void @_ZN9__gnu_cxx13new_allocatorIdE10deallocateEPdm(%"class.__gnu_cxx::new_allocator.3"* %4, double* %1, i64 %2)
  ret void
}

; Function Attrs: noinline nounwind uwtable
define linkonce_odr void @_ZN9__gnu_cxx13new_allocatorIdE10deallocateEPdm(%"class.__gnu_cxx::new_allocator.3"* %0, double* %1, i64 %2) #1 comdat align 2 {
  %4 = bitcast double* %1 to i8*
  call void @_ZdlPv(i8* %4) #3
  ret void
}

; Function Attrs: noinline nounwind uwtable
define linkonce_odr void @_ZNSaIdED2Ev(%"class.std::allocator.2"* %0) unnamed_addr #1 comdat align 2 {
  %2 = bitcast %"class.std::allocator.2"* %0 to %"class.__gnu_cxx::new_allocator.3"*
  call void @_ZN9__gnu_cxx13new_allocatorIdED2Ev(%"class.__gnu_cxx::new_allocator.3"* %2) #3
  ret void
}

; Function Attrs: noinline nounwind uwtable
define linkonce_odr void @_ZN9__gnu_cxx13new_allocatorIdED2Ev(%"class.__gnu_cxx::new_allocator.3"* %0) unnamed_addr #1 comdat align 2 {
  ret void
}

; Function Attrs: noinline nounwind uwtable
define linkonce_odr void @_ZNSt12_Vector_baseISt7complexIdESaIS1_EEC2ERKS2_(%"struct.std::_Vector_base"* %0, %"class.std::allocator"* dereferenceable(1) %1) unnamed_addr #1 comdat align 2 {
  %3 = getelementptr inbounds %"struct.std::_Vector_base", %"struct.std::_Vector_base"* %0, i32 0, i32 0
  call void @_ZNSt12_Vector_baseISt7complexIdESaIS1_EE12_Vector_implC2ERKS2_(%"struct.std::_Vector_base<std::complex<double>, std::allocator<std::complex<double> > >::_Vector_impl"* %3, %"class.std::allocator"* dereferenceable(1) %1) #3
  ret void
}

; Function Attrs: noinline uwtable
define linkonce_odr void @_ZNSt6vectorISt7complexIdESaIS1_EE22_M_initialize_dispatchIPS1_EEvT_S6_St12__false_type(%"class.std::vector"* %0, %"struct.std::complex"* %1, %"struct.std::complex"* %2) #0 comdat align 2 {
  call void @_ZNSt6vectorISt7complexIdESaIS1_EE19_M_range_initializeIPS1_EEvT_S6_St20forward_iterator_tag(%"class.std::vector"* %0, %"struct.std::complex"* %1, %"struct.std::complex"* %2)
  ret void
}

; Function Attrs: noinline nounwind uwtable
define linkonce_odr void @_ZNSt12_Vector_baseISt7complexIdESaIS1_EE12_Vector_implC2ERKS2_(%"struct.std::_Vector_base<std::complex<double>, std::allocator<std::complex<double> > >::_Vector_impl"* %0, %"class.std::allocator"* dereferenceable(1) %1) unnamed_addr #1 comdat align 2 {
  %3 = bitcast %"struct.std::_Vector_base<std::complex<double>, std::allocator<std::complex<double> > >::_Vector_impl"* %0 to %"class.std::allocator"*
  call void @_ZNSaISt7complexIdEEC2ERKS1_(%"class.std::allocator"* %3, %"class.std::allocator"* dereferenceable(1) %1) #3
  %4 = getelementptr inbounds %"struct.std::_Vector_base<std::complex<double>, std::allocator<std::complex<double> > >::_Vector_impl", %"struct.std::_Vector_base<std::complex<double>, std::allocator<std::complex<double> > >::_Vector_impl"* %0, i32 0, i32 0
  store %"struct.std::complex"* null, %"struct.std::complex"** %4, align 8
  %5 = getelementptr inbounds %"struct.std::_Vector_base<std::complex<double>, std::allocator<std::complex<double> > >::_Vector_impl", %"struct.std::_Vector_base<std::complex<double>, std::allocator<std::complex<double> > >::_Vector_impl"* %0, i32 0, i32 1
  store %"struct.std::complex"* null, %"struct.std::complex"** %5, align 8
  %6 = getelementptr inbounds %"struct.std::_Vector_base<std::complex<double>, std::allocator<std::complex<double> > >::_Vector_impl", %"struct.std::_Vector_base<std::complex<double>, std::allocator<std::complex<double> > >::_Vector_impl"* %0, i32 0, i32 2
  store %"struct.std::complex"* null, %"struct.std::complex"** %6, align 8
  ret void
}

; Function Attrs: noinline nounwind uwtable
define linkonce_odr void @_ZNSaISt7complexIdEEC2ERKS1_(%"class.std::allocator"* %0, %"class.std::allocator"* dereferenceable(1) %1) unnamed_addr #1 comdat align 2 {
  %3 = bitcast %"class.std::allocator"* %0 to %"class.__gnu_cxx::new_allocator"*
  %4 = bitcast %"class.std::allocator"* %1 to %"class.__gnu_cxx::new_allocator"*
  call void @_ZN9__gnu_cxx13new_allocatorISt7complexIdEEC2ERKS3_(%"class.__gnu_cxx::new_allocator"* %3, %"class.__gnu_cxx::new_allocator"* dereferenceable(1) %4) #3
  ret void
}

; Function Attrs: noinline nounwind uwtable
define linkonce_odr void @_ZN9__gnu_cxx13new_allocatorISt7complexIdEEC2ERKS3_(%"class.__gnu_cxx::new_allocator"* %0, %"class.__gnu_cxx::new_allocator"* dereferenceable(1) %1) unnamed_addr #1 comdat align 2 {
  ret void
}

; Function Attrs: noinline uwtable
define linkonce_odr void @_ZNSt6vectorISt7complexIdESaIS1_EE19_M_range_initializeIPS1_EEvT_S6_St20forward_iterator_tag(%"class.std::vector"* %0, %"struct.std::complex"* %1, %"struct.std::complex"* %2) #0 comdat align 2 {
  %4 = call i64 @_ZSt8distanceIPSt7complexIdEENSt15iterator_traitsIT_E15difference_typeES4_S4_(%"struct.std::complex"* %1, %"struct.std::complex"* %2)
  %5 = bitcast %"class.std::vector"* %0 to %"struct.std::_Vector_base"*
  %6 = call %"struct.std::complex"* @_ZNSt12_Vector_baseISt7complexIdESaIS1_EE11_M_allocateEm(%"struct.std::_Vector_base"* %5, i64 %4)
  %7 = bitcast %"class.std::vector"* %0 to %"struct.std::_Vector_base"*
  %8 = getelementptr inbounds %"struct.std::_Vector_base", %"struct.std::_Vector_base"* %7, i32 0, i32 0
  %9 = getelementptr inbounds %"struct.std::_Vector_base<std::complex<double>, std::allocator<std::complex<double> > >::_Vector_impl", %"struct.std::_Vector_base<std::complex<double>, std::allocator<std::complex<double> > >::_Vector_impl"* %8, i32 0, i32 0
  store %"struct.std::complex"* %6, %"struct.std::complex"** %9, align 8
  %10 = bitcast %"class.std::vector"* %0 to %"struct.std::_Vector_base"*
  %11 = getelementptr inbounds %"struct.std::_Vector_base", %"struct.std::_Vector_base"* %10, i32 0, i32 0
  %12 = getelementptr inbounds %"struct.std::_Vector_base<std::complex<double>, std::allocator<std::complex<double> > >::_Vector_impl", %"struct.std::_Vector_base<std::complex<double>, std::allocator<std::complex<double> > >::_Vector_impl"* %11, i32 0, i32 0
  %13 = load %"struct.std::complex"*, %"struct.std::complex"** %12, align 8
  %14 = getelementptr inbounds %"struct.std::complex", %"struct.std::complex"* %13, i64 %4
  %15 = bitcast %"class.std::vector"* %0 to %"struct.std::_Vector_base"*
  %16 = getelementptr inbounds %"struct.std::_Vector_base", %"struct.std::_Vector_base"* %15, i32 0, i32 0
  %17 = getelementptr inbounds %"struct.std::_Vector_base<std::complex<double>, std::allocator<std::complex<double> > >::_Vector_impl", %"struct.std::_Vector_base<std::complex<double>, std::allocator<std::complex<double> > >::_Vector_impl"* %16, i32 0, i32 2
  store %"struct.std::complex"* %14, %"struct.std::complex"** %17, align 8
  %18 = bitcast %"class.std::vector"* %0 to %"struct.std::_Vector_base"*
  %19 = getelementptr inbounds %"struct.std::_Vector_base", %"struct.std::_Vector_base"* %18, i32 0, i32 0
  %20 = getelementptr inbounds %"struct.std::_Vector_base<std::complex<double>, std::allocator<std::complex<double> > >::_Vector_impl", %"struct.std::_Vector_base<std::complex<double>, std::allocator<std::complex<double> > >::_Vector_impl"* %19, i32 0, i32 0
  %21 = load %"struct.std::complex"*, %"struct.std::complex"** %20, align 8
  %22 = bitcast %"class.std::vector"* %0 to %"struct.std::_Vector_base"*
  %23 = call dereferenceable(1) %"class.std::allocator"* @_ZNSt12_Vector_baseISt7complexIdESaIS1_EE19_M_get_Tp_allocatorEv(%"struct.std::_Vector_base"* %22) #3
  %24 = call %"struct.std::complex"* @_ZSt22__uninitialized_copy_aIPSt7complexIdES2_S1_ET0_T_S4_S3_RSaIT1_E(%"struct.std::complex"* %1, %"struct.std::complex"* %2, %"struct.std::complex"* %21, %"class.std::allocator"* dereferenceable(1) %23)
  %25 = bitcast %"class.std::vector"* %0 to %"struct.std::_Vector_base"*
  %26 = getelementptr inbounds %"struct.std::_Vector_base", %"struct.std::_Vector_base"* %25, i32 0, i32 0
  %27 = getelementptr inbounds %"struct.std::_Vector_base<std::complex<double>, std::allocator<std::complex<double> > >::_Vector_impl", %"struct.std::_Vector_base<std::complex<double>, std::allocator<std::complex<double> > >::_Vector_impl"* %26, i32 0, i32 1
  store %"struct.std::complex"* %24, %"struct.std::complex"** %27, align 8
  ret void
}

; Function Attrs: noinline uwtable
define linkonce_odr i64 @_ZSt8distanceIPSt7complexIdEENSt15iterator_traitsIT_E15difference_typeES4_S4_(%"struct.std::complex"* %0, %"struct.std::complex"* %1) #0 comdat {
  %3 = alloca %"struct.std::complex"*, align 8
  store %"struct.std::complex"* %0, %"struct.std::complex"** %3, align 8
  %4 = load %"struct.std::complex"*, %"struct.std::complex"** %3, align 8
  call void @_ZSt19__iterator_categoryIPSt7complexIdEENSt15iterator_traitsIT_E17iterator_categoryERKS4_(%"struct.std::complex"** dereferenceable(8) %3)
  %5 = call i64 @_ZSt10__distanceIPSt7complexIdEENSt15iterator_traitsIT_E15difference_typeES4_S4_St26random_access_iterator_tag(%"struct.std::complex"* %4, %"struct.std::complex"* %1)
  ret i64 %5
}

; Function Attrs: noinline uwtable
define linkonce_odr %"struct.std::complex"* @_ZSt22__uninitialized_copy_aIPSt7complexIdES2_S1_ET0_T_S4_S3_RSaIT1_E(%"struct.std::complex"* %0, %"struct.std::complex"* %1, %"struct.std::complex"* %2, %"class.std::allocator"* dereferenceable(1) %3) #0 comdat {
  %5 = call %"struct.std::complex"* @_ZSt18uninitialized_copyIPSt7complexIdES2_ET0_T_S4_S3_(%"struct.std::complex"* %0, %"struct.std::complex"* %1, %"struct.std::complex"* %2)
  ret %"struct.std::complex"* %5
}

; Function Attrs: noinline nounwind uwtable
define linkonce_odr i64 @_ZSt10__distanceIPSt7complexIdEENSt15iterator_traitsIT_E15difference_typeES4_S4_St26random_access_iterator_tag(%"struct.std::complex"* %0, %"struct.std::complex"* %1) #1 comdat {
  %3 = ptrtoint %"struct.std::complex"* %1 to i64
  %4 = ptrtoint %"struct.std::complex"* %0 to i64
  %5 = sub i64 %3, %4
  %6 = sdiv exact i64 %5, 16
  ret i64 %6
}

; Function Attrs: noinline nounwind uwtable
define linkonce_odr void @_ZSt19__iterator_categoryIPSt7complexIdEENSt15iterator_traitsIT_E17iterator_categoryERKS4_(%"struct.std::complex"** dereferenceable(8) %0) #1 comdat {
  ret void
}

; Function Attrs: noinline uwtable
define linkonce_odr %"struct.std::complex"* @_ZSt18uninitialized_copyIPSt7complexIdES2_ET0_T_S4_S3_(%"struct.std::complex"* %0, %"struct.std::complex"* %1, %"struct.std::complex"* %2) #0 comdat {
  %4 = call %"struct.std::complex"* @_ZNSt20__uninitialized_copyILb0EE13__uninit_copyIPSt7complexIdES4_EET0_T_S6_S5_(%"struct.std::complex"* %0, %"struct.std::complex"* %1, %"struct.std::complex"* %2)
  ret %"struct.std::complex"* %4
}

; Function Attrs: noinline uwtable
define linkonce_odr %"struct.std::complex"* @_ZNSt20__uninitialized_copyILb0EE13__uninit_copyIPSt7complexIdES4_EET0_T_S6_S5_(%"struct.std::complex"* %0, %"struct.std::complex"* %1, %"struct.std::complex"* %2) #0 comdat align 2 personality i8* bitcast (i32 (...)* @__gxx_personality_v0 to i8*) {
  br label %4

4:                                                ; preds = %9, %3
  %.01 = phi %"struct.std::complex"* [ %2, %3 ], [ %11, %9 ]
  %.0 = phi %"struct.std::complex"* [ %0, %3 ], [ %10, %9 ]
  %5 = icmp ne %"struct.std::complex"* %.0, %1
  br i1 %5, label %6, label %19

6:                                                ; preds = %4
  %7 = call %"struct.std::complex"* @_ZSt11__addressofISt7complexIdEEPT_RS2_(%"struct.std::complex"* dereferenceable(16) %.01) #3
  invoke void @_ZSt10_ConstructISt7complexIdEJRS1_EEvPT_DpOT0_(%"struct.std::complex"* %7, %"struct.std::complex"* dereferenceable(16) %.0)
          to label %8 unwind label %12

8:                                                ; preds = %6
  br label %9

9:                                                ; preds = %8
  %10 = getelementptr inbounds %"struct.std::complex", %"struct.std::complex"* %.0, i32 1
  %11 = getelementptr inbounds %"struct.std::complex", %"struct.std::complex"* %.01, i32 1
  br label %4

12:                                               ; preds = %6
  %13 = landingpad { i8*, i32 }
          catch i8* null
  %14 = extractvalue { i8*, i32 } %13, 0
  %15 = extractvalue { i8*, i32 } %13, 1
  br label %16

16:                                               ; preds = %12
  %17 = call i8* @__cxa_begin_catch(i8* %14) #3
  invoke void @_ZSt8_DestroyIPSt7complexIdEEvT_S3_(%"struct.std::complex"* %2, %"struct.std::complex"* %.01)
          to label %18 unwind label %20

18:                                               ; preds = %16
  invoke void @__cxa_rethrow() #14
          to label %32 unwind label %20

19:                                               ; preds = %4
  ret %"struct.std::complex"* %.01

20:                                               ; preds = %18, %16
  %21 = landingpad { i8*, i32 }
          cleanup
  %22 = extractvalue { i8*, i32 } %21, 0
  %23 = extractvalue { i8*, i32 } %21, 1
  invoke void @__cxa_end_catch()
          to label %24 unwind label %29

24:                                               ; preds = %20
  br label %26

25:                                               ; No predecessors!
  call void @llvm.trap()
  unreachable

26:                                               ; preds = %24
  %27 = insertvalue { i8*, i32 } undef, i8* %22, 0
  %28 = insertvalue { i8*, i32 } %27, i32 %23, 1
  resume { i8*, i32 } %28

29:                                               ; preds = %20
  %30 = landingpad { i8*, i32 }
          catch i8* null
  %31 = extractvalue { i8*, i32 } %30, 0
  call void @__clang_call_terminate(i8* %31) #13
  unreachable

32:                                               ; preds = %18
  unreachable
}

; Function Attrs: noinline nounwind uwtable
define linkonce_odr void @_ZSt10_ConstructISt7complexIdEJRS1_EEvPT_DpOT0_(%"struct.std::complex"* %0, %"struct.std::complex"* dereferenceable(16) %1) #1 comdat {
  %3 = bitcast %"struct.std::complex"* %0 to i8*
  %4 = bitcast i8* %3 to %"struct.std::complex"*
  %5 = call dereferenceable(16) %"struct.std::complex"* @_ZSt7forwardIRSt7complexIdEEOT_RNSt16remove_referenceIS3_E4typeE(%"struct.std::complex"* dereferenceable(16) %1) #3
  %6 = bitcast %"struct.std::complex"* %4 to i8*
  %7 = bitcast %"struct.std::complex"* %5 to i8*
  call void @llvm.memcpy.p0i8.p0i8.i64(i8* align 8 %6, i8* align 8 %7, i64 16, i1 false)
  ret void
}

; Function Attrs: noinline nounwind uwtable
define linkonce_odr dereferenceable(16) %"struct.std::complex"* @_ZSt7forwardIRSt7complexIdEEOT_RNSt16remove_referenceIS3_E4typeE(%"struct.std::complex"* dereferenceable(16) %0) #1 comdat {
  ret %"struct.std::complex"* %0
}

; Function Attrs: noinline uwtable
define linkonce_odr void @_ZNSt6vectorIdSaIdEE17_M_default_appendEm(%"class.std::vector.0"* %0, i64 %1) #0 comdat align 2 personality i8* bitcast (i32 (...)* @__gxx_personality_v0 to i8*) {
  %3 = icmp ne i64 %1, 0
  br i1 %3, label %4, label %121

4:                                                ; preds = %2
  %5 = call i64 @_ZNKSt6vectorIdSaIdEE4sizeEv(%"class.std::vector.0"* %0) #3
  %6 = bitcast %"class.std::vector.0"* %0 to %"struct.std::_Vector_base.1"*
  %7 = getelementptr inbounds %"struct.std::_Vector_base.1", %"struct.std::_Vector_base.1"* %6, i32 0, i32 0
  %8 = getelementptr inbounds %"struct.std::_Vector_base<double, std::allocator<double> >::_Vector_impl", %"struct.std::_Vector_base<double, std::allocator<double> >::_Vector_impl"* %7, i32 0, i32 2
  %9 = load double*, double** %8, align 8
  %10 = bitcast %"class.std::vector.0"* %0 to %"struct.std::_Vector_base.1"*
  %11 = getelementptr inbounds %"struct.std::_Vector_base.1", %"struct.std::_Vector_base.1"* %10, i32 0, i32 0
  %12 = getelementptr inbounds %"struct.std::_Vector_base<double, std::allocator<double> >::_Vector_impl", %"struct.std::_Vector_base<double, std::allocator<double> >::_Vector_impl"* %11, i32 0, i32 1
  %13 = load double*, double** %12, align 8
  %14 = ptrtoint double* %9 to i64
  %15 = ptrtoint double* %13 to i64
  %16 = sub i64 %14, %15
  %17 = sdiv exact i64 %16, 8
  %18 = call i64 @_ZNKSt6vectorIdSaIdEE8max_sizeEv(%"class.std::vector.0"* %0) #3
  %19 = icmp ugt i64 %5, %18
  br i1 %19, label %24, label %20

20:                                               ; preds = %4
  %21 = call i64 @_ZNKSt6vectorIdSaIdEE8max_sizeEv(%"class.std::vector.0"* %0) #3
  %22 = sub i64 %21, %5
  %23 = icmp ugt i64 %17, %22
  br i1 %23, label %24, label %25

24:                                               ; preds = %20, %4
  unreachable

25:                                               ; preds = %20
  %26 = icmp uge i64 %17, %1
  br i1 %26, label %27, label %38

27:                                               ; preds = %25
  %28 = bitcast %"class.std::vector.0"* %0 to %"struct.std::_Vector_base.1"*
  %29 = getelementptr inbounds %"struct.std::_Vector_base.1", %"struct.std::_Vector_base.1"* %28, i32 0, i32 0
  %30 = getelementptr inbounds %"struct.std::_Vector_base<double, std::allocator<double> >::_Vector_impl", %"struct.std::_Vector_base<double, std::allocator<double> >::_Vector_impl"* %29, i32 0, i32 1
  %31 = load double*, double** %30, align 8
  %32 = bitcast %"class.std::vector.0"* %0 to %"struct.std::_Vector_base.1"*
  %33 = call dereferenceable(1) %"class.std::allocator.2"* @_ZNSt12_Vector_baseIdSaIdEE19_M_get_Tp_allocatorEv(%"struct.std::_Vector_base.1"* %32) #3
  %34 = call double* @_ZSt27__uninitialized_default_n_aIPdmdET_S1_T0_RSaIT1_E(double* %31, i64 %1, %"class.std::allocator.2"* dereferenceable(1) %33)
  %35 = bitcast %"class.std::vector.0"* %0 to %"struct.std::_Vector_base.1"*
  %36 = getelementptr inbounds %"struct.std::_Vector_base.1", %"struct.std::_Vector_base.1"* %35, i32 0, i32 0
  %37 = getelementptr inbounds %"struct.std::_Vector_base<double, std::allocator<double> >::_Vector_impl", %"struct.std::_Vector_base<double, std::allocator<double> >::_Vector_impl"* %36, i32 0, i32 1
  store double* %34, double** %37, align 8
  br label %120

38:                                               ; preds = %25
  %39 = call i64 @_ZNKSt6vectorIdSaIdEE12_M_check_lenEmPKc(%"class.std::vector.0"* %0, i64 %1, i8* getelementptr inbounds ([26 x i8], [26 x i8]* @.str.6, i32 0, i32 0))
  %40 = bitcast %"class.std::vector.0"* %0 to %"struct.std::_Vector_base.1"*
  %41 = call double* @_ZNSt12_Vector_baseIdSaIdEE11_M_allocateEm(%"struct.std::_Vector_base.1"* %40, i64 %39)
  %42 = getelementptr inbounds double, double* %41, i64 %5
  %43 = bitcast %"class.std::vector.0"* %0 to %"struct.std::_Vector_base.1"*
  %44 = call dereferenceable(1) %"class.std::allocator.2"* @_ZNSt12_Vector_baseIdSaIdEE19_M_get_Tp_allocatorEv(%"struct.std::_Vector_base.1"* %43) #3
  %45 = invoke double* @_ZSt27__uninitialized_default_n_aIPdmdET_S1_T0_RSaIT1_E(double* %42, i64 %1, %"class.std::allocator.2"* dereferenceable(1) %44)
          to label %46 unwind label %60

46:                                               ; preds = %38
  %47 = getelementptr inbounds double, double* %41, i64 %5
  %48 = bitcast %"class.std::vector.0"* %0 to %"struct.std::_Vector_base.1"*
  %49 = getelementptr inbounds %"struct.std::_Vector_base.1", %"struct.std::_Vector_base.1"* %48, i32 0, i32 0
  %50 = getelementptr inbounds %"struct.std::_Vector_base<double, std::allocator<double> >::_Vector_impl", %"struct.std::_Vector_base<double, std::allocator<double> >::_Vector_impl"* %49, i32 0, i32 0
  %51 = load double*, double** %50, align 8
  %52 = bitcast %"class.std::vector.0"* %0 to %"struct.std::_Vector_base.1"*
  %53 = getelementptr inbounds %"struct.std::_Vector_base.1", %"struct.std::_Vector_base.1"* %52, i32 0, i32 0
  %54 = getelementptr inbounds %"struct.std::_Vector_base<double, std::allocator<double> >::_Vector_impl", %"struct.std::_Vector_base<double, std::allocator<double> >::_Vector_impl"* %53, i32 0, i32 1
  %55 = load double*, double** %54, align 8
  %56 = bitcast %"class.std::vector.0"* %0 to %"struct.std::_Vector_base.1"*
  %57 = call dereferenceable(1) %"class.std::allocator.2"* @_ZNSt12_Vector_baseIdSaIdEE19_M_get_Tp_allocatorEv(%"struct.std::_Vector_base.1"* %56) #3
  %58 = invoke double* @_ZSt34__uninitialized_move_if_noexcept_aIPdS0_SaIdEET0_T_S3_S2_RT1_(double* %51, double* %55, double* %41, %"class.std::allocator.2"* dereferenceable(1) %57)
          to label %59 unwind label %60

59:                                               ; preds = %46
  br label %80

60:                                               ; preds = %46, %38
  %.0 = phi double* [ %47, %46 ], [ null, %38 ]
  %61 = landingpad { i8*, i32 }
          catch i8* null
  %62 = extractvalue { i8*, i32 } %61, 0
  %63 = extractvalue { i8*, i32 } %61, 1
  br label %64

64:                                               ; preds = %60
  %65 = call i8* @__cxa_begin_catch(i8* %62) #3
  %66 = icmp ne double* %.0, null
  br i1 %66, label %67, label %76

67:                                               ; preds = %64
  %68 = getelementptr inbounds double, double* %.0, i64 %1
  %69 = bitcast %"class.std::vector.0"* %0 to %"struct.std::_Vector_base.1"*
  %70 = call dereferenceable(1) %"class.std::allocator.2"* @_ZNSt12_Vector_baseIdSaIdEE19_M_get_Tp_allocatorEv(%"struct.std::_Vector_base.1"* %69) #3
  invoke void @_ZSt8_DestroyIPddEvT_S1_RSaIT0_E(double* %.0, double* %68, %"class.std::allocator.2"* dereferenceable(1) %70)
          to label %71 unwind label %72

71:                                               ; preds = %67
  br label %76

72:                                               ; preds = %78, %76, %67
  %73 = landingpad { i8*, i32 }
          cleanup
  %74 = extractvalue { i8*, i32 } %73, 0
  %75 = extractvalue { i8*, i32 } %73, 1
  invoke void @__cxa_end_catch()
          to label %79 unwind label %125

76:                                               ; preds = %71, %64
  %77 = bitcast %"class.std::vector.0"* %0 to %"struct.std::_Vector_base.1"*
  invoke void @_ZNSt12_Vector_baseIdSaIdEE13_M_deallocateEPdm(%"struct.std::_Vector_base.1"* %77, double* %41, i64 %39)
          to label %78 unwind label %72

78:                                               ; preds = %76
  invoke void @__cxa_rethrow() #14
          to label %128 unwind label %72

79:                                               ; preds = %72
  br label %122

80:                                               ; preds = %59
  %81 = bitcast %"class.std::vector.0"* %0 to %"struct.std::_Vector_base.1"*
  %82 = getelementptr inbounds %"struct.std::_Vector_base.1", %"struct.std::_Vector_base.1"* %81, i32 0, i32 0
  %83 = getelementptr inbounds %"struct.std::_Vector_base<double, std::allocator<double> >::_Vector_impl", %"struct.std::_Vector_base<double, std::allocator<double> >::_Vector_impl"* %82, i32 0, i32 0
  %84 = load double*, double** %83, align 8
  %85 = bitcast %"class.std::vector.0"* %0 to %"struct.std::_Vector_base.1"*
  %86 = getelementptr inbounds %"struct.std::_Vector_base.1", %"struct.std::_Vector_base.1"* %85, i32 0, i32 0
  %87 = getelementptr inbounds %"struct.std::_Vector_base<double, std::allocator<double> >::_Vector_impl", %"struct.std::_Vector_base<double, std::allocator<double> >::_Vector_impl"* %86, i32 0, i32 1
  %88 = load double*, double** %87, align 8
  %89 = bitcast %"class.std::vector.0"* %0 to %"struct.std::_Vector_base.1"*
  %90 = call dereferenceable(1) %"class.std::allocator.2"* @_ZNSt12_Vector_baseIdSaIdEE19_M_get_Tp_allocatorEv(%"struct.std::_Vector_base.1"* %89) #3
  call void @_ZSt8_DestroyIPddEvT_S1_RSaIT0_E(double* %84, double* %88, %"class.std::allocator.2"* dereferenceable(1) %90)
  %91 = bitcast %"class.std::vector.0"* %0 to %"struct.std::_Vector_base.1"*
  %92 = bitcast %"class.std::vector.0"* %0 to %"struct.std::_Vector_base.1"*
  %93 = getelementptr inbounds %"struct.std::_Vector_base.1", %"struct.std::_Vector_base.1"* %92, i32 0, i32 0
  %94 = getelementptr inbounds %"struct.std::_Vector_base<double, std::allocator<double> >::_Vector_impl", %"struct.std::_Vector_base<double, std::allocator<double> >::_Vector_impl"* %93, i32 0, i32 0
  %95 = load double*, double** %94, align 8
  %96 = bitcast %"class.std::vector.0"* %0 to %"struct.std::_Vector_base.1"*
  %97 = getelementptr inbounds %"struct.std::_Vector_base.1", %"struct.std::_Vector_base.1"* %96, i32 0, i32 0
  %98 = getelementptr inbounds %"struct.std::_Vector_base<double, std::allocator<double> >::_Vector_impl", %"struct.std::_Vector_base<double, std::allocator<double> >::_Vector_impl"* %97, i32 0, i32 2
  %99 = load double*, double** %98, align 8
  %100 = bitcast %"class.std::vector.0"* %0 to %"struct.std::_Vector_base.1"*
  %101 = getelementptr inbounds %"struct.std::_Vector_base.1", %"struct.std::_Vector_base.1"* %100, i32 0, i32 0
  %102 = getelementptr inbounds %"struct.std::_Vector_base<double, std::allocator<double> >::_Vector_impl", %"struct.std::_Vector_base<double, std::allocator<double> >::_Vector_impl"* %101, i32 0, i32 0
  %103 = load double*, double** %102, align 8
  %104 = ptrtoint double* %99 to i64
  %105 = ptrtoint double* %103 to i64
  %106 = sub i64 %104, %105
  %107 = sdiv exact i64 %106, 8
  call void @_ZNSt12_Vector_baseIdSaIdEE13_M_deallocateEPdm(%"struct.std::_Vector_base.1"* %91, double* %95, i64 %107)
  %108 = bitcast %"class.std::vector.0"* %0 to %"struct.std::_Vector_base.1"*
  %109 = getelementptr inbounds %"struct.std::_Vector_base.1", %"struct.std::_Vector_base.1"* %108, i32 0, i32 0
  %110 = getelementptr inbounds %"struct.std::_Vector_base<double, std::allocator<double> >::_Vector_impl", %"struct.std::_Vector_base<double, std::allocator<double> >::_Vector_impl"* %109, i32 0, i32 0
  store double* %41, double** %110, align 8
  %111 = getelementptr inbounds double, double* %41, i64 %5
  %112 = getelementptr inbounds double, double* %111, i64 %1
  %113 = bitcast %"class.std::vector.0"* %0 to %"struct.std::_Vector_base.1"*
  %114 = getelementptr inbounds %"struct.std::_Vector_base.1", %"struct.std::_Vector_base.1"* %113, i32 0, i32 0
  %115 = getelementptr inbounds %"struct.std::_Vector_base<double, std::allocator<double> >::_Vector_impl", %"struct.std::_Vector_base<double, std::allocator<double> >::_Vector_impl"* %114, i32 0, i32 1
  store double* %112, double** %115, align 8
  %116 = getelementptr inbounds double, double* %41, i64 %39
  %117 = bitcast %"class.std::vector.0"* %0 to %"struct.std::_Vector_base.1"*
  %118 = getelementptr inbounds %"struct.std::_Vector_base.1", %"struct.std::_Vector_base.1"* %117, i32 0, i32 0
  %119 = getelementptr inbounds %"struct.std::_Vector_base<double, std::allocator<double> >::_Vector_impl", %"struct.std::_Vector_base<double, std::allocator<double> >::_Vector_impl"* %118, i32 0, i32 2
  store double* %116, double** %119, align 8
  br label %120

120:                                              ; preds = %80, %27
  br label %121

121:                                              ; preds = %120, %2
  ret void

122:                                              ; preds = %79
  %123 = insertvalue { i8*, i32 } undef, i8* %74, 0
  %124 = insertvalue { i8*, i32 } %123, i32 %75, 1
  resume { i8*, i32 } %124

125:                                              ; preds = %72
  %126 = landingpad { i8*, i32 }
          catch i8* null
  %127 = extractvalue { i8*, i32 } %126, 0
  call void @__clang_call_terminate(i8* %127) #13
  unreachable

128:                                              ; preds = %78
  unreachable
}

; Function Attrs: noinline nounwind uwtable
define linkonce_odr void @_ZNSt6vectorIdSaIdEE15_M_erase_at_endEPd(%"class.std::vector.0"* %0, double* %1) #1 comdat align 2 personality i8* bitcast (i32 (...)* @__gxx_personality_v0 to i8*) {
  %3 = bitcast %"class.std::vector.0"* %0 to %"struct.std::_Vector_base.1"*
  %4 = getelementptr inbounds %"struct.std::_Vector_base.1", %"struct.std::_Vector_base.1"* %3, i32 0, i32 0
  %5 = getelementptr inbounds %"struct.std::_Vector_base<double, std::allocator<double> >::_Vector_impl", %"struct.std::_Vector_base<double, std::allocator<double> >::_Vector_impl"* %4, i32 0, i32 1
  %6 = load double*, double** %5, align 8
  %7 = ptrtoint double* %6 to i64
  %8 = ptrtoint double* %1 to i64
  %9 = sub i64 %7, %8
  %10 = sdiv exact i64 %9, 8
  %11 = icmp ne i64 %10, 0
  br i1 %11, label %12, label %23

12:                                               ; preds = %2
  %13 = bitcast %"class.std::vector.0"* %0 to %"struct.std::_Vector_base.1"*
  %14 = getelementptr inbounds %"struct.std::_Vector_base.1", %"struct.std::_Vector_base.1"* %13, i32 0, i32 0
  %15 = getelementptr inbounds %"struct.std::_Vector_base<double, std::allocator<double> >::_Vector_impl", %"struct.std::_Vector_base<double, std::allocator<double> >::_Vector_impl"* %14, i32 0, i32 1
  %16 = load double*, double** %15, align 8
  %17 = bitcast %"class.std::vector.0"* %0 to %"struct.std::_Vector_base.1"*
  %18 = call dereferenceable(1) %"class.std::allocator.2"* @_ZNSt12_Vector_baseIdSaIdEE19_M_get_Tp_allocatorEv(%"struct.std::_Vector_base.1"* %17) #3
  invoke void @_ZSt8_DestroyIPddEvT_S1_RSaIT0_E(double* %1, double* %16, %"class.std::allocator.2"* dereferenceable(1) %18)
          to label %19 unwind label %24

19:                                               ; preds = %12
  %20 = bitcast %"class.std::vector.0"* %0 to %"struct.std::_Vector_base.1"*
  %21 = getelementptr inbounds %"struct.std::_Vector_base.1", %"struct.std::_Vector_base.1"* %20, i32 0, i32 0
  %22 = getelementptr inbounds %"struct.std::_Vector_base<double, std::allocator<double> >::_Vector_impl", %"struct.std::_Vector_base<double, std::allocator<double> >::_Vector_impl"* %21, i32 0, i32 1
  store double* %1, double** %22, align 8
  br label %23

23:                                               ; preds = %19, %2
  ret void

24:                                               ; preds = %12
  %25 = landingpad { i8*, i32 }
          catch i8* null
  %26 = extractvalue { i8*, i32 } %25, 0
  call void @__clang_call_terminate(i8* %26) #13
  unreachable
}

; Function Attrs: noinline nounwind uwtable
define linkonce_odr i64 @_ZNKSt6vectorIdSaIdEE8max_sizeEv(%"class.std::vector.0"* %0) #1 comdat align 2 {
  %2 = bitcast %"class.std::vector.0"* %0 to %"struct.std::_Vector_base.1"*
  %3 = call dereferenceable(1) %"class.std::allocator.2"* @_ZNKSt12_Vector_baseIdSaIdEE19_M_get_Tp_allocatorEv(%"struct.std::_Vector_base.1"* %2) #3
  %4 = call i64 @_ZNSt16allocator_traitsISaIdEE8max_sizeERKS0_(%"class.std::allocator.2"* dereferenceable(1) %3) #3
  ret i64 %4
}

; Function Attrs: noinline uwtable
define linkonce_odr double* @_ZSt27__uninitialized_default_n_aIPdmdET_S1_T0_RSaIT1_E(double* %0, i64 %1, %"class.std::allocator.2"* dereferenceable(1) %2) #0 comdat {
  %4 = call double* @_ZSt25__uninitialized_default_nIPdmET_S1_T0_(double* %0, i64 %1)
  ret double* %4
}

; Function Attrs: noinline uwtable
define linkonce_odr i64 @_ZNKSt6vectorIdSaIdEE12_M_check_lenEmPKc(%"class.std::vector.0"* %0, i64 %1, i8* %2) #0 comdat align 2 {
  %4 = alloca i64, align 8
  %5 = alloca i64, align 8
  store i64 %1, i64* %4, align 8
  %6 = call i64 @_ZNKSt6vectorIdSaIdEE8max_sizeEv(%"class.std::vector.0"* %0) #3
  %7 = call i64 @_ZNKSt6vectorIdSaIdEE4sizeEv(%"class.std::vector.0"* %0) #3
  %8 = sub i64 %6, %7
  %9 = load i64, i64* %4, align 8
  %10 = icmp ult i64 %8, %9
  br i1 %10, label %11, label %12

11:                                               ; preds = %3
  call void @_ZSt20__throw_length_errorPKc(i8* %2) #14
  unreachable

12:                                               ; preds = %3
  %13 = call i64 @_ZNKSt6vectorIdSaIdEE4sizeEv(%"class.std::vector.0"* %0) #3
  %14 = call i64 @_ZNKSt6vectorIdSaIdEE4sizeEv(%"class.std::vector.0"* %0) #3
  store i64 %14, i64* %5, align 8
  %15 = call dereferenceable(8) i64* @_ZSt3maxImERKT_S2_S2_(i64* dereferenceable(8) %5, i64* dereferenceable(8) %4)
  %16 = load i64, i64* %15, align 8
  %17 = add i64 %13, %16
  %18 = call i64 @_ZNKSt6vectorIdSaIdEE4sizeEv(%"class.std::vector.0"* %0) #3
  %19 = icmp ult i64 %17, %18
  br i1 %19, label %23, label %20

20:                                               ; preds = %12
  %21 = call i64 @_ZNKSt6vectorIdSaIdEE8max_sizeEv(%"class.std::vector.0"* %0) #3
  %22 = icmp ugt i64 %17, %21
  br i1 %22, label %23, label %25

23:                                               ; preds = %20, %12
  %24 = call i64 @_ZNKSt6vectorIdSaIdEE8max_sizeEv(%"class.std::vector.0"* %0) #3
  br label %26

25:                                               ; preds = %20
  br label %26

26:                                               ; preds = %25, %23
  %27 = phi i64 [ %24, %23 ], [ %17, %25 ]
  ret i64 %27
}

; Function Attrs: noinline uwtable
define linkonce_odr double* @_ZNSt12_Vector_baseIdSaIdEE11_M_allocateEm(%"struct.std::_Vector_base.1"* %0, i64 %1) #0 comdat align 2 {
  %3 = icmp ne i64 %1, 0
  br i1 %3, label %4, label %8

4:                                                ; preds = %2
  %5 = getelementptr inbounds %"struct.std::_Vector_base.1", %"struct.std::_Vector_base.1"* %0, i32 0, i32 0
  %6 = bitcast %"struct.std::_Vector_base<double, std::allocator<double> >::_Vector_impl"* %5 to %"class.std::allocator.2"*
  %7 = call double* @_ZNSt16allocator_traitsISaIdEE8allocateERS0_m(%"class.std::allocator.2"* dereferenceable(1) %6, i64 %1)
  br label %9

8:                                                ; preds = %2
  br label %9

9:                                                ; preds = %8, %4
  %10 = phi double* [ %7, %4 ], [ null, %8 ]
  ret double* %10
}

; Function Attrs: noinline uwtable
define linkonce_odr double* @_ZSt34__uninitialized_move_if_noexcept_aIPdS0_SaIdEET0_T_S3_S2_RT1_(double* %0, double* %1, double* %2, %"class.std::allocator.2"* dereferenceable(1) %3) #0 comdat {
  %5 = alloca %"class.std::move_iterator.5", align 8
  %6 = alloca %"class.std::move_iterator.5", align 8
  %7 = call double* @_ZSt32__make_move_if_noexcept_iteratorIdSt13move_iteratorIPdEET0_PT_(double* %0)
  %8 = getelementptr inbounds %"class.std::move_iterator.5", %"class.std::move_iterator.5"* %5, i32 0, i32 0
  store double* %7, double** %8, align 8
  %9 = call double* @_ZSt32__make_move_if_noexcept_iteratorIdSt13move_iteratorIPdEET0_PT_(double* %1)
  %10 = getelementptr inbounds %"class.std::move_iterator.5", %"class.std::move_iterator.5"* %6, i32 0, i32 0
  store double* %9, double** %10, align 8
  %11 = getelementptr inbounds %"class.std::move_iterator.5", %"class.std::move_iterator.5"* %5, i32 0, i32 0
  %12 = load double*, double** %11, align 8
  %13 = getelementptr inbounds %"class.std::move_iterator.5", %"class.std::move_iterator.5"* %6, i32 0, i32 0
  %14 = load double*, double** %13, align 8
  %15 = call double* @_ZSt22__uninitialized_copy_aISt13move_iteratorIPdES1_dET0_T_S4_S3_RSaIT1_E(double* %12, double* %14, double* %2, %"class.std::allocator.2"* dereferenceable(1) %3)
  ret double* %15
}

; Function Attrs: noinline nounwind uwtable
define linkonce_odr i64 @_ZNSt16allocator_traitsISaIdEE8max_sizeERKS0_(%"class.std::allocator.2"* dereferenceable(1) %0) #1 comdat align 2 {
  %2 = bitcast %"class.std::allocator.2"* %0 to %"class.__gnu_cxx::new_allocator.3"*
  %3 = call i64 @_ZNK9__gnu_cxx13new_allocatorIdE8max_sizeEv(%"class.__gnu_cxx::new_allocator.3"* %2) #3
  ret i64 %3
}

; Function Attrs: noinline nounwind uwtable
define linkonce_odr dereferenceable(1) %"class.std::allocator.2"* @_ZNKSt12_Vector_baseIdSaIdEE19_M_get_Tp_allocatorEv(%"struct.std::_Vector_base.1"* %0) #1 comdat align 2 {
  %2 = getelementptr inbounds %"struct.std::_Vector_base.1", %"struct.std::_Vector_base.1"* %0, i32 0, i32 0
  %3 = bitcast %"struct.std::_Vector_base<double, std::allocator<double> >::_Vector_impl"* %2 to %"class.std::allocator.2"*
  ret %"class.std::allocator.2"* %3
}

; Function Attrs: noinline nounwind uwtable
define linkonce_odr i64 @_ZNK9__gnu_cxx13new_allocatorIdE8max_sizeEv(%"class.__gnu_cxx::new_allocator.3"* %0) #1 comdat align 2 {
  ret i64 2305843009213693951
}

; Function Attrs: noinline uwtable
define linkonce_odr double* @_ZSt25__uninitialized_default_nIPdmET_S1_T0_(double* %0, i64 %1) #0 comdat {
  %3 = call double* @_ZNSt27__uninitialized_default_n_1ILb1EE18__uninit_default_nIPdmEET_S3_T0_(double* %0, i64 %1)
  ret double* %3
}

; Function Attrs: noinline uwtable
define linkonce_odr double* @_ZNSt27__uninitialized_default_n_1ILb1EE18__uninit_default_nIPdmEET_S3_T0_(double* %0, i64 %1) #0 comdat align 2 {
  %3 = alloca double, align 8
  store double 0.000000e+00, double* %3, align 8
  %4 = call double* @_ZSt6fill_nIPdmdET_S1_T0_RKT1_(double* %0, i64 %1, double* dereferenceable(8) %3)
  ret double* %4
}

; Function Attrs: noinline uwtable
define linkonce_odr double* @_ZSt6fill_nIPdmdET_S1_T0_RKT1_(double* %0, i64 %1, double* dereferenceable(8) %2) #0 comdat {
  %4 = call double* @_ZSt12__niter_baseIPdET_S1_(double* %0)
  %5 = call double* @_ZSt10__fill_n_aIPdmdEN9__gnu_cxx11__enable_ifIXsr11__is_scalarIT1_EE7__valueET_E6__typeES4_T0_RKS3_(double* %4, i64 %1, double* dereferenceable(8) %2)
  ret double* %5
}

; Function Attrs: noinline nounwind uwtable
define linkonce_odr double* @_ZSt10__fill_n_aIPdmdEN9__gnu_cxx11__enable_ifIXsr11__is_scalarIT1_EE7__valueET_E6__typeES4_T0_RKS3_(double* %0, i64 %1, double* dereferenceable(8) %2) #1 comdat {
  %4 = load double, double* %2, align 8
  br label %5

5:                                                ; preds = %8, %3
  %.01 = phi i64 [ %1, %3 ], [ %9, %8 ]
  %.0 = phi double* [ %0, %3 ], [ %10, %8 ]
  %6 = icmp ugt i64 %.01, 0
  br i1 %6, label %7, label %11

7:                                                ; preds = %5
  store double %4, double* %.0, align 8
  br label %8

8:                                                ; preds = %7
  %9 = add i64 %.01, -1
  %10 = getelementptr inbounds double, double* %.0, i32 1
  br label %5

11:                                               ; preds = %5
  ret double* %.0
}

; Function Attrs: noinline nounwind uwtable
define linkonce_odr double* @_ZSt12__niter_baseIPdET_S1_(double* %0) #1 comdat {
  ret double* %0
}

; Function Attrs: noinline uwtable
define linkonce_odr double* @_ZNSt16allocator_traitsISaIdEE8allocateERS0_m(%"class.std::allocator.2"* dereferenceable(1) %0, i64 %1) #0 comdat align 2 {
  %3 = bitcast %"class.std::allocator.2"* %0 to %"class.__gnu_cxx::new_allocator.3"*
  %4 = call double* @_ZN9__gnu_cxx13new_allocatorIdE8allocateEmPKv(%"class.__gnu_cxx::new_allocator.3"* %3, i64 %1, i8* null)
  ret double* %4
}

; Function Attrs: noinline uwtable
define linkonce_odr double* @_ZN9__gnu_cxx13new_allocatorIdE8allocateEmPKv(%"class.__gnu_cxx::new_allocator.3"* %0, i64 %1, i8* %2) #0 comdat align 2 {
  %4 = call i64 @_ZNK9__gnu_cxx13new_allocatorIdE8max_sizeEv(%"class.__gnu_cxx::new_allocator.3"* %0) #3
  %5 = icmp ugt i64 %1, %4
  br i1 %5, label %6, label %7

6:                                                ; preds = %3
  call void @_ZSt17__throw_bad_allocv() #14
  unreachable

7:                                                ; preds = %3
  %8 = mul i64 %1, 8
  %9 = call i8* @_Znwm(i64 %8)
  %10 = bitcast i8* %9 to double*
  ret double* %10
}

; Function Attrs: noinline uwtable
define linkonce_odr double* @_ZSt22__uninitialized_copy_aISt13move_iteratorIPdES1_dET0_T_S4_S3_RSaIT1_E(double* %0, double* %1, double* %2, %"class.std::allocator.2"* dereferenceable(1) %3) #0 comdat {
  %5 = alloca %"class.std::move_iterator.5", align 8
  %6 = alloca %"class.std::move_iterator.5", align 8
  %7 = alloca %"class.std::move_iterator.5", align 8
  %8 = alloca %"class.std::move_iterator.5", align 8
  %9 = getelementptr inbounds %"class.std::move_iterator.5", %"class.std::move_iterator.5"* %5, i32 0, i32 0
  store double* %0, double** %9, align 8
  %10 = getelementptr inbounds %"class.std::move_iterator.5", %"class.std::move_iterator.5"* %6, i32 0, i32 0
  store double* %1, double** %10, align 8
  %11 = bitcast %"class.std::move_iterator.5"* %7 to i8*
  %12 = bitcast %"class.std::move_iterator.5"* %5 to i8*
  call void @llvm.memcpy.p0i8.p0i8.i64(i8* align 8 %11, i8* align 8 %12, i64 8, i1 false)
  %13 = bitcast %"class.std::move_iterator.5"* %8 to i8*
  %14 = bitcast %"class.std::move_iterator.5"* %6 to i8*
  call void @llvm.memcpy.p0i8.p0i8.i64(i8* align 8 %13, i8* align 8 %14, i64 8, i1 false)
  %15 = getelementptr inbounds %"class.std::move_iterator.5", %"class.std::move_iterator.5"* %7, i32 0, i32 0
  %16 = load double*, double** %15, align 8
  %17 = getelementptr inbounds %"class.std::move_iterator.5", %"class.std::move_iterator.5"* %8, i32 0, i32 0
  %18 = load double*, double** %17, align 8
  %19 = call double* @_ZSt18uninitialized_copyISt13move_iteratorIPdES1_ET0_T_S4_S3_(double* %16, double* %18, double* %2)
  ret double* %19
}

; Function Attrs: noinline uwtable
define linkonce_odr double* @_ZSt32__make_move_if_noexcept_iteratorIdSt13move_iteratorIPdEET0_PT_(double* %0) #0 comdat {
  %2 = alloca %"class.std::move_iterator.5", align 8
  call void @_ZNSt13move_iteratorIPdEC2ES0_(%"class.std::move_iterator.5"* %2, double* %0)
  %3 = getelementptr inbounds %"class.std::move_iterator.5", %"class.std::move_iterator.5"* %2, i32 0, i32 0
  %4 = load double*, double** %3, align 8
  ret double* %4
}

; Function Attrs: noinline uwtable
define linkonce_odr double* @_ZSt18uninitialized_copyISt13move_iteratorIPdES1_ET0_T_S4_S3_(double* %0, double* %1, double* %2) #0 comdat {
  %4 = alloca %"class.std::move_iterator.5", align 8
  %5 = alloca %"class.std::move_iterator.5", align 8
  %6 = alloca %"class.std::move_iterator.5", align 8
  %7 = alloca %"class.std::move_iterator.5", align 8
  %8 = getelementptr inbounds %"class.std::move_iterator.5", %"class.std::move_iterator.5"* %4, i32 0, i32 0
  store double* %0, double** %8, align 8
  %9 = getelementptr inbounds %"class.std::move_iterator.5", %"class.std::move_iterator.5"* %5, i32 0, i32 0
  store double* %1, double** %9, align 8
  %10 = bitcast %"class.std::move_iterator.5"* %6 to i8*
  %11 = bitcast %"class.std::move_iterator.5"* %4 to i8*
  call void @llvm.memcpy.p0i8.p0i8.i64(i8* align 8 %10, i8* align 8 %11, i64 8, i1 false)
  %12 = bitcast %"class.std::move_iterator.5"* %7 to i8*
  %13 = bitcast %"class.std::move_iterator.5"* %5 to i8*
  call void @llvm.memcpy.p0i8.p0i8.i64(i8* align 8 %12, i8* align 8 %13, i64 8, i1 false)
  %14 = getelementptr inbounds %"class.std::move_iterator.5", %"class.std::move_iterator.5"* %6, i32 0, i32 0
  %15 = load double*, double** %14, align 8
  %16 = getelementptr inbounds %"class.std::move_iterator.5", %"class.std::move_iterator.5"* %7, i32 0, i32 0
  %17 = load double*, double** %16, align 8
  %18 = call double* @_ZNSt20__uninitialized_copyILb1EE13__uninit_copyISt13move_iteratorIPdES3_EET0_T_S6_S5_(double* %15, double* %17, double* %2)
  ret double* %18
}

; Function Attrs: noinline uwtable
define linkonce_odr double* @_ZNSt20__uninitialized_copyILb1EE13__uninit_copyISt13move_iteratorIPdES3_EET0_T_S6_S5_(double* %0, double* %1, double* %2) #0 comdat align 2 {
  %4 = alloca %"class.std::move_iterator.5", align 8
  %5 = alloca %"class.std::move_iterator.5", align 8
  %6 = alloca %"class.std::move_iterator.5", align 8
  %7 = alloca %"class.std::move_iterator.5", align 8
  %8 = getelementptr inbounds %"class.std::move_iterator.5", %"class.std::move_iterator.5"* %4, i32 0, i32 0
  store double* %0, double** %8, align 8
  %9 = getelementptr inbounds %"class.std::move_iterator.5", %"class.std::move_iterator.5"* %5, i32 0, i32 0
  store double* %1, double** %9, align 8
  %10 = bitcast %"class.std::move_iterator.5"* %6 to i8*
  %11 = bitcast %"class.std::move_iterator.5"* %4 to i8*
  call void @llvm.memcpy.p0i8.p0i8.i64(i8* align 8 %10, i8* align 8 %11, i64 8, i1 false)
  %12 = bitcast %"class.std::move_iterator.5"* %7 to i8*
  %13 = bitcast %"class.std::move_iterator.5"* %5 to i8*
  call void @llvm.memcpy.p0i8.p0i8.i64(i8* align 8 %12, i8* align 8 %13, i64 8, i1 false)
  %14 = getelementptr inbounds %"class.std::move_iterator.5", %"class.std::move_iterator.5"* %6, i32 0, i32 0
  %15 = load double*, double** %14, align 8
  %16 = getelementptr inbounds %"class.std::move_iterator.5", %"class.std::move_iterator.5"* %7, i32 0, i32 0
  %17 = load double*, double** %16, align 8
  %18 = call double* @_ZSt4copyISt13move_iteratorIPdES1_ET0_T_S4_S3_(double* %15, double* %17, double* %2)
  ret double* %18
}

; Function Attrs: noinline uwtable
define linkonce_odr double* @_ZSt4copyISt13move_iteratorIPdES1_ET0_T_S4_S3_(double* %0, double* %1, double* %2) #0 comdat {
  %4 = alloca %"class.std::move_iterator.5", align 8
  %5 = alloca %"class.std::move_iterator.5", align 8
  %6 = alloca %"class.std::move_iterator.5", align 8
  %7 = alloca %"class.std::move_iterator.5", align 8
  %8 = getelementptr inbounds %"class.std::move_iterator.5", %"class.std::move_iterator.5"* %4, i32 0, i32 0
  store double* %0, double** %8, align 8
  %9 = getelementptr inbounds %"class.std::move_iterator.5", %"class.std::move_iterator.5"* %5, i32 0, i32 0
  store double* %1, double** %9, align 8
  %10 = bitcast %"class.std::move_iterator.5"* %6 to i8*
  %11 = bitcast %"class.std::move_iterator.5"* %4 to i8*
  call void @llvm.memcpy.p0i8.p0i8.i64(i8* align 8 %10, i8* align 8 %11, i64 8, i1 false)
  %12 = getelementptr inbounds %"class.std::move_iterator.5", %"class.std::move_iterator.5"* %6, i32 0, i32 0
  %13 = load double*, double** %12, align 8
  %14 = call double* @_ZSt12__miter_baseIPdEDTcl12__miter_basecldtfp_4baseEEESt13move_iteratorIT_E(double* %13)
  %15 = bitcast %"class.std::move_iterator.5"* %7 to i8*
  %16 = bitcast %"class.std::move_iterator.5"* %5 to i8*
  call void @llvm.memcpy.p0i8.p0i8.i64(i8* align 8 %15, i8* align 8 %16, i64 8, i1 false)
  %17 = getelementptr inbounds %"class.std::move_iterator.5", %"class.std::move_iterator.5"* %7, i32 0, i32 0
  %18 = load double*, double** %17, align 8
  %19 = call double* @_ZSt12__miter_baseIPdEDTcl12__miter_basecldtfp_4baseEEESt13move_iteratorIT_E(double* %18)
  %20 = call double* @_ZSt14__copy_move_a2ILb1EPdS0_ET1_T0_S2_S1_(double* %14, double* %19, double* %2)
  ret double* %20
}

; Function Attrs: noinline uwtable
define linkonce_odr double* @_ZSt14__copy_move_a2ILb1EPdS0_ET1_T0_S2_S1_(double* %0, double* %1, double* %2) #0 comdat {
  %4 = call double* @_ZSt12__niter_baseIPdET_S1_(double* %0)
  %5 = call double* @_ZSt12__niter_baseIPdET_S1_(double* %1)
  %6 = call double* @_ZSt12__niter_baseIPdET_S1_(double* %2)
  %7 = call double* @_ZSt13__copy_move_aILb1EPdS0_ET1_T0_S2_S1_(double* %4, double* %5, double* %6)
  ret double* %7
}

; Function Attrs: noinline uwtable
define linkonce_odr double* @_ZSt12__miter_baseIPdEDTcl12__miter_basecldtfp_4baseEEESt13move_iteratorIT_E(double* %0) #0 comdat {
  %2 = alloca %"class.std::move_iterator.5", align 8
  %3 = getelementptr inbounds %"class.std::move_iterator.5", %"class.std::move_iterator.5"* %2, i32 0, i32 0
  store double* %0, double** %3, align 8
  %4 = call double* @_ZNKSt13move_iteratorIPdE4baseEv(%"class.std::move_iterator.5"* %2)
  %5 = call double* @_ZSt12__miter_baseIPdET_S1_(double* %4)
  ret double* %5
}

; Function Attrs: noinline uwtable
define linkonce_odr double* @_ZSt13__copy_move_aILb1EPdS0_ET1_T0_S2_S1_(double* %0, double* %1, double* %2) #0 comdat {
  %4 = call double* @_ZNSt11__copy_moveILb1ELb1ESt26random_access_iterator_tagE8__copy_mIdEEPT_PKS3_S6_S4_(double* %0, double* %1, double* %2)
  ret double* %4
}

; Function Attrs: noinline nounwind uwtable
define linkonce_odr double* @_ZNSt11__copy_moveILb1ELb1ESt26random_access_iterator_tagE8__copy_mIdEEPT_PKS3_S6_S4_(double* %0, double* %1, double* %2) #1 comdat align 2 {
  %4 = ptrtoint double* %1 to i64
  %5 = ptrtoint double* %0 to i64
  %6 = sub i64 %4, %5
  %7 = sdiv exact i64 %6, 8
  %8 = icmp ne i64 %7, 0
  br i1 %8, label %9, label %13

9:                                                ; preds = %3
  %10 = bitcast double* %2 to i8*
  %11 = bitcast double* %0 to i8*
  %12 = mul i64 8, %7
  call void @llvm.memmove.p0i8.p0i8.i64(i8* align 8 %10, i8* align 8 %11, i64 %12, i1 false)
  br label %13

13:                                               ; preds = %9, %3
  %14 = getelementptr inbounds double, double* %2, i64 %7
  ret double* %14
}

; Function Attrs: noinline nounwind uwtable
define linkonce_odr double* @_ZSt12__miter_baseIPdET_S1_(double* %0) #1 comdat {
  ret double* %0
}

; Function Attrs: noinline nounwind uwtable
define linkonce_odr double* @_ZNKSt13move_iteratorIPdE4baseEv(%"class.std::move_iterator.5"* %0) #1 comdat align 2 {
  %2 = getelementptr inbounds %"class.std::move_iterator.5", %"class.std::move_iterator.5"* %0, i32 0, i32 0
  %3 = load double*, double** %2, align 8
  ret double* %3
}

; Function Attrs: noinline nounwind uwtable
define linkonce_odr void @_ZNSt13move_iteratorIPdEC2ES0_(%"class.std::move_iterator.5"* %0, double* %1) unnamed_addr #1 comdat align 2 {
  %3 = getelementptr inbounds %"class.std::move_iterator.5", %"class.std::move_iterator.5"* %0, i32 0, i32 0
  store double* %1, double** %3, align 8
  ret void
}

; Function Attrs: noinline uwtable
define linkonce_odr void @_ZNSt6vectorISt7complexIdESaIS1_EE17_M_default_appendEm(%"class.std::vector"* %0, i64 %1) #0 comdat align 2 personality i8* bitcast (i32 (...)* @__gxx_personality_v0 to i8*) {
  %3 = icmp ne i64 %1, 0
  br i1 %3, label %4, label %121

4:                                                ; preds = %2
  %5 = call i64 @_ZNKSt6vectorISt7complexIdESaIS1_EE4sizeEv(%"class.std::vector"* %0) #3
  %6 = bitcast %"class.std::vector"* %0 to %"struct.std::_Vector_base"*
  %7 = getelementptr inbounds %"struct.std::_Vector_base", %"struct.std::_Vector_base"* %6, i32 0, i32 0
  %8 = getelementptr inbounds %"struct.std::_Vector_base<std::complex<double>, std::allocator<std::complex<double> > >::_Vector_impl", %"struct.std::_Vector_base<std::complex<double>, std::allocator<std::complex<double> > >::_Vector_impl"* %7, i32 0, i32 2
  %9 = load %"struct.std::complex"*, %"struct.std::complex"** %8, align 8
  %10 = bitcast %"class.std::vector"* %0 to %"struct.std::_Vector_base"*
  %11 = getelementptr inbounds %"struct.std::_Vector_base", %"struct.std::_Vector_base"* %10, i32 0, i32 0
  %12 = getelementptr inbounds %"struct.std::_Vector_base<std::complex<double>, std::allocator<std::complex<double> > >::_Vector_impl", %"struct.std::_Vector_base<std::complex<double>, std::allocator<std::complex<double> > >::_Vector_impl"* %11, i32 0, i32 1
  %13 = load %"struct.std::complex"*, %"struct.std::complex"** %12, align 8
  %14 = ptrtoint %"struct.std::complex"* %9 to i64
  %15 = ptrtoint %"struct.std::complex"* %13 to i64
  %16 = sub i64 %14, %15
  %17 = sdiv exact i64 %16, 16
  %18 = call i64 @_ZNKSt6vectorISt7complexIdESaIS1_EE8max_sizeEv(%"class.std::vector"* %0) #3
  %19 = icmp ugt i64 %5, %18
  br i1 %19, label %24, label %20

20:                                               ; preds = %4
  %21 = call i64 @_ZNKSt6vectorISt7complexIdESaIS1_EE8max_sizeEv(%"class.std::vector"* %0) #3
  %22 = sub i64 %21, %5
  %23 = icmp ugt i64 %17, %22
  br i1 %23, label %24, label %25

24:                                               ; preds = %20, %4
  unreachable

25:                                               ; preds = %20
  %26 = icmp uge i64 %17, %1
  br i1 %26, label %27, label %38

27:                                               ; preds = %25
  %28 = bitcast %"class.std::vector"* %0 to %"struct.std::_Vector_base"*
  %29 = getelementptr inbounds %"struct.std::_Vector_base", %"struct.std::_Vector_base"* %28, i32 0, i32 0
  %30 = getelementptr inbounds %"struct.std::_Vector_base<std::complex<double>, std::allocator<std::complex<double> > >::_Vector_impl", %"struct.std::_Vector_base<std::complex<double>, std::allocator<std::complex<double> > >::_Vector_impl"* %29, i32 0, i32 1
  %31 = load %"struct.std::complex"*, %"struct.std::complex"** %30, align 8
  %32 = bitcast %"class.std::vector"* %0 to %"struct.std::_Vector_base"*
  %33 = call dereferenceable(1) %"class.std::allocator"* @_ZNSt12_Vector_baseISt7complexIdESaIS1_EE19_M_get_Tp_allocatorEv(%"struct.std::_Vector_base"* %32) #3
  %34 = call %"struct.std::complex"* @_ZSt27__uninitialized_default_n_aIPSt7complexIdEmS1_ET_S3_T0_RSaIT1_E(%"struct.std::complex"* %31, i64 %1, %"class.std::allocator"* dereferenceable(1) %33)
  %35 = bitcast %"class.std::vector"* %0 to %"struct.std::_Vector_base"*
  %36 = getelementptr inbounds %"struct.std::_Vector_base", %"struct.std::_Vector_base"* %35, i32 0, i32 0
  %37 = getelementptr inbounds %"struct.std::_Vector_base<std::complex<double>, std::allocator<std::complex<double> > >::_Vector_impl", %"struct.std::_Vector_base<std::complex<double>, std::allocator<std::complex<double> > >::_Vector_impl"* %36, i32 0, i32 1
  store %"struct.std::complex"* %34, %"struct.std::complex"** %37, align 8
  br label %120

38:                                               ; preds = %25
  %39 = call i64 @_ZNKSt6vectorISt7complexIdESaIS1_EE12_M_check_lenEmPKc(%"class.std::vector"* %0, i64 %1, i8* getelementptr inbounds ([26 x i8], [26 x i8]* @.str.6, i32 0, i32 0))
  %40 = bitcast %"class.std::vector"* %0 to %"struct.std::_Vector_base"*
  %41 = call %"struct.std::complex"* @_ZNSt12_Vector_baseISt7complexIdESaIS1_EE11_M_allocateEm(%"struct.std::_Vector_base"* %40, i64 %39)
  %42 = getelementptr inbounds %"struct.std::complex", %"struct.std::complex"* %41, i64 %5
  %43 = bitcast %"class.std::vector"* %0 to %"struct.std::_Vector_base"*
  %44 = call dereferenceable(1) %"class.std::allocator"* @_ZNSt12_Vector_baseISt7complexIdESaIS1_EE19_M_get_Tp_allocatorEv(%"struct.std::_Vector_base"* %43) #3
  %45 = invoke %"struct.std::complex"* @_ZSt27__uninitialized_default_n_aIPSt7complexIdEmS1_ET_S3_T0_RSaIT1_E(%"struct.std::complex"* %42, i64 %1, %"class.std::allocator"* dereferenceable(1) %44)
          to label %46 unwind label %60

46:                                               ; preds = %38
  %47 = getelementptr inbounds %"struct.std::complex", %"struct.std::complex"* %41, i64 %5
  %48 = bitcast %"class.std::vector"* %0 to %"struct.std::_Vector_base"*
  %49 = getelementptr inbounds %"struct.std::_Vector_base", %"struct.std::_Vector_base"* %48, i32 0, i32 0
  %50 = getelementptr inbounds %"struct.std::_Vector_base<std::complex<double>, std::allocator<std::complex<double> > >::_Vector_impl", %"struct.std::_Vector_base<std::complex<double>, std::allocator<std::complex<double> > >::_Vector_impl"* %49, i32 0, i32 0
  %51 = load %"struct.std::complex"*, %"struct.std::complex"** %50, align 8
  %52 = bitcast %"class.std::vector"* %0 to %"struct.std::_Vector_base"*
  %53 = getelementptr inbounds %"struct.std::_Vector_base", %"struct.std::_Vector_base"* %52, i32 0, i32 0
  %54 = getelementptr inbounds %"struct.std::_Vector_base<std::complex<double>, std::allocator<std::complex<double> > >::_Vector_impl", %"struct.std::_Vector_base<std::complex<double>, std::allocator<std::complex<double> > >::_Vector_impl"* %53, i32 0, i32 1
  %55 = load %"struct.std::complex"*, %"struct.std::complex"** %54, align 8
  %56 = bitcast %"class.std::vector"* %0 to %"struct.std::_Vector_base"*
  %57 = call dereferenceable(1) %"class.std::allocator"* @_ZNSt12_Vector_baseISt7complexIdESaIS1_EE19_M_get_Tp_allocatorEv(%"struct.std::_Vector_base"* %56) #3
  %58 = invoke %"struct.std::complex"* @_ZSt34__uninitialized_move_if_noexcept_aIPSt7complexIdES2_SaIS1_EET0_T_S5_S4_RT1_(%"struct.std::complex"* %51, %"struct.std::complex"* %55, %"struct.std::complex"* %41, %"class.std::allocator"* dereferenceable(1) %57)
          to label %59 unwind label %60

59:                                               ; preds = %46
  br label %80

60:                                               ; preds = %46, %38
  %.0 = phi %"struct.std::complex"* [ %47, %46 ], [ null, %38 ]
  %61 = landingpad { i8*, i32 }
          catch i8* null
  %62 = extractvalue { i8*, i32 } %61, 0
  %63 = extractvalue { i8*, i32 } %61, 1
  br label %64

64:                                               ; preds = %60
  %65 = call i8* @__cxa_begin_catch(i8* %62) #3
  %66 = icmp ne %"struct.std::complex"* %.0, null
  br i1 %66, label %67, label %76

67:                                               ; preds = %64
  %68 = getelementptr inbounds %"struct.std::complex", %"struct.std::complex"* %.0, i64 %1
  %69 = bitcast %"class.std::vector"* %0 to %"struct.std::_Vector_base"*
  %70 = call dereferenceable(1) %"class.std::allocator"* @_ZNSt12_Vector_baseISt7complexIdESaIS1_EE19_M_get_Tp_allocatorEv(%"struct.std::_Vector_base"* %69) #3
  invoke void @_ZSt8_DestroyIPSt7complexIdES1_EvT_S3_RSaIT0_E(%"struct.std::complex"* %.0, %"struct.std::complex"* %68, %"class.std::allocator"* dereferenceable(1) %70)
          to label %71 unwind label %72

71:                                               ; preds = %67
  br label %76

72:                                               ; preds = %78, %76, %67
  %73 = landingpad { i8*, i32 }
          cleanup
  %74 = extractvalue { i8*, i32 } %73, 0
  %75 = extractvalue { i8*, i32 } %73, 1
  invoke void @__cxa_end_catch()
          to label %79 unwind label %125

76:                                               ; preds = %71, %64
  %77 = bitcast %"class.std::vector"* %0 to %"struct.std::_Vector_base"*
  invoke void @_ZNSt12_Vector_baseISt7complexIdESaIS1_EE13_M_deallocateEPS1_m(%"struct.std::_Vector_base"* %77, %"struct.std::complex"* %41, i64 %39)
          to label %78 unwind label %72

78:                                               ; preds = %76
  invoke void @__cxa_rethrow() #14
          to label %128 unwind label %72

79:                                               ; preds = %72
  br label %122

80:                                               ; preds = %59
  %81 = bitcast %"class.std::vector"* %0 to %"struct.std::_Vector_base"*
  %82 = getelementptr inbounds %"struct.std::_Vector_base", %"struct.std::_Vector_base"* %81, i32 0, i32 0
  %83 = getelementptr inbounds %"struct.std::_Vector_base<std::complex<double>, std::allocator<std::complex<double> > >::_Vector_impl", %"struct.std::_Vector_base<std::complex<double>, std::allocator<std::complex<double> > >::_Vector_impl"* %82, i32 0, i32 0
  %84 = load %"struct.std::complex"*, %"struct.std::complex"** %83, align 8
  %85 = bitcast %"class.std::vector"* %0 to %"struct.std::_Vector_base"*
  %86 = getelementptr inbounds %"struct.std::_Vector_base", %"struct.std::_Vector_base"* %85, i32 0, i32 0
  %87 = getelementptr inbounds %"struct.std::_Vector_base<std::complex<double>, std::allocator<std::complex<double> > >::_Vector_impl", %"struct.std::_Vector_base<std::complex<double>, std::allocator<std::complex<double> > >::_Vector_impl"* %86, i32 0, i32 1
  %88 = load %"struct.std::complex"*, %"struct.std::complex"** %87, align 8
  %89 = bitcast %"class.std::vector"* %0 to %"struct.std::_Vector_base"*
  %90 = call dereferenceable(1) %"class.std::allocator"* @_ZNSt12_Vector_baseISt7complexIdESaIS1_EE19_M_get_Tp_allocatorEv(%"struct.std::_Vector_base"* %89) #3
  call void @_ZSt8_DestroyIPSt7complexIdES1_EvT_S3_RSaIT0_E(%"struct.std::complex"* %84, %"struct.std::complex"* %88, %"class.std::allocator"* dereferenceable(1) %90)
  %91 = bitcast %"class.std::vector"* %0 to %"struct.std::_Vector_base"*
  %92 = bitcast %"class.std::vector"* %0 to %"struct.std::_Vector_base"*
  %93 = getelementptr inbounds %"struct.std::_Vector_base", %"struct.std::_Vector_base"* %92, i32 0, i32 0
  %94 = getelementptr inbounds %"struct.std::_Vector_base<std::complex<double>, std::allocator<std::complex<double> > >::_Vector_impl", %"struct.std::_Vector_base<std::complex<double>, std::allocator<std::complex<double> > >::_Vector_impl"* %93, i32 0, i32 0
  %95 = load %"struct.std::complex"*, %"struct.std::complex"** %94, align 8
  %96 = bitcast %"class.std::vector"* %0 to %"struct.std::_Vector_base"*
  %97 = getelementptr inbounds %"struct.std::_Vector_base", %"struct.std::_Vector_base"* %96, i32 0, i32 0
  %98 = getelementptr inbounds %"struct.std::_Vector_base<std::complex<double>, std::allocator<std::complex<double> > >::_Vector_impl", %"struct.std::_Vector_base<std::complex<double>, std::allocator<std::complex<double> > >::_Vector_impl"* %97, i32 0, i32 2
  %99 = load %"struct.std::complex"*, %"struct.std::complex"** %98, align 8
  %100 = bitcast %"class.std::vector"* %0 to %"struct.std::_Vector_base"*
  %101 = getelementptr inbounds %"struct.std::_Vector_base", %"struct.std::_Vector_base"* %100, i32 0, i32 0
  %102 = getelementptr inbounds %"struct.std::_Vector_base<std::complex<double>, std::allocator<std::complex<double> > >::_Vector_impl", %"struct.std::_Vector_base<std::complex<double>, std::allocator<std::complex<double> > >::_Vector_impl"* %101, i32 0, i32 0
  %103 = load %"struct.std::complex"*, %"struct.std::complex"** %102, align 8
  %104 = ptrtoint %"struct.std::complex"* %99 to i64
  %105 = ptrtoint %"struct.std::complex"* %103 to i64
  %106 = sub i64 %104, %105
  %107 = sdiv exact i64 %106, 16
  call void @_ZNSt12_Vector_baseISt7complexIdESaIS1_EE13_M_deallocateEPS1_m(%"struct.std::_Vector_base"* %91, %"struct.std::complex"* %95, i64 %107)
  %108 = bitcast %"class.std::vector"* %0 to %"struct.std::_Vector_base"*
  %109 = getelementptr inbounds %"struct.std::_Vector_base", %"struct.std::_Vector_base"* %108, i32 0, i32 0
  %110 = getelementptr inbounds %"struct.std::_Vector_base<std::complex<double>, std::allocator<std::complex<double> > >::_Vector_impl", %"struct.std::_Vector_base<std::complex<double>, std::allocator<std::complex<double> > >::_Vector_impl"* %109, i32 0, i32 0
  store %"struct.std::complex"* %41, %"struct.std::complex"** %110, align 8
  %111 = getelementptr inbounds %"struct.std::complex", %"struct.std::complex"* %41, i64 %5
  %112 = getelementptr inbounds %"struct.std::complex", %"struct.std::complex"* %111, i64 %1
  %113 = bitcast %"class.std::vector"* %0 to %"struct.std::_Vector_base"*
  %114 = getelementptr inbounds %"struct.std::_Vector_base", %"struct.std::_Vector_base"* %113, i32 0, i32 0
  %115 = getelementptr inbounds %"struct.std::_Vector_base<std::complex<double>, std::allocator<std::complex<double> > >::_Vector_impl", %"struct.std::_Vector_base<std::complex<double>, std::allocator<std::complex<double> > >::_Vector_impl"* %114, i32 0, i32 1
  store %"struct.std::complex"* %112, %"struct.std::complex"** %115, align 8
  %116 = getelementptr inbounds %"struct.std::complex", %"struct.std::complex"* %41, i64 %39
  %117 = bitcast %"class.std::vector"* %0 to %"struct.std::_Vector_base"*
  %118 = getelementptr inbounds %"struct.std::_Vector_base", %"struct.std::_Vector_base"* %117, i32 0, i32 0
  %119 = getelementptr inbounds %"struct.std::_Vector_base<std::complex<double>, std::allocator<std::complex<double> > >::_Vector_impl", %"struct.std::_Vector_base<std::complex<double>, std::allocator<std::complex<double> > >::_Vector_impl"* %118, i32 0, i32 2
  store %"struct.std::complex"* %116, %"struct.std::complex"** %119, align 8
  br label %120

120:                                              ; preds = %80, %27
  br label %121

121:                                              ; preds = %120, %2
  ret void

122:                                              ; preds = %79
  %123 = insertvalue { i8*, i32 } undef, i8* %74, 0
  %124 = insertvalue { i8*, i32 } %123, i32 %75, 1
  resume { i8*, i32 } %124

125:                                              ; preds = %72
  %126 = landingpad { i8*, i32 }
          catch i8* null
  %127 = extractvalue { i8*, i32 } %126, 0
  call void @__clang_call_terminate(i8* %127) #13
  unreachable

128:                                              ; preds = %78
  unreachable
}

; Function Attrs: noinline nounwind uwtable
define linkonce_odr void @_ZNSt6vectorISt7complexIdESaIS1_EE15_M_erase_at_endEPS1_(%"class.std::vector"* %0, %"struct.std::complex"* %1) #1 comdat align 2 personality i8* bitcast (i32 (...)* @__gxx_personality_v0 to i8*) {
  %3 = bitcast %"class.std::vector"* %0 to %"struct.std::_Vector_base"*
  %4 = getelementptr inbounds %"struct.std::_Vector_base", %"struct.std::_Vector_base"* %3, i32 0, i32 0
  %5 = getelementptr inbounds %"struct.std::_Vector_base<std::complex<double>, std::allocator<std::complex<double> > >::_Vector_impl", %"struct.std::_Vector_base<std::complex<double>, std::allocator<std::complex<double> > >::_Vector_impl"* %4, i32 0, i32 1
  %6 = load %"struct.std::complex"*, %"struct.std::complex"** %5, align 8
  %7 = ptrtoint %"struct.std::complex"* %6 to i64
  %8 = ptrtoint %"struct.std::complex"* %1 to i64
  %9 = sub i64 %7, %8
  %10 = sdiv exact i64 %9, 16
  %11 = icmp ne i64 %10, 0
  br i1 %11, label %12, label %23

12:                                               ; preds = %2
  %13 = bitcast %"class.std::vector"* %0 to %"struct.std::_Vector_base"*
  %14 = getelementptr inbounds %"struct.std::_Vector_base", %"struct.std::_Vector_base"* %13, i32 0, i32 0
  %15 = getelementptr inbounds %"struct.std::_Vector_base<std::complex<double>, std::allocator<std::complex<double> > >::_Vector_impl", %"struct.std::_Vector_base<std::complex<double>, std::allocator<std::complex<double> > >::_Vector_impl"* %14, i32 0, i32 1
  %16 = load %"struct.std::complex"*, %"struct.std::complex"** %15, align 8
  %17 = bitcast %"class.std::vector"* %0 to %"struct.std::_Vector_base"*
  %18 = call dereferenceable(1) %"class.std::allocator"* @_ZNSt12_Vector_baseISt7complexIdESaIS1_EE19_M_get_Tp_allocatorEv(%"struct.std::_Vector_base"* %17) #3
  invoke void @_ZSt8_DestroyIPSt7complexIdES1_EvT_S3_RSaIT0_E(%"struct.std::complex"* %1, %"struct.std::complex"* %16, %"class.std::allocator"* dereferenceable(1) %18)
          to label %19 unwind label %24

19:                                               ; preds = %12
  %20 = bitcast %"class.std::vector"* %0 to %"struct.std::_Vector_base"*
  %21 = getelementptr inbounds %"struct.std::_Vector_base", %"struct.std::_Vector_base"* %20, i32 0, i32 0
  %22 = getelementptr inbounds %"struct.std::_Vector_base<std::complex<double>, std::allocator<std::complex<double> > >::_Vector_impl", %"struct.std::_Vector_base<std::complex<double>, std::allocator<std::complex<double> > >::_Vector_impl"* %21, i32 0, i32 1
  store %"struct.std::complex"* %1, %"struct.std::complex"** %22, align 8
  br label %23

23:                                               ; preds = %19, %2
  ret void

24:                                               ; preds = %12
  %25 = landingpad { i8*, i32 }
          catch i8* null
  %26 = extractvalue { i8*, i32 } %25, 0
  call void @__clang_call_terminate(i8* %26) #13
  unreachable
}

; Function Attrs: noinline uwtable
define linkonce_odr %"struct.std::complex"* @_ZSt27__uninitialized_default_n_aIPSt7complexIdEmS1_ET_S3_T0_RSaIT1_E(%"struct.std::complex"* %0, i64 %1, %"class.std::allocator"* dereferenceable(1) %2) #0 comdat {
  %4 = call %"struct.std::complex"* @_ZSt25__uninitialized_default_nIPSt7complexIdEmET_S3_T0_(%"struct.std::complex"* %0, i64 %1)
  ret %"struct.std::complex"* %4
}

; Function Attrs: noinline uwtable
define linkonce_odr %"struct.std::complex"* @_ZSt25__uninitialized_default_nIPSt7complexIdEmET_S3_T0_(%"struct.std::complex"* %0, i64 %1) #0 comdat {
  %3 = call %"struct.std::complex"* @_ZNSt27__uninitialized_default_n_1ILb0EE18__uninit_default_nIPSt7complexIdEmEET_S5_T0_(%"struct.std::complex"* %0, i64 %1)
  ret %"struct.std::complex"* %3
}

; Function Attrs: noinline uwtable
define linkonce_odr %"struct.std::complex"* @_ZNSt27__uninitialized_default_n_1ILb0EE18__uninit_default_nIPSt7complexIdEmEET_S5_T0_(%"struct.std::complex"* %0, i64 %1) #0 comdat align 2 personality i8* bitcast (i32 (...)* @__gxx_personality_v0 to i8*) {
  br label %3

3:                                                ; preds = %8, %2
  %.01 = phi %"struct.std::complex"* [ %0, %2 ], [ %10, %8 ]
  %.0 = phi i64 [ %1, %2 ], [ %9, %8 ]
  %4 = icmp ugt i64 %.0, 0
  br i1 %4, label %5, label %18

5:                                                ; preds = %3
  %6 = call %"struct.std::complex"* @_ZSt11__addressofISt7complexIdEEPT_RS2_(%"struct.std::complex"* dereferenceable(16) %.01) #3
  invoke void @_ZSt10_ConstructISt7complexIdEJEEvPT_DpOT0_(%"struct.std::complex"* %6)
          to label %7 unwind label %11

7:                                                ; preds = %5
  br label %8

8:                                                ; preds = %7
  %9 = add i64 %.0, -1
  %10 = getelementptr inbounds %"struct.std::complex", %"struct.std::complex"* %.01, i32 1
  br label %3

11:                                               ; preds = %5
  %12 = landingpad { i8*, i32 }
          catch i8* null
  %13 = extractvalue { i8*, i32 } %12, 0
  %14 = extractvalue { i8*, i32 } %12, 1
  br label %15

15:                                               ; preds = %11
  %16 = call i8* @__cxa_begin_catch(i8* %13) #3
  invoke void @_ZSt8_DestroyIPSt7complexIdEEvT_S3_(%"struct.std::complex"* %0, %"struct.std::complex"* %.01)
          to label %17 unwind label %19

17:                                               ; preds = %15
  invoke void @__cxa_rethrow() #14
          to label %31 unwind label %19

18:                                               ; preds = %3
  ret %"struct.std::complex"* %.01

19:                                               ; preds = %17, %15
  %20 = landingpad { i8*, i32 }
          cleanup
  %21 = extractvalue { i8*, i32 } %20, 0
  %22 = extractvalue { i8*, i32 } %20, 1
  invoke void @__cxa_end_catch()
          to label %23 unwind label %28

23:                                               ; preds = %19
  br label %25

24:                                               ; No predecessors!
  call void @llvm.trap()
  unreachable

25:                                               ; preds = %23
  %26 = insertvalue { i8*, i32 } undef, i8* %21, 0
  %27 = insertvalue { i8*, i32 } %26, i32 %22, 1
  resume { i8*, i32 } %27

28:                                               ; preds = %19
  %29 = landingpad { i8*, i32 }
          catch i8* null
  %30 = extractvalue { i8*, i32 } %29, 0
  call void @__clang_call_terminate(i8* %30) #13
  unreachable

31:                                               ; preds = %17
  unreachable
}

; Function Attrs: noinline uwtable
define linkonce_odr void @_ZSt10_ConstructISt7complexIdEJEEvPT_DpOT0_(%"struct.std::complex"* %0) #0 comdat {
  %2 = bitcast %"struct.std::complex"* %0 to i8*
  %3 = bitcast i8* %2 to %"struct.std::complex"*
  call void @_ZNSt7complexIdEC2Edd(%"struct.std::complex"* %3, double 0.000000e+00, double 0.000000e+00)
  ret void
}

; Function Attrs: noinline uwtable
define internal void @_GLOBAL__sub_I_s441660989.cpp() #0 section ".text.startup" {
  call void @__cxx_global_var_init()
  call void @__cxx_global_var_init.1()
  call void @__cxx_global_var_init.2()
  ret void
}

; Function Attrs: argmemonly nocallback nofree nounwind willreturn
declare void @llvm.memcpy.p0i8.p0i8.i64(i8* noalias nocapture writeonly, i8* noalias nocapture readonly, i64, i1 immarg) #12

; Function Attrs: argmemonly nocallback nofree nounwind willreturn
declare void @llvm.memmove.p0i8.p0i8.i64(i8* nocapture writeonly, i8* nocapture readonly, i64, i1 immarg) #12

attributes #0 = { noinline uwtable "correctly-rounded-divide-sqrt-fp-math"="false" "disable-tail-calls"="false" "less-precise-fpmad"="false" "no-frame-pointer-elim"="true" "no-frame-pointer-elim-non-leaf" "no-infs-fp-math"="false" "no-jump-tables"="false" "no-nans-fp-math"="false" "no-signed-zeros-fp-math"="false" "no-trapping-math"="false" "stack-protector-buffer-size"="8" "target-cpu"="x86-64" "target-features"="+fxsr,+mmx,+sse,+sse2,+x87" "unsafe-fp-math"="false" "use-soft-float"="false" }
attributes #1 = { noinline nounwind uwtable "correctly-rounded-divide-sqrt-fp-math"="false" "disable-tail-calls"="false" "less-precise-fpmad"="false" "no-frame-pointer-elim"="true" "no-frame-pointer-elim-non-leaf" "no-infs-fp-math"="false" "no-jump-tables"="false" "no-nans-fp-math"="false" "no-signed-zeros-fp-math"="false" "no-trapping-math"="false" "stack-protector-buffer-size"="8" "target-cpu"="x86-64" "target-features"="+fxsr,+mmx,+sse,+sse2,+x87" "unsafe-fp-math"="false" "use-soft-float"="false" }
attributes #2 = { nounwind "correctly-rounded-divide-sqrt-fp-math"="false" "disable-tail-calls"="false" "less-precise-fpmad"="false" "no-frame-pointer-elim"="true" "no-frame-pointer-elim-non-leaf" "no-infs-fp-math"="false" "no-nans-fp-math"="false" "no-signed-zeros-fp-math"="false" "no-trapping-math"="false" "stack-protector-buffer-size"="8" "target-cpu"="x86-64" "target-features"="+fxsr,+mmx,+sse,+sse2,+x87" "unsafe-fp-math"="false" "use-soft-float"="false" }
attributes #3 = { nounwind }
attributes #4 = { noinline norecurse uwtable "correctly-rounded-divide-sqrt-fp-math"="false" "disable-tail-calls"="false" "less-precise-fpmad"="false" "no-frame-pointer-elim"="true" "no-frame-pointer-elim-non-leaf" "no-infs-fp-math"="false" "no-jump-tables"="false" "no-nans-fp-math"="false" "no-signed-zeros-fp-math"="false" "no-trapping-math"="false" "stack-protector-buffer-size"="8" "target-cpu"="x86-64" "target-features"="+fxsr,+mmx,+sse,+sse2,+x87" "unsafe-fp-math"="false" "use-soft-float"="false" }
attributes #5 = { "correctly-rounded-divide-sqrt-fp-math"="false" "disable-tail-calls"="false" "less-precise-fpmad"="false" "no-frame-pointer-elim"="true" "no-frame-pointer-elim-non-leaf" "no-infs-fp-math"="false" "no-nans-fp-math"="false" "no-signed-zeros-fp-math"="false" "no-trapping-math"="false" "stack-protector-buffer-size"="8" "target-cpu"="x86-64" "target-features"="+fxsr,+mmx,+sse,+sse2,+x87" "unsafe-fp-math"="false" "use-soft-float"="false" }
attributes #6 = { nocallback nofree nosync nounwind readnone speculatable willreturn }
attributes #7 = { noinline noreturn nounwind }
attributes #8 = { noreturn "correctly-rounded-divide-sqrt-fp-math"="false" "disable-tail-calls"="false" "less-precise-fpmad"="false" "no-frame-pointer-elim"="true" "no-frame-pointer-elim-non-leaf" "no-infs-fp-math"="false" "no-nans-fp-math"="false" "no-signed-zeros-fp-math"="false" "no-trapping-math"="false" "stack-protector-buffer-size"="8" "target-cpu"="x86-64" "target-features"="+fxsr,+mmx,+sse,+sse2,+x87" "unsafe-fp-math"="false" "use-soft-float"="false" }
attributes #9 = { nobuiltin "correctly-rounded-divide-sqrt-fp-math"="false" "disable-tail-calls"="false" "less-precise-fpmad"="false" "no-frame-pointer-elim"="true" "no-frame-pointer-elim-non-leaf" "no-infs-fp-math"="false" "no-nans-fp-math"="false" "no-signed-zeros-fp-math"="false" "no-trapping-math"="false" "stack-protector-buffer-size"="8" "target-cpu"="x86-64" "target-features"="+fxsr,+mmx,+sse,+sse2,+x87" "unsafe-fp-math"="false" "use-soft-float"="false" }
attributes #10 = { cold noreturn nounwind }
attributes #11 = { nobuiltin nounwind "correctly-rounded-divide-sqrt-fp-math"="false" "disable-tail-calls"="false" "less-precise-fpmad"="false" "no-frame-pointer-elim"="true" "no-frame-pointer-elim-non-leaf" "no-infs-fp-math"="false" "no-nans-fp-math"="false" "no-signed-zeros-fp-math"="false" "no-trapping-math"="false" "stack-protector-buffer-size"="8" "target-cpu"="x86-64" "target-features"="+fxsr,+mmx,+sse,+sse2,+x87" "unsafe-fp-math"="false" "use-soft-float"="false" }
attributes #12 = { argmemonly nocallback nofree nounwind willreturn }
attributes #13 = { noreturn nounwind }
attributes #14 = { noreturn }

!llvm.module.flags = !{!0}
!llvm.ident = !{!1}

!0 = !{i32 1, !"wchar_size", i32 4}
!1 = !{!"clang version 6.0.0-1ubuntu2 (tags/RELEASE_600/final)"}
