; ModuleID = '/home/pedro/tcc/exDataset/codenet/data/selection/p01082/s102282297.ll'
source_filename = "/home/pedro/tcc/exDataset/codenet/data/selection/p01082/s102282297.cpp"
target datalayout = "e-m:e-i64:64-f80:128-n8:16:32:64-S128"
target triple = "x86_64-pc-linux-gnu"

%"class.std::ios_base::Init" = type { i8 }
%"class.std::vector" = type { %"struct.std::_Vector_base" }
%"struct.std::_Vector_base" = type { %"struct.std::_Vector_base<std::pair<int, int>, std::allocator<std::pair<int, int> > >::_Vector_impl" }
%"struct.std::_Vector_base<std::pair<int, int>, std::allocator<std::pair<int, int> > >::_Vector_impl" = type { %"struct.std::pair"*, %"struct.std::pair"*, %"struct.std::pair"* }
%"struct.std::pair" = type { i32, i32 }
%"class.std::allocator" = type { i8 }
%class.anon = type { %"class.std::vector"* }
%"class.std::vector.0" = type { %"struct.std::_Vector_base.1" }
%"struct.std::_Vector_base.1" = type { %"struct.std::_Vector_base<std::vector<Event, std::allocator<Event> >, std::allocator<std::vector<Event, std::allocator<Event> > > >::_Vector_impl" }
%"struct.std::_Vector_base<std::vector<Event, std::allocator<Event> >, std::allocator<std::vector<Event, std::allocator<Event> > > >::_Vector_impl" = type { %"class.std::vector.5"*, %"class.std::vector.5"*, %"class.std::vector.5"* }
%"class.std::vector.5" = type { %"struct.std::_Vector_base.6" }
%"struct.std::_Vector_base.6" = type { %"struct.std::_Vector_base<Event, std::allocator<Event> >::_Vector_impl" }
%"struct.std::_Vector_base<Event, std::allocator<Event> >::_Vector_impl" = type { %struct.Event*, %struct.Event*, %struct.Event* }
%struct.Event = type { i32, i32, i32 }
%"class.std::allocator.2" = type { i8 }
%"class.__gnu_cxx::__normal_iterator" = type { %"struct.std::pair"* }
%struct.AddMaxSegmentTree = type <{ %"class.std::vector.10", %"class.std::vector.10", i32, [4 x i8] }>
%"class.std::vector.10" = type { %"struct.std::_Vector_base.11" }
%"struct.std::_Vector_base.11" = type { %"struct.std::_Vector_base<int, std::allocator<int> >::_Vector_impl" }
%"struct.std::_Vector_base<int, std::allocator<int> >::_Vector_impl" = type { i32*, i32*, i32* }
%class.anon.15 = type { i8 }
%"class.__gnu_cxx::__normal_iterator.16" = type { %struct.Event* }
%"class.__gnu_cxx::new_allocator" = type { i8 }
%"class.std::__pair_base" = type { i8 }
%"class.__gnu_cxx::new_allocator.3" = type { i8 }
%"class.std::allocator.12" = type { i8 }
%"class.__gnu_cxx::new_allocator.13" = type { i8 }
%"class.__gnu_cxx::__normal_iterator.17" = type { i32* }
%"class.std::allocator.7" = type { i8 }
%"class.__gnu_cxx::new_allocator.8" = type { i8 }
%"class.std::move_iterator" = type { %struct.Event* }

$_ZNSaISt4pairIiiEEC2Ev = comdat any

$_ZNSt6vectorISt4pairIiiESaIS1_EEC2EmRKS2_ = comdat any

$_ZNSaISt4pairIiiEED2Ev = comdat any

$_ZNSt4pairIiiEC2IiiLb1EEEOT_OT0_ = comdat any

$_ZNSt6vectorISt4pairIiiESaIS1_EEixEm = comdat any

$_ZNSt4pairIiiEaSEOS0_ = comdat any

$_ZSt9make_pairIRKiiESt4pairINSt17__decay_and_stripIT_E6__typeENS3_IT0_E6__typeEEOS4_OS7_ = comdat any

$_ZNSt6vectorISt4pairIiiESaIS1_EEC2EmRKS1_RKS2_ = comdat any

$_ZNSaISt6vectorI5EventSaIS0_EEEC2Ev = comdat any

$_ZNSt6vectorIS_I5EventSaIS0_EESaIS2_EEC2EmRKS3_ = comdat any

$_ZNSaISt6vectorI5EventSaIS0_EEED2Ev = comdat any

$_ZNSt6vectorISt4pairIiiESaIS1_EE5beginEv = comdat any

$_ZNSt6vectorISt4pairIiiESaIS1_EE3endEv = comdat any

$_ZN9__gnu_cxxneIPSt4pairIiiESt6vectorIS2_SaIS2_EEEEbRKNS_17__normal_iteratorIT_T0_EESC_ = comdat any

$_ZNK9__gnu_cxx17__normal_iteratorIPSt4pairIiiESt6vectorIS2_SaIS2_EEEdeEv = comdat any

$_ZSt3maxIiERKT_S2_S2_ = comdat any

$_ZSt3minIiERKT_S2_S2_ = comdat any

$_ZNSt6vectorIS_I5EventSaIS0_EESaIS2_EEixEm = comdat any

$_ZNSt6vectorI5EventSaIS0_EE9push_backEOS0_ = comdat any

$_ZN9__gnu_cxx17__normal_iteratorIPSt4pairIiiESt6vectorIS2_SaIS2_EEEppEv = comdat any

$_ZN17AddMaxSegmentTreeC2Ev = comdat any

$_ZN17AddMaxSegmentTree4initEi = comdat any

$_ZNSt6vectorI5EventSaIS0_EE5beginEv = comdat any

$_ZNSt6vectorI5EventSaIS0_EE3endEv = comdat any

$_ZN9__gnu_cxxneIP5EventSt6vectorIS1_SaIS1_EEEEbRKNS_17__normal_iteratorIT_T0_EESB_ = comdat any

$_ZNK9__gnu_cxx17__normal_iteratorIP5EventSt6vectorIS1_SaIS1_EEEdeEv = comdat any

$_ZN17AddMaxSegmentTree10addToRangeEiii = comdat any

$_ZN9__gnu_cxx17__normal_iteratorIP5EventSt6vectorIS1_SaIS1_EEEppEv = comdat any

$_ZN17AddMaxSegmentTree8getRangeEii = comdat any

$_ZN17AddMaxSegmentTreeD2Ev = comdat any

$_ZNSt6vectorIS_I5EventSaIS0_EESaIS2_EED2Ev = comdat any

$_ZNSt6vectorISt4pairIiiESaIS1_EED2Ev = comdat any

$_ZSt7forwardIiEOT_RNSt16remove_referenceIS0_E4typeE = comdat any

$_ZSt7forwardIRKiEOT_RNSt16remove_referenceIS2_E4typeE = comdat any

$_ZNSt4pairIiiEC2IiLb1EEERKiOT_ = comdat any

$_ZNSt6vectorIiSaIiEEC2Ev = comdat any

$_ZNSt12_Vector_baseIiSaIiEEC2Ev = comdat any

$__clang_call_terminate = comdat any

$_ZNSt12_Vector_baseIiSaIiEE12_Vector_implC2Ev = comdat any

$_ZNSaIiEC2Ev = comdat any

$_ZN9__gnu_cxx13new_allocatorIiEC2Ev = comdat any

$_ZNSt6vectorIiSaIiEE6assignEmRKi = comdat any

$_ZNSt6vectorIiSaIiEE14_M_fill_assignEmRKi = comdat any

$_ZNKSt6vectorIiSaIiEE8capacityEv = comdat any

$_ZNSt12_Vector_baseIiSaIiEE19_M_get_Tp_allocatorEv = comdat any

$_ZNSt6vectorIiSaIiEEC2EmRKiRKS0_ = comdat any

$_ZNSt12_Vector_baseIiSaIiEE12_Vector_impl12_M_swap_dataERS2_ = comdat any

$_ZNSt6vectorIiSaIiEED2Ev = comdat any

$_ZNKSt6vectorIiSaIiEE4sizeEv = comdat any

$_ZSt4fillIN9__gnu_cxx17__normal_iteratorIPiSt6vectorIiSaIiEEEEiEvT_S7_RKT0_ = comdat any

$_ZNSt6vectorIiSaIiEE5beginEv = comdat any

$_ZNSt6vectorIiSaIiEE3endEv = comdat any

$_ZSt24__uninitialized_fill_n_aIPimiiET_S1_T0_RKT1_RSaIT2_E = comdat any

$_ZNSt6vectorIiSaIiEE15_M_erase_at_endEPi = comdat any

$_ZSt6fill_nIPimiET_S1_T0_RKT1_ = comdat any

$_ZNSt12_Vector_baseIiSaIiEEC2EmRKS0_ = comdat any

$_ZNSt6vectorIiSaIiEE18_M_fill_initializeEmRKi = comdat any

$_ZNSt12_Vector_baseIiSaIiEED2Ev = comdat any

$_ZNSt12_Vector_baseIiSaIiEE12_Vector_implC2ERKS0_ = comdat any

$_ZNSt12_Vector_baseIiSaIiEE17_M_create_storageEm = comdat any

$_ZNSt12_Vector_baseIiSaIiEE12_Vector_implD2Ev = comdat any

$_ZNSaIiEC2ERKS_ = comdat any

$_ZN9__gnu_cxx13new_allocatorIiEC2ERKS1_ = comdat any

$_ZNSt12_Vector_baseIiSaIiEE11_M_allocateEm = comdat any

$_ZNSt16allocator_traitsISaIiEE8allocateERS0_m = comdat any

$_ZN9__gnu_cxx13new_allocatorIiE8allocateEmPKv = comdat any

$_ZNK9__gnu_cxx13new_allocatorIiE8max_sizeEv = comdat any

$_ZNSaIiED2Ev = comdat any

$_ZN9__gnu_cxx13new_allocatorIiED2Ev = comdat any

$_ZNSt12_Vector_baseIiSaIiEE13_M_deallocateEPim = comdat any

$_ZNSt16allocator_traitsISaIiEE10deallocateERS0_Pim = comdat any

$_ZN9__gnu_cxx13new_allocatorIiE10deallocateEPim = comdat any

$_ZSt4swapIPiENSt9enable_ifIXsr6__and_ISt6__not_ISt15__is_tuple_likeIT_EESt21is_move_constructibleIS4_ESt18is_move_assignableIS4_EEE5valueEvE4typeERS4_SD_ = comdat any

$_ZSt4moveIRPiEONSt16remove_referenceIT_E4typeEOS3_ = comdat any

$_ZSt8_DestroyIPiiEvT_S1_RSaIT0_E = comdat any

$_ZSt8_DestroyIPiEvT_S1_ = comdat any

$_ZNSt12_Destroy_auxILb1EE9__destroyIPiEEvT_S3_ = comdat any

$_ZSt8__fill_aIPiiEN9__gnu_cxx11__enable_ifIXsr11__is_scalarIT0_EE7__valueEvE6__typeET_S6_RKS3_ = comdat any

$_ZSt12__niter_baseIPiSt6vectorIiSaIiEEET_N9__gnu_cxx17__normal_iteratorIS4_T0_EE = comdat any

$_ZNK9__gnu_cxx17__normal_iteratorIPiSt6vectorIiSaIiEEE4baseEv = comdat any

$_ZN9__gnu_cxx17__normal_iteratorIPiSt6vectorIiSaIiEEEC2ERKS1_ = comdat any

$_ZSt20uninitialized_fill_nIPimiET_S1_T0_RKT1_ = comdat any

$_ZNSt22__uninitialized_fill_nILb1EE15__uninit_fill_nIPimiEET_S3_T0_RKT1_ = comdat any

$_ZSt10__fill_n_aIPimiEN9__gnu_cxx11__enable_ifIXsr11__is_scalarIT1_EE7__valueET_E6__typeES4_T0_RKS3_ = comdat any

$_ZSt12__niter_baseIPiET_S1_ = comdat any

$_ZN17AddMaxSegmentTree13addToRangeRecEiiiiii = comdat any

$_ZNSt6vectorIiSaIiEEixEm = comdat any

$_ZN17AddMaxSegmentTree11getRangeRecEiiiii = comdat any

$_ZN9__gnu_cxx13new_allocatorISt4pairIiiEEC2Ev = comdat any

$_ZN9__gnu_cxx13new_allocatorISt4pairIiiEED2Ev = comdat any

$_ZNSt12_Vector_baseISt4pairIiiESaIS1_EEC2EmRKS2_ = comdat any

$_ZNSt6vectorISt4pairIiiESaIS1_EE21_M_default_initializeEm = comdat any

$_ZNSt12_Vector_baseISt4pairIiiESaIS1_EED2Ev = comdat any

$_ZNSt12_Vector_baseISt4pairIiiESaIS1_EE12_Vector_implC2ERKS2_ = comdat any

$_ZNSt12_Vector_baseISt4pairIiiESaIS1_EE17_M_create_storageEm = comdat any

$_ZNSt12_Vector_baseISt4pairIiiESaIS1_EE12_Vector_implD2Ev = comdat any

$_ZNSaISt4pairIiiEEC2ERKS1_ = comdat any

$_ZN9__gnu_cxx13new_allocatorISt4pairIiiEEC2ERKS3_ = comdat any

$_ZNSt12_Vector_baseISt4pairIiiESaIS1_EE11_M_allocateEm = comdat any

$_ZNSt16allocator_traitsISaISt4pairIiiEEE8allocateERS2_m = comdat any

$_ZN9__gnu_cxx13new_allocatorISt4pairIiiEE8allocateEmPKv = comdat any

$_ZNK9__gnu_cxx13new_allocatorISt4pairIiiEE8max_sizeEv = comdat any

$_ZSt27__uninitialized_default_n_aIPSt4pairIiiEmS1_ET_S3_T0_RSaIT1_E = comdat any

$_ZNSt12_Vector_baseISt4pairIiiESaIS1_EE19_M_get_Tp_allocatorEv = comdat any

$_ZSt25__uninitialized_default_nIPSt4pairIiiEmET_S3_T0_ = comdat any

$_ZNSt27__uninitialized_default_n_1ILb0EE18__uninit_default_nIPSt4pairIiiEmEET_S5_T0_ = comdat any

$_ZSt10_ConstructISt4pairIiiEJEEvPT_DpOT0_ = comdat any

$_ZSt11__addressofISt4pairIiiEEPT_RS2_ = comdat any

$_ZSt8_DestroyIPSt4pairIiiEEvT_S3_ = comdat any

$_ZNSt4pairIiiEC2IiiLb1EEEv = comdat any

$_ZNSt12_Destroy_auxILb1EE9__destroyIPSt4pairIiiEEEvT_S5_ = comdat any

$_ZNSt12_Vector_baseISt4pairIiiESaIS1_EE13_M_deallocateEPS1_m = comdat any

$_ZNSt16allocator_traitsISaISt4pairIiiEEE10deallocateERS2_PS1_m = comdat any

$_ZN9__gnu_cxx13new_allocatorISt4pairIiiEE10deallocateEPS2_m = comdat any

$_ZSt8_DestroyIPSt4pairIiiES1_EvT_S3_RSaIT0_E = comdat any

$_ZNSt6vectorISt4pairIiiESaIS1_EE18_M_fill_initializeEmRKS1_ = comdat any

$_ZSt24__uninitialized_fill_n_aIPSt4pairIiiEmS1_S1_ET_S3_T0_RKT1_RSaIT2_E = comdat any

$_ZSt20uninitialized_fill_nIPSt4pairIiiEmS1_ET_S3_T0_RKT1_ = comdat any

$_ZNSt22__uninitialized_fill_nILb0EE15__uninit_fill_nIPSt4pairIiiEmS3_EET_S5_T0_RKT1_ = comdat any

$_ZSt10_ConstructISt4pairIiiEJRKS1_EEvPT_DpOT0_ = comdat any

$_ZSt7forwardIRKSt4pairIiiEEOT_RNSt16remove_referenceIS4_E4typeE = comdat any

$_ZN9__gnu_cxx13new_allocatorISt6vectorI5EventSaIS2_EEEC2Ev = comdat any

$_ZN9__gnu_cxx13new_allocatorISt6vectorI5EventSaIS2_EEED2Ev = comdat any

$_ZNSt12_Vector_baseISt6vectorI5EventSaIS1_EESaIS3_EEC2EmRKS4_ = comdat any

$_ZNSt6vectorIS_I5EventSaIS0_EESaIS2_EE21_M_default_initializeEm = comdat any

$_ZNSt12_Vector_baseISt6vectorI5EventSaIS1_EESaIS3_EED2Ev = comdat any

$_ZNSt12_Vector_baseISt6vectorI5EventSaIS1_EESaIS3_EE12_Vector_implC2ERKS4_ = comdat any

$_ZNSt12_Vector_baseISt6vectorI5EventSaIS1_EESaIS3_EE17_M_create_storageEm = comdat any

$_ZNSt12_Vector_baseISt6vectorI5EventSaIS1_EESaIS3_EE12_Vector_implD2Ev = comdat any

$_ZNSaISt6vectorI5EventSaIS0_EEEC2ERKS3_ = comdat any

$_ZN9__gnu_cxx13new_allocatorISt6vectorI5EventSaIS2_EEEC2ERKS5_ = comdat any

$_ZNSt12_Vector_baseISt6vectorI5EventSaIS1_EESaIS3_EE11_M_allocateEm = comdat any

$_ZNSt16allocator_traitsISaISt6vectorI5EventSaIS1_EEEE8allocateERS4_m = comdat any

$_ZN9__gnu_cxx13new_allocatorISt6vectorI5EventSaIS2_EEE8allocateEmPKv = comdat any

$_ZNK9__gnu_cxx13new_allocatorISt6vectorI5EventSaIS2_EEE8max_sizeEv = comdat any

$_ZSt27__uninitialized_default_n_aIPSt6vectorI5EventSaIS1_EEmS3_ET_S5_T0_RSaIT1_E = comdat any

$_ZNSt12_Vector_baseISt6vectorI5EventSaIS1_EESaIS3_EE19_M_get_Tp_allocatorEv = comdat any

$_ZSt25__uninitialized_default_nIPSt6vectorI5EventSaIS1_EEmET_S5_T0_ = comdat any

$_ZNSt27__uninitialized_default_n_1ILb0EE18__uninit_default_nIPSt6vectorI5EventSaIS3_EEmEET_S7_T0_ = comdat any

$_ZSt10_ConstructISt6vectorI5EventSaIS1_EEJEEvPT_DpOT0_ = comdat any

$_ZSt11__addressofISt6vectorI5EventSaIS1_EEEPT_RS4_ = comdat any

$_ZSt8_DestroyIPSt6vectorI5EventSaIS1_EEEvT_S5_ = comdat any

$_ZNSt6vectorI5EventSaIS0_EEC2Ev = comdat any

$_ZNSt12_Vector_baseI5EventSaIS0_EEC2Ev = comdat any

$_ZNSt12_Vector_baseI5EventSaIS0_EE12_Vector_implC2Ev = comdat any

$_ZNSaI5EventEC2Ev = comdat any

$_ZN9__gnu_cxx13new_allocatorI5EventEC2Ev = comdat any

$_ZNSt12_Destroy_auxILb0EE9__destroyIPSt6vectorI5EventSaIS3_EEEEvT_S7_ = comdat any

$_ZSt8_DestroyISt6vectorI5EventSaIS1_EEEvPT_ = comdat any

$_ZNSt6vectorI5EventSaIS0_EED2Ev = comdat any

$_ZSt8_DestroyIP5EventS0_EvT_S2_RSaIT0_E = comdat any

$_ZNSt12_Vector_baseI5EventSaIS0_EE19_M_get_Tp_allocatorEv = comdat any

$_ZNSt12_Vector_baseI5EventSaIS0_EED2Ev = comdat any

$_ZSt8_DestroyIP5EventEvT_S2_ = comdat any

$_ZNSt12_Destroy_auxILb1EE9__destroyIP5EventEEvT_S4_ = comdat any

$_ZNSt12_Vector_baseI5EventSaIS0_EE13_M_deallocateEPS0_m = comdat any

$_ZNSt12_Vector_baseI5EventSaIS0_EE12_Vector_implD2Ev = comdat any

$_ZNSt16allocator_traitsISaI5EventEE10deallocateERS1_PS0_m = comdat any

$_ZN9__gnu_cxx13new_allocatorI5EventE10deallocateEPS1_m = comdat any

$_ZNSaI5EventED2Ev = comdat any

$_ZN9__gnu_cxx13new_allocatorI5EventED2Ev = comdat any

$_ZNSt12_Vector_baseISt6vectorI5EventSaIS1_EESaIS3_EE13_M_deallocateEPS3_m = comdat any

$_ZNSt16allocator_traitsISaISt6vectorI5EventSaIS1_EEEE10deallocateERS4_PS3_m = comdat any

$_ZN9__gnu_cxx13new_allocatorISt6vectorI5EventSaIS2_EEE10deallocateEPS4_m = comdat any

$_ZSt8_DestroyIPSt6vectorI5EventSaIS1_EES3_EvT_S5_RSaIT0_E = comdat any

$_ZN9__gnu_cxx17__normal_iteratorIPSt4pairIiiESt6vectorIS2_SaIS2_EEEC2ERKS3_ = comdat any

$_ZNK9__gnu_cxx17__normal_iteratorIPSt4pairIiiESt6vectorIS2_SaIS2_EEE4baseEv = comdat any

$_ZNSt6vectorI5EventSaIS0_EE12emplace_backIJS0_EEEvDpOT_ = comdat any

$_ZSt4moveIR5EventEONSt16remove_referenceIT_E4typeEOS3_ = comdat any

$_ZNSt16allocator_traitsISaI5EventEE9constructIS0_JS0_EEEvRS1_PT_DpOT0_ = comdat any

$_ZSt7forwardI5EventEOT_RNSt16remove_referenceIS1_E4typeE = comdat any

$_ZNSt6vectorI5EventSaIS0_EE17_M_realloc_insertIJS0_EEEvN9__gnu_cxx17__normal_iteratorIPS0_S2_EEDpOT_ = comdat any

$_ZN9__gnu_cxx13new_allocatorI5EventE9constructIS1_JS1_EEEvPT_DpOT0_ = comdat any

$_ZNKSt6vectorI5EventSaIS0_EE12_M_check_lenEmPKc = comdat any

$_ZN9__gnu_cxxmiIP5EventSt6vectorIS1_SaIS1_EEEENS_17__normal_iteratorIT_T0_E15difference_typeERKS9_SC_ = comdat any

$_ZNSt12_Vector_baseI5EventSaIS0_EE11_M_allocateEm = comdat any

$_ZSt34__uninitialized_move_if_noexcept_aIP5EventS1_SaIS0_EET0_T_S4_S3_RT1_ = comdat any

$_ZNK9__gnu_cxx17__normal_iteratorIP5EventSt6vectorIS1_SaIS1_EEE4baseEv = comdat any

$_ZNSt16allocator_traitsISaI5EventEE7destroyIS0_EEvRS1_PT_ = comdat any

$_ZNKSt6vectorI5EventSaIS0_EE8max_sizeEv = comdat any

$_ZNKSt6vectorI5EventSaIS0_EE4sizeEv = comdat any

$_ZSt3maxImERKT_S2_S2_ = comdat any

$_ZNSt16allocator_traitsISaI5EventEE8max_sizeERKS1_ = comdat any

$_ZNKSt12_Vector_baseI5EventSaIS0_EE19_M_get_Tp_allocatorEv = comdat any

$_ZNK9__gnu_cxx13new_allocatorI5EventE8max_sizeEv = comdat any

$_ZNSt16allocator_traitsISaI5EventEE8allocateERS1_m = comdat any

$_ZN9__gnu_cxx13new_allocatorI5EventE8allocateEmPKv = comdat any

$_ZSt22__uninitialized_copy_aISt13move_iteratorIP5EventES2_S1_ET0_T_S5_S4_RSaIT1_E = comdat any

$_ZSt32__make_move_if_noexcept_iteratorI5EventSt13move_iteratorIPS0_EET0_PT_ = comdat any

$_ZSt18uninitialized_copyISt13move_iteratorIP5EventES2_ET0_T_S5_S4_ = comdat any

$_ZNSt20__uninitialized_copyILb1EE13__uninit_copyISt13move_iteratorIP5EventES4_EET0_T_S7_S6_ = comdat any

$_ZSt4copyISt13move_iteratorIP5EventES2_ET0_T_S5_S4_ = comdat any

$_ZSt14__copy_move_a2ILb1EP5EventS1_ET1_T0_S3_S2_ = comdat any

$_ZSt12__miter_baseIP5EventEDTcl12__miter_basecldtfp_4baseEEESt13move_iteratorIT_E = comdat any

$_ZSt13__copy_move_aILb1EP5EventS1_ET1_T0_S3_S2_ = comdat any

$_ZSt12__niter_baseIP5EventET_S2_ = comdat any

$_ZNSt11__copy_moveILb1ELb1ESt26random_access_iterator_tagE8__copy_mI5EventEEPT_PKS4_S7_S5_ = comdat any

$_ZSt12__miter_baseIP5EventET_S2_ = comdat any

$_ZNKSt13move_iteratorIP5EventE4baseEv = comdat any

$_ZNSt13move_iteratorIP5EventEC2ES1_ = comdat any

$_ZN9__gnu_cxx13new_allocatorI5EventE7destroyIS1_EEvPT_ = comdat any

$_ZN9__gnu_cxx17__normal_iteratorIP5EventSt6vectorIS1_SaIS1_EEEC2ERKS2_ = comdat any

@_ZStL8__ioinit = internal global %"class.std::ios_base::Init" zeroinitializer, align 1
@__dso_handle = external hidden global i8
@.str = private unnamed_addr constant [7 x i8] c"%d%d%d\00", align 1
@.str.1 = private unnamed_addr constant [5 x i8] c"%d%d\00", align 1
@_ZL3INF = internal constant i32 1061109567, align 4
@.str.2 = private unnamed_addr constant [4 x i8] c"%d\0A\00", align 1
@.str.3 = private unnamed_addr constant [26 x i8] c"vector::_M_realloc_insert\00", align 1
@llvm.global_ctors = appending global [1 x { i32, void ()*, i8* }] [{ i32, void ()*, i8* } { i32 65535, void ()* @_GLOBAL__sub_I_s102282297.cpp, i8* null }]

; Function Attrs: noinline uwtable
define internal void @__cxx_global_var_init() #0 section ".text.startup" {
  call void @_ZNSt8ios_base4InitC1Ev(%"class.std::ios_base::Init"* @_ZStL8__ioinit)
  %1 = call i32 @__cxa_atexit(void (i8*)* bitcast (void (%"class.std::ios_base::Init"*)* @_ZNSt8ios_base4InitD1Ev to void (i8*)*), i8* getelementptr inbounds (%"class.std::ios_base::Init", %"class.std::ios_base::Init"* @_ZStL8__ioinit, i32 0, i32 0), i8* @__dso_handle) #3
  ret void
}

declare void @_ZNSt8ios_base4InitC1Ev(%"class.std::ios_base::Init"*) unnamed_addr #1

; Function Attrs: nounwind
declare void @_ZNSt8ios_base4InitD1Ev(%"class.std::ios_base::Init"*) unnamed_addr #2

; Function Attrs: nounwind
declare i32 @__cxa_atexit(void (i8*)*, i8*, i8*) #3

; Function Attrs: noinline norecurse uwtable
define i32 @main() #4 personality i8* bitcast (i32 (...)* @__gxx_personality_v0 to i8*) {
  %1 = alloca i32, align 4
  %2 = alloca i32, align 4
  %3 = alloca i32, align 4
  %4 = alloca %"class.std::vector", align 8
  %5 = alloca %"class.std::allocator", align 1
  %6 = alloca i32, align 4
  %7 = alloca i32, align 4
  %8 = alloca %"struct.std::pair", align 4
  %9 = alloca i32, align 4
  %10 = alloca i32, align 4
  %11 = alloca %"class.std::vector", align 8
  %12 = alloca %"struct.std::pair", align 4
  %13 = alloca i32, align 4
  %14 = alloca %"class.std::allocator", align 1
  %15 = alloca %class.anon, align 8
  %16 = alloca %"class.std::vector.0", align 8
  %17 = alloca %"class.std::allocator.2", align 1
  %18 = alloca %"class.__gnu_cxx::__normal_iterator", align 8
  %19 = alloca %"class.__gnu_cxx::__normal_iterator", align 8
  %20 = alloca %"struct.std::pair", align 4
  %21 = alloca i32, align 4
  %22 = alloca i32, align 4
  %23 = alloca i32, align 4
  %24 = alloca i32, align 4
  %25 = alloca i32, align 4
  %26 = alloca i32, align 4
  %27 = alloca i32, align 4
  %28 = alloca i32, align 4
  %29 = alloca %struct.Event, align 4
  %30 = alloca %struct.Event, align 4
  %31 = alloca [2 x %struct.AddMaxSegmentTree], align 16
  %32 = alloca %class.anon.15, align 1
  %33 = alloca %"class.__gnu_cxx::__normal_iterator.16", align 8
  %34 = alloca %"class.__gnu_cxx::__normal_iterator.16", align 8
  %35 = alloca %struct.Event, align 4
  %36 = alloca i32, align 4
  %37 = alloca i32, align 4
  %38 = alloca i32, align 4
  %39 = alloca i32, align 4
  br label %40

40:                                               ; preds = %317, %0
  %41 = call i32 (i8*, ...) @scanf(i8* getelementptr inbounds ([7 x i8], [7 x i8]* @.str, i32 0, i32 0), i32* %1, i32* %2, i32* %3)
  %42 = xor i32 %41, -1
  %43 = icmp ne i32 %42, 0
  br i1 %43, label %44, label %320

44:                                               ; preds = %40
  %45 = load i32, i32* %3, align 4
  %46 = sext i32 %45 to i64
  call void @_ZNSaISt4pairIiiEEC2Ev(%"class.std::allocator"* %5) #3
  invoke void @_ZNSt6vectorISt4pairIiiESaIS1_EEC2EmRKS2_(%"class.std::vector"* %4, i64 %46, %"class.std::allocator"* dereferenceable(1) %5)
          to label %47 unwind label %66

47:                                               ; preds = %44
  call void @_ZNSaISt4pairIiiEED2Ev(%"class.std::allocator"* %5) #3
  br label %48

48:                                               ; preds = %64, %47
  %.06 = phi i32 [ 0, %47 ], [ %65, %64 ]
  %49 = load i32, i32* %3, align 4
  %50 = icmp slt i32 %.06, %49
  br i1 %50, label %51, label %74

51:                                               ; preds = %48
  %52 = invoke i32 (i8*, ...) @scanf(i8* getelementptr inbounds ([5 x i8], [5 x i8]* @.str.1, i32 0, i32 0), i32* %6, i32* %7)
          to label %53 unwind label %70

53:                                               ; preds = %51
  %54 = load i32, i32* %6, align 4
  %55 = load i32, i32* %7, align 4
  %56 = add nsw i32 %54, %55
  store i32 %56, i32* %9, align 4
  %57 = load i32, i32* %6, align 4
  %58 = load i32, i32* %7, align 4
  %59 = sub nsw i32 %57, %58
  store i32 %59, i32* %10, align 4
  invoke void @_ZNSt4pairIiiEC2IiiLb1EEEOT_OT0_(%"struct.std::pair"* %8, i32* dereferenceable(4) %9, i32* dereferenceable(4) %10)
          to label %60 unwind label %70

60:                                               ; preds = %53
  %61 = sext i32 %.06 to i64
  %62 = call dereferenceable(8) %"struct.std::pair"* @_ZNSt6vectorISt4pairIiiESaIS1_EEixEm(%"class.std::vector"* %4, i64 %61) #3
  %63 = call dereferenceable(8) %"struct.std::pair"* @_ZNSt4pairIiiEaSEOS0_(%"struct.std::pair"* %62, %"struct.std::pair"* dereferenceable(8) %8) #3
  br label %64

64:                                               ; preds = %60
  %65 = add nsw i32 %.06, 1
  br label %48

66:                                               ; preds = %44
  %67 = landingpad { i8*, i32 }
          cleanup
  %68 = extractvalue { i8*, i32 } %67, 0
  %69 = extractvalue { i8*, i32 } %67, 1
  call void @_ZNSaISt4pairIiiEED2Ev(%"class.std::allocator"* %5) #3
  br label %321

70:                                               ; preds = %74, %53, %51
  %71 = landingpad { i8*, i32 }
          cleanup
  %72 = extractvalue { i8*, i32 } %71, 0
  %73 = extractvalue { i8*, i32 } %71, 1
  br label %319

74:                                               ; preds = %48
  %75 = load i32, i32* %1, align 4
  %76 = load i32, i32* %2, align 4
  %77 = add nsw i32 %75, %76
  %78 = sub nsw i32 %77, 1
  %79 = sext i32 %78 to i64
  store i32 -1061109567, i32* %13, align 4
  %80 = invoke i64 @_ZSt9make_pairIRKiiESt4pairINSt17__decay_and_stripIT_E6__typeENS3_IT0_E6__typeEEOS4_OS7_(i32* dereferenceable(4) @_ZL3INF, i32* dereferenceable(4) %13)
          to label %81 unwind label %70

81:                                               ; preds = %74
  %82 = bitcast %"struct.std::pair"* %12 to i64*
  store i64 %80, i64* %82, align 4
  call void @_ZNSaISt4pairIiiEEC2Ev(%"class.std::allocator"* %14) #3
  invoke void @_ZNSt6vectorISt4pairIiiESaIS1_EEC2EmRKS1_RKS2_(%"class.std::vector"* %11, i64 %79, %"struct.std::pair"* dereferenceable(8) %12, %"class.std::allocator"* dereferenceable(1) %14)
          to label %83 unwind label %95

83:                                               ; preds = %81
  call void @_ZNSaISt4pairIiiEED2Ev(%"class.std::allocator"* %14) #3
  %84 = getelementptr inbounds %class.anon, %class.anon* %15, i32 0, i32 0
  store %"class.std::vector"* %11, %"class.std::vector"** %84, align 8
  br label %85

85:                                               ; preds = %93, %83
  %.07 = phi i32 [ 0, %83 ], [ %94, %93 ]
  %86 = load i32, i32* %1, align 4
  %87 = icmp slt i32 %.07, %86
  br i1 %87, label %88, label %103

88:                                               ; preds = %85
  invoke void @"_ZZ4mainENK3$_0clEii"(%class.anon* %15, i32 %.07, i32 0)
          to label %89 unwind label %99

89:                                               ; preds = %88
  %90 = load i32, i32* %2, align 4
  %91 = sub nsw i32 %90, 1
  invoke void @"_ZZ4mainENK3$_0clEii"(%class.anon* %15, i32 %.07, i32 %91)
          to label %92 unwind label %99

92:                                               ; preds = %89
  br label %93

93:                                               ; preds = %92
  %94 = add nsw i32 %.07, 1
  br label %85

95:                                               ; preds = %81
  %96 = landingpad { i8*, i32 }
          cleanup
  %97 = extractvalue { i8*, i32 } %96, 0
  %98 = extractvalue { i8*, i32 } %96, 1
  call void @_ZNSaISt4pairIiiEED2Ev(%"class.std::allocator"* %14) #3
  br label %319

99:                                               ; preds = %314, %108, %107, %89, %88
  %100 = landingpad { i8*, i32 }
          cleanup
  %101 = extractvalue { i8*, i32 } %100, 0
  %102 = extractvalue { i8*, i32 } %100, 1
  br label %318

103:                                              ; preds = %85
  br label %104

104:                                              ; preds = %112, %103
  %.08 = phi i32 [ 0, %103 ], [ %113, %112 ]
  %105 = load i32, i32* %2, align 4
  %106 = icmp slt i32 %.08, %105
  br i1 %106, label %107, label %114

107:                                              ; preds = %104
  invoke void @"_ZZ4mainENK3$_0clEii"(%class.anon* %15, i32 0, i32 %.08)
          to label %108 unwind label %99

108:                                              ; preds = %107
  %109 = load i32, i32* %1, align 4
  %110 = sub nsw i32 %109, 1
  invoke void @"_ZZ4mainENK3$_0clEii"(%class.anon* %15, i32 %110, i32 %.08)
          to label %111 unwind label %99

111:                                              ; preds = %108
  br label %112

112:                                              ; preds = %111
  %113 = add nsw i32 %.08, 1
  br label %104

114:                                              ; preds = %104
  %115 = load i32, i32* %1, align 4
  %116 = load i32, i32* %2, align 4
  %117 = add nsw i32 %115, %116
  %118 = sub nsw i32 %117, 1
  br label %119

119:                                              ; preds = %307, %114
  %.011 = phi i32 [ %118, %114 ], [ %.112, %307 ]
  %.09 = phi i32 [ -1, %114 ], [ %.110, %307 ]
  %120 = sub nsw i32 %.011, %.09
  %121 = icmp sgt i32 %120, 0
  br i1 %121, label %122, label %314

122:                                              ; preds = %119
  %123 = add nsw i32 %.09, %.011
  %124 = add nsw i32 %123, 1
  %125 = sdiv i32 %124, 2
  %126 = load i32, i32* %1, align 4
  %127 = load i32, i32* %2, align 4
  %128 = add nsw i32 %126, %127
  %129 = sext i32 %128 to i64
  call void @_ZNSaISt6vectorI5EventSaIS0_EEEC2Ev(%"class.std::allocator.2"* %17) #3
  invoke void @_ZNSt6vectorIS_I5EventSaIS0_EESaIS2_EEC2EmRKS3_(%"class.std::vector.0"* %16, i64 %129, %"class.std::allocator.2"* dereferenceable(1) %17)
          to label %130 unwind label %188

130:                                              ; preds = %122
  call void @_ZNSaISt6vectorI5EventSaIS0_EEED2Ev(%"class.std::allocator.2"* %17) #3
  %131 = call %"struct.std::pair"* @_ZNSt6vectorISt4pairIiiESaIS1_EE5beginEv(%"class.std::vector"* %4) #3
  %132 = getelementptr inbounds %"class.__gnu_cxx::__normal_iterator", %"class.__gnu_cxx::__normal_iterator"* %18, i32 0, i32 0
  store %"struct.std::pair"* %131, %"struct.std::pair"** %132, align 8
  %133 = call %"struct.std::pair"* @_ZNSt6vectorISt4pairIiiESaIS1_EE3endEv(%"class.std::vector"* %4) #3
  %134 = getelementptr inbounds %"class.__gnu_cxx::__normal_iterator", %"class.__gnu_cxx::__normal_iterator"* %19, i32 0, i32 0
  store %"struct.std::pair"* %133, %"struct.std::pair"** %134, align 8
  br label %135

135:                                              ; preds = %186, %130
  %136 = call zeroext i1 @_ZN9__gnu_cxxneIPSt4pairIiiESt6vectorIS2_SaIS2_EEEEbRKNS_17__normal_iteratorIT_T0_EESC_(%"class.__gnu_cxx::__normal_iterator"* dereferenceable(8) %18, %"class.__gnu_cxx::__normal_iterator"* dereferenceable(8) %19) #3
  br i1 %136, label %137, label %196

137:                                              ; preds = %135
  %138 = call dereferenceable(8) %"struct.std::pair"* @_ZNK9__gnu_cxx17__normal_iteratorIPSt4pairIiiESt6vectorIS2_SaIS2_EEEdeEv(%"class.__gnu_cxx::__normal_iterator"* %18) #3
  %139 = bitcast %"struct.std::pair"* %20 to i8*
  %140 = bitcast %"struct.std::pair"* %138 to i8*
  call void @llvm.memcpy.p0i8.p0i8.i64(i8* align 4 %139, i8* align 4 %140, i64 8, i1 false)
  store i32 0, i32* %21, align 4
  %141 = getelementptr inbounds %"struct.std::pair", %"struct.std::pair"* %20, i32 0, i32 0
  %142 = load i32, i32* %141, align 4
  %143 = sub nsw i32 %142, %125
  store i32 %143, i32* %22, align 4
  %144 = invoke dereferenceable(4) i32* @_ZSt3maxIiERKT_S2_S2_(i32* dereferenceable(4) %21, i32* dereferenceable(4) %22)
          to label %145 unwind label %192

145:                                              ; preds = %137
  %146 = load i32, i32* %144, align 4
  %147 = load i32, i32* %1, align 4
  %148 = load i32, i32* %2, align 4
  %149 = add nsw i32 %147, %148
  %150 = sub nsw i32 %149, 1
  store i32 %150, i32* %23, align 4
  %151 = getelementptr inbounds %"struct.std::pair", %"struct.std::pair"* %20, i32 0, i32 0
  %152 = load i32, i32* %151, align 4
  %153 = add nsw i32 %152, 1
  %154 = add nsw i32 %153, %125
  store i32 %154, i32* %24, align 4
  %155 = invoke dereferenceable(4) i32* @_ZSt3minIiERKT_S2_S2_(i32* dereferenceable(4) %23, i32* dereferenceable(4) %24)
          to label %156 unwind label %192

156:                                              ; preds = %145
  %157 = load i32, i32* %155, align 4
  %158 = load i32, i32* %2, align 4
  %159 = sub nsw i32 0, %158
  store i32 %159, i32* %25, align 4
  %160 = getelementptr inbounds %"struct.std::pair", %"struct.std::pair"* %20, i32 0, i32 1
  %161 = load i32, i32* %160, align 4
  %162 = sub nsw i32 %161, %125
  store i32 %162, i32* %26, align 4
  %163 = invoke dereferenceable(4) i32* @_ZSt3maxIiERKT_S2_S2_(i32* dereferenceable(4) %25, i32* dereferenceable(4) %26)
          to label %164 unwind label %192

164:                                              ; preds = %156
  %165 = load i32, i32* %163, align 4
  %166 = load i32, i32* %1, align 4
  store i32 %166, i32* %27, align 4
  %167 = getelementptr inbounds %"struct.std::pair", %"struct.std::pair"* %20, i32 0, i32 1
  %168 = load i32, i32* %167, align 4
  %169 = add nsw i32 %168, 1
  %170 = add nsw i32 %169, %125
  store i32 %170, i32* %28, align 4
  %171 = invoke dereferenceable(4) i32* @_ZSt3minIiERKT_S2_S2_(i32* dereferenceable(4) %27, i32* dereferenceable(4) %28)
          to label %172 unwind label %192

172:                                              ; preds = %164
  %173 = load i32, i32* %171, align 4
  %174 = sext i32 %146 to i64
  %175 = call dereferenceable(24) %"class.std::vector.5"* @_ZNSt6vectorIS_I5EventSaIS0_EESaIS2_EEixEm(%"class.std::vector.0"* %16, i64 %174) #3
  %176 = getelementptr inbounds %struct.Event, %struct.Event* %29, i32 0, i32 0
  store i32 %165, i32* %176, align 4
  %177 = getelementptr inbounds %struct.Event, %struct.Event* %29, i32 0, i32 1
  store i32 %173, i32* %177, align 4
  %178 = getelementptr inbounds %struct.Event, %struct.Event* %29, i32 0, i32 2
  store i32 1, i32* %178, align 4
  invoke void @_ZNSt6vectorI5EventSaIS0_EE9push_backEOS0_(%"class.std::vector.5"* %175, %struct.Event* dereferenceable(12) %29)
          to label %179 unwind label %192

179:                                              ; preds = %172
  %180 = sext i32 %157 to i64
  %181 = call dereferenceable(24) %"class.std::vector.5"* @_ZNSt6vectorIS_I5EventSaIS0_EESaIS2_EEixEm(%"class.std::vector.0"* %16, i64 %180) #3
  %182 = getelementptr inbounds %struct.Event, %struct.Event* %30, i32 0, i32 0
  store i32 %165, i32* %182, align 4
  %183 = getelementptr inbounds %struct.Event, %struct.Event* %30, i32 0, i32 1
  store i32 %173, i32* %183, align 4
  %184 = getelementptr inbounds %struct.Event, %struct.Event* %30, i32 0, i32 2
  store i32 -1, i32* %184, align 4
  invoke void @_ZNSt6vectorI5EventSaIS0_EE9push_backEOS0_(%"class.std::vector.5"* %181, %struct.Event* dereferenceable(12) %30)
          to label %185 unwind label %192

185:                                              ; preds = %179
  br label %186

186:                                              ; preds = %185
  %187 = call dereferenceable(8) %"class.__gnu_cxx::__normal_iterator"* @_ZN9__gnu_cxx17__normal_iteratorIPSt4pairIiiESt6vectorIS2_SaIS2_EEEppEv(%"class.__gnu_cxx::__normal_iterator"* %18) #3
  br label %135

188:                                              ; preds = %122
  %189 = landingpad { i8*, i32 }
          cleanup
  %190 = extractvalue { i8*, i32 } %189, 0
  %191 = extractvalue { i8*, i32 } %189, 1
  call void @_ZNSaISt6vectorI5EventSaIS0_EEED2Ev(%"class.std::allocator.2"* %17) #3
  br label %318

192:                                              ; preds = %179, %172, %164, %156, %145, %137
  %193 = landingpad { i8*, i32 }
          cleanup
  %194 = extractvalue { i8*, i32 } %193, 0
  %195 = extractvalue { i8*, i32 } %193, 1
  br label %313

196:                                              ; preds = %135
  %197 = getelementptr inbounds [2 x %struct.AddMaxSegmentTree], [2 x %struct.AddMaxSegmentTree]* %31, i32 0, i32 0
  %198 = getelementptr inbounds %struct.AddMaxSegmentTree, %struct.AddMaxSegmentTree* %197, i64 2
  br label %199

199:                                              ; preds = %199, %196
  %200 = phi %struct.AddMaxSegmentTree* [ %197, %196 ], [ %201, %199 ]
  call void @_ZN17AddMaxSegmentTreeC2Ev(%struct.AddMaxSegmentTree* %200) #3
  %201 = getelementptr inbounds %struct.AddMaxSegmentTree, %struct.AddMaxSegmentTree* %200, i64 1
  %202 = icmp eq %struct.AddMaxSegmentTree* %201, %198
  br i1 %202, label %203, label %199

203:                                              ; preds = %199
  br label %204

204:                                              ; preds = %214, %203
  %.015 = phi i32 [ 0, %203 ], [ %215, %214 ]
  %205 = icmp slt i32 %.015, 2
  br i1 %205, label %206, label %222

206:                                              ; preds = %204
  %207 = sext i32 %.015 to i64
  %208 = getelementptr inbounds [2 x %struct.AddMaxSegmentTree], [2 x %struct.AddMaxSegmentTree]* %31, i64 0, i64 %207
  %209 = load i32, i32* %2, align 4
  %210 = load i32, i32* %1, align 4
  %211 = add nsw i32 %209, %210
  %212 = add nsw i32 %211, 1
  invoke void @_ZN17AddMaxSegmentTree4initEi(%struct.AddMaxSegmentTree* %208, i32 %212)
          to label %213 unwind label %216

213:                                              ; preds = %206
  br label %214

214:                                              ; preds = %213
  %215 = add nsw i32 %.015, 1
  br label %204

216:                                              ; preds = %278, %267, %249, %244, %206
  %217 = landingpad { i8*, i32 }
          cleanup
  %218 = extractvalue { i8*, i32 } %217, 0
  %219 = extractvalue { i8*, i32 } %217, 1
  %220 = getelementptr inbounds [2 x %struct.AddMaxSegmentTree], [2 x %struct.AddMaxSegmentTree]* %31, i32 0, i32 0
  %221 = getelementptr inbounds %struct.AddMaxSegmentTree, %struct.AddMaxSegmentTree* %220, i64 2
  br label %308

222:                                              ; preds = %204
  br label %223

223:                                              ; preds = %293, %222
  %.013 = phi i32 [ 0, %222 ], [ %294, %293 ]
  %224 = load i32, i32* %1, align 4
  %225 = load i32, i32* %2, align 4
  %226 = add nsw i32 %224, %225
  %227 = sub nsw i32 %226, 1
  %228 = icmp slt i32 %.013, %227
  br i1 %228, label %229, label %295

229:                                              ; preds = %223
  %230 = sext i32 %.013 to i64
  %231 = call dereferenceable(24) %"class.std::vector.5"* @_ZNSt6vectorIS_I5EventSaIS0_EESaIS2_EEixEm(%"class.std::vector.0"* %16, i64 %230) #3
  %232 = call %struct.Event* @_ZNSt6vectorI5EventSaIS0_EE5beginEv(%"class.std::vector.5"* %231) #3
  %233 = getelementptr inbounds %"class.__gnu_cxx::__normal_iterator.16", %"class.__gnu_cxx::__normal_iterator.16"* %33, i32 0, i32 0
  store %struct.Event* %232, %struct.Event** %233, align 8
  %234 = call %struct.Event* @_ZNSt6vectorI5EventSaIS0_EE3endEv(%"class.std::vector.5"* %231) #3
  %235 = getelementptr inbounds %"class.__gnu_cxx::__normal_iterator.16", %"class.__gnu_cxx::__normal_iterator.16"* %34, i32 0, i32 0
  store %struct.Event* %234, %struct.Event** %235, align 8
  br label %236

236:                                              ; preds = %265, %229
  %237 = call zeroext i1 @_ZN9__gnu_cxxneIP5EventSt6vectorIS1_SaIS1_EEEEbRKNS_17__normal_iteratorIT_T0_EESB_(%"class.__gnu_cxx::__normal_iterator.16"* dereferenceable(8) %33, %"class.__gnu_cxx::__normal_iterator.16"* dereferenceable(8) %34) #3
  br i1 %237, label %238, label %267

238:                                              ; preds = %236
  %239 = call dereferenceable(12) %struct.Event* @_ZNK9__gnu_cxx17__normal_iteratorIP5EventSt6vectorIS1_SaIS1_EEEdeEv(%"class.__gnu_cxx::__normal_iterator.16"* %33) #3
  %240 = bitcast %struct.Event* %35 to i8*
  %241 = bitcast %struct.Event* %239 to i8*
  call void @llvm.memcpy.p0i8.p0i8.i64(i8* align 4 %240, i8* align 4 %241, i64 12, i1 false)
  br label %242

242:                                              ; preds = %262, %238
  %.0 = phi i32 [ 0, %238 ], [ %263, %262 ]
  %243 = icmp slt i32 %.0, 2
  br i1 %243, label %244, label %264

244:                                              ; preds = %242
  %245 = getelementptr inbounds %struct.Event, %struct.Event* %35, i32 0, i32 0
  %246 = load i32, i32* %245, align 4
  store i32 %246, i32* %36, align 4
  %247 = getelementptr inbounds %struct.Event, %struct.Event* %35, i32 0, i32 1
  %248 = load i32, i32* %247, align 4
  store i32 %248, i32* %37, align 4
  invoke void @"_ZZ4mainENK3$_1clERiS0_i"(%class.anon.15* %32, i32* dereferenceable(4) %36, i32* dereferenceable(4) %37, i32 %.0)
          to label %249 unwind label %216

249:                                              ; preds = %244
  %250 = sext i32 %.0 to i64
  %251 = getelementptr inbounds [2 x %struct.AddMaxSegmentTree], [2 x %struct.AddMaxSegmentTree]* %31, i64 0, i64 %250
  %252 = load i32, i32* %36, align 4
  %253 = load i32, i32* %2, align 4
  %254 = add nsw i32 %252, %253
  %255 = load i32, i32* %37, align 4
  %256 = load i32, i32* %2, align 4
  %257 = add nsw i32 %255, %256
  %258 = getelementptr inbounds %struct.Event, %struct.Event* %35, i32 0, i32 2
  %259 = load i32, i32* %258, align 4
  %260 = sub nsw i32 0, %259
  invoke void @_ZN17AddMaxSegmentTree10addToRangeEiii(%struct.AddMaxSegmentTree* %251, i32 %254, i32 %257, i32 %260)
          to label %261 unwind label %216

261:                                              ; preds = %249
  br label %262

262:                                              ; preds = %261
  %263 = add nsw i32 %.0, 1
  br label %242

264:                                              ; preds = %242
  br label %265

265:                                              ; preds = %264
  %266 = call dereferenceable(8) %"class.__gnu_cxx::__normal_iterator.16"* @_ZN9__gnu_cxx17__normal_iteratorIP5EventSt6vectorIS1_SaIS1_EEEppEv(%"class.__gnu_cxx::__normal_iterator.16"* %33) #3
  br label %236

267:                                              ; preds = %236
  %268 = sext i32 %.013 to i64
  %269 = call dereferenceable(8) %"struct.std::pair"* @_ZNSt6vectorISt4pairIiiESaIS1_EEixEm(%"class.std::vector"* %11, i64 %268) #3
  %270 = getelementptr inbounds %"struct.std::pair", %"struct.std::pair"* %269, i32 0, i32 0
  %271 = load i32, i32* %270, align 4
  store i32 %271, i32* %38, align 4
  %272 = sext i32 %.013 to i64
  %273 = call dereferenceable(8) %"struct.std::pair"* @_ZNSt6vectorISt4pairIiiESaIS1_EEixEm(%"class.std::vector"* %11, i64 %272) #3
  %274 = getelementptr inbounds %"struct.std::pair", %"struct.std::pair"* %273, i32 0, i32 1
  %275 = load i32, i32* %274, align 4
  %276 = add nsw i32 %275, 1
  store i32 %276, i32* %39, align 4
  %277 = srem i32 %.013, 2
  invoke void @"_ZZ4mainENK3$_1clERiS0_i"(%class.anon.15* %32, i32* dereferenceable(4) %38, i32* dereferenceable(4) %39, i32 %277)
          to label %278 unwind label %216

278:                                              ; preds = %267
  %279 = srem i32 %.013, 2
  %280 = sext i32 %279 to i64
  %281 = getelementptr inbounds [2 x %struct.AddMaxSegmentTree], [2 x %struct.AddMaxSegmentTree]* %31, i64 0, i64 %280
  %282 = load i32, i32* %38, align 4
  %283 = load i32, i32* %2, align 4
  %284 = add nsw i32 %282, %283
  %285 = load i32, i32* %39, align 4
  %286 = load i32, i32* %2, align 4
  %287 = add nsw i32 %285, %286
  %288 = invoke i32 @_ZN17AddMaxSegmentTree8getRangeEii(%struct.AddMaxSegmentTree* %281, i32 %284, i32 %287)
          to label %289 unwind label %216

289:                                              ; preds = %278
  %290 = icmp eq i32 %288, 0
  br i1 %290, label %291, label %292

291:                                              ; preds = %289
  br label %295

292:                                              ; preds = %289
  br label %293

293:                                              ; preds = %292
  %294 = add nsw i32 %.013, 1
  br label %223

295:                                              ; preds = %291, %223
  %.014 = phi i8 [ 0, %291 ], [ 1, %223 ]
  %296 = trunc i8 %.014 to i1
  br i1 %296, label %297, label %299

297:                                              ; preds = %295
  %298 = sub nsw i32 %125, 1
  br label %300

299:                                              ; preds = %295
  br label %300

300:                                              ; preds = %299, %297
  %.112 = phi i32 [ %298, %297 ], [ %.011, %299 ]
  %.110 = phi i32 [ %.09, %297 ], [ %125, %299 ]
  %301 = getelementptr inbounds [2 x %struct.AddMaxSegmentTree], [2 x %struct.AddMaxSegmentTree]* %31, i32 0, i32 0
  %302 = getelementptr inbounds %struct.AddMaxSegmentTree, %struct.AddMaxSegmentTree* %301, i64 2
  br label %303

303:                                              ; preds = %303, %300
  %304 = phi %struct.AddMaxSegmentTree* [ %302, %300 ], [ %305, %303 ]
  %305 = getelementptr inbounds %struct.AddMaxSegmentTree, %struct.AddMaxSegmentTree* %304, i64 -1
  call void @_ZN17AddMaxSegmentTreeD2Ev(%struct.AddMaxSegmentTree* %305) #3
  %306 = icmp eq %struct.AddMaxSegmentTree* %305, %301
  br i1 %306, label %307, label %303

307:                                              ; preds = %303
  call void @_ZNSt6vectorIS_I5EventSaIS0_EESaIS2_EED2Ev(%"class.std::vector.0"* %16) #3
  br label %119

308:                                              ; preds = %308, %216
  %309 = phi %struct.AddMaxSegmentTree* [ %221, %216 ], [ %310, %308 ]
  %310 = getelementptr inbounds %struct.AddMaxSegmentTree, %struct.AddMaxSegmentTree* %309, i64 -1
  call void @_ZN17AddMaxSegmentTreeD2Ev(%struct.AddMaxSegmentTree* %310) #3
  %311 = icmp eq %struct.AddMaxSegmentTree* %310, %220
  br i1 %311, label %312, label %308

312:                                              ; preds = %308
  br label %313

313:                                              ; preds = %312, %192
  %.02 = phi i32 [ %195, %192 ], [ %219, %312 ]
  %.01 = phi i8* [ %194, %192 ], [ %218, %312 ]
  call void @_ZNSt6vectorIS_I5EventSaIS0_EESaIS2_EED2Ev(%"class.std::vector.0"* %16) #3
  br label %318

314:                                              ; preds = %119
  %315 = add nsw i32 %.09, 1
  %316 = invoke i32 (i8*, ...) @printf(i8* getelementptr inbounds ([4 x i8], [4 x i8]* @.str.2, i32 0, i32 0), i32 %315)
          to label %317 unwind label %99

317:                                              ; preds = %314
  call void @_ZNSt6vectorISt4pairIiiESaIS1_EED2Ev(%"class.std::vector"* %11) #3
  call void @_ZNSt6vectorISt4pairIiiESaIS1_EED2Ev(%"class.std::vector"* %4) #3
  br label %40

318:                                              ; preds = %313, %188, %99
  %.13 = phi i32 [ %102, %99 ], [ %.02, %313 ], [ %191, %188 ]
  %.1 = phi i8* [ %101, %99 ], [ %.01, %313 ], [ %190, %188 ]
  call void @_ZNSt6vectorISt4pairIiiESaIS1_EED2Ev(%"class.std::vector"* %11) #3
  br label %319

319:                                              ; preds = %318, %95, %70
  %.24 = phi i32 [ %73, %70 ], [ %.13, %318 ], [ %98, %95 ]
  %.2 = phi i8* [ %72, %70 ], [ %.1, %318 ], [ %97, %95 ]
  call void @_ZNSt6vectorISt4pairIiiESaIS1_EED2Ev(%"class.std::vector"* %4) #3
  br label %321

320:                                              ; preds = %40
  ret i32 0

321:                                              ; preds = %319, %66
  %.35 = phi i32 [ %.24, %319 ], [ %69, %66 ]
  %.3 = phi i8* [ %.2, %319 ], [ %68, %66 ]
  %322 = insertvalue { i8*, i32 } undef, i8* %.3, 0
  %323 = insertvalue { i8*, i32 } %322, i32 %.35, 1
  resume { i8*, i32 } %323
}

declare i32 @scanf(i8*, ...) #1

; Function Attrs: noinline nounwind uwtable
define linkonce_odr void @_ZNSaISt4pairIiiEEC2Ev(%"class.std::allocator"* %0) unnamed_addr #5 comdat align 2 {
  %2 = bitcast %"class.std::allocator"* %0 to %"class.__gnu_cxx::new_allocator"*
  call void @_ZN9__gnu_cxx13new_allocatorISt4pairIiiEEC2Ev(%"class.__gnu_cxx::new_allocator"* %2) #3
  ret void
}

; Function Attrs: noinline uwtable
define linkonce_odr void @_ZNSt6vectorISt4pairIiiESaIS1_EEC2EmRKS2_(%"class.std::vector"* %0, i64 %1, %"class.std::allocator"* dereferenceable(1) %2) unnamed_addr #0 comdat align 2 personality i8* bitcast (i32 (...)* @__gxx_personality_v0 to i8*) {
  %4 = bitcast %"class.std::vector"* %0 to %"struct.std::_Vector_base"*
  call void @_ZNSt12_Vector_baseISt4pairIiiESaIS1_EEC2EmRKS2_(%"struct.std::_Vector_base"* %4, i64 %1, %"class.std::allocator"* dereferenceable(1) %2)
  invoke void @_ZNSt6vectorISt4pairIiiESaIS1_EE21_M_default_initializeEm(%"class.std::vector"* %0, i64 %1)
          to label %5 unwind label %6

5:                                                ; preds = %3
  ret void

6:                                                ; preds = %3
  %7 = landingpad { i8*, i32 }
          cleanup
  %8 = extractvalue { i8*, i32 } %7, 0
  %9 = extractvalue { i8*, i32 } %7, 1
  %10 = bitcast %"class.std::vector"* %0 to %"struct.std::_Vector_base"*
  call void @_ZNSt12_Vector_baseISt4pairIiiESaIS1_EED2Ev(%"struct.std::_Vector_base"* %10) #3
  br label %11

11:                                               ; preds = %6
  %12 = insertvalue { i8*, i32 } undef, i8* %8, 0
  %13 = insertvalue { i8*, i32 } %12, i32 %9, 1
  resume { i8*, i32 } %13
}

declare i32 @__gxx_personality_v0(...)

; Function Attrs: noinline nounwind uwtable
define linkonce_odr void @_ZNSaISt4pairIiiEED2Ev(%"class.std::allocator"* %0) unnamed_addr #5 comdat align 2 {
  %2 = bitcast %"class.std::allocator"* %0 to %"class.__gnu_cxx::new_allocator"*
  call void @_ZN9__gnu_cxx13new_allocatorISt4pairIiiEED2Ev(%"class.__gnu_cxx::new_allocator"* %2) #3
  ret void
}

; Function Attrs: noinline nounwind uwtable
define linkonce_odr void @_ZNSt4pairIiiEC2IiiLb1EEEOT_OT0_(%"struct.std::pair"* %0, i32* dereferenceable(4) %1, i32* dereferenceable(4) %2) unnamed_addr #5 comdat align 2 {
  %4 = bitcast %"struct.std::pair"* %0 to %"class.std::__pair_base"*
  %5 = getelementptr inbounds %"struct.std::pair", %"struct.std::pair"* %0, i32 0, i32 0
  %6 = call dereferenceable(4) i32* @_ZSt7forwardIiEOT_RNSt16remove_referenceIS0_E4typeE(i32* dereferenceable(4) %1) #3
  %7 = load i32, i32* %6, align 4
  store i32 %7, i32* %5, align 4
  %8 = getelementptr inbounds %"struct.std::pair", %"struct.std::pair"* %0, i32 0, i32 1
  %9 = call dereferenceable(4) i32* @_ZSt7forwardIiEOT_RNSt16remove_referenceIS0_E4typeE(i32* dereferenceable(4) %2) #3
  %10 = load i32, i32* %9, align 4
  store i32 %10, i32* %8, align 4
  ret void
}

; Function Attrs: noinline nounwind uwtable
define linkonce_odr dereferenceable(8) %"struct.std::pair"* @_ZNSt6vectorISt4pairIiiESaIS1_EEixEm(%"class.std::vector"* %0, i64 %1) #5 comdat align 2 {
  %3 = bitcast %"class.std::vector"* %0 to %"struct.std::_Vector_base"*
  %4 = getelementptr inbounds %"struct.std::_Vector_base", %"struct.std::_Vector_base"* %3, i32 0, i32 0
  %5 = getelementptr inbounds %"struct.std::_Vector_base<std::pair<int, int>, std::allocator<std::pair<int, int> > >::_Vector_impl", %"struct.std::_Vector_base<std::pair<int, int>, std::allocator<std::pair<int, int> > >::_Vector_impl"* %4, i32 0, i32 0
  %6 = load %"struct.std::pair"*, %"struct.std::pair"** %5, align 8
  %7 = getelementptr inbounds %"struct.std::pair", %"struct.std::pair"* %6, i64 %1
  ret %"struct.std::pair"* %7
}

; Function Attrs: noinline nounwind uwtable
define linkonce_odr dereferenceable(8) %"struct.std::pair"* @_ZNSt4pairIiiEaSEOS0_(%"struct.std::pair"* %0, %"struct.std::pair"* dereferenceable(8) %1) #5 comdat align 2 {
  %3 = getelementptr inbounds %"struct.std::pair", %"struct.std::pair"* %1, i32 0, i32 0
  %4 = call dereferenceable(4) i32* @_ZSt7forwardIiEOT_RNSt16remove_referenceIS0_E4typeE(i32* dereferenceable(4) %3) #3
  %5 = load i32, i32* %4, align 4
  %6 = getelementptr inbounds %"struct.std::pair", %"struct.std::pair"* %0, i32 0, i32 0
  store i32 %5, i32* %6, align 4
  %7 = getelementptr inbounds %"struct.std::pair", %"struct.std::pair"* %1, i32 0, i32 1
  %8 = call dereferenceable(4) i32* @_ZSt7forwardIiEOT_RNSt16remove_referenceIS0_E4typeE(i32* dereferenceable(4) %7) #3
  %9 = load i32, i32* %8, align 4
  %10 = getelementptr inbounds %"struct.std::pair", %"struct.std::pair"* %0, i32 0, i32 1
  store i32 %9, i32* %10, align 4
  ret %"struct.std::pair"* %0
}

; Function Attrs: noinline uwtable
define linkonce_odr i64 @_ZSt9make_pairIRKiiESt4pairINSt17__decay_and_stripIT_E6__typeENS3_IT0_E6__typeEEOS4_OS7_(i32* dereferenceable(4) %0, i32* dereferenceable(4) %1) #0 comdat {
  %3 = alloca %"struct.std::pair", align 4
  %4 = call dereferenceable(4) i32* @_ZSt7forwardIRKiEOT_RNSt16remove_referenceIS2_E4typeE(i32* dereferenceable(4) %0) #3
  %5 = call dereferenceable(4) i32* @_ZSt7forwardIiEOT_RNSt16remove_referenceIS0_E4typeE(i32* dereferenceable(4) %1) #3
  call void @_ZNSt4pairIiiEC2IiLb1EEERKiOT_(%"struct.std::pair"* %3, i32* dereferenceable(4) %4, i32* dereferenceable(4) %5)
  %6 = bitcast %"struct.std::pair"* %3 to i64*
  %7 = load i64, i64* %6, align 4
  ret i64 %7
}

; Function Attrs: noinline uwtable
define linkonce_odr void @_ZNSt6vectorISt4pairIiiESaIS1_EEC2EmRKS1_RKS2_(%"class.std::vector"* %0, i64 %1, %"struct.std::pair"* dereferenceable(8) %2, %"class.std::allocator"* dereferenceable(1) %3) unnamed_addr #0 comdat align 2 personality i8* bitcast (i32 (...)* @__gxx_personality_v0 to i8*) {
  %5 = bitcast %"class.std::vector"* %0 to %"struct.std::_Vector_base"*
  call void @_ZNSt12_Vector_baseISt4pairIiiESaIS1_EEC2EmRKS2_(%"struct.std::_Vector_base"* %5, i64 %1, %"class.std::allocator"* dereferenceable(1) %3)
  invoke void @_ZNSt6vectorISt4pairIiiESaIS1_EE18_M_fill_initializeEmRKS1_(%"class.std::vector"* %0, i64 %1, %"struct.std::pair"* dereferenceable(8) %2)
          to label %6 unwind label %7

6:                                                ; preds = %4
  ret void

7:                                                ; preds = %4
  %8 = landingpad { i8*, i32 }
          cleanup
  %9 = extractvalue { i8*, i32 } %8, 0
  %10 = extractvalue { i8*, i32 } %8, 1
  %11 = bitcast %"class.std::vector"* %0 to %"struct.std::_Vector_base"*
  call void @_ZNSt12_Vector_baseISt4pairIiiESaIS1_EED2Ev(%"struct.std::_Vector_base"* %11) #3
  br label %12

12:                                               ; preds = %7
  %13 = insertvalue { i8*, i32 } undef, i8* %9, 0
  %14 = insertvalue { i8*, i32 } %13, i32 %10, 1
  resume { i8*, i32 } %14
}

; Function Attrs: noinline uwtable
define internal void @"_ZZ4mainENK3$_0clEii"(%class.anon* %0, i32 %1, i32 %2) #0 align 2 {
  %4 = add nsw i32 %1, %2
  %5 = sub nsw i32 %1, %2
  %6 = getelementptr inbounds %class.anon, %class.anon* %0, i32 0, i32 0
  %7 = load %"class.std::vector"*, %"class.std::vector"** %6, align 8
  %8 = sext i32 %4 to i64
  %9 = call dereferenceable(8) %"struct.std::pair"* @_ZNSt6vectorISt4pairIiiESaIS1_EEixEm(%"class.std::vector"* %7, i64 %8) #3
  %10 = getelementptr inbounds %"struct.std::pair", %"struct.std::pair"* %9, i32 0, i32 0
  call void @_ZL4aminIiiEvRT_T0_(i32* dereferenceable(4) %10, i32 %5)
  %11 = getelementptr inbounds %class.anon, %class.anon* %0, i32 0, i32 0
  %12 = load %"class.std::vector"*, %"class.std::vector"** %11, align 8
  %13 = sext i32 %4 to i64
  %14 = call dereferenceable(8) %"struct.std::pair"* @_ZNSt6vectorISt4pairIiiESaIS1_EEixEm(%"class.std::vector"* %12, i64 %13) #3
  %15 = getelementptr inbounds %"struct.std::pair", %"struct.std::pair"* %14, i32 0, i32 1
  call void @_ZL4amaxIiiEvRT_T0_(i32* dereferenceable(4) %15, i32 %5)
  ret void
}

; Function Attrs: noinline nounwind uwtable
define linkonce_odr void @_ZNSaISt6vectorI5EventSaIS0_EEEC2Ev(%"class.std::allocator.2"* %0) unnamed_addr #5 comdat align 2 {
  %2 = bitcast %"class.std::allocator.2"* %0 to %"class.__gnu_cxx::new_allocator.3"*
  call void @_ZN9__gnu_cxx13new_allocatorISt6vectorI5EventSaIS2_EEEC2Ev(%"class.__gnu_cxx::new_allocator.3"* %2) #3
  ret void
}

; Function Attrs: noinline uwtable
define linkonce_odr void @_ZNSt6vectorIS_I5EventSaIS0_EESaIS2_EEC2EmRKS3_(%"class.std::vector.0"* %0, i64 %1, %"class.std::allocator.2"* dereferenceable(1) %2) unnamed_addr #0 comdat align 2 personality i8* bitcast (i32 (...)* @__gxx_personality_v0 to i8*) {
  %4 = bitcast %"class.std::vector.0"* %0 to %"struct.std::_Vector_base.1"*
  call void @_ZNSt12_Vector_baseISt6vectorI5EventSaIS1_EESaIS3_EEC2EmRKS4_(%"struct.std::_Vector_base.1"* %4, i64 %1, %"class.std::allocator.2"* dereferenceable(1) %2)
  invoke void @_ZNSt6vectorIS_I5EventSaIS0_EESaIS2_EE21_M_default_initializeEm(%"class.std::vector.0"* %0, i64 %1)
          to label %5 unwind label %6

5:                                                ; preds = %3
  ret void

6:                                                ; preds = %3
  %7 = landingpad { i8*, i32 }
          cleanup
  %8 = extractvalue { i8*, i32 } %7, 0
  %9 = extractvalue { i8*, i32 } %7, 1
  %10 = bitcast %"class.std::vector.0"* %0 to %"struct.std::_Vector_base.1"*
  call void @_ZNSt12_Vector_baseISt6vectorI5EventSaIS1_EESaIS3_EED2Ev(%"struct.std::_Vector_base.1"* %10) #3
  br label %11

11:                                               ; preds = %6
  %12 = insertvalue { i8*, i32 } undef, i8* %8, 0
  %13 = insertvalue { i8*, i32 } %12, i32 %9, 1
  resume { i8*, i32 } %13
}

; Function Attrs: noinline nounwind uwtable
define linkonce_odr void @_ZNSaISt6vectorI5EventSaIS0_EEED2Ev(%"class.std::allocator.2"* %0) unnamed_addr #5 comdat align 2 {
  %2 = bitcast %"class.std::allocator.2"* %0 to %"class.__gnu_cxx::new_allocator.3"*
  call void @_ZN9__gnu_cxx13new_allocatorISt6vectorI5EventSaIS2_EEED2Ev(%"class.__gnu_cxx::new_allocator.3"* %2) #3
  ret void
}

; Function Attrs: noinline nounwind uwtable
define linkonce_odr %"struct.std::pair"* @_ZNSt6vectorISt4pairIiiESaIS1_EE5beginEv(%"class.std::vector"* %0) #5 comdat align 2 {
  %2 = alloca %"class.__gnu_cxx::__normal_iterator", align 8
  %3 = bitcast %"class.std::vector"* %0 to %"struct.std::_Vector_base"*
  %4 = getelementptr inbounds %"struct.std::_Vector_base", %"struct.std::_Vector_base"* %3, i32 0, i32 0
  %5 = getelementptr inbounds %"struct.std::_Vector_base<std::pair<int, int>, std::allocator<std::pair<int, int> > >::_Vector_impl", %"struct.std::_Vector_base<std::pair<int, int>, std::allocator<std::pair<int, int> > >::_Vector_impl"* %4, i32 0, i32 0
  call void @_ZN9__gnu_cxx17__normal_iteratorIPSt4pairIiiESt6vectorIS2_SaIS2_EEEC2ERKS3_(%"class.__gnu_cxx::__normal_iterator"* %2, %"struct.std::pair"** dereferenceable(8) %5) #3
  %6 = getelementptr inbounds %"class.__gnu_cxx::__normal_iterator", %"class.__gnu_cxx::__normal_iterator"* %2, i32 0, i32 0
  %7 = load %"struct.std::pair"*, %"struct.std::pair"** %6, align 8
  ret %"struct.std::pair"* %7
}

; Function Attrs: noinline nounwind uwtable
define linkonce_odr %"struct.std::pair"* @_ZNSt6vectorISt4pairIiiESaIS1_EE3endEv(%"class.std::vector"* %0) #5 comdat align 2 {
  %2 = alloca %"class.__gnu_cxx::__normal_iterator", align 8
  %3 = bitcast %"class.std::vector"* %0 to %"struct.std::_Vector_base"*
  %4 = getelementptr inbounds %"struct.std::_Vector_base", %"struct.std::_Vector_base"* %3, i32 0, i32 0
  %5 = getelementptr inbounds %"struct.std::_Vector_base<std::pair<int, int>, std::allocator<std::pair<int, int> > >::_Vector_impl", %"struct.std::_Vector_base<std::pair<int, int>, std::allocator<std::pair<int, int> > >::_Vector_impl"* %4, i32 0, i32 1
  call void @_ZN9__gnu_cxx17__normal_iteratorIPSt4pairIiiESt6vectorIS2_SaIS2_EEEC2ERKS3_(%"class.__gnu_cxx::__normal_iterator"* %2, %"struct.std::pair"** dereferenceable(8) %5) #3
  %6 = getelementptr inbounds %"class.__gnu_cxx::__normal_iterator", %"class.__gnu_cxx::__normal_iterator"* %2, i32 0, i32 0
  %7 = load %"struct.std::pair"*, %"struct.std::pair"** %6, align 8
  ret %"struct.std::pair"* %7
}

; Function Attrs: noinline nounwind uwtable
define linkonce_odr zeroext i1 @_ZN9__gnu_cxxneIPSt4pairIiiESt6vectorIS2_SaIS2_EEEEbRKNS_17__normal_iteratorIT_T0_EESC_(%"class.__gnu_cxx::__normal_iterator"* dereferenceable(8) %0, %"class.__gnu_cxx::__normal_iterator"* dereferenceable(8) %1) #5 comdat {
  %3 = call dereferenceable(8) %"struct.std::pair"** @_ZNK9__gnu_cxx17__normal_iteratorIPSt4pairIiiESt6vectorIS2_SaIS2_EEE4baseEv(%"class.__gnu_cxx::__normal_iterator"* %0) #3
  %4 = load %"struct.std::pair"*, %"struct.std::pair"** %3, align 8
  %5 = call dereferenceable(8) %"struct.std::pair"** @_ZNK9__gnu_cxx17__normal_iteratorIPSt4pairIiiESt6vectorIS2_SaIS2_EEE4baseEv(%"class.__gnu_cxx::__normal_iterator"* %1) #3
  %6 = load %"struct.std::pair"*, %"struct.std::pair"** %5, align 8
  %7 = icmp ne %"struct.std::pair"* %4, %6
  ret i1 %7
}

; Function Attrs: noinline nounwind uwtable
define linkonce_odr dereferenceable(8) %"struct.std::pair"* @_ZNK9__gnu_cxx17__normal_iteratorIPSt4pairIiiESt6vectorIS2_SaIS2_EEEdeEv(%"class.__gnu_cxx::__normal_iterator"* %0) #5 comdat align 2 {
  %2 = getelementptr inbounds %"class.__gnu_cxx::__normal_iterator", %"class.__gnu_cxx::__normal_iterator"* %0, i32 0, i32 0
  %3 = load %"struct.std::pair"*, %"struct.std::pair"** %2, align 8
  ret %"struct.std::pair"* %3
}

; Function Attrs: noinline nounwind uwtable
define linkonce_odr dereferenceable(4) i32* @_ZSt3maxIiERKT_S2_S2_(i32* dereferenceable(4) %0, i32* dereferenceable(4) %1) #5 comdat {
  %3 = load i32, i32* %0, align 4
  %4 = load i32, i32* %1, align 4
  %5 = icmp slt i32 %3, %4
  br i1 %5, label %6, label %7

6:                                                ; preds = %2
  br label %8

7:                                                ; preds = %2
  br label %8

8:                                                ; preds = %7, %6
  %.0 = phi i32* [ %1, %6 ], [ %0, %7 ]
  ret i32* %.0
}

; Function Attrs: noinline nounwind uwtable
define linkonce_odr dereferenceable(4) i32* @_ZSt3minIiERKT_S2_S2_(i32* dereferenceable(4) %0, i32* dereferenceable(4) %1) #5 comdat {
  %3 = load i32, i32* %1, align 4
  %4 = load i32, i32* %0, align 4
  %5 = icmp slt i32 %3, %4
  br i1 %5, label %6, label %7

6:                                                ; preds = %2
  br label %8

7:                                                ; preds = %2
  br label %8

8:                                                ; preds = %7, %6
  %.0 = phi i32* [ %1, %6 ], [ %0, %7 ]
  ret i32* %.0
}

; Function Attrs: noinline nounwind uwtable
define linkonce_odr dereferenceable(24) %"class.std::vector.5"* @_ZNSt6vectorIS_I5EventSaIS0_EESaIS2_EEixEm(%"class.std::vector.0"* %0, i64 %1) #5 comdat align 2 {
  %3 = bitcast %"class.std::vector.0"* %0 to %"struct.std::_Vector_base.1"*
  %4 = getelementptr inbounds %"struct.std::_Vector_base.1", %"struct.std::_Vector_base.1"* %3, i32 0, i32 0
  %5 = getelementptr inbounds %"struct.std::_Vector_base<std::vector<Event, std::allocator<Event> >, std::allocator<std::vector<Event, std::allocator<Event> > > >::_Vector_impl", %"struct.std::_Vector_base<std::vector<Event, std::allocator<Event> >, std::allocator<std::vector<Event, std::allocator<Event> > > >::_Vector_impl"* %4, i32 0, i32 0
  %6 = load %"class.std::vector.5"*, %"class.std::vector.5"** %5, align 8
  %7 = getelementptr inbounds %"class.std::vector.5", %"class.std::vector.5"* %6, i64 %1
  ret %"class.std::vector.5"* %7
}

; Function Attrs: noinline uwtable
define linkonce_odr void @_ZNSt6vectorI5EventSaIS0_EE9push_backEOS0_(%"class.std::vector.5"* %0, %struct.Event* dereferenceable(12) %1) #0 comdat align 2 {
  %3 = call dereferenceable(12) %struct.Event* @_ZSt4moveIR5EventEONSt16remove_referenceIT_E4typeEOS3_(%struct.Event* dereferenceable(12) %1) #3
  call void @_ZNSt6vectorI5EventSaIS0_EE12emplace_backIJS0_EEEvDpOT_(%"class.std::vector.5"* %0, %struct.Event* dereferenceable(12) %3)
  ret void
}

; Function Attrs: noinline nounwind uwtable
define linkonce_odr dereferenceable(8) %"class.__gnu_cxx::__normal_iterator"* @_ZN9__gnu_cxx17__normal_iteratorIPSt4pairIiiESt6vectorIS2_SaIS2_EEEppEv(%"class.__gnu_cxx::__normal_iterator"* %0) #5 comdat align 2 {
  %2 = getelementptr inbounds %"class.__gnu_cxx::__normal_iterator", %"class.__gnu_cxx::__normal_iterator"* %0, i32 0, i32 0
  %3 = load %"struct.std::pair"*, %"struct.std::pair"** %2, align 8
  %4 = getelementptr inbounds %"struct.std::pair", %"struct.std::pair"* %3, i32 1
  store %"struct.std::pair"* %4, %"struct.std::pair"** %2, align 8
  ret %"class.__gnu_cxx::__normal_iterator"* %0
}

; Function Attrs: noinline nounwind uwtable
define linkonce_odr void @_ZN17AddMaxSegmentTreeC2Ev(%struct.AddMaxSegmentTree* %0) unnamed_addr #5 comdat align 2 {
  %2 = getelementptr inbounds %struct.AddMaxSegmentTree, %struct.AddMaxSegmentTree* %0, i32 0, i32 0
  call void @_ZNSt6vectorIiSaIiEEC2Ev(%"class.std::vector.10"* %2) #3
  %3 = getelementptr inbounds %struct.AddMaxSegmentTree, %struct.AddMaxSegmentTree* %0, i32 0, i32 1
  call void @_ZNSt6vectorIiSaIiEEC2Ev(%"class.std::vector.10"* %3) #3
  ret void
}

; Function Attrs: noinline uwtable
define linkonce_odr void @_ZN17AddMaxSegmentTree4initEi(%struct.AddMaxSegmentTree* %0, i32 %1) #0 comdat align 2 {
  %3 = alloca i32, align 4
  %4 = alloca i32, align 4
  %5 = getelementptr inbounds %struct.AddMaxSegmentTree, %struct.AddMaxSegmentTree* %0, i32 0, i32 2
  store i32 1, i32* %5, align 8
  br label %6

6:                                                ; preds = %10, %2
  %7 = getelementptr inbounds %struct.AddMaxSegmentTree, %struct.AddMaxSegmentTree* %0, i32 0, i32 2
  %8 = load i32, i32* %7, align 8
  %9 = icmp slt i32 %8, %1
  br i1 %9, label %10, label %14

10:                                               ; preds = %6
  %11 = getelementptr inbounds %struct.AddMaxSegmentTree, %struct.AddMaxSegmentTree* %0, i32 0, i32 2
  %12 = load i32, i32* %11, align 8
  %13 = mul nsw i32 %12, 2
  store i32 %13, i32* %11, align 8
  br label %6

14:                                               ; preds = %6
  %15 = getelementptr inbounds %struct.AddMaxSegmentTree, %struct.AddMaxSegmentTree* %0, i32 0, i32 0
  %16 = getelementptr inbounds %struct.AddMaxSegmentTree, %struct.AddMaxSegmentTree* %0, i32 0, i32 2
  %17 = load i32, i32* %16, align 8
  %18 = mul nsw i32 %17, 2
  %19 = sext i32 %18 to i64
  store i32 0, i32* %3, align 4
  call void @_ZNSt6vectorIiSaIiEE6assignEmRKi(%"class.std::vector.10"* %15, i64 %19, i32* dereferenceable(4) %3)
  %20 = getelementptr inbounds %struct.AddMaxSegmentTree, %struct.AddMaxSegmentTree* %0, i32 0, i32 1
  %21 = getelementptr inbounds %struct.AddMaxSegmentTree, %struct.AddMaxSegmentTree* %0, i32 0, i32 2
  %22 = load i32, i32* %21, align 8
  %23 = mul nsw i32 %22, 2
  %24 = sext i32 %23 to i64
  store i32 0, i32* %4, align 4
  call void @_ZNSt6vectorIiSaIiEE6assignEmRKi(%"class.std::vector.10"* %20, i64 %24, i32* dereferenceable(4) %4)
  ret void
}

; Function Attrs: noinline nounwind uwtable
define linkonce_odr %struct.Event* @_ZNSt6vectorI5EventSaIS0_EE5beginEv(%"class.std::vector.5"* %0) #5 comdat align 2 {
  %2 = alloca %"class.__gnu_cxx::__normal_iterator.16", align 8
  %3 = bitcast %"class.std::vector.5"* %0 to %"struct.std::_Vector_base.6"*
  %4 = getelementptr inbounds %"struct.std::_Vector_base.6", %"struct.std::_Vector_base.6"* %3, i32 0, i32 0
  %5 = getelementptr inbounds %"struct.std::_Vector_base<Event, std::allocator<Event> >::_Vector_impl", %"struct.std::_Vector_base<Event, std::allocator<Event> >::_Vector_impl"* %4, i32 0, i32 0
  call void @_ZN9__gnu_cxx17__normal_iteratorIP5EventSt6vectorIS1_SaIS1_EEEC2ERKS2_(%"class.__gnu_cxx::__normal_iterator.16"* %2, %struct.Event** dereferenceable(8) %5) #3
  %6 = getelementptr inbounds %"class.__gnu_cxx::__normal_iterator.16", %"class.__gnu_cxx::__normal_iterator.16"* %2, i32 0, i32 0
  %7 = load %struct.Event*, %struct.Event** %6, align 8
  ret %struct.Event* %7
}

; Function Attrs: noinline nounwind uwtable
define linkonce_odr %struct.Event* @_ZNSt6vectorI5EventSaIS0_EE3endEv(%"class.std::vector.5"* %0) #5 comdat align 2 {
  %2 = alloca %"class.__gnu_cxx::__normal_iterator.16", align 8
  %3 = bitcast %"class.std::vector.5"* %0 to %"struct.std::_Vector_base.6"*
  %4 = getelementptr inbounds %"struct.std::_Vector_base.6", %"struct.std::_Vector_base.6"* %3, i32 0, i32 0
  %5 = getelementptr inbounds %"struct.std::_Vector_base<Event, std::allocator<Event> >::_Vector_impl", %"struct.std::_Vector_base<Event, std::allocator<Event> >::_Vector_impl"* %4, i32 0, i32 1
  call void @_ZN9__gnu_cxx17__normal_iteratorIP5EventSt6vectorIS1_SaIS1_EEEC2ERKS2_(%"class.__gnu_cxx::__normal_iterator.16"* %2, %struct.Event** dereferenceable(8) %5) #3
  %6 = getelementptr inbounds %"class.__gnu_cxx::__normal_iterator.16", %"class.__gnu_cxx::__normal_iterator.16"* %2, i32 0, i32 0
  %7 = load %struct.Event*, %struct.Event** %6, align 8
  ret %struct.Event* %7
}

; Function Attrs: noinline nounwind uwtable
define linkonce_odr zeroext i1 @_ZN9__gnu_cxxneIP5EventSt6vectorIS1_SaIS1_EEEEbRKNS_17__normal_iteratorIT_T0_EESB_(%"class.__gnu_cxx::__normal_iterator.16"* dereferenceable(8) %0, %"class.__gnu_cxx::__normal_iterator.16"* dereferenceable(8) %1) #5 comdat {
  %3 = call dereferenceable(8) %struct.Event** @_ZNK9__gnu_cxx17__normal_iteratorIP5EventSt6vectorIS1_SaIS1_EEE4baseEv(%"class.__gnu_cxx::__normal_iterator.16"* %0) #3
  %4 = load %struct.Event*, %struct.Event** %3, align 8
  %5 = call dereferenceable(8) %struct.Event** @_ZNK9__gnu_cxx17__normal_iteratorIP5EventSt6vectorIS1_SaIS1_EEE4baseEv(%"class.__gnu_cxx::__normal_iterator.16"* %1) #3
  %6 = load %struct.Event*, %struct.Event** %5, align 8
  %7 = icmp ne %struct.Event* %4, %6
  ret i1 %7
}

; Function Attrs: noinline nounwind uwtable
define linkonce_odr dereferenceable(12) %struct.Event* @_ZNK9__gnu_cxx17__normal_iteratorIP5EventSt6vectorIS1_SaIS1_EEEdeEv(%"class.__gnu_cxx::__normal_iterator.16"* %0) #5 comdat align 2 {
  %2 = getelementptr inbounds %"class.__gnu_cxx::__normal_iterator.16", %"class.__gnu_cxx::__normal_iterator.16"* %0, i32 0, i32 0
  %3 = load %struct.Event*, %struct.Event** %2, align 8
  ret %struct.Event* %3
}

; Function Attrs: noinline nounwind uwtable
define internal void @"_ZZ4mainENK3$_1clERiS0_i"(%class.anon.15* %0, i32* dereferenceable(4) %1, i32* dereferenceable(4) %2, i32 %3) #5 align 2 {
  %5 = load i32, i32* %1, align 4
  %6 = and i32 %5, 1
  %7 = icmp ne i32 %6, %3
  br i1 %7, label %8, label %11

8:                                                ; preds = %4
  %9 = load i32, i32* %1, align 4
  %10 = add nsw i32 %9, 1
  store i32 %10, i32* %1, align 4
  br label %11

11:                                               ; preds = %8, %4
  %12 = load i32, i32* %2, align 4
  %13 = and i32 %12, 1
  %14 = icmp ne i32 %13, %3
  br i1 %14, label %15, label %18

15:                                               ; preds = %11
  %16 = load i32, i32* %2, align 4
  %17 = add nsw i32 %16, 1
  store i32 %17, i32* %2, align 4
  br label %18

18:                                               ; preds = %15, %11
  %19 = load i32, i32* %1, align 4
  %20 = sub nsw i32 %19, %3
  %21 = sdiv i32 %20, 2
  store i32 %21, i32* %1, align 4
  %22 = load i32, i32* %2, align 4
  %23 = sub nsw i32 %22, %3
  %24 = sdiv i32 %23, 2
  store i32 %24, i32* %2, align 4
  ret void
}

; Function Attrs: noinline uwtable
define linkonce_odr void @_ZN17AddMaxSegmentTree10addToRangeEiii(%struct.AddMaxSegmentTree* %0, i32 %1, i32 %2, i32 %3) #0 comdat align 2 {
  %5 = icmp slt i32 %1, %2
  br i1 %5, label %6, label %9

6:                                                ; preds = %4
  %7 = getelementptr inbounds %struct.AddMaxSegmentTree, %struct.AddMaxSegmentTree* %0, i32 0, i32 2
  %8 = load i32, i32* %7, align 8
  call void @_ZN17AddMaxSegmentTree13addToRangeRecEiiiiii(%struct.AddMaxSegmentTree* %0, i32 1, i32 %1, i32 %2, i32 %3, i32 0, i32 %8)
  br label %9

9:                                                ; preds = %6, %4
  ret void
}

; Function Attrs: noinline nounwind uwtable
define linkonce_odr dereferenceable(8) %"class.__gnu_cxx::__normal_iterator.16"* @_ZN9__gnu_cxx17__normal_iteratorIP5EventSt6vectorIS1_SaIS1_EEEppEv(%"class.__gnu_cxx::__normal_iterator.16"* %0) #5 comdat align 2 {
  %2 = getelementptr inbounds %"class.__gnu_cxx::__normal_iterator.16", %"class.__gnu_cxx::__normal_iterator.16"* %0, i32 0, i32 0
  %3 = load %struct.Event*, %struct.Event** %2, align 8
  %4 = getelementptr inbounds %struct.Event, %struct.Event* %3, i32 1
  store %struct.Event* %4, %struct.Event** %2, align 8
  ret %"class.__gnu_cxx::__normal_iterator.16"* %0
}

; Function Attrs: noinline uwtable
define linkonce_odr i32 @_ZN17AddMaxSegmentTree8getRangeEii(%struct.AddMaxSegmentTree* %0, i32 %1, i32 %2) #0 comdat align 2 {
  %4 = icmp sge i32 %1, %2
  br i1 %4, label %5, label %6

5:                                                ; preds = %3
  br label %10

6:                                                ; preds = %3
  %7 = getelementptr inbounds %struct.AddMaxSegmentTree, %struct.AddMaxSegmentTree* %0, i32 0, i32 2
  %8 = load i32, i32* %7, align 8
  %9 = call i32 @_ZN17AddMaxSegmentTree11getRangeRecEiiiii(%struct.AddMaxSegmentTree* %0, i32 1, i32 %1, i32 %2, i32 0, i32 %8)
  br label %10

10:                                               ; preds = %6, %5
  %.0 = phi i32 [ -1061109567, %5 ], [ %9, %6 ]
  ret i32 %.0
}

; Function Attrs: noinline nounwind uwtable
define linkonce_odr void @_ZN17AddMaxSegmentTreeD2Ev(%struct.AddMaxSegmentTree* %0) unnamed_addr #5 comdat align 2 {
  %2 = getelementptr inbounds %struct.AddMaxSegmentTree, %struct.AddMaxSegmentTree* %0, i32 0, i32 1
  call void @_ZNSt6vectorIiSaIiEED2Ev(%"class.std::vector.10"* %2) #3
  %3 = getelementptr inbounds %struct.AddMaxSegmentTree, %struct.AddMaxSegmentTree* %0, i32 0, i32 0
  call void @_ZNSt6vectorIiSaIiEED2Ev(%"class.std::vector.10"* %3) #3
  ret void
}

; Function Attrs: noinline nounwind uwtable
define linkonce_odr void @_ZNSt6vectorIS_I5EventSaIS0_EESaIS2_EED2Ev(%"class.std::vector.0"* %0) unnamed_addr #5 comdat align 2 personality i8* bitcast (i32 (...)* @__gxx_personality_v0 to i8*) {
  %2 = bitcast %"class.std::vector.0"* %0 to %"struct.std::_Vector_base.1"*
  %3 = getelementptr inbounds %"struct.std::_Vector_base.1", %"struct.std::_Vector_base.1"* %2, i32 0, i32 0
  %4 = getelementptr inbounds %"struct.std::_Vector_base<std::vector<Event, std::allocator<Event> >, std::allocator<std::vector<Event, std::allocator<Event> > > >::_Vector_impl", %"struct.std::_Vector_base<std::vector<Event, std::allocator<Event> >, std::allocator<std::vector<Event, std::allocator<Event> > > >::_Vector_impl"* %3, i32 0, i32 0
  %5 = load %"class.std::vector.5"*, %"class.std::vector.5"** %4, align 8
  %6 = bitcast %"class.std::vector.0"* %0 to %"struct.std::_Vector_base.1"*
  %7 = getelementptr inbounds %"struct.std::_Vector_base.1", %"struct.std::_Vector_base.1"* %6, i32 0, i32 0
  %8 = getelementptr inbounds %"struct.std::_Vector_base<std::vector<Event, std::allocator<Event> >, std::allocator<std::vector<Event, std::allocator<Event> > > >::_Vector_impl", %"struct.std::_Vector_base<std::vector<Event, std::allocator<Event> >, std::allocator<std::vector<Event, std::allocator<Event> > > >::_Vector_impl"* %7, i32 0, i32 1
  %9 = load %"class.std::vector.5"*, %"class.std::vector.5"** %8, align 8
  %10 = bitcast %"class.std::vector.0"* %0 to %"struct.std::_Vector_base.1"*
  %11 = call dereferenceable(1) %"class.std::allocator.2"* @_ZNSt12_Vector_baseISt6vectorI5EventSaIS1_EESaIS3_EE19_M_get_Tp_allocatorEv(%"struct.std::_Vector_base.1"* %10) #3
  invoke void @_ZSt8_DestroyIPSt6vectorI5EventSaIS1_EES3_EvT_S5_RSaIT0_E(%"class.std::vector.5"* %5, %"class.std::vector.5"* %9, %"class.std::allocator.2"* dereferenceable(1) %11)
          to label %12 unwind label %14

12:                                               ; preds = %1
  %13 = bitcast %"class.std::vector.0"* %0 to %"struct.std::_Vector_base.1"*
  call void @_ZNSt12_Vector_baseISt6vectorI5EventSaIS1_EESaIS3_EED2Ev(%"struct.std::_Vector_base.1"* %13) #3
  ret void

14:                                               ; preds = %1
  %15 = landingpad { i8*, i32 }
          catch i8* null
  %16 = extractvalue { i8*, i32 } %15, 0
  %17 = extractvalue { i8*, i32 } %15, 1
  %18 = bitcast %"class.std::vector.0"* %0 to %"struct.std::_Vector_base.1"*
  call void @_ZNSt12_Vector_baseISt6vectorI5EventSaIS1_EESaIS3_EED2Ev(%"struct.std::_Vector_base.1"* %18) #3
  br label %19

19:                                               ; preds = %14
  call void @__clang_call_terminate(i8* %16) #12
  unreachable
}

declare i32 @printf(i8*, ...) #1

; Function Attrs: noinline nounwind uwtable
define linkonce_odr void @_ZNSt6vectorISt4pairIiiESaIS1_EED2Ev(%"class.std::vector"* %0) unnamed_addr #5 comdat align 2 personality i8* bitcast (i32 (...)* @__gxx_personality_v0 to i8*) {
  %2 = bitcast %"class.std::vector"* %0 to %"struct.std::_Vector_base"*
  %3 = getelementptr inbounds %"struct.std::_Vector_base", %"struct.std::_Vector_base"* %2, i32 0, i32 0
  %4 = getelementptr inbounds %"struct.std::_Vector_base<std::pair<int, int>, std::allocator<std::pair<int, int> > >::_Vector_impl", %"struct.std::_Vector_base<std::pair<int, int>, std::allocator<std::pair<int, int> > >::_Vector_impl"* %3, i32 0, i32 0
  %5 = load %"struct.std::pair"*, %"struct.std::pair"** %4, align 8
  %6 = bitcast %"class.std::vector"* %0 to %"struct.std::_Vector_base"*
  %7 = getelementptr inbounds %"struct.std::_Vector_base", %"struct.std::_Vector_base"* %6, i32 0, i32 0
  %8 = getelementptr inbounds %"struct.std::_Vector_base<std::pair<int, int>, std::allocator<std::pair<int, int> > >::_Vector_impl", %"struct.std::_Vector_base<std::pair<int, int>, std::allocator<std::pair<int, int> > >::_Vector_impl"* %7, i32 0, i32 1
  %9 = load %"struct.std::pair"*, %"struct.std::pair"** %8, align 8
  %10 = bitcast %"class.std::vector"* %0 to %"struct.std::_Vector_base"*
  %11 = call dereferenceable(1) %"class.std::allocator"* @_ZNSt12_Vector_baseISt4pairIiiESaIS1_EE19_M_get_Tp_allocatorEv(%"struct.std::_Vector_base"* %10) #3
  invoke void @_ZSt8_DestroyIPSt4pairIiiES1_EvT_S3_RSaIT0_E(%"struct.std::pair"* %5, %"struct.std::pair"* %9, %"class.std::allocator"* dereferenceable(1) %11)
          to label %12 unwind label %14

12:                                               ; preds = %1
  %13 = bitcast %"class.std::vector"* %0 to %"struct.std::_Vector_base"*
  call void @_ZNSt12_Vector_baseISt4pairIiiESaIS1_EED2Ev(%"struct.std::_Vector_base"* %13) #3
  ret void

14:                                               ; preds = %1
  %15 = landingpad { i8*, i32 }
          catch i8* null
  %16 = extractvalue { i8*, i32 } %15, 0
  %17 = extractvalue { i8*, i32 } %15, 1
  %18 = bitcast %"class.std::vector"* %0 to %"struct.std::_Vector_base"*
  call void @_ZNSt12_Vector_baseISt4pairIiiESaIS1_EED2Ev(%"struct.std::_Vector_base"* %18) #3
  br label %19

19:                                               ; preds = %14
  call void @__clang_call_terminate(i8* %16) #12
  unreachable
}

; Function Attrs: noinline nounwind uwtable
define linkonce_odr dereferenceable(4) i32* @_ZSt7forwardIiEOT_RNSt16remove_referenceIS0_E4typeE(i32* dereferenceable(4) %0) #5 comdat {
  ret i32* %0
}

; Function Attrs: noinline nounwind uwtable
define linkonce_odr dereferenceable(4) i32* @_ZSt7forwardIRKiEOT_RNSt16remove_referenceIS2_E4typeE(i32* dereferenceable(4) %0) #5 comdat {
  ret i32* %0
}

; Function Attrs: noinline nounwind uwtable
define linkonce_odr void @_ZNSt4pairIiiEC2IiLb1EEERKiOT_(%"struct.std::pair"* %0, i32* dereferenceable(4) %1, i32* dereferenceable(4) %2) unnamed_addr #5 comdat align 2 {
  %4 = bitcast %"struct.std::pair"* %0 to %"class.std::__pair_base"*
  %5 = getelementptr inbounds %"struct.std::pair", %"struct.std::pair"* %0, i32 0, i32 0
  %6 = load i32, i32* %1, align 4
  store i32 %6, i32* %5, align 4
  %7 = getelementptr inbounds %"struct.std::pair", %"struct.std::pair"* %0, i32 0, i32 1
  %8 = call dereferenceable(4) i32* @_ZSt7forwardIiEOT_RNSt16remove_referenceIS0_E4typeE(i32* dereferenceable(4) %2) #3
  %9 = load i32, i32* %8, align 4
  store i32 %9, i32* %7, align 4
  ret void
}

; Function Attrs: noinline nounwind uwtable
define internal void @_ZL4aminIiiEvRT_T0_(i32* dereferenceable(4) %0, i32 %1) #5 {
  %3 = load i32, i32* %0, align 4
  %4 = icmp slt i32 %1, %3
  br i1 %4, label %5, label %6

5:                                                ; preds = %2
  store i32 %1, i32* %0, align 4
  br label %6

6:                                                ; preds = %5, %2
  ret void
}

; Function Attrs: noinline nounwind uwtable
define internal void @_ZL4amaxIiiEvRT_T0_(i32* dereferenceable(4) %0, i32 %1) #5 {
  %3 = load i32, i32* %0, align 4
  %4 = icmp slt i32 %3, %1
  br i1 %4, label %5, label %6

5:                                                ; preds = %2
  store i32 %1, i32* %0, align 4
  br label %6

6:                                                ; preds = %5, %2
  ret void
}

; Function Attrs: noinline nounwind uwtable
define linkonce_odr void @_ZNSt6vectorIiSaIiEEC2Ev(%"class.std::vector.10"* %0) unnamed_addr #5 comdat align 2 personality i8* bitcast (i32 (...)* @__gxx_personality_v0 to i8*) {
  %2 = bitcast %"class.std::vector.10"* %0 to %"struct.std::_Vector_base.11"*
  invoke void @_ZNSt12_Vector_baseIiSaIiEEC2Ev(%"struct.std::_Vector_base.11"* %2)
          to label %3 unwind label %4

3:                                                ; preds = %1
  ret void

4:                                                ; preds = %1
  %5 = landingpad { i8*, i32 }
          catch i8* null
  %6 = extractvalue { i8*, i32 } %5, 0
  call void @__clang_call_terminate(i8* %6) #12
  unreachable
}

; Function Attrs: noinline uwtable
define linkonce_odr void @_ZNSt12_Vector_baseIiSaIiEEC2Ev(%"struct.std::_Vector_base.11"* %0) unnamed_addr #0 comdat align 2 {
  %2 = getelementptr inbounds %"struct.std::_Vector_base.11", %"struct.std::_Vector_base.11"* %0, i32 0, i32 0
  call void @_ZNSt12_Vector_baseIiSaIiEE12_Vector_implC2Ev(%"struct.std::_Vector_base<int, std::allocator<int> >::_Vector_impl"* %2)
  ret void
}

; Function Attrs: noinline noreturn nounwind
define linkonce_odr hidden void @__clang_call_terminate(i8* %0) #6 comdat {
  %2 = call i8* @__cxa_begin_catch(i8* %0) #3
  call void @_ZSt9terminatev() #12
  unreachable
}

declare i8* @__cxa_begin_catch(i8*)

declare void @_ZSt9terminatev()

; Function Attrs: noinline nounwind uwtable
define linkonce_odr void @_ZNSt12_Vector_baseIiSaIiEE12_Vector_implC2Ev(%"struct.std::_Vector_base<int, std::allocator<int> >::_Vector_impl"* %0) unnamed_addr #5 comdat align 2 {
  %2 = bitcast %"struct.std::_Vector_base<int, std::allocator<int> >::_Vector_impl"* %0 to %"class.std::allocator.12"*
  call void @_ZNSaIiEC2Ev(%"class.std::allocator.12"* %2) #3
  %3 = getelementptr inbounds %"struct.std::_Vector_base<int, std::allocator<int> >::_Vector_impl", %"struct.std::_Vector_base<int, std::allocator<int> >::_Vector_impl"* %0, i32 0, i32 0
  store i32* null, i32** %3, align 8
  %4 = getelementptr inbounds %"struct.std::_Vector_base<int, std::allocator<int> >::_Vector_impl", %"struct.std::_Vector_base<int, std::allocator<int> >::_Vector_impl"* %0, i32 0, i32 1
  store i32* null, i32** %4, align 8
  %5 = getelementptr inbounds %"struct.std::_Vector_base<int, std::allocator<int> >::_Vector_impl", %"struct.std::_Vector_base<int, std::allocator<int> >::_Vector_impl"* %0, i32 0, i32 2
  store i32* null, i32** %5, align 8
  ret void
}

; Function Attrs: noinline nounwind uwtable
define linkonce_odr void @_ZNSaIiEC2Ev(%"class.std::allocator.12"* %0) unnamed_addr #5 comdat align 2 {
  %2 = bitcast %"class.std::allocator.12"* %0 to %"class.__gnu_cxx::new_allocator.13"*
  call void @_ZN9__gnu_cxx13new_allocatorIiEC2Ev(%"class.__gnu_cxx::new_allocator.13"* %2) #3
  ret void
}

; Function Attrs: noinline nounwind uwtable
define linkonce_odr void @_ZN9__gnu_cxx13new_allocatorIiEC2Ev(%"class.__gnu_cxx::new_allocator.13"* %0) unnamed_addr #5 comdat align 2 {
  ret void
}

; Function Attrs: noinline uwtable
define linkonce_odr void @_ZNSt6vectorIiSaIiEE6assignEmRKi(%"class.std::vector.10"* %0, i64 %1, i32* dereferenceable(4) %2) #0 comdat align 2 {
  call void @_ZNSt6vectorIiSaIiEE14_M_fill_assignEmRKi(%"class.std::vector.10"* %0, i64 %1, i32* dereferenceable(4) %2)
  ret void
}

; Function Attrs: noinline uwtable
define linkonce_odr void @_ZNSt6vectorIiSaIiEE14_M_fill_assignEmRKi(%"class.std::vector.10"* %0, i64 %1, i32* dereferenceable(4) %2) #0 comdat align 2 {
  %4 = alloca %"class.std::vector.10", align 8
  %5 = alloca %"class.__gnu_cxx::__normal_iterator.17", align 8
  %6 = alloca %"class.__gnu_cxx::__normal_iterator.17", align 8
  %7 = call i64 @_ZNKSt6vectorIiSaIiEE8capacityEv(%"class.std::vector.10"* %0) #3
  %8 = icmp ugt i64 %1, %7
  br i1 %8, label %9, label %16

9:                                                ; preds = %3
  %10 = bitcast %"class.std::vector.10"* %0 to %"struct.std::_Vector_base.11"*
  %11 = call dereferenceable(1) %"class.std::allocator.12"* @_ZNSt12_Vector_baseIiSaIiEE19_M_get_Tp_allocatorEv(%"struct.std::_Vector_base.11"* %10) #3
  call void @_ZNSt6vectorIiSaIiEEC2EmRKiRKS0_(%"class.std::vector.10"* %4, i64 %1, i32* dereferenceable(4) %2, %"class.std::allocator.12"* dereferenceable(1) %11)
  %12 = bitcast %"class.std::vector.10"* %4 to %"struct.std::_Vector_base.11"*
  %13 = getelementptr inbounds %"struct.std::_Vector_base.11", %"struct.std::_Vector_base.11"* %12, i32 0, i32 0
  %14 = bitcast %"class.std::vector.10"* %0 to %"struct.std::_Vector_base.11"*
  %15 = getelementptr inbounds %"struct.std::_Vector_base.11", %"struct.std::_Vector_base.11"* %14, i32 0, i32 0
  call void @_ZNSt12_Vector_baseIiSaIiEE12_Vector_impl12_M_swap_dataERS2_(%"struct.std::_Vector_base<int, std::allocator<int> >::_Vector_impl"* %13, %"struct.std::_Vector_base<int, std::allocator<int> >::_Vector_impl"* dereferenceable(24) %15) #3
  call void @_ZNSt6vectorIiSaIiEED2Ev(%"class.std::vector.10"* %4) #3
  br label %47

16:                                               ; preds = %3
  %17 = call i64 @_ZNKSt6vectorIiSaIiEE4sizeEv(%"class.std::vector.10"* %0) #3
  %18 = icmp ugt i64 %1, %17
  br i1 %18, label %19, label %40

19:                                               ; preds = %16
  %20 = call i32* @_ZNSt6vectorIiSaIiEE5beginEv(%"class.std::vector.10"* %0) #3
  %21 = getelementptr inbounds %"class.__gnu_cxx::__normal_iterator.17", %"class.__gnu_cxx::__normal_iterator.17"* %5, i32 0, i32 0
  store i32* %20, i32** %21, align 8
  %22 = call i32* @_ZNSt6vectorIiSaIiEE3endEv(%"class.std::vector.10"* %0) #3
  %23 = getelementptr inbounds %"class.__gnu_cxx::__normal_iterator.17", %"class.__gnu_cxx::__normal_iterator.17"* %6, i32 0, i32 0
  store i32* %22, i32** %23, align 8
  %24 = getelementptr inbounds %"class.__gnu_cxx::__normal_iterator.17", %"class.__gnu_cxx::__normal_iterator.17"* %5, i32 0, i32 0
  %25 = load i32*, i32** %24, align 8
  %26 = getelementptr inbounds %"class.__gnu_cxx::__normal_iterator.17", %"class.__gnu_cxx::__normal_iterator.17"* %6, i32 0, i32 0
  %27 = load i32*, i32** %26, align 8
  call void @_ZSt4fillIN9__gnu_cxx17__normal_iteratorIPiSt6vectorIiSaIiEEEEiEvT_S7_RKT0_(i32* %25, i32* %27, i32* dereferenceable(4) %2)
  %28 = call i64 @_ZNKSt6vectorIiSaIiEE4sizeEv(%"class.std::vector.10"* %0) #3
  %29 = sub i64 %1, %28
  %30 = bitcast %"class.std::vector.10"* %0 to %"struct.std::_Vector_base.11"*
  %31 = getelementptr inbounds %"struct.std::_Vector_base.11", %"struct.std::_Vector_base.11"* %30, i32 0, i32 0
  %32 = getelementptr inbounds %"struct.std::_Vector_base<int, std::allocator<int> >::_Vector_impl", %"struct.std::_Vector_base<int, std::allocator<int> >::_Vector_impl"* %31, i32 0, i32 1
  %33 = load i32*, i32** %32, align 8
  %34 = bitcast %"class.std::vector.10"* %0 to %"struct.std::_Vector_base.11"*
  %35 = call dereferenceable(1) %"class.std::allocator.12"* @_ZNSt12_Vector_baseIiSaIiEE19_M_get_Tp_allocatorEv(%"struct.std::_Vector_base.11"* %34) #3
  %36 = call i32* @_ZSt24__uninitialized_fill_n_aIPimiiET_S1_T0_RKT1_RSaIT2_E(i32* %33, i64 %29, i32* dereferenceable(4) %2, %"class.std::allocator.12"* dereferenceable(1) %35)
  %37 = bitcast %"class.std::vector.10"* %0 to %"struct.std::_Vector_base.11"*
  %38 = getelementptr inbounds %"struct.std::_Vector_base.11", %"struct.std::_Vector_base.11"* %37, i32 0, i32 0
  %39 = getelementptr inbounds %"struct.std::_Vector_base<int, std::allocator<int> >::_Vector_impl", %"struct.std::_Vector_base<int, std::allocator<int> >::_Vector_impl"* %38, i32 0, i32 1
  store i32* %36, i32** %39, align 8
  br label %46

40:                                               ; preds = %16
  %41 = bitcast %"class.std::vector.10"* %0 to %"struct.std::_Vector_base.11"*
  %42 = getelementptr inbounds %"struct.std::_Vector_base.11", %"struct.std::_Vector_base.11"* %41, i32 0, i32 0
  %43 = getelementptr inbounds %"struct.std::_Vector_base<int, std::allocator<int> >::_Vector_impl", %"struct.std::_Vector_base<int, std::allocator<int> >::_Vector_impl"* %42, i32 0, i32 0
  %44 = load i32*, i32** %43, align 8
  %45 = call i32* @_ZSt6fill_nIPimiET_S1_T0_RKT1_(i32* %44, i64 %1, i32* dereferenceable(4) %2)
  call void @_ZNSt6vectorIiSaIiEE15_M_erase_at_endEPi(%"class.std::vector.10"* %0, i32* %45) #3
  br label %46

46:                                               ; preds = %40, %19
  br label %47

47:                                               ; preds = %46, %9
  ret void
}

; Function Attrs: noinline nounwind uwtable
define linkonce_odr i64 @_ZNKSt6vectorIiSaIiEE8capacityEv(%"class.std::vector.10"* %0) #5 comdat align 2 {
  %2 = bitcast %"class.std::vector.10"* %0 to %"struct.std::_Vector_base.11"*
  %3 = getelementptr inbounds %"struct.std::_Vector_base.11", %"struct.std::_Vector_base.11"* %2, i32 0, i32 0
  %4 = getelementptr inbounds %"struct.std::_Vector_base<int, std::allocator<int> >::_Vector_impl", %"struct.std::_Vector_base<int, std::allocator<int> >::_Vector_impl"* %3, i32 0, i32 2
  %5 = load i32*, i32** %4, align 8
  %6 = bitcast %"class.std::vector.10"* %0 to %"struct.std::_Vector_base.11"*
  %7 = getelementptr inbounds %"struct.std::_Vector_base.11", %"struct.std::_Vector_base.11"* %6, i32 0, i32 0
  %8 = getelementptr inbounds %"struct.std::_Vector_base<int, std::allocator<int> >::_Vector_impl", %"struct.std::_Vector_base<int, std::allocator<int> >::_Vector_impl"* %7, i32 0, i32 0
  %9 = load i32*, i32** %8, align 8
  %10 = ptrtoint i32* %5 to i64
  %11 = ptrtoint i32* %9 to i64
  %12 = sub i64 %10, %11
  %13 = sdiv exact i64 %12, 4
  ret i64 %13
}

; Function Attrs: noinline nounwind uwtable
define linkonce_odr dereferenceable(1) %"class.std::allocator.12"* @_ZNSt12_Vector_baseIiSaIiEE19_M_get_Tp_allocatorEv(%"struct.std::_Vector_base.11"* %0) #5 comdat align 2 {
  %2 = getelementptr inbounds %"struct.std::_Vector_base.11", %"struct.std::_Vector_base.11"* %0, i32 0, i32 0
  %3 = bitcast %"struct.std::_Vector_base<int, std::allocator<int> >::_Vector_impl"* %2 to %"class.std::allocator.12"*
  ret %"class.std::allocator.12"* %3
}

; Function Attrs: noinline uwtable
define linkonce_odr void @_ZNSt6vectorIiSaIiEEC2EmRKiRKS0_(%"class.std::vector.10"* %0, i64 %1, i32* dereferenceable(4) %2, %"class.std::allocator.12"* dereferenceable(1) %3) unnamed_addr #0 comdat align 2 personality i8* bitcast (i32 (...)* @__gxx_personality_v0 to i8*) {
  %5 = bitcast %"class.std::vector.10"* %0 to %"struct.std::_Vector_base.11"*
  call void @_ZNSt12_Vector_baseIiSaIiEEC2EmRKS0_(%"struct.std::_Vector_base.11"* %5, i64 %1, %"class.std::allocator.12"* dereferenceable(1) %3)
  invoke void @_ZNSt6vectorIiSaIiEE18_M_fill_initializeEmRKi(%"class.std::vector.10"* %0, i64 %1, i32* dereferenceable(4) %2)
          to label %6 unwind label %7

6:                                                ; preds = %4
  ret void

7:                                                ; preds = %4
  %8 = landingpad { i8*, i32 }
          cleanup
  %9 = extractvalue { i8*, i32 } %8, 0
  %10 = extractvalue { i8*, i32 } %8, 1
  %11 = bitcast %"class.std::vector.10"* %0 to %"struct.std::_Vector_base.11"*
  call void @_ZNSt12_Vector_baseIiSaIiEED2Ev(%"struct.std::_Vector_base.11"* %11) #3
  br label %12

12:                                               ; preds = %7
  %13 = insertvalue { i8*, i32 } undef, i8* %9, 0
  %14 = insertvalue { i8*, i32 } %13, i32 %10, 1
  resume { i8*, i32 } %14
}

; Function Attrs: noinline nounwind uwtable
define linkonce_odr void @_ZNSt12_Vector_baseIiSaIiEE12_Vector_impl12_M_swap_dataERS2_(%"struct.std::_Vector_base<int, std::allocator<int> >::_Vector_impl"* %0, %"struct.std::_Vector_base<int, std::allocator<int> >::_Vector_impl"* dereferenceable(24) %1) #5 comdat align 2 {
  %3 = getelementptr inbounds %"struct.std::_Vector_base<int, std::allocator<int> >::_Vector_impl", %"struct.std::_Vector_base<int, std::allocator<int> >::_Vector_impl"* %0, i32 0, i32 0
  %4 = getelementptr inbounds %"struct.std::_Vector_base<int, std::allocator<int> >::_Vector_impl", %"struct.std::_Vector_base<int, std::allocator<int> >::_Vector_impl"* %1, i32 0, i32 0
  call void @_ZSt4swapIPiENSt9enable_ifIXsr6__and_ISt6__not_ISt15__is_tuple_likeIT_EESt21is_move_constructibleIS4_ESt18is_move_assignableIS4_EEE5valueEvE4typeERS4_SD_(i32** dereferenceable(8) %3, i32** dereferenceable(8) %4) #3
  %5 = getelementptr inbounds %"struct.std::_Vector_base<int, std::allocator<int> >::_Vector_impl", %"struct.std::_Vector_base<int, std::allocator<int> >::_Vector_impl"* %0, i32 0, i32 1
  %6 = getelementptr inbounds %"struct.std::_Vector_base<int, std::allocator<int> >::_Vector_impl", %"struct.std::_Vector_base<int, std::allocator<int> >::_Vector_impl"* %1, i32 0, i32 1
  call void @_ZSt4swapIPiENSt9enable_ifIXsr6__and_ISt6__not_ISt15__is_tuple_likeIT_EESt21is_move_constructibleIS4_ESt18is_move_assignableIS4_EEE5valueEvE4typeERS4_SD_(i32** dereferenceable(8) %5, i32** dereferenceable(8) %6) #3
  %7 = getelementptr inbounds %"struct.std::_Vector_base<int, std::allocator<int> >::_Vector_impl", %"struct.std::_Vector_base<int, std::allocator<int> >::_Vector_impl"* %0, i32 0, i32 2
  %8 = getelementptr inbounds %"struct.std::_Vector_base<int, std::allocator<int> >::_Vector_impl", %"struct.std::_Vector_base<int, std::allocator<int> >::_Vector_impl"* %1, i32 0, i32 2
  call void @_ZSt4swapIPiENSt9enable_ifIXsr6__and_ISt6__not_ISt15__is_tuple_likeIT_EESt21is_move_constructibleIS4_ESt18is_move_assignableIS4_EEE5valueEvE4typeERS4_SD_(i32** dereferenceable(8) %7, i32** dereferenceable(8) %8) #3
  ret void
}

; Function Attrs: noinline nounwind uwtable
define linkonce_odr void @_ZNSt6vectorIiSaIiEED2Ev(%"class.std::vector.10"* %0) unnamed_addr #5 comdat align 2 personality i8* bitcast (i32 (...)* @__gxx_personality_v0 to i8*) {
  %2 = bitcast %"class.std::vector.10"* %0 to %"struct.std::_Vector_base.11"*
  %3 = getelementptr inbounds %"struct.std::_Vector_base.11", %"struct.std::_Vector_base.11"* %2, i32 0, i32 0
  %4 = getelementptr inbounds %"struct.std::_Vector_base<int, std::allocator<int> >::_Vector_impl", %"struct.std::_Vector_base<int, std::allocator<int> >::_Vector_impl"* %3, i32 0, i32 0
  %5 = load i32*, i32** %4, align 8
  %6 = bitcast %"class.std::vector.10"* %0 to %"struct.std::_Vector_base.11"*
  %7 = getelementptr inbounds %"struct.std::_Vector_base.11", %"struct.std::_Vector_base.11"* %6, i32 0, i32 0
  %8 = getelementptr inbounds %"struct.std::_Vector_base<int, std::allocator<int> >::_Vector_impl", %"struct.std::_Vector_base<int, std::allocator<int> >::_Vector_impl"* %7, i32 0, i32 1
  %9 = load i32*, i32** %8, align 8
  %10 = bitcast %"class.std::vector.10"* %0 to %"struct.std::_Vector_base.11"*
  %11 = call dereferenceable(1) %"class.std::allocator.12"* @_ZNSt12_Vector_baseIiSaIiEE19_M_get_Tp_allocatorEv(%"struct.std::_Vector_base.11"* %10) #3
  invoke void @_ZSt8_DestroyIPiiEvT_S1_RSaIT0_E(i32* %5, i32* %9, %"class.std::allocator.12"* dereferenceable(1) %11)
          to label %12 unwind label %14

12:                                               ; preds = %1
  %13 = bitcast %"class.std::vector.10"* %0 to %"struct.std::_Vector_base.11"*
  call void @_ZNSt12_Vector_baseIiSaIiEED2Ev(%"struct.std::_Vector_base.11"* %13) #3
  ret void

14:                                               ; preds = %1
  %15 = landingpad { i8*, i32 }
          catch i8* null
  %16 = extractvalue { i8*, i32 } %15, 0
  %17 = extractvalue { i8*, i32 } %15, 1
  %18 = bitcast %"class.std::vector.10"* %0 to %"struct.std::_Vector_base.11"*
  call void @_ZNSt12_Vector_baseIiSaIiEED2Ev(%"struct.std::_Vector_base.11"* %18) #3
  br label %19

19:                                               ; preds = %14
  call void @__clang_call_terminate(i8* %16) #12
  unreachable
}

; Function Attrs: noinline nounwind uwtable
define linkonce_odr i64 @_ZNKSt6vectorIiSaIiEE4sizeEv(%"class.std::vector.10"* %0) #5 comdat align 2 {
  %2 = bitcast %"class.std::vector.10"* %0 to %"struct.std::_Vector_base.11"*
  %3 = getelementptr inbounds %"struct.std::_Vector_base.11", %"struct.std::_Vector_base.11"* %2, i32 0, i32 0
  %4 = getelementptr inbounds %"struct.std::_Vector_base<int, std::allocator<int> >::_Vector_impl", %"struct.std::_Vector_base<int, std::allocator<int> >::_Vector_impl"* %3, i32 0, i32 1
  %5 = load i32*, i32** %4, align 8
  %6 = bitcast %"class.std::vector.10"* %0 to %"struct.std::_Vector_base.11"*
  %7 = getelementptr inbounds %"struct.std::_Vector_base.11", %"struct.std::_Vector_base.11"* %6, i32 0, i32 0
  %8 = getelementptr inbounds %"struct.std::_Vector_base<int, std::allocator<int> >::_Vector_impl", %"struct.std::_Vector_base<int, std::allocator<int> >::_Vector_impl"* %7, i32 0, i32 0
  %9 = load i32*, i32** %8, align 8
  %10 = ptrtoint i32* %5 to i64
  %11 = ptrtoint i32* %9 to i64
  %12 = sub i64 %10, %11
  %13 = sdiv exact i64 %12, 4
  ret i64 %13
}

; Function Attrs: noinline uwtable
define linkonce_odr void @_ZSt4fillIN9__gnu_cxx17__normal_iteratorIPiSt6vectorIiSaIiEEEEiEvT_S7_RKT0_(i32* %0, i32* %1, i32* dereferenceable(4) %2) #0 comdat {
  %4 = alloca %"class.__gnu_cxx::__normal_iterator.17", align 8
  %5 = alloca %"class.__gnu_cxx::__normal_iterator.17", align 8
  %6 = alloca %"class.__gnu_cxx::__normal_iterator.17", align 8
  %7 = alloca %"class.__gnu_cxx::__normal_iterator.17", align 8
  %8 = getelementptr inbounds %"class.__gnu_cxx::__normal_iterator.17", %"class.__gnu_cxx::__normal_iterator.17"* %4, i32 0, i32 0
  store i32* %0, i32** %8, align 8
  %9 = getelementptr inbounds %"class.__gnu_cxx::__normal_iterator.17", %"class.__gnu_cxx::__normal_iterator.17"* %5, i32 0, i32 0
  store i32* %1, i32** %9, align 8
  %10 = bitcast %"class.__gnu_cxx::__normal_iterator.17"* %6 to i8*
  %11 = bitcast %"class.__gnu_cxx::__normal_iterator.17"* %4 to i8*
  call void @llvm.memcpy.p0i8.p0i8.i64(i8* align 8 %10, i8* align 8 %11, i64 8, i1 false)
  %12 = getelementptr inbounds %"class.__gnu_cxx::__normal_iterator.17", %"class.__gnu_cxx::__normal_iterator.17"* %6, i32 0, i32 0
  %13 = load i32*, i32** %12, align 8
  %14 = call i32* @_ZSt12__niter_baseIPiSt6vectorIiSaIiEEET_N9__gnu_cxx17__normal_iteratorIS4_T0_EE(i32* %13)
  %15 = bitcast %"class.__gnu_cxx::__normal_iterator.17"* %7 to i8*
  %16 = bitcast %"class.__gnu_cxx::__normal_iterator.17"* %5 to i8*
  call void @llvm.memcpy.p0i8.p0i8.i64(i8* align 8 %15, i8* align 8 %16, i64 8, i1 false)
  %17 = getelementptr inbounds %"class.__gnu_cxx::__normal_iterator.17", %"class.__gnu_cxx::__normal_iterator.17"* %7, i32 0, i32 0
  %18 = load i32*, i32** %17, align 8
  %19 = call i32* @_ZSt12__niter_baseIPiSt6vectorIiSaIiEEET_N9__gnu_cxx17__normal_iteratorIS4_T0_EE(i32* %18)
  call void @_ZSt8__fill_aIPiiEN9__gnu_cxx11__enable_ifIXsr11__is_scalarIT0_EE7__valueEvE6__typeET_S6_RKS3_(i32* %14, i32* %19, i32* dereferenceable(4) %2)
  ret void
}

; Function Attrs: noinline nounwind uwtable
define linkonce_odr i32* @_ZNSt6vectorIiSaIiEE5beginEv(%"class.std::vector.10"* %0) #5 comdat align 2 {
  %2 = alloca %"class.__gnu_cxx::__normal_iterator.17", align 8
  %3 = bitcast %"class.std::vector.10"* %0 to %"struct.std::_Vector_base.11"*
  %4 = getelementptr inbounds %"struct.std::_Vector_base.11", %"struct.std::_Vector_base.11"* %3, i32 0, i32 0
  %5 = getelementptr inbounds %"struct.std::_Vector_base<int, std::allocator<int> >::_Vector_impl", %"struct.std::_Vector_base<int, std::allocator<int> >::_Vector_impl"* %4, i32 0, i32 0
  call void @_ZN9__gnu_cxx17__normal_iteratorIPiSt6vectorIiSaIiEEEC2ERKS1_(%"class.__gnu_cxx::__normal_iterator.17"* %2, i32** dereferenceable(8) %5) #3
  %6 = getelementptr inbounds %"class.__gnu_cxx::__normal_iterator.17", %"class.__gnu_cxx::__normal_iterator.17"* %2, i32 0, i32 0
  %7 = load i32*, i32** %6, align 8
  ret i32* %7
}

; Function Attrs: noinline nounwind uwtable
define linkonce_odr i32* @_ZNSt6vectorIiSaIiEE3endEv(%"class.std::vector.10"* %0) #5 comdat align 2 {
  %2 = alloca %"class.__gnu_cxx::__normal_iterator.17", align 8
  %3 = bitcast %"class.std::vector.10"* %0 to %"struct.std::_Vector_base.11"*
  %4 = getelementptr inbounds %"struct.std::_Vector_base.11", %"struct.std::_Vector_base.11"* %3, i32 0, i32 0
  %5 = getelementptr inbounds %"struct.std::_Vector_base<int, std::allocator<int> >::_Vector_impl", %"struct.std::_Vector_base<int, std::allocator<int> >::_Vector_impl"* %4, i32 0, i32 1
  call void @_ZN9__gnu_cxx17__normal_iteratorIPiSt6vectorIiSaIiEEEC2ERKS1_(%"class.__gnu_cxx::__normal_iterator.17"* %2, i32** dereferenceable(8) %5) #3
  %6 = getelementptr inbounds %"class.__gnu_cxx::__normal_iterator.17", %"class.__gnu_cxx::__normal_iterator.17"* %2, i32 0, i32 0
  %7 = load i32*, i32** %6, align 8
  ret i32* %7
}

; Function Attrs: noinline uwtable
define linkonce_odr i32* @_ZSt24__uninitialized_fill_n_aIPimiiET_S1_T0_RKT1_RSaIT2_E(i32* %0, i64 %1, i32* dereferenceable(4) %2, %"class.std::allocator.12"* dereferenceable(1) %3) #0 comdat {
  %5 = call i32* @_ZSt20uninitialized_fill_nIPimiET_S1_T0_RKT1_(i32* %0, i64 %1, i32* dereferenceable(4) %2)
  ret i32* %5
}

; Function Attrs: noinline nounwind uwtable
define linkonce_odr void @_ZNSt6vectorIiSaIiEE15_M_erase_at_endEPi(%"class.std::vector.10"* %0, i32* %1) #5 comdat align 2 personality i8* bitcast (i32 (...)* @__gxx_personality_v0 to i8*) {
  %3 = bitcast %"class.std::vector.10"* %0 to %"struct.std::_Vector_base.11"*
  %4 = getelementptr inbounds %"struct.std::_Vector_base.11", %"struct.std::_Vector_base.11"* %3, i32 0, i32 0
  %5 = getelementptr inbounds %"struct.std::_Vector_base<int, std::allocator<int> >::_Vector_impl", %"struct.std::_Vector_base<int, std::allocator<int> >::_Vector_impl"* %4, i32 0, i32 1
  %6 = load i32*, i32** %5, align 8
  %7 = ptrtoint i32* %6 to i64
  %8 = ptrtoint i32* %1 to i64
  %9 = sub i64 %7, %8
  %10 = sdiv exact i64 %9, 4
  %11 = icmp ne i64 %10, 0
  br i1 %11, label %12, label %23

12:                                               ; preds = %2
  %13 = bitcast %"class.std::vector.10"* %0 to %"struct.std::_Vector_base.11"*
  %14 = getelementptr inbounds %"struct.std::_Vector_base.11", %"struct.std::_Vector_base.11"* %13, i32 0, i32 0
  %15 = getelementptr inbounds %"struct.std::_Vector_base<int, std::allocator<int> >::_Vector_impl", %"struct.std::_Vector_base<int, std::allocator<int> >::_Vector_impl"* %14, i32 0, i32 1
  %16 = load i32*, i32** %15, align 8
  %17 = bitcast %"class.std::vector.10"* %0 to %"struct.std::_Vector_base.11"*
  %18 = call dereferenceable(1) %"class.std::allocator.12"* @_ZNSt12_Vector_baseIiSaIiEE19_M_get_Tp_allocatorEv(%"struct.std::_Vector_base.11"* %17) #3
  invoke void @_ZSt8_DestroyIPiiEvT_S1_RSaIT0_E(i32* %1, i32* %16, %"class.std::allocator.12"* dereferenceable(1) %18)
          to label %19 unwind label %24

19:                                               ; preds = %12
  %20 = bitcast %"class.std::vector.10"* %0 to %"struct.std::_Vector_base.11"*
  %21 = getelementptr inbounds %"struct.std::_Vector_base.11", %"struct.std::_Vector_base.11"* %20, i32 0, i32 0
  %22 = getelementptr inbounds %"struct.std::_Vector_base<int, std::allocator<int> >::_Vector_impl", %"struct.std::_Vector_base<int, std::allocator<int> >::_Vector_impl"* %21, i32 0, i32 1
  store i32* %1, i32** %22, align 8
  br label %23

23:                                               ; preds = %19, %2
  ret void

24:                                               ; preds = %12
  %25 = landingpad { i8*, i32 }
          catch i8* null
  %26 = extractvalue { i8*, i32 } %25, 0
  call void @__clang_call_terminate(i8* %26) #12
  unreachable
}

; Function Attrs: noinline uwtable
define linkonce_odr i32* @_ZSt6fill_nIPimiET_S1_T0_RKT1_(i32* %0, i64 %1, i32* dereferenceable(4) %2) #0 comdat {
  %4 = call i32* @_ZSt12__niter_baseIPiET_S1_(i32* %0)
  %5 = call i32* @_ZSt10__fill_n_aIPimiEN9__gnu_cxx11__enable_ifIXsr11__is_scalarIT1_EE7__valueET_E6__typeES4_T0_RKS3_(i32* %4, i64 %1, i32* dereferenceable(4) %2)
  ret i32* %5
}

; Function Attrs: noinline uwtable
define linkonce_odr void @_ZNSt12_Vector_baseIiSaIiEEC2EmRKS0_(%"struct.std::_Vector_base.11"* %0, i64 %1, %"class.std::allocator.12"* dereferenceable(1) %2) unnamed_addr #0 comdat align 2 personality i8* bitcast (i32 (...)* @__gxx_personality_v0 to i8*) {
  %4 = getelementptr inbounds %"struct.std::_Vector_base.11", %"struct.std::_Vector_base.11"* %0, i32 0, i32 0
  call void @_ZNSt12_Vector_baseIiSaIiEE12_Vector_implC2ERKS0_(%"struct.std::_Vector_base<int, std::allocator<int> >::_Vector_impl"* %4, %"class.std::allocator.12"* dereferenceable(1) %2) #3
  invoke void @_ZNSt12_Vector_baseIiSaIiEE17_M_create_storageEm(%"struct.std::_Vector_base.11"* %0, i64 %1)
          to label %5 unwind label %6

5:                                                ; preds = %3
  ret void

6:                                                ; preds = %3
  %7 = landingpad { i8*, i32 }
          cleanup
  %8 = extractvalue { i8*, i32 } %7, 0
  %9 = extractvalue { i8*, i32 } %7, 1
  call void @_ZNSt12_Vector_baseIiSaIiEE12_Vector_implD2Ev(%"struct.std::_Vector_base<int, std::allocator<int> >::_Vector_impl"* %4) #3
  br label %10

10:                                               ; preds = %6
  %11 = insertvalue { i8*, i32 } undef, i8* %8, 0
  %12 = insertvalue { i8*, i32 } %11, i32 %9, 1
  resume { i8*, i32 } %12
}

; Function Attrs: noinline uwtable
define linkonce_odr void @_ZNSt6vectorIiSaIiEE18_M_fill_initializeEmRKi(%"class.std::vector.10"* %0, i64 %1, i32* dereferenceable(4) %2) #0 comdat align 2 {
  %4 = bitcast %"class.std::vector.10"* %0 to %"struct.std::_Vector_base.11"*
  %5 = getelementptr inbounds %"struct.std::_Vector_base.11", %"struct.std::_Vector_base.11"* %4, i32 0, i32 0
  %6 = getelementptr inbounds %"struct.std::_Vector_base<int, std::allocator<int> >::_Vector_impl", %"struct.std::_Vector_base<int, std::allocator<int> >::_Vector_impl"* %5, i32 0, i32 0
  %7 = load i32*, i32** %6, align 8
  %8 = bitcast %"class.std::vector.10"* %0 to %"struct.std::_Vector_base.11"*
  %9 = call dereferenceable(1) %"class.std::allocator.12"* @_ZNSt12_Vector_baseIiSaIiEE19_M_get_Tp_allocatorEv(%"struct.std::_Vector_base.11"* %8) #3
  %10 = call i32* @_ZSt24__uninitialized_fill_n_aIPimiiET_S1_T0_RKT1_RSaIT2_E(i32* %7, i64 %1, i32* dereferenceable(4) %2, %"class.std::allocator.12"* dereferenceable(1) %9)
  %11 = bitcast %"class.std::vector.10"* %0 to %"struct.std::_Vector_base.11"*
  %12 = getelementptr inbounds %"struct.std::_Vector_base.11", %"struct.std::_Vector_base.11"* %11, i32 0, i32 0
  %13 = getelementptr inbounds %"struct.std::_Vector_base<int, std::allocator<int> >::_Vector_impl", %"struct.std::_Vector_base<int, std::allocator<int> >::_Vector_impl"* %12, i32 0, i32 1
  store i32* %10, i32** %13, align 8
  ret void
}

; Function Attrs: noinline nounwind uwtable
define linkonce_odr void @_ZNSt12_Vector_baseIiSaIiEED2Ev(%"struct.std::_Vector_base.11"* %0) unnamed_addr #5 comdat align 2 personality i8* bitcast (i32 (...)* @__gxx_personality_v0 to i8*) {
  %2 = getelementptr inbounds %"struct.std::_Vector_base.11", %"struct.std::_Vector_base.11"* %0, i32 0, i32 0
  %3 = getelementptr inbounds %"struct.std::_Vector_base<int, std::allocator<int> >::_Vector_impl", %"struct.std::_Vector_base<int, std::allocator<int> >::_Vector_impl"* %2, i32 0, i32 0
  %4 = load i32*, i32** %3, align 8
  %5 = getelementptr inbounds %"struct.std::_Vector_base.11", %"struct.std::_Vector_base.11"* %0, i32 0, i32 0
  %6 = getelementptr inbounds %"struct.std::_Vector_base<int, std::allocator<int> >::_Vector_impl", %"struct.std::_Vector_base<int, std::allocator<int> >::_Vector_impl"* %5, i32 0, i32 2
  %7 = load i32*, i32** %6, align 8
  %8 = getelementptr inbounds %"struct.std::_Vector_base.11", %"struct.std::_Vector_base.11"* %0, i32 0, i32 0
  %9 = getelementptr inbounds %"struct.std::_Vector_base<int, std::allocator<int> >::_Vector_impl", %"struct.std::_Vector_base<int, std::allocator<int> >::_Vector_impl"* %8, i32 0, i32 0
  %10 = load i32*, i32** %9, align 8
  %11 = ptrtoint i32* %7 to i64
  %12 = ptrtoint i32* %10 to i64
  %13 = sub i64 %11, %12
  %14 = sdiv exact i64 %13, 4
  invoke void @_ZNSt12_Vector_baseIiSaIiEE13_M_deallocateEPim(%"struct.std::_Vector_base.11"* %0, i32* %4, i64 %14)
          to label %15 unwind label %17

15:                                               ; preds = %1
  %16 = getelementptr inbounds %"struct.std::_Vector_base.11", %"struct.std::_Vector_base.11"* %0, i32 0, i32 0
  call void @_ZNSt12_Vector_baseIiSaIiEE12_Vector_implD2Ev(%"struct.std::_Vector_base<int, std::allocator<int> >::_Vector_impl"* %16) #3
  ret void

17:                                               ; preds = %1
  %18 = landingpad { i8*, i32 }
          catch i8* null
  %19 = extractvalue { i8*, i32 } %18, 0
  %20 = extractvalue { i8*, i32 } %18, 1
  %21 = getelementptr inbounds %"struct.std::_Vector_base.11", %"struct.std::_Vector_base.11"* %0, i32 0, i32 0
  call void @_ZNSt12_Vector_baseIiSaIiEE12_Vector_implD2Ev(%"struct.std::_Vector_base<int, std::allocator<int> >::_Vector_impl"* %21) #3
  br label %22

22:                                               ; preds = %17
  call void @__clang_call_terminate(i8* %19) #12
  unreachable
}

; Function Attrs: noinline nounwind uwtable
define linkonce_odr void @_ZNSt12_Vector_baseIiSaIiEE12_Vector_implC2ERKS0_(%"struct.std::_Vector_base<int, std::allocator<int> >::_Vector_impl"* %0, %"class.std::allocator.12"* dereferenceable(1) %1) unnamed_addr #5 comdat align 2 {
  %3 = bitcast %"struct.std::_Vector_base<int, std::allocator<int> >::_Vector_impl"* %0 to %"class.std::allocator.12"*
  call void @_ZNSaIiEC2ERKS_(%"class.std::allocator.12"* %3, %"class.std::allocator.12"* dereferenceable(1) %1) #3
  %4 = getelementptr inbounds %"struct.std::_Vector_base<int, std::allocator<int> >::_Vector_impl", %"struct.std::_Vector_base<int, std::allocator<int> >::_Vector_impl"* %0, i32 0, i32 0
  store i32* null, i32** %4, align 8
  %5 = getelementptr inbounds %"struct.std::_Vector_base<int, std::allocator<int> >::_Vector_impl", %"struct.std::_Vector_base<int, std::allocator<int> >::_Vector_impl"* %0, i32 0, i32 1
  store i32* null, i32** %5, align 8
  %6 = getelementptr inbounds %"struct.std::_Vector_base<int, std::allocator<int> >::_Vector_impl", %"struct.std::_Vector_base<int, std::allocator<int> >::_Vector_impl"* %0, i32 0, i32 2
  store i32* null, i32** %6, align 8
  ret void
}

; Function Attrs: noinline uwtable
define linkonce_odr void @_ZNSt12_Vector_baseIiSaIiEE17_M_create_storageEm(%"struct.std::_Vector_base.11"* %0, i64 %1) #0 comdat align 2 {
  %3 = call i32* @_ZNSt12_Vector_baseIiSaIiEE11_M_allocateEm(%"struct.std::_Vector_base.11"* %0, i64 %1)
  %4 = getelementptr inbounds %"struct.std::_Vector_base.11", %"struct.std::_Vector_base.11"* %0, i32 0, i32 0
  %5 = getelementptr inbounds %"struct.std::_Vector_base<int, std::allocator<int> >::_Vector_impl", %"struct.std::_Vector_base<int, std::allocator<int> >::_Vector_impl"* %4, i32 0, i32 0
  store i32* %3, i32** %5, align 8
  %6 = getelementptr inbounds %"struct.std::_Vector_base.11", %"struct.std::_Vector_base.11"* %0, i32 0, i32 0
  %7 = getelementptr inbounds %"struct.std::_Vector_base<int, std::allocator<int> >::_Vector_impl", %"struct.std::_Vector_base<int, std::allocator<int> >::_Vector_impl"* %6, i32 0, i32 0
  %8 = load i32*, i32** %7, align 8
  %9 = getelementptr inbounds %"struct.std::_Vector_base.11", %"struct.std::_Vector_base.11"* %0, i32 0, i32 0
  %10 = getelementptr inbounds %"struct.std::_Vector_base<int, std::allocator<int> >::_Vector_impl", %"struct.std::_Vector_base<int, std::allocator<int> >::_Vector_impl"* %9, i32 0, i32 1
  store i32* %8, i32** %10, align 8
  %11 = getelementptr inbounds %"struct.std::_Vector_base.11", %"struct.std::_Vector_base.11"* %0, i32 0, i32 0
  %12 = getelementptr inbounds %"struct.std::_Vector_base<int, std::allocator<int> >::_Vector_impl", %"struct.std::_Vector_base<int, std::allocator<int> >::_Vector_impl"* %11, i32 0, i32 0
  %13 = load i32*, i32** %12, align 8
  %14 = getelementptr inbounds i32, i32* %13, i64 %1
  %15 = getelementptr inbounds %"struct.std::_Vector_base.11", %"struct.std::_Vector_base.11"* %0, i32 0, i32 0
  %16 = getelementptr inbounds %"struct.std::_Vector_base<int, std::allocator<int> >::_Vector_impl", %"struct.std::_Vector_base<int, std::allocator<int> >::_Vector_impl"* %15, i32 0, i32 2
  store i32* %14, i32** %16, align 8
  ret void
}

; Function Attrs: noinline nounwind uwtable
define linkonce_odr void @_ZNSt12_Vector_baseIiSaIiEE12_Vector_implD2Ev(%"struct.std::_Vector_base<int, std::allocator<int> >::_Vector_impl"* %0) unnamed_addr #5 comdat align 2 {
  %2 = bitcast %"struct.std::_Vector_base<int, std::allocator<int> >::_Vector_impl"* %0 to %"class.std::allocator.12"*
  call void @_ZNSaIiED2Ev(%"class.std::allocator.12"* %2) #3
  ret void
}

; Function Attrs: noinline nounwind uwtable
define linkonce_odr void @_ZNSaIiEC2ERKS_(%"class.std::allocator.12"* %0, %"class.std::allocator.12"* dereferenceable(1) %1) unnamed_addr #5 comdat align 2 {
  %3 = bitcast %"class.std::allocator.12"* %0 to %"class.__gnu_cxx::new_allocator.13"*
  %4 = bitcast %"class.std::allocator.12"* %1 to %"class.__gnu_cxx::new_allocator.13"*
  call void @_ZN9__gnu_cxx13new_allocatorIiEC2ERKS1_(%"class.__gnu_cxx::new_allocator.13"* %3, %"class.__gnu_cxx::new_allocator.13"* dereferenceable(1) %4) #3
  ret void
}

; Function Attrs: noinline nounwind uwtable
define linkonce_odr void @_ZN9__gnu_cxx13new_allocatorIiEC2ERKS1_(%"class.__gnu_cxx::new_allocator.13"* %0, %"class.__gnu_cxx::new_allocator.13"* dereferenceable(1) %1) unnamed_addr #5 comdat align 2 {
  ret void
}

; Function Attrs: noinline uwtable
define linkonce_odr i32* @_ZNSt12_Vector_baseIiSaIiEE11_M_allocateEm(%"struct.std::_Vector_base.11"* %0, i64 %1) #0 comdat align 2 {
  %3 = icmp ne i64 %1, 0
  br i1 %3, label %4, label %8

4:                                                ; preds = %2
  %5 = getelementptr inbounds %"struct.std::_Vector_base.11", %"struct.std::_Vector_base.11"* %0, i32 0, i32 0
  %6 = bitcast %"struct.std::_Vector_base<int, std::allocator<int> >::_Vector_impl"* %5 to %"class.std::allocator.12"*
  %7 = call i32* @_ZNSt16allocator_traitsISaIiEE8allocateERS0_m(%"class.std::allocator.12"* dereferenceable(1) %6, i64 %1)
  br label %9

8:                                                ; preds = %2
  br label %9

9:                                                ; preds = %8, %4
  %10 = phi i32* [ %7, %4 ], [ null, %8 ]
  ret i32* %10
}

; Function Attrs: noinline uwtable
define linkonce_odr i32* @_ZNSt16allocator_traitsISaIiEE8allocateERS0_m(%"class.std::allocator.12"* dereferenceable(1) %0, i64 %1) #0 comdat align 2 {
  %3 = bitcast %"class.std::allocator.12"* %0 to %"class.__gnu_cxx::new_allocator.13"*
  %4 = call i32* @_ZN9__gnu_cxx13new_allocatorIiE8allocateEmPKv(%"class.__gnu_cxx::new_allocator.13"* %3, i64 %1, i8* null)
  ret i32* %4
}

; Function Attrs: noinline uwtable
define linkonce_odr i32* @_ZN9__gnu_cxx13new_allocatorIiE8allocateEmPKv(%"class.__gnu_cxx::new_allocator.13"* %0, i64 %1, i8* %2) #0 comdat align 2 {
  %4 = call i64 @_ZNK9__gnu_cxx13new_allocatorIiE8max_sizeEv(%"class.__gnu_cxx::new_allocator.13"* %0) #3
  %5 = icmp ugt i64 %1, %4
  br i1 %5, label %6, label %7

6:                                                ; preds = %3
  call void @_ZSt17__throw_bad_allocv() #13
  unreachable

7:                                                ; preds = %3
  %8 = mul i64 %1, 4
  %9 = call i8* @_Znwm(i64 %8)
  %10 = bitcast i8* %9 to i32*
  ret i32* %10
}

; Function Attrs: noinline nounwind uwtable
define linkonce_odr i64 @_ZNK9__gnu_cxx13new_allocatorIiE8max_sizeEv(%"class.__gnu_cxx::new_allocator.13"* %0) #5 comdat align 2 {
  ret i64 4611686018427387903
}

; Function Attrs: noreturn
declare void @_ZSt17__throw_bad_allocv() #7

; Function Attrs: nobuiltin
declare noalias i8* @_Znwm(i64) #8

; Function Attrs: noinline nounwind uwtable
define linkonce_odr void @_ZNSaIiED2Ev(%"class.std::allocator.12"* %0) unnamed_addr #5 comdat align 2 {
  %2 = bitcast %"class.std::allocator.12"* %0 to %"class.__gnu_cxx::new_allocator.13"*
  call void @_ZN9__gnu_cxx13new_allocatorIiED2Ev(%"class.__gnu_cxx::new_allocator.13"* %2) #3
  ret void
}

; Function Attrs: noinline nounwind uwtable
define linkonce_odr void @_ZN9__gnu_cxx13new_allocatorIiED2Ev(%"class.__gnu_cxx::new_allocator.13"* %0) unnamed_addr #5 comdat align 2 {
  ret void
}

; Function Attrs: noinline uwtable
define linkonce_odr void @_ZNSt12_Vector_baseIiSaIiEE13_M_deallocateEPim(%"struct.std::_Vector_base.11"* %0, i32* %1, i64 %2) #0 comdat align 2 {
  %4 = icmp ne i32* %1, null
  br i1 %4, label %5, label %8

5:                                                ; preds = %3
  %6 = getelementptr inbounds %"struct.std::_Vector_base.11", %"struct.std::_Vector_base.11"* %0, i32 0, i32 0
  %7 = bitcast %"struct.std::_Vector_base<int, std::allocator<int> >::_Vector_impl"* %6 to %"class.std::allocator.12"*
  call void @_ZNSt16allocator_traitsISaIiEE10deallocateERS0_Pim(%"class.std::allocator.12"* dereferenceable(1) %7, i32* %1, i64 %2)
  br label %8

8:                                                ; preds = %5, %3
  ret void
}

; Function Attrs: noinline uwtable
define linkonce_odr void @_ZNSt16allocator_traitsISaIiEE10deallocateERS0_Pim(%"class.std::allocator.12"* dereferenceable(1) %0, i32* %1, i64 %2) #0 comdat align 2 {
  %4 = bitcast %"class.std::allocator.12"* %0 to %"class.__gnu_cxx::new_allocator.13"*
  call void @_ZN9__gnu_cxx13new_allocatorIiE10deallocateEPim(%"class.__gnu_cxx::new_allocator.13"* %4, i32* %1, i64 %2)
  ret void
}

; Function Attrs: noinline nounwind uwtable
define linkonce_odr void @_ZN9__gnu_cxx13new_allocatorIiE10deallocateEPim(%"class.__gnu_cxx::new_allocator.13"* %0, i32* %1, i64 %2) #5 comdat align 2 {
  %4 = bitcast i32* %1 to i8*
  call void @_ZdlPv(i8* %4) #3
  ret void
}

; Function Attrs: nobuiltin nounwind
declare void @_ZdlPv(i8*) #9

; Function Attrs: noinline nounwind uwtable
define linkonce_odr void @_ZSt4swapIPiENSt9enable_ifIXsr6__and_ISt6__not_ISt15__is_tuple_likeIT_EESt21is_move_constructibleIS4_ESt18is_move_assignableIS4_EEE5valueEvE4typeERS4_SD_(i32** dereferenceable(8) %0, i32** dereferenceable(8) %1) #5 comdat {
  %3 = alloca i32*, align 8
  %4 = call dereferenceable(8) i32** @_ZSt4moveIRPiEONSt16remove_referenceIT_E4typeEOS3_(i32** dereferenceable(8) %0) #3
  %5 = load i32*, i32** %4, align 8
  store i32* %5, i32** %3, align 8
  %6 = call dereferenceable(8) i32** @_ZSt4moveIRPiEONSt16remove_referenceIT_E4typeEOS3_(i32** dereferenceable(8) %1) #3
  %7 = load i32*, i32** %6, align 8
  store i32* %7, i32** %0, align 8
  %8 = call dereferenceable(8) i32** @_ZSt4moveIRPiEONSt16remove_referenceIT_E4typeEOS3_(i32** dereferenceable(8) %3) #3
  %9 = load i32*, i32** %8, align 8
  store i32* %9, i32** %1, align 8
  ret void
}

; Function Attrs: noinline nounwind uwtable
define linkonce_odr dereferenceable(8) i32** @_ZSt4moveIRPiEONSt16remove_referenceIT_E4typeEOS3_(i32** dereferenceable(8) %0) #5 comdat {
  ret i32** %0
}

; Function Attrs: noinline uwtable
define linkonce_odr void @_ZSt8_DestroyIPiiEvT_S1_RSaIT0_E(i32* %0, i32* %1, %"class.std::allocator.12"* dereferenceable(1) %2) #0 comdat {
  call void @_ZSt8_DestroyIPiEvT_S1_(i32* %0, i32* %1)
  ret void
}

; Function Attrs: noinline uwtable
define linkonce_odr void @_ZSt8_DestroyIPiEvT_S1_(i32* %0, i32* %1) #0 comdat {
  call void @_ZNSt12_Destroy_auxILb1EE9__destroyIPiEEvT_S3_(i32* %0, i32* %1)
  ret void
}

; Function Attrs: noinline nounwind uwtable
define linkonce_odr void @_ZNSt12_Destroy_auxILb1EE9__destroyIPiEEvT_S3_(i32* %0, i32* %1) #5 comdat align 2 {
  ret void
}

; Function Attrs: noinline nounwind uwtable
define linkonce_odr void @_ZSt8__fill_aIPiiEN9__gnu_cxx11__enable_ifIXsr11__is_scalarIT0_EE7__valueEvE6__typeET_S6_RKS3_(i32* %0, i32* %1, i32* dereferenceable(4) %2) #5 comdat {
  %4 = load i32, i32* %2, align 4
  br label %5

5:                                                ; preds = %8, %3
  %.0 = phi i32* [ %0, %3 ], [ %9, %8 ]
  %6 = icmp ne i32* %.0, %1
  br i1 %6, label %7, label %10

7:                                                ; preds = %5
  store i32 %4, i32* %.0, align 4
  br label %8

8:                                                ; preds = %7
  %9 = getelementptr inbounds i32, i32* %.0, i32 1
  br label %5

10:                                               ; preds = %5
  ret void
}

; Function Attrs: noinline nounwind uwtable
define linkonce_odr i32* @_ZSt12__niter_baseIPiSt6vectorIiSaIiEEET_N9__gnu_cxx17__normal_iteratorIS4_T0_EE(i32* %0) #5 comdat {
  %2 = alloca %"class.__gnu_cxx::__normal_iterator.17", align 8
  %3 = getelementptr inbounds %"class.__gnu_cxx::__normal_iterator.17", %"class.__gnu_cxx::__normal_iterator.17"* %2, i32 0, i32 0
  store i32* %0, i32** %3, align 8
  %4 = call dereferenceable(8) i32** @_ZNK9__gnu_cxx17__normal_iteratorIPiSt6vectorIiSaIiEEE4baseEv(%"class.__gnu_cxx::__normal_iterator.17"* %2) #3
  %5 = load i32*, i32** %4, align 8
  ret i32* %5
}

; Function Attrs: noinline nounwind uwtable
define linkonce_odr dereferenceable(8) i32** @_ZNK9__gnu_cxx17__normal_iteratorIPiSt6vectorIiSaIiEEE4baseEv(%"class.__gnu_cxx::__normal_iterator.17"* %0) #5 comdat align 2 {
  %2 = getelementptr inbounds %"class.__gnu_cxx::__normal_iterator.17", %"class.__gnu_cxx::__normal_iterator.17"* %0, i32 0, i32 0
  ret i32** %2
}

; Function Attrs: noinline nounwind uwtable
define linkonce_odr void @_ZN9__gnu_cxx17__normal_iteratorIPiSt6vectorIiSaIiEEEC2ERKS1_(%"class.__gnu_cxx::__normal_iterator.17"* %0, i32** dereferenceable(8) %1) unnamed_addr #5 comdat align 2 {
  %3 = getelementptr inbounds %"class.__gnu_cxx::__normal_iterator.17", %"class.__gnu_cxx::__normal_iterator.17"* %0, i32 0, i32 0
  %4 = load i32*, i32** %1, align 8
  store i32* %4, i32** %3, align 8
  ret void
}

; Function Attrs: noinline uwtable
define linkonce_odr i32* @_ZSt20uninitialized_fill_nIPimiET_S1_T0_RKT1_(i32* %0, i64 %1, i32* dereferenceable(4) %2) #0 comdat {
  %4 = call i32* @_ZNSt22__uninitialized_fill_nILb1EE15__uninit_fill_nIPimiEET_S3_T0_RKT1_(i32* %0, i64 %1, i32* dereferenceable(4) %2)
  ret i32* %4
}

; Function Attrs: noinline uwtable
define linkonce_odr i32* @_ZNSt22__uninitialized_fill_nILb1EE15__uninit_fill_nIPimiEET_S3_T0_RKT1_(i32* %0, i64 %1, i32* dereferenceable(4) %2) #0 comdat align 2 {
  %4 = call i32* @_ZSt6fill_nIPimiET_S1_T0_RKT1_(i32* %0, i64 %1, i32* dereferenceable(4) %2)
  ret i32* %4
}

; Function Attrs: noinline nounwind uwtable
define linkonce_odr i32* @_ZSt10__fill_n_aIPimiEN9__gnu_cxx11__enable_ifIXsr11__is_scalarIT1_EE7__valueET_E6__typeES4_T0_RKS3_(i32* %0, i64 %1, i32* dereferenceable(4) %2) #5 comdat {
  %4 = load i32, i32* %2, align 4
  br label %5

5:                                                ; preds = %8, %3
  %.01 = phi i64 [ %1, %3 ], [ %9, %8 ]
  %.0 = phi i32* [ %0, %3 ], [ %10, %8 ]
  %6 = icmp ugt i64 %.01, 0
  br i1 %6, label %7, label %11

7:                                                ; preds = %5
  store i32 %4, i32* %.0, align 4
  br label %8

8:                                                ; preds = %7
  %9 = add i64 %.01, -1
  %10 = getelementptr inbounds i32, i32* %.0, i32 1
  br label %5

11:                                               ; preds = %5
  ret i32* %.0
}

; Function Attrs: noinline nounwind uwtable
define linkonce_odr i32* @_ZSt12__niter_baseIPiET_S1_(i32* %0) #5 comdat {
  ret i32* %0
}

; Function Attrs: noinline uwtable
define linkonce_odr void @_ZN17AddMaxSegmentTree13addToRangeRecEiiiiii(%struct.AddMaxSegmentTree* %0, i32 %1, i32 %2, i32 %3, i32 %4, i32 %5, i32 %6) #0 comdat align 2 {
  %8 = alloca i32, align 4
  %9 = alloca i32, align 4
  %10 = icmp sle i32 %2, %5
  br i1 %10, label %11, label %19

11:                                               ; preds = %7
  %12 = icmp sle i32 %6, %3
  br i1 %12, label %13, label %19

13:                                               ; preds = %11
  %14 = getelementptr inbounds %struct.AddMaxSegmentTree, %struct.AddMaxSegmentTree* %0, i32 0, i32 1
  %15 = sext i32 %1 to i64
  %16 = call dereferenceable(4) i32* @_ZNSt6vectorIiSaIiEEixEm(%"class.std::vector.10"* %14, i64 %15) #3
  %17 = load i32, i32* %16, align 4
  %18 = add nsw i32 %17, %4
  store i32 %18, i32* %16, align 4
  br label %61

19:                                               ; preds = %11, %7
  %20 = add nsw i32 %5, %6
  %21 = ashr i32 %20, 1
  %22 = icmp slt i32 %2, %21
  br i1 %22, label %23, label %26

23:                                               ; preds = %19
  %24 = mul nsw i32 %1, 2
  %25 = add nsw i32 %24, 0
  call void @_ZN17AddMaxSegmentTree13addToRangeRecEiiiiii(%struct.AddMaxSegmentTree* %0, i32 %25, i32 %2, i32 %3, i32 %4, i32 %5, i32 %21)
  br label %26

26:                                               ; preds = %23, %19
  %27 = icmp slt i32 %21, %3
  br i1 %27, label %28, label %31

28:                                               ; preds = %26
  %29 = mul nsw i32 %1, 2
  %30 = add nsw i32 %29, 1
  call void @_ZN17AddMaxSegmentTree13addToRangeRecEiiiiii(%struct.AddMaxSegmentTree* %0, i32 %30, i32 %2, i32 %3, i32 %4, i32 %21, i32 %6)
  br label %31

31:                                               ; preds = %28, %26
  %32 = getelementptr inbounds %struct.AddMaxSegmentTree, %struct.AddMaxSegmentTree* %0, i32 0, i32 0
  %33 = mul nsw i32 %1, 2
  %34 = sext i32 %33 to i64
  %35 = call dereferenceable(4) i32* @_ZNSt6vectorIiSaIiEEixEm(%"class.std::vector.10"* %32, i64 %34) #3
  %36 = load i32, i32* %35, align 4
  %37 = getelementptr inbounds %struct.AddMaxSegmentTree, %struct.AddMaxSegmentTree* %0, i32 0, i32 1
  %38 = mul nsw i32 %1, 2
  %39 = sext i32 %38 to i64
  %40 = call dereferenceable(4) i32* @_ZNSt6vectorIiSaIiEEixEm(%"class.std::vector.10"* %37, i64 %39) #3
  %41 = load i32, i32* %40, align 4
  %42 = add nsw i32 %36, %41
  store i32 %42, i32* %8, align 4
  %43 = getelementptr inbounds %struct.AddMaxSegmentTree, %struct.AddMaxSegmentTree* %0, i32 0, i32 0
  %44 = mul nsw i32 %1, 2
  %45 = add nsw i32 %44, 1
  %46 = sext i32 %45 to i64
  %47 = call dereferenceable(4) i32* @_ZNSt6vectorIiSaIiEEixEm(%"class.std::vector.10"* %43, i64 %46) #3
  %48 = load i32, i32* %47, align 4
  %49 = getelementptr inbounds %struct.AddMaxSegmentTree, %struct.AddMaxSegmentTree* %0, i32 0, i32 1
  %50 = mul nsw i32 %1, 2
  %51 = add nsw i32 %50, 1
  %52 = sext i32 %51 to i64
  %53 = call dereferenceable(4) i32* @_ZNSt6vectorIiSaIiEEixEm(%"class.std::vector.10"* %49, i64 %52) #3
  %54 = load i32, i32* %53, align 4
  %55 = add nsw i32 %48, %54
  store i32 %55, i32* %9, align 4
  %56 = call dereferenceable(4) i32* @_ZSt3maxIiERKT_S2_S2_(i32* dereferenceable(4) %8, i32* dereferenceable(4) %9)
  %57 = load i32, i32* %56, align 4
  %58 = getelementptr inbounds %struct.AddMaxSegmentTree, %struct.AddMaxSegmentTree* %0, i32 0, i32 0
  %59 = sext i32 %1 to i64
  %60 = call dereferenceable(4) i32* @_ZNSt6vectorIiSaIiEEixEm(%"class.std::vector.10"* %58, i64 %59) #3
  store i32 %57, i32* %60, align 4
  br label %61

61:                                               ; preds = %31, %13
  ret void
}

; Function Attrs: noinline nounwind uwtable
define linkonce_odr dereferenceable(4) i32* @_ZNSt6vectorIiSaIiEEixEm(%"class.std::vector.10"* %0, i64 %1) #5 comdat align 2 {
  %3 = bitcast %"class.std::vector.10"* %0 to %"struct.std::_Vector_base.11"*
  %4 = getelementptr inbounds %"struct.std::_Vector_base.11", %"struct.std::_Vector_base.11"* %3, i32 0, i32 0
  %5 = getelementptr inbounds %"struct.std::_Vector_base<int, std::allocator<int> >::_Vector_impl", %"struct.std::_Vector_base<int, std::allocator<int> >::_Vector_impl"* %4, i32 0, i32 0
  %6 = load i32*, i32** %5, align 8
  %7 = getelementptr inbounds i32, i32* %6, i64 %1
  ret i32* %7
}

; Function Attrs: noinline uwtable
define linkonce_odr i32 @_ZN17AddMaxSegmentTree11getRangeRecEiiiii(%struct.AddMaxSegmentTree* %0, i32 %1, i32 %2, i32 %3, i32 %4, i32 %5) #0 comdat align 2 {
  %7 = alloca i32, align 4
  %8 = alloca i32, align 4
  %9 = alloca i32, align 4
  %10 = getelementptr inbounds %struct.AddMaxSegmentTree, %struct.AddMaxSegmentTree* %0, i32 0, i32 1
  %11 = sext i32 %1 to i64
  %12 = call dereferenceable(4) i32* @_ZNSt6vectorIiSaIiEEixEm(%"class.std::vector.10"* %10, i64 %11) #3
  %13 = load i32, i32* %12, align 4
  %14 = icmp sle i32 %2, %4
  br i1 %14, label %15, label %23

15:                                               ; preds = %6
  %16 = icmp sle i32 %5, %3
  br i1 %16, label %17, label %23

17:                                               ; preds = %15
  %18 = getelementptr inbounds %struct.AddMaxSegmentTree, %struct.AddMaxSegmentTree* %0, i32 0, i32 0
  %19 = sext i32 %1 to i64
  %20 = call dereferenceable(4) i32* @_ZNSt6vectorIiSaIiEEixEm(%"class.std::vector.10"* %18, i64 %19) #3
  %21 = load i32, i32* %20, align 4
  %22 = add nsw i32 %21, %13
  br label %92

23:                                               ; preds = %15, %6
  %24 = icmp ne i32 %13, 0
  br i1 %24, label %25, label %47

25:                                               ; preds = %23
  %26 = getelementptr inbounds %struct.AddMaxSegmentTree, %struct.AddMaxSegmentTree* %0, i32 0, i32 1
  %27 = mul nsw i32 %1, 2
  %28 = sext i32 %27 to i64
  %29 = call dereferenceable(4) i32* @_ZNSt6vectorIiSaIiEEixEm(%"class.std::vector.10"* %26, i64 %28) #3
  %30 = load i32, i32* %29, align 4
  %31 = add nsw i32 %30, %13
  store i32 %31, i32* %29, align 4
  %32 = getelementptr inbounds %struct.AddMaxSegmentTree, %struct.AddMaxSegmentTree* %0, i32 0, i32 1
  %33 = mul nsw i32 %1, 2
  %34 = add nsw i32 %33, 1
  %35 = sext i32 %34 to i64
  %36 = call dereferenceable(4) i32* @_ZNSt6vectorIiSaIiEEixEm(%"class.std::vector.10"* %32, i64 %35) #3
  %37 = load i32, i32* %36, align 4
  %38 = add nsw i32 %37, %13
  store i32 %38, i32* %36, align 4
  %39 = getelementptr inbounds %struct.AddMaxSegmentTree, %struct.AddMaxSegmentTree* %0, i32 0, i32 0
  %40 = sext i32 %1 to i64
  %41 = call dereferenceable(4) i32* @_ZNSt6vectorIiSaIiEEixEm(%"class.std::vector.10"* %39, i64 %40) #3
  %42 = load i32, i32* %41, align 4
  %43 = add nsw i32 %42, %13
  store i32 %43, i32* %41, align 4
  %44 = getelementptr inbounds %struct.AddMaxSegmentTree, %struct.AddMaxSegmentTree* %0, i32 0, i32 1
  %45 = sext i32 %1 to i64
  %46 = call dereferenceable(4) i32* @_ZNSt6vectorIiSaIiEEixEm(%"class.std::vector.10"* %44, i64 %45) #3
  store i32 0, i32* %46, align 4
  br label %47

47:                                               ; preds = %25, %23
  %48 = add nsw i32 %4, %5
  %49 = ashr i32 %48, 1
  store i32 -1061109567, i32* %7, align 4
  %50 = icmp slt i32 %2, %49
  br i1 %50, label %51, label %55

51:                                               ; preds = %47
  %52 = mul nsw i32 %1, 2
  %53 = add nsw i32 %52, 0
  %54 = call i32 @_ZN17AddMaxSegmentTree11getRangeRecEiiiii(%struct.AddMaxSegmentTree* %0, i32 %53, i32 %2, i32 %3, i32 %4, i32 %49)
  call void @_ZL4amaxIiiEvRT_T0_(i32* dereferenceable(4) %7, i32 %54)
  br label %55

55:                                               ; preds = %51, %47
  %56 = icmp slt i32 %49, %3
  br i1 %56, label %57, label %61

57:                                               ; preds = %55
  %58 = mul nsw i32 %1, 2
  %59 = add nsw i32 %58, 1
  %60 = call i32 @_ZN17AddMaxSegmentTree11getRangeRecEiiiii(%struct.AddMaxSegmentTree* %0, i32 %59, i32 %2, i32 %3, i32 %49, i32 %5)
  call void @_ZL4amaxIiiEvRT_T0_(i32* dereferenceable(4) %7, i32 %60)
  br label %61

61:                                               ; preds = %57, %55
  %62 = getelementptr inbounds %struct.AddMaxSegmentTree, %struct.AddMaxSegmentTree* %0, i32 0, i32 0
  %63 = mul nsw i32 %1, 2
  %64 = sext i32 %63 to i64
  %65 = call dereferenceable(4) i32* @_ZNSt6vectorIiSaIiEEixEm(%"class.std::vector.10"* %62, i64 %64) #3
  %66 = load i32, i32* %65, align 4
  %67 = getelementptr inbounds %struct.AddMaxSegmentTree, %struct.AddMaxSegmentTree* %0, i32 0, i32 1
  %68 = mul nsw i32 %1, 2
  %69 = sext i32 %68 to i64
  %70 = call dereferenceable(4) i32* @_ZNSt6vectorIiSaIiEEixEm(%"class.std::vector.10"* %67, i64 %69) #3
  %71 = load i32, i32* %70, align 4
  %72 = add nsw i32 %66, %71
  store i32 %72, i32* %8, align 4
  %73 = getelementptr inbounds %struct.AddMaxSegmentTree, %struct.AddMaxSegmentTree* %0, i32 0, i32 0
  %74 = mul nsw i32 %1, 2
  %75 = add nsw i32 %74, 1
  %76 = sext i32 %75 to i64
  %77 = call dereferenceable(4) i32* @_ZNSt6vectorIiSaIiEEixEm(%"class.std::vector.10"* %73, i64 %76) #3
  %78 = load i32, i32* %77, align 4
  %79 = getelementptr inbounds %struct.AddMaxSegmentTree, %struct.AddMaxSegmentTree* %0, i32 0, i32 1
  %80 = mul nsw i32 %1, 2
  %81 = add nsw i32 %80, 1
  %82 = sext i32 %81 to i64
  %83 = call dereferenceable(4) i32* @_ZNSt6vectorIiSaIiEEixEm(%"class.std::vector.10"* %79, i64 %82) #3
  %84 = load i32, i32* %83, align 4
  %85 = add nsw i32 %78, %84
  store i32 %85, i32* %9, align 4
  %86 = call dereferenceable(4) i32* @_ZSt3maxIiERKT_S2_S2_(i32* dereferenceable(4) %8, i32* dereferenceable(4) %9)
  %87 = load i32, i32* %86, align 4
  %88 = getelementptr inbounds %struct.AddMaxSegmentTree, %struct.AddMaxSegmentTree* %0, i32 0, i32 0
  %89 = sext i32 %1 to i64
  %90 = call dereferenceable(4) i32* @_ZNSt6vectorIiSaIiEEixEm(%"class.std::vector.10"* %88, i64 %89) #3
  store i32 %87, i32* %90, align 4
  %91 = load i32, i32* %7, align 4
  br label %92

92:                                               ; preds = %61, %17
  %.0 = phi i32 [ %22, %17 ], [ %91, %61 ]
  ret i32 %.0
}

; Function Attrs: noinline nounwind uwtable
define linkonce_odr void @_ZN9__gnu_cxx13new_allocatorISt4pairIiiEEC2Ev(%"class.__gnu_cxx::new_allocator"* %0) unnamed_addr #5 comdat align 2 {
  ret void
}

; Function Attrs: noinline nounwind uwtable
define linkonce_odr void @_ZN9__gnu_cxx13new_allocatorISt4pairIiiEED2Ev(%"class.__gnu_cxx::new_allocator"* %0) unnamed_addr #5 comdat align 2 {
  ret void
}

; Function Attrs: noinline uwtable
define linkonce_odr void @_ZNSt12_Vector_baseISt4pairIiiESaIS1_EEC2EmRKS2_(%"struct.std::_Vector_base"* %0, i64 %1, %"class.std::allocator"* dereferenceable(1) %2) unnamed_addr #0 comdat align 2 personality i8* bitcast (i32 (...)* @__gxx_personality_v0 to i8*) {
  %4 = getelementptr inbounds %"struct.std::_Vector_base", %"struct.std::_Vector_base"* %0, i32 0, i32 0
  call void @_ZNSt12_Vector_baseISt4pairIiiESaIS1_EE12_Vector_implC2ERKS2_(%"struct.std::_Vector_base<std::pair<int, int>, std::allocator<std::pair<int, int> > >::_Vector_impl"* %4, %"class.std::allocator"* dereferenceable(1) %2) #3
  invoke void @_ZNSt12_Vector_baseISt4pairIiiESaIS1_EE17_M_create_storageEm(%"struct.std::_Vector_base"* %0, i64 %1)
          to label %5 unwind label %6

5:                                                ; preds = %3
  ret void

6:                                                ; preds = %3
  %7 = landingpad { i8*, i32 }
          cleanup
  %8 = extractvalue { i8*, i32 } %7, 0
  %9 = extractvalue { i8*, i32 } %7, 1
  call void @_ZNSt12_Vector_baseISt4pairIiiESaIS1_EE12_Vector_implD2Ev(%"struct.std::_Vector_base<std::pair<int, int>, std::allocator<std::pair<int, int> > >::_Vector_impl"* %4) #3
  br label %10

10:                                               ; preds = %6
  %11 = insertvalue { i8*, i32 } undef, i8* %8, 0
  %12 = insertvalue { i8*, i32 } %11, i32 %9, 1
  resume { i8*, i32 } %12
}

; Function Attrs: noinline uwtable
define linkonce_odr void @_ZNSt6vectorISt4pairIiiESaIS1_EE21_M_default_initializeEm(%"class.std::vector"* %0, i64 %1) #0 comdat align 2 {
  %3 = bitcast %"class.std::vector"* %0 to %"struct.std::_Vector_base"*
  %4 = getelementptr inbounds %"struct.std::_Vector_base", %"struct.std::_Vector_base"* %3, i32 0, i32 0
  %5 = getelementptr inbounds %"struct.std::_Vector_base<std::pair<int, int>, std::allocator<std::pair<int, int> > >::_Vector_impl", %"struct.std::_Vector_base<std::pair<int, int>, std::allocator<std::pair<int, int> > >::_Vector_impl"* %4, i32 0, i32 0
  %6 = load %"struct.std::pair"*, %"struct.std::pair"** %5, align 8
  %7 = bitcast %"class.std::vector"* %0 to %"struct.std::_Vector_base"*
  %8 = call dereferenceable(1) %"class.std::allocator"* @_ZNSt12_Vector_baseISt4pairIiiESaIS1_EE19_M_get_Tp_allocatorEv(%"struct.std::_Vector_base"* %7) #3
  %9 = call %"struct.std::pair"* @_ZSt27__uninitialized_default_n_aIPSt4pairIiiEmS1_ET_S3_T0_RSaIT1_E(%"struct.std::pair"* %6, i64 %1, %"class.std::allocator"* dereferenceable(1) %8)
  %10 = bitcast %"class.std::vector"* %0 to %"struct.std::_Vector_base"*
  %11 = getelementptr inbounds %"struct.std::_Vector_base", %"struct.std::_Vector_base"* %10, i32 0, i32 0
  %12 = getelementptr inbounds %"struct.std::_Vector_base<std::pair<int, int>, std::allocator<std::pair<int, int> > >::_Vector_impl", %"struct.std::_Vector_base<std::pair<int, int>, std::allocator<std::pair<int, int> > >::_Vector_impl"* %11, i32 0, i32 1
  store %"struct.std::pair"* %9, %"struct.std::pair"** %12, align 8
  ret void
}

; Function Attrs: noinline nounwind uwtable
define linkonce_odr void @_ZNSt12_Vector_baseISt4pairIiiESaIS1_EED2Ev(%"struct.std::_Vector_base"* %0) unnamed_addr #5 comdat align 2 personality i8* bitcast (i32 (...)* @__gxx_personality_v0 to i8*) {
  %2 = getelementptr inbounds %"struct.std::_Vector_base", %"struct.std::_Vector_base"* %0, i32 0, i32 0
  %3 = getelementptr inbounds %"struct.std::_Vector_base<std::pair<int, int>, std::allocator<std::pair<int, int> > >::_Vector_impl", %"struct.std::_Vector_base<std::pair<int, int>, std::allocator<std::pair<int, int> > >::_Vector_impl"* %2, i32 0, i32 0
  %4 = load %"struct.std::pair"*, %"struct.std::pair"** %3, align 8
  %5 = getelementptr inbounds %"struct.std::_Vector_base", %"struct.std::_Vector_base"* %0, i32 0, i32 0
  %6 = getelementptr inbounds %"struct.std::_Vector_base<std::pair<int, int>, std::allocator<std::pair<int, int> > >::_Vector_impl", %"struct.std::_Vector_base<std::pair<int, int>, std::allocator<std::pair<int, int> > >::_Vector_impl"* %5, i32 0, i32 2
  %7 = load %"struct.std::pair"*, %"struct.std::pair"** %6, align 8
  %8 = getelementptr inbounds %"struct.std::_Vector_base", %"struct.std::_Vector_base"* %0, i32 0, i32 0
  %9 = getelementptr inbounds %"struct.std::_Vector_base<std::pair<int, int>, std::allocator<std::pair<int, int> > >::_Vector_impl", %"struct.std::_Vector_base<std::pair<int, int>, std::allocator<std::pair<int, int> > >::_Vector_impl"* %8, i32 0, i32 0
  %10 = load %"struct.std::pair"*, %"struct.std::pair"** %9, align 8
  %11 = ptrtoint %"struct.std::pair"* %7 to i64
  %12 = ptrtoint %"struct.std::pair"* %10 to i64
  %13 = sub i64 %11, %12
  %14 = sdiv exact i64 %13, 8
  invoke void @_ZNSt12_Vector_baseISt4pairIiiESaIS1_EE13_M_deallocateEPS1_m(%"struct.std::_Vector_base"* %0, %"struct.std::pair"* %4, i64 %14)
          to label %15 unwind label %17

15:                                               ; preds = %1
  %16 = getelementptr inbounds %"struct.std::_Vector_base", %"struct.std::_Vector_base"* %0, i32 0, i32 0
  call void @_ZNSt12_Vector_baseISt4pairIiiESaIS1_EE12_Vector_implD2Ev(%"struct.std::_Vector_base<std::pair<int, int>, std::allocator<std::pair<int, int> > >::_Vector_impl"* %16) #3
  ret void

17:                                               ; preds = %1
  %18 = landingpad { i8*, i32 }
          catch i8* null
  %19 = extractvalue { i8*, i32 } %18, 0
  %20 = extractvalue { i8*, i32 } %18, 1
  %21 = getelementptr inbounds %"struct.std::_Vector_base", %"struct.std::_Vector_base"* %0, i32 0, i32 0
  call void @_ZNSt12_Vector_baseISt4pairIiiESaIS1_EE12_Vector_implD2Ev(%"struct.std::_Vector_base<std::pair<int, int>, std::allocator<std::pair<int, int> > >::_Vector_impl"* %21) #3
  br label %22

22:                                               ; preds = %17
  call void @__clang_call_terminate(i8* %19) #12
  unreachable
}

; Function Attrs: noinline nounwind uwtable
define linkonce_odr void @_ZNSt12_Vector_baseISt4pairIiiESaIS1_EE12_Vector_implC2ERKS2_(%"struct.std::_Vector_base<std::pair<int, int>, std::allocator<std::pair<int, int> > >::_Vector_impl"* %0, %"class.std::allocator"* dereferenceable(1) %1) unnamed_addr #5 comdat align 2 {
  %3 = bitcast %"struct.std::_Vector_base<std::pair<int, int>, std::allocator<std::pair<int, int> > >::_Vector_impl"* %0 to %"class.std::allocator"*
  call void @_ZNSaISt4pairIiiEEC2ERKS1_(%"class.std::allocator"* %3, %"class.std::allocator"* dereferenceable(1) %1) #3
  %4 = getelementptr inbounds %"struct.std::_Vector_base<std::pair<int, int>, std::allocator<std::pair<int, int> > >::_Vector_impl", %"struct.std::_Vector_base<std::pair<int, int>, std::allocator<std::pair<int, int> > >::_Vector_impl"* %0, i32 0, i32 0
  store %"struct.std::pair"* null, %"struct.std::pair"** %4, align 8
  %5 = getelementptr inbounds %"struct.std::_Vector_base<std::pair<int, int>, std::allocator<std::pair<int, int> > >::_Vector_impl", %"struct.std::_Vector_base<std::pair<int, int>, std::allocator<std::pair<int, int> > >::_Vector_impl"* %0, i32 0, i32 1
  store %"struct.std::pair"* null, %"struct.std::pair"** %5, align 8
  %6 = getelementptr inbounds %"struct.std::_Vector_base<std::pair<int, int>, std::allocator<std::pair<int, int> > >::_Vector_impl", %"struct.std::_Vector_base<std::pair<int, int>, std::allocator<std::pair<int, int> > >::_Vector_impl"* %0, i32 0, i32 2
  store %"struct.std::pair"* null, %"struct.std::pair"** %6, align 8
  ret void
}

; Function Attrs: noinline uwtable
define linkonce_odr void @_ZNSt12_Vector_baseISt4pairIiiESaIS1_EE17_M_create_storageEm(%"struct.std::_Vector_base"* %0, i64 %1) #0 comdat align 2 {
  %3 = call %"struct.std::pair"* @_ZNSt12_Vector_baseISt4pairIiiESaIS1_EE11_M_allocateEm(%"struct.std::_Vector_base"* %0, i64 %1)
  %4 = getelementptr inbounds %"struct.std::_Vector_base", %"struct.std::_Vector_base"* %0, i32 0, i32 0
  %5 = getelementptr inbounds %"struct.std::_Vector_base<std::pair<int, int>, std::allocator<std::pair<int, int> > >::_Vector_impl", %"struct.std::_Vector_base<std::pair<int, int>, std::allocator<std::pair<int, int> > >::_Vector_impl"* %4, i32 0, i32 0
  store %"struct.std::pair"* %3, %"struct.std::pair"** %5, align 8
  %6 = getelementptr inbounds %"struct.std::_Vector_base", %"struct.std::_Vector_base"* %0, i32 0, i32 0
  %7 = getelementptr inbounds %"struct.std::_Vector_base<std::pair<int, int>, std::allocator<std::pair<int, int> > >::_Vector_impl", %"struct.std::_Vector_base<std::pair<int, int>, std::allocator<std::pair<int, int> > >::_Vector_impl"* %6, i32 0, i32 0
  %8 = load %"struct.std::pair"*, %"struct.std::pair"** %7, align 8
  %9 = getelementptr inbounds %"struct.std::_Vector_base", %"struct.std::_Vector_base"* %0, i32 0, i32 0
  %10 = getelementptr inbounds %"struct.std::_Vector_base<std::pair<int, int>, std::allocator<std::pair<int, int> > >::_Vector_impl", %"struct.std::_Vector_base<std::pair<int, int>, std::allocator<std::pair<int, int> > >::_Vector_impl"* %9, i32 0, i32 1
  store %"struct.std::pair"* %8, %"struct.std::pair"** %10, align 8
  %11 = getelementptr inbounds %"struct.std::_Vector_base", %"struct.std::_Vector_base"* %0, i32 0, i32 0
  %12 = getelementptr inbounds %"struct.std::_Vector_base<std::pair<int, int>, std::allocator<std::pair<int, int> > >::_Vector_impl", %"struct.std::_Vector_base<std::pair<int, int>, std::allocator<std::pair<int, int> > >::_Vector_impl"* %11, i32 0, i32 0
  %13 = load %"struct.std::pair"*, %"struct.std::pair"** %12, align 8
  %14 = getelementptr inbounds %"struct.std::pair", %"struct.std::pair"* %13, i64 %1
  %15 = getelementptr inbounds %"struct.std::_Vector_base", %"struct.std::_Vector_base"* %0, i32 0, i32 0
  %16 = getelementptr inbounds %"struct.std::_Vector_base<std::pair<int, int>, std::allocator<std::pair<int, int> > >::_Vector_impl", %"struct.std::_Vector_base<std::pair<int, int>, std::allocator<std::pair<int, int> > >::_Vector_impl"* %15, i32 0, i32 2
  store %"struct.std::pair"* %14, %"struct.std::pair"** %16, align 8
  ret void
}

; Function Attrs: noinline nounwind uwtable
define linkonce_odr void @_ZNSt12_Vector_baseISt4pairIiiESaIS1_EE12_Vector_implD2Ev(%"struct.std::_Vector_base<std::pair<int, int>, std::allocator<std::pair<int, int> > >::_Vector_impl"* %0) unnamed_addr #5 comdat align 2 {
  %2 = bitcast %"struct.std::_Vector_base<std::pair<int, int>, std::allocator<std::pair<int, int> > >::_Vector_impl"* %0 to %"class.std::allocator"*
  call void @_ZNSaISt4pairIiiEED2Ev(%"class.std::allocator"* %2) #3
  ret void
}

; Function Attrs: noinline nounwind uwtable
define linkonce_odr void @_ZNSaISt4pairIiiEEC2ERKS1_(%"class.std::allocator"* %0, %"class.std::allocator"* dereferenceable(1) %1) unnamed_addr #5 comdat align 2 {
  %3 = bitcast %"class.std::allocator"* %0 to %"class.__gnu_cxx::new_allocator"*
  %4 = bitcast %"class.std::allocator"* %1 to %"class.__gnu_cxx::new_allocator"*
  call void @_ZN9__gnu_cxx13new_allocatorISt4pairIiiEEC2ERKS3_(%"class.__gnu_cxx::new_allocator"* %3, %"class.__gnu_cxx::new_allocator"* dereferenceable(1) %4) #3
  ret void
}

; Function Attrs: noinline nounwind uwtable
define linkonce_odr void @_ZN9__gnu_cxx13new_allocatorISt4pairIiiEEC2ERKS3_(%"class.__gnu_cxx::new_allocator"* %0, %"class.__gnu_cxx::new_allocator"* dereferenceable(1) %1) unnamed_addr #5 comdat align 2 {
  ret void
}

; Function Attrs: noinline uwtable
define linkonce_odr %"struct.std::pair"* @_ZNSt12_Vector_baseISt4pairIiiESaIS1_EE11_M_allocateEm(%"struct.std::_Vector_base"* %0, i64 %1) #0 comdat align 2 {
  %3 = icmp ne i64 %1, 0
  br i1 %3, label %4, label %8

4:                                                ; preds = %2
  %5 = getelementptr inbounds %"struct.std::_Vector_base", %"struct.std::_Vector_base"* %0, i32 0, i32 0
  %6 = bitcast %"struct.std::_Vector_base<std::pair<int, int>, std::allocator<std::pair<int, int> > >::_Vector_impl"* %5 to %"class.std::allocator"*
  %7 = call %"struct.std::pair"* @_ZNSt16allocator_traitsISaISt4pairIiiEEE8allocateERS2_m(%"class.std::allocator"* dereferenceable(1) %6, i64 %1)
  br label %9

8:                                                ; preds = %2
  br label %9

9:                                                ; preds = %8, %4
  %10 = phi %"struct.std::pair"* [ %7, %4 ], [ null, %8 ]
  ret %"struct.std::pair"* %10
}

; Function Attrs: noinline uwtable
define linkonce_odr %"struct.std::pair"* @_ZNSt16allocator_traitsISaISt4pairIiiEEE8allocateERS2_m(%"class.std::allocator"* dereferenceable(1) %0, i64 %1) #0 comdat align 2 {
  %3 = bitcast %"class.std::allocator"* %0 to %"class.__gnu_cxx::new_allocator"*
  %4 = call %"struct.std::pair"* @_ZN9__gnu_cxx13new_allocatorISt4pairIiiEE8allocateEmPKv(%"class.__gnu_cxx::new_allocator"* %3, i64 %1, i8* null)
  ret %"struct.std::pair"* %4
}

; Function Attrs: noinline uwtable
define linkonce_odr %"struct.std::pair"* @_ZN9__gnu_cxx13new_allocatorISt4pairIiiEE8allocateEmPKv(%"class.__gnu_cxx::new_allocator"* %0, i64 %1, i8* %2) #0 comdat align 2 {
  %4 = call i64 @_ZNK9__gnu_cxx13new_allocatorISt4pairIiiEE8max_sizeEv(%"class.__gnu_cxx::new_allocator"* %0) #3
  %5 = icmp ugt i64 %1, %4
  br i1 %5, label %6, label %7

6:                                                ; preds = %3
  call void @_ZSt17__throw_bad_allocv() #13
  unreachable

7:                                                ; preds = %3
  %8 = mul i64 %1, 8
  %9 = call i8* @_Znwm(i64 %8)
  %10 = bitcast i8* %9 to %"struct.std::pair"*
  ret %"struct.std::pair"* %10
}

; Function Attrs: noinline nounwind uwtable
define linkonce_odr i64 @_ZNK9__gnu_cxx13new_allocatorISt4pairIiiEE8max_sizeEv(%"class.__gnu_cxx::new_allocator"* %0) #5 comdat align 2 {
  ret i64 2305843009213693951
}

; Function Attrs: noinline uwtable
define linkonce_odr %"struct.std::pair"* @_ZSt27__uninitialized_default_n_aIPSt4pairIiiEmS1_ET_S3_T0_RSaIT1_E(%"struct.std::pair"* %0, i64 %1, %"class.std::allocator"* dereferenceable(1) %2) #0 comdat {
  %4 = call %"struct.std::pair"* @_ZSt25__uninitialized_default_nIPSt4pairIiiEmET_S3_T0_(%"struct.std::pair"* %0, i64 %1)
  ret %"struct.std::pair"* %4
}

; Function Attrs: noinline nounwind uwtable
define linkonce_odr dereferenceable(1) %"class.std::allocator"* @_ZNSt12_Vector_baseISt4pairIiiESaIS1_EE19_M_get_Tp_allocatorEv(%"struct.std::_Vector_base"* %0) #5 comdat align 2 {
  %2 = getelementptr inbounds %"struct.std::_Vector_base", %"struct.std::_Vector_base"* %0, i32 0, i32 0
  %3 = bitcast %"struct.std::_Vector_base<std::pair<int, int>, std::allocator<std::pair<int, int> > >::_Vector_impl"* %2 to %"class.std::allocator"*
  ret %"class.std::allocator"* %3
}

; Function Attrs: noinline uwtable
define linkonce_odr %"struct.std::pair"* @_ZSt25__uninitialized_default_nIPSt4pairIiiEmET_S3_T0_(%"struct.std::pair"* %0, i64 %1) #0 comdat {
  %3 = call %"struct.std::pair"* @_ZNSt27__uninitialized_default_n_1ILb0EE18__uninit_default_nIPSt4pairIiiEmEET_S5_T0_(%"struct.std::pair"* %0, i64 %1)
  ret %"struct.std::pair"* %3
}

; Function Attrs: noinline uwtable
define linkonce_odr %"struct.std::pair"* @_ZNSt27__uninitialized_default_n_1ILb0EE18__uninit_default_nIPSt4pairIiiEmEET_S5_T0_(%"struct.std::pair"* %0, i64 %1) #0 comdat align 2 personality i8* bitcast (i32 (...)* @__gxx_personality_v0 to i8*) {
  br label %3

3:                                                ; preds = %8, %2
  %.01 = phi %"struct.std::pair"* [ %0, %2 ], [ %10, %8 ]
  %.0 = phi i64 [ %1, %2 ], [ %9, %8 ]
  %4 = icmp ugt i64 %.0, 0
  br i1 %4, label %5, label %18

5:                                                ; preds = %3
  %6 = call %"struct.std::pair"* @_ZSt11__addressofISt4pairIiiEEPT_RS2_(%"struct.std::pair"* dereferenceable(8) %.01) #3
  invoke void @_ZSt10_ConstructISt4pairIiiEJEEvPT_DpOT0_(%"struct.std::pair"* %6)
          to label %7 unwind label %11

7:                                                ; preds = %5
  br label %8

8:                                                ; preds = %7
  %9 = add i64 %.0, -1
  %10 = getelementptr inbounds %"struct.std::pair", %"struct.std::pair"* %.01, i32 1
  br label %3

11:                                               ; preds = %5
  %12 = landingpad { i8*, i32 }
          catch i8* null
  %13 = extractvalue { i8*, i32 } %12, 0
  %14 = extractvalue { i8*, i32 } %12, 1
  br label %15

15:                                               ; preds = %11
  %16 = call i8* @__cxa_begin_catch(i8* %13) #3
  invoke void @_ZSt8_DestroyIPSt4pairIiiEEvT_S3_(%"struct.std::pair"* %0, %"struct.std::pair"* %.01)
          to label %17 unwind label %19

17:                                               ; preds = %15
  invoke void @__cxa_rethrow() #13
          to label %31 unwind label %19

18:                                               ; preds = %3
  ret %"struct.std::pair"* %.01

19:                                               ; preds = %17, %15
  %20 = landingpad { i8*, i32 }
          cleanup
  %21 = extractvalue { i8*, i32 } %20, 0
  %22 = extractvalue { i8*, i32 } %20, 1
  invoke void @__cxa_end_catch()
          to label %23 unwind label %28

23:                                               ; preds = %19
  br label %25

24:                                               ; No predecessors!
  call void @llvm.trap()
  unreachable

25:                                               ; preds = %23
  %26 = insertvalue { i8*, i32 } undef, i8* %21, 0
  %27 = insertvalue { i8*, i32 } %26, i32 %22, 1
  resume { i8*, i32 } %27

28:                                               ; preds = %19
  %29 = landingpad { i8*, i32 }
          catch i8* null
  %30 = extractvalue { i8*, i32 } %29, 0
  call void @__clang_call_terminate(i8* %30) #12
  unreachable

31:                                               ; preds = %17
  unreachable
}

; Function Attrs: noinline uwtable
define linkonce_odr void @_ZSt10_ConstructISt4pairIiiEJEEvPT_DpOT0_(%"struct.std::pair"* %0) #0 comdat {
  %2 = bitcast %"struct.std::pair"* %0 to i8*
  %3 = bitcast i8* %2 to %"struct.std::pair"*
  call void @_ZNSt4pairIiiEC2IiiLb1EEEv(%"struct.std::pair"* %3)
  ret void
}

; Function Attrs: noinline nounwind uwtable
define linkonce_odr %"struct.std::pair"* @_ZSt11__addressofISt4pairIiiEEPT_RS2_(%"struct.std::pair"* dereferenceable(8) %0) #5 comdat {
  ret %"struct.std::pair"* %0
}

; Function Attrs: noinline uwtable
define linkonce_odr void @_ZSt8_DestroyIPSt4pairIiiEEvT_S3_(%"struct.std::pair"* %0, %"struct.std::pair"* %1) #0 comdat {
  call void @_ZNSt12_Destroy_auxILb1EE9__destroyIPSt4pairIiiEEEvT_S5_(%"struct.std::pair"* %0, %"struct.std::pair"* %1)
  ret void
}

declare void @__cxa_rethrow()

declare void @__cxa_end_catch()

; Function Attrs: cold noreturn nounwind
declare void @llvm.trap() #10

; Function Attrs: noinline nounwind uwtable
define linkonce_odr void @_ZNSt4pairIiiEC2IiiLb1EEEv(%"struct.std::pair"* %0) unnamed_addr #5 comdat align 2 {
  %2 = bitcast %"struct.std::pair"* %0 to %"class.std::__pair_base"*
  %3 = getelementptr inbounds %"struct.std::pair", %"struct.std::pair"* %0, i32 0, i32 0
  store i32 0, i32* %3, align 4
  %4 = getelementptr inbounds %"struct.std::pair", %"struct.std::pair"* %0, i32 0, i32 1
  store i32 0, i32* %4, align 4
  ret void
}

; Function Attrs: noinline nounwind uwtable
define linkonce_odr void @_ZNSt12_Destroy_auxILb1EE9__destroyIPSt4pairIiiEEEvT_S5_(%"struct.std::pair"* %0, %"struct.std::pair"* %1) #5 comdat align 2 {
  ret void
}

; Function Attrs: noinline uwtable
define linkonce_odr void @_ZNSt12_Vector_baseISt4pairIiiESaIS1_EE13_M_deallocateEPS1_m(%"struct.std::_Vector_base"* %0, %"struct.std::pair"* %1, i64 %2) #0 comdat align 2 {
  %4 = icmp ne %"struct.std::pair"* %1, null
  br i1 %4, label %5, label %8

5:                                                ; preds = %3
  %6 = getelementptr inbounds %"struct.std::_Vector_base", %"struct.std::_Vector_base"* %0, i32 0, i32 0
  %7 = bitcast %"struct.std::_Vector_base<std::pair<int, int>, std::allocator<std::pair<int, int> > >::_Vector_impl"* %6 to %"class.std::allocator"*
  call void @_ZNSt16allocator_traitsISaISt4pairIiiEEE10deallocateERS2_PS1_m(%"class.std::allocator"* dereferenceable(1) %7, %"struct.std::pair"* %1, i64 %2)
  br label %8

8:                                                ; preds = %5, %3
  ret void
}

; Function Attrs: noinline uwtable
define linkonce_odr void @_ZNSt16allocator_traitsISaISt4pairIiiEEE10deallocateERS2_PS1_m(%"class.std::allocator"* dereferenceable(1) %0, %"struct.std::pair"* %1, i64 %2) #0 comdat align 2 {
  %4 = bitcast %"class.std::allocator"* %0 to %"class.__gnu_cxx::new_allocator"*
  call void @_ZN9__gnu_cxx13new_allocatorISt4pairIiiEE10deallocateEPS2_m(%"class.__gnu_cxx::new_allocator"* %4, %"struct.std::pair"* %1, i64 %2)
  ret void
}

; Function Attrs: noinline nounwind uwtable
define linkonce_odr void @_ZN9__gnu_cxx13new_allocatorISt4pairIiiEE10deallocateEPS2_m(%"class.__gnu_cxx::new_allocator"* %0, %"struct.std::pair"* %1, i64 %2) #5 comdat align 2 {
  %4 = bitcast %"struct.std::pair"* %1 to i8*
  call void @_ZdlPv(i8* %4) #3
  ret void
}

; Function Attrs: noinline uwtable
define linkonce_odr void @_ZSt8_DestroyIPSt4pairIiiES1_EvT_S3_RSaIT0_E(%"struct.std::pair"* %0, %"struct.std::pair"* %1, %"class.std::allocator"* dereferenceable(1) %2) #0 comdat {
  call void @_ZSt8_DestroyIPSt4pairIiiEEvT_S3_(%"struct.std::pair"* %0, %"struct.std::pair"* %1)
  ret void
}

; Function Attrs: noinline uwtable
define linkonce_odr void @_ZNSt6vectorISt4pairIiiESaIS1_EE18_M_fill_initializeEmRKS1_(%"class.std::vector"* %0, i64 %1, %"struct.std::pair"* dereferenceable(8) %2) #0 comdat align 2 {
  %4 = bitcast %"class.std::vector"* %0 to %"struct.std::_Vector_base"*
  %5 = getelementptr inbounds %"struct.std::_Vector_base", %"struct.std::_Vector_base"* %4, i32 0, i32 0
  %6 = getelementptr inbounds %"struct.std::_Vector_base<std::pair<int, int>, std::allocator<std::pair<int, int> > >::_Vector_impl", %"struct.std::_Vector_base<std::pair<int, int>, std::allocator<std::pair<int, int> > >::_Vector_impl"* %5, i32 0, i32 0
  %7 = load %"struct.std::pair"*, %"struct.std::pair"** %6, align 8
  %8 = bitcast %"class.std::vector"* %0 to %"struct.std::_Vector_base"*
  %9 = call dereferenceable(1) %"class.std::allocator"* @_ZNSt12_Vector_baseISt4pairIiiESaIS1_EE19_M_get_Tp_allocatorEv(%"struct.std::_Vector_base"* %8) #3
  %10 = call %"struct.std::pair"* @_ZSt24__uninitialized_fill_n_aIPSt4pairIiiEmS1_S1_ET_S3_T0_RKT1_RSaIT2_E(%"struct.std::pair"* %7, i64 %1, %"struct.std::pair"* dereferenceable(8) %2, %"class.std::allocator"* dereferenceable(1) %9)
  %11 = bitcast %"class.std::vector"* %0 to %"struct.std::_Vector_base"*
  %12 = getelementptr inbounds %"struct.std::_Vector_base", %"struct.std::_Vector_base"* %11, i32 0, i32 0
  %13 = getelementptr inbounds %"struct.std::_Vector_base<std::pair<int, int>, std::allocator<std::pair<int, int> > >::_Vector_impl", %"struct.std::_Vector_base<std::pair<int, int>, std::allocator<std::pair<int, int> > >::_Vector_impl"* %12, i32 0, i32 1
  store %"struct.std::pair"* %10, %"struct.std::pair"** %13, align 8
  ret void
}

; Function Attrs: noinline uwtable
define linkonce_odr %"struct.std::pair"* @_ZSt24__uninitialized_fill_n_aIPSt4pairIiiEmS1_S1_ET_S3_T0_RKT1_RSaIT2_E(%"struct.std::pair"* %0, i64 %1, %"struct.std::pair"* dereferenceable(8) %2, %"class.std::allocator"* dereferenceable(1) %3) #0 comdat {
  %5 = call %"struct.std::pair"* @_ZSt20uninitialized_fill_nIPSt4pairIiiEmS1_ET_S3_T0_RKT1_(%"struct.std::pair"* %0, i64 %1, %"struct.std::pair"* dereferenceable(8) %2)
  ret %"struct.std::pair"* %5
}

; Function Attrs: noinline uwtable
define linkonce_odr %"struct.std::pair"* @_ZSt20uninitialized_fill_nIPSt4pairIiiEmS1_ET_S3_T0_RKT1_(%"struct.std::pair"* %0, i64 %1, %"struct.std::pair"* dereferenceable(8) %2) #0 comdat {
  %4 = call %"struct.std::pair"* @_ZNSt22__uninitialized_fill_nILb0EE15__uninit_fill_nIPSt4pairIiiEmS3_EET_S5_T0_RKT1_(%"struct.std::pair"* %0, i64 %1, %"struct.std::pair"* dereferenceable(8) %2)
  ret %"struct.std::pair"* %4
}

; Function Attrs: noinline uwtable
define linkonce_odr %"struct.std::pair"* @_ZNSt22__uninitialized_fill_nILb0EE15__uninit_fill_nIPSt4pairIiiEmS3_EET_S5_T0_RKT1_(%"struct.std::pair"* %0, i64 %1, %"struct.std::pair"* dereferenceable(8) %2) #0 comdat align 2 personality i8* bitcast (i32 (...)* @__gxx_personality_v0 to i8*) {
  br label %4

4:                                                ; preds = %9, %3
  %.01 = phi %"struct.std::pair"* [ %0, %3 ], [ %11, %9 ]
  %.0 = phi i64 [ %1, %3 ], [ %10, %9 ]
  %5 = icmp ugt i64 %.0, 0
  br i1 %5, label %6, label %19

6:                                                ; preds = %4
  %7 = call %"struct.std::pair"* @_ZSt11__addressofISt4pairIiiEEPT_RS2_(%"struct.std::pair"* dereferenceable(8) %.01) #3
  invoke void @_ZSt10_ConstructISt4pairIiiEJRKS1_EEvPT_DpOT0_(%"struct.std::pair"* %7, %"struct.std::pair"* dereferenceable(8) %2)
          to label %8 unwind label %12

8:                                                ; preds = %6
  br label %9

9:                                                ; preds = %8
  %10 = add i64 %.0, -1
  %11 = getelementptr inbounds %"struct.std::pair", %"struct.std::pair"* %.01, i32 1
  br label %4

12:                                               ; preds = %6
  %13 = landingpad { i8*, i32 }
          catch i8* null
  %14 = extractvalue { i8*, i32 } %13, 0
  %15 = extractvalue { i8*, i32 } %13, 1
  br label %16

16:                                               ; preds = %12
  %17 = call i8* @__cxa_begin_catch(i8* %14) #3
  invoke void @_ZSt8_DestroyIPSt4pairIiiEEvT_S3_(%"struct.std::pair"* %0, %"struct.std::pair"* %.01)
          to label %18 unwind label %20

18:                                               ; preds = %16
  invoke void @__cxa_rethrow() #13
          to label %32 unwind label %20

19:                                               ; preds = %4
  ret %"struct.std::pair"* %.01

20:                                               ; preds = %18, %16
  %21 = landingpad { i8*, i32 }
          cleanup
  %22 = extractvalue { i8*, i32 } %21, 0
  %23 = extractvalue { i8*, i32 } %21, 1
  invoke void @__cxa_end_catch()
          to label %24 unwind label %29

24:                                               ; preds = %20
  br label %26

25:                                               ; No predecessors!
  call void @llvm.trap()
  unreachable

26:                                               ; preds = %24
  %27 = insertvalue { i8*, i32 } undef, i8* %22, 0
  %28 = insertvalue { i8*, i32 } %27, i32 %23, 1
  resume { i8*, i32 } %28

29:                                               ; preds = %20
  %30 = landingpad { i8*, i32 }
          catch i8* null
  %31 = extractvalue { i8*, i32 } %30, 0
  call void @__clang_call_terminate(i8* %31) #12
  unreachable

32:                                               ; preds = %18
  unreachable
}

; Function Attrs: noinline nounwind uwtable
define linkonce_odr void @_ZSt10_ConstructISt4pairIiiEJRKS1_EEvPT_DpOT0_(%"struct.std::pair"* %0, %"struct.std::pair"* dereferenceable(8) %1) #5 comdat {
  %3 = bitcast %"struct.std::pair"* %0 to i8*
  %4 = bitcast i8* %3 to %"struct.std::pair"*
  %5 = call dereferenceable(8) %"struct.std::pair"* @_ZSt7forwardIRKSt4pairIiiEEOT_RNSt16remove_referenceIS4_E4typeE(%"struct.std::pair"* dereferenceable(8) %1) #3
  %6 = bitcast %"struct.std::pair"* %4 to i8*
  %7 = bitcast %"struct.std::pair"* %5 to i8*
  call void @llvm.memcpy.p0i8.p0i8.i64(i8* align 4 %6, i8* align 4 %7, i64 8, i1 false)
  ret void
}

; Function Attrs: noinline nounwind uwtable
define linkonce_odr dereferenceable(8) %"struct.std::pair"* @_ZSt7forwardIRKSt4pairIiiEEOT_RNSt16remove_referenceIS4_E4typeE(%"struct.std::pair"* dereferenceable(8) %0) #5 comdat {
  ret %"struct.std::pair"* %0
}

; Function Attrs: noinline nounwind uwtable
define linkonce_odr void @_ZN9__gnu_cxx13new_allocatorISt6vectorI5EventSaIS2_EEEC2Ev(%"class.__gnu_cxx::new_allocator.3"* %0) unnamed_addr #5 comdat align 2 {
  ret void
}

; Function Attrs: noinline nounwind uwtable
define linkonce_odr void @_ZN9__gnu_cxx13new_allocatorISt6vectorI5EventSaIS2_EEED2Ev(%"class.__gnu_cxx::new_allocator.3"* %0) unnamed_addr #5 comdat align 2 {
  ret void
}

; Function Attrs: noinline uwtable
define linkonce_odr void @_ZNSt12_Vector_baseISt6vectorI5EventSaIS1_EESaIS3_EEC2EmRKS4_(%"struct.std::_Vector_base.1"* %0, i64 %1, %"class.std::allocator.2"* dereferenceable(1) %2) unnamed_addr #0 comdat align 2 personality i8* bitcast (i32 (...)* @__gxx_personality_v0 to i8*) {
  %4 = getelementptr inbounds %"struct.std::_Vector_base.1", %"struct.std::_Vector_base.1"* %0, i32 0, i32 0
  call void @_ZNSt12_Vector_baseISt6vectorI5EventSaIS1_EESaIS3_EE12_Vector_implC2ERKS4_(%"struct.std::_Vector_base<std::vector<Event, std::allocator<Event> >, std::allocator<std::vector<Event, std::allocator<Event> > > >::_Vector_impl"* %4, %"class.std::allocator.2"* dereferenceable(1) %2) #3
  invoke void @_ZNSt12_Vector_baseISt6vectorI5EventSaIS1_EESaIS3_EE17_M_create_storageEm(%"struct.std::_Vector_base.1"* %0, i64 %1)
          to label %5 unwind label %6

5:                                                ; preds = %3
  ret void

6:                                                ; preds = %3
  %7 = landingpad { i8*, i32 }
          cleanup
  %8 = extractvalue { i8*, i32 } %7, 0
  %9 = extractvalue { i8*, i32 } %7, 1
  call void @_ZNSt12_Vector_baseISt6vectorI5EventSaIS1_EESaIS3_EE12_Vector_implD2Ev(%"struct.std::_Vector_base<std::vector<Event, std::allocator<Event> >, std::allocator<std::vector<Event, std::allocator<Event> > > >::_Vector_impl"* %4) #3
  br label %10

10:                                               ; preds = %6
  %11 = insertvalue { i8*, i32 } undef, i8* %8, 0
  %12 = insertvalue { i8*, i32 } %11, i32 %9, 1
  resume { i8*, i32 } %12
}

; Function Attrs: noinline uwtable
define linkonce_odr void @_ZNSt6vectorIS_I5EventSaIS0_EESaIS2_EE21_M_default_initializeEm(%"class.std::vector.0"* %0, i64 %1) #0 comdat align 2 {
  %3 = bitcast %"class.std::vector.0"* %0 to %"struct.std::_Vector_base.1"*
  %4 = getelementptr inbounds %"struct.std::_Vector_base.1", %"struct.std::_Vector_base.1"* %3, i32 0, i32 0
  %5 = getelementptr inbounds %"struct.std::_Vector_base<std::vector<Event, std::allocator<Event> >, std::allocator<std::vector<Event, std::allocator<Event> > > >::_Vector_impl", %"struct.std::_Vector_base<std::vector<Event, std::allocator<Event> >, std::allocator<std::vector<Event, std::allocator<Event> > > >::_Vector_impl"* %4, i32 0, i32 0
  %6 = load %"class.std::vector.5"*, %"class.std::vector.5"** %5, align 8
  %7 = bitcast %"class.std::vector.0"* %0 to %"struct.std::_Vector_base.1"*
  %8 = call dereferenceable(1) %"class.std::allocator.2"* @_ZNSt12_Vector_baseISt6vectorI5EventSaIS1_EESaIS3_EE19_M_get_Tp_allocatorEv(%"struct.std::_Vector_base.1"* %7) #3
  %9 = call %"class.std::vector.5"* @_ZSt27__uninitialized_default_n_aIPSt6vectorI5EventSaIS1_EEmS3_ET_S5_T0_RSaIT1_E(%"class.std::vector.5"* %6, i64 %1, %"class.std::allocator.2"* dereferenceable(1) %8)
  %10 = bitcast %"class.std::vector.0"* %0 to %"struct.std::_Vector_base.1"*
  %11 = getelementptr inbounds %"struct.std::_Vector_base.1", %"struct.std::_Vector_base.1"* %10, i32 0, i32 0
  %12 = getelementptr inbounds %"struct.std::_Vector_base<std::vector<Event, std::allocator<Event> >, std::allocator<std::vector<Event, std::allocator<Event> > > >::_Vector_impl", %"struct.std::_Vector_base<std::vector<Event, std::allocator<Event> >, std::allocator<std::vector<Event, std::allocator<Event> > > >::_Vector_impl"* %11, i32 0, i32 1
  store %"class.std::vector.5"* %9, %"class.std::vector.5"** %12, align 8
  ret void
}

; Function Attrs: noinline nounwind uwtable
define linkonce_odr void @_ZNSt12_Vector_baseISt6vectorI5EventSaIS1_EESaIS3_EED2Ev(%"struct.std::_Vector_base.1"* %0) unnamed_addr #5 comdat align 2 personality i8* bitcast (i32 (...)* @__gxx_personality_v0 to i8*) {
  %2 = getelementptr inbounds %"struct.std::_Vector_base.1", %"struct.std::_Vector_base.1"* %0, i32 0, i32 0
  %3 = getelementptr inbounds %"struct.std::_Vector_base<std::vector<Event, std::allocator<Event> >, std::allocator<std::vector<Event, std::allocator<Event> > > >::_Vector_impl", %"struct.std::_Vector_base<std::vector<Event, std::allocator<Event> >, std::allocator<std::vector<Event, std::allocator<Event> > > >::_Vector_impl"* %2, i32 0, i32 0
  %4 = load %"class.std::vector.5"*, %"class.std::vector.5"** %3, align 8
  %5 = getelementptr inbounds %"struct.std::_Vector_base.1", %"struct.std::_Vector_base.1"* %0, i32 0, i32 0
  %6 = getelementptr inbounds %"struct.std::_Vector_base<std::vector<Event, std::allocator<Event> >, std::allocator<std::vector<Event, std::allocator<Event> > > >::_Vector_impl", %"struct.std::_Vector_base<std::vector<Event, std::allocator<Event> >, std::allocator<std::vector<Event, std::allocator<Event> > > >::_Vector_impl"* %5, i32 0, i32 2
  %7 = load %"class.std::vector.5"*, %"class.std::vector.5"** %6, align 8
  %8 = getelementptr inbounds %"struct.std::_Vector_base.1", %"struct.std::_Vector_base.1"* %0, i32 0, i32 0
  %9 = getelementptr inbounds %"struct.std::_Vector_base<std::vector<Event, std::allocator<Event> >, std::allocator<std::vector<Event, std::allocator<Event> > > >::_Vector_impl", %"struct.std::_Vector_base<std::vector<Event, std::allocator<Event> >, std::allocator<std::vector<Event, std::allocator<Event> > > >::_Vector_impl"* %8, i32 0, i32 0
  %10 = load %"class.std::vector.5"*, %"class.std::vector.5"** %9, align 8
  %11 = ptrtoint %"class.std::vector.5"* %7 to i64
  %12 = ptrtoint %"class.std::vector.5"* %10 to i64
  %13 = sub i64 %11, %12
  %14 = sdiv exact i64 %13, 24
  invoke void @_ZNSt12_Vector_baseISt6vectorI5EventSaIS1_EESaIS3_EE13_M_deallocateEPS3_m(%"struct.std::_Vector_base.1"* %0, %"class.std::vector.5"* %4, i64 %14)
          to label %15 unwind label %17

15:                                               ; preds = %1
  %16 = getelementptr inbounds %"struct.std::_Vector_base.1", %"struct.std::_Vector_base.1"* %0, i32 0, i32 0
  call void @_ZNSt12_Vector_baseISt6vectorI5EventSaIS1_EESaIS3_EE12_Vector_implD2Ev(%"struct.std::_Vector_base<std::vector<Event, std::allocator<Event> >, std::allocator<std::vector<Event, std::allocator<Event> > > >::_Vector_impl"* %16) #3
  ret void

17:                                               ; preds = %1
  %18 = landingpad { i8*, i32 }
          catch i8* null
  %19 = extractvalue { i8*, i32 } %18, 0
  %20 = extractvalue { i8*, i32 } %18, 1
  %21 = getelementptr inbounds %"struct.std::_Vector_base.1", %"struct.std::_Vector_base.1"* %0, i32 0, i32 0
  call void @_ZNSt12_Vector_baseISt6vectorI5EventSaIS1_EESaIS3_EE12_Vector_implD2Ev(%"struct.std::_Vector_base<std::vector<Event, std::allocator<Event> >, std::allocator<std::vector<Event, std::allocator<Event> > > >::_Vector_impl"* %21) #3
  br label %22

22:                                               ; preds = %17
  call void @__clang_call_terminate(i8* %19) #12
  unreachable
}

; Function Attrs: noinline nounwind uwtable
define linkonce_odr void @_ZNSt12_Vector_baseISt6vectorI5EventSaIS1_EESaIS3_EE12_Vector_implC2ERKS4_(%"struct.std::_Vector_base<std::vector<Event, std::allocator<Event> >, std::allocator<std::vector<Event, std::allocator<Event> > > >::_Vector_impl"* %0, %"class.std::allocator.2"* dereferenceable(1) %1) unnamed_addr #5 comdat align 2 {
  %3 = bitcast %"struct.std::_Vector_base<std::vector<Event, std::allocator<Event> >, std::allocator<std::vector<Event, std::allocator<Event> > > >::_Vector_impl"* %0 to %"class.std::allocator.2"*
  call void @_ZNSaISt6vectorI5EventSaIS0_EEEC2ERKS3_(%"class.std::allocator.2"* %3, %"class.std::allocator.2"* dereferenceable(1) %1) #3
  %4 = getelementptr inbounds %"struct.std::_Vector_base<std::vector<Event, std::allocator<Event> >, std::allocator<std::vector<Event, std::allocator<Event> > > >::_Vector_impl", %"struct.std::_Vector_base<std::vector<Event, std::allocator<Event> >, std::allocator<std::vector<Event, std::allocator<Event> > > >::_Vector_impl"* %0, i32 0, i32 0
  store %"class.std::vector.5"* null, %"class.std::vector.5"** %4, align 8
  %5 = getelementptr inbounds %"struct.std::_Vector_base<std::vector<Event, std::allocator<Event> >, std::allocator<std::vector<Event, std::allocator<Event> > > >::_Vector_impl", %"struct.std::_Vector_base<std::vector<Event, std::allocator<Event> >, std::allocator<std::vector<Event, std::allocator<Event> > > >::_Vector_impl"* %0, i32 0, i32 1
  store %"class.std::vector.5"* null, %"class.std::vector.5"** %5, align 8
  %6 = getelementptr inbounds %"struct.std::_Vector_base<std::vector<Event, std::allocator<Event> >, std::allocator<std::vector<Event, std::allocator<Event> > > >::_Vector_impl", %"struct.std::_Vector_base<std::vector<Event, std::allocator<Event> >, std::allocator<std::vector<Event, std::allocator<Event> > > >::_Vector_impl"* %0, i32 0, i32 2
  store %"class.std::vector.5"* null, %"class.std::vector.5"** %6, align 8
  ret void
}

; Function Attrs: noinline uwtable
define linkonce_odr void @_ZNSt12_Vector_baseISt6vectorI5EventSaIS1_EESaIS3_EE17_M_create_storageEm(%"struct.std::_Vector_base.1"* %0, i64 %1) #0 comdat align 2 {
  %3 = call %"class.std::vector.5"* @_ZNSt12_Vector_baseISt6vectorI5EventSaIS1_EESaIS3_EE11_M_allocateEm(%"struct.std::_Vector_base.1"* %0, i64 %1)
  %4 = getelementptr inbounds %"struct.std::_Vector_base.1", %"struct.std::_Vector_base.1"* %0, i32 0, i32 0
  %5 = getelementptr inbounds %"struct.std::_Vector_base<std::vector<Event, std::allocator<Event> >, std::allocator<std::vector<Event, std::allocator<Event> > > >::_Vector_impl", %"struct.std::_Vector_base<std::vector<Event, std::allocator<Event> >, std::allocator<std::vector<Event, std::allocator<Event> > > >::_Vector_impl"* %4, i32 0, i32 0
  store %"class.std::vector.5"* %3, %"class.std::vector.5"** %5, align 8
  %6 = getelementptr inbounds %"struct.std::_Vector_base.1", %"struct.std::_Vector_base.1"* %0, i32 0, i32 0
  %7 = getelementptr inbounds %"struct.std::_Vector_base<std::vector<Event, std::allocator<Event> >, std::allocator<std::vector<Event, std::allocator<Event> > > >::_Vector_impl", %"struct.std::_Vector_base<std::vector<Event, std::allocator<Event> >, std::allocator<std::vector<Event, std::allocator<Event> > > >::_Vector_impl"* %6, i32 0, i32 0
  %8 = load %"class.std::vector.5"*, %"class.std::vector.5"** %7, align 8
  %9 = getelementptr inbounds %"struct.std::_Vector_base.1", %"struct.std::_Vector_base.1"* %0, i32 0, i32 0
  %10 = getelementptr inbounds %"struct.std::_Vector_base<std::vector<Event, std::allocator<Event> >, std::allocator<std::vector<Event, std::allocator<Event> > > >::_Vector_impl", %"struct.std::_Vector_base<std::vector<Event, std::allocator<Event> >, std::allocator<std::vector<Event, std::allocator<Event> > > >::_Vector_impl"* %9, i32 0, i32 1
  store %"class.std::vector.5"* %8, %"class.std::vector.5"** %10, align 8
  %11 = getelementptr inbounds %"struct.std::_Vector_base.1", %"struct.std::_Vector_base.1"* %0, i32 0, i32 0
  %12 = getelementptr inbounds %"struct.std::_Vector_base<std::vector<Event, std::allocator<Event> >, std::allocator<std::vector<Event, std::allocator<Event> > > >::_Vector_impl", %"struct.std::_Vector_base<std::vector<Event, std::allocator<Event> >, std::allocator<std::vector<Event, std::allocator<Event> > > >::_Vector_impl"* %11, i32 0, i32 0
  %13 = load %"class.std::vector.5"*, %"class.std::vector.5"** %12, align 8
  %14 = getelementptr inbounds %"class.std::vector.5", %"class.std::vector.5"* %13, i64 %1
  %15 = getelementptr inbounds %"struct.std::_Vector_base.1", %"struct.std::_Vector_base.1"* %0, i32 0, i32 0
  %16 = getelementptr inbounds %"struct.std::_Vector_base<std::vector<Event, std::allocator<Event> >, std::allocator<std::vector<Event, std::allocator<Event> > > >::_Vector_impl", %"struct.std::_Vector_base<std::vector<Event, std::allocator<Event> >, std::allocator<std::vector<Event, std::allocator<Event> > > >::_Vector_impl"* %15, i32 0, i32 2
  store %"class.std::vector.5"* %14, %"class.std::vector.5"** %16, align 8
  ret void
}

; Function Attrs: noinline nounwind uwtable
define linkonce_odr void @_ZNSt12_Vector_baseISt6vectorI5EventSaIS1_EESaIS3_EE12_Vector_implD2Ev(%"struct.std::_Vector_base<std::vector<Event, std::allocator<Event> >, std::allocator<std::vector<Event, std::allocator<Event> > > >::_Vector_impl"* %0) unnamed_addr #5 comdat align 2 {
  %2 = bitcast %"struct.std::_Vector_base<std::vector<Event, std::allocator<Event> >, std::allocator<std::vector<Event, std::allocator<Event> > > >::_Vector_impl"* %0 to %"class.std::allocator.2"*
  call void @_ZNSaISt6vectorI5EventSaIS0_EEED2Ev(%"class.std::allocator.2"* %2) #3
  ret void
}

; Function Attrs: noinline nounwind uwtable
define linkonce_odr void @_ZNSaISt6vectorI5EventSaIS0_EEEC2ERKS3_(%"class.std::allocator.2"* %0, %"class.std::allocator.2"* dereferenceable(1) %1) unnamed_addr #5 comdat align 2 {
  %3 = bitcast %"class.std::allocator.2"* %0 to %"class.__gnu_cxx::new_allocator.3"*
  %4 = bitcast %"class.std::allocator.2"* %1 to %"class.__gnu_cxx::new_allocator.3"*
  call void @_ZN9__gnu_cxx13new_allocatorISt6vectorI5EventSaIS2_EEEC2ERKS5_(%"class.__gnu_cxx::new_allocator.3"* %3, %"class.__gnu_cxx::new_allocator.3"* dereferenceable(1) %4) #3
  ret void
}

; Function Attrs: noinline nounwind uwtable
define linkonce_odr void @_ZN9__gnu_cxx13new_allocatorISt6vectorI5EventSaIS2_EEEC2ERKS5_(%"class.__gnu_cxx::new_allocator.3"* %0, %"class.__gnu_cxx::new_allocator.3"* dereferenceable(1) %1) unnamed_addr #5 comdat align 2 {
  ret void
}

; Function Attrs: noinline uwtable
define linkonce_odr %"class.std::vector.5"* @_ZNSt12_Vector_baseISt6vectorI5EventSaIS1_EESaIS3_EE11_M_allocateEm(%"struct.std::_Vector_base.1"* %0, i64 %1) #0 comdat align 2 {
  %3 = icmp ne i64 %1, 0
  br i1 %3, label %4, label %8

4:                                                ; preds = %2
  %5 = getelementptr inbounds %"struct.std::_Vector_base.1", %"struct.std::_Vector_base.1"* %0, i32 0, i32 0
  %6 = bitcast %"struct.std::_Vector_base<std::vector<Event, std::allocator<Event> >, std::allocator<std::vector<Event, std::allocator<Event> > > >::_Vector_impl"* %5 to %"class.std::allocator.2"*
  %7 = call %"class.std::vector.5"* @_ZNSt16allocator_traitsISaISt6vectorI5EventSaIS1_EEEE8allocateERS4_m(%"class.std::allocator.2"* dereferenceable(1) %6, i64 %1)
  br label %9

8:                                                ; preds = %2
  br label %9

9:                                                ; preds = %8, %4
  %10 = phi %"class.std::vector.5"* [ %7, %4 ], [ null, %8 ]
  ret %"class.std::vector.5"* %10
}

; Function Attrs: noinline uwtable
define linkonce_odr %"class.std::vector.5"* @_ZNSt16allocator_traitsISaISt6vectorI5EventSaIS1_EEEE8allocateERS4_m(%"class.std::allocator.2"* dereferenceable(1) %0, i64 %1) #0 comdat align 2 {
  %3 = bitcast %"class.std::allocator.2"* %0 to %"class.__gnu_cxx::new_allocator.3"*
  %4 = call %"class.std::vector.5"* @_ZN9__gnu_cxx13new_allocatorISt6vectorI5EventSaIS2_EEE8allocateEmPKv(%"class.__gnu_cxx::new_allocator.3"* %3, i64 %1, i8* null)
  ret %"class.std::vector.5"* %4
}

; Function Attrs: noinline uwtable
define linkonce_odr %"class.std::vector.5"* @_ZN9__gnu_cxx13new_allocatorISt6vectorI5EventSaIS2_EEE8allocateEmPKv(%"class.__gnu_cxx::new_allocator.3"* %0, i64 %1, i8* %2) #0 comdat align 2 {
  %4 = call i64 @_ZNK9__gnu_cxx13new_allocatorISt6vectorI5EventSaIS2_EEE8max_sizeEv(%"class.__gnu_cxx::new_allocator.3"* %0) #3
  %5 = icmp ugt i64 %1, %4
  br i1 %5, label %6, label %7

6:                                                ; preds = %3
  call void @_ZSt17__throw_bad_allocv() #13
  unreachable

7:                                                ; preds = %3
  %8 = mul i64 %1, 24
  %9 = call i8* @_Znwm(i64 %8)
  %10 = bitcast i8* %9 to %"class.std::vector.5"*
  ret %"class.std::vector.5"* %10
}

; Function Attrs: noinline nounwind uwtable
define linkonce_odr i64 @_ZNK9__gnu_cxx13new_allocatorISt6vectorI5EventSaIS2_EEE8max_sizeEv(%"class.__gnu_cxx::new_allocator.3"* %0) #5 comdat align 2 {
  ret i64 768614336404564650
}

; Function Attrs: noinline uwtable
define linkonce_odr %"class.std::vector.5"* @_ZSt27__uninitialized_default_n_aIPSt6vectorI5EventSaIS1_EEmS3_ET_S5_T0_RSaIT1_E(%"class.std::vector.5"* %0, i64 %1, %"class.std::allocator.2"* dereferenceable(1) %2) #0 comdat {
  %4 = call %"class.std::vector.5"* @_ZSt25__uninitialized_default_nIPSt6vectorI5EventSaIS1_EEmET_S5_T0_(%"class.std::vector.5"* %0, i64 %1)
  ret %"class.std::vector.5"* %4
}

; Function Attrs: noinline nounwind uwtable
define linkonce_odr dereferenceable(1) %"class.std::allocator.2"* @_ZNSt12_Vector_baseISt6vectorI5EventSaIS1_EESaIS3_EE19_M_get_Tp_allocatorEv(%"struct.std::_Vector_base.1"* %0) #5 comdat align 2 {
  %2 = getelementptr inbounds %"struct.std::_Vector_base.1", %"struct.std::_Vector_base.1"* %0, i32 0, i32 0
  %3 = bitcast %"struct.std::_Vector_base<std::vector<Event, std::allocator<Event> >, std::allocator<std::vector<Event, std::allocator<Event> > > >::_Vector_impl"* %2 to %"class.std::allocator.2"*
  ret %"class.std::allocator.2"* %3
}

; Function Attrs: noinline uwtable
define linkonce_odr %"class.std::vector.5"* @_ZSt25__uninitialized_default_nIPSt6vectorI5EventSaIS1_EEmET_S5_T0_(%"class.std::vector.5"* %0, i64 %1) #0 comdat {
  %3 = call %"class.std::vector.5"* @_ZNSt27__uninitialized_default_n_1ILb0EE18__uninit_default_nIPSt6vectorI5EventSaIS3_EEmEET_S7_T0_(%"class.std::vector.5"* %0, i64 %1)
  ret %"class.std::vector.5"* %3
}

; Function Attrs: noinline uwtable
define linkonce_odr %"class.std::vector.5"* @_ZNSt27__uninitialized_default_n_1ILb0EE18__uninit_default_nIPSt6vectorI5EventSaIS3_EEmEET_S7_T0_(%"class.std::vector.5"* %0, i64 %1) #0 comdat align 2 personality i8* bitcast (i32 (...)* @__gxx_personality_v0 to i8*) {
  br label %3

3:                                                ; preds = %8, %2
  %.01 = phi %"class.std::vector.5"* [ %0, %2 ], [ %10, %8 ]
  %.0 = phi i64 [ %1, %2 ], [ %9, %8 ]
  %4 = icmp ugt i64 %.0, 0
  br i1 %4, label %5, label %18

5:                                                ; preds = %3
  %6 = call %"class.std::vector.5"* @_ZSt11__addressofISt6vectorI5EventSaIS1_EEEPT_RS4_(%"class.std::vector.5"* dereferenceable(24) %.01) #3
  invoke void @_ZSt10_ConstructISt6vectorI5EventSaIS1_EEJEEvPT_DpOT0_(%"class.std::vector.5"* %6)
          to label %7 unwind label %11

7:                                                ; preds = %5
  br label %8

8:                                                ; preds = %7
  %9 = add i64 %.0, -1
  %10 = getelementptr inbounds %"class.std::vector.5", %"class.std::vector.5"* %.01, i32 1
  br label %3

11:                                               ; preds = %5
  %12 = landingpad { i8*, i32 }
          catch i8* null
  %13 = extractvalue { i8*, i32 } %12, 0
  %14 = extractvalue { i8*, i32 } %12, 1
  br label %15

15:                                               ; preds = %11
  %16 = call i8* @__cxa_begin_catch(i8* %13) #3
  invoke void @_ZSt8_DestroyIPSt6vectorI5EventSaIS1_EEEvT_S5_(%"class.std::vector.5"* %0, %"class.std::vector.5"* %.01)
          to label %17 unwind label %19

17:                                               ; preds = %15
  invoke void @__cxa_rethrow() #13
          to label %31 unwind label %19

18:                                               ; preds = %3
  ret %"class.std::vector.5"* %.01

19:                                               ; preds = %17, %15
  %20 = landingpad { i8*, i32 }
          cleanup
  %21 = extractvalue { i8*, i32 } %20, 0
  %22 = extractvalue { i8*, i32 } %20, 1
  invoke void @__cxa_end_catch()
          to label %23 unwind label %28

23:                                               ; preds = %19
  br label %25

24:                                               ; No predecessors!
  call void @llvm.trap()
  unreachable

25:                                               ; preds = %23
  %26 = insertvalue { i8*, i32 } undef, i8* %21, 0
  %27 = insertvalue { i8*, i32 } %26, i32 %22, 1
  resume { i8*, i32 } %27

28:                                               ; preds = %19
  %29 = landingpad { i8*, i32 }
          catch i8* null
  %30 = extractvalue { i8*, i32 } %29, 0
  call void @__clang_call_terminate(i8* %30) #12
  unreachable

31:                                               ; preds = %17
  unreachable
}

; Function Attrs: noinline nounwind uwtable
define linkonce_odr void @_ZSt10_ConstructISt6vectorI5EventSaIS1_EEJEEvPT_DpOT0_(%"class.std::vector.5"* %0) #5 comdat {
  %2 = bitcast %"class.std::vector.5"* %0 to i8*
  %3 = bitcast i8* %2 to %"class.std::vector.5"*
  call void @_ZNSt6vectorI5EventSaIS0_EEC2Ev(%"class.std::vector.5"* %3) #3
  ret void
}

; Function Attrs: noinline nounwind uwtable
define linkonce_odr %"class.std::vector.5"* @_ZSt11__addressofISt6vectorI5EventSaIS1_EEEPT_RS4_(%"class.std::vector.5"* dereferenceable(24) %0) #5 comdat {
  ret %"class.std::vector.5"* %0
}

; Function Attrs: noinline uwtable
define linkonce_odr void @_ZSt8_DestroyIPSt6vectorI5EventSaIS1_EEEvT_S5_(%"class.std::vector.5"* %0, %"class.std::vector.5"* %1) #0 comdat {
  call void @_ZNSt12_Destroy_auxILb0EE9__destroyIPSt6vectorI5EventSaIS3_EEEEvT_S7_(%"class.std::vector.5"* %0, %"class.std::vector.5"* %1)
  ret void
}

; Function Attrs: noinline nounwind uwtable
define linkonce_odr void @_ZNSt6vectorI5EventSaIS0_EEC2Ev(%"class.std::vector.5"* %0) unnamed_addr #5 comdat align 2 personality i8* bitcast (i32 (...)* @__gxx_personality_v0 to i8*) {
  %2 = bitcast %"class.std::vector.5"* %0 to %"struct.std::_Vector_base.6"*
  invoke void @_ZNSt12_Vector_baseI5EventSaIS0_EEC2Ev(%"struct.std::_Vector_base.6"* %2)
          to label %3 unwind label %4

3:                                                ; preds = %1
  ret void

4:                                                ; preds = %1
  %5 = landingpad { i8*, i32 }
          catch i8* null
  %6 = extractvalue { i8*, i32 } %5, 0
  call void @__clang_call_terminate(i8* %6) #12
  unreachable
}

; Function Attrs: noinline uwtable
define linkonce_odr void @_ZNSt12_Vector_baseI5EventSaIS0_EEC2Ev(%"struct.std::_Vector_base.6"* %0) unnamed_addr #0 comdat align 2 {
  %2 = getelementptr inbounds %"struct.std::_Vector_base.6", %"struct.std::_Vector_base.6"* %0, i32 0, i32 0
  call void @_ZNSt12_Vector_baseI5EventSaIS0_EE12_Vector_implC2Ev(%"struct.std::_Vector_base<Event, std::allocator<Event> >::_Vector_impl"* %2)
  ret void
}

; Function Attrs: noinline nounwind uwtable
define linkonce_odr void @_ZNSt12_Vector_baseI5EventSaIS0_EE12_Vector_implC2Ev(%"struct.std::_Vector_base<Event, std::allocator<Event> >::_Vector_impl"* %0) unnamed_addr #5 comdat align 2 {
  %2 = bitcast %"struct.std::_Vector_base<Event, std::allocator<Event> >::_Vector_impl"* %0 to %"class.std::allocator.7"*
  call void @_ZNSaI5EventEC2Ev(%"class.std::allocator.7"* %2) #3
  %3 = getelementptr inbounds %"struct.std::_Vector_base<Event, std::allocator<Event> >::_Vector_impl", %"struct.std::_Vector_base<Event, std::allocator<Event> >::_Vector_impl"* %0, i32 0, i32 0
  store %struct.Event* null, %struct.Event** %3, align 8
  %4 = getelementptr inbounds %"struct.std::_Vector_base<Event, std::allocator<Event> >::_Vector_impl", %"struct.std::_Vector_base<Event, std::allocator<Event> >::_Vector_impl"* %0, i32 0, i32 1
  store %struct.Event* null, %struct.Event** %4, align 8
  %5 = getelementptr inbounds %"struct.std::_Vector_base<Event, std::allocator<Event> >::_Vector_impl", %"struct.std::_Vector_base<Event, std::allocator<Event> >::_Vector_impl"* %0, i32 0, i32 2
  store %struct.Event* null, %struct.Event** %5, align 8
  ret void
}

; Function Attrs: noinline nounwind uwtable
define linkonce_odr void @_ZNSaI5EventEC2Ev(%"class.std::allocator.7"* %0) unnamed_addr #5 comdat align 2 {
  %2 = bitcast %"class.std::allocator.7"* %0 to %"class.__gnu_cxx::new_allocator.8"*
  call void @_ZN9__gnu_cxx13new_allocatorI5EventEC2Ev(%"class.__gnu_cxx::new_allocator.8"* %2) #3
  ret void
}

; Function Attrs: noinline nounwind uwtable
define linkonce_odr void @_ZN9__gnu_cxx13new_allocatorI5EventEC2Ev(%"class.__gnu_cxx::new_allocator.8"* %0) unnamed_addr #5 comdat align 2 {
  ret void
}

; Function Attrs: noinline uwtable
define linkonce_odr void @_ZNSt12_Destroy_auxILb0EE9__destroyIPSt6vectorI5EventSaIS3_EEEEvT_S7_(%"class.std::vector.5"* %0, %"class.std::vector.5"* %1) #0 comdat align 2 {
  br label %3

3:                                                ; preds = %7, %2
  %.0 = phi %"class.std::vector.5"* [ %0, %2 ], [ %8, %7 ]
  %4 = icmp ne %"class.std::vector.5"* %.0, %1
  br i1 %4, label %5, label %9

5:                                                ; preds = %3
  %6 = call %"class.std::vector.5"* @_ZSt11__addressofISt6vectorI5EventSaIS1_EEEPT_RS4_(%"class.std::vector.5"* dereferenceable(24) %.0) #3
  call void @_ZSt8_DestroyISt6vectorI5EventSaIS1_EEEvPT_(%"class.std::vector.5"* %6)
  br label %7

7:                                                ; preds = %5
  %8 = getelementptr inbounds %"class.std::vector.5", %"class.std::vector.5"* %.0, i32 1
  br label %3

9:                                                ; preds = %3
  ret void
}

; Function Attrs: noinline nounwind uwtable
define linkonce_odr void @_ZSt8_DestroyISt6vectorI5EventSaIS1_EEEvPT_(%"class.std::vector.5"* %0) #5 comdat {
  call void @_ZNSt6vectorI5EventSaIS0_EED2Ev(%"class.std::vector.5"* %0) #3
  ret void
}

; Function Attrs: noinline nounwind uwtable
define linkonce_odr void @_ZNSt6vectorI5EventSaIS0_EED2Ev(%"class.std::vector.5"* %0) unnamed_addr #5 comdat align 2 personality i8* bitcast (i32 (...)* @__gxx_personality_v0 to i8*) {
  %2 = bitcast %"class.std::vector.5"* %0 to %"struct.std::_Vector_base.6"*
  %3 = getelementptr inbounds %"struct.std::_Vector_base.6", %"struct.std::_Vector_base.6"* %2, i32 0, i32 0
  %4 = getelementptr inbounds %"struct.std::_Vector_base<Event, std::allocator<Event> >::_Vector_impl", %"struct.std::_Vector_base<Event, std::allocator<Event> >::_Vector_impl"* %3, i32 0, i32 0
  %5 = load %struct.Event*, %struct.Event** %4, align 8
  %6 = bitcast %"class.std::vector.5"* %0 to %"struct.std::_Vector_base.6"*
  %7 = getelementptr inbounds %"struct.std::_Vector_base.6", %"struct.std::_Vector_base.6"* %6, i32 0, i32 0
  %8 = getelementptr inbounds %"struct.std::_Vector_base<Event, std::allocator<Event> >::_Vector_impl", %"struct.std::_Vector_base<Event, std::allocator<Event> >::_Vector_impl"* %7, i32 0, i32 1
  %9 = load %struct.Event*, %struct.Event** %8, align 8
  %10 = bitcast %"class.std::vector.5"* %0 to %"struct.std::_Vector_base.6"*
  %11 = call dereferenceable(1) %"class.std::allocator.7"* @_ZNSt12_Vector_baseI5EventSaIS0_EE19_M_get_Tp_allocatorEv(%"struct.std::_Vector_base.6"* %10) #3
  invoke void @_ZSt8_DestroyIP5EventS0_EvT_S2_RSaIT0_E(%struct.Event* %5, %struct.Event* %9, %"class.std::allocator.7"* dereferenceable(1) %11)
          to label %12 unwind label %14

12:                                               ; preds = %1
  %13 = bitcast %"class.std::vector.5"* %0 to %"struct.std::_Vector_base.6"*
  call void @_ZNSt12_Vector_baseI5EventSaIS0_EED2Ev(%"struct.std::_Vector_base.6"* %13) #3
  ret void

14:                                               ; preds = %1
  %15 = landingpad { i8*, i32 }
          catch i8* null
  %16 = extractvalue { i8*, i32 } %15, 0
  %17 = extractvalue { i8*, i32 } %15, 1
  %18 = bitcast %"class.std::vector.5"* %0 to %"struct.std::_Vector_base.6"*
  call void @_ZNSt12_Vector_baseI5EventSaIS0_EED2Ev(%"struct.std::_Vector_base.6"* %18) #3
  br label %19

19:                                               ; preds = %14
  call void @__clang_call_terminate(i8* %16) #12
  unreachable
}

; Function Attrs: noinline uwtable
define linkonce_odr void @_ZSt8_DestroyIP5EventS0_EvT_S2_RSaIT0_E(%struct.Event* %0, %struct.Event* %1, %"class.std::allocator.7"* dereferenceable(1) %2) #0 comdat {
  call void @_ZSt8_DestroyIP5EventEvT_S2_(%struct.Event* %0, %struct.Event* %1)
  ret void
}

; Function Attrs: noinline nounwind uwtable
define linkonce_odr dereferenceable(1) %"class.std::allocator.7"* @_ZNSt12_Vector_baseI5EventSaIS0_EE19_M_get_Tp_allocatorEv(%"struct.std::_Vector_base.6"* %0) #5 comdat align 2 {
  %2 = getelementptr inbounds %"struct.std::_Vector_base.6", %"struct.std::_Vector_base.6"* %0, i32 0, i32 0
  %3 = bitcast %"struct.std::_Vector_base<Event, std::allocator<Event> >::_Vector_impl"* %2 to %"class.std::allocator.7"*
  ret %"class.std::allocator.7"* %3
}

; Function Attrs: noinline nounwind uwtable
define linkonce_odr void @_ZNSt12_Vector_baseI5EventSaIS0_EED2Ev(%"struct.std::_Vector_base.6"* %0) unnamed_addr #5 comdat align 2 personality i8* bitcast (i32 (...)* @__gxx_personality_v0 to i8*) {
  %2 = getelementptr inbounds %"struct.std::_Vector_base.6", %"struct.std::_Vector_base.6"* %0, i32 0, i32 0
  %3 = getelementptr inbounds %"struct.std::_Vector_base<Event, std::allocator<Event> >::_Vector_impl", %"struct.std::_Vector_base<Event, std::allocator<Event> >::_Vector_impl"* %2, i32 0, i32 0
  %4 = load %struct.Event*, %struct.Event** %3, align 8
  %5 = getelementptr inbounds %"struct.std::_Vector_base.6", %"struct.std::_Vector_base.6"* %0, i32 0, i32 0
  %6 = getelementptr inbounds %"struct.std::_Vector_base<Event, std::allocator<Event> >::_Vector_impl", %"struct.std::_Vector_base<Event, std::allocator<Event> >::_Vector_impl"* %5, i32 0, i32 2
  %7 = load %struct.Event*, %struct.Event** %6, align 8
  %8 = getelementptr inbounds %"struct.std::_Vector_base.6", %"struct.std::_Vector_base.6"* %0, i32 0, i32 0
  %9 = getelementptr inbounds %"struct.std::_Vector_base<Event, std::allocator<Event> >::_Vector_impl", %"struct.std::_Vector_base<Event, std::allocator<Event> >::_Vector_impl"* %8, i32 0, i32 0
  %10 = load %struct.Event*, %struct.Event** %9, align 8
  %11 = ptrtoint %struct.Event* %7 to i64
  %12 = ptrtoint %struct.Event* %10 to i64
  %13 = sub i64 %11, %12
  %14 = sdiv exact i64 %13, 12
  invoke void @_ZNSt12_Vector_baseI5EventSaIS0_EE13_M_deallocateEPS0_m(%"struct.std::_Vector_base.6"* %0, %struct.Event* %4, i64 %14)
          to label %15 unwind label %17

15:                                               ; preds = %1
  %16 = getelementptr inbounds %"struct.std::_Vector_base.6", %"struct.std::_Vector_base.6"* %0, i32 0, i32 0
  call void @_ZNSt12_Vector_baseI5EventSaIS0_EE12_Vector_implD2Ev(%"struct.std::_Vector_base<Event, std::allocator<Event> >::_Vector_impl"* %16) #3
  ret void

17:                                               ; preds = %1
  %18 = landingpad { i8*, i32 }
          catch i8* null
  %19 = extractvalue { i8*, i32 } %18, 0
  %20 = extractvalue { i8*, i32 } %18, 1
  %21 = getelementptr inbounds %"struct.std::_Vector_base.6", %"struct.std::_Vector_base.6"* %0, i32 0, i32 0
  call void @_ZNSt12_Vector_baseI5EventSaIS0_EE12_Vector_implD2Ev(%"struct.std::_Vector_base<Event, std::allocator<Event> >::_Vector_impl"* %21) #3
  br label %22

22:                                               ; preds = %17
  call void @__clang_call_terminate(i8* %19) #12
  unreachable
}

; Function Attrs: noinline uwtable
define linkonce_odr void @_ZSt8_DestroyIP5EventEvT_S2_(%struct.Event* %0, %struct.Event* %1) #0 comdat {
  call void @_ZNSt12_Destroy_auxILb1EE9__destroyIP5EventEEvT_S4_(%struct.Event* %0, %struct.Event* %1)
  ret void
}

; Function Attrs: noinline nounwind uwtable
define linkonce_odr void @_ZNSt12_Destroy_auxILb1EE9__destroyIP5EventEEvT_S4_(%struct.Event* %0, %struct.Event* %1) #5 comdat align 2 {
  ret void
}

; Function Attrs: noinline uwtable
define linkonce_odr void @_ZNSt12_Vector_baseI5EventSaIS0_EE13_M_deallocateEPS0_m(%"struct.std::_Vector_base.6"* %0, %struct.Event* %1, i64 %2) #0 comdat align 2 {
  %4 = icmp ne %struct.Event* %1, null
  br i1 %4, label %5, label %8

5:                                                ; preds = %3
  %6 = getelementptr inbounds %"struct.std::_Vector_base.6", %"struct.std::_Vector_base.6"* %0, i32 0, i32 0
  %7 = bitcast %"struct.std::_Vector_base<Event, std::allocator<Event> >::_Vector_impl"* %6 to %"class.std::allocator.7"*
  call void @_ZNSt16allocator_traitsISaI5EventEE10deallocateERS1_PS0_m(%"class.std::allocator.7"* dereferenceable(1) %7, %struct.Event* %1, i64 %2)
  br label %8

8:                                                ; preds = %5, %3
  ret void
}

; Function Attrs: noinline nounwind uwtable
define linkonce_odr void @_ZNSt12_Vector_baseI5EventSaIS0_EE12_Vector_implD2Ev(%"struct.std::_Vector_base<Event, std::allocator<Event> >::_Vector_impl"* %0) unnamed_addr #5 comdat align 2 {
  %2 = bitcast %"struct.std::_Vector_base<Event, std::allocator<Event> >::_Vector_impl"* %0 to %"class.std::allocator.7"*
  call void @_ZNSaI5EventED2Ev(%"class.std::allocator.7"* %2) #3
  ret void
}

; Function Attrs: noinline uwtable
define linkonce_odr void @_ZNSt16allocator_traitsISaI5EventEE10deallocateERS1_PS0_m(%"class.std::allocator.7"* dereferenceable(1) %0, %struct.Event* %1, i64 %2) #0 comdat align 2 {
  %4 = bitcast %"class.std::allocator.7"* %0 to %"class.__gnu_cxx::new_allocator.8"*
  call void @_ZN9__gnu_cxx13new_allocatorI5EventE10deallocateEPS1_m(%"class.__gnu_cxx::new_allocator.8"* %4, %struct.Event* %1, i64 %2)
  ret void
}

; Function Attrs: noinline nounwind uwtable
define linkonce_odr void @_ZN9__gnu_cxx13new_allocatorI5EventE10deallocateEPS1_m(%"class.__gnu_cxx::new_allocator.8"* %0, %struct.Event* %1, i64 %2) #5 comdat align 2 {
  %4 = bitcast %struct.Event* %1 to i8*
  call void @_ZdlPv(i8* %4) #3
  ret void
}

; Function Attrs: noinline nounwind uwtable
define linkonce_odr void @_ZNSaI5EventED2Ev(%"class.std::allocator.7"* %0) unnamed_addr #5 comdat align 2 {
  %2 = bitcast %"class.std::allocator.7"* %0 to %"class.__gnu_cxx::new_allocator.8"*
  call void @_ZN9__gnu_cxx13new_allocatorI5EventED2Ev(%"class.__gnu_cxx::new_allocator.8"* %2) #3
  ret void
}

; Function Attrs: noinline nounwind uwtable
define linkonce_odr void @_ZN9__gnu_cxx13new_allocatorI5EventED2Ev(%"class.__gnu_cxx::new_allocator.8"* %0) unnamed_addr #5 comdat align 2 {
  ret void
}

; Function Attrs: noinline uwtable
define linkonce_odr void @_ZNSt12_Vector_baseISt6vectorI5EventSaIS1_EESaIS3_EE13_M_deallocateEPS3_m(%"struct.std::_Vector_base.1"* %0, %"class.std::vector.5"* %1, i64 %2) #0 comdat align 2 {
  %4 = icmp ne %"class.std::vector.5"* %1, null
  br i1 %4, label %5, label %8

5:                                                ; preds = %3
  %6 = getelementptr inbounds %"struct.std::_Vector_base.1", %"struct.std::_Vector_base.1"* %0, i32 0, i32 0
  %7 = bitcast %"struct.std::_Vector_base<std::vector<Event, std::allocator<Event> >, std::allocator<std::vector<Event, std::allocator<Event> > > >::_Vector_impl"* %6 to %"class.std::allocator.2"*
  call void @_ZNSt16allocator_traitsISaISt6vectorI5EventSaIS1_EEEE10deallocateERS4_PS3_m(%"class.std::allocator.2"* dereferenceable(1) %7, %"class.std::vector.5"* %1, i64 %2)
  br label %8

8:                                                ; preds = %5, %3
  ret void
}

; Function Attrs: noinline uwtable
define linkonce_odr void @_ZNSt16allocator_traitsISaISt6vectorI5EventSaIS1_EEEE10deallocateERS4_PS3_m(%"class.std::allocator.2"* dereferenceable(1) %0, %"class.std::vector.5"* %1, i64 %2) #0 comdat align 2 {
  %4 = bitcast %"class.std::allocator.2"* %0 to %"class.__gnu_cxx::new_allocator.3"*
  call void @_ZN9__gnu_cxx13new_allocatorISt6vectorI5EventSaIS2_EEE10deallocateEPS4_m(%"class.__gnu_cxx::new_allocator.3"* %4, %"class.std::vector.5"* %1, i64 %2)
  ret void
}

; Function Attrs: noinline nounwind uwtable
define linkonce_odr void @_ZN9__gnu_cxx13new_allocatorISt6vectorI5EventSaIS2_EEE10deallocateEPS4_m(%"class.__gnu_cxx::new_allocator.3"* %0, %"class.std::vector.5"* %1, i64 %2) #5 comdat align 2 {
  %4 = bitcast %"class.std::vector.5"* %1 to i8*
  call void @_ZdlPv(i8* %4) #3
  ret void
}

; Function Attrs: noinline uwtable
define linkonce_odr void @_ZSt8_DestroyIPSt6vectorI5EventSaIS1_EES3_EvT_S5_RSaIT0_E(%"class.std::vector.5"* %0, %"class.std::vector.5"* %1, %"class.std::allocator.2"* dereferenceable(1) %2) #0 comdat {
  call void @_ZSt8_DestroyIPSt6vectorI5EventSaIS1_EEEvT_S5_(%"class.std::vector.5"* %0, %"class.std::vector.5"* %1)
  ret void
}

; Function Attrs: noinline nounwind uwtable
define linkonce_odr void @_ZN9__gnu_cxx17__normal_iteratorIPSt4pairIiiESt6vectorIS2_SaIS2_EEEC2ERKS3_(%"class.__gnu_cxx::__normal_iterator"* %0, %"struct.std::pair"** dereferenceable(8) %1) unnamed_addr #5 comdat align 2 {
  %3 = getelementptr inbounds %"class.__gnu_cxx::__normal_iterator", %"class.__gnu_cxx::__normal_iterator"* %0, i32 0, i32 0
  %4 = load %"struct.std::pair"*, %"struct.std::pair"** %1, align 8
  store %"struct.std::pair"* %4, %"struct.std::pair"** %3, align 8
  ret void
}

; Function Attrs: noinline nounwind uwtable
define linkonce_odr dereferenceable(8) %"struct.std::pair"** @_ZNK9__gnu_cxx17__normal_iteratorIPSt4pairIiiESt6vectorIS2_SaIS2_EEE4baseEv(%"class.__gnu_cxx::__normal_iterator"* %0) #5 comdat align 2 {
  %2 = getelementptr inbounds %"class.__gnu_cxx::__normal_iterator", %"class.__gnu_cxx::__normal_iterator"* %0, i32 0, i32 0
  ret %"struct.std::pair"** %2
}

; Function Attrs: noinline uwtable
define linkonce_odr void @_ZNSt6vectorI5EventSaIS0_EE12emplace_backIJS0_EEEvDpOT_(%"class.std::vector.5"* %0, %struct.Event* dereferenceable(12) %1) #0 comdat align 2 {
  %3 = alloca %"class.__gnu_cxx::__normal_iterator.16", align 8
  %4 = bitcast %"class.std::vector.5"* %0 to %"struct.std::_Vector_base.6"*
  %5 = getelementptr inbounds %"struct.std::_Vector_base.6", %"struct.std::_Vector_base.6"* %4, i32 0, i32 0
  %6 = getelementptr inbounds %"struct.std::_Vector_base<Event, std::allocator<Event> >::_Vector_impl", %"struct.std::_Vector_base<Event, std::allocator<Event> >::_Vector_impl"* %5, i32 0, i32 1
  %7 = load %struct.Event*, %struct.Event** %6, align 8
  %8 = bitcast %"class.std::vector.5"* %0 to %"struct.std::_Vector_base.6"*
  %9 = getelementptr inbounds %"struct.std::_Vector_base.6", %"struct.std::_Vector_base.6"* %8, i32 0, i32 0
  %10 = getelementptr inbounds %"struct.std::_Vector_base<Event, std::allocator<Event> >::_Vector_impl", %"struct.std::_Vector_base<Event, std::allocator<Event> >::_Vector_impl"* %9, i32 0, i32 2
  %11 = load %struct.Event*, %struct.Event** %10, align 8
  %12 = icmp ne %struct.Event* %7, %11
  br i1 %12, label %13, label %27

13:                                               ; preds = %2
  %14 = bitcast %"class.std::vector.5"* %0 to %"struct.std::_Vector_base.6"*
  %15 = getelementptr inbounds %"struct.std::_Vector_base.6", %"struct.std::_Vector_base.6"* %14, i32 0, i32 0
  %16 = bitcast %"struct.std::_Vector_base<Event, std::allocator<Event> >::_Vector_impl"* %15 to %"class.std::allocator.7"*
  %17 = bitcast %"class.std::vector.5"* %0 to %"struct.std::_Vector_base.6"*
  %18 = getelementptr inbounds %"struct.std::_Vector_base.6", %"struct.std::_Vector_base.6"* %17, i32 0, i32 0
  %19 = getelementptr inbounds %"struct.std::_Vector_base<Event, std::allocator<Event> >::_Vector_impl", %"struct.std::_Vector_base<Event, std::allocator<Event> >::_Vector_impl"* %18, i32 0, i32 1
  %20 = load %struct.Event*, %struct.Event** %19, align 8
  %21 = call dereferenceable(12) %struct.Event* @_ZSt7forwardI5EventEOT_RNSt16remove_referenceIS1_E4typeE(%struct.Event* dereferenceable(12) %1) #3
  call void @_ZNSt16allocator_traitsISaI5EventEE9constructIS0_JS0_EEEvRS1_PT_DpOT0_(%"class.std::allocator.7"* dereferenceable(1) %16, %struct.Event* %20, %struct.Event* dereferenceable(12) %21)
  %22 = bitcast %"class.std::vector.5"* %0 to %"struct.std::_Vector_base.6"*
  %23 = getelementptr inbounds %"struct.std::_Vector_base.6", %"struct.std::_Vector_base.6"* %22, i32 0, i32 0
  %24 = getelementptr inbounds %"struct.std::_Vector_base<Event, std::allocator<Event> >::_Vector_impl", %"struct.std::_Vector_base<Event, std::allocator<Event> >::_Vector_impl"* %23, i32 0, i32 1
  %25 = load %struct.Event*, %struct.Event** %24, align 8
  %26 = getelementptr inbounds %struct.Event, %struct.Event* %25, i32 1
  store %struct.Event* %26, %struct.Event** %24, align 8
  br label %33

27:                                               ; preds = %2
  %28 = call %struct.Event* @_ZNSt6vectorI5EventSaIS0_EE3endEv(%"class.std::vector.5"* %0) #3
  %29 = getelementptr inbounds %"class.__gnu_cxx::__normal_iterator.16", %"class.__gnu_cxx::__normal_iterator.16"* %3, i32 0, i32 0
  store %struct.Event* %28, %struct.Event** %29, align 8
  %30 = call dereferenceable(12) %struct.Event* @_ZSt7forwardI5EventEOT_RNSt16remove_referenceIS1_E4typeE(%struct.Event* dereferenceable(12) %1) #3
  %31 = getelementptr inbounds %"class.__gnu_cxx::__normal_iterator.16", %"class.__gnu_cxx::__normal_iterator.16"* %3, i32 0, i32 0
  %32 = load %struct.Event*, %struct.Event** %31, align 8
  call void @_ZNSt6vectorI5EventSaIS0_EE17_M_realloc_insertIJS0_EEEvN9__gnu_cxx17__normal_iteratorIPS0_S2_EEDpOT_(%"class.std::vector.5"* %0, %struct.Event* %32, %struct.Event* dereferenceable(12) %30)
  br label %33

33:                                               ; preds = %27, %13
  ret void
}

; Function Attrs: noinline nounwind uwtable
define linkonce_odr dereferenceable(12) %struct.Event* @_ZSt4moveIR5EventEONSt16remove_referenceIT_E4typeEOS3_(%struct.Event* dereferenceable(12) %0) #5 comdat {
  ret %struct.Event* %0
}

; Function Attrs: noinline uwtable
define linkonce_odr void @_ZNSt16allocator_traitsISaI5EventEE9constructIS0_JS0_EEEvRS1_PT_DpOT0_(%"class.std::allocator.7"* dereferenceable(1) %0, %struct.Event* %1, %struct.Event* dereferenceable(12) %2) #0 comdat align 2 {
  %4 = bitcast %"class.std::allocator.7"* %0 to %"class.__gnu_cxx::new_allocator.8"*
  %5 = call dereferenceable(12) %struct.Event* @_ZSt7forwardI5EventEOT_RNSt16remove_referenceIS1_E4typeE(%struct.Event* dereferenceable(12) %2) #3
  call void @_ZN9__gnu_cxx13new_allocatorI5EventE9constructIS1_JS1_EEEvPT_DpOT0_(%"class.__gnu_cxx::new_allocator.8"* %4, %struct.Event* %1, %struct.Event* dereferenceable(12) %5)
  ret void
}

; Function Attrs: noinline nounwind uwtable
define linkonce_odr dereferenceable(12) %struct.Event* @_ZSt7forwardI5EventEOT_RNSt16remove_referenceIS1_E4typeE(%struct.Event* dereferenceable(12) %0) #5 comdat {
  ret %struct.Event* %0
}

; Function Attrs: noinline uwtable
define linkonce_odr void @_ZNSt6vectorI5EventSaIS0_EE17_M_realloc_insertIJS0_EEEvN9__gnu_cxx17__normal_iteratorIPS0_S2_EEDpOT_(%"class.std::vector.5"* %0, %struct.Event* %1, %struct.Event* dereferenceable(12) %2) #0 comdat align 2 personality i8* bitcast (i32 (...)* @__gxx_personality_v0 to i8*) {
  %4 = alloca %"class.__gnu_cxx::__normal_iterator.16", align 8
  %5 = alloca %"class.__gnu_cxx::__normal_iterator.16", align 8
  %6 = getelementptr inbounds %"class.__gnu_cxx::__normal_iterator.16", %"class.__gnu_cxx::__normal_iterator.16"* %4, i32 0, i32 0
  store %struct.Event* %1, %struct.Event** %6, align 8
  %7 = call i64 @_ZNKSt6vectorI5EventSaIS0_EE12_M_check_lenEmPKc(%"class.std::vector.5"* %0, i64 1, i8* getelementptr inbounds ([26 x i8], [26 x i8]* @.str.3, i32 0, i32 0))
  %8 = bitcast %"class.std::vector.5"* %0 to %"struct.std::_Vector_base.6"*
  %9 = getelementptr inbounds %"struct.std::_Vector_base.6", %"struct.std::_Vector_base.6"* %8, i32 0, i32 0
  %10 = getelementptr inbounds %"struct.std::_Vector_base<Event, std::allocator<Event> >::_Vector_impl", %"struct.std::_Vector_base<Event, std::allocator<Event> >::_Vector_impl"* %9, i32 0, i32 0
  %11 = load %struct.Event*, %struct.Event** %10, align 8
  %12 = bitcast %"class.std::vector.5"* %0 to %"struct.std::_Vector_base.6"*
  %13 = getelementptr inbounds %"struct.std::_Vector_base.6", %"struct.std::_Vector_base.6"* %12, i32 0, i32 0
  %14 = getelementptr inbounds %"struct.std::_Vector_base<Event, std::allocator<Event> >::_Vector_impl", %"struct.std::_Vector_base<Event, std::allocator<Event> >::_Vector_impl"* %13, i32 0, i32 1
  %15 = load %struct.Event*, %struct.Event** %14, align 8
  %16 = call %struct.Event* @_ZNSt6vectorI5EventSaIS0_EE5beginEv(%"class.std::vector.5"* %0) #3
  %17 = getelementptr inbounds %"class.__gnu_cxx::__normal_iterator.16", %"class.__gnu_cxx::__normal_iterator.16"* %5, i32 0, i32 0
  store %struct.Event* %16, %struct.Event** %17, align 8
  %18 = call i64 @_ZN9__gnu_cxxmiIP5EventSt6vectorIS1_SaIS1_EEEENS_17__normal_iteratorIT_T0_E15difference_typeERKS9_SC_(%"class.__gnu_cxx::__normal_iterator.16"* dereferenceable(8) %4, %"class.__gnu_cxx::__normal_iterator.16"* dereferenceable(8) %5) #3
  %19 = bitcast %"class.std::vector.5"* %0 to %"struct.std::_Vector_base.6"*
  %20 = call %struct.Event* @_ZNSt12_Vector_baseI5EventSaIS0_EE11_M_allocateEm(%"struct.std::_Vector_base.6"* %19, i64 %7)
  %21 = bitcast %"class.std::vector.5"* %0 to %"struct.std::_Vector_base.6"*
  %22 = getelementptr inbounds %"struct.std::_Vector_base.6", %"struct.std::_Vector_base.6"* %21, i32 0, i32 0
  %23 = bitcast %"struct.std::_Vector_base<Event, std::allocator<Event> >::_Vector_impl"* %22 to %"class.std::allocator.7"*
  %24 = getelementptr inbounds %struct.Event, %struct.Event* %20, i64 %18
  %25 = call dereferenceable(12) %struct.Event* @_ZSt7forwardI5EventEOT_RNSt16remove_referenceIS1_E4typeE(%struct.Event* dereferenceable(12) %2) #3
  invoke void @_ZNSt16allocator_traitsISaI5EventEE9constructIS0_JS0_EEEvRS1_PT_DpOT0_(%"class.std::allocator.7"* dereferenceable(1) %23, %struct.Event* %24, %struct.Event* dereferenceable(12) %25)
          to label %26 unwind label %40

26:                                               ; preds = %3
  %27 = call dereferenceable(8) %struct.Event** @_ZNK9__gnu_cxx17__normal_iteratorIP5EventSt6vectorIS1_SaIS1_EEE4baseEv(%"class.__gnu_cxx::__normal_iterator.16"* %4) #3
  %28 = load %struct.Event*, %struct.Event** %27, align 8
  %29 = bitcast %"class.std::vector.5"* %0 to %"struct.std::_Vector_base.6"*
  %30 = call dereferenceable(1) %"class.std::allocator.7"* @_ZNSt12_Vector_baseI5EventSaIS0_EE19_M_get_Tp_allocatorEv(%"struct.std::_Vector_base.6"* %29) #3
  %31 = invoke %struct.Event* @_ZSt34__uninitialized_move_if_noexcept_aIP5EventS1_SaIS0_EET0_T_S4_S3_RT1_(%struct.Event* %11, %struct.Event* %28, %struct.Event* %20, %"class.std::allocator.7"* dereferenceable(1) %30)
          to label %32 unwind label %40

32:                                               ; preds = %26
  %33 = getelementptr inbounds %struct.Event, %struct.Event* %31, i32 1
  %34 = call dereferenceable(8) %struct.Event** @_ZNK9__gnu_cxx17__normal_iteratorIP5EventSt6vectorIS1_SaIS1_EEE4baseEv(%"class.__gnu_cxx::__normal_iterator.16"* %4) #3
  %35 = load %struct.Event*, %struct.Event** %34, align 8
  %36 = bitcast %"class.std::vector.5"* %0 to %"struct.std::_Vector_base.6"*
  %37 = call dereferenceable(1) %"class.std::allocator.7"* @_ZNSt12_Vector_baseI5EventSaIS0_EE19_M_get_Tp_allocatorEv(%"struct.std::_Vector_base.6"* %36) #3
  %38 = invoke %struct.Event* @_ZSt34__uninitialized_move_if_noexcept_aIP5EventS1_SaIS0_EET0_T_S4_S3_RT1_(%struct.Event* %35, %struct.Event* %15, %struct.Event* %33, %"class.std::allocator.7"* dereferenceable(1) %37)
          to label %39 unwind label %40

39:                                               ; preds = %32
  br label %65

40:                                               ; preds = %32, %26, %3
  %.0 = phi %struct.Event* [ %33, %32 ], [ null, %26 ], [ %20, %3 ]
  %41 = landingpad { i8*, i32 }
          catch i8* null
  %42 = extractvalue { i8*, i32 } %41, 0
  %43 = extractvalue { i8*, i32 } %41, 1
  br label %44

44:                                               ; preds = %40
  %45 = call i8* @__cxa_begin_catch(i8* %42) #3
  %46 = icmp ne %struct.Event* %.0, null
  br i1 %46, label %57, label %47

47:                                               ; preds = %44
  %48 = bitcast %"class.std::vector.5"* %0 to %"struct.std::_Vector_base.6"*
  %49 = getelementptr inbounds %"struct.std::_Vector_base.6", %"struct.std::_Vector_base.6"* %48, i32 0, i32 0
  %50 = bitcast %"struct.std::_Vector_base<Event, std::allocator<Event> >::_Vector_impl"* %49 to %"class.std::allocator.7"*
  %51 = getelementptr inbounds %struct.Event, %struct.Event* %20, i64 %18
  invoke void @_ZNSt16allocator_traitsISaI5EventEE7destroyIS0_EEvRS1_PT_(%"class.std::allocator.7"* dereferenceable(1) %50, %struct.Event* %51)
          to label %52 unwind label %53

52:                                               ; preds = %47
  br label %61

53:                                               ; preds = %63, %61, %57, %47
  %54 = landingpad { i8*, i32 }
          cleanup
  %55 = extractvalue { i8*, i32 } %54, 0
  %56 = extractvalue { i8*, i32 } %54, 1
  invoke void @__cxa_end_catch()
          to label %64 unwind label %90

57:                                               ; preds = %44
  %58 = bitcast %"class.std::vector.5"* %0 to %"struct.std::_Vector_base.6"*
  %59 = call dereferenceable(1) %"class.std::allocator.7"* @_ZNSt12_Vector_baseI5EventSaIS0_EE19_M_get_Tp_allocatorEv(%"struct.std::_Vector_base.6"* %58) #3
  invoke void @_ZSt8_DestroyIP5EventS0_EvT_S2_RSaIT0_E(%struct.Event* %20, %struct.Event* %.0, %"class.std::allocator.7"* dereferenceable(1) %59)
          to label %60 unwind label %53

60:                                               ; preds = %57
  br label %61

61:                                               ; preds = %60, %52
  %62 = bitcast %"class.std::vector.5"* %0 to %"struct.std::_Vector_base.6"*
  invoke void @_ZNSt12_Vector_baseI5EventSaIS0_EE13_M_deallocateEPS0_m(%"struct.std::_Vector_base.6"* %62, %struct.Event* %20, i64 %7)
          to label %63 unwind label %53

63:                                               ; preds = %61
  invoke void @__cxa_rethrow() #13
          to label %93 unwind label %53

64:                                               ; preds = %53
  br label %87

65:                                               ; preds = %39
  %66 = bitcast %"class.std::vector.5"* %0 to %"struct.std::_Vector_base.6"*
  %67 = call dereferenceable(1) %"class.std::allocator.7"* @_ZNSt12_Vector_baseI5EventSaIS0_EE19_M_get_Tp_allocatorEv(%"struct.std::_Vector_base.6"* %66) #3
  call void @_ZSt8_DestroyIP5EventS0_EvT_S2_RSaIT0_E(%struct.Event* %11, %struct.Event* %15, %"class.std::allocator.7"* dereferenceable(1) %67)
  %68 = bitcast %"class.std::vector.5"* %0 to %"struct.std::_Vector_base.6"*
  %69 = bitcast %"class.std::vector.5"* %0 to %"struct.std::_Vector_base.6"*
  %70 = getelementptr inbounds %"struct.std::_Vector_base.6", %"struct.std::_Vector_base.6"* %69, i32 0, i32 0
  %71 = getelementptr inbounds %"struct.std::_Vector_base<Event, std::allocator<Event> >::_Vector_impl", %"struct.std::_Vector_base<Event, std::allocator<Event> >::_Vector_impl"* %70, i32 0, i32 2
  %72 = load %struct.Event*, %struct.Event** %71, align 8
  %73 = ptrtoint %struct.Event* %72 to i64
  %74 = ptrtoint %struct.Event* %11 to i64
  %75 = sub i64 %73, %74
  %76 = sdiv exact i64 %75, 12
  call void @_ZNSt12_Vector_baseI5EventSaIS0_EE13_M_deallocateEPS0_m(%"struct.std::_Vector_base.6"* %68, %struct.Event* %11, i64 %76)
  %77 = bitcast %"class.std::vector.5"* %0 to %"struct.std::_Vector_base.6"*
  %78 = getelementptr inbounds %"struct.std::_Vector_base.6", %"struct.std::_Vector_base.6"* %77, i32 0, i32 0
  %79 = getelementptr inbounds %"struct.std::_Vector_base<Event, std::allocator<Event> >::_Vector_impl", %"struct.std::_Vector_base<Event, std::allocator<Event> >::_Vector_impl"* %78, i32 0, i32 0
  store %struct.Event* %20, %struct.Event** %79, align 8
  %80 = bitcast %"class.std::vector.5"* %0 to %"struct.std::_Vector_base.6"*
  %81 = getelementptr inbounds %"struct.std::_Vector_base.6", %"struct.std::_Vector_base.6"* %80, i32 0, i32 0
  %82 = getelementptr inbounds %"struct.std::_Vector_base<Event, std::allocator<Event> >::_Vector_impl", %"struct.std::_Vector_base<Event, std::allocator<Event> >::_Vector_impl"* %81, i32 0, i32 1
  store %struct.Event* %38, %struct.Event** %82, align 8
  %83 = getelementptr inbounds %struct.Event, %struct.Event* %20, i64 %7
  %84 = bitcast %"class.std::vector.5"* %0 to %"struct.std::_Vector_base.6"*
  %85 = getelementptr inbounds %"struct.std::_Vector_base.6", %"struct.std::_Vector_base.6"* %84, i32 0, i32 0
  %86 = getelementptr inbounds %"struct.std::_Vector_base<Event, std::allocator<Event> >::_Vector_impl", %"struct.std::_Vector_base<Event, std::allocator<Event> >::_Vector_impl"* %85, i32 0, i32 2
  store %struct.Event* %83, %struct.Event** %86, align 8
  ret void

87:                                               ; preds = %64
  %88 = insertvalue { i8*, i32 } undef, i8* %55, 0
  %89 = insertvalue { i8*, i32 } %88, i32 %56, 1
  resume { i8*, i32 } %89

90:                                               ; preds = %53
  %91 = landingpad { i8*, i32 }
          catch i8* null
  %92 = extractvalue { i8*, i32 } %91, 0
  call void @__clang_call_terminate(i8* %92) #12
  unreachable

93:                                               ; preds = %63
  unreachable
}

; Function Attrs: noinline nounwind uwtable
define linkonce_odr void @_ZN9__gnu_cxx13new_allocatorI5EventE9constructIS1_JS1_EEEvPT_DpOT0_(%"class.__gnu_cxx::new_allocator.8"* %0, %struct.Event* %1, %struct.Event* dereferenceable(12) %2) #5 comdat align 2 {
  %4 = bitcast %struct.Event* %1 to i8*
  %5 = bitcast i8* %4 to %struct.Event*
  %6 = call dereferenceable(12) %struct.Event* @_ZSt7forwardI5EventEOT_RNSt16remove_referenceIS1_E4typeE(%struct.Event* dereferenceable(12) %2) #3
  %7 = bitcast %struct.Event* %5 to i8*
  %8 = bitcast %struct.Event* %6 to i8*
  call void @llvm.memcpy.p0i8.p0i8.i64(i8* align 4 %7, i8* align 4 %8, i64 12, i1 false)
  ret void
}

; Function Attrs: noinline uwtable
define linkonce_odr i64 @_ZNKSt6vectorI5EventSaIS0_EE12_M_check_lenEmPKc(%"class.std::vector.5"* %0, i64 %1, i8* %2) #0 comdat align 2 {
  %4 = alloca i64, align 8
  %5 = alloca i64, align 8
  store i64 %1, i64* %4, align 8
  %6 = call i64 @_ZNKSt6vectorI5EventSaIS0_EE8max_sizeEv(%"class.std::vector.5"* %0) #3
  %7 = call i64 @_ZNKSt6vectorI5EventSaIS0_EE4sizeEv(%"class.std::vector.5"* %0) #3
  %8 = sub i64 %6, %7
  %9 = load i64, i64* %4, align 8
  %10 = icmp ult i64 %8, %9
  br i1 %10, label %11, label %12

11:                                               ; preds = %3
  call void @_ZSt20__throw_length_errorPKc(i8* %2) #13
  unreachable

12:                                               ; preds = %3
  %13 = call i64 @_ZNKSt6vectorI5EventSaIS0_EE4sizeEv(%"class.std::vector.5"* %0) #3
  %14 = call i64 @_ZNKSt6vectorI5EventSaIS0_EE4sizeEv(%"class.std::vector.5"* %0) #3
  store i64 %14, i64* %5, align 8
  %15 = call dereferenceable(8) i64* @_ZSt3maxImERKT_S2_S2_(i64* dereferenceable(8) %5, i64* dereferenceable(8) %4)
  %16 = load i64, i64* %15, align 8
  %17 = add i64 %13, %16
  %18 = call i64 @_ZNKSt6vectorI5EventSaIS0_EE4sizeEv(%"class.std::vector.5"* %0) #3
  %19 = icmp ult i64 %17, %18
  br i1 %19, label %23, label %20

20:                                               ; preds = %12
  %21 = call i64 @_ZNKSt6vectorI5EventSaIS0_EE8max_sizeEv(%"class.std::vector.5"* %0) #3
  %22 = icmp ugt i64 %17, %21
  br i1 %22, label %23, label %25

23:                                               ; preds = %20, %12
  %24 = call i64 @_ZNKSt6vectorI5EventSaIS0_EE8max_sizeEv(%"class.std::vector.5"* %0) #3
  br label %26

25:                                               ; preds = %20
  br label %26

26:                                               ; preds = %25, %23
  %27 = phi i64 [ %24, %23 ], [ %17, %25 ]
  ret i64 %27
}

; Function Attrs: noinline nounwind uwtable
define linkonce_odr i64 @_ZN9__gnu_cxxmiIP5EventSt6vectorIS1_SaIS1_EEEENS_17__normal_iteratorIT_T0_E15difference_typeERKS9_SC_(%"class.__gnu_cxx::__normal_iterator.16"* dereferenceable(8) %0, %"class.__gnu_cxx::__normal_iterator.16"* dereferenceable(8) %1) #5 comdat {
  %3 = call dereferenceable(8) %struct.Event** @_ZNK9__gnu_cxx17__normal_iteratorIP5EventSt6vectorIS1_SaIS1_EEE4baseEv(%"class.__gnu_cxx::__normal_iterator.16"* %0) #3
  %4 = load %struct.Event*, %struct.Event** %3, align 8
  %5 = call dereferenceable(8) %struct.Event** @_ZNK9__gnu_cxx17__normal_iteratorIP5EventSt6vectorIS1_SaIS1_EEE4baseEv(%"class.__gnu_cxx::__normal_iterator.16"* %1) #3
  %6 = load %struct.Event*, %struct.Event** %5, align 8
  %7 = ptrtoint %struct.Event* %4 to i64
  %8 = ptrtoint %struct.Event* %6 to i64
  %9 = sub i64 %7, %8
  %10 = sdiv exact i64 %9, 12
  ret i64 %10
}

; Function Attrs: noinline uwtable
define linkonce_odr %struct.Event* @_ZNSt12_Vector_baseI5EventSaIS0_EE11_M_allocateEm(%"struct.std::_Vector_base.6"* %0, i64 %1) #0 comdat align 2 {
  %3 = icmp ne i64 %1, 0
  br i1 %3, label %4, label %8

4:                                                ; preds = %2
  %5 = getelementptr inbounds %"struct.std::_Vector_base.6", %"struct.std::_Vector_base.6"* %0, i32 0, i32 0
  %6 = bitcast %"struct.std::_Vector_base<Event, std::allocator<Event> >::_Vector_impl"* %5 to %"class.std::allocator.7"*
  %7 = call %struct.Event* @_ZNSt16allocator_traitsISaI5EventEE8allocateERS1_m(%"class.std::allocator.7"* dereferenceable(1) %6, i64 %1)
  br label %9

8:                                                ; preds = %2
  br label %9

9:                                                ; preds = %8, %4
  %10 = phi %struct.Event* [ %7, %4 ], [ null, %8 ]
  ret %struct.Event* %10
}

; Function Attrs: noinline uwtable
define linkonce_odr %struct.Event* @_ZSt34__uninitialized_move_if_noexcept_aIP5EventS1_SaIS0_EET0_T_S4_S3_RT1_(%struct.Event* %0, %struct.Event* %1, %struct.Event* %2, %"class.std::allocator.7"* dereferenceable(1) %3) #0 comdat {
  %5 = alloca %"class.std::move_iterator", align 8
  %6 = alloca %"class.std::move_iterator", align 8
  %7 = call %struct.Event* @_ZSt32__make_move_if_noexcept_iteratorI5EventSt13move_iteratorIPS0_EET0_PT_(%struct.Event* %0)
  %8 = getelementptr inbounds %"class.std::move_iterator", %"class.std::move_iterator"* %5, i32 0, i32 0
  store %struct.Event* %7, %struct.Event** %8, align 8
  %9 = call %struct.Event* @_ZSt32__make_move_if_noexcept_iteratorI5EventSt13move_iteratorIPS0_EET0_PT_(%struct.Event* %1)
  %10 = getelementptr inbounds %"class.std::move_iterator", %"class.std::move_iterator"* %6, i32 0, i32 0
  store %struct.Event* %9, %struct.Event** %10, align 8
  %11 = getelementptr inbounds %"class.std::move_iterator", %"class.std::move_iterator"* %5, i32 0, i32 0
  %12 = load %struct.Event*, %struct.Event** %11, align 8
  %13 = getelementptr inbounds %"class.std::move_iterator", %"class.std::move_iterator"* %6, i32 0, i32 0
  %14 = load %struct.Event*, %struct.Event** %13, align 8
  %15 = call %struct.Event* @_ZSt22__uninitialized_copy_aISt13move_iteratorIP5EventES2_S1_ET0_T_S5_S4_RSaIT1_E(%struct.Event* %12, %struct.Event* %14, %struct.Event* %2, %"class.std::allocator.7"* dereferenceable(1) %3)
  ret %struct.Event* %15
}

; Function Attrs: noinline nounwind uwtable
define linkonce_odr dereferenceable(8) %struct.Event** @_ZNK9__gnu_cxx17__normal_iteratorIP5EventSt6vectorIS1_SaIS1_EEE4baseEv(%"class.__gnu_cxx::__normal_iterator.16"* %0) #5 comdat align 2 {
  %2 = getelementptr inbounds %"class.__gnu_cxx::__normal_iterator.16", %"class.__gnu_cxx::__normal_iterator.16"* %0, i32 0, i32 0
  ret %struct.Event** %2
}

; Function Attrs: noinline uwtable
define linkonce_odr void @_ZNSt16allocator_traitsISaI5EventEE7destroyIS0_EEvRS1_PT_(%"class.std::allocator.7"* dereferenceable(1) %0, %struct.Event* %1) #0 comdat align 2 {
  %3 = bitcast %"class.std::allocator.7"* %0 to %"class.__gnu_cxx::new_allocator.8"*
  call void @_ZN9__gnu_cxx13new_allocatorI5EventE7destroyIS1_EEvPT_(%"class.__gnu_cxx::new_allocator.8"* %3, %struct.Event* %1)
  ret void
}

; Function Attrs: noinline nounwind uwtable
define linkonce_odr i64 @_ZNKSt6vectorI5EventSaIS0_EE8max_sizeEv(%"class.std::vector.5"* %0) #5 comdat align 2 {
  %2 = bitcast %"class.std::vector.5"* %0 to %"struct.std::_Vector_base.6"*
  %3 = call dereferenceable(1) %"class.std::allocator.7"* @_ZNKSt12_Vector_baseI5EventSaIS0_EE19_M_get_Tp_allocatorEv(%"struct.std::_Vector_base.6"* %2) #3
  %4 = call i64 @_ZNSt16allocator_traitsISaI5EventEE8max_sizeERKS1_(%"class.std::allocator.7"* dereferenceable(1) %3) #3
  ret i64 %4
}

; Function Attrs: noinline nounwind uwtable
define linkonce_odr i64 @_ZNKSt6vectorI5EventSaIS0_EE4sizeEv(%"class.std::vector.5"* %0) #5 comdat align 2 {
  %2 = bitcast %"class.std::vector.5"* %0 to %"struct.std::_Vector_base.6"*
  %3 = getelementptr inbounds %"struct.std::_Vector_base.6", %"struct.std::_Vector_base.6"* %2, i32 0, i32 0
  %4 = getelementptr inbounds %"struct.std::_Vector_base<Event, std::allocator<Event> >::_Vector_impl", %"struct.std::_Vector_base<Event, std::allocator<Event> >::_Vector_impl"* %3, i32 0, i32 1
  %5 = load %struct.Event*, %struct.Event** %4, align 8
  %6 = bitcast %"class.std::vector.5"* %0 to %"struct.std::_Vector_base.6"*
  %7 = getelementptr inbounds %"struct.std::_Vector_base.6", %"struct.std::_Vector_base.6"* %6, i32 0, i32 0
  %8 = getelementptr inbounds %"struct.std::_Vector_base<Event, std::allocator<Event> >::_Vector_impl", %"struct.std::_Vector_base<Event, std::allocator<Event> >::_Vector_impl"* %7, i32 0, i32 0
  %9 = load %struct.Event*, %struct.Event** %8, align 8
  %10 = ptrtoint %struct.Event* %5 to i64
  %11 = ptrtoint %struct.Event* %9 to i64
  %12 = sub i64 %10, %11
  %13 = sdiv exact i64 %12, 12
  ret i64 %13
}

; Function Attrs: noreturn
declare void @_ZSt20__throw_length_errorPKc(i8*) #7

; Function Attrs: noinline nounwind uwtable
define linkonce_odr dereferenceable(8) i64* @_ZSt3maxImERKT_S2_S2_(i64* dereferenceable(8) %0, i64* dereferenceable(8) %1) #5 comdat {
  %3 = load i64, i64* %0, align 8
  %4 = load i64, i64* %1, align 8
  %5 = icmp ult i64 %3, %4
  br i1 %5, label %6, label %7

6:                                                ; preds = %2
  br label %8

7:                                                ; preds = %2
  br label %8

8:                                                ; preds = %7, %6
  %.0 = phi i64* [ %1, %6 ], [ %0, %7 ]
  ret i64* %.0
}

; Function Attrs: noinline nounwind uwtable
define linkonce_odr i64 @_ZNSt16allocator_traitsISaI5EventEE8max_sizeERKS1_(%"class.std::allocator.7"* dereferenceable(1) %0) #5 comdat align 2 {
  %2 = bitcast %"class.std::allocator.7"* %0 to %"class.__gnu_cxx::new_allocator.8"*
  %3 = call i64 @_ZNK9__gnu_cxx13new_allocatorI5EventE8max_sizeEv(%"class.__gnu_cxx::new_allocator.8"* %2) #3
  ret i64 %3
}

; Function Attrs: noinline nounwind uwtable
define linkonce_odr dereferenceable(1) %"class.std::allocator.7"* @_ZNKSt12_Vector_baseI5EventSaIS0_EE19_M_get_Tp_allocatorEv(%"struct.std::_Vector_base.6"* %0) #5 comdat align 2 {
  %2 = getelementptr inbounds %"struct.std::_Vector_base.6", %"struct.std::_Vector_base.6"* %0, i32 0, i32 0
  %3 = bitcast %"struct.std::_Vector_base<Event, std::allocator<Event> >::_Vector_impl"* %2 to %"class.std::allocator.7"*
  ret %"class.std::allocator.7"* %3
}

; Function Attrs: noinline nounwind uwtable
define linkonce_odr i64 @_ZNK9__gnu_cxx13new_allocatorI5EventE8max_sizeEv(%"class.__gnu_cxx::new_allocator.8"* %0) #5 comdat align 2 {
  ret i64 1537228672809129301
}

; Function Attrs: noinline uwtable
define linkonce_odr %struct.Event* @_ZNSt16allocator_traitsISaI5EventEE8allocateERS1_m(%"class.std::allocator.7"* dereferenceable(1) %0, i64 %1) #0 comdat align 2 {
  %3 = bitcast %"class.std::allocator.7"* %0 to %"class.__gnu_cxx::new_allocator.8"*
  %4 = call %struct.Event* @_ZN9__gnu_cxx13new_allocatorI5EventE8allocateEmPKv(%"class.__gnu_cxx::new_allocator.8"* %3, i64 %1, i8* null)
  ret %struct.Event* %4
}

; Function Attrs: noinline uwtable
define linkonce_odr %struct.Event* @_ZN9__gnu_cxx13new_allocatorI5EventE8allocateEmPKv(%"class.__gnu_cxx::new_allocator.8"* %0, i64 %1, i8* %2) #0 comdat align 2 {
  %4 = call i64 @_ZNK9__gnu_cxx13new_allocatorI5EventE8max_sizeEv(%"class.__gnu_cxx::new_allocator.8"* %0) #3
  %5 = icmp ugt i64 %1, %4
  br i1 %5, label %6, label %7

6:                                                ; preds = %3
  call void @_ZSt17__throw_bad_allocv() #13
  unreachable

7:                                                ; preds = %3
  %8 = mul i64 %1, 12
  %9 = call i8* @_Znwm(i64 %8)
  %10 = bitcast i8* %9 to %struct.Event*
  ret %struct.Event* %10
}

; Function Attrs: noinline uwtable
define linkonce_odr %struct.Event* @_ZSt22__uninitialized_copy_aISt13move_iteratorIP5EventES2_S1_ET0_T_S5_S4_RSaIT1_E(%struct.Event* %0, %struct.Event* %1, %struct.Event* %2, %"class.std::allocator.7"* dereferenceable(1) %3) #0 comdat {
  %5 = alloca %"class.std::move_iterator", align 8
  %6 = alloca %"class.std::move_iterator", align 8
  %7 = alloca %"class.std::move_iterator", align 8
  %8 = alloca %"class.std::move_iterator", align 8
  %9 = getelementptr inbounds %"class.std::move_iterator", %"class.std::move_iterator"* %5, i32 0, i32 0
  store %struct.Event* %0, %struct.Event** %9, align 8
  %10 = getelementptr inbounds %"class.std::move_iterator", %"class.std::move_iterator"* %6, i32 0, i32 0
  store %struct.Event* %1, %struct.Event** %10, align 8
  %11 = bitcast %"class.std::move_iterator"* %7 to i8*
  %12 = bitcast %"class.std::move_iterator"* %5 to i8*
  call void @llvm.memcpy.p0i8.p0i8.i64(i8* align 8 %11, i8* align 8 %12, i64 8, i1 false)
  %13 = bitcast %"class.std::move_iterator"* %8 to i8*
  %14 = bitcast %"class.std::move_iterator"* %6 to i8*
  call void @llvm.memcpy.p0i8.p0i8.i64(i8* align 8 %13, i8* align 8 %14, i64 8, i1 false)
  %15 = getelementptr inbounds %"class.std::move_iterator", %"class.std::move_iterator"* %7, i32 0, i32 0
  %16 = load %struct.Event*, %struct.Event** %15, align 8
  %17 = getelementptr inbounds %"class.std::move_iterator", %"class.std::move_iterator"* %8, i32 0, i32 0
  %18 = load %struct.Event*, %struct.Event** %17, align 8
  %19 = call %struct.Event* @_ZSt18uninitialized_copyISt13move_iteratorIP5EventES2_ET0_T_S5_S4_(%struct.Event* %16, %struct.Event* %18, %struct.Event* %2)
  ret %struct.Event* %19
}

; Function Attrs: noinline uwtable
define linkonce_odr %struct.Event* @_ZSt32__make_move_if_noexcept_iteratorI5EventSt13move_iteratorIPS0_EET0_PT_(%struct.Event* %0) #0 comdat {
  %2 = alloca %"class.std::move_iterator", align 8
  call void @_ZNSt13move_iteratorIP5EventEC2ES1_(%"class.std::move_iterator"* %2, %struct.Event* %0)
  %3 = getelementptr inbounds %"class.std::move_iterator", %"class.std::move_iterator"* %2, i32 0, i32 0
  %4 = load %struct.Event*, %struct.Event** %3, align 8
  ret %struct.Event* %4
}

; Function Attrs: noinline uwtable
define linkonce_odr %struct.Event* @_ZSt18uninitialized_copyISt13move_iteratorIP5EventES2_ET0_T_S5_S4_(%struct.Event* %0, %struct.Event* %1, %struct.Event* %2) #0 comdat {
  %4 = alloca %"class.std::move_iterator", align 8
  %5 = alloca %"class.std::move_iterator", align 8
  %6 = alloca %"class.std::move_iterator", align 8
  %7 = alloca %"class.std::move_iterator", align 8
  %8 = getelementptr inbounds %"class.std::move_iterator", %"class.std::move_iterator"* %4, i32 0, i32 0
  store %struct.Event* %0, %struct.Event** %8, align 8
  %9 = getelementptr inbounds %"class.std::move_iterator", %"class.std::move_iterator"* %5, i32 0, i32 0
  store %struct.Event* %1, %struct.Event** %9, align 8
  %10 = bitcast %"class.std::move_iterator"* %6 to i8*
  %11 = bitcast %"class.std::move_iterator"* %4 to i8*
  call void @llvm.memcpy.p0i8.p0i8.i64(i8* align 8 %10, i8* align 8 %11, i64 8, i1 false)
  %12 = bitcast %"class.std::move_iterator"* %7 to i8*
  %13 = bitcast %"class.std::move_iterator"* %5 to i8*
  call void @llvm.memcpy.p0i8.p0i8.i64(i8* align 8 %12, i8* align 8 %13, i64 8, i1 false)
  %14 = getelementptr inbounds %"class.std::move_iterator", %"class.std::move_iterator"* %6, i32 0, i32 0
  %15 = load %struct.Event*, %struct.Event** %14, align 8
  %16 = getelementptr inbounds %"class.std::move_iterator", %"class.std::move_iterator"* %7, i32 0, i32 0
  %17 = load %struct.Event*, %struct.Event** %16, align 8
  %18 = call %struct.Event* @_ZNSt20__uninitialized_copyILb1EE13__uninit_copyISt13move_iteratorIP5EventES4_EET0_T_S7_S6_(%struct.Event* %15, %struct.Event* %17, %struct.Event* %2)
  ret %struct.Event* %18
}

; Function Attrs: noinline uwtable
define linkonce_odr %struct.Event* @_ZNSt20__uninitialized_copyILb1EE13__uninit_copyISt13move_iteratorIP5EventES4_EET0_T_S7_S6_(%struct.Event* %0, %struct.Event* %1, %struct.Event* %2) #0 comdat align 2 {
  %4 = alloca %"class.std::move_iterator", align 8
  %5 = alloca %"class.std::move_iterator", align 8
  %6 = alloca %"class.std::move_iterator", align 8
  %7 = alloca %"class.std::move_iterator", align 8
  %8 = getelementptr inbounds %"class.std::move_iterator", %"class.std::move_iterator"* %4, i32 0, i32 0
  store %struct.Event* %0, %struct.Event** %8, align 8
  %9 = getelementptr inbounds %"class.std::move_iterator", %"class.std::move_iterator"* %5, i32 0, i32 0
  store %struct.Event* %1, %struct.Event** %9, align 8
  %10 = bitcast %"class.std::move_iterator"* %6 to i8*
  %11 = bitcast %"class.std::move_iterator"* %4 to i8*
  call void @llvm.memcpy.p0i8.p0i8.i64(i8* align 8 %10, i8* align 8 %11, i64 8, i1 false)
  %12 = bitcast %"class.std::move_iterator"* %7 to i8*
  %13 = bitcast %"class.std::move_iterator"* %5 to i8*
  call void @llvm.memcpy.p0i8.p0i8.i64(i8* align 8 %12, i8* align 8 %13, i64 8, i1 false)
  %14 = getelementptr inbounds %"class.std::move_iterator", %"class.std::move_iterator"* %6, i32 0, i32 0
  %15 = load %struct.Event*, %struct.Event** %14, align 8
  %16 = getelementptr inbounds %"class.std::move_iterator", %"class.std::move_iterator"* %7, i32 0, i32 0
  %17 = load %struct.Event*, %struct.Event** %16, align 8
  %18 = call %struct.Event* @_ZSt4copyISt13move_iteratorIP5EventES2_ET0_T_S5_S4_(%struct.Event* %15, %struct.Event* %17, %struct.Event* %2)
  ret %struct.Event* %18
}

; Function Attrs: noinline uwtable
define linkonce_odr %struct.Event* @_ZSt4copyISt13move_iteratorIP5EventES2_ET0_T_S5_S4_(%struct.Event* %0, %struct.Event* %1, %struct.Event* %2) #0 comdat {
  %4 = alloca %"class.std::move_iterator", align 8
  %5 = alloca %"class.std::move_iterator", align 8
  %6 = alloca %"class.std::move_iterator", align 8
  %7 = alloca %"class.std::move_iterator", align 8
  %8 = getelementptr inbounds %"class.std::move_iterator", %"class.std::move_iterator"* %4, i32 0, i32 0
  store %struct.Event* %0, %struct.Event** %8, align 8
  %9 = getelementptr inbounds %"class.std::move_iterator", %"class.std::move_iterator"* %5, i32 0, i32 0
  store %struct.Event* %1, %struct.Event** %9, align 8
  %10 = bitcast %"class.std::move_iterator"* %6 to i8*
  %11 = bitcast %"class.std::move_iterator"* %4 to i8*
  call void @llvm.memcpy.p0i8.p0i8.i64(i8* align 8 %10, i8* align 8 %11, i64 8, i1 false)
  %12 = getelementptr inbounds %"class.std::move_iterator", %"class.std::move_iterator"* %6, i32 0, i32 0
  %13 = load %struct.Event*, %struct.Event** %12, align 8
  %14 = call %struct.Event* @_ZSt12__miter_baseIP5EventEDTcl12__miter_basecldtfp_4baseEEESt13move_iteratorIT_E(%struct.Event* %13)
  %15 = bitcast %"class.std::move_iterator"* %7 to i8*
  %16 = bitcast %"class.std::move_iterator"* %5 to i8*
  call void @llvm.memcpy.p0i8.p0i8.i64(i8* align 8 %15, i8* align 8 %16, i64 8, i1 false)
  %17 = getelementptr inbounds %"class.std::move_iterator", %"class.std::move_iterator"* %7, i32 0, i32 0
  %18 = load %struct.Event*, %struct.Event** %17, align 8
  %19 = call %struct.Event* @_ZSt12__miter_baseIP5EventEDTcl12__miter_basecldtfp_4baseEEESt13move_iteratorIT_E(%struct.Event* %18)
  %20 = call %struct.Event* @_ZSt14__copy_move_a2ILb1EP5EventS1_ET1_T0_S3_S2_(%struct.Event* %14, %struct.Event* %19, %struct.Event* %2)
  ret %struct.Event* %20
}

; Function Attrs: noinline uwtable
define linkonce_odr %struct.Event* @_ZSt14__copy_move_a2ILb1EP5EventS1_ET1_T0_S3_S2_(%struct.Event* %0, %struct.Event* %1, %struct.Event* %2) #0 comdat {
  %4 = call %struct.Event* @_ZSt12__niter_baseIP5EventET_S2_(%struct.Event* %0)
  %5 = call %struct.Event* @_ZSt12__niter_baseIP5EventET_S2_(%struct.Event* %1)
  %6 = call %struct.Event* @_ZSt12__niter_baseIP5EventET_S2_(%struct.Event* %2)
  %7 = call %struct.Event* @_ZSt13__copy_move_aILb1EP5EventS1_ET1_T0_S3_S2_(%struct.Event* %4, %struct.Event* %5, %struct.Event* %6)
  ret %struct.Event* %7
}

; Function Attrs: noinline uwtable
define linkonce_odr %struct.Event* @_ZSt12__miter_baseIP5EventEDTcl12__miter_basecldtfp_4baseEEESt13move_iteratorIT_E(%struct.Event* %0) #0 comdat {
  %2 = alloca %"class.std::move_iterator", align 8
  %3 = getelementptr inbounds %"class.std::move_iterator", %"class.std::move_iterator"* %2, i32 0, i32 0
  store %struct.Event* %0, %struct.Event** %3, align 8
  %4 = call %struct.Event* @_ZNKSt13move_iteratorIP5EventE4baseEv(%"class.std::move_iterator"* %2)
  %5 = call %struct.Event* @_ZSt12__miter_baseIP5EventET_S2_(%struct.Event* %4)
  ret %struct.Event* %5
}

; Function Attrs: noinline uwtable
define linkonce_odr %struct.Event* @_ZSt13__copy_move_aILb1EP5EventS1_ET1_T0_S3_S2_(%struct.Event* %0, %struct.Event* %1, %struct.Event* %2) #0 comdat {
  %4 = call %struct.Event* @_ZNSt11__copy_moveILb1ELb1ESt26random_access_iterator_tagE8__copy_mI5EventEEPT_PKS4_S7_S5_(%struct.Event* %0, %struct.Event* %1, %struct.Event* %2)
  ret %struct.Event* %4
}

; Function Attrs: noinline nounwind uwtable
define linkonce_odr %struct.Event* @_ZSt12__niter_baseIP5EventET_S2_(%struct.Event* %0) #5 comdat {
  ret %struct.Event* %0
}

; Function Attrs: noinline nounwind uwtable
define linkonce_odr %struct.Event* @_ZNSt11__copy_moveILb1ELb1ESt26random_access_iterator_tagE8__copy_mI5EventEEPT_PKS4_S7_S5_(%struct.Event* %0, %struct.Event* %1, %struct.Event* %2) #5 comdat align 2 {
  %4 = ptrtoint %struct.Event* %1 to i64
  %5 = ptrtoint %struct.Event* %0 to i64
  %6 = sub i64 %4, %5
  %7 = sdiv exact i64 %6, 12
  %8 = icmp ne i64 %7, 0
  br i1 %8, label %9, label %13

9:                                                ; preds = %3
  %10 = bitcast %struct.Event* %2 to i8*
  %11 = bitcast %struct.Event* %0 to i8*
  %12 = mul i64 12, %7
  call void @llvm.memmove.p0i8.p0i8.i64(i8* align 4 %10, i8* align 4 %11, i64 %12, i1 false)
  br label %13

13:                                               ; preds = %9, %3
  %14 = getelementptr inbounds %struct.Event, %struct.Event* %2, i64 %7
  ret %struct.Event* %14
}

; Function Attrs: noinline nounwind uwtable
define linkonce_odr %struct.Event* @_ZSt12__miter_baseIP5EventET_S2_(%struct.Event* %0) #5 comdat {
  ret %struct.Event* %0
}

; Function Attrs: noinline nounwind uwtable
define linkonce_odr %struct.Event* @_ZNKSt13move_iteratorIP5EventE4baseEv(%"class.std::move_iterator"* %0) #5 comdat align 2 {
  %2 = getelementptr inbounds %"class.std::move_iterator", %"class.std::move_iterator"* %0, i32 0, i32 0
  %3 = load %struct.Event*, %struct.Event** %2, align 8
  ret %struct.Event* %3
}

; Function Attrs: noinline nounwind uwtable
define linkonce_odr void @_ZNSt13move_iteratorIP5EventEC2ES1_(%"class.std::move_iterator"* %0, %struct.Event* %1) unnamed_addr #5 comdat align 2 {
  %3 = getelementptr inbounds %"class.std::move_iterator", %"class.std::move_iterator"* %0, i32 0, i32 0
  store %struct.Event* %1, %struct.Event** %3, align 8
  ret void
}

; Function Attrs: noinline nounwind uwtable
define linkonce_odr void @_ZN9__gnu_cxx13new_allocatorI5EventE7destroyIS1_EEvPT_(%"class.__gnu_cxx::new_allocator.8"* %0, %struct.Event* %1) #5 comdat align 2 {
  ret void
}

; Function Attrs: noinline nounwind uwtable
define linkonce_odr void @_ZN9__gnu_cxx17__normal_iteratorIP5EventSt6vectorIS1_SaIS1_EEEC2ERKS2_(%"class.__gnu_cxx::__normal_iterator.16"* %0, %struct.Event** dereferenceable(8) %1) unnamed_addr #5 comdat align 2 {
  %3 = getelementptr inbounds %"class.__gnu_cxx::__normal_iterator.16", %"class.__gnu_cxx::__normal_iterator.16"* %0, i32 0, i32 0
  %4 = load %struct.Event*, %struct.Event** %1, align 8
  store %struct.Event* %4, %struct.Event** %3, align 8
  ret void
}

; Function Attrs: noinline uwtable
define internal void @_GLOBAL__sub_I_s102282297.cpp() #0 section ".text.startup" {
  call void @__cxx_global_var_init()
  ret void
}

; Function Attrs: argmemonly nocallback nofree nounwind willreturn
declare void @llvm.memcpy.p0i8.p0i8.i64(i8* noalias nocapture writeonly, i8* noalias nocapture readonly, i64, i1 immarg) #11

; Function Attrs: argmemonly nocallback nofree nounwind willreturn
declare void @llvm.memmove.p0i8.p0i8.i64(i8* nocapture writeonly, i8* nocapture readonly, i64, i1 immarg) #11

attributes #0 = { noinline uwtable "correctly-rounded-divide-sqrt-fp-math"="false" "disable-tail-calls"="false" "less-precise-fpmad"="false" "no-frame-pointer-elim"="true" "no-frame-pointer-elim-non-leaf" "no-infs-fp-math"="false" "no-jump-tables"="false" "no-nans-fp-math"="false" "no-signed-zeros-fp-math"="false" "no-trapping-math"="false" "stack-protector-buffer-size"="8" "target-cpu"="x86-64" "target-features"="+fxsr,+mmx,+sse,+sse2,+x87" "unsafe-fp-math"="false" "use-soft-float"="false" }
attributes #1 = { "correctly-rounded-divide-sqrt-fp-math"="false" "disable-tail-calls"="false" "less-precise-fpmad"="false" "no-frame-pointer-elim"="true" "no-frame-pointer-elim-non-leaf" "no-infs-fp-math"="false" "no-nans-fp-math"="false" "no-signed-zeros-fp-math"="false" "no-trapping-math"="false" "stack-protector-buffer-size"="8" "target-cpu"="x86-64" "target-features"="+fxsr,+mmx,+sse,+sse2,+x87" "unsafe-fp-math"="false" "use-soft-float"="false" }
attributes #2 = { nounwind "correctly-rounded-divide-sqrt-fp-math"="false" "disable-tail-calls"="false" "less-precise-fpmad"="false" "no-frame-pointer-elim"="true" "no-frame-pointer-elim-non-leaf" "no-infs-fp-math"="false" "no-nans-fp-math"="false" "no-signed-zeros-fp-math"="false" "no-trapping-math"="false" "stack-protector-buffer-size"="8" "target-cpu"="x86-64" "target-features"="+fxsr,+mmx,+sse,+sse2,+x87" "unsafe-fp-math"="false" "use-soft-float"="false" }
attributes #3 = { nounwind }
attributes #4 = { noinline norecurse uwtable "correctly-rounded-divide-sqrt-fp-math"="false" "disable-tail-calls"="false" "less-precise-fpmad"="false" "no-frame-pointer-elim"="true" "no-frame-pointer-elim-non-leaf" "no-infs-fp-math"="false" "no-jump-tables"="false" "no-nans-fp-math"="false" "no-signed-zeros-fp-math"="false" "no-trapping-math"="false" "stack-protector-buffer-size"="8" "target-cpu"="x86-64" "target-features"="+fxsr,+mmx,+sse,+sse2,+x87" "unsafe-fp-math"="false" "use-soft-float"="false" }
attributes #5 = { noinline nounwind uwtable "correctly-rounded-divide-sqrt-fp-math"="false" "disable-tail-calls"="false" "less-precise-fpmad"="false" "no-frame-pointer-elim"="true" "no-frame-pointer-elim-non-leaf" "no-infs-fp-math"="false" "no-jump-tables"="false" "no-nans-fp-math"="false" "no-signed-zeros-fp-math"="false" "no-trapping-math"="false" "stack-protector-buffer-size"="8" "target-cpu"="x86-64" "target-features"="+fxsr,+mmx,+sse,+sse2,+x87" "unsafe-fp-math"="false" "use-soft-float"="false" }
attributes #6 = { noinline noreturn nounwind }
attributes #7 = { noreturn "correctly-rounded-divide-sqrt-fp-math"="false" "disable-tail-calls"="false" "less-precise-fpmad"="false" "no-frame-pointer-elim"="true" "no-frame-pointer-elim-non-leaf" "no-infs-fp-math"="false" "no-nans-fp-math"="false" "no-signed-zeros-fp-math"="false" "no-trapping-math"="false" "stack-protector-buffer-size"="8" "target-cpu"="x86-64" "target-features"="+fxsr,+mmx,+sse,+sse2,+x87" "unsafe-fp-math"="false" "use-soft-float"="false" }
attributes #8 = { nobuiltin "correctly-rounded-divide-sqrt-fp-math"="false" "disable-tail-calls"="false" "less-precise-fpmad"="false" "no-frame-pointer-elim"="true" "no-frame-pointer-elim-non-leaf" "no-infs-fp-math"="false" "no-nans-fp-math"="false" "no-signed-zeros-fp-math"="false" "no-trapping-math"="false" "stack-protector-buffer-size"="8" "target-cpu"="x86-64" "target-features"="+fxsr,+mmx,+sse,+sse2,+x87" "unsafe-fp-math"="false" "use-soft-float"="false" }
attributes #9 = { nobuiltin nounwind "correctly-rounded-divide-sqrt-fp-math"="false" "disable-tail-calls"="false" "less-precise-fpmad"="false" "no-frame-pointer-elim"="true" "no-frame-pointer-elim-non-leaf" "no-infs-fp-math"="false" "no-nans-fp-math"="false" "no-signed-zeros-fp-math"="false" "no-trapping-math"="false" "stack-protector-buffer-size"="8" "target-cpu"="x86-64" "target-features"="+fxsr,+mmx,+sse,+sse2,+x87" "unsafe-fp-math"="false" "use-soft-float"="false" }
attributes #10 = { cold noreturn nounwind }
attributes #11 = { argmemonly nocallback nofree nounwind willreturn }
attributes #12 = { noreturn nounwind }
attributes #13 = { noreturn }

!llvm.module.flags = !{!0}
!llvm.ident = !{!1}

!0 = !{i32 1, !"wchar_size", i32 4}
!1 = !{!"clang version 6.0.0-1ubuntu2 (tags/RELEASE_600/final)"}
