; ModuleID = '/home/pedro/tcc/exDataset/codenet/data/selection/p01047/s688815695.ll'
source_filename = "/home/pedro/tcc/exDataset/codenet/data/selection/p01047/s688815695.cpp"
target datalayout = "e-m:e-i64:64-f80:128-n8:16:32:64-S128"
target triple = "x86_64-pc-linux-gnu"

%"class.std::ios_base::Init" = type { i8 }
%struct.P = type { i32, i32, i32 }
%"class.std::basic_istream" = type { i32 (...)**, i64, %"class.std::basic_ios" }
%"class.std::basic_ios" = type { %"class.std::ios_base", %"class.std::basic_ostream"*, i8, i8, %"class.std::basic_streambuf"*, %"class.std::ctype"*, %"class.std::num_put"*, %"class.std::num_get"* }
%"class.std::ios_base" = type { i32 (...)**, i64, i64, i32, i32, i32, %"struct.std::ios_base::_Callback_list"*, %"struct.std::ios_base::_Words", [8 x %"struct.std::ios_base::_Words"], i32, %"struct.std::ios_base::_Words"*, %"class.std::locale" }
%"struct.std::ios_base::_Callback_list" = type { %"struct.std::ios_base::_Callback_list"*, void (i32, %"class.std::ios_base"*, i32)*, i32, i32 }
%"struct.std::ios_base::_Words" = type { i8*, i64 }
%"class.std::locale" = type { %"class.std::locale::_Impl"* }
%"class.std::locale::_Impl" = type { i32, %"class.std::locale::facet"**, i64, %"class.std::locale::facet"**, i8** }
%"class.std::locale::facet" = type <{ i32 (...)**, i32, [4 x i8] }>
%"class.std::basic_ostream" = type { i32 (...)**, %"class.std::basic_ios" }
%"class.std::basic_streambuf" = type { i32 (...)**, i8*, i8*, i8*, i8*, i8*, i8*, %"class.std::locale" }
%"class.std::ctype" = type <{ %"class.std::locale::facet.base", [4 x i8], %struct.__locale_struct*, i8, [7 x i8], i32*, i32*, i16*, i8, [256 x i8], [256 x i8], i8, [6 x i8] }>
%"class.std::locale::facet.base" = type <{ i32 (...)**, i32 }>
%struct.__locale_struct = type { [13 x %struct.__locale_data*], i16*, i32*, i32*, [13 x i8*] }
%struct.__locale_data = type opaque
%"class.std::num_put" = type { %"class.std::locale::facet.base", [4 x i8] }
%"class.std::num_get" = type { %"class.std::locale::facet.base", [4 x i8] }
%"struct.__gnu_cxx::__ops::_Iter_less_iter" = type { i8 }
%"struct.__gnu_cxx::__ops::_Iter_less_val" = type { i8 }
%"struct.__gnu_cxx::__ops::_Val_less_iter" = type { i8 }

$_ZSt4sortIPiEvT_S1_ = comdat any

$_ZSt3minIiERKT_S2_S2_ = comdat any

$_ZSt4fillIPiiEvT_S1_RKT0_ = comdat any

$_ZSt6__sortIPiN9__gnu_cxx5__ops15_Iter_less_iterEEvT_S4_T0_ = comdat any

$_ZN9__gnu_cxx5__ops16__iter_less_iterEv = comdat any

$_ZSt16__introsort_loopIPilN9__gnu_cxx5__ops15_Iter_less_iterEEvT_S4_T0_T1_ = comdat any

$_ZSt4__lgl = comdat any

$_ZSt22__final_insertion_sortIPiN9__gnu_cxx5__ops15_Iter_less_iterEEvT_S4_T0_ = comdat any

$_ZSt14__partial_sortIPiN9__gnu_cxx5__ops15_Iter_less_iterEEvT_S4_S4_T0_ = comdat any

$_ZSt27__unguarded_partition_pivotIPiN9__gnu_cxx5__ops15_Iter_less_iterEET_S4_S4_T0_ = comdat any

$_ZSt13__heap_selectIPiN9__gnu_cxx5__ops15_Iter_less_iterEEvT_S4_S4_T0_ = comdat any

$_ZSt11__sort_heapIPiN9__gnu_cxx5__ops15_Iter_less_iterEEvT_S4_RT0_ = comdat any

$_ZSt11__make_heapIPiN9__gnu_cxx5__ops15_Iter_less_iterEEvT_S4_RT0_ = comdat any

$_ZNK9__gnu_cxx5__ops15_Iter_less_iterclIPiS3_EEbT_T0_ = comdat any

$_ZSt10__pop_heapIPiN9__gnu_cxx5__ops15_Iter_less_iterEEvT_S4_S4_RT0_ = comdat any

$_ZSt4moveIRiEONSt16remove_referenceIT_E4typeEOS2_ = comdat any

$_ZSt13__adjust_heapIPiliN9__gnu_cxx5__ops15_Iter_less_iterEEvT_T0_S5_T1_T2_ = comdat any

$_ZSt4moveIRN9__gnu_cxx5__ops15_Iter_less_iterEEONSt16remove_referenceIT_E4typeEOS5_ = comdat any

$_ZN9__gnu_cxx5__ops14_Iter_less_valC2ENS0_15_Iter_less_iterE = comdat any

$_ZSt11__push_heapIPiliN9__gnu_cxx5__ops14_Iter_less_valEEvT_T0_S5_T1_RT2_ = comdat any

$_ZNK9__gnu_cxx5__ops14_Iter_less_valclIPiiEEbT_RT0_ = comdat any

$_ZSt22__move_median_to_firstIPiN9__gnu_cxx5__ops15_Iter_less_iterEEvT_S4_S4_S4_T0_ = comdat any

$_ZSt21__unguarded_partitionIPiN9__gnu_cxx5__ops15_Iter_less_iterEET_S4_S4_S4_T0_ = comdat any

$_ZSt9iter_swapIPiS0_EvT_T0_ = comdat any

$_ZSt4swapIiENSt9enable_ifIXsr6__and_ISt6__not_ISt15__is_tuple_likeIT_EESt21is_move_constructibleIS3_ESt18is_move_assignableIS3_EEE5valueEvE4typeERS3_SC_ = comdat any

$_ZSt16__insertion_sortIPiN9__gnu_cxx5__ops15_Iter_less_iterEEvT_S4_T0_ = comdat any

$_ZSt26__unguarded_insertion_sortIPiN9__gnu_cxx5__ops15_Iter_less_iterEEvT_S4_T0_ = comdat any

$_ZSt13move_backwardIPiS0_ET0_T_S2_S1_ = comdat any

$_ZSt25__unguarded_linear_insertIPiN9__gnu_cxx5__ops14_Val_less_iterEEvT_T0_ = comdat any

$_ZN9__gnu_cxx5__ops15__val_comp_iterENS0_15_Iter_less_iterE = comdat any

$_ZSt23__copy_move_backward_a2ILb1EPiS0_ET1_T0_S2_S1_ = comdat any

$_ZSt12__miter_baseIPiET_S1_ = comdat any

$_ZSt22__copy_move_backward_aILb1EPiS0_ET1_T0_S2_S1_ = comdat any

$_ZSt12__niter_baseIPiET_S1_ = comdat any

$_ZNSt20__copy_move_backwardILb1ELb1ESt26random_access_iterator_tagE13__copy_move_bIiEEPT_PKS3_S6_S4_ = comdat any

$_ZNK9__gnu_cxx5__ops14_Val_less_iterclIiPiEEbRT_T0_ = comdat any

$_ZSt8__fill_aIPiiEN9__gnu_cxx11__enable_ifIXsr11__is_scalarIT0_EE7__valueEvE6__typeET_S6_RKS3_ = comdat any

@_ZStL8__ioinit = internal global %"class.std::ios_base::Init" zeroinitializer, align 1
@__dso_handle = external hidden global i8
@b = global [15 x %struct.P] zeroinitializer, align 16
@d = global [600001 x i32] zeroinitializer, align 16
@_ZSt3cin = external global %"class.std::basic_istream", align 8
@_ZL3INF = internal constant i32 536870912, align 4
@_ZSt4cout = external global %"class.std::basic_ostream", align 8
@llvm.global_ctors = appending global [1 x { i32, void ()*, i8* }] [{ i32, void ()*, i8* } { i32 65535, void ()* @_GLOBAL__sub_I_s688815695.cpp, i8* null }]

; Function Attrs: noinline uwtable
define internal void @__cxx_global_var_init() #0 section ".text.startup" {
  call void @_ZNSt8ios_base4InitC1Ev(%"class.std::ios_base::Init"* @_ZStL8__ioinit)
  %1 = call i32 @__cxa_atexit(void (i8*)* bitcast (void (%"class.std::ios_base::Init"*)* @_ZNSt8ios_base4InitD1Ev to void (i8*)*), i8* getelementptr inbounds (%"class.std::ios_base::Init", %"class.std::ios_base::Init"* @_ZStL8__ioinit, i32 0, i32 0), i8* @__dso_handle) #3
  ret void
}

declare void @_ZNSt8ios_base4InitC1Ev(%"class.std::ios_base::Init"*) unnamed_addr #1

; Function Attrs: nounwind
declare void @_ZNSt8ios_base4InitD1Ev(%"class.std::ios_base::Init"*) unnamed_addr #2

; Function Attrs: nounwind
declare i32 @__cxa_atexit(void (i8*)*, i8*, i8*) #3

; Function Attrs: noinline nounwind uwtable
define i32 @_Z1D1PS_(i64 %0, i32 %1, i64 %2, i32 %3) #4 {
  %5 = alloca %struct.P, align 4
  %6 = alloca { i64, i32 }, align 4
  %7 = alloca %struct.P, align 4
  %8 = alloca { i64, i32 }, align 4
  %9 = getelementptr inbounds { i64, i32 }, { i64, i32 }* %6, i32 0, i32 0
  store i64 %0, i64* %9, align 4
  %10 = getelementptr inbounds { i64, i32 }, { i64, i32 }* %6, i32 0, i32 1
  store i32 %1, i32* %10, align 4
  %11 = bitcast %struct.P* %5 to i8*
  %12 = bitcast { i64, i32 }* %6 to i8*
  call void @llvm.memcpy.p0i8.p0i8.i64(i8* align 4 %11, i8* align 4 %12, i64 12, i1 false)
  %13 = getelementptr inbounds { i64, i32 }, { i64, i32 }* %8, i32 0, i32 0
  store i64 %2, i64* %13, align 4
  %14 = getelementptr inbounds { i64, i32 }, { i64, i32 }* %8, i32 0, i32 1
  store i32 %3, i32* %14, align 4
  %15 = bitcast %struct.P* %7 to i8*
  %16 = bitcast { i64, i32 }* %8 to i8*
  call void @llvm.memcpy.p0i8.p0i8.i64(i8* align 4 %15, i8* align 4 %16, i64 12, i1 false)
  %17 = getelementptr inbounds %struct.P, %struct.P* %5, i32 0, i32 0
  %18 = load i32, i32* %17, align 4
  %19 = getelementptr inbounds %struct.P, %struct.P* %7, i32 0, i32 0
  %20 = load i32, i32* %19, align 4
  %21 = sub nsw i32 %18, %20
  %22 = call i32 @abs(i32 %21) #11
  %23 = getelementptr inbounds %struct.P, %struct.P* %5, i32 0, i32 1
  %24 = load i32, i32* %23, align 4
  %25 = getelementptr inbounds %struct.P, %struct.P* %7, i32 0, i32 1
  %26 = load i32, i32* %25, align 4
  %27 = sub nsw i32 %24, %26
  %28 = call i32 @abs(i32 %27) #11
  %29 = add nsw i32 %22, %28
  %30 = getelementptr inbounds %struct.P, %struct.P* %5, i32 0, i32 2
  %31 = load i32, i32* %30, align 4
  %32 = getelementptr inbounds %struct.P, %struct.P* %7, i32 0, i32 2
  %33 = load i32, i32* %32, align 4
  %34 = sub nsw i32 %31, %33
  %35 = call i32 @abs(i32 %34) #11
  %36 = add nsw i32 %29, %35
  ret i32 %36
}

; Function Attrs: nounwind readnone
declare i32 @abs(i32) #5

; Function Attrs: noinline norecurse uwtable
define i32 @main() #6 {
  %1 = alloca i32, align 4
  %2 = alloca i32, align 4
  %3 = alloca [2 x i32], align 4
  %4 = alloca i32, align 4
  %5 = alloca i32, align 4
  %6 = alloca i32, align 4
  %7 = alloca i32, align 4
  %8 = alloca %struct.P, align 4
  %9 = alloca %struct.P, align 4
  %10 = alloca { i64, i32 }, align 4
  %11 = alloca { i64, i32 }, align 4
  %12 = alloca %struct.P, align 4
  %13 = alloca %struct.P, align 4
  %14 = alloca { i64, i32 }, align 4
  %15 = alloca { i64, i32 }, align 4
  %16 = alloca i32, align 4
  %17 = call dereferenceable(280) %"class.std::basic_istream"* @_ZNSirsERi(%"class.std::basic_istream"* @_ZSt3cin, i32* dereferenceable(4) %1)
  %18 = call dereferenceable(280) %"class.std::basic_istream"* @_ZNSirsERi(%"class.std::basic_istream"* %17, i32* dereferenceable(4) %2)
  %19 = load i32, i32* %1, align 4
  %20 = zext i32 %19 to i64
  %21 = call i8* @llvm.stacksave()
  %22 = alloca i32, i64 %20, align 16
  %23 = bitcast [2 x i32]* %3 to i8*
  call void @llvm.memset.p0i8.i64(i8* align 4 %23, i8 0, i64 8, i1 false)
  br label %24

24:                                               ; preds = %31, %0
  %.01 = phi i32 [ 0, %0 ], [ %32, %31 ]
  %25 = load i32, i32* %1, align 4
  %26 = icmp slt i32 %.01, %25
  br i1 %26, label %27, label %33

27:                                               ; preds = %24
  %28 = sext i32 %.01 to i64
  %29 = getelementptr inbounds i32, i32* %22, i64 %28
  %30 = call dereferenceable(280) %"class.std::basic_istream"* @_ZNSirsERi(%"class.std::basic_istream"* @_ZSt3cin, i32* dereferenceable(4) %29)
  br label %31

31:                                               ; preds = %27
  %32 = add nsw i32 %.01, 1
  br label %24

33:                                               ; preds = %24
  %34 = load i32, i32* %1, align 4
  %35 = sext i32 %34 to i64
  %36 = getelementptr inbounds i32, i32* %22, i64 %35
  call void @_ZSt4sortIPiEvT_S1_(i32* %22, i32* %36)
  br label %37

37:                                               ; preds = %45, %33
  %.02 = phi i32 [ 0, %33 ], [ %46, %45 ]
  %38 = icmp slt i32 %.02, 600001
  br i1 %38, label %39, label %47

39:                                               ; preds = %37
  %40 = icmp ne i32 %.02, 0
  %41 = zext i1 %40 to i64
  %42 = select i1 %40, i32 536870912, i32 0
  %43 = sext i32 %.02 to i64
  %44 = getelementptr inbounds [600001 x i32], [600001 x i32]* @d, i64 0, i64 %43
  store i32 %42, i32* %44, align 4
  br label %45

45:                                               ; preds = %39
  %46 = add nsw i32 %.02, 1
  br label %37

47:                                               ; preds = %37
  br label %48

48:                                               ; preds = %101, %47
  %.03 = phi i32 [ 0, %47 ], [ %102, %101 ]
  %49 = load i32, i32* %1, align 4
  %50 = icmp slt i32 %.03, %49
  br i1 %50, label %51, label %103

51:                                               ; preds = %48
  %52 = sext i32 %.03 to i64
  %53 = getelementptr inbounds i32, i32* %22, i64 %52
  %54 = load i32, i32* %53, align 4
  %55 = sext i32 %.03 to i64
  %56 = getelementptr inbounds i32, i32* %22, i64 %55
  %57 = load i32, i32* %56, align 4
  %58 = add nsw i32 %57, 1
  %59 = srem i32 %58, 2
  %60 = sext i32 %59 to i64
  %61 = getelementptr inbounds [2 x i32], [2 x i32]* %3, i64 0, i64 %60
  store i32 %54, i32* %61, align 4
  %62 = sext i32 %.03 to i64
  %63 = getelementptr inbounds i32, i32* %22, i64 %62
  %64 = load i32, i32* %63, align 4
  %65 = sext i32 %64 to i64
  %66 = getelementptr inbounds [600001 x i32], [600001 x i32]* @d, i64 0, i64 %65
  store i32 1, i32* %66, align 4
  %67 = sext i32 %.03 to i64
  %68 = getelementptr inbounds i32, i32* %22, i64 %67
  %69 = load i32, i32* %68, align 4
  %70 = sext i32 %.03 to i64
  %71 = getelementptr inbounds i32, i32* %22, i64 %70
  %72 = load i32, i32* %71, align 4
  %73 = srem i32 %72, 2
  %74 = sext i32 %73 to i64
  %75 = getelementptr inbounds [2 x i32], [2 x i32]* %3, i64 0, i64 %74
  %76 = load i32, i32* %75, align 4
  %77 = sub nsw i32 %69, %76
  br label %78

78:                                               ; preds = %98, %51
  %.04 = phi i32 [ %77, %51 ], [ %99, %98 ]
  %79 = sext i32 %.03 to i64
  %80 = getelementptr inbounds i32, i32* %22, i64 %79
  %81 = load i32, i32* %80, align 4
  %82 = sext i32 %.03 to i64
  %83 = getelementptr inbounds i32, i32* %22, i64 %82
  %84 = load i32, i32* %83, align 4
  %85 = srem i32 %84, 2
  %86 = sext i32 %85 to i64
  %87 = getelementptr inbounds [2 x i32], [2 x i32]* %3, i64 0, i64 %86
  %88 = load i32, i32* %87, align 4
  %89 = add nsw i32 %81, %88
  %90 = icmp sle i32 %.04, %89
  br i1 %90, label %91, label %100

91:                                               ; preds = %78
  %92 = sext i32 %.04 to i64
  %93 = getelementptr inbounds [600001 x i32], [600001 x i32]* @d, i64 0, i64 %92
  store i32 2, i32* %4, align 4
  %94 = call dereferenceable(4) i32* @_ZSt3minIiERKT_S2_S2_(i32* dereferenceable(4) %93, i32* dereferenceable(4) %4)
  %95 = load i32, i32* %94, align 4
  %96 = sext i32 %.04 to i64
  %97 = getelementptr inbounds [600001 x i32], [600001 x i32]* @d, i64 0, i64 %96
  store i32 %95, i32* %97, align 4
  br label %98

98:                                               ; preds = %91
  %99 = add nsw i32 %.04, 2
  br label %78

100:                                              ; preds = %78
  br label %101

101:                                              ; preds = %100
  %102 = add nsw i32 %.03, 1
  br label %48

103:                                              ; preds = %48
  br label %104

104:                                              ; preds = %119, %103
  %.05 = phi i32 [ 0, %103 ], [ %120, %119 ]
  %105 = load i32, i32* %1, align 4
  %106 = sub nsw i32 %105, 1
  %107 = sext i32 %106 to i64
  %108 = getelementptr inbounds i32, i32* %22, i64 %107
  %109 = load i32, i32* %108, align 4
  %110 = mul nsw i32 %109, 2
  %111 = icmp sle i32 %.05, %110
  br i1 %111, label %112, label %121

112:                                              ; preds = %104
  %113 = sext i32 %.05 to i64
  %114 = getelementptr inbounds [600001 x i32], [600001 x i32]* @d, i64 0, i64 %113
  store i32 2, i32* %5, align 4
  %115 = call dereferenceable(4) i32* @_ZSt3minIiERKT_S2_S2_(i32* dereferenceable(4) %114, i32* dereferenceable(4) %5)
  %116 = load i32, i32* %115, align 4
  %117 = sext i32 %.05 to i64
  %118 = getelementptr inbounds [600001 x i32], [600001 x i32]* @d, i64 0, i64 %117
  store i32 %116, i32* %118, align 4
  br label %119

119:                                              ; preds = %112
  %120 = add nsw i32 %.05, 2
  br label %104

121:                                              ; preds = %104
  br label %122

122:                                              ; preds = %146, %121
  %.06 = phi i32 [ 0, %121 ], [ %147, %146 ]
  %123 = icmp slt i32 %.06, 600001
  br i1 %123, label %124, label %148

124:                                              ; preds = %122
  %125 = sext i32 %.06 to i64
  %126 = getelementptr inbounds [600001 x i32], [600001 x i32]* @d, i64 0, i64 %125
  %127 = getelementptr inbounds [2 x i32], [2 x i32]* %3, i64 0, i64 0
  %128 = load i32, i32* %127, align 4
  %129 = sub nsw i32 %.06, %128
  %130 = call i32 @abs(i32 %129) #11
  %131 = sext i32 %130 to i64
  %132 = getelementptr inbounds [600001 x i32], [600001 x i32]* @d, i64 0, i64 %131
  %133 = getelementptr inbounds [2 x i32], [2 x i32]* %3, i64 0, i64 1
  %134 = load i32, i32* %133, align 4
  %135 = sub nsw i32 %.06, %134
  %136 = call i32 @abs(i32 %135) #11
  %137 = sext i32 %136 to i64
  %138 = getelementptr inbounds [600001 x i32], [600001 x i32]* @d, i64 0, i64 %137
  %139 = call dereferenceable(4) i32* @_ZSt3minIiERKT_S2_S2_(i32* dereferenceable(4) %132, i32* dereferenceable(4) %138)
  %140 = load i32, i32* %139, align 4
  %141 = add nsw i32 %140, 1
  store i32 %141, i32* %6, align 4
  %142 = call dereferenceable(4) i32* @_ZSt3minIiERKT_S2_S2_(i32* dereferenceable(4) %126, i32* dereferenceable(4) %6)
  %143 = load i32, i32* %142, align 4
  %144 = sext i32 %.06 to i64
  %145 = getelementptr inbounds [600001 x i32], [600001 x i32]* @d, i64 0, i64 %144
  store i32 %143, i32* %145, align 4
  br label %146

146:                                              ; preds = %124
  %147 = add nsw i32 %.06, 1
  br label %122

148:                                              ; preds = %122
  br label %149

149:                                              ; preds = %165, %148
  %.07 = phi i32 [ 0, %148 ], [ %166, %165 ]
  %150 = load i32, i32* %2, align 4
  %151 = icmp slt i32 %.07, %150
  br i1 %151, label %152, label %167

152:                                              ; preds = %149
  %153 = sext i32 %.07 to i64
  %154 = getelementptr inbounds [15 x %struct.P], [15 x %struct.P]* @b, i64 0, i64 %153
  %155 = getelementptr inbounds %struct.P, %struct.P* %154, i32 0, i32 0
  %156 = call dereferenceable(280) %"class.std::basic_istream"* @_ZNSirsERi(%"class.std::basic_istream"* @_ZSt3cin, i32* dereferenceable(4) %155)
  %157 = sext i32 %.07 to i64
  %158 = getelementptr inbounds [15 x %struct.P], [15 x %struct.P]* @b, i64 0, i64 %157
  %159 = getelementptr inbounds %struct.P, %struct.P* %158, i32 0, i32 1
  %160 = call dereferenceable(280) %"class.std::basic_istream"* @_ZNSirsERi(%"class.std::basic_istream"* %156, i32* dereferenceable(4) %159)
  %161 = sext i32 %.07 to i64
  %162 = getelementptr inbounds [15 x %struct.P], [15 x %struct.P]* @b, i64 0, i64 %161
  %163 = getelementptr inbounds %struct.P, %struct.P* %162, i32 0, i32 2
  %164 = call dereferenceable(280) %"class.std::basic_istream"* @_ZNSirsERi(%"class.std::basic_istream"* %160, i32* dereferenceable(4) %163)
  br label %165

165:                                              ; preds = %152
  %166 = add nsw i32 %.07, 1
  br label %149

167:                                              ; preds = %149
  %168 = load i32, i32* %2, align 4
  %169 = zext i32 %168 to i64
  %170 = load i32, i32* %2, align 4
  %171 = zext i32 %170 to i64
  %172 = mul nuw i64 %169, %171
  %173 = alloca i32, i64 %172, align 16
  %174 = load i32, i32* %2, align 4
  %175 = shl i32 1, %174
  %176 = zext i32 %175 to i64
  %177 = load i32, i32* %2, align 4
  %178 = zext i32 %177 to i64
  %179 = mul nuw i64 %176, %178
  %180 = alloca i32, i64 %179, align 16
  store i32 536870912, i32* %7, align 4
  br label %181

181:                                              ; preds = %221, %167
  %.08 = phi i32 [ 0, %167 ], [ %222, %221 ]
  %182 = load i32, i32* %2, align 4
  %183 = icmp slt i32 %.08, %182
  br i1 %183, label %184, label %223

184:                                              ; preds = %181
  br label %185

185:                                              ; preds = %218, %184
  %.09 = phi i32 [ 0, %184 ], [ %219, %218 ]
  %186 = load i32, i32* %2, align 4
  %187 = icmp slt i32 %.09, %186
  br i1 %187, label %188, label %220

188:                                              ; preds = %185
  %189 = sext i32 %.08 to i64
  %190 = getelementptr inbounds [15 x %struct.P], [15 x %struct.P]* @b, i64 0, i64 %189
  %191 = bitcast %struct.P* %8 to i8*
  %192 = bitcast %struct.P* %190 to i8*
  call void @llvm.memcpy.p0i8.p0i8.i64(i8* align 4 %191, i8* align 4 %192, i64 12, i1 false)
  %193 = sext i32 %.09 to i64
  %194 = getelementptr inbounds [15 x %struct.P], [15 x %struct.P]* @b, i64 0, i64 %193
  %195 = bitcast %struct.P* %9 to i8*
  %196 = bitcast %struct.P* %194 to i8*
  call void @llvm.memcpy.p0i8.p0i8.i64(i8* align 4 %195, i8* align 4 %196, i64 12, i1 false)
  %197 = bitcast { i64, i32 }* %10 to i8*
  %198 = bitcast %struct.P* %8 to i8*
  call void @llvm.memcpy.p0i8.p0i8.i64(i8* align 4 %197, i8* align 4 %198, i64 12, i1 false)
  %199 = getelementptr inbounds { i64, i32 }, { i64, i32 }* %10, i32 0, i32 0
  %200 = load i64, i64* %199, align 4
  %201 = getelementptr inbounds { i64, i32 }, { i64, i32 }* %10, i32 0, i32 1
  %202 = load i32, i32* %201, align 4
  %203 = bitcast { i64, i32 }* %11 to i8*
  %204 = bitcast %struct.P* %9 to i8*
  call void @llvm.memcpy.p0i8.p0i8.i64(i8* align 4 %203, i8* align 4 %204, i64 12, i1 false)
  %205 = getelementptr inbounds { i64, i32 }, { i64, i32 }* %11, i32 0, i32 0
  %206 = load i64, i64* %205, align 4
  %207 = getelementptr inbounds { i64, i32 }, { i64, i32 }* %11, i32 0, i32 1
  %208 = load i32, i32* %207, align 4
  %209 = call i32 @_Z1D1PS_(i64 %200, i32 %202, i64 %206, i32 %208)
  %210 = sext i32 %209 to i64
  %211 = getelementptr inbounds [600001 x i32], [600001 x i32]* @d, i64 0, i64 %210
  %212 = load i32, i32* %211, align 4
  %213 = sext i32 %.08 to i64
  %214 = mul nsw i64 %213, %171
  %215 = getelementptr inbounds i32, i32* %173, i64 %214
  %216 = sext i32 %.09 to i64
  %217 = getelementptr inbounds i32, i32* %215, i64 %216
  store i32 %212, i32* %217, align 4
  br label %218

218:                                              ; preds = %188
  %219 = add nsw i32 %.09, 1
  br label %185

220:                                              ; preds = %185
  br label %221

221:                                              ; preds = %220
  %222 = add nsw i32 %.08, 1
  br label %181

223:                                              ; preds = %181
  %224 = mul nsw i64 0, %178
  %225 = getelementptr inbounds i32, i32* %180, i64 %224
  %226 = load i32, i32* %2, align 4
  %227 = shl i32 1, %226
  %228 = sext i32 %227 to i64
  %229 = mul nsw i64 %228, %178
  %230 = getelementptr inbounds i32, i32* %180, i64 %229
  call void @_ZSt4fillIPiiEvT_S1_RKT0_(i32* %225, i32* %230, i32* dereferenceable(4) @_ZL3INF)
  br label %231

231:                                              ; preds = %264, %223
  %.010 = phi i32 [ 0, %223 ], [ %265, %264 ]
  %232 = load i32, i32* %2, align 4
  %233 = icmp slt i32 %.010, %232
  br i1 %233, label %234, label %266

234:                                              ; preds = %231
  %235 = getelementptr inbounds %struct.P, %struct.P* %12, i32 0, i32 0
  store i32 0, i32* %235, align 4
  %236 = getelementptr inbounds %struct.P, %struct.P* %12, i32 0, i32 1
  store i32 0, i32* %236, align 4
  %237 = getelementptr inbounds %struct.P, %struct.P* %12, i32 0, i32 2
  store i32 0, i32* %237, align 4
  %238 = sext i32 %.010 to i64
  %239 = getelementptr inbounds [15 x %struct.P], [15 x %struct.P]* @b, i64 0, i64 %238
  %240 = bitcast %struct.P* %13 to i8*
  %241 = bitcast %struct.P* %239 to i8*
  call void @llvm.memcpy.p0i8.p0i8.i64(i8* align 4 %240, i8* align 4 %241, i64 12, i1 false)
  %242 = bitcast { i64, i32 }* %14 to i8*
  %243 = bitcast %struct.P* %12 to i8*
  call void @llvm.memcpy.p0i8.p0i8.i64(i8* align 4 %242, i8* align 4 %243, i64 12, i1 false)
  %244 = getelementptr inbounds { i64, i32 }, { i64, i32 }* %14, i32 0, i32 0
  %245 = load i64, i64* %244, align 4
  %246 = getelementptr inbounds { i64, i32 }, { i64, i32 }* %14, i32 0, i32 1
  %247 = load i32, i32* %246, align 4
  %248 = bitcast { i64, i32 }* %15 to i8*
  %249 = bitcast %struct.P* %13 to i8*
  call void @llvm.memcpy.p0i8.p0i8.i64(i8* align 4 %248, i8* align 4 %249, i64 12, i1 false)
  %250 = getelementptr inbounds { i64, i32 }, { i64, i32 }* %15, i32 0, i32 0
  %251 = load i64, i64* %250, align 4
  %252 = getelementptr inbounds { i64, i32 }, { i64, i32 }* %15, i32 0, i32 1
  %253 = load i32, i32* %252, align 4
  %254 = call i32 @_Z1D1PS_(i64 %245, i32 %247, i64 %251, i32 %253)
  %255 = sext i32 %254 to i64
  %256 = getelementptr inbounds [600001 x i32], [600001 x i32]* @d, i64 0, i64 %255
  %257 = load i32, i32* %256, align 4
  %258 = shl i32 1, %.010
  %259 = sext i32 %258 to i64
  %260 = mul nsw i64 %259, %178
  %261 = getelementptr inbounds i32, i32* %180, i64 %260
  %262 = sext i32 %.010 to i64
  %263 = getelementptr inbounds i32, i32* %261, i64 %262
  store i32 %257, i32* %263, align 4
  br label %264

264:                                              ; preds = %234
  %265 = add nsw i32 %.010, 1
  br label %231

266:                                              ; preds = %231
  br label %267

267:                                              ; preds = %315, %266
  %.011 = phi i32 [ 1, %266 ], [ %316, %315 ]
  %268 = load i32, i32* %2, align 4
  %269 = shl i32 1, %268
  %270 = icmp slt i32 %.011, %269
  br i1 %270, label %271, label %317

271:                                              ; preds = %267
  br label %272

272:                                              ; preds = %312, %271
  %.012 = phi i32 [ 0, %271 ], [ %313, %312 ]
  %273 = load i32, i32* %2, align 4
  %274 = icmp slt i32 %.012, %273
  br i1 %274, label %275, label %314

275:                                              ; preds = %272
  br label %276

276:                                              ; preds = %309, %275
  %.013 = phi i32 [ 0, %275 ], [ %310, %309 ]
  %277 = load i32, i32* %2, align 4
  %278 = icmp slt i32 %.013, %277
  br i1 %278, label %279, label %311

279:                                              ; preds = %276
  %280 = shl i32 1, %.013
  %281 = or i32 %.011, %280
  %282 = sext i32 %281 to i64
  %283 = mul nsw i64 %282, %178
  %284 = getelementptr inbounds i32, i32* %180, i64 %283
  %285 = sext i32 %.013 to i64
  %286 = getelementptr inbounds i32, i32* %284, i64 %285
  %287 = sext i32 %.011 to i64
  %288 = mul nsw i64 %287, %178
  %289 = getelementptr inbounds i32, i32* %180, i64 %288
  %290 = sext i32 %.012 to i64
  %291 = getelementptr inbounds i32, i32* %289, i64 %290
  %292 = load i32, i32* %291, align 4
  %293 = sext i32 %.012 to i64
  %294 = mul nsw i64 %293, %171
  %295 = getelementptr inbounds i32, i32* %173, i64 %294
  %296 = sext i32 %.013 to i64
  %297 = getelementptr inbounds i32, i32* %295, i64 %296
  %298 = load i32, i32* %297, align 4
  %299 = add nsw i32 %292, %298
  store i32 %299, i32* %16, align 4
  %300 = call dereferenceable(4) i32* @_ZSt3minIiERKT_S2_S2_(i32* dereferenceable(4) %286, i32* dereferenceable(4) %16)
  %301 = load i32, i32* %300, align 4
  %302 = shl i32 1, %.013
  %303 = or i32 %.011, %302
  %304 = sext i32 %303 to i64
  %305 = mul nsw i64 %304, %178
  %306 = getelementptr inbounds i32, i32* %180, i64 %305
  %307 = sext i32 %.013 to i64
  %308 = getelementptr inbounds i32, i32* %306, i64 %307
  store i32 %301, i32* %308, align 4
  br label %309

309:                                              ; preds = %279
  %310 = add nsw i32 %.013, 1
  br label %276

311:                                              ; preds = %276
  br label %312

312:                                              ; preds = %311
  %313 = add nsw i32 %.012, 1
  br label %272

314:                                              ; preds = %272
  br label %315

315:                                              ; preds = %314
  %316 = add nsw i32 %.011, 1
  br label %267

317:                                              ; preds = %267
  br label %318

318:                                              ; preds = %332, %317
  %.0 = phi i32 [ 0, %317 ], [ %333, %332 ]
  %319 = load i32, i32* %2, align 4
  %320 = icmp slt i32 %.0, %319
  br i1 %320, label %321, label %334

321:                                              ; preds = %318
  %322 = load i32, i32* %2, align 4
  %323 = shl i32 1, %322
  %324 = sub nsw i32 %323, 1
  %325 = sext i32 %324 to i64
  %326 = mul nsw i64 %325, %178
  %327 = getelementptr inbounds i32, i32* %180, i64 %326
  %328 = sext i32 %.0 to i64
  %329 = getelementptr inbounds i32, i32* %327, i64 %328
  %330 = call dereferenceable(4) i32* @_ZSt3minIiERKT_S2_S2_(i32* dereferenceable(4) %7, i32* dereferenceable(4) %329)
  %331 = load i32, i32* %330, align 4
  store i32 %331, i32* %7, align 4
  br label %332

332:                                              ; preds = %321
  %333 = add nsw i32 %.0, 1
  br label %318

334:                                              ; preds = %318
  %335 = load i32, i32* %7, align 4
  %336 = icmp slt i32 %335, 536870912
  br i1 %336, label %337, label %339

337:                                              ; preds = %334
  %338 = load i32, i32* %7, align 4
  br label %340

339:                                              ; preds = %334
  br label %340

340:                                              ; preds = %339, %337
  %341 = phi i32 [ %338, %337 ], [ -1, %339 ]
  %342 = call dereferenceable(272) %"class.std::basic_ostream"* @_ZNSolsEi(%"class.std::basic_ostream"* @_ZSt4cout, i32 %341)
  %343 = call dereferenceable(272) %"class.std::basic_ostream"* @_ZNSolsEPFRSoS_E(%"class.std::basic_ostream"* %342, %"class.std::basic_ostream"* (%"class.std::basic_ostream"*)* @_ZSt4endlIcSt11char_traitsIcEERSt13basic_ostreamIT_T0_ES6_)
  call void @llvm.stackrestore(i8* %21)
  ret i32 0
}

declare dereferenceable(280) %"class.std::basic_istream"* @_ZNSirsERi(%"class.std::basic_istream"*, i32* dereferenceable(4)) #1

; Function Attrs: nocallback nofree nosync nounwind willreturn
declare i8* @llvm.stacksave() #7

; Function Attrs: noinline uwtable
define linkonce_odr void @_ZSt4sortIPiEvT_S1_(i32* %0, i32* %1) #0 comdat {
  call void @_ZN9__gnu_cxx5__ops16__iter_less_iterEv()
  call void @_ZSt6__sortIPiN9__gnu_cxx5__ops15_Iter_less_iterEEvT_S4_T0_(i32* %0, i32* %1)
  ret void
}

; Function Attrs: noinline nounwind uwtable
define linkonce_odr dereferenceable(4) i32* @_ZSt3minIiERKT_S2_S2_(i32* dereferenceable(4) %0, i32* dereferenceable(4) %1) #4 comdat {
  %3 = load i32, i32* %1, align 4
  %4 = load i32, i32* %0, align 4
  %5 = icmp slt i32 %3, %4
  br i1 %5, label %6, label %7

6:                                                ; preds = %2
  br label %8

7:                                                ; preds = %2
  br label %8

8:                                                ; preds = %7, %6
  %.0 = phi i32* [ %1, %6 ], [ %0, %7 ]
  ret i32* %.0
}

; Function Attrs: noinline uwtable
define linkonce_odr void @_ZSt4fillIPiiEvT_S1_RKT0_(i32* %0, i32* %1, i32* dereferenceable(4) %2) #0 comdat {
  %4 = call i32* @_ZSt12__niter_baseIPiET_S1_(i32* %0)
  %5 = call i32* @_ZSt12__niter_baseIPiET_S1_(i32* %1)
  call void @_ZSt8__fill_aIPiiEN9__gnu_cxx11__enable_ifIXsr11__is_scalarIT0_EE7__valueEvE6__typeET_S6_RKS3_(i32* %4, i32* %5, i32* dereferenceable(4) %2)
  ret void
}

declare dereferenceable(272) %"class.std::basic_ostream"* @_ZNSolsEi(%"class.std::basic_ostream"*, i32) #1

declare dereferenceable(272) %"class.std::basic_ostream"* @_ZNSolsEPFRSoS_E(%"class.std::basic_ostream"*, %"class.std::basic_ostream"* (%"class.std::basic_ostream"*)*) #1

declare dereferenceable(272) %"class.std::basic_ostream"* @_ZSt4endlIcSt11char_traitsIcEERSt13basic_ostreamIT_T0_ES6_(%"class.std::basic_ostream"* dereferenceable(272)) #1

; Function Attrs: nocallback nofree nosync nounwind willreturn
declare void @llvm.stackrestore(i8*) #7

; Function Attrs: noinline uwtable
define linkonce_odr void @_ZSt6__sortIPiN9__gnu_cxx5__ops15_Iter_less_iterEEvT_S4_T0_(i32* %0, i32* %1) #0 comdat {
  %3 = icmp ne i32* %0, %1
  br i1 %3, label %4, label %11

4:                                                ; preds = %2
  %5 = ptrtoint i32* %1 to i64
  %6 = ptrtoint i32* %0 to i64
  %7 = sub i64 %5, %6
  %8 = sdiv exact i64 %7, 4
  %9 = call i64 @_ZSt4__lgl(i64 %8)
  %10 = mul nsw i64 %9, 2
  call void @_ZSt16__introsort_loopIPilN9__gnu_cxx5__ops15_Iter_less_iterEEvT_S4_T0_T1_(i32* %0, i32* %1, i64 %10)
  call void @_ZSt22__final_insertion_sortIPiN9__gnu_cxx5__ops15_Iter_less_iterEEvT_S4_T0_(i32* %0, i32* %1)
  br label %11

11:                                               ; preds = %4, %2
  ret void
}

; Function Attrs: noinline nounwind uwtable
define linkonce_odr void @_ZN9__gnu_cxx5__ops16__iter_less_iterEv() #4 comdat {
  ret void
}

; Function Attrs: noinline uwtable
define linkonce_odr void @_ZSt16__introsort_loopIPilN9__gnu_cxx5__ops15_Iter_less_iterEEvT_S4_T0_T1_(i32* %0, i32* %1, i64 %2) #0 comdat {
  br label %4

4:                                                ; preds = %13, %3
  %.01 = phi i32* [ %1, %3 ], [ %15, %13 ]
  %.0 = phi i64 [ %2, %3 ], [ %14, %13 ]
  %5 = ptrtoint i32* %.01 to i64
  %6 = ptrtoint i32* %0 to i64
  %7 = sub i64 %5, %6
  %8 = sdiv exact i64 %7, 4
  %9 = icmp sgt i64 %8, 16
  br i1 %9, label %10, label %16

10:                                               ; preds = %4
  %11 = icmp eq i64 %.0, 0
  br i1 %11, label %12, label %13

12:                                               ; preds = %10
  call void @_ZSt14__partial_sortIPiN9__gnu_cxx5__ops15_Iter_less_iterEEvT_S4_S4_T0_(i32* %0, i32* %.01, i32* %.01)
  br label %16

13:                                               ; preds = %10
  %14 = add nsw i64 %.0, -1
  %15 = call i32* @_ZSt27__unguarded_partition_pivotIPiN9__gnu_cxx5__ops15_Iter_less_iterEET_S4_S4_T0_(i32* %0, i32* %.01)
  call void @_ZSt16__introsort_loopIPilN9__gnu_cxx5__ops15_Iter_less_iterEEvT_S4_T0_T1_(i32* %15, i32* %.01, i64 %14)
  br label %4

16:                                               ; preds = %12, %4
  ret void
}

; Function Attrs: noinline nounwind uwtable
define linkonce_odr i64 @_ZSt4__lgl(i64 %0) #4 comdat {
  %2 = call i64 @llvm.ctlz.i64(i64 %0, i1 true)
  %3 = trunc i64 %2 to i32
  %4 = sub nsw i32 63, %3
  %5 = sext i32 %4 to i64
  ret i64 %5
}

; Function Attrs: noinline uwtable
define linkonce_odr void @_ZSt22__final_insertion_sortIPiN9__gnu_cxx5__ops15_Iter_less_iterEEvT_S4_T0_(i32* %0, i32* %1) #0 comdat {
  %3 = ptrtoint i32* %1 to i64
  %4 = ptrtoint i32* %0 to i64
  %5 = sub i64 %3, %4
  %6 = sdiv exact i64 %5, 4
  %7 = icmp sgt i64 %6, 16
  br i1 %7, label %8, label %11

8:                                                ; preds = %2
  %9 = getelementptr inbounds i32, i32* %0, i64 16
  call void @_ZSt16__insertion_sortIPiN9__gnu_cxx5__ops15_Iter_less_iterEEvT_S4_T0_(i32* %0, i32* %9)
  %10 = getelementptr inbounds i32, i32* %0, i64 16
  call void @_ZSt26__unguarded_insertion_sortIPiN9__gnu_cxx5__ops15_Iter_less_iterEEvT_S4_T0_(i32* %10, i32* %1)
  br label %12

11:                                               ; preds = %2
  call void @_ZSt16__insertion_sortIPiN9__gnu_cxx5__ops15_Iter_less_iterEEvT_S4_T0_(i32* %0, i32* %1)
  br label %12

12:                                               ; preds = %11, %8
  ret void
}

; Function Attrs: noinline uwtable
define linkonce_odr void @_ZSt14__partial_sortIPiN9__gnu_cxx5__ops15_Iter_less_iterEEvT_S4_S4_T0_(i32* %0, i32* %1, i32* %2) #0 comdat {
  %4 = alloca %"struct.__gnu_cxx::__ops::_Iter_less_iter", align 1
  call void @_ZSt13__heap_selectIPiN9__gnu_cxx5__ops15_Iter_less_iterEEvT_S4_S4_T0_(i32* %0, i32* %1, i32* %2)
  call void @_ZSt11__sort_heapIPiN9__gnu_cxx5__ops15_Iter_less_iterEEvT_S4_RT0_(i32* %0, i32* %1, %"struct.__gnu_cxx::__ops::_Iter_less_iter"* dereferenceable(1) %4)
  ret void
}

; Function Attrs: noinline uwtable
define linkonce_odr i32* @_ZSt27__unguarded_partition_pivotIPiN9__gnu_cxx5__ops15_Iter_less_iterEET_S4_S4_T0_(i32* %0, i32* %1) #0 comdat {
  %3 = ptrtoint i32* %1 to i64
  %4 = ptrtoint i32* %0 to i64
  %5 = sub i64 %3, %4
  %6 = sdiv exact i64 %5, 4
  %7 = sdiv i64 %6, 2
  %8 = getelementptr inbounds i32, i32* %0, i64 %7
  %9 = getelementptr inbounds i32, i32* %0, i64 1
  %10 = getelementptr inbounds i32, i32* %1, i64 -1
  call void @_ZSt22__move_median_to_firstIPiN9__gnu_cxx5__ops15_Iter_less_iterEEvT_S4_S4_S4_T0_(i32* %0, i32* %9, i32* %8, i32* %10)
  %11 = getelementptr inbounds i32, i32* %0, i64 1
  %12 = call i32* @_ZSt21__unguarded_partitionIPiN9__gnu_cxx5__ops15_Iter_less_iterEET_S4_S4_S4_T0_(i32* %11, i32* %1, i32* %0)
  ret i32* %12
}

; Function Attrs: noinline uwtable
define linkonce_odr void @_ZSt13__heap_selectIPiN9__gnu_cxx5__ops15_Iter_less_iterEEvT_S4_S4_T0_(i32* %0, i32* %1, i32* %2) #0 comdat {
  %4 = alloca %"struct.__gnu_cxx::__ops::_Iter_less_iter", align 1
  call void @_ZSt11__make_heapIPiN9__gnu_cxx5__ops15_Iter_less_iterEEvT_S4_RT0_(i32* %0, i32* %1, %"struct.__gnu_cxx::__ops::_Iter_less_iter"* dereferenceable(1) %4)
  br label %5

5:                                                ; preds = %11, %3
  %.0 = phi i32* [ %1, %3 ], [ %12, %11 ]
  %6 = icmp ult i32* %.0, %2
  br i1 %6, label %7, label %13

7:                                                ; preds = %5
  %8 = call zeroext i1 @_ZNK9__gnu_cxx5__ops15_Iter_less_iterclIPiS3_EEbT_T0_(%"struct.__gnu_cxx::__ops::_Iter_less_iter"* %4, i32* %.0, i32* %0)
  br i1 %8, label %9, label %10

9:                                                ; preds = %7
  call void @_ZSt10__pop_heapIPiN9__gnu_cxx5__ops15_Iter_less_iterEEvT_S4_S4_RT0_(i32* %0, i32* %1, i32* %.0, %"struct.__gnu_cxx::__ops::_Iter_less_iter"* dereferenceable(1) %4)
  br label %10

10:                                               ; preds = %9, %7
  br label %11

11:                                               ; preds = %10
  %12 = getelementptr inbounds i32, i32* %.0, i32 1
  br label %5

13:                                               ; preds = %5
  ret void
}

; Function Attrs: noinline uwtable
define linkonce_odr void @_ZSt11__sort_heapIPiN9__gnu_cxx5__ops15_Iter_less_iterEEvT_S4_RT0_(i32* %0, i32* %1, %"struct.__gnu_cxx::__ops::_Iter_less_iter"* dereferenceable(1) %2) #0 comdat {
  br label %4

4:                                                ; preds = %10, %3
  %.0 = phi i32* [ %1, %3 ], [ %11, %10 ]
  %5 = ptrtoint i32* %.0 to i64
  %6 = ptrtoint i32* %0 to i64
  %7 = sub i64 %5, %6
  %8 = sdiv exact i64 %7, 4
  %9 = icmp sgt i64 %8, 1
  br i1 %9, label %10, label %12

10:                                               ; preds = %4
  %11 = getelementptr inbounds i32, i32* %.0, i32 -1
  call void @_ZSt10__pop_heapIPiN9__gnu_cxx5__ops15_Iter_less_iterEEvT_S4_S4_RT0_(i32* %0, i32* %11, i32* %11, %"struct.__gnu_cxx::__ops::_Iter_less_iter"* dereferenceable(1) %2)
  br label %4

12:                                               ; preds = %4
  ret void
}

; Function Attrs: noinline uwtable
define linkonce_odr void @_ZSt11__make_heapIPiN9__gnu_cxx5__ops15_Iter_less_iterEEvT_S4_RT0_(i32* %0, i32* %1, %"struct.__gnu_cxx::__ops::_Iter_less_iter"* dereferenceable(1) %2) #0 comdat {
  %4 = alloca i32, align 4
  %5 = ptrtoint i32* %1 to i64
  %6 = ptrtoint i32* %0 to i64
  %7 = sub i64 %5, %6
  %8 = sdiv exact i64 %7, 4
  %9 = icmp slt i64 %8, 2
  br i1 %9, label %10, label %11

10:                                               ; preds = %3
  br label %28

11:                                               ; preds = %3
  %12 = ptrtoint i32* %1 to i64
  %13 = ptrtoint i32* %0 to i64
  %14 = sub i64 %12, %13
  %15 = sdiv exact i64 %14, 4
  %16 = sub nsw i64 %15, 2
  %17 = sdiv i64 %16, 2
  br label %18

18:                                               ; preds = %26, %11
  %.0 = phi i64 [ %17, %11 ], [ %27, %26 ]
  %19 = getelementptr inbounds i32, i32* %0, i64 %.0
  %20 = call dereferenceable(4) i32* @_ZSt4moveIRiEONSt16remove_referenceIT_E4typeEOS2_(i32* dereferenceable(4) %19) #3
  %21 = load i32, i32* %20, align 4
  store i32 %21, i32* %4, align 4
  %22 = call dereferenceable(4) i32* @_ZSt4moveIRiEONSt16remove_referenceIT_E4typeEOS2_(i32* dereferenceable(4) %4) #3
  %23 = load i32, i32* %22, align 4
  call void @_ZSt13__adjust_heapIPiliN9__gnu_cxx5__ops15_Iter_less_iterEEvT_T0_S5_T1_T2_(i32* %0, i64 %.0, i64 %15, i32 %23)
  %24 = icmp eq i64 %.0, 0
  br i1 %24, label %25, label %26

25:                                               ; preds = %18
  br label %28

26:                                               ; preds = %18
  %27 = add nsw i64 %.0, -1
  br label %18

28:                                               ; preds = %25, %10
  ret void
}

; Function Attrs: noinline nounwind uwtable
define linkonce_odr zeroext i1 @_ZNK9__gnu_cxx5__ops15_Iter_less_iterclIPiS3_EEbT_T0_(%"struct.__gnu_cxx::__ops::_Iter_less_iter"* %0, i32* %1, i32* %2) #4 comdat align 2 {
  %4 = load i32, i32* %1, align 4
  %5 = load i32, i32* %2, align 4
  %6 = icmp slt i32 %4, %5
  ret i1 %6
}

; Function Attrs: noinline uwtable
define linkonce_odr void @_ZSt10__pop_heapIPiN9__gnu_cxx5__ops15_Iter_less_iterEEvT_S4_S4_RT0_(i32* %0, i32* %1, i32* %2, %"struct.__gnu_cxx::__ops::_Iter_less_iter"* dereferenceable(1) %3) #0 comdat {
  %5 = alloca i32, align 4
  %6 = call dereferenceable(4) i32* @_ZSt4moveIRiEONSt16remove_referenceIT_E4typeEOS2_(i32* dereferenceable(4) %2) #3
  %7 = load i32, i32* %6, align 4
  store i32 %7, i32* %5, align 4
  %8 = call dereferenceable(4) i32* @_ZSt4moveIRiEONSt16remove_referenceIT_E4typeEOS2_(i32* dereferenceable(4) %0) #3
  %9 = load i32, i32* %8, align 4
  store i32 %9, i32* %2, align 4
  %10 = ptrtoint i32* %1 to i64
  %11 = ptrtoint i32* %0 to i64
  %12 = sub i64 %10, %11
  %13 = sdiv exact i64 %12, 4
  %14 = call dereferenceable(4) i32* @_ZSt4moveIRiEONSt16remove_referenceIT_E4typeEOS2_(i32* dereferenceable(4) %5) #3
  %15 = load i32, i32* %14, align 4
  call void @_ZSt13__adjust_heapIPiliN9__gnu_cxx5__ops15_Iter_less_iterEEvT_T0_S5_T1_T2_(i32* %0, i64 0, i64 %13, i32 %15)
  ret void
}

; Function Attrs: noinline nounwind uwtable
define linkonce_odr dereferenceable(4) i32* @_ZSt4moveIRiEONSt16remove_referenceIT_E4typeEOS2_(i32* dereferenceable(4) %0) #4 comdat {
  ret i32* %0
}

; Function Attrs: noinline uwtable
define linkonce_odr void @_ZSt13__adjust_heapIPiliN9__gnu_cxx5__ops15_Iter_less_iterEEvT_T0_S5_T1_T2_(i32* %0, i64 %1, i64 %2, i32 %3) #0 comdat {
  %5 = alloca %"struct.__gnu_cxx::__ops::_Iter_less_iter", align 1
  %6 = alloca i32, align 4
  %7 = alloca %"struct.__gnu_cxx::__ops::_Iter_less_val", align 1
  store i32 %3, i32* %6, align 4
  br label %8

8:                                                ; preds = %21, %4
  %.01 = phi i64 [ %1, %4 ], [ %.1, %21 ]
  %.0 = phi i64 [ %1, %4 ], [ %.1, %21 ]
  %9 = sub nsw i64 %2, 1
  %10 = sdiv i64 %9, 2
  %11 = icmp slt i64 %.0, %10
  br i1 %11, label %12, label %26

12:                                               ; preds = %8
  %13 = add nsw i64 %.0, 1
  %14 = mul nsw i64 2, %13
  %15 = getelementptr inbounds i32, i32* %0, i64 %14
  %16 = sub nsw i64 %14, 1
  %17 = getelementptr inbounds i32, i32* %0, i64 %16
  %18 = call zeroext i1 @_ZNK9__gnu_cxx5__ops15_Iter_less_iterclIPiS3_EEbT_T0_(%"struct.__gnu_cxx::__ops::_Iter_less_iter"* %5, i32* %15, i32* %17)
  br i1 %18, label %19, label %21

19:                                               ; preds = %12
  %20 = add nsw i64 %14, -1
  br label %21

21:                                               ; preds = %19, %12
  %.1 = phi i64 [ %20, %19 ], [ %14, %12 ]
  %22 = getelementptr inbounds i32, i32* %0, i64 %.1
  %23 = call dereferenceable(4) i32* @_ZSt4moveIRiEONSt16remove_referenceIT_E4typeEOS2_(i32* dereferenceable(4) %22) #3
  %24 = load i32, i32* %23, align 4
  %25 = getelementptr inbounds i32, i32* %0, i64 %.01
  store i32 %24, i32* %25, align 4
  br label %8

26:                                               ; preds = %8
  %27 = and i64 %2, 1
  %28 = icmp eq i64 %27, 0
  br i1 %28, label %29, label %42

29:                                               ; preds = %26
  %30 = sub nsw i64 %2, 2
  %31 = sdiv i64 %30, 2
  %32 = icmp eq i64 %.0, %31
  br i1 %32, label %33, label %42

33:                                               ; preds = %29
  %34 = add nsw i64 %.0, 1
  %35 = mul nsw i64 2, %34
  %36 = sub nsw i64 %35, 1
  %37 = getelementptr inbounds i32, i32* %0, i64 %36
  %38 = call dereferenceable(4) i32* @_ZSt4moveIRiEONSt16remove_referenceIT_E4typeEOS2_(i32* dereferenceable(4) %37) #3
  %39 = load i32, i32* %38, align 4
  %40 = getelementptr inbounds i32, i32* %0, i64 %.01
  store i32 %39, i32* %40, align 4
  %41 = sub nsw i64 %35, 1
  br label %42

42:                                               ; preds = %33, %29, %26
  %.12 = phi i64 [ %41, %33 ], [ %.01, %29 ], [ %.01, %26 ]
  %43 = call dereferenceable(1) %"struct.__gnu_cxx::__ops::_Iter_less_iter"* @_ZSt4moveIRN9__gnu_cxx5__ops15_Iter_less_iterEEONSt16remove_referenceIT_E4typeEOS5_(%"struct.__gnu_cxx::__ops::_Iter_less_iter"* dereferenceable(1) %5) #3
  call void @_ZN9__gnu_cxx5__ops14_Iter_less_valC2ENS0_15_Iter_less_iterE(%"struct.__gnu_cxx::__ops::_Iter_less_val"* %7)
  %44 = call dereferenceable(4) i32* @_ZSt4moveIRiEONSt16remove_referenceIT_E4typeEOS2_(i32* dereferenceable(4) %6) #3
  %45 = load i32, i32* %44, align 4
  call void @_ZSt11__push_heapIPiliN9__gnu_cxx5__ops14_Iter_less_valEEvT_T0_S5_T1_RT2_(i32* %0, i64 %.12, i64 %1, i32 %45, %"struct.__gnu_cxx::__ops::_Iter_less_val"* dereferenceable(1) %7)
  ret void
}

; Function Attrs: noinline nounwind uwtable
define linkonce_odr dereferenceable(1) %"struct.__gnu_cxx::__ops::_Iter_less_iter"* @_ZSt4moveIRN9__gnu_cxx5__ops15_Iter_less_iterEEONSt16remove_referenceIT_E4typeEOS5_(%"struct.__gnu_cxx::__ops::_Iter_less_iter"* dereferenceable(1) %0) #4 comdat {
  ret %"struct.__gnu_cxx::__ops::_Iter_less_iter"* %0
}

; Function Attrs: noinline nounwind uwtable
define linkonce_odr void @_ZN9__gnu_cxx5__ops14_Iter_less_valC2ENS0_15_Iter_less_iterE(%"struct.__gnu_cxx::__ops::_Iter_less_val"* %0) unnamed_addr #4 comdat align 2 {
  ret void
}

; Function Attrs: noinline uwtable
define linkonce_odr void @_ZSt11__push_heapIPiliN9__gnu_cxx5__ops14_Iter_less_valEEvT_T0_S5_T1_RT2_(i32* %0, i64 %1, i64 %2, i32 %3, %"struct.__gnu_cxx::__ops::_Iter_less_val"* dereferenceable(1) %4) #0 comdat {
  %6 = alloca i32, align 4
  store i32 %3, i32* %6, align 4
  %7 = sub nsw i64 %1, 1
  %8 = sdiv i64 %7, 2
  br label %9

9:                                                ; preds = %16, %5
  %.01 = phi i64 [ %1, %5 ], [ %.0, %16 ]
  %.0 = phi i64 [ %8, %5 ], [ %22, %16 ]
  %10 = icmp sgt i64 %.01, %2
  br i1 %10, label %11, label %14

11:                                               ; preds = %9
  %12 = getelementptr inbounds i32, i32* %0, i64 %.0
  %13 = call zeroext i1 @_ZNK9__gnu_cxx5__ops14_Iter_less_valclIPiiEEbT_RT0_(%"struct.__gnu_cxx::__ops::_Iter_less_val"* %4, i32* %12, i32* dereferenceable(4) %6)
  br label %14

14:                                               ; preds = %11, %9
  %15 = phi i1 [ false, %9 ], [ %13, %11 ]
  br i1 %15, label %16, label %23

16:                                               ; preds = %14
  %17 = getelementptr inbounds i32, i32* %0, i64 %.0
  %18 = call dereferenceable(4) i32* @_ZSt4moveIRiEONSt16remove_referenceIT_E4typeEOS2_(i32* dereferenceable(4) %17) #3
  %19 = load i32, i32* %18, align 4
  %20 = getelementptr inbounds i32, i32* %0, i64 %.01
  store i32 %19, i32* %20, align 4
  %21 = sub nsw i64 %.0, 1
  %22 = sdiv i64 %21, 2
  br label %9

23:                                               ; preds = %14
  %24 = call dereferenceable(4) i32* @_ZSt4moveIRiEONSt16remove_referenceIT_E4typeEOS2_(i32* dereferenceable(4) %6) #3
  %25 = load i32, i32* %24, align 4
  %26 = getelementptr inbounds i32, i32* %0, i64 %.01
  store i32 %25, i32* %26, align 4
  ret void
}

; Function Attrs: noinline nounwind uwtable
define linkonce_odr zeroext i1 @_ZNK9__gnu_cxx5__ops14_Iter_less_valclIPiiEEbT_RT0_(%"struct.__gnu_cxx::__ops::_Iter_less_val"* %0, i32* %1, i32* dereferenceable(4) %2) #4 comdat align 2 {
  %4 = load i32, i32* %1, align 4
  %5 = load i32, i32* %2, align 4
  %6 = icmp slt i32 %4, %5
  ret i1 %6
}

; Function Attrs: noinline uwtable
define linkonce_odr void @_ZSt22__move_median_to_firstIPiN9__gnu_cxx5__ops15_Iter_less_iterEEvT_S4_S4_S4_T0_(i32* %0, i32* %1, i32* %2, i32* %3) #0 comdat {
  %5 = alloca %"struct.__gnu_cxx::__ops::_Iter_less_iter", align 1
  %6 = call zeroext i1 @_ZNK9__gnu_cxx5__ops15_Iter_less_iterclIPiS3_EEbT_T0_(%"struct.__gnu_cxx::__ops::_Iter_less_iter"* %5, i32* %1, i32* %2)
  br i1 %6, label %7, label %16

7:                                                ; preds = %4
  %8 = call zeroext i1 @_ZNK9__gnu_cxx5__ops15_Iter_less_iterclIPiS3_EEbT_T0_(%"struct.__gnu_cxx::__ops::_Iter_less_iter"* %5, i32* %2, i32* %3)
  br i1 %8, label %9, label %10

9:                                                ; preds = %7
  call void @_ZSt9iter_swapIPiS0_EvT_T0_(i32* %0, i32* %2)
  br label %15

10:                                               ; preds = %7
  %11 = call zeroext i1 @_ZNK9__gnu_cxx5__ops15_Iter_less_iterclIPiS3_EEbT_T0_(%"struct.__gnu_cxx::__ops::_Iter_less_iter"* %5, i32* %1, i32* %3)
  br i1 %11, label %12, label %13

12:                                               ; preds = %10
  call void @_ZSt9iter_swapIPiS0_EvT_T0_(i32* %0, i32* %3)
  br label %14

13:                                               ; preds = %10
  call void @_ZSt9iter_swapIPiS0_EvT_T0_(i32* %0, i32* %1)
  br label %14

14:                                               ; preds = %13, %12
  br label %15

15:                                               ; preds = %14, %9
  br label %25

16:                                               ; preds = %4
  %17 = call zeroext i1 @_ZNK9__gnu_cxx5__ops15_Iter_less_iterclIPiS3_EEbT_T0_(%"struct.__gnu_cxx::__ops::_Iter_less_iter"* %5, i32* %1, i32* %3)
  br i1 %17, label %18, label %19

18:                                               ; preds = %16
  call void @_ZSt9iter_swapIPiS0_EvT_T0_(i32* %0, i32* %1)
  br label %24

19:                                               ; preds = %16
  %20 = call zeroext i1 @_ZNK9__gnu_cxx5__ops15_Iter_less_iterclIPiS3_EEbT_T0_(%"struct.__gnu_cxx::__ops::_Iter_less_iter"* %5, i32* %2, i32* %3)
  br i1 %20, label %21, label %22

21:                                               ; preds = %19
  call void @_ZSt9iter_swapIPiS0_EvT_T0_(i32* %0, i32* %3)
  br label %23

22:                                               ; preds = %19
  call void @_ZSt9iter_swapIPiS0_EvT_T0_(i32* %0, i32* %2)
  br label %23

23:                                               ; preds = %22, %21
  br label %24

24:                                               ; preds = %23, %18
  br label %25

25:                                               ; preds = %24, %15
  ret void
}

; Function Attrs: noinline nounwind uwtable
define linkonce_odr i32* @_ZSt21__unguarded_partitionIPiN9__gnu_cxx5__ops15_Iter_less_iterEET_S4_S4_S4_T0_(i32* %0, i32* %1, i32* %2) #4 comdat {
  %4 = alloca %"struct.__gnu_cxx::__ops::_Iter_less_iter", align 1
  br label %5

5:                                                ; preds = %19, %3
  %.01 = phi i32* [ %1, %3 ], [ %.12, %19 ]
  %.0 = phi i32* [ %0, %3 ], [ %20, %19 ]
  br label %6

6:                                                ; preds = %8, %5
  %.1 = phi i32* [ %.0, %5 ], [ %9, %8 ]
  %7 = call zeroext i1 @_ZNK9__gnu_cxx5__ops15_Iter_less_iterclIPiS3_EEbT_T0_(%"struct.__gnu_cxx::__ops::_Iter_less_iter"* %4, i32* %.1, i32* %2)
  br i1 %7, label %8, label %10

8:                                                ; preds = %6
  %9 = getelementptr inbounds i32, i32* %.1, i32 1
  br label %6

10:                                               ; preds = %6
  %11 = getelementptr inbounds i32, i32* %.01, i32 -1
  br label %12

12:                                               ; preds = %14, %10
  %.12 = phi i32* [ %11, %10 ], [ %15, %14 ]
  %13 = call zeroext i1 @_ZNK9__gnu_cxx5__ops15_Iter_less_iterclIPiS3_EEbT_T0_(%"struct.__gnu_cxx::__ops::_Iter_less_iter"* %4, i32* %2, i32* %.12)
  br i1 %13, label %14, label %16

14:                                               ; preds = %12
  %15 = getelementptr inbounds i32, i32* %.12, i32 -1
  br label %12

16:                                               ; preds = %12
  %17 = icmp ult i32* %.1, %.12
  br i1 %17, label %19, label %18

18:                                               ; preds = %16
  ret i32* %.1

19:                                               ; preds = %16
  call void @_ZSt9iter_swapIPiS0_EvT_T0_(i32* %.1, i32* %.12)
  %20 = getelementptr inbounds i32, i32* %.1, i32 1
  br label %5
}

; Function Attrs: noinline nounwind uwtable
define linkonce_odr void @_ZSt9iter_swapIPiS0_EvT_T0_(i32* %0, i32* %1) #4 comdat {
  call void @_ZSt4swapIiENSt9enable_ifIXsr6__and_ISt6__not_ISt15__is_tuple_likeIT_EESt21is_move_constructibleIS3_ESt18is_move_assignableIS3_EEE5valueEvE4typeERS3_SC_(i32* dereferenceable(4) %0, i32* dereferenceable(4) %1) #3
  ret void
}

; Function Attrs: noinline nounwind uwtable
define linkonce_odr void @_ZSt4swapIiENSt9enable_ifIXsr6__and_ISt6__not_ISt15__is_tuple_likeIT_EESt21is_move_constructibleIS3_ESt18is_move_assignableIS3_EEE5valueEvE4typeERS3_SC_(i32* dereferenceable(4) %0, i32* dereferenceable(4) %1) #4 comdat {
  %3 = alloca i32, align 4
  %4 = call dereferenceable(4) i32* @_ZSt4moveIRiEONSt16remove_referenceIT_E4typeEOS2_(i32* dereferenceable(4) %0) #3
  %5 = load i32, i32* %4, align 4
  store i32 %5, i32* %3, align 4
  %6 = call dereferenceable(4) i32* @_ZSt4moveIRiEONSt16remove_referenceIT_E4typeEOS2_(i32* dereferenceable(4) %1) #3
  %7 = load i32, i32* %6, align 4
  store i32 %7, i32* %0, align 4
  %8 = call dereferenceable(4) i32* @_ZSt4moveIRiEONSt16remove_referenceIT_E4typeEOS2_(i32* dereferenceable(4) %3) #3
  %9 = load i32, i32* %8, align 4
  store i32 %9, i32* %1, align 4
  ret void
}

; Function Attrs: nocallback nofree nosync nounwind readnone speculatable willreturn
declare i64 @llvm.ctlz.i64(i64, i1 immarg) #8

; Function Attrs: noinline uwtable
define linkonce_odr void @_ZSt16__insertion_sortIPiN9__gnu_cxx5__ops15_Iter_less_iterEEvT_S4_T0_(i32* %0, i32* %1) #0 comdat {
  %3 = alloca %"struct.__gnu_cxx::__ops::_Iter_less_iter", align 1
  %4 = alloca i32, align 4
  %5 = icmp eq i32* %0, %1
  br i1 %5, label %6, label %7

6:                                                ; preds = %2
  br label %24

7:                                                ; preds = %2
  %8 = getelementptr inbounds i32, i32* %0, i64 1
  br label %9

9:                                                ; preds = %22, %7
  %.0 = phi i32* [ %8, %7 ], [ %23, %22 ]
  %10 = icmp ne i32* %.0, %1
  br i1 %10, label %11, label %24

11:                                               ; preds = %9
  %12 = call zeroext i1 @_ZNK9__gnu_cxx5__ops15_Iter_less_iterclIPiS3_EEbT_T0_(%"struct.__gnu_cxx::__ops::_Iter_less_iter"* %3, i32* %.0, i32* %0)
  br i1 %12, label %13, label %20

13:                                               ; preds = %11
  %14 = call dereferenceable(4) i32* @_ZSt4moveIRiEONSt16remove_referenceIT_E4typeEOS2_(i32* dereferenceable(4) %.0) #3
  %15 = load i32, i32* %14, align 4
  store i32 %15, i32* %4, align 4
  %16 = getelementptr inbounds i32, i32* %.0, i64 1
  %17 = call i32* @_ZSt13move_backwardIPiS0_ET0_T_S2_S1_(i32* %0, i32* %.0, i32* %16)
  %18 = call dereferenceable(4) i32* @_ZSt4moveIRiEONSt16remove_referenceIT_E4typeEOS2_(i32* dereferenceable(4) %4) #3
  %19 = load i32, i32* %18, align 4
  store i32 %19, i32* %0, align 4
  br label %21

20:                                               ; preds = %11
  call void @_ZN9__gnu_cxx5__ops15__val_comp_iterENS0_15_Iter_less_iterE()
  call void @_ZSt25__unguarded_linear_insertIPiN9__gnu_cxx5__ops14_Val_less_iterEEvT_T0_(i32* %.0)
  br label %21

21:                                               ; preds = %20, %13
  br label %22

22:                                               ; preds = %21
  %23 = getelementptr inbounds i32, i32* %.0, i32 1
  br label %9

24:                                               ; preds = %9, %6
  ret void
}

; Function Attrs: noinline uwtable
define linkonce_odr void @_ZSt26__unguarded_insertion_sortIPiN9__gnu_cxx5__ops15_Iter_less_iterEEvT_S4_T0_(i32* %0, i32* %1) #0 comdat {
  br label %3

3:                                                ; preds = %6, %2
  %.0 = phi i32* [ %0, %2 ], [ %7, %6 ]
  %4 = icmp ne i32* %.0, %1
  br i1 %4, label %5, label %8

5:                                                ; preds = %3
  call void @_ZN9__gnu_cxx5__ops15__val_comp_iterENS0_15_Iter_less_iterE()
  call void @_ZSt25__unguarded_linear_insertIPiN9__gnu_cxx5__ops14_Val_less_iterEEvT_T0_(i32* %.0)
  br label %6

6:                                                ; preds = %5
  %7 = getelementptr inbounds i32, i32* %.0, i32 1
  br label %3

8:                                                ; preds = %3
  ret void
}

; Function Attrs: noinline uwtable
define linkonce_odr i32* @_ZSt13move_backwardIPiS0_ET0_T_S2_S1_(i32* %0, i32* %1, i32* %2) #0 comdat {
  %4 = call i32* @_ZSt12__miter_baseIPiET_S1_(i32* %0)
  %5 = call i32* @_ZSt12__miter_baseIPiET_S1_(i32* %1)
  %6 = call i32* @_ZSt23__copy_move_backward_a2ILb1EPiS0_ET1_T0_S2_S1_(i32* %4, i32* %5, i32* %2)
  ret i32* %6
}

; Function Attrs: noinline uwtable
define linkonce_odr void @_ZSt25__unguarded_linear_insertIPiN9__gnu_cxx5__ops14_Val_less_iterEEvT_T0_(i32* %0) #0 comdat {
  %2 = alloca %"struct.__gnu_cxx::__ops::_Val_less_iter", align 1
  %3 = alloca i32, align 4
  %4 = call dereferenceable(4) i32* @_ZSt4moveIRiEONSt16remove_referenceIT_E4typeEOS2_(i32* dereferenceable(4) %0) #3
  %5 = load i32, i32* %4, align 4
  store i32 %5, i32* %3, align 4
  %6 = getelementptr inbounds i32, i32* %0, i32 -1
  br label %7

7:                                                ; preds = %9, %1
  %.01 = phi i32* [ %6, %1 ], [ %12, %9 ]
  %.0 = phi i32* [ %0, %1 ], [ %.01, %9 ]
  %8 = call zeroext i1 @_ZNK9__gnu_cxx5__ops14_Val_less_iterclIiPiEEbRT_T0_(%"struct.__gnu_cxx::__ops::_Val_less_iter"* %2, i32* dereferenceable(4) %3, i32* %.01)
  br i1 %8, label %9, label %13

9:                                                ; preds = %7
  %10 = call dereferenceable(4) i32* @_ZSt4moveIRiEONSt16remove_referenceIT_E4typeEOS2_(i32* dereferenceable(4) %.01) #3
  %11 = load i32, i32* %10, align 4
  store i32 %11, i32* %.0, align 4
  %12 = getelementptr inbounds i32, i32* %.01, i32 -1
  br label %7

13:                                               ; preds = %7
  %14 = call dereferenceable(4) i32* @_ZSt4moveIRiEONSt16remove_referenceIT_E4typeEOS2_(i32* dereferenceable(4) %3) #3
  %15 = load i32, i32* %14, align 4
  store i32 %15, i32* %.0, align 4
  ret void
}

; Function Attrs: noinline nounwind uwtable
define linkonce_odr void @_ZN9__gnu_cxx5__ops15__val_comp_iterENS0_15_Iter_less_iterE() #4 comdat {
  ret void
}

; Function Attrs: noinline uwtable
define linkonce_odr i32* @_ZSt23__copy_move_backward_a2ILb1EPiS0_ET1_T0_S2_S1_(i32* %0, i32* %1, i32* %2) #0 comdat {
  %4 = call i32* @_ZSt12__niter_baseIPiET_S1_(i32* %0)
  %5 = call i32* @_ZSt12__niter_baseIPiET_S1_(i32* %1)
  %6 = call i32* @_ZSt12__niter_baseIPiET_S1_(i32* %2)
  %7 = call i32* @_ZSt22__copy_move_backward_aILb1EPiS0_ET1_T0_S2_S1_(i32* %4, i32* %5, i32* %6)
  ret i32* %7
}

; Function Attrs: noinline nounwind uwtable
define linkonce_odr i32* @_ZSt12__miter_baseIPiET_S1_(i32* %0) #4 comdat {
  ret i32* %0
}

; Function Attrs: noinline uwtable
define linkonce_odr i32* @_ZSt22__copy_move_backward_aILb1EPiS0_ET1_T0_S2_S1_(i32* %0, i32* %1, i32* %2) #0 comdat {
  %4 = call i32* @_ZNSt20__copy_move_backwardILb1ELb1ESt26random_access_iterator_tagE13__copy_move_bIiEEPT_PKS3_S6_S4_(i32* %0, i32* %1, i32* %2)
  ret i32* %4
}

; Function Attrs: noinline nounwind uwtable
define linkonce_odr i32* @_ZSt12__niter_baseIPiET_S1_(i32* %0) #4 comdat {
  ret i32* %0
}

; Function Attrs: noinline nounwind uwtable
define linkonce_odr i32* @_ZNSt20__copy_move_backwardILb1ELb1ESt26random_access_iterator_tagE13__copy_move_bIiEEPT_PKS3_S6_S4_(i32* %0, i32* %1, i32* %2) #4 comdat align 2 {
  %4 = ptrtoint i32* %1 to i64
  %5 = ptrtoint i32* %0 to i64
  %6 = sub i64 %4, %5
  %7 = sdiv exact i64 %6, 4
  %8 = icmp ne i64 %7, 0
  br i1 %8, label %9, label %15

9:                                                ; preds = %3
  %10 = sub i64 0, %7
  %11 = getelementptr inbounds i32, i32* %2, i64 %10
  %12 = bitcast i32* %11 to i8*
  %13 = bitcast i32* %0 to i8*
  %14 = mul i64 4, %7
  call void @llvm.memmove.p0i8.p0i8.i64(i8* align 4 %12, i8* align 4 %13, i64 %14, i1 false)
  br label %15

15:                                               ; preds = %9, %3
  %16 = sub i64 0, %7
  %17 = getelementptr inbounds i32, i32* %2, i64 %16
  ret i32* %17
}

; Function Attrs: noinline nounwind uwtable
define linkonce_odr zeroext i1 @_ZNK9__gnu_cxx5__ops14_Val_less_iterclIiPiEEbRT_T0_(%"struct.__gnu_cxx::__ops::_Val_less_iter"* %0, i32* dereferenceable(4) %1, i32* %2) #4 comdat align 2 {
  %4 = load i32, i32* %1, align 4
  %5 = load i32, i32* %2, align 4
  %6 = icmp slt i32 %4, %5
  ret i1 %6
}

; Function Attrs: noinline nounwind uwtable
define linkonce_odr void @_ZSt8__fill_aIPiiEN9__gnu_cxx11__enable_ifIXsr11__is_scalarIT0_EE7__valueEvE6__typeET_S6_RKS3_(i32* %0, i32* %1, i32* dereferenceable(4) %2) #4 comdat {
  %4 = load i32, i32* %2, align 4
  br label %5

5:                                                ; preds = %8, %3
  %.0 = phi i32* [ %0, %3 ], [ %9, %8 ]
  %6 = icmp ne i32* %.0, %1
  br i1 %6, label %7, label %10

7:                                                ; preds = %5
  store i32 %4, i32* %.0, align 4
  br label %8

8:                                                ; preds = %7
  %9 = getelementptr inbounds i32, i32* %.0, i32 1
  br label %5

10:                                               ; preds = %5
  ret void
}

; Function Attrs: noinline uwtable
define internal void @_GLOBAL__sub_I_s688815695.cpp() #0 section ".text.startup" {
  call void @__cxx_global_var_init()
  ret void
}

; Function Attrs: argmemonly nocallback nofree nounwind willreturn
declare void @llvm.memcpy.p0i8.p0i8.i64(i8* noalias nocapture writeonly, i8* noalias nocapture readonly, i64, i1 immarg) #9

; Function Attrs: argmemonly nocallback nofree nounwind willreturn writeonly
declare void @llvm.memset.p0i8.i64(i8* nocapture writeonly, i8, i64, i1 immarg) #10

; Function Attrs: argmemonly nocallback nofree nounwind willreturn
declare void @llvm.memmove.p0i8.p0i8.i64(i8* nocapture writeonly, i8* nocapture readonly, i64, i1 immarg) #9

attributes #0 = { noinline uwtable "correctly-rounded-divide-sqrt-fp-math"="false" "disable-tail-calls"="false" "less-precise-fpmad"="false" "no-frame-pointer-elim"="true" "no-frame-pointer-elim-non-leaf" "no-infs-fp-math"="false" "no-jump-tables"="false" "no-nans-fp-math"="false" "no-signed-zeros-fp-math"="false" "no-trapping-math"="false" "stack-protector-buffer-size"="8" "target-cpu"="x86-64" "target-features"="+fxsr,+mmx,+sse,+sse2,+x87" "unsafe-fp-math"="false" "use-soft-float"="false" }
attributes #1 = { "correctly-rounded-divide-sqrt-fp-math"="false" "disable-tail-calls"="false" "less-precise-fpmad"="false" "no-frame-pointer-elim"="true" "no-frame-pointer-elim-non-leaf" "no-infs-fp-math"="false" "no-nans-fp-math"="false" "no-signed-zeros-fp-math"="false" "no-trapping-math"="false" "stack-protector-buffer-size"="8" "target-cpu"="x86-64" "target-features"="+fxsr,+mmx,+sse,+sse2,+x87" "unsafe-fp-math"="false" "use-soft-float"="false" }
attributes #2 = { nounwind "correctly-rounded-divide-sqrt-fp-math"="false" "disable-tail-calls"="false" "less-precise-fpmad"="false" "no-frame-pointer-elim"="true" "no-frame-pointer-elim-non-leaf" "no-infs-fp-math"="false" "no-nans-fp-math"="false" "no-signed-zeros-fp-math"="false" "no-trapping-math"="false" "stack-protector-buffer-size"="8" "target-cpu"="x86-64" "target-features"="+fxsr,+mmx,+sse,+sse2,+x87" "unsafe-fp-math"="false" "use-soft-float"="false" }
attributes #3 = { nounwind }
attributes #4 = { noinline nounwind uwtable "correctly-rounded-divide-sqrt-fp-math"="false" "disable-tail-calls"="false" "less-precise-fpmad"="false" "no-frame-pointer-elim"="true" "no-frame-pointer-elim-non-leaf" "no-infs-fp-math"="false" "no-jump-tables"="false" "no-nans-fp-math"="false" "no-signed-zeros-fp-math"="false" "no-trapping-math"="false" "stack-protector-buffer-size"="8" "target-cpu"="x86-64" "target-features"="+fxsr,+mmx,+sse,+sse2,+x87" "unsafe-fp-math"="false" "use-soft-float"="false" }
attributes #5 = { nounwind readnone "correctly-rounded-divide-sqrt-fp-math"="false" "disable-tail-calls"="false" "less-precise-fpmad"="false" "no-frame-pointer-elim"="true" "no-frame-pointer-elim-non-leaf" "no-infs-fp-math"="false" "no-nans-fp-math"="false" "no-signed-zeros-fp-math"="false" "no-trapping-math"="false" "stack-protector-buffer-size"="8" "target-cpu"="x86-64" "target-features"="+fxsr,+mmx,+sse,+sse2,+x87" "unsafe-fp-math"="false" "use-soft-float"="false" }
attributes #6 = { noinline norecurse uwtable "correctly-rounded-divide-sqrt-fp-math"="false" "disable-tail-calls"="false" "less-precise-fpmad"="false" "no-frame-pointer-elim"="true" "no-frame-pointer-elim-non-leaf" "no-infs-fp-math"="false" "no-jump-tables"="false" "no-nans-fp-math"="false" "no-signed-zeros-fp-math"="false" "no-trapping-math"="false" "stack-protector-buffer-size"="8" "target-cpu"="x86-64" "target-features"="+fxsr,+mmx,+sse,+sse2,+x87" "unsafe-fp-math"="false" "use-soft-float"="false" }
attributes #7 = { nocallback nofree nosync nounwind willreturn }
attributes #8 = { nocallback nofree nosync nounwind readnone speculatable willreturn }
attributes #9 = { argmemonly nocallback nofree nounwind willreturn }
attributes #10 = { argmemonly nocallback nofree nounwind willreturn writeonly }
attributes #11 = { nounwind readnone }

!llvm.module.flags = !{!0}
!llvm.ident = !{!1}

!0 = !{i32 1, !"wchar_size", i32 4}
!1 = !{!"clang version 6.0.0-1ubuntu2 (tags/RELEASE_600/final)"}
