; ModuleID = '/home/pedro/tcc/exDataset/codenet/data/selection/p01041/s683083263.ll'
source_filename = "/home/pedro/tcc/exDataset/codenet/data/selection/p01041/s683083263.cpp"
target datalayout = "e-m:e-i64:64-f80:128-n8:16:32:64-S128"
target triple = "x86_64-pc-linux-gnu"

%"class.std::ios_base::Init" = type { i8 }
%"class.std::basic_istream" = type { i32 (...)**, i64, %"class.std::basic_ios" }
%"class.std::basic_ios" = type { %"class.std::ios_base", %"class.std::basic_ostream"*, i8, i8, %"class.std::basic_streambuf"*, %"class.std::ctype"*, %"class.std::num_put"*, %"class.std::num_get"* }
%"class.std::ios_base" = type { i32 (...)**, i64, i64, i32, i32, i32, %"struct.std::ios_base::_Callback_list"*, %"struct.std::ios_base::_Words", [8 x %"struct.std::ios_base::_Words"], i32, %"struct.std::ios_base::_Words"*, %"class.std::locale" }
%"struct.std::ios_base::_Callback_list" = type { %"struct.std::ios_base::_Callback_list"*, void (i32, %"class.std::ios_base"*, i32)*, i32, i32 }
%"struct.std::ios_base::_Words" = type { i8*, i64 }
%"class.std::locale" = type { %"class.std::locale::_Impl"* }
%"class.std::locale::_Impl" = type { i32, %"class.std::locale::facet"**, i64, %"class.std::locale::facet"**, i8** }
%"class.std::locale::facet" = type <{ i32 (...)**, i32, [4 x i8] }>
%"class.std::basic_ostream" = type { i32 (...)**, %"class.std::basic_ios" }
%"class.std::basic_streambuf" = type { i32 (...)**, i8*, i8*, i8*, i8*, i8*, i8*, %"class.std::locale" }
%"class.std::ctype" = type <{ %"class.std::locale::facet.base", [4 x i8], %struct.__locale_struct*, i8, [7 x i8], i32*, i32*, i16*, i8, [256 x i8], [256 x i8], i8, [6 x i8] }>
%"class.std::locale::facet.base" = type <{ i32 (...)**, i32 }>
%struct.__locale_struct = type { [13 x %struct.__locale_data*], i16*, i32*, i32*, [13 x i8*] }
%struct.__locale_data = type opaque
%"class.std::num_put" = type { %"class.std::locale::facet.base", [4 x i8] }
%"class.std::num_get" = type { %"class.std::locale::facet.base", [4 x i8] }
%"class.std::vector" = type { %"struct.std::_Vector_base" }
%"struct.std::_Vector_base" = type { %"struct.std::_Vector_base<std::pair<std::__cxx11::basic_string<char>, int>, std::allocator<std::pair<std::__cxx11::basic_string<char>, int> > >::_Vector_impl" }
%"struct.std::_Vector_base<std::pair<std::__cxx11::basic_string<char>, int>, std::allocator<std::pair<std::__cxx11::basic_string<char>, int> > >::_Vector_impl" = type { %"struct.std::pair"*, %"struct.std::pair"*, %"struct.std::pair"* }
%"struct.std::pair" = type <{ %"class.std::__cxx11::basic_string", i32, [4 x i8] }>
%"class.std::__cxx11::basic_string" = type { %"struct.std::__cxx11::basic_string<char, std::char_traits<char>, std::allocator<char> >::_Alloc_hider", i64, %union.anon }
%"struct.std::__cxx11::basic_string<char, std::char_traits<char>, std::allocator<char> >::_Alloc_hider" = type { i8* }
%union.anon = type { i64, [8 x i8] }
%"class.std::allocator" = type { i8 }
%"class.__gnu_cxx::__normal_iterator" = type { %"struct.std::pair"* }
%"class.std::vector.3" = type { %"struct.std::_Vector_base.4" }
%"struct.std::_Vector_base.4" = type { %"struct.std::_Vector_base<int, std::allocator<int> >::_Vector_impl" }
%"struct.std::_Vector_base<int, std::allocator<int> >::_Vector_impl" = type { i32*, i32*, i32* }
%"class.std::allocator.5" = type { i8 }
%"class.lc::SegmentTree" = type <{ %"struct.lc::MinTraits", [7 x i8], %"class.std::vector.3", i32, [4 x i8] }>
%"struct.lc::MinTraits" = type { i8 }
%"class.__gnu_cxx::__normal_iterator.8" = type { i32* }
%"class.std::vector.9" = type { %"struct.std::_Vector_base.10" }
%"struct.std::_Vector_base.10" = type { %"struct.std::_Vector_base<long long, std::allocator<long long> >::_Vector_impl" }
%"struct.std::_Vector_base<long long, std::allocator<long long> >::_Vector_impl" = type { i64*, i64*, i64* }
%"class.std::allocator.11" = type { i8 }
%"class.lc::SegmentTree.14" = type <{ %"struct.lc::MinTraits.15", [7 x i8], %"class.std::vector.9", i32, [4 x i8] }>
%"struct.lc::MinTraits.15" = type { i8 }
%"class.__gnu_cxx::__normal_iterator.17" = type { i64* }
%"class.__gnu_cxx::new_allocator" = type { i8 }
%"class.__gnu_cxx::new_allocator.6" = type { i8 }
%"class.__gnu_cxx::new_allocator.12" = type { i8 }
%"class.std::__pair_base" = type { i8 }
%"struct.__gnu_cxx::__ops::_Iter_less_iter" = type { i8 }
%"struct.__gnu_cxx::__ops::_Iter_less_val" = type { i8 }
%"struct.__gnu_cxx::__ops::_Val_less_iter" = type { i8 }
%"struct.std::vector<int, std::allocator<int> >::_Temporary_value" = type <{ %"class.std::vector.3"*, %"union.std::aligned_storage<4, 4>::type", [4 x i8] }>
%"union.std::aligned_storage<4, 4>::type" = type { [4 x i8] }
%"class.std::move_iterator" = type { i32* }
%"struct.std::vector<long long, std::allocator<long long> >::_Temporary_value" = type { %"class.std::vector.9"*, %"union.std::aligned_storage<8, 8>::type" }
%"union.std::aligned_storage<8, 8>::type" = type { [8 x i8] }
%"class.std::move_iterator.19" = type { i64* }

$_ZNSaISt4pairINSt7__cxx1112basic_stringIcSt11char_traitsIcESaIcEEEiEEC2Ev = comdat any

$_ZNSt6vectorISt4pairINSt7__cxx1112basic_stringIcSt11char_traitsIcESaIcEEEiESaIS7_EEC2EmRKS8_ = comdat any

$_ZNSaISt4pairINSt7__cxx1112basic_stringIcSt11char_traitsIcESaIcEEEiEED2Ev = comdat any

$_ZNSt6vectorISt4pairINSt7__cxx1112basic_stringIcSt11char_traitsIcESaIcEEEiESaIS7_EEixEm = comdat any

$_ZSt4sortIN9__gnu_cxx17__normal_iteratorIPSt4pairINSt7__cxx1112basic_stringIcSt11char_traitsIcESaIcEEEiESt6vectorIS9_SaIS9_EEEEEvT_SF_ = comdat any

$_ZNSt6vectorISt4pairINSt7__cxx1112basic_stringIcSt11char_traitsIcESaIcEEEiESaIS7_EE5beginEv = comdat any

$_ZNSt6vectorISt4pairINSt7__cxx1112basic_stringIcSt11char_traitsIcESaIcEEEiESaIS7_EE3endEv = comdat any

$_ZNSaIiEC2Ev = comdat any

$_ZNSt6vectorIiSaIiEEC2EmRKS0_ = comdat any

$_ZNSaIiED2Ev = comdat any

$_ZNSt6vectorIiSaIiEEixEm = comdat any

$_ZSt3minImERKT_S2_S2_ = comdat any

$_ZNSt6vectorIiSaIiEE5beginEv = comdat any

$_ZNSt6vectorIiSaIiEE3endEv = comdat any

$_ZN2lc11SegmentTreeINS_9MinTraitsIiEEEC2IN9__gnu_cxx17__normal_iteratorIPiSt6vectorIiSaIiEEEEEET_SC_RKS2_ = comdat any

$_ZNK2lc11SegmentTreeINS_9MinTraitsIiEEE5queryEii = comdat any

$_ZNSt14numeric_limitsIxE3maxEv = comdat any

$_ZNSaIxEC2Ev = comdat any

$_ZNSt6vectorIxSaIxEEC2EmRKxRKS0_ = comdat any

$_ZNSaIxED2Ev = comdat any

$_ZNSt6vectorIxSaIxEE5beginEv = comdat any

$_ZNSt6vectorIxSaIxEE3endEv = comdat any

$_ZN2lc11SegmentTreeINS_9MinTraitsIxEEEC2IN9__gnu_cxx17__normal_iteratorIPxSt6vectorIxSaIxEEEEEET_SC_RKS2_ = comdat any

$_ZN2lc11SegmentTreeINS_9MinTraitsIxEEE6updateEiRKx = comdat any

$_ZNK2lc11SegmentTreeINS_9MinTraitsIxEEE5queryEii = comdat any

$_ZN2lc11SegmentTreeINS_9MinTraitsIxEEED2Ev = comdat any

$_ZNSt6vectorIxSaIxEED2Ev = comdat any

$_ZNSt6vectorIiSaIiEED2Ev = comdat any

$_ZN2lc11SegmentTreeINS_9MinTraitsIiEEED2Ev = comdat any

$_ZNSt6vectorISt4pairINSt7__cxx1112basic_stringIcSt11char_traitsIcESaIcEEEiESaIS7_EED2Ev = comdat any

$_ZN9__gnu_cxx13new_allocatorISt4pairINSt7__cxx1112basic_stringIcSt11char_traitsIcESaIcEEEiEEC2Ev = comdat any

$_ZN9__gnu_cxx13new_allocatorISt4pairINSt7__cxx1112basic_stringIcSt11char_traitsIcESaIcEEEiEED2Ev = comdat any

$_ZNSt12_Vector_baseISt4pairINSt7__cxx1112basic_stringIcSt11char_traitsIcESaIcEEEiESaIS7_EEC2EmRKS8_ = comdat any

$_ZNSt6vectorISt4pairINSt7__cxx1112basic_stringIcSt11char_traitsIcESaIcEEEiESaIS7_EE21_M_default_initializeEm = comdat any

$_ZNSt12_Vector_baseISt4pairINSt7__cxx1112basic_stringIcSt11char_traitsIcESaIcEEEiESaIS7_EED2Ev = comdat any

$_ZNSt12_Vector_baseISt4pairINSt7__cxx1112basic_stringIcSt11char_traitsIcESaIcEEEiESaIS7_EE12_Vector_implC2ERKS8_ = comdat any

$_ZNSt12_Vector_baseISt4pairINSt7__cxx1112basic_stringIcSt11char_traitsIcESaIcEEEiESaIS7_EE17_M_create_storageEm = comdat any

$_ZNSt12_Vector_baseISt4pairINSt7__cxx1112basic_stringIcSt11char_traitsIcESaIcEEEiESaIS7_EE12_Vector_implD2Ev = comdat any

$_ZNSaISt4pairINSt7__cxx1112basic_stringIcSt11char_traitsIcESaIcEEEiEEC2ERKS7_ = comdat any

$_ZN9__gnu_cxx13new_allocatorISt4pairINSt7__cxx1112basic_stringIcSt11char_traitsIcESaIcEEEiEEC2ERKS9_ = comdat any

$_ZNSt12_Vector_baseISt4pairINSt7__cxx1112basic_stringIcSt11char_traitsIcESaIcEEEiESaIS7_EE11_M_allocateEm = comdat any

$_ZNSt16allocator_traitsISaISt4pairINSt7__cxx1112basic_stringIcSt11char_traitsIcESaIcEEEiEEE8allocateERS8_m = comdat any

$_ZN9__gnu_cxx13new_allocatorISt4pairINSt7__cxx1112basic_stringIcSt11char_traitsIcESaIcEEEiEE8allocateEmPKv = comdat any

$_ZNK9__gnu_cxx13new_allocatorISt4pairINSt7__cxx1112basic_stringIcSt11char_traitsIcESaIcEEEiEE8max_sizeEv = comdat any

$_ZSt27__uninitialized_default_n_aIPSt4pairINSt7__cxx1112basic_stringIcSt11char_traitsIcESaIcEEEiEmS7_ET_S9_T0_RSaIT1_E = comdat any

$_ZNSt12_Vector_baseISt4pairINSt7__cxx1112basic_stringIcSt11char_traitsIcESaIcEEEiESaIS7_EE19_M_get_Tp_allocatorEv = comdat any

$_ZSt25__uninitialized_default_nIPSt4pairINSt7__cxx1112basic_stringIcSt11char_traitsIcESaIcEEEiEmET_S9_T0_ = comdat any

$_ZNSt27__uninitialized_default_n_1ILb0EE18__uninit_default_nIPSt4pairINSt7__cxx1112basic_stringIcSt11char_traitsIcESaIcEEEiEmEET_SB_T0_ = comdat any

$_ZSt10_ConstructISt4pairINSt7__cxx1112basic_stringIcSt11char_traitsIcESaIcEEEiEJEEvPT_DpOT0_ = comdat any

$_ZSt11__addressofISt4pairINSt7__cxx1112basic_stringIcSt11char_traitsIcESaIcEEEiEEPT_RS8_ = comdat any

$_ZSt8_DestroyIPSt4pairINSt7__cxx1112basic_stringIcSt11char_traitsIcESaIcEEEiEEvT_S9_ = comdat any

$__clang_call_terminate = comdat any

$_ZNSt4pairINSt7__cxx1112basic_stringIcSt11char_traitsIcESaIcEEEiEC2IS5_iLb1EEEv = comdat any

$_ZNSt12_Destroy_auxILb0EE9__destroyIPSt4pairINSt7__cxx1112basic_stringIcSt11char_traitsIcESaIcEEEiEEEvT_SB_ = comdat any

$_ZSt8_DestroyISt4pairINSt7__cxx1112basic_stringIcSt11char_traitsIcESaIcEEEiEEvPT_ = comdat any

$_ZNSt4pairINSt7__cxx1112basic_stringIcSt11char_traitsIcESaIcEEEiED2Ev = comdat any

$_ZNSt12_Vector_baseISt4pairINSt7__cxx1112basic_stringIcSt11char_traitsIcESaIcEEEiESaIS7_EE13_M_deallocateEPS7_m = comdat any

$_ZNSt16allocator_traitsISaISt4pairINSt7__cxx1112basic_stringIcSt11char_traitsIcESaIcEEEiEEE10deallocateERS8_PS7_m = comdat any

$_ZN9__gnu_cxx13new_allocatorISt4pairINSt7__cxx1112basic_stringIcSt11char_traitsIcESaIcEEEiEE10deallocateEPS8_m = comdat any

$_ZSt8_DestroyIPSt4pairINSt7__cxx1112basic_stringIcSt11char_traitsIcESaIcEEEiES7_EvT_S9_RSaIT0_E = comdat any

$_ZN9__gnu_cxx17__normal_iteratorIPSt4pairINSt7__cxx1112basic_stringIcSt11char_traitsIcESaIcEEEiESt6vectorIS8_SaIS8_EEEC2ERKS9_ = comdat any

$_ZSt6__sortIN9__gnu_cxx17__normal_iteratorIPSt4pairINSt7__cxx1112basic_stringIcSt11char_traitsIcESaIcEEEiESt6vectorIS9_SaIS9_EEEENS0_5__ops15_Iter_less_iterEEvT_SH_T0_ = comdat any

$_ZN9__gnu_cxx5__ops16__iter_less_iterEv = comdat any

$_ZN9__gnu_cxxneIPSt4pairINSt7__cxx1112basic_stringIcSt11char_traitsIcESaIcEEEiESt6vectorIS8_SaIS8_EEEEbRKNS_17__normal_iteratorIT_T0_EESI_ = comdat any

$_ZSt16__introsort_loopIN9__gnu_cxx17__normal_iteratorIPSt4pairINSt7__cxx1112basic_stringIcSt11char_traitsIcESaIcEEEiESt6vectorIS9_SaIS9_EEEElNS0_5__ops15_Iter_less_iterEEvT_SH_T0_T1_ = comdat any

$_ZSt4__lgl = comdat any

$_ZN9__gnu_cxxmiIPSt4pairINSt7__cxx1112basic_stringIcSt11char_traitsIcESaIcEEEiESt6vectorIS8_SaIS8_EEEENS_17__normal_iteratorIT_T0_E15difference_typeERKSG_SJ_ = comdat any

$_ZSt22__final_insertion_sortIN9__gnu_cxx17__normal_iteratorIPSt4pairINSt7__cxx1112basic_stringIcSt11char_traitsIcESaIcEEEiESt6vectorIS9_SaIS9_EEEENS0_5__ops15_Iter_less_iterEEvT_SH_T0_ = comdat any

$_ZNK9__gnu_cxx17__normal_iteratorIPSt4pairINSt7__cxx1112basic_stringIcSt11char_traitsIcESaIcEEEiESt6vectorIS8_SaIS8_EEE4baseEv = comdat any

$_ZSt14__partial_sortIN9__gnu_cxx17__normal_iteratorIPSt4pairINSt7__cxx1112basic_stringIcSt11char_traitsIcESaIcEEEiESt6vectorIS9_SaIS9_EEEENS0_5__ops15_Iter_less_iterEEvT_SH_SH_T0_ = comdat any

$_ZSt27__unguarded_partition_pivotIN9__gnu_cxx17__normal_iteratorIPSt4pairINSt7__cxx1112basic_stringIcSt11char_traitsIcESaIcEEEiESt6vectorIS9_SaIS9_EEEENS0_5__ops15_Iter_less_iterEET_SH_SH_T0_ = comdat any

$_ZSt13__heap_selectIN9__gnu_cxx17__normal_iteratorIPSt4pairINSt7__cxx1112basic_stringIcSt11char_traitsIcESaIcEEEiESt6vectorIS9_SaIS9_EEEENS0_5__ops15_Iter_less_iterEEvT_SH_SH_T0_ = comdat any

$_ZSt11__sort_heapIN9__gnu_cxx17__normal_iteratorIPSt4pairINSt7__cxx1112basic_stringIcSt11char_traitsIcESaIcEEEiESt6vectorIS9_SaIS9_EEEENS0_5__ops15_Iter_less_iterEEvT_SH_RT0_ = comdat any

$_ZSt11__make_heapIN9__gnu_cxx17__normal_iteratorIPSt4pairINSt7__cxx1112basic_stringIcSt11char_traitsIcESaIcEEEiESt6vectorIS9_SaIS9_EEEENS0_5__ops15_Iter_less_iterEEvT_SH_RT0_ = comdat any

$_ZN9__gnu_cxxltIPSt4pairINSt7__cxx1112basic_stringIcSt11char_traitsIcESaIcEEEiESt6vectorIS8_SaIS8_EEEEbRKNS_17__normal_iteratorIT_T0_EESI_ = comdat any

$_ZNK9__gnu_cxx5__ops15_Iter_less_iterclINS_17__normal_iteratorIPSt4pairINSt7__cxx1112basic_stringIcSt11char_traitsIcESaIcEEEiESt6vectorISB_SaISB_EEEESG_EEbT_T0_ = comdat any

$_ZSt10__pop_heapIN9__gnu_cxx17__normal_iteratorIPSt4pairINSt7__cxx1112basic_stringIcSt11char_traitsIcESaIcEEEiESt6vectorIS9_SaIS9_EEEENS0_5__ops15_Iter_less_iterEEvT_SH_SH_RT0_ = comdat any

$_ZN9__gnu_cxx17__normal_iteratorIPSt4pairINSt7__cxx1112basic_stringIcSt11char_traitsIcESaIcEEEiESt6vectorIS8_SaIS8_EEEppEv = comdat any

$_ZSt4moveIRSt4pairINSt7__cxx1112basic_stringIcSt11char_traitsIcESaIcEEEiEEONSt16remove_referenceIT_E4typeEOSA_ = comdat any

$_ZNK9__gnu_cxx17__normal_iteratorIPSt4pairINSt7__cxx1112basic_stringIcSt11char_traitsIcESaIcEEEiESt6vectorIS8_SaIS8_EEEplEl = comdat any

$_ZNK9__gnu_cxx17__normal_iteratorIPSt4pairINSt7__cxx1112basic_stringIcSt11char_traitsIcESaIcEEEiESt6vectorIS8_SaIS8_EEEdeEv = comdat any

$_ZNSt4pairINSt7__cxx1112basic_stringIcSt11char_traitsIcESaIcEEEiEC2EOS6_ = comdat any

$_ZSt13__adjust_heapIN9__gnu_cxx17__normal_iteratorIPSt4pairINSt7__cxx1112basic_stringIcSt11char_traitsIcESaIcEEEiESt6vectorIS9_SaIS9_EEEElS9_NS0_5__ops15_Iter_less_iterEEvT_T0_SI_T1_T2_ = comdat any

$_ZNSt4pairINSt7__cxx1112basic_stringIcSt11char_traitsIcESaIcEEEiEaSEOS6_ = comdat any

$_ZSt4moveIRN9__gnu_cxx5__ops15_Iter_less_iterEEONSt16remove_referenceIT_E4typeEOS5_ = comdat any

$_ZN9__gnu_cxx5__ops14_Iter_less_valC2ENS0_15_Iter_less_iterE = comdat any

$_ZSt11__push_heapIN9__gnu_cxx17__normal_iteratorIPSt4pairINSt7__cxx1112basic_stringIcSt11char_traitsIcESaIcEEEiESt6vectorIS9_SaIS9_EEEElS9_NS0_5__ops14_Iter_less_valEEvT_T0_SI_T1_RT2_ = comdat any

$_ZSt7forwardINSt7__cxx1112basic_stringIcSt11char_traitsIcESaIcEEEEOT_RNSt16remove_referenceIS6_E4typeE = comdat any

$_ZSt7forwardIiEOT_RNSt16remove_referenceIS0_E4typeE = comdat any

$_ZNK9__gnu_cxx5__ops14_Iter_less_valclINS_17__normal_iteratorIPSt4pairINSt7__cxx1112basic_stringIcSt11char_traitsIcESaIcEEEiESt6vectorISB_SaISB_EEEESB_EEbT_RT0_ = comdat any

$_ZStltINSt7__cxx1112basic_stringIcSt11char_traitsIcESaIcEEEiEbRKSt4pairIT_T0_ESB_ = comdat any

$_ZStltIcSt11char_traitsIcESaIcEEbRKNSt7__cxx1112basic_stringIT_T0_T1_EESA_ = comdat any

$_ZN9__gnu_cxx17__normal_iteratorIPSt4pairINSt7__cxx1112basic_stringIcSt11char_traitsIcESaIcEEEiESt6vectorIS8_SaIS8_EEEmmEv = comdat any

$_ZSt22__move_median_to_firstIN9__gnu_cxx17__normal_iteratorIPSt4pairINSt7__cxx1112basic_stringIcSt11char_traitsIcESaIcEEEiESt6vectorIS9_SaIS9_EEEENS0_5__ops15_Iter_less_iterEEvT_SH_SH_SH_T0_ = comdat any

$_ZNK9__gnu_cxx17__normal_iteratorIPSt4pairINSt7__cxx1112basic_stringIcSt11char_traitsIcESaIcEEEiESt6vectorIS8_SaIS8_EEEmiEl = comdat any

$_ZSt21__unguarded_partitionIN9__gnu_cxx17__normal_iteratorIPSt4pairINSt7__cxx1112basic_stringIcSt11char_traitsIcESaIcEEEiESt6vectorIS9_SaIS9_EEEENS0_5__ops15_Iter_less_iterEET_SH_SH_SH_T0_ = comdat any

$_ZSt9iter_swapIN9__gnu_cxx17__normal_iteratorIPSt4pairINSt7__cxx1112basic_stringIcSt11char_traitsIcESaIcEEEiESt6vectorIS9_SaIS9_EEEESE_EvT_T0_ = comdat any

$_ZSt4swapINSt7__cxx1112basic_stringIcSt11char_traitsIcESaIcEEEiENSt9enable_ifIXsr6__and_ISt14__is_swappableIT_ES7_IT0_EEE5valueEvE4typeERSt4pairIS8_SA_ESG_ = comdat any

$_ZNSt4pairINSt7__cxx1112basic_stringIcSt11char_traitsIcESaIcEEEiE4swapERS6_ = comdat any

$_ZSt4swapIcSt11char_traitsIcESaIcEEvRNSt7__cxx1112basic_stringIT_T0_T1_EES9_ = comdat any

$_ZSt4swapIiENSt9enable_ifIXsr6__and_ISt6__not_ISt15__is_tuple_likeIT_EESt21is_move_constructibleIS3_ESt18is_move_assignableIS3_EEE5valueEvE4typeERS3_SC_ = comdat any

$_ZSt4moveIRiEONSt16remove_referenceIT_E4typeEOS2_ = comdat any

$_ZSt16__insertion_sortIN9__gnu_cxx17__normal_iteratorIPSt4pairINSt7__cxx1112basic_stringIcSt11char_traitsIcESaIcEEEiESt6vectorIS9_SaIS9_EEEENS0_5__ops15_Iter_less_iterEEvT_SH_T0_ = comdat any

$_ZSt26__unguarded_insertion_sortIN9__gnu_cxx17__normal_iteratorIPSt4pairINSt7__cxx1112basic_stringIcSt11char_traitsIcESaIcEEEiESt6vectorIS9_SaIS9_EEEENS0_5__ops15_Iter_less_iterEEvT_SH_T0_ = comdat any

$_ZN9__gnu_cxxeqIPSt4pairINSt7__cxx1112basic_stringIcSt11char_traitsIcESaIcEEEiESt6vectorIS8_SaIS8_EEEEbRKNS_17__normal_iteratorIT_T0_EESI_ = comdat any

$_ZSt13move_backwardIN9__gnu_cxx17__normal_iteratorIPSt4pairINSt7__cxx1112basic_stringIcSt11char_traitsIcESaIcEEEiESt6vectorIS9_SaIS9_EEEESE_ET0_T_SG_SF_ = comdat any

$_ZSt25__unguarded_linear_insertIN9__gnu_cxx17__normal_iteratorIPSt4pairINSt7__cxx1112basic_stringIcSt11char_traitsIcESaIcEEEiESt6vectorIS9_SaIS9_EEEENS0_5__ops14_Val_less_iterEEvT_T0_ = comdat any

$_ZN9__gnu_cxx5__ops15__val_comp_iterENS0_15_Iter_less_iterE = comdat any

$_ZSt23__copy_move_backward_a2ILb1EN9__gnu_cxx17__normal_iteratorIPSt4pairINSt7__cxx1112basic_stringIcSt11char_traitsIcESaIcEEEiESt6vectorIS9_SaIS9_EEEESE_ET1_T0_SG_SF_ = comdat any

$_ZSt12__miter_baseIN9__gnu_cxx17__normal_iteratorIPSt4pairINSt7__cxx1112basic_stringIcSt11char_traitsIcESaIcEEEiESt6vectorIS9_SaIS9_EEEEET_SF_ = comdat any

$_ZSt22__copy_move_backward_aILb1EPSt4pairINSt7__cxx1112basic_stringIcSt11char_traitsIcESaIcEEEiES8_ET1_T0_SA_S9_ = comdat any

$_ZSt12__niter_baseIPSt4pairINSt7__cxx1112basic_stringIcSt11char_traitsIcESaIcEEEiESt6vectorIS7_SaIS7_EEET_N9__gnu_cxx17__normal_iteratorISC_T0_EE = comdat any

$_ZNSt20__copy_move_backwardILb1ELb0ESt26random_access_iterator_tagE13__copy_move_bIPSt4pairINSt7__cxx1112basic_stringIcSt11char_traitsIcESaIcEEEiESB_EET0_T_SD_SC_ = comdat any

$_ZNK9__gnu_cxx5__ops14_Val_less_iterclISt4pairINSt7__cxx1112basic_stringIcSt11char_traitsIcESaIcEEEiENS_17__normal_iteratorIPSA_St6vectorISA_SaISA_EEEEEEbRT_T0_ = comdat any

$_ZN9__gnu_cxx13new_allocatorIiEC2Ev = comdat any

$_ZN9__gnu_cxx13new_allocatorIiED2Ev = comdat any

$_ZNSt12_Vector_baseIiSaIiEEC2EmRKS0_ = comdat any

$_ZNSt6vectorIiSaIiEE21_M_default_initializeEm = comdat any

$_ZNSt12_Vector_baseIiSaIiEED2Ev = comdat any

$_ZNSt12_Vector_baseIiSaIiEE12_Vector_implC2ERKS0_ = comdat any

$_ZNSt12_Vector_baseIiSaIiEE17_M_create_storageEm = comdat any

$_ZNSt12_Vector_baseIiSaIiEE12_Vector_implD2Ev = comdat any

$_ZNSaIiEC2ERKS_ = comdat any

$_ZN9__gnu_cxx13new_allocatorIiEC2ERKS1_ = comdat any

$_ZNSt12_Vector_baseIiSaIiEE11_M_allocateEm = comdat any

$_ZNSt16allocator_traitsISaIiEE8allocateERS0_m = comdat any

$_ZN9__gnu_cxx13new_allocatorIiE8allocateEmPKv = comdat any

$_ZNK9__gnu_cxx13new_allocatorIiE8max_sizeEv = comdat any

$_ZSt27__uninitialized_default_n_aIPimiET_S1_T0_RSaIT1_E = comdat any

$_ZNSt12_Vector_baseIiSaIiEE19_M_get_Tp_allocatorEv = comdat any

$_ZSt25__uninitialized_default_nIPimET_S1_T0_ = comdat any

$_ZNSt27__uninitialized_default_n_1ILb1EE18__uninit_default_nIPimEET_S3_T0_ = comdat any

$_ZSt6fill_nIPimiET_S1_T0_RKT1_ = comdat any

$_ZSt10__fill_n_aIPimiEN9__gnu_cxx11__enable_ifIXsr11__is_scalarIT1_EE7__valueET_E6__typeES4_T0_RKS3_ = comdat any

$_ZSt12__niter_baseIPiET_S1_ = comdat any

$_ZNSt12_Vector_baseIiSaIiEE13_M_deallocateEPim = comdat any

$_ZNSt16allocator_traitsISaIiEE10deallocateERS0_Pim = comdat any

$_ZN9__gnu_cxx13new_allocatorIiE10deallocateEPim = comdat any

$_ZSt8_DestroyIPiiEvT_S1_RSaIT0_E = comdat any

$_ZSt8_DestroyIPiEvT_S1_ = comdat any

$_ZNSt12_Destroy_auxILb1EE9__destroyIPiEEvT_S3_ = comdat any

$_ZN9__gnu_cxx17__normal_iteratorIPiSt6vectorIiSaIiEEEC2ERKS1_ = comdat any

$_ZNSt6vectorIiSaIiEEC2Ev = comdat any

$_ZSt8distanceIN9__gnu_cxx17__normal_iteratorIPiSt6vectorIiSaIiEEEEENSt15iterator_traitsIT_E15difference_typeES8_S8_ = comdat any

$_ZNSt6vectorIiSaIiEE6resizeEmRKi = comdat any

$_ZNK2lc9MinTraitsIiE13default_valueEv = comdat any

$_ZSt4copyIN9__gnu_cxx17__normal_iteratorIPiSt6vectorIiSaIiEEEES6_ET0_T_S8_S7_ = comdat any

$_ZNK9__gnu_cxx17__normal_iteratorIPiSt6vectorIiSaIiEEEplEl = comdat any

$_ZNK9__gnu_cxx17__normal_iteratorIPiSt6vectorIiSaIiEEEmiEl = comdat any

$_ZN2lc11SegmentTreeINS_9MinTraitsIiEEE10initializeEv = comdat any

$_ZNSt12_Vector_baseIiSaIiEEC2Ev = comdat any

$_ZNSt12_Vector_baseIiSaIiEE12_Vector_implC2Ev = comdat any

$_ZSt10__distanceIN9__gnu_cxx17__normal_iteratorIPiSt6vectorIiSaIiEEEEENSt15iterator_traitsIT_E15difference_typeES8_S8_St26random_access_iterator_tag = comdat any

$_ZSt19__iterator_categoryIN9__gnu_cxx17__normal_iteratorIPiSt6vectorIiSaIiEEEEENSt15iterator_traitsIT_E17iterator_categoryERKS8_ = comdat any

$_ZN9__gnu_cxxmiIPiSt6vectorIiSaIiEEEENS_17__normal_iteratorIT_T0_E15difference_typeERKS8_SB_ = comdat any

$_ZNK9__gnu_cxx17__normal_iteratorIPiSt6vectorIiSaIiEEE4baseEv = comdat any

$_ZNKSt6vectorIiSaIiEE4sizeEv = comdat any

$_ZNSt6vectorIiSaIiEE14_M_fill_insertEN9__gnu_cxx17__normal_iteratorIPiS1_EEmRKi = comdat any

$_ZNSt6vectorIiSaIiEE15_M_erase_at_endEPi = comdat any

$_ZNSt6vectorIiSaIiEE16_Temporary_valueC2IJRKiEEEPS1_DpOT_ = comdat any

$_ZNSt6vectorIiSaIiEE16_Temporary_value6_M_valEv = comdat any

$_ZSt22__uninitialized_move_aIPiS0_SaIiEET0_T_S3_S2_RT1_ = comdat any

$_ZSt13move_backwardIPiS0_ET0_T_S2_S1_ = comdat any

$_ZSt4fillIPiiEvT_S1_RKT0_ = comdat any

$_ZSt24__uninitialized_fill_n_aIPimiiET_S1_T0_RKT1_RSaIT2_E = comdat any

$_ZNSt6vectorIiSaIiEE16_Temporary_valueD2Ev = comdat any

$_ZNKSt6vectorIiSaIiEE12_M_check_lenEmPKc = comdat any

$_ZSt34__uninitialized_move_if_noexcept_aIPiS0_SaIiEET0_T_S3_S2_RT1_ = comdat any

$_ZNSt16allocator_traitsISaIiEE9constructIiJRKiEEEvRS0_PT_DpOT0_ = comdat any

$_ZNSt6vectorIiSaIiEE16_Temporary_value6_M_ptrEv = comdat any

$_ZSt7forwardIRKiEOT_RNSt16remove_referenceIS2_E4typeE = comdat any

$_ZN9__gnu_cxx13new_allocatorIiE9constructIiJRKiEEEvPT_DpOT0_ = comdat any

$_ZSt22__uninitialized_copy_aISt13move_iteratorIPiES1_iET0_T_S4_S3_RSaIT1_E = comdat any

$_ZSt18make_move_iteratorIPiESt13move_iteratorIT_ES2_ = comdat any

$_ZSt18uninitialized_copyISt13move_iteratorIPiES1_ET0_T_S4_S3_ = comdat any

$_ZNSt20__uninitialized_copyILb1EE13__uninit_copyISt13move_iteratorIPiES3_EET0_T_S6_S5_ = comdat any

$_ZSt4copyISt13move_iteratorIPiES1_ET0_T_S4_S3_ = comdat any

$_ZSt14__copy_move_a2ILb1EPiS0_ET1_T0_S2_S1_ = comdat any

$_ZSt12__miter_baseIPiEDTcl12__miter_basecldtfp_4baseEEESt13move_iteratorIT_E = comdat any

$_ZSt13__copy_move_aILb1EPiS0_ET1_T0_S2_S1_ = comdat any

$_ZNSt11__copy_moveILb1ELb1ESt26random_access_iterator_tagE8__copy_mIiEEPT_PKS3_S6_S4_ = comdat any

$_ZSt12__miter_baseIPiET_S1_ = comdat any

$_ZNKSt13move_iteratorIPiE4baseEv = comdat any

$_ZNSt13move_iteratorIPiEC2ES0_ = comdat any

$_ZSt23__copy_move_backward_a2ILb1EPiS0_ET1_T0_S2_S1_ = comdat any

$_ZSt22__copy_move_backward_aILb1EPiS0_ET1_T0_S2_S1_ = comdat any

$_ZNSt20__copy_move_backwardILb1ELb1ESt26random_access_iterator_tagE13__copy_move_bIiEEPT_PKS3_S6_S4_ = comdat any

$_ZSt8__fill_aIPiiEN9__gnu_cxx11__enable_ifIXsr11__is_scalarIT0_EE7__valueEvE6__typeET_S6_RKS3_ = comdat any

$_ZSt20uninitialized_fill_nIPimiET_S1_T0_RKT1_ = comdat any

$_ZNSt22__uninitialized_fill_nILb1EE15__uninit_fill_nIPimiEET_S3_T0_RKT1_ = comdat any

$_ZNSt16allocator_traitsISaIiEE7destroyIiEEvRS0_PT_ = comdat any

$_ZN9__gnu_cxx13new_allocatorIiE7destroyIiEEvPT_ = comdat any

$_ZNKSt6vectorIiSaIiEE8max_sizeEv = comdat any

$_ZSt3maxImERKT_S2_S2_ = comdat any

$_ZNSt16allocator_traitsISaIiEE8max_sizeERKS0_ = comdat any

$_ZNKSt12_Vector_baseIiSaIiEE19_M_get_Tp_allocatorEv = comdat any

$_ZSt32__make_move_if_noexcept_iteratorIiSt13move_iteratorIPiEET0_PT_ = comdat any

$_ZNSt14numeric_limitsIiE3maxEv = comdat any

$_ZSt14__copy_move_a2ILb0EN9__gnu_cxx17__normal_iteratorIPiSt6vectorIiSaIiEEEES6_ET1_T0_S8_S7_ = comdat any

$_ZSt12__miter_baseIN9__gnu_cxx17__normal_iteratorIPiSt6vectorIiSaIiEEEEET_S7_ = comdat any

$_ZSt13__copy_move_aILb0EPiS0_ET1_T0_S2_S1_ = comdat any

$_ZSt12__niter_baseIPiSt6vectorIiSaIiEEET_N9__gnu_cxx17__normal_iteratorIS4_T0_EE = comdat any

$_ZNSt11__copy_moveILb0ELb1ESt26random_access_iterator_tagE8__copy_mIiEEPT_PKS3_S6_S4_ = comdat any

$_ZNK2lc9MinTraitsIiEclERKiS3_ = comdat any

$_ZSt3minIiERKT_S2_S2_ = comdat any

$_ZNK2lc11SegmentTreeINS_9MinTraitsIiEEE5queryEiiiii = comdat any

$_ZNKSt6vectorIiSaIiEEixEm = comdat any

$_ZN9__gnu_cxx13new_allocatorIxEC2Ev = comdat any

$_ZN9__gnu_cxx13new_allocatorIxED2Ev = comdat any

$_ZNSt12_Vector_baseIxSaIxEEC2EmRKS0_ = comdat any

$_ZNSt6vectorIxSaIxEE18_M_fill_initializeEmRKx = comdat any

$_ZNSt12_Vector_baseIxSaIxEED2Ev = comdat any

$_ZNSt12_Vector_baseIxSaIxEE12_Vector_implC2ERKS0_ = comdat any

$_ZNSt12_Vector_baseIxSaIxEE17_M_create_storageEm = comdat any

$_ZNSt12_Vector_baseIxSaIxEE12_Vector_implD2Ev = comdat any

$_ZNSaIxEC2ERKS_ = comdat any

$_ZN9__gnu_cxx13new_allocatorIxEC2ERKS1_ = comdat any

$_ZNSt12_Vector_baseIxSaIxEE11_M_allocateEm = comdat any

$_ZNSt16allocator_traitsISaIxEE8allocateERS0_m = comdat any

$_ZN9__gnu_cxx13new_allocatorIxE8allocateEmPKv = comdat any

$_ZNK9__gnu_cxx13new_allocatorIxE8max_sizeEv = comdat any

$_ZSt24__uninitialized_fill_n_aIPxmxxET_S1_T0_RKT1_RSaIT2_E = comdat any

$_ZNSt12_Vector_baseIxSaIxEE19_M_get_Tp_allocatorEv = comdat any

$_ZSt20uninitialized_fill_nIPxmxET_S1_T0_RKT1_ = comdat any

$_ZNSt22__uninitialized_fill_nILb1EE15__uninit_fill_nIPxmxEET_S3_T0_RKT1_ = comdat any

$_ZSt6fill_nIPxmxET_S1_T0_RKT1_ = comdat any

$_ZSt10__fill_n_aIPxmxEN9__gnu_cxx11__enable_ifIXsr11__is_scalarIT1_EE7__valueET_E6__typeES4_T0_RKS3_ = comdat any

$_ZSt12__niter_baseIPxET_S1_ = comdat any

$_ZNSt12_Vector_baseIxSaIxEE13_M_deallocateEPxm = comdat any

$_ZNSt16allocator_traitsISaIxEE10deallocateERS0_Pxm = comdat any

$_ZN9__gnu_cxx13new_allocatorIxE10deallocateEPxm = comdat any

$_ZSt8_DestroyIPxxEvT_S1_RSaIT0_E = comdat any

$_ZSt8_DestroyIPxEvT_S1_ = comdat any

$_ZNSt12_Destroy_auxILb1EE9__destroyIPxEEvT_S3_ = comdat any

$_ZN9__gnu_cxx17__normal_iteratorIPxSt6vectorIxSaIxEEEC2ERKS1_ = comdat any

$_ZNSt6vectorIxSaIxEEC2Ev = comdat any

$_ZSt8distanceIN9__gnu_cxx17__normal_iteratorIPxSt6vectorIxSaIxEEEEENSt15iterator_traitsIT_E15difference_typeES8_S8_ = comdat any

$_ZNSt6vectorIxSaIxEE6resizeEmRKx = comdat any

$_ZNK2lc9MinTraitsIxE13default_valueEv = comdat any

$_ZSt4copyIN9__gnu_cxx17__normal_iteratorIPxSt6vectorIxSaIxEEEES6_ET0_T_S8_S7_ = comdat any

$_ZNK9__gnu_cxx17__normal_iteratorIPxSt6vectorIxSaIxEEEplEl = comdat any

$_ZNK9__gnu_cxx17__normal_iteratorIPxSt6vectorIxSaIxEEEmiEl = comdat any

$_ZN2lc11SegmentTreeINS_9MinTraitsIxEEE10initializeEv = comdat any

$_ZNSt12_Vector_baseIxSaIxEEC2Ev = comdat any

$_ZNSt12_Vector_baseIxSaIxEE12_Vector_implC2Ev = comdat any

$_ZSt10__distanceIN9__gnu_cxx17__normal_iteratorIPxSt6vectorIxSaIxEEEEENSt15iterator_traitsIT_E15difference_typeES8_S8_St26random_access_iterator_tag = comdat any

$_ZSt19__iterator_categoryIN9__gnu_cxx17__normal_iteratorIPxSt6vectorIxSaIxEEEEENSt15iterator_traitsIT_E17iterator_categoryERKS8_ = comdat any

$_ZN9__gnu_cxxmiIPxSt6vectorIxSaIxEEEENS_17__normal_iteratorIT_T0_E15difference_typeERKS8_SB_ = comdat any

$_ZNK9__gnu_cxx17__normal_iteratorIPxSt6vectorIxSaIxEEE4baseEv = comdat any

$_ZNKSt6vectorIxSaIxEE4sizeEv = comdat any

$_ZNSt6vectorIxSaIxEE14_M_fill_insertEN9__gnu_cxx17__normal_iteratorIPxS1_EEmRKx = comdat any

$_ZNSt6vectorIxSaIxEE15_M_erase_at_endEPx = comdat any

$_ZNSt6vectorIxSaIxEE16_Temporary_valueC2IJRKxEEEPS1_DpOT_ = comdat any

$_ZNSt6vectorIxSaIxEE16_Temporary_value6_M_valEv = comdat any

$_ZSt22__uninitialized_move_aIPxS0_SaIxEET0_T_S3_S2_RT1_ = comdat any

$_ZSt13move_backwardIPxS0_ET0_T_S2_S1_ = comdat any

$_ZSt4fillIPxxEvT_S1_RKT0_ = comdat any

$_ZNSt6vectorIxSaIxEE16_Temporary_valueD2Ev = comdat any

$_ZNKSt6vectorIxSaIxEE12_M_check_lenEmPKc = comdat any

$_ZSt34__uninitialized_move_if_noexcept_aIPxS0_SaIxEET0_T_S3_S2_RT1_ = comdat any

$_ZNSt16allocator_traitsISaIxEE9constructIxJRKxEEEvRS0_PT_DpOT0_ = comdat any

$_ZNSt6vectorIxSaIxEE16_Temporary_value6_M_ptrEv = comdat any

$_ZSt7forwardIRKxEOT_RNSt16remove_referenceIS2_E4typeE = comdat any

$_ZN9__gnu_cxx13new_allocatorIxE9constructIxJRKxEEEvPT_DpOT0_ = comdat any

$_ZSt22__uninitialized_copy_aISt13move_iteratorIPxES1_xET0_T_S4_S3_RSaIT1_E = comdat any

$_ZSt18make_move_iteratorIPxESt13move_iteratorIT_ES2_ = comdat any

$_ZSt18uninitialized_copyISt13move_iteratorIPxES1_ET0_T_S4_S3_ = comdat any

$_ZNSt20__uninitialized_copyILb1EE13__uninit_copyISt13move_iteratorIPxES3_EET0_T_S6_S5_ = comdat any

$_ZSt4copyISt13move_iteratorIPxES1_ET0_T_S4_S3_ = comdat any

$_ZSt14__copy_move_a2ILb1EPxS0_ET1_T0_S2_S1_ = comdat any

$_ZSt12__miter_baseIPxEDTcl12__miter_basecldtfp_4baseEEESt13move_iteratorIT_E = comdat any

$_ZSt13__copy_move_aILb1EPxS0_ET1_T0_S2_S1_ = comdat any

$_ZNSt11__copy_moveILb1ELb1ESt26random_access_iterator_tagE8__copy_mIxEEPT_PKS3_S6_S4_ = comdat any

$_ZSt12__miter_baseIPxET_S1_ = comdat any

$_ZNKSt13move_iteratorIPxE4baseEv = comdat any

$_ZNSt13move_iteratorIPxEC2ES0_ = comdat any

$_ZSt23__copy_move_backward_a2ILb1EPxS0_ET1_T0_S2_S1_ = comdat any

$_ZSt22__copy_move_backward_aILb1EPxS0_ET1_T0_S2_S1_ = comdat any

$_ZNSt20__copy_move_backwardILb1ELb1ESt26random_access_iterator_tagE13__copy_move_bIxEEPT_PKS3_S6_S4_ = comdat any

$_ZSt8__fill_aIPxxEN9__gnu_cxx11__enable_ifIXsr11__is_scalarIT0_EE7__valueEvE6__typeET_S6_RKS3_ = comdat any

$_ZNSt16allocator_traitsISaIxEE7destroyIxEEvRS0_PT_ = comdat any

$_ZN9__gnu_cxx13new_allocatorIxE7destroyIxEEvPT_ = comdat any

$_ZNKSt6vectorIxSaIxEE8max_sizeEv = comdat any

$_ZNSt16allocator_traitsISaIxEE8max_sizeERKS0_ = comdat any

$_ZNKSt12_Vector_baseIxSaIxEE19_M_get_Tp_allocatorEv = comdat any

$_ZSt32__make_move_if_noexcept_iteratorIxSt13move_iteratorIPxEET0_PT_ = comdat any

$_ZSt14__copy_move_a2ILb0EN9__gnu_cxx17__normal_iteratorIPxSt6vectorIxSaIxEEEES6_ET1_T0_S8_S7_ = comdat any

$_ZSt12__miter_baseIN9__gnu_cxx17__normal_iteratorIPxSt6vectorIxSaIxEEEEET_S7_ = comdat any

$_ZSt13__copy_move_aILb0EPxS0_ET1_T0_S2_S1_ = comdat any

$_ZSt12__niter_baseIPxSt6vectorIxSaIxEEET_N9__gnu_cxx17__normal_iteratorIS4_T0_EE = comdat any

$_ZNSt11__copy_moveILb0ELb1ESt26random_access_iterator_tagE8__copy_mIxEEPT_PKS3_S6_S4_ = comdat any

$_ZNK2lc9MinTraitsIxEclERKxS3_ = comdat any

$_ZNSt6vectorIxSaIxEEixEm = comdat any

$_ZSt3minIxERKT_S2_S2_ = comdat any

$_ZNK2lc11SegmentTreeINS_9MinTraitsIxEEE5queryEiiiii = comdat any

$_ZNKSt6vectorIxSaIxEEixEm = comdat any

@_ZStL8__ioinit = internal global %"class.std::ios_base::Init" zeroinitializer, align 1
@__dso_handle = external hidden global i8
@_ZSt3cin = external global %"class.std::basic_istream", align 8
@_ZSt4cout = external global %"class.std::basic_ostream", align 8
@.str = private unnamed_addr constant [4 x i8] c"-1\0A\00", align 1
@.str.1 = private unnamed_addr constant [2 x i8] c"\0A\00", align 1
@.str.2 = private unnamed_addr constant [23 x i8] c"vector::_M_fill_insert\00", align 1
@llvm.global_ctors = appending global [1 x { i32, void ()*, i8* }] [{ i32, void ()*, i8* } { i32 65535, void ()* @_GLOBAL__sub_I_s683083263.cpp, i8* null }]

; Function Attrs: noinline uwtable
define internal void @__cxx_global_var_init() #0 section ".text.startup" {
  call void @_ZNSt8ios_base4InitC1Ev(%"class.std::ios_base::Init"* @_ZStL8__ioinit)
  %1 = call i32 @__cxa_atexit(void (i8*)* bitcast (void (%"class.std::ios_base::Init"*)* @_ZNSt8ios_base4InitD1Ev to void (i8*)*), i8* getelementptr inbounds (%"class.std::ios_base::Init", %"class.std::ios_base::Init"* @_ZStL8__ioinit, i32 0, i32 0), i8* @__dso_handle) #3
  ret void
}

declare void @_ZNSt8ios_base4InitC1Ev(%"class.std::ios_base::Init"*) unnamed_addr #1

; Function Attrs: nounwind
declare void @_ZNSt8ios_base4InitD1Ev(%"class.std::ios_base::Init"*) unnamed_addr #2

; Function Attrs: nounwind
declare i32 @__cxa_atexit(void (i8*)*, i8*, i8*) #3

; Function Attrs: noinline norecurse uwtable
define i32 @main() #4 personality i8* bitcast (i32 (...)* @__gxx_personality_v0 to i8*) {
  %1 = alloca i32, align 4
  %2 = alloca %"class.std::vector", align 8
  %3 = alloca %"class.std::allocator", align 1
  %4 = alloca %"class.__gnu_cxx::__normal_iterator", align 8
  %5 = alloca %"class.__gnu_cxx::__normal_iterator", align 8
  %6 = alloca %"class.std::vector.3", align 8
  %7 = alloca %"class.std::allocator.5", align 1
  %8 = alloca %"class.std::vector.3", align 8
  %9 = alloca %"class.std::allocator.5", align 1
  %10 = alloca i64, align 8
  %11 = alloca i64, align 8
  %12 = alloca %"class.lc::SegmentTree", align 8
  %13 = alloca %"class.__gnu_cxx::__normal_iterator.8", align 8
  %14 = alloca %"class.__gnu_cxx::__normal_iterator.8", align 8
  %15 = alloca %"struct.lc::MinTraits", align 1
  %16 = alloca %"class.std::vector.3", align 8
  %17 = alloca %"class.std::allocator.5", align 1
  %18 = alloca i64, align 8
  %19 = alloca %"class.std::vector.9", align 8
  %20 = alloca %"class.std::allocator.11", align 1
  %21 = alloca %"class.lc::SegmentTree.14", align 8
  %22 = alloca %"class.__gnu_cxx::__normal_iterator.17", align 8
  %23 = alloca %"class.__gnu_cxx::__normal_iterator.17", align 8
  %24 = alloca %"struct.lc::MinTraits.15", align 1
  %25 = alloca i32, align 4
  %26 = alloca i32, align 4
  %27 = alloca i32, align 4
  %28 = alloca i64, align 8
  %29 = call zeroext i1 @_ZNSt8ios_base15sync_with_stdioEb(i1 zeroext false)
  %30 = call dereferenceable(280) %"class.std::basic_istream"* @_ZNSirsERi(%"class.std::basic_istream"* @_ZSt3cin, i32* dereferenceable(4) %1)
  %31 = load i32, i32* %1, align 4
  %32 = sext i32 %31 to i64
  call void @_ZNSaISt4pairINSt7__cxx1112basic_stringIcSt11char_traitsIcESaIcEEEiEEC2Ev(%"class.std::allocator"* %3) #3
  invoke void @_ZNSt6vectorISt4pairINSt7__cxx1112basic_stringIcSt11char_traitsIcESaIcEEEiESaIS7_EEC2EmRKS8_(%"class.std::vector"* %2, i64 %32, %"class.std::allocator"* dereferenceable(1) %3)
          to label %33 unwind label %48

33:                                               ; preds = %0
  call void @_ZNSaISt4pairINSt7__cxx1112basic_stringIcSt11char_traitsIcESaIcEEEiEED2Ev(%"class.std::allocator"* %3) #3
  br label %34

34:                                               ; preds = %46, %33
  %.08 = phi i32 [ 0, %33 ], [ %47, %46 ]
  %35 = load i32, i32* %1, align 4
  %36 = icmp slt i32 %.08, %35
  br i1 %36, label %37, label %56

37:                                               ; preds = %34
  %38 = sext i32 %.08 to i64
  %39 = call dereferenceable(40) %"struct.std::pair"* @_ZNSt6vectorISt4pairINSt7__cxx1112basic_stringIcSt11char_traitsIcESaIcEEEiESaIS7_EEixEm(%"class.std::vector"* %2, i64 %38) #3
  %40 = getelementptr inbounds %"struct.std::pair", %"struct.std::pair"* %39, i32 0, i32 0
  %41 = invoke dereferenceable(280) %"class.std::basic_istream"* @_ZStrsIcSt11char_traitsIcESaIcEERSt13basic_istreamIT_T0_ES7_RNSt7__cxx1112basic_stringIS4_S5_T1_EE(%"class.std::basic_istream"* dereferenceable(280) @_ZSt3cin, %"class.std::__cxx11::basic_string"* dereferenceable(32) %40)
          to label %42 unwind label %52

42:                                               ; preds = %37
  %43 = sext i32 %.08 to i64
  %44 = call dereferenceable(40) %"struct.std::pair"* @_ZNSt6vectorISt4pairINSt7__cxx1112basic_stringIcSt11char_traitsIcESaIcEEEiESaIS7_EEixEm(%"class.std::vector"* %2, i64 %43) #3
  %45 = getelementptr inbounds %"struct.std::pair", %"struct.std::pair"* %44, i32 0, i32 1
  store i32 %.08, i32* %45, align 8
  br label %46

46:                                               ; preds = %42
  %47 = add nsw i32 %.08, 1
  br label %34

48:                                               ; preds = %0
  %49 = landingpad { i8*, i32 }
          cleanup
  %50 = extractvalue { i8*, i32 } %49, 0
  %51 = extractvalue { i8*, i32 } %49, 1
  call void @_ZNSaISt4pairINSt7__cxx1112basic_stringIcSt11char_traitsIcESaIcEEEiEED2Ev(%"class.std::allocator"* %3) #3
  br label %311

52:                                               ; preds = %56, %37
  %53 = landingpad { i8*, i32 }
          cleanup
  %54 = extractvalue { i8*, i32 } %53, 0
  %55 = extractvalue { i8*, i32 } %53, 1
  br label %310

56:                                               ; preds = %34
  %57 = call %"struct.std::pair"* @_ZNSt6vectorISt4pairINSt7__cxx1112basic_stringIcSt11char_traitsIcESaIcEEEiESaIS7_EE5beginEv(%"class.std::vector"* %2) #3
  %58 = getelementptr inbounds %"class.__gnu_cxx::__normal_iterator", %"class.__gnu_cxx::__normal_iterator"* %4, i32 0, i32 0
  store %"struct.std::pair"* %57, %"struct.std::pair"** %58, align 8
  %59 = call %"struct.std::pair"* @_ZNSt6vectorISt4pairINSt7__cxx1112basic_stringIcSt11char_traitsIcESaIcEEEiESaIS7_EE3endEv(%"class.std::vector"* %2) #3
  %60 = getelementptr inbounds %"class.__gnu_cxx::__normal_iterator", %"class.__gnu_cxx::__normal_iterator"* %5, i32 0, i32 0
  store %"struct.std::pair"* %59, %"struct.std::pair"** %60, align 8
  %61 = getelementptr inbounds %"class.__gnu_cxx::__normal_iterator", %"class.__gnu_cxx::__normal_iterator"* %4, i32 0, i32 0
  %62 = load %"struct.std::pair"*, %"struct.std::pair"** %61, align 8
  %63 = getelementptr inbounds %"class.__gnu_cxx::__normal_iterator", %"class.__gnu_cxx::__normal_iterator"* %5, i32 0, i32 0
  %64 = load %"struct.std::pair"*, %"struct.std::pair"** %63, align 8
  invoke void @_ZSt4sortIN9__gnu_cxx17__normal_iteratorIPSt4pairINSt7__cxx1112basic_stringIcSt11char_traitsIcESaIcEEEiESt6vectorIS9_SaIS9_EEEEEvT_SF_(%"struct.std::pair"* %62, %"struct.std::pair"* %64)
          to label %65 unwind label %52

65:                                               ; preds = %56
  %66 = load i32, i32* %1, align 4
  %67 = sext i32 %66 to i64
  call void @_ZNSaIiEC2Ev(%"class.std::allocator.5"* %7) #3
  invoke void @_ZNSt6vectorIiSaIiEEC2EmRKS0_(%"class.std::vector.3"* %6, i64 %67, %"class.std::allocator.5"* dereferenceable(1) %7)
          to label %68 unwind label %81

68:                                               ; preds = %65
  call void @_ZNSaIiED2Ev(%"class.std::allocator.5"* %7) #3
  br label %69

69:                                               ; preds = %79, %68
  %.09 = phi i32 [ 0, %68 ], [ %80, %79 ]
  %70 = load i32, i32* %1, align 4
  %71 = icmp slt i32 %.09, %70
  br i1 %71, label %72, label %85

72:                                               ; preds = %69
  %73 = sext i32 %.09 to i64
  %74 = call dereferenceable(40) %"struct.std::pair"* @_ZNSt6vectorISt4pairINSt7__cxx1112basic_stringIcSt11char_traitsIcESaIcEEEiESaIS7_EEixEm(%"class.std::vector"* %2, i64 %73) #3
  %75 = getelementptr inbounds %"struct.std::pair", %"struct.std::pair"* %74, i32 0, i32 1
  %76 = load i32, i32* %75, align 8
  %77 = sext i32 %76 to i64
  %78 = call dereferenceable(4) i32* @_ZNSt6vectorIiSaIiEEixEm(%"class.std::vector.3"* %6, i64 %77) #3
  store i32 %.09, i32* %78, align 4
  br label %79

79:                                               ; preds = %72
  %80 = add nsw i32 %.09, 1
  br label %69

81:                                               ; preds = %65
  %82 = landingpad { i8*, i32 }
          cleanup
  %83 = extractvalue { i8*, i32 } %82, 0
  %84 = extractvalue { i8*, i32 } %82, 1
  call void @_ZNSaIiED2Ev(%"class.std::allocator.5"* %7) #3
  br label %310

85:                                               ; preds = %69
  %86 = load i32, i32* %1, align 4
  %87 = sext i32 %86 to i64
  call void @_ZNSaIiEC2Ev(%"class.std::allocator.5"* %9) #3
  invoke void @_ZNSt6vectorIiSaIiEEC2EmRKS0_(%"class.std::vector.3"* %8, i64 %87, %"class.std::allocator.5"* dereferenceable(1) %9)
          to label %88 unwind label %140

88:                                               ; preds = %85
  call void @_ZNSaIiED2Ev(%"class.std::allocator.5"* %9) #3
  br label %89

89:                                               ; preds = %155, %88
  %.010 = phi i32 [ 0, %88 ], [ %156, %155 ]
  %90 = add nsw i32 %.010, 1
  %91 = load i32, i32* %1, align 4
  %92 = icmp slt i32 %90, %91
  br i1 %92, label %93, label %157

93:                                               ; preds = %89
  %94 = sext i32 %.010 to i64
  %95 = call dereferenceable(40) %"struct.std::pair"* @_ZNSt6vectorISt4pairINSt7__cxx1112basic_stringIcSt11char_traitsIcESaIcEEEiESaIS7_EEixEm(%"class.std::vector"* %2, i64 %94) #3
  %96 = getelementptr inbounds %"struct.std::pair", %"struct.std::pair"* %95, i32 0, i32 0
  %97 = call i64 @_ZNKSt7__cxx1112basic_stringIcSt11char_traitsIcESaIcEE4sizeEv(%"class.std::__cxx11::basic_string"* %96) #3
  store i64 %97, i64* %10, align 8
  %98 = add nsw i32 %.010, 1
  %99 = sext i32 %98 to i64
  %100 = call dereferenceable(40) %"struct.std::pair"* @_ZNSt6vectorISt4pairINSt7__cxx1112basic_stringIcSt11char_traitsIcESaIcEEEiESaIS7_EEixEm(%"class.std::vector"* %2, i64 %99) #3
  %101 = getelementptr inbounds %"struct.std::pair", %"struct.std::pair"* %100, i32 0, i32 0
  %102 = call i64 @_ZNKSt7__cxx1112basic_stringIcSt11char_traitsIcESaIcEE4sizeEv(%"class.std::__cxx11::basic_string"* %101) #3
  store i64 %102, i64* %11, align 8
  %103 = invoke dereferenceable(8) i64* @_ZSt3minImERKT_S2_S2_(i64* dereferenceable(8) %10, i64* dereferenceable(8) %11)
          to label %104 unwind label %144

104:                                              ; preds = %93
  %105 = load i64, i64* %103, align 8
  %106 = trunc i64 %105 to i32
  %107 = sext i32 %.010 to i64
  %108 = call dereferenceable(4) i32* @_ZNSt6vectorIiSaIiEEixEm(%"class.std::vector.3"* %8, i64 %107) #3
  store i32 0, i32* %108, align 4
  br label %109

109:                                              ; preds = %149, %104
  %110 = sext i32 %.010 to i64
  %111 = call dereferenceable(4) i32* @_ZNSt6vectorIiSaIiEEixEm(%"class.std::vector.3"* %8, i64 %110) #3
  %112 = load i32, i32* %111, align 4
  %113 = icmp slt i32 %112, %106
  br i1 %113, label %114, label %154

114:                                              ; preds = %109
  %115 = sext i32 %.010 to i64
  %116 = call dereferenceable(40) %"struct.std::pair"* @_ZNSt6vectorISt4pairINSt7__cxx1112basic_stringIcSt11char_traitsIcESaIcEEEiESaIS7_EEixEm(%"class.std::vector"* %2, i64 %115) #3
  %117 = getelementptr inbounds %"struct.std::pair", %"struct.std::pair"* %116, i32 0, i32 0
  %118 = sext i32 %.010 to i64
  %119 = call dereferenceable(4) i32* @_ZNSt6vectorIiSaIiEEixEm(%"class.std::vector.3"* %8, i64 %118) #3
  %120 = load i32, i32* %119, align 4
  %121 = sext i32 %120 to i64
  %122 = invoke dereferenceable(1) i8* @_ZNSt7__cxx1112basic_stringIcSt11char_traitsIcESaIcEEixEm(%"class.std::__cxx11::basic_string"* %117, i64 %121)
          to label %123 unwind label %144

123:                                              ; preds = %114
  %124 = load i8, i8* %122, align 1
  %125 = sext i8 %124 to i32
  %126 = add nsw i32 %.010, 1
  %127 = sext i32 %126 to i64
  %128 = call dereferenceable(40) %"struct.std::pair"* @_ZNSt6vectorISt4pairINSt7__cxx1112basic_stringIcSt11char_traitsIcESaIcEEEiESaIS7_EEixEm(%"class.std::vector"* %2, i64 %127) #3
  %129 = getelementptr inbounds %"struct.std::pair", %"struct.std::pair"* %128, i32 0, i32 0
  %130 = sext i32 %.010 to i64
  %131 = call dereferenceable(4) i32* @_ZNSt6vectorIiSaIiEEixEm(%"class.std::vector.3"* %8, i64 %130) #3
  %132 = load i32, i32* %131, align 4
  %133 = sext i32 %132 to i64
  %134 = invoke dereferenceable(1) i8* @_ZNSt7__cxx1112basic_stringIcSt11char_traitsIcESaIcEEixEm(%"class.std::__cxx11::basic_string"* %129, i64 %133)
          to label %135 unwind label %144

135:                                              ; preds = %123
  %136 = load i8, i8* %134, align 1
  %137 = sext i8 %136 to i32
  %138 = icmp ne i32 %125, %137
  br i1 %138, label %139, label %148

139:                                              ; preds = %135
  br label %154

140:                                              ; preds = %85
  %141 = landingpad { i8*, i32 }
          cleanup
  %142 = extractvalue { i8*, i32 } %141, 0
  %143 = extractvalue { i8*, i32 } %141, 1
  call void @_ZNSaIiED2Ev(%"class.std::allocator.5"* %9) #3
  br label %309

144:                                              ; preds = %157, %123, %114, %93
  %145 = landingpad { i8*, i32 }
          cleanup
  %146 = extractvalue { i8*, i32 } %145, 0
  %147 = extractvalue { i8*, i32 } %145, 1
  br label %308

148:                                              ; preds = %135
  br label %149

149:                                              ; preds = %148
  %150 = sext i32 %.010 to i64
  %151 = call dereferenceable(4) i32* @_ZNSt6vectorIiSaIiEEixEm(%"class.std::vector.3"* %8, i64 %150) #3
  %152 = load i32, i32* %151, align 4
  %153 = add nsw i32 %152, 1
  store i32 %153, i32* %151, align 4
  br label %109

154:                                              ; preds = %139, %109
  br label %155

155:                                              ; preds = %154
  %156 = add nsw i32 %.010, 1
  br label %89

157:                                              ; preds = %89
  %158 = call i32* @_ZNSt6vectorIiSaIiEE5beginEv(%"class.std::vector.3"* %8) #3
  %159 = getelementptr inbounds %"class.__gnu_cxx::__normal_iterator.8", %"class.__gnu_cxx::__normal_iterator.8"* %13, i32 0, i32 0
  store i32* %158, i32** %159, align 8
  %160 = call i32* @_ZNSt6vectorIiSaIiEE3endEv(%"class.std::vector.3"* %8) #3
  %161 = getelementptr inbounds %"class.__gnu_cxx::__normal_iterator.8", %"class.__gnu_cxx::__normal_iterator.8"* %14, i32 0, i32 0
  store i32* %160, i32** %161, align 8
  %162 = getelementptr inbounds %"class.__gnu_cxx::__normal_iterator.8", %"class.__gnu_cxx::__normal_iterator.8"* %13, i32 0, i32 0
  %163 = load i32*, i32** %162, align 8
  %164 = getelementptr inbounds %"class.__gnu_cxx::__normal_iterator.8", %"class.__gnu_cxx::__normal_iterator.8"* %14, i32 0, i32 0
  %165 = load i32*, i32** %164, align 8
  invoke void @_ZN2lc11SegmentTreeINS_9MinTraitsIiEEEC2IN9__gnu_cxx17__normal_iteratorIPiSt6vectorIiSaIiEEEEEET_SC_RKS2_(%"class.lc::SegmentTree"* %12, i32* %163, i32* %165, %"struct.lc::MinTraits"* dereferenceable(1) %15)
          to label %166 unwind label %144

166:                                              ; preds = %157
  %167 = load i32, i32* %1, align 4
  %168 = sext i32 %167 to i64
  call void @_ZNSaIiEC2Ev(%"class.std::allocator.5"* %17) #3
  invoke void @_ZNSt6vectorIiSaIiEEC2EmRKS0_(%"class.std::vector.3"* %16, i64 %168, %"class.std::allocator.5"* dereferenceable(1) %17)
          to label %169 unwind label %192

169:                                              ; preds = %166
  call void @_ZNSaIiED2Ev(%"class.std::allocator.5"* %17) #3
  br label %170

170:                                              ; preds = %205, %169
  %.013 = phi i32 [ 0, %169 ], [ %206, %205 ]
  %171 = load i32, i32* %1, align 4
  %172 = icmp slt i32 %.013, %171
  br i1 %172, label %173, label %207

173:                                              ; preds = %170
  %174 = sext i32 %.013 to i64
  %175 = call dereferenceable(40) %"struct.std::pair"* @_ZNSt6vectorISt4pairINSt7__cxx1112basic_stringIcSt11char_traitsIcESaIcEEEiESaIS7_EEixEm(%"class.std::vector"* %2, i64 %174) #3
  %176 = getelementptr inbounds %"struct.std::pair", %"struct.std::pair"* %175, i32 0, i32 0
  %177 = call i64 @_ZNKSt7__cxx1112basic_stringIcSt11char_traitsIcESaIcEE4sizeEv(%"class.std::__cxx11::basic_string"* %176) #3
  %178 = trunc i64 %177 to i32
  %179 = add nsw i32 %.013, 1
  %180 = load i32, i32* %1, align 4
  br label %181

181:                                              ; preds = %201, %173
  %.014 = phi i32 [ %179, %173 ], [ %.115, %201 ]
  %.011 = phi i32 [ %180, %173 ], [ %.112, %201 ]
  %182 = icmp slt i32 %.014, %.011
  br i1 %182, label %183, label %202

183:                                              ; preds = %181
  %184 = sub nsw i32 %.011, %.014
  %185 = sdiv i32 %184, 2
  %186 = add nsw i32 %.014, %185
  %187 = invoke i32 @_ZNK2lc11SegmentTreeINS_9MinTraitsIiEEE5queryEii(%"class.lc::SegmentTree"* %12, i32 %.013, i32 %186)
          to label %188 unwind label %196

188:                                              ; preds = %183
  %189 = icmp sge i32 %187, %178
  br i1 %189, label %190, label %200

190:                                              ; preds = %188
  %191 = add nsw i32 %186, 1
  br label %201

192:                                              ; preds = %166
  %193 = landingpad { i8*, i32 }
          cleanup
  %194 = extractvalue { i8*, i32 } %193, 0
  %195 = extractvalue { i8*, i32 } %193, 1
  call void @_ZNSaIiED2Ev(%"class.std::allocator.5"* %17) #3
  br label %307

196:                                              ; preds = %183
  %197 = landingpad { i8*, i32 }
          cleanup
  %198 = extractvalue { i8*, i32 } %197, 0
  %199 = extractvalue { i8*, i32 } %197, 1
  br label %306

200:                                              ; preds = %188
  br label %201

201:                                              ; preds = %200, %190
  %.115 = phi i32 [ %191, %190 ], [ %.014, %200 ]
  %.112 = phi i32 [ %.011, %190 ], [ %186, %200 ]
  br label %181

202:                                              ; preds = %181
  %203 = sext i32 %.013 to i64
  %204 = call dereferenceable(4) i32* @_ZNSt6vectorIiSaIiEEixEm(%"class.std::vector.3"* %16, i64 %203) #3
  store i32 %.014, i32* %204, align 4
  br label %205

205:                                              ; preds = %202
  %206 = add nsw i32 %.013, 1
  br label %170

207:                                              ; preds = %170
  %208 = call i64 @_ZNSt14numeric_limitsIxE3maxEv() #3
  store i64 %208, i64* %18, align 8
  %209 = load i32, i32* %1, align 4
  %210 = sext i32 %209 to i64
  call void @_ZNSaIxEC2Ev(%"class.std::allocator.11"* %20) #3
  invoke void @_ZNSt6vectorIxSaIxEEC2EmRKxRKS0_(%"class.std::vector.9"* %19, i64 %210, i64* dereferenceable(8) %18, %"class.std::allocator.11"* dereferenceable(1) %20)
          to label %211 unwind label %251

211:                                              ; preds = %207
  call void @_ZNSaIxED2Ev(%"class.std::allocator.11"* %20) #3
  %212 = call i64* @_ZNSt6vectorIxSaIxEE5beginEv(%"class.std::vector.9"* %19) #3
  %213 = getelementptr inbounds %"class.__gnu_cxx::__normal_iterator.17", %"class.__gnu_cxx::__normal_iterator.17"* %22, i32 0, i32 0
  store i64* %212, i64** %213, align 8
  %214 = call i64* @_ZNSt6vectorIxSaIxEE3endEv(%"class.std::vector.9"* %19) #3
  %215 = getelementptr inbounds %"class.__gnu_cxx::__normal_iterator.17", %"class.__gnu_cxx::__normal_iterator.17"* %23, i32 0, i32 0
  store i64* %214, i64** %215, align 8
  %216 = getelementptr inbounds %"class.__gnu_cxx::__normal_iterator.17", %"class.__gnu_cxx::__normal_iterator.17"* %22, i32 0, i32 0
  %217 = load i64*, i64** %216, align 8
  %218 = getelementptr inbounds %"class.__gnu_cxx::__normal_iterator.17", %"class.__gnu_cxx::__normal_iterator.17"* %23, i32 0, i32 0
  %219 = load i64*, i64** %218, align 8
  invoke void @_ZN2lc11SegmentTreeINS_9MinTraitsIxEEEC2IN9__gnu_cxx17__normal_iteratorIPxSt6vectorIxSaIxEEEEEET_SC_RKS2_(%"class.lc::SegmentTree.14"* %21, i64* %217, i64* %219, %"struct.lc::MinTraits.15"* dereferenceable(1) %24)
          to label %220 unwind label %255

220:                                              ; preds = %211
  %221 = invoke dereferenceable(280) %"class.std::basic_istream"* @_ZNSirsERi(%"class.std::basic_istream"* @_ZSt3cin, i32* dereferenceable(4) %25)
          to label %222 unwind label %259

222:                                              ; preds = %220
  br label %223

223:                                              ; preds = %303, %222
  %224 = load i32, i32* %25, align 4
  %225 = add nsw i32 %224, -1
  store i32 %225, i32* %25, align 4
  %226 = icmp ne i32 %224, 0
  br i1 %226, label %227, label %304

227:                                              ; preds = %223
  %228 = invoke dereferenceable(280) %"class.std::basic_istream"* @_ZNSirsERi(%"class.std::basic_istream"* @_ZSt3cin, i32* dereferenceable(4) %26)
          to label %229 unwind label %259

229:                                              ; preds = %227
  %230 = invoke dereferenceable(280) %"class.std::basic_istream"* @_ZNSirsERi(%"class.std::basic_istream"* %228, i32* dereferenceable(4) %27)
          to label %231 unwind label %259

231:                                              ; preds = %229
  %232 = load i32, i32* %27, align 4
  %233 = add nsw i32 %232, -1
  store i32 %233, i32* %27, align 4
  %234 = load i32, i32* %26, align 4
  %235 = icmp eq i32 %234, 1
  br i1 %235, label %236, label %263

236:                                              ; preds = %231
  %237 = load i32, i32* %27, align 4
  %238 = sext i32 %237 to i64
  %239 = call dereferenceable(4) i32* @_ZNSt6vectorIiSaIiEEixEm(%"class.std::vector.3"* %6, i64 %238) #3
  %240 = load i32, i32* %239, align 4
  %241 = load i32, i32* %27, align 4
  %242 = sext i32 %241 to i64
  %243 = call dereferenceable(4) i32* @_ZNSt6vectorIiSaIiEEixEm(%"class.std::vector.3"* %6, i64 %242) #3
  %244 = load i32, i32* %243, align 4
  %245 = sext i32 %244 to i64
  %246 = shl i64 %245, 32
  %247 = load i32, i32* %27, align 4
  %248 = sext i32 %247 to i64
  %249 = or i64 %246, %248
  store i64 %249, i64* %28, align 8
  invoke void @_ZN2lc11SegmentTreeINS_9MinTraitsIxEEE6updateEiRKx(%"class.lc::SegmentTree.14"* %21, i32 %240, i64* dereferenceable(8) %28)
          to label %250 unwind label %259

250:                                              ; preds = %236
  br label %303

251:                                              ; preds = %207
  %252 = landingpad { i8*, i32 }
          cleanup
  %253 = extractvalue { i8*, i32 } %252, 0
  %254 = extractvalue { i8*, i32 } %252, 1
  call void @_ZNSaIxED2Ev(%"class.std::allocator.11"* %20) #3
  br label %306

255:                                              ; preds = %211
  %256 = landingpad { i8*, i32 }
          cleanup
  %257 = extractvalue { i8*, i32 } %256, 0
  %258 = extractvalue { i8*, i32 } %256, 1
  br label %305

259:                                              ; preds = %297, %293, %290, %275, %266, %236, %229, %227, %220
  %260 = landingpad { i8*, i32 }
          cleanup
  %261 = extractvalue { i8*, i32 } %260, 0
  %262 = extractvalue { i8*, i32 } %260, 1
  call void @_ZN2lc11SegmentTreeINS_9MinTraitsIxEEED2Ev(%"class.lc::SegmentTree.14"* %21) #3
  br label %305

263:                                              ; preds = %231
  %264 = load i32, i32* %26, align 4
  %265 = icmp eq i32 %264, 2
  br i1 %265, label %266, label %272

266:                                              ; preds = %263
  %267 = load i32, i32* %27, align 4
  %268 = sext i32 %267 to i64
  %269 = call dereferenceable(4) i32* @_ZNSt6vectorIiSaIiEEixEm(%"class.std::vector.3"* %6, i64 %268) #3
  %270 = load i32, i32* %269, align 4
  invoke void @_ZN2lc11SegmentTreeINS_9MinTraitsIxEEE6updateEiRKx(%"class.lc::SegmentTree.14"* %21, i32 %270, i64* dereferenceable(8) %18)
          to label %271 unwind label %259

271:                                              ; preds = %266
  br label %302

272:                                              ; preds = %263
  %273 = load i32, i32* %26, align 4
  %274 = icmp eq i32 %273, 3
  br i1 %274, label %275, label %301

275:                                              ; preds = %272
  %276 = load i32, i32* %27, align 4
  %277 = sext i32 %276 to i64
  %278 = call dereferenceable(4) i32* @_ZNSt6vectorIiSaIiEEixEm(%"class.std::vector.3"* %6, i64 %277) #3
  %279 = load i32, i32* %278, align 4
  %280 = load i32, i32* %27, align 4
  %281 = sext i32 %280 to i64
  %282 = call dereferenceable(4) i32* @_ZNSt6vectorIiSaIiEEixEm(%"class.std::vector.3"* %6, i64 %281) #3
  %283 = load i32, i32* %282, align 4
  %284 = sext i32 %283 to i64
  %285 = call dereferenceable(4) i32* @_ZNSt6vectorIiSaIiEEixEm(%"class.std::vector.3"* %16, i64 %284) #3
  %286 = load i32, i32* %285, align 4
  %287 = invoke i64 @_ZNK2lc11SegmentTreeINS_9MinTraitsIxEEE5queryEii(%"class.lc::SegmentTree.14"* %21, i32 %279, i32 %286)
          to label %288 unwind label %259

288:                                              ; preds = %275
  %289 = icmp sge i64 %287, 9223372036854775807
  br i1 %289, label %290, label %293

290:                                              ; preds = %288
  %291 = invoke dereferenceable(272) %"class.std::basic_ostream"* @_ZStlsISt11char_traitsIcEERSt13basic_ostreamIcT_ES5_PKc(%"class.std::basic_ostream"* dereferenceable(272) @_ZSt4cout, i8* getelementptr inbounds ([4 x i8], [4 x i8]* @.str, i32 0, i32 0))
          to label %292 unwind label %259

292:                                              ; preds = %290
  br label %300

293:                                              ; preds = %288
  %294 = and i64 %287, 2147483647
  %295 = add nsw i64 %294, 1
  %296 = invoke dereferenceable(272) %"class.std::basic_ostream"* @_ZNSolsEx(%"class.std::basic_ostream"* @_ZSt4cout, i64 %295)
          to label %297 unwind label %259

297:                                              ; preds = %293
  %298 = invoke dereferenceable(272) %"class.std::basic_ostream"* @_ZStlsISt11char_traitsIcEERSt13basic_ostreamIcT_ES5_PKc(%"class.std::basic_ostream"* dereferenceable(272) %296, i8* getelementptr inbounds ([2 x i8], [2 x i8]* @.str.1, i32 0, i32 0))
          to label %299 unwind label %259

299:                                              ; preds = %297
  br label %300

300:                                              ; preds = %299, %292
  br label %301

301:                                              ; preds = %300, %272
  br label %302

302:                                              ; preds = %301, %271
  br label %303

303:                                              ; preds = %302, %250
  br label %223

304:                                              ; preds = %223
  call void @_ZN2lc11SegmentTreeINS_9MinTraitsIxEEED2Ev(%"class.lc::SegmentTree.14"* %21) #3
  call void @_ZNSt6vectorIxSaIxEED2Ev(%"class.std::vector.9"* %19) #3
  call void @_ZNSt6vectorIiSaIiEED2Ev(%"class.std::vector.3"* %16) #3
  call void @_ZN2lc11SegmentTreeINS_9MinTraitsIiEEED2Ev(%"class.lc::SegmentTree"* %12) #3
  call void @_ZNSt6vectorIiSaIiEED2Ev(%"class.std::vector.3"* %8) #3
  call void @_ZNSt6vectorIiSaIiEED2Ev(%"class.std::vector.3"* %6) #3
  call void @_ZNSt6vectorISt4pairINSt7__cxx1112basic_stringIcSt11char_traitsIcESaIcEEEiESaIS7_EED2Ev(%"class.std::vector"* %2) #3
  ret i32 0

305:                                              ; preds = %259, %255
  %.01 = phi i32 [ %262, %259 ], [ %258, %255 ]
  %.0 = phi i8* [ %261, %259 ], [ %257, %255 ]
  call void @_ZNSt6vectorIxSaIxEED2Ev(%"class.std::vector.9"* %19) #3
  br label %306

306:                                              ; preds = %305, %251, %196
  %.12 = phi i32 [ %199, %196 ], [ %.01, %305 ], [ %254, %251 ]
  %.1 = phi i8* [ %198, %196 ], [ %.0, %305 ], [ %253, %251 ]
  call void @_ZNSt6vectorIiSaIiEED2Ev(%"class.std::vector.3"* %16) #3
  br label %307

307:                                              ; preds = %306, %192
  %.23 = phi i32 [ %.12, %306 ], [ %195, %192 ]
  %.2 = phi i8* [ %.1, %306 ], [ %194, %192 ]
  call void @_ZN2lc11SegmentTreeINS_9MinTraitsIiEEED2Ev(%"class.lc::SegmentTree"* %12) #3
  br label %308

308:                                              ; preds = %307, %144
  %.34 = phi i32 [ %147, %144 ], [ %.23, %307 ]
  %.3 = phi i8* [ %146, %144 ], [ %.2, %307 ]
  call void @_ZNSt6vectorIiSaIiEED2Ev(%"class.std::vector.3"* %8) #3
  br label %309

309:                                              ; preds = %308, %140
  %.45 = phi i32 [ %.34, %308 ], [ %143, %140 ]
  %.4 = phi i8* [ %.3, %308 ], [ %142, %140 ]
  call void @_ZNSt6vectorIiSaIiEED2Ev(%"class.std::vector.3"* %6) #3
  br label %310

310:                                              ; preds = %309, %81, %52
  %.56 = phi i32 [ %55, %52 ], [ %.45, %309 ], [ %84, %81 ]
  %.5 = phi i8* [ %54, %52 ], [ %.4, %309 ], [ %83, %81 ]
  call void @_ZNSt6vectorISt4pairINSt7__cxx1112basic_stringIcSt11char_traitsIcESaIcEEEiESaIS7_EED2Ev(%"class.std::vector"* %2) #3
  br label %311

311:                                              ; preds = %310, %48
  %.67 = phi i32 [ %.56, %310 ], [ %51, %48 ]
  %.6 = phi i8* [ %.5, %310 ], [ %50, %48 ]
  %312 = insertvalue { i8*, i32 } undef, i8* %.6, 0
  %313 = insertvalue { i8*, i32 } %312, i32 %.67, 1
  resume { i8*, i32 } %313
}

declare zeroext i1 @_ZNSt8ios_base15sync_with_stdioEb(i1 zeroext) #1

declare dereferenceable(280) %"class.std::basic_istream"* @_ZNSirsERi(%"class.std::basic_istream"*, i32* dereferenceable(4)) #1

; Function Attrs: noinline nounwind uwtable
define linkonce_odr void @_ZNSaISt4pairINSt7__cxx1112basic_stringIcSt11char_traitsIcESaIcEEEiEEC2Ev(%"class.std::allocator"* %0) unnamed_addr #5 comdat align 2 {
  %2 = bitcast %"class.std::allocator"* %0 to %"class.__gnu_cxx::new_allocator"*
  call void @_ZN9__gnu_cxx13new_allocatorISt4pairINSt7__cxx1112basic_stringIcSt11char_traitsIcESaIcEEEiEEC2Ev(%"class.__gnu_cxx::new_allocator"* %2) #3
  ret void
}

; Function Attrs: noinline uwtable
define linkonce_odr void @_ZNSt6vectorISt4pairINSt7__cxx1112basic_stringIcSt11char_traitsIcESaIcEEEiESaIS7_EEC2EmRKS8_(%"class.std::vector"* %0, i64 %1, %"class.std::allocator"* dereferenceable(1) %2) unnamed_addr #0 comdat align 2 personality i8* bitcast (i32 (...)* @__gxx_personality_v0 to i8*) {
  %4 = bitcast %"class.std::vector"* %0 to %"struct.std::_Vector_base"*
  call void @_ZNSt12_Vector_baseISt4pairINSt7__cxx1112basic_stringIcSt11char_traitsIcESaIcEEEiESaIS7_EEC2EmRKS8_(%"struct.std::_Vector_base"* %4, i64 %1, %"class.std::allocator"* dereferenceable(1) %2)
  invoke void @_ZNSt6vectorISt4pairINSt7__cxx1112basic_stringIcSt11char_traitsIcESaIcEEEiESaIS7_EE21_M_default_initializeEm(%"class.std::vector"* %0, i64 %1)
          to label %5 unwind label %6

5:                                                ; preds = %3
  ret void

6:                                                ; preds = %3
  %7 = landingpad { i8*, i32 }
          cleanup
  %8 = extractvalue { i8*, i32 } %7, 0
  %9 = extractvalue { i8*, i32 } %7, 1
  %10 = bitcast %"class.std::vector"* %0 to %"struct.std::_Vector_base"*
  call void @_ZNSt12_Vector_baseISt4pairINSt7__cxx1112basic_stringIcSt11char_traitsIcESaIcEEEiESaIS7_EED2Ev(%"struct.std::_Vector_base"* %10) #3
  br label %11

11:                                               ; preds = %6
  %12 = insertvalue { i8*, i32 } undef, i8* %8, 0
  %13 = insertvalue { i8*, i32 } %12, i32 %9, 1
  resume { i8*, i32 } %13
}

declare i32 @__gxx_personality_v0(...)

; Function Attrs: noinline nounwind uwtable
define linkonce_odr void @_ZNSaISt4pairINSt7__cxx1112basic_stringIcSt11char_traitsIcESaIcEEEiEED2Ev(%"class.std::allocator"* %0) unnamed_addr #5 comdat align 2 {
  %2 = bitcast %"class.std::allocator"* %0 to %"class.__gnu_cxx::new_allocator"*
  call void @_ZN9__gnu_cxx13new_allocatorISt4pairINSt7__cxx1112basic_stringIcSt11char_traitsIcESaIcEEEiEED2Ev(%"class.__gnu_cxx::new_allocator"* %2) #3
  ret void
}

declare dereferenceable(280) %"class.std::basic_istream"* @_ZStrsIcSt11char_traitsIcESaIcEERSt13basic_istreamIT_T0_ES7_RNSt7__cxx1112basic_stringIS4_S5_T1_EE(%"class.std::basic_istream"* dereferenceable(280), %"class.std::__cxx11::basic_string"* dereferenceable(32)) #1

; Function Attrs: noinline nounwind uwtable
define linkonce_odr dereferenceable(40) %"struct.std::pair"* @_ZNSt6vectorISt4pairINSt7__cxx1112basic_stringIcSt11char_traitsIcESaIcEEEiESaIS7_EEixEm(%"class.std::vector"* %0, i64 %1) #5 comdat align 2 {
  %3 = bitcast %"class.std::vector"* %0 to %"struct.std::_Vector_base"*
  %4 = getelementptr inbounds %"struct.std::_Vector_base", %"struct.std::_Vector_base"* %3, i32 0, i32 0
  %5 = getelementptr inbounds %"struct.std::_Vector_base<std::pair<std::__cxx11::basic_string<char>, int>, std::allocator<std::pair<std::__cxx11::basic_string<char>, int> > >::_Vector_impl", %"struct.std::_Vector_base<std::pair<std::__cxx11::basic_string<char>, int>, std::allocator<std::pair<std::__cxx11::basic_string<char>, int> > >::_Vector_impl"* %4, i32 0, i32 0
  %6 = load %"struct.std::pair"*, %"struct.std::pair"** %5, align 8
  %7 = getelementptr inbounds %"struct.std::pair", %"struct.std::pair"* %6, i64 %1
  ret %"struct.std::pair"* %7
}

; Function Attrs: noinline uwtable
define linkonce_odr void @_ZSt4sortIN9__gnu_cxx17__normal_iteratorIPSt4pairINSt7__cxx1112basic_stringIcSt11char_traitsIcESaIcEEEiESt6vectorIS9_SaIS9_EEEEEvT_SF_(%"struct.std::pair"* %0, %"struct.std::pair"* %1) #0 comdat {
  %3 = alloca %"class.__gnu_cxx::__normal_iterator", align 8
  %4 = alloca %"class.__gnu_cxx::__normal_iterator", align 8
  %5 = alloca %"class.__gnu_cxx::__normal_iterator", align 8
  %6 = alloca %"class.__gnu_cxx::__normal_iterator", align 8
  %7 = getelementptr inbounds %"class.__gnu_cxx::__normal_iterator", %"class.__gnu_cxx::__normal_iterator"* %3, i32 0, i32 0
  store %"struct.std::pair"* %0, %"struct.std::pair"** %7, align 8
  %8 = getelementptr inbounds %"class.__gnu_cxx::__normal_iterator", %"class.__gnu_cxx::__normal_iterator"* %4, i32 0, i32 0
  store %"struct.std::pair"* %1, %"struct.std::pair"** %8, align 8
  %9 = bitcast %"class.__gnu_cxx::__normal_iterator"* %5 to i8*
  %10 = bitcast %"class.__gnu_cxx::__normal_iterator"* %3 to i8*
  call void @llvm.memcpy.p0i8.p0i8.i64(i8* align 8 %9, i8* align 8 %10, i64 8, i1 false)
  %11 = bitcast %"class.__gnu_cxx::__normal_iterator"* %6 to i8*
  %12 = bitcast %"class.__gnu_cxx::__normal_iterator"* %4 to i8*
  call void @llvm.memcpy.p0i8.p0i8.i64(i8* align 8 %11, i8* align 8 %12, i64 8, i1 false)
  call void @_ZN9__gnu_cxx5__ops16__iter_less_iterEv()
  %13 = getelementptr inbounds %"class.__gnu_cxx::__normal_iterator", %"class.__gnu_cxx::__normal_iterator"* %5, i32 0, i32 0
  %14 = load %"struct.std::pair"*, %"struct.std::pair"** %13, align 8
  %15 = getelementptr inbounds %"class.__gnu_cxx::__normal_iterator", %"class.__gnu_cxx::__normal_iterator"* %6, i32 0, i32 0
  %16 = load %"struct.std::pair"*, %"struct.std::pair"** %15, align 8
  call void @_ZSt6__sortIN9__gnu_cxx17__normal_iteratorIPSt4pairINSt7__cxx1112basic_stringIcSt11char_traitsIcESaIcEEEiESt6vectorIS9_SaIS9_EEEENS0_5__ops15_Iter_less_iterEEvT_SH_T0_(%"struct.std::pair"* %14, %"struct.std::pair"* %16)
  ret void
}

; Function Attrs: noinline nounwind uwtable
define linkonce_odr %"struct.std::pair"* @_ZNSt6vectorISt4pairINSt7__cxx1112basic_stringIcSt11char_traitsIcESaIcEEEiESaIS7_EE5beginEv(%"class.std::vector"* %0) #5 comdat align 2 {
  %2 = alloca %"class.__gnu_cxx::__normal_iterator", align 8
  %3 = bitcast %"class.std::vector"* %0 to %"struct.std::_Vector_base"*
  %4 = getelementptr inbounds %"struct.std::_Vector_base", %"struct.std::_Vector_base"* %3, i32 0, i32 0
  %5 = getelementptr inbounds %"struct.std::_Vector_base<std::pair<std::__cxx11::basic_string<char>, int>, std::allocator<std::pair<std::__cxx11::basic_string<char>, int> > >::_Vector_impl", %"struct.std::_Vector_base<std::pair<std::__cxx11::basic_string<char>, int>, std::allocator<std::pair<std::__cxx11::basic_string<char>, int> > >::_Vector_impl"* %4, i32 0, i32 0
  call void @_ZN9__gnu_cxx17__normal_iteratorIPSt4pairINSt7__cxx1112basic_stringIcSt11char_traitsIcESaIcEEEiESt6vectorIS8_SaIS8_EEEC2ERKS9_(%"class.__gnu_cxx::__normal_iterator"* %2, %"struct.std::pair"** dereferenceable(8) %5) #3
  %6 = getelementptr inbounds %"class.__gnu_cxx::__normal_iterator", %"class.__gnu_cxx::__normal_iterator"* %2, i32 0, i32 0
  %7 = load %"struct.std::pair"*, %"struct.std::pair"** %6, align 8
  ret %"struct.std::pair"* %7
}

; Function Attrs: noinline nounwind uwtable
define linkonce_odr %"struct.std::pair"* @_ZNSt6vectorISt4pairINSt7__cxx1112basic_stringIcSt11char_traitsIcESaIcEEEiESaIS7_EE3endEv(%"class.std::vector"* %0) #5 comdat align 2 {
  %2 = alloca %"class.__gnu_cxx::__normal_iterator", align 8
  %3 = bitcast %"class.std::vector"* %0 to %"struct.std::_Vector_base"*
  %4 = getelementptr inbounds %"struct.std::_Vector_base", %"struct.std::_Vector_base"* %3, i32 0, i32 0
  %5 = getelementptr inbounds %"struct.std::_Vector_base<std::pair<std::__cxx11::basic_string<char>, int>, std::allocator<std::pair<std::__cxx11::basic_string<char>, int> > >::_Vector_impl", %"struct.std::_Vector_base<std::pair<std::__cxx11::basic_string<char>, int>, std::allocator<std::pair<std::__cxx11::basic_string<char>, int> > >::_Vector_impl"* %4, i32 0, i32 1
  call void @_ZN9__gnu_cxx17__normal_iteratorIPSt4pairINSt7__cxx1112basic_stringIcSt11char_traitsIcESaIcEEEiESt6vectorIS8_SaIS8_EEEC2ERKS9_(%"class.__gnu_cxx::__normal_iterator"* %2, %"struct.std::pair"** dereferenceable(8) %5) #3
  %6 = getelementptr inbounds %"class.__gnu_cxx::__normal_iterator", %"class.__gnu_cxx::__normal_iterator"* %2, i32 0, i32 0
  %7 = load %"struct.std::pair"*, %"struct.std::pair"** %6, align 8
  ret %"struct.std::pair"* %7
}

; Function Attrs: noinline nounwind uwtable
define linkonce_odr void @_ZNSaIiEC2Ev(%"class.std::allocator.5"* %0) unnamed_addr #5 comdat align 2 {
  %2 = bitcast %"class.std::allocator.5"* %0 to %"class.__gnu_cxx::new_allocator.6"*
  call void @_ZN9__gnu_cxx13new_allocatorIiEC2Ev(%"class.__gnu_cxx::new_allocator.6"* %2) #3
  ret void
}

; Function Attrs: noinline uwtable
define linkonce_odr void @_ZNSt6vectorIiSaIiEEC2EmRKS0_(%"class.std::vector.3"* %0, i64 %1, %"class.std::allocator.5"* dereferenceable(1) %2) unnamed_addr #0 comdat align 2 personality i8* bitcast (i32 (...)* @__gxx_personality_v0 to i8*) {
  %4 = bitcast %"class.std::vector.3"* %0 to %"struct.std::_Vector_base.4"*
  call void @_ZNSt12_Vector_baseIiSaIiEEC2EmRKS0_(%"struct.std::_Vector_base.4"* %4, i64 %1, %"class.std::allocator.5"* dereferenceable(1) %2)
  invoke void @_ZNSt6vectorIiSaIiEE21_M_default_initializeEm(%"class.std::vector.3"* %0, i64 %1)
          to label %5 unwind label %6

5:                                                ; preds = %3
  ret void

6:                                                ; preds = %3
  %7 = landingpad { i8*, i32 }
          cleanup
  %8 = extractvalue { i8*, i32 } %7, 0
  %9 = extractvalue { i8*, i32 } %7, 1
  %10 = bitcast %"class.std::vector.3"* %0 to %"struct.std::_Vector_base.4"*
  call void @_ZNSt12_Vector_baseIiSaIiEED2Ev(%"struct.std::_Vector_base.4"* %10) #3
  br label %11

11:                                               ; preds = %6
  %12 = insertvalue { i8*, i32 } undef, i8* %8, 0
  %13 = insertvalue { i8*, i32 } %12, i32 %9, 1
  resume { i8*, i32 } %13
}

; Function Attrs: noinline nounwind uwtable
define linkonce_odr void @_ZNSaIiED2Ev(%"class.std::allocator.5"* %0) unnamed_addr #5 comdat align 2 {
  %2 = bitcast %"class.std::allocator.5"* %0 to %"class.__gnu_cxx::new_allocator.6"*
  call void @_ZN9__gnu_cxx13new_allocatorIiED2Ev(%"class.__gnu_cxx::new_allocator.6"* %2) #3
  ret void
}

; Function Attrs: noinline nounwind uwtable
define linkonce_odr dereferenceable(4) i32* @_ZNSt6vectorIiSaIiEEixEm(%"class.std::vector.3"* %0, i64 %1) #5 comdat align 2 {
  %3 = bitcast %"class.std::vector.3"* %0 to %"struct.std::_Vector_base.4"*
  %4 = getelementptr inbounds %"struct.std::_Vector_base.4", %"struct.std::_Vector_base.4"* %3, i32 0, i32 0
  %5 = getelementptr inbounds %"struct.std::_Vector_base<int, std::allocator<int> >::_Vector_impl", %"struct.std::_Vector_base<int, std::allocator<int> >::_Vector_impl"* %4, i32 0, i32 0
  %6 = load i32*, i32** %5, align 8
  %7 = getelementptr inbounds i32, i32* %6, i64 %1
  ret i32* %7
}

; Function Attrs: noinline nounwind uwtable
define linkonce_odr dereferenceable(8) i64* @_ZSt3minImERKT_S2_S2_(i64* dereferenceable(8) %0, i64* dereferenceable(8) %1) #5 comdat {
  %3 = load i64, i64* %1, align 8
  %4 = load i64, i64* %0, align 8
  %5 = icmp ult i64 %3, %4
  br i1 %5, label %6, label %7

6:                                                ; preds = %2
  br label %8

7:                                                ; preds = %2
  br label %8

8:                                                ; preds = %7, %6
  %.0 = phi i64* [ %1, %6 ], [ %0, %7 ]
  ret i64* %.0
}

; Function Attrs: nounwind
declare i64 @_ZNKSt7__cxx1112basic_stringIcSt11char_traitsIcESaIcEE4sizeEv(%"class.std::__cxx11::basic_string"*) #2

declare dereferenceable(1) i8* @_ZNSt7__cxx1112basic_stringIcSt11char_traitsIcESaIcEEixEm(%"class.std::__cxx11::basic_string"*, i64) #1

; Function Attrs: noinline nounwind uwtable
define linkonce_odr i32* @_ZNSt6vectorIiSaIiEE5beginEv(%"class.std::vector.3"* %0) #5 comdat align 2 {
  %2 = alloca %"class.__gnu_cxx::__normal_iterator.8", align 8
  %3 = bitcast %"class.std::vector.3"* %0 to %"struct.std::_Vector_base.4"*
  %4 = getelementptr inbounds %"struct.std::_Vector_base.4", %"struct.std::_Vector_base.4"* %3, i32 0, i32 0
  %5 = getelementptr inbounds %"struct.std::_Vector_base<int, std::allocator<int> >::_Vector_impl", %"struct.std::_Vector_base<int, std::allocator<int> >::_Vector_impl"* %4, i32 0, i32 0
  call void @_ZN9__gnu_cxx17__normal_iteratorIPiSt6vectorIiSaIiEEEC2ERKS1_(%"class.__gnu_cxx::__normal_iterator.8"* %2, i32** dereferenceable(8) %5) #3
  %6 = getelementptr inbounds %"class.__gnu_cxx::__normal_iterator.8", %"class.__gnu_cxx::__normal_iterator.8"* %2, i32 0, i32 0
  %7 = load i32*, i32** %6, align 8
  ret i32* %7
}

; Function Attrs: noinline nounwind uwtable
define linkonce_odr i32* @_ZNSt6vectorIiSaIiEE3endEv(%"class.std::vector.3"* %0) #5 comdat align 2 {
  %2 = alloca %"class.__gnu_cxx::__normal_iterator.8", align 8
  %3 = bitcast %"class.std::vector.3"* %0 to %"struct.std::_Vector_base.4"*
  %4 = getelementptr inbounds %"struct.std::_Vector_base.4", %"struct.std::_Vector_base.4"* %3, i32 0, i32 0
  %5 = getelementptr inbounds %"struct.std::_Vector_base<int, std::allocator<int> >::_Vector_impl", %"struct.std::_Vector_base<int, std::allocator<int> >::_Vector_impl"* %4, i32 0, i32 1
  call void @_ZN9__gnu_cxx17__normal_iteratorIPiSt6vectorIiSaIiEEEC2ERKS1_(%"class.__gnu_cxx::__normal_iterator.8"* %2, i32** dereferenceable(8) %5) #3
  %6 = getelementptr inbounds %"class.__gnu_cxx::__normal_iterator.8", %"class.__gnu_cxx::__normal_iterator.8"* %2, i32 0, i32 0
  %7 = load i32*, i32** %6, align 8
  ret i32* %7
}

; Function Attrs: noinline uwtable
define linkonce_odr void @_ZN2lc11SegmentTreeINS_9MinTraitsIiEEEC2IN9__gnu_cxx17__normal_iteratorIPiSt6vectorIiSaIiEEEEEET_SC_RKS2_(%"class.lc::SegmentTree"* %0, i32* %1, i32* %2, %"struct.lc::MinTraits"* dereferenceable(1) %3) unnamed_addr #0 comdat align 2 personality i8* bitcast (i32 (...)* @__gxx_personality_v0 to i8*) {
  %5 = alloca %"class.__gnu_cxx::__normal_iterator.8", align 8
  %6 = alloca %"class.__gnu_cxx::__normal_iterator.8", align 8
  %7 = alloca %"class.__gnu_cxx::__normal_iterator.8", align 8
  %8 = alloca %"class.__gnu_cxx::__normal_iterator.8", align 8
  %9 = alloca i32, align 4
  %10 = alloca %"class.__gnu_cxx::__normal_iterator.8", align 8
  %11 = alloca %"class.__gnu_cxx::__normal_iterator.8", align 8
  %12 = alloca %"class.__gnu_cxx::__normal_iterator.8", align 8
  %13 = alloca %"class.__gnu_cxx::__normal_iterator.8", align 8
  %14 = alloca %"class.__gnu_cxx::__normal_iterator.8", align 8
  %15 = alloca %"class.__gnu_cxx::__normal_iterator.8", align 8
  %16 = getelementptr inbounds %"class.__gnu_cxx::__normal_iterator.8", %"class.__gnu_cxx::__normal_iterator.8"* %5, i32 0, i32 0
  store i32* %1, i32** %16, align 8
  %17 = getelementptr inbounds %"class.__gnu_cxx::__normal_iterator.8", %"class.__gnu_cxx::__normal_iterator.8"* %6, i32 0, i32 0
  store i32* %2, i32** %17, align 8
  %18 = getelementptr inbounds %"class.lc::SegmentTree", %"class.lc::SegmentTree"* %0, i32 0, i32 0
  %19 = getelementptr inbounds %"class.lc::SegmentTree", %"class.lc::SegmentTree"* %0, i32 0, i32 2
  call void @_ZNSt6vectorIiSaIiEEC2Ev(%"class.std::vector.3"* %19) #3
  %20 = getelementptr inbounds %"class.lc::SegmentTree", %"class.lc::SegmentTree"* %0, i32 0, i32 3
  store i32 1, i32* %20, align 8
  %21 = bitcast %"class.__gnu_cxx::__normal_iterator.8"* %7 to i8*
  %22 = bitcast %"class.__gnu_cxx::__normal_iterator.8"* %5 to i8*
  call void @llvm.memcpy.p0i8.p0i8.i64(i8* align 8 %21, i8* align 8 %22, i64 8, i1 false)
  %23 = bitcast %"class.__gnu_cxx::__normal_iterator.8"* %8 to i8*
  %24 = bitcast %"class.__gnu_cxx::__normal_iterator.8"* %6 to i8*
  call void @llvm.memcpy.p0i8.p0i8.i64(i8* align 8 %23, i8* align 8 %24, i64 8, i1 false)
  %25 = getelementptr inbounds %"class.__gnu_cxx::__normal_iterator.8", %"class.__gnu_cxx::__normal_iterator.8"* %7, i32 0, i32 0
  %26 = load i32*, i32** %25, align 8
  %27 = getelementptr inbounds %"class.__gnu_cxx::__normal_iterator.8", %"class.__gnu_cxx::__normal_iterator.8"* %8, i32 0, i32 0
  %28 = load i32*, i32** %27, align 8
  %29 = invoke i64 @_ZSt8distanceIN9__gnu_cxx17__normal_iteratorIPiSt6vectorIiSaIiEEEEENSt15iterator_traitsIT_E15difference_typeES8_S8_(i32* %26, i32* %28)
          to label %30 unwind label %40

30:                                               ; preds = %4
  %31 = trunc i64 %29 to i32
  br label %32

32:                                               ; preds = %36, %30
  %33 = getelementptr inbounds %"class.lc::SegmentTree", %"class.lc::SegmentTree"* %0, i32 0, i32 3
  %34 = load i32, i32* %33, align 8
  %35 = icmp slt i32 %34, %31
  br i1 %35, label %36, label %44

36:                                               ; preds = %32
  %37 = getelementptr inbounds %"class.lc::SegmentTree", %"class.lc::SegmentTree"* %0, i32 0, i32 3
  %38 = load i32, i32* %37, align 8
  %39 = mul nsw i32 %38, 2
  store i32 %39, i32* %37, align 8
  br label %32

40:                                               ; preds = %76, %54, %53, %44, %4
  %41 = landingpad { i8*, i32 }
          cleanup
  %42 = extractvalue { i8*, i32 } %41, 0
  %43 = extractvalue { i8*, i32 } %41, 1
  call void @_ZNSt6vectorIiSaIiEED2Ev(%"class.std::vector.3"* %19) #3
  br label %79

44:                                               ; preds = %32
  %45 = getelementptr inbounds %"class.lc::SegmentTree", %"class.lc::SegmentTree"* %0, i32 0, i32 2
  %46 = getelementptr inbounds %"class.lc::SegmentTree", %"class.lc::SegmentTree"* %0, i32 0, i32 3
  %47 = load i32, i32* %46, align 8
  %48 = mul nsw i32 %47, 2
  %49 = sub nsw i32 %48, 1
  %50 = sext i32 %49 to i64
  %51 = getelementptr inbounds %"class.lc::SegmentTree", %"class.lc::SegmentTree"* %0, i32 0, i32 0
  %52 = invoke i32 @_ZNK2lc9MinTraitsIiE13default_valueEv(%"struct.lc::MinTraits"* %51)
          to label %53 unwind label %40

53:                                               ; preds = %44
  store i32 %52, i32* %9, align 4
  invoke void @_ZNSt6vectorIiSaIiEE6resizeEmRKi(%"class.std::vector.3"* %45, i64 %50, i32* dereferenceable(4) %9)
          to label %54 unwind label %40

54:                                               ; preds = %53
  %55 = bitcast %"class.__gnu_cxx::__normal_iterator.8"* %10 to i8*
  %56 = bitcast %"class.__gnu_cxx::__normal_iterator.8"* %5 to i8*
  call void @llvm.memcpy.p0i8.p0i8.i64(i8* align 8 %55, i8* align 8 %56, i64 8, i1 false)
  %57 = bitcast %"class.__gnu_cxx::__normal_iterator.8"* %11 to i8*
  %58 = bitcast %"class.__gnu_cxx::__normal_iterator.8"* %6 to i8*
  call void @llvm.memcpy.p0i8.p0i8.i64(i8* align 8 %57, i8* align 8 %58, i64 8, i1 false)
  %59 = getelementptr inbounds %"class.lc::SegmentTree", %"class.lc::SegmentTree"* %0, i32 0, i32 2
  %60 = call i32* @_ZNSt6vectorIiSaIiEE5beginEv(%"class.std::vector.3"* %59) #3
  %61 = getelementptr inbounds %"class.__gnu_cxx::__normal_iterator.8", %"class.__gnu_cxx::__normal_iterator.8"* %13, i32 0, i32 0
  store i32* %60, i32** %61, align 8
  %62 = getelementptr inbounds %"class.lc::SegmentTree", %"class.lc::SegmentTree"* %0, i32 0, i32 3
  %63 = load i32, i32* %62, align 8
  %64 = sext i32 %63 to i64
  %65 = call i32* @_ZNK9__gnu_cxx17__normal_iteratorIPiSt6vectorIiSaIiEEEplEl(%"class.__gnu_cxx::__normal_iterator.8"* %13, i64 %64) #3
  %66 = getelementptr inbounds %"class.__gnu_cxx::__normal_iterator.8", %"class.__gnu_cxx::__normal_iterator.8"* %14, i32 0, i32 0
  store i32* %65, i32** %66, align 8
  %67 = call i32* @_ZNK9__gnu_cxx17__normal_iteratorIPiSt6vectorIiSaIiEEEmiEl(%"class.__gnu_cxx::__normal_iterator.8"* %14, i64 1) #3
  %68 = getelementptr inbounds %"class.__gnu_cxx::__normal_iterator.8", %"class.__gnu_cxx::__normal_iterator.8"* %12, i32 0, i32 0
  store i32* %67, i32** %68, align 8
  %69 = getelementptr inbounds %"class.__gnu_cxx::__normal_iterator.8", %"class.__gnu_cxx::__normal_iterator.8"* %10, i32 0, i32 0
  %70 = load i32*, i32** %69, align 8
  %71 = getelementptr inbounds %"class.__gnu_cxx::__normal_iterator.8", %"class.__gnu_cxx::__normal_iterator.8"* %11, i32 0, i32 0
  %72 = load i32*, i32** %71, align 8
  %73 = getelementptr inbounds %"class.__gnu_cxx::__normal_iterator.8", %"class.__gnu_cxx::__normal_iterator.8"* %12, i32 0, i32 0
  %74 = load i32*, i32** %73, align 8
  %75 = invoke i32* @_ZSt4copyIN9__gnu_cxx17__normal_iteratorIPiSt6vectorIiSaIiEEEES6_ET0_T_S8_S7_(i32* %70, i32* %72, i32* %74)
          to label %76 unwind label %40

76:                                               ; preds = %54
  %77 = getelementptr inbounds %"class.__gnu_cxx::__normal_iterator.8", %"class.__gnu_cxx::__normal_iterator.8"* %15, i32 0, i32 0
  store i32* %75, i32** %77, align 8
  invoke void @_ZN2lc11SegmentTreeINS_9MinTraitsIiEEE10initializeEv(%"class.lc::SegmentTree"* %0)
          to label %78 unwind label %40

78:                                               ; preds = %76
  ret void

79:                                               ; preds = %40
  %80 = insertvalue { i8*, i32 } undef, i8* %42, 0
  %81 = insertvalue { i8*, i32 } %80, i32 %43, 1
  resume { i8*, i32 } %81
}

; Function Attrs: noinline uwtable
define linkonce_odr i32 @_ZNK2lc11SegmentTreeINS_9MinTraitsIiEEE5queryEii(%"class.lc::SegmentTree"* %0, i32 %1, i32 %2) #0 comdat align 2 {
  %4 = getelementptr inbounds %"class.lc::SegmentTree", %"class.lc::SegmentTree"* %0, i32 0, i32 3
  %5 = load i32, i32* %4, align 8
  %6 = call i32 @_ZNK2lc11SegmentTreeINS_9MinTraitsIiEEE5queryEiiiii(%"class.lc::SegmentTree"* %0, i32 %1, i32 %2, i32 0, i32 0, i32 %5)
  ret i32 %6
}

; Function Attrs: noinline nounwind uwtable
define linkonce_odr i64 @_ZNSt14numeric_limitsIxE3maxEv() #5 comdat align 2 {
  ret i64 9223372036854775807
}

; Function Attrs: noinline nounwind uwtable
define linkonce_odr void @_ZNSaIxEC2Ev(%"class.std::allocator.11"* %0) unnamed_addr #5 comdat align 2 {
  %2 = bitcast %"class.std::allocator.11"* %0 to %"class.__gnu_cxx::new_allocator.12"*
  call void @_ZN9__gnu_cxx13new_allocatorIxEC2Ev(%"class.__gnu_cxx::new_allocator.12"* %2) #3
  ret void
}

; Function Attrs: noinline uwtable
define linkonce_odr void @_ZNSt6vectorIxSaIxEEC2EmRKxRKS0_(%"class.std::vector.9"* %0, i64 %1, i64* dereferenceable(8) %2, %"class.std::allocator.11"* dereferenceable(1) %3) unnamed_addr #0 comdat align 2 personality i8* bitcast (i32 (...)* @__gxx_personality_v0 to i8*) {
  %5 = bitcast %"class.std::vector.9"* %0 to %"struct.std::_Vector_base.10"*
  call void @_ZNSt12_Vector_baseIxSaIxEEC2EmRKS0_(%"struct.std::_Vector_base.10"* %5, i64 %1, %"class.std::allocator.11"* dereferenceable(1) %3)
  invoke void @_ZNSt6vectorIxSaIxEE18_M_fill_initializeEmRKx(%"class.std::vector.9"* %0, i64 %1, i64* dereferenceable(8) %2)
          to label %6 unwind label %7

6:                                                ; preds = %4
  ret void

7:                                                ; preds = %4
  %8 = landingpad { i8*, i32 }
          cleanup
  %9 = extractvalue { i8*, i32 } %8, 0
  %10 = extractvalue { i8*, i32 } %8, 1
  %11 = bitcast %"class.std::vector.9"* %0 to %"struct.std::_Vector_base.10"*
  call void @_ZNSt12_Vector_baseIxSaIxEED2Ev(%"struct.std::_Vector_base.10"* %11) #3
  br label %12

12:                                               ; preds = %7
  %13 = insertvalue { i8*, i32 } undef, i8* %9, 0
  %14 = insertvalue { i8*, i32 } %13, i32 %10, 1
  resume { i8*, i32 } %14
}

; Function Attrs: noinline nounwind uwtable
define linkonce_odr void @_ZNSaIxED2Ev(%"class.std::allocator.11"* %0) unnamed_addr #5 comdat align 2 {
  %2 = bitcast %"class.std::allocator.11"* %0 to %"class.__gnu_cxx::new_allocator.12"*
  call void @_ZN9__gnu_cxx13new_allocatorIxED2Ev(%"class.__gnu_cxx::new_allocator.12"* %2) #3
  ret void
}

; Function Attrs: noinline nounwind uwtable
define linkonce_odr i64* @_ZNSt6vectorIxSaIxEE5beginEv(%"class.std::vector.9"* %0) #5 comdat align 2 {
  %2 = alloca %"class.__gnu_cxx::__normal_iterator.17", align 8
  %3 = bitcast %"class.std::vector.9"* %0 to %"struct.std::_Vector_base.10"*
  %4 = getelementptr inbounds %"struct.std::_Vector_base.10", %"struct.std::_Vector_base.10"* %3, i32 0, i32 0
  %5 = getelementptr inbounds %"struct.std::_Vector_base<long long, std::allocator<long long> >::_Vector_impl", %"struct.std::_Vector_base<long long, std::allocator<long long> >::_Vector_impl"* %4, i32 0, i32 0
  call void @_ZN9__gnu_cxx17__normal_iteratorIPxSt6vectorIxSaIxEEEC2ERKS1_(%"class.__gnu_cxx::__normal_iterator.17"* %2, i64** dereferenceable(8) %5) #3
  %6 = getelementptr inbounds %"class.__gnu_cxx::__normal_iterator.17", %"class.__gnu_cxx::__normal_iterator.17"* %2, i32 0, i32 0
  %7 = load i64*, i64** %6, align 8
  ret i64* %7
}

; Function Attrs: noinline nounwind uwtable
define linkonce_odr i64* @_ZNSt6vectorIxSaIxEE3endEv(%"class.std::vector.9"* %0) #5 comdat align 2 {
  %2 = alloca %"class.__gnu_cxx::__normal_iterator.17", align 8
  %3 = bitcast %"class.std::vector.9"* %0 to %"struct.std::_Vector_base.10"*
  %4 = getelementptr inbounds %"struct.std::_Vector_base.10", %"struct.std::_Vector_base.10"* %3, i32 0, i32 0
  %5 = getelementptr inbounds %"struct.std::_Vector_base<long long, std::allocator<long long> >::_Vector_impl", %"struct.std::_Vector_base<long long, std::allocator<long long> >::_Vector_impl"* %4, i32 0, i32 1
  call void @_ZN9__gnu_cxx17__normal_iteratorIPxSt6vectorIxSaIxEEEC2ERKS1_(%"class.__gnu_cxx::__normal_iterator.17"* %2, i64** dereferenceable(8) %5) #3
  %6 = getelementptr inbounds %"class.__gnu_cxx::__normal_iterator.17", %"class.__gnu_cxx::__normal_iterator.17"* %2, i32 0, i32 0
  %7 = load i64*, i64** %6, align 8
  ret i64* %7
}

; Function Attrs: noinline uwtable
define linkonce_odr void @_ZN2lc11SegmentTreeINS_9MinTraitsIxEEEC2IN9__gnu_cxx17__normal_iteratorIPxSt6vectorIxSaIxEEEEEET_SC_RKS2_(%"class.lc::SegmentTree.14"* %0, i64* %1, i64* %2, %"struct.lc::MinTraits.15"* dereferenceable(1) %3) unnamed_addr #0 comdat align 2 personality i8* bitcast (i32 (...)* @__gxx_personality_v0 to i8*) {
  %5 = alloca %"class.__gnu_cxx::__normal_iterator.17", align 8
  %6 = alloca %"class.__gnu_cxx::__normal_iterator.17", align 8
  %7 = alloca %"class.__gnu_cxx::__normal_iterator.17", align 8
  %8 = alloca %"class.__gnu_cxx::__normal_iterator.17", align 8
  %9 = alloca i64, align 8
  %10 = alloca %"class.__gnu_cxx::__normal_iterator.17", align 8
  %11 = alloca %"class.__gnu_cxx::__normal_iterator.17", align 8
  %12 = alloca %"class.__gnu_cxx::__normal_iterator.17", align 8
  %13 = alloca %"class.__gnu_cxx::__normal_iterator.17", align 8
  %14 = alloca %"class.__gnu_cxx::__normal_iterator.17", align 8
  %15 = alloca %"class.__gnu_cxx::__normal_iterator.17", align 8
  %16 = getelementptr inbounds %"class.__gnu_cxx::__normal_iterator.17", %"class.__gnu_cxx::__normal_iterator.17"* %5, i32 0, i32 0
  store i64* %1, i64** %16, align 8
  %17 = getelementptr inbounds %"class.__gnu_cxx::__normal_iterator.17", %"class.__gnu_cxx::__normal_iterator.17"* %6, i32 0, i32 0
  store i64* %2, i64** %17, align 8
  %18 = getelementptr inbounds %"class.lc::SegmentTree.14", %"class.lc::SegmentTree.14"* %0, i32 0, i32 0
  %19 = getelementptr inbounds %"class.lc::SegmentTree.14", %"class.lc::SegmentTree.14"* %0, i32 0, i32 2
  call void @_ZNSt6vectorIxSaIxEEC2Ev(%"class.std::vector.9"* %19) #3
  %20 = getelementptr inbounds %"class.lc::SegmentTree.14", %"class.lc::SegmentTree.14"* %0, i32 0, i32 3
  store i32 1, i32* %20, align 8
  %21 = bitcast %"class.__gnu_cxx::__normal_iterator.17"* %7 to i8*
  %22 = bitcast %"class.__gnu_cxx::__normal_iterator.17"* %5 to i8*
  call void @llvm.memcpy.p0i8.p0i8.i64(i8* align 8 %21, i8* align 8 %22, i64 8, i1 false)
  %23 = bitcast %"class.__gnu_cxx::__normal_iterator.17"* %8 to i8*
  %24 = bitcast %"class.__gnu_cxx::__normal_iterator.17"* %6 to i8*
  call void @llvm.memcpy.p0i8.p0i8.i64(i8* align 8 %23, i8* align 8 %24, i64 8, i1 false)
  %25 = getelementptr inbounds %"class.__gnu_cxx::__normal_iterator.17", %"class.__gnu_cxx::__normal_iterator.17"* %7, i32 0, i32 0
  %26 = load i64*, i64** %25, align 8
  %27 = getelementptr inbounds %"class.__gnu_cxx::__normal_iterator.17", %"class.__gnu_cxx::__normal_iterator.17"* %8, i32 0, i32 0
  %28 = load i64*, i64** %27, align 8
  %29 = invoke i64 @_ZSt8distanceIN9__gnu_cxx17__normal_iteratorIPxSt6vectorIxSaIxEEEEENSt15iterator_traitsIT_E15difference_typeES8_S8_(i64* %26, i64* %28)
          to label %30 unwind label %40

30:                                               ; preds = %4
  %31 = trunc i64 %29 to i32
  br label %32

32:                                               ; preds = %36, %30
  %33 = getelementptr inbounds %"class.lc::SegmentTree.14", %"class.lc::SegmentTree.14"* %0, i32 0, i32 3
  %34 = load i32, i32* %33, align 8
  %35 = icmp slt i32 %34, %31
  br i1 %35, label %36, label %44

36:                                               ; preds = %32
  %37 = getelementptr inbounds %"class.lc::SegmentTree.14", %"class.lc::SegmentTree.14"* %0, i32 0, i32 3
  %38 = load i32, i32* %37, align 8
  %39 = mul nsw i32 %38, 2
  store i32 %39, i32* %37, align 8
  br label %32

40:                                               ; preds = %76, %54, %53, %44, %4
  %41 = landingpad { i8*, i32 }
          cleanup
  %42 = extractvalue { i8*, i32 } %41, 0
  %43 = extractvalue { i8*, i32 } %41, 1
  call void @_ZNSt6vectorIxSaIxEED2Ev(%"class.std::vector.9"* %19) #3
  br label %79

44:                                               ; preds = %32
  %45 = getelementptr inbounds %"class.lc::SegmentTree.14", %"class.lc::SegmentTree.14"* %0, i32 0, i32 2
  %46 = getelementptr inbounds %"class.lc::SegmentTree.14", %"class.lc::SegmentTree.14"* %0, i32 0, i32 3
  %47 = load i32, i32* %46, align 8
  %48 = mul nsw i32 %47, 2
  %49 = sub nsw i32 %48, 1
  %50 = sext i32 %49 to i64
  %51 = getelementptr inbounds %"class.lc::SegmentTree.14", %"class.lc::SegmentTree.14"* %0, i32 0, i32 0
  %52 = invoke i64 @_ZNK2lc9MinTraitsIxE13default_valueEv(%"struct.lc::MinTraits.15"* %51)
          to label %53 unwind label %40

53:                                               ; preds = %44
  store i64 %52, i64* %9, align 8
  invoke void @_ZNSt6vectorIxSaIxEE6resizeEmRKx(%"class.std::vector.9"* %45, i64 %50, i64* dereferenceable(8) %9)
          to label %54 unwind label %40

54:                                               ; preds = %53
  %55 = bitcast %"class.__gnu_cxx::__normal_iterator.17"* %10 to i8*
  %56 = bitcast %"class.__gnu_cxx::__normal_iterator.17"* %5 to i8*
  call void @llvm.memcpy.p0i8.p0i8.i64(i8* align 8 %55, i8* align 8 %56, i64 8, i1 false)
  %57 = bitcast %"class.__gnu_cxx::__normal_iterator.17"* %11 to i8*
  %58 = bitcast %"class.__gnu_cxx::__normal_iterator.17"* %6 to i8*
  call void @llvm.memcpy.p0i8.p0i8.i64(i8* align 8 %57, i8* align 8 %58, i64 8, i1 false)
  %59 = getelementptr inbounds %"class.lc::SegmentTree.14", %"class.lc::SegmentTree.14"* %0, i32 0, i32 2
  %60 = call i64* @_ZNSt6vectorIxSaIxEE5beginEv(%"class.std::vector.9"* %59) #3
  %61 = getelementptr inbounds %"class.__gnu_cxx::__normal_iterator.17", %"class.__gnu_cxx::__normal_iterator.17"* %13, i32 0, i32 0
  store i64* %60, i64** %61, align 8
  %62 = getelementptr inbounds %"class.lc::SegmentTree.14", %"class.lc::SegmentTree.14"* %0, i32 0, i32 3
  %63 = load i32, i32* %62, align 8
  %64 = sext i32 %63 to i64
  %65 = call i64* @_ZNK9__gnu_cxx17__normal_iteratorIPxSt6vectorIxSaIxEEEplEl(%"class.__gnu_cxx::__normal_iterator.17"* %13, i64 %64) #3
  %66 = getelementptr inbounds %"class.__gnu_cxx::__normal_iterator.17", %"class.__gnu_cxx::__normal_iterator.17"* %14, i32 0, i32 0
  store i64* %65, i64** %66, align 8
  %67 = call i64* @_ZNK9__gnu_cxx17__normal_iteratorIPxSt6vectorIxSaIxEEEmiEl(%"class.__gnu_cxx::__normal_iterator.17"* %14, i64 1) #3
  %68 = getelementptr inbounds %"class.__gnu_cxx::__normal_iterator.17", %"class.__gnu_cxx::__normal_iterator.17"* %12, i32 0, i32 0
  store i64* %67, i64** %68, align 8
  %69 = getelementptr inbounds %"class.__gnu_cxx::__normal_iterator.17", %"class.__gnu_cxx::__normal_iterator.17"* %10, i32 0, i32 0
  %70 = load i64*, i64** %69, align 8
  %71 = getelementptr inbounds %"class.__gnu_cxx::__normal_iterator.17", %"class.__gnu_cxx::__normal_iterator.17"* %11, i32 0, i32 0
  %72 = load i64*, i64** %71, align 8
  %73 = getelementptr inbounds %"class.__gnu_cxx::__normal_iterator.17", %"class.__gnu_cxx::__normal_iterator.17"* %12, i32 0, i32 0
  %74 = load i64*, i64** %73, align 8
  %75 = invoke i64* @_ZSt4copyIN9__gnu_cxx17__normal_iteratorIPxSt6vectorIxSaIxEEEES6_ET0_T_S8_S7_(i64* %70, i64* %72, i64* %74)
          to label %76 unwind label %40

76:                                               ; preds = %54
  %77 = getelementptr inbounds %"class.__gnu_cxx::__normal_iterator.17", %"class.__gnu_cxx::__normal_iterator.17"* %15, i32 0, i32 0
  store i64* %75, i64** %77, align 8
  invoke void @_ZN2lc11SegmentTreeINS_9MinTraitsIxEEE10initializeEv(%"class.lc::SegmentTree.14"* %0)
          to label %78 unwind label %40

78:                                               ; preds = %76
  ret void

79:                                               ; preds = %40
  %80 = insertvalue { i8*, i32 } undef, i8* %42, 0
  %81 = insertvalue { i8*, i32 } %80, i32 %43, 1
  resume { i8*, i32 } %81
}

; Function Attrs: noinline uwtable
define linkonce_odr void @_ZN2lc11SegmentTreeINS_9MinTraitsIxEEE6updateEiRKx(%"class.lc::SegmentTree.14"* %0, i32 %1, i64* dereferenceable(8) %2) #0 comdat align 2 {
  %4 = getelementptr inbounds %"class.lc::SegmentTree.14", %"class.lc::SegmentTree.14"* %0, i32 0, i32 3
  %5 = load i32, i32* %4, align 8
  %6 = sub nsw i32 %5, 1
  %7 = add nsw i32 %1, %6
  %8 = load i64, i64* %2, align 8
  %9 = getelementptr inbounds %"class.lc::SegmentTree.14", %"class.lc::SegmentTree.14"* %0, i32 0, i32 2
  %10 = sext i32 %7 to i64
  %11 = call dereferenceable(8) i64* @_ZNSt6vectorIxSaIxEEixEm(%"class.std::vector.9"* %9, i64 %10) #3
  store i64 %8, i64* %11, align 8
  br label %12

12:                                               ; preds = %14, %3
  %.0 = phi i32 [ %7, %3 ], [ %16, %14 ]
  %13 = icmp sgt i32 %.0, 0
  br i1 %13, label %14, label %32

14:                                               ; preds = %12
  %15 = sub nsw i32 %.0, 1
  %16 = sdiv i32 %15, 2
  %17 = getelementptr inbounds %"class.lc::SegmentTree.14", %"class.lc::SegmentTree.14"* %0, i32 0, i32 0
  %18 = getelementptr inbounds %"class.lc::SegmentTree.14", %"class.lc::SegmentTree.14"* %0, i32 0, i32 2
  %19 = mul nsw i32 %16, 2
  %20 = add nsw i32 %19, 1
  %21 = sext i32 %20 to i64
  %22 = call dereferenceable(8) i64* @_ZNSt6vectorIxSaIxEEixEm(%"class.std::vector.9"* %18, i64 %21) #3
  %23 = getelementptr inbounds %"class.lc::SegmentTree.14", %"class.lc::SegmentTree.14"* %0, i32 0, i32 2
  %24 = mul nsw i32 %16, 2
  %25 = add nsw i32 %24, 2
  %26 = sext i32 %25 to i64
  %27 = call dereferenceable(8) i64* @_ZNSt6vectorIxSaIxEEixEm(%"class.std::vector.9"* %23, i64 %26) #3
  %28 = call i64 @_ZNK2lc9MinTraitsIxEclERKxS3_(%"struct.lc::MinTraits.15"* %17, i64* dereferenceable(8) %22, i64* dereferenceable(8) %27)
  %29 = getelementptr inbounds %"class.lc::SegmentTree.14", %"class.lc::SegmentTree.14"* %0, i32 0, i32 2
  %30 = sext i32 %16 to i64
  %31 = call dereferenceable(8) i64* @_ZNSt6vectorIxSaIxEEixEm(%"class.std::vector.9"* %29, i64 %30) #3
  store i64 %28, i64* %31, align 8
  br label %12

32:                                               ; preds = %12
  ret void
}

; Function Attrs: noinline uwtable
define linkonce_odr i64 @_ZNK2lc11SegmentTreeINS_9MinTraitsIxEEE5queryEii(%"class.lc::SegmentTree.14"* %0, i32 %1, i32 %2) #0 comdat align 2 {
  %4 = getelementptr inbounds %"class.lc::SegmentTree.14", %"class.lc::SegmentTree.14"* %0, i32 0, i32 3
  %5 = load i32, i32* %4, align 8
  %6 = call i64 @_ZNK2lc11SegmentTreeINS_9MinTraitsIxEEE5queryEiiiii(%"class.lc::SegmentTree.14"* %0, i32 %1, i32 %2, i32 0, i32 0, i32 %5)
  ret i64 %6
}

declare dereferenceable(272) %"class.std::basic_ostream"* @_ZStlsISt11char_traitsIcEERSt13basic_ostreamIcT_ES5_PKc(%"class.std::basic_ostream"* dereferenceable(272), i8*) #1

declare dereferenceable(272) %"class.std::basic_ostream"* @_ZNSolsEx(%"class.std::basic_ostream"*, i64) #1

; Function Attrs: noinline nounwind uwtable
define linkonce_odr void @_ZN2lc11SegmentTreeINS_9MinTraitsIxEEED2Ev(%"class.lc::SegmentTree.14"* %0) unnamed_addr #5 comdat align 2 {
  %2 = getelementptr inbounds %"class.lc::SegmentTree.14", %"class.lc::SegmentTree.14"* %0, i32 0, i32 2
  call void @_ZNSt6vectorIxSaIxEED2Ev(%"class.std::vector.9"* %2) #3
  ret void
}

; Function Attrs: noinline nounwind uwtable
define linkonce_odr void @_ZNSt6vectorIxSaIxEED2Ev(%"class.std::vector.9"* %0) unnamed_addr #5 comdat align 2 personality i8* bitcast (i32 (...)* @__gxx_personality_v0 to i8*) {
  %2 = bitcast %"class.std::vector.9"* %0 to %"struct.std::_Vector_base.10"*
  %3 = getelementptr inbounds %"struct.std::_Vector_base.10", %"struct.std::_Vector_base.10"* %2, i32 0, i32 0
  %4 = getelementptr inbounds %"struct.std::_Vector_base<long long, std::allocator<long long> >::_Vector_impl", %"struct.std::_Vector_base<long long, std::allocator<long long> >::_Vector_impl"* %3, i32 0, i32 0
  %5 = load i64*, i64** %4, align 8
  %6 = bitcast %"class.std::vector.9"* %0 to %"struct.std::_Vector_base.10"*
  %7 = getelementptr inbounds %"struct.std::_Vector_base.10", %"struct.std::_Vector_base.10"* %6, i32 0, i32 0
  %8 = getelementptr inbounds %"struct.std::_Vector_base<long long, std::allocator<long long> >::_Vector_impl", %"struct.std::_Vector_base<long long, std::allocator<long long> >::_Vector_impl"* %7, i32 0, i32 1
  %9 = load i64*, i64** %8, align 8
  %10 = bitcast %"class.std::vector.9"* %0 to %"struct.std::_Vector_base.10"*
  %11 = call dereferenceable(1) %"class.std::allocator.11"* @_ZNSt12_Vector_baseIxSaIxEE19_M_get_Tp_allocatorEv(%"struct.std::_Vector_base.10"* %10) #3
  invoke void @_ZSt8_DestroyIPxxEvT_S1_RSaIT0_E(i64* %5, i64* %9, %"class.std::allocator.11"* dereferenceable(1) %11)
          to label %12 unwind label %14

12:                                               ; preds = %1
  %13 = bitcast %"class.std::vector.9"* %0 to %"struct.std::_Vector_base.10"*
  call void @_ZNSt12_Vector_baseIxSaIxEED2Ev(%"struct.std::_Vector_base.10"* %13) #3
  ret void

14:                                               ; preds = %1
  %15 = landingpad { i8*, i32 }
          catch i8* null
  %16 = extractvalue { i8*, i32 } %15, 0
  %17 = extractvalue { i8*, i32 } %15, 1
  %18 = bitcast %"class.std::vector.9"* %0 to %"struct.std::_Vector_base.10"*
  call void @_ZNSt12_Vector_baseIxSaIxEED2Ev(%"struct.std::_Vector_base.10"* %18) #3
  br label %19

19:                                               ; preds = %14
  call void @__clang_call_terminate(i8* %16) #13
  unreachable
}

; Function Attrs: noinline nounwind uwtable
define linkonce_odr void @_ZNSt6vectorIiSaIiEED2Ev(%"class.std::vector.3"* %0) unnamed_addr #5 comdat align 2 personality i8* bitcast (i32 (...)* @__gxx_personality_v0 to i8*) {
  %2 = bitcast %"class.std::vector.3"* %0 to %"struct.std::_Vector_base.4"*
  %3 = getelementptr inbounds %"struct.std::_Vector_base.4", %"struct.std::_Vector_base.4"* %2, i32 0, i32 0
  %4 = getelementptr inbounds %"struct.std::_Vector_base<int, std::allocator<int> >::_Vector_impl", %"struct.std::_Vector_base<int, std::allocator<int> >::_Vector_impl"* %3, i32 0, i32 0
  %5 = load i32*, i32** %4, align 8
  %6 = bitcast %"class.std::vector.3"* %0 to %"struct.std::_Vector_base.4"*
  %7 = getelementptr inbounds %"struct.std::_Vector_base.4", %"struct.std::_Vector_base.4"* %6, i32 0, i32 0
  %8 = getelementptr inbounds %"struct.std::_Vector_base<int, std::allocator<int> >::_Vector_impl", %"struct.std::_Vector_base<int, std::allocator<int> >::_Vector_impl"* %7, i32 0, i32 1
  %9 = load i32*, i32** %8, align 8
  %10 = bitcast %"class.std::vector.3"* %0 to %"struct.std::_Vector_base.4"*
  %11 = call dereferenceable(1) %"class.std::allocator.5"* @_ZNSt12_Vector_baseIiSaIiEE19_M_get_Tp_allocatorEv(%"struct.std::_Vector_base.4"* %10) #3
  invoke void @_ZSt8_DestroyIPiiEvT_S1_RSaIT0_E(i32* %5, i32* %9, %"class.std::allocator.5"* dereferenceable(1) %11)
          to label %12 unwind label %14

12:                                               ; preds = %1
  %13 = bitcast %"class.std::vector.3"* %0 to %"struct.std::_Vector_base.4"*
  call void @_ZNSt12_Vector_baseIiSaIiEED2Ev(%"struct.std::_Vector_base.4"* %13) #3
  ret void

14:                                               ; preds = %1
  %15 = landingpad { i8*, i32 }
          catch i8* null
  %16 = extractvalue { i8*, i32 } %15, 0
  %17 = extractvalue { i8*, i32 } %15, 1
  %18 = bitcast %"class.std::vector.3"* %0 to %"struct.std::_Vector_base.4"*
  call void @_ZNSt12_Vector_baseIiSaIiEED2Ev(%"struct.std::_Vector_base.4"* %18) #3
  br label %19

19:                                               ; preds = %14
  call void @__clang_call_terminate(i8* %16) #13
  unreachable
}

; Function Attrs: noinline nounwind uwtable
define linkonce_odr void @_ZN2lc11SegmentTreeINS_9MinTraitsIiEEED2Ev(%"class.lc::SegmentTree"* %0) unnamed_addr #5 comdat align 2 {
  %2 = getelementptr inbounds %"class.lc::SegmentTree", %"class.lc::SegmentTree"* %0, i32 0, i32 2
  call void @_ZNSt6vectorIiSaIiEED2Ev(%"class.std::vector.3"* %2) #3
  ret void
}

; Function Attrs: noinline nounwind uwtable
define linkonce_odr void @_ZNSt6vectorISt4pairINSt7__cxx1112basic_stringIcSt11char_traitsIcESaIcEEEiESaIS7_EED2Ev(%"class.std::vector"* %0) unnamed_addr #5 comdat align 2 personality i8* bitcast (i32 (...)* @__gxx_personality_v0 to i8*) {
  %2 = bitcast %"class.std::vector"* %0 to %"struct.std::_Vector_base"*
  %3 = getelementptr inbounds %"struct.std::_Vector_base", %"struct.std::_Vector_base"* %2, i32 0, i32 0
  %4 = getelementptr inbounds %"struct.std::_Vector_base<std::pair<std::__cxx11::basic_string<char>, int>, std::allocator<std::pair<std::__cxx11::basic_string<char>, int> > >::_Vector_impl", %"struct.std::_Vector_base<std::pair<std::__cxx11::basic_string<char>, int>, std::allocator<std::pair<std::__cxx11::basic_string<char>, int> > >::_Vector_impl"* %3, i32 0, i32 0
  %5 = load %"struct.std::pair"*, %"struct.std::pair"** %4, align 8
  %6 = bitcast %"class.std::vector"* %0 to %"struct.std::_Vector_base"*
  %7 = getelementptr inbounds %"struct.std::_Vector_base", %"struct.std::_Vector_base"* %6, i32 0, i32 0
  %8 = getelementptr inbounds %"struct.std::_Vector_base<std::pair<std::__cxx11::basic_string<char>, int>, std::allocator<std::pair<std::__cxx11::basic_string<char>, int> > >::_Vector_impl", %"struct.std::_Vector_base<std::pair<std::__cxx11::basic_string<char>, int>, std::allocator<std::pair<std::__cxx11::basic_string<char>, int> > >::_Vector_impl"* %7, i32 0, i32 1
  %9 = load %"struct.std::pair"*, %"struct.std::pair"** %8, align 8
  %10 = bitcast %"class.std::vector"* %0 to %"struct.std::_Vector_base"*
  %11 = call dereferenceable(1) %"class.std::allocator"* @_ZNSt12_Vector_baseISt4pairINSt7__cxx1112basic_stringIcSt11char_traitsIcESaIcEEEiESaIS7_EE19_M_get_Tp_allocatorEv(%"struct.std::_Vector_base"* %10) #3
  invoke void @_ZSt8_DestroyIPSt4pairINSt7__cxx1112basic_stringIcSt11char_traitsIcESaIcEEEiES7_EvT_S9_RSaIT0_E(%"struct.std::pair"* %5, %"struct.std::pair"* %9, %"class.std::allocator"* dereferenceable(1) %11)
          to label %12 unwind label %14

12:                                               ; preds = %1
  %13 = bitcast %"class.std::vector"* %0 to %"struct.std::_Vector_base"*
  call void @_ZNSt12_Vector_baseISt4pairINSt7__cxx1112basic_stringIcSt11char_traitsIcESaIcEEEiESaIS7_EED2Ev(%"struct.std::_Vector_base"* %13) #3
  ret void

14:                                               ; preds = %1
  %15 = landingpad { i8*, i32 }
          catch i8* null
  %16 = extractvalue { i8*, i32 } %15, 0
  %17 = extractvalue { i8*, i32 } %15, 1
  %18 = bitcast %"class.std::vector"* %0 to %"struct.std::_Vector_base"*
  call void @_ZNSt12_Vector_baseISt4pairINSt7__cxx1112basic_stringIcSt11char_traitsIcESaIcEEEiESaIS7_EED2Ev(%"struct.std::_Vector_base"* %18) #3
  br label %19

19:                                               ; preds = %14
  call void @__clang_call_terminate(i8* %16) #13
  unreachable
}

; Function Attrs: noinline nounwind uwtable
define linkonce_odr void @_ZN9__gnu_cxx13new_allocatorISt4pairINSt7__cxx1112basic_stringIcSt11char_traitsIcESaIcEEEiEEC2Ev(%"class.__gnu_cxx::new_allocator"* %0) unnamed_addr #5 comdat align 2 {
  ret void
}

; Function Attrs: noinline nounwind uwtable
define linkonce_odr void @_ZN9__gnu_cxx13new_allocatorISt4pairINSt7__cxx1112basic_stringIcSt11char_traitsIcESaIcEEEiEED2Ev(%"class.__gnu_cxx::new_allocator"* %0) unnamed_addr #5 comdat align 2 {
  ret void
}

; Function Attrs: noinline uwtable
define linkonce_odr void @_ZNSt12_Vector_baseISt4pairINSt7__cxx1112basic_stringIcSt11char_traitsIcESaIcEEEiESaIS7_EEC2EmRKS8_(%"struct.std::_Vector_base"* %0, i64 %1, %"class.std::allocator"* dereferenceable(1) %2) unnamed_addr #0 comdat align 2 personality i8* bitcast (i32 (...)* @__gxx_personality_v0 to i8*) {
  %4 = getelementptr inbounds %"struct.std::_Vector_base", %"struct.std::_Vector_base"* %0, i32 0, i32 0
  call void @_ZNSt12_Vector_baseISt4pairINSt7__cxx1112basic_stringIcSt11char_traitsIcESaIcEEEiESaIS7_EE12_Vector_implC2ERKS8_(%"struct.std::_Vector_base<std::pair<std::__cxx11::basic_string<char>, int>, std::allocator<std::pair<std::__cxx11::basic_string<char>, int> > >::_Vector_impl"* %4, %"class.std::allocator"* dereferenceable(1) %2) #3
  invoke void @_ZNSt12_Vector_baseISt4pairINSt7__cxx1112basic_stringIcSt11char_traitsIcESaIcEEEiESaIS7_EE17_M_create_storageEm(%"struct.std::_Vector_base"* %0, i64 %1)
          to label %5 unwind label %6

5:                                                ; preds = %3
  ret void

6:                                                ; preds = %3
  %7 = landingpad { i8*, i32 }
          cleanup
  %8 = extractvalue { i8*, i32 } %7, 0
  %9 = extractvalue { i8*, i32 } %7, 1
  call void @_ZNSt12_Vector_baseISt4pairINSt7__cxx1112basic_stringIcSt11char_traitsIcESaIcEEEiESaIS7_EE12_Vector_implD2Ev(%"struct.std::_Vector_base<std::pair<std::__cxx11::basic_string<char>, int>, std::allocator<std::pair<std::__cxx11::basic_string<char>, int> > >::_Vector_impl"* %4) #3
  br label %10

10:                                               ; preds = %6
  %11 = insertvalue { i8*, i32 } undef, i8* %8, 0
  %12 = insertvalue { i8*, i32 } %11, i32 %9, 1
  resume { i8*, i32 } %12
}

; Function Attrs: noinline uwtable
define linkonce_odr void @_ZNSt6vectorISt4pairINSt7__cxx1112basic_stringIcSt11char_traitsIcESaIcEEEiESaIS7_EE21_M_default_initializeEm(%"class.std::vector"* %0, i64 %1) #0 comdat align 2 {
  %3 = bitcast %"class.std::vector"* %0 to %"struct.std::_Vector_base"*
  %4 = getelementptr inbounds %"struct.std::_Vector_base", %"struct.std::_Vector_base"* %3, i32 0, i32 0
  %5 = getelementptr inbounds %"struct.std::_Vector_base<std::pair<std::__cxx11::basic_string<char>, int>, std::allocator<std::pair<std::__cxx11::basic_string<char>, int> > >::_Vector_impl", %"struct.std::_Vector_base<std::pair<std::__cxx11::basic_string<char>, int>, std::allocator<std::pair<std::__cxx11::basic_string<char>, int> > >::_Vector_impl"* %4, i32 0, i32 0
  %6 = load %"struct.std::pair"*, %"struct.std::pair"** %5, align 8
  %7 = bitcast %"class.std::vector"* %0 to %"struct.std::_Vector_base"*
  %8 = call dereferenceable(1) %"class.std::allocator"* @_ZNSt12_Vector_baseISt4pairINSt7__cxx1112basic_stringIcSt11char_traitsIcESaIcEEEiESaIS7_EE19_M_get_Tp_allocatorEv(%"struct.std::_Vector_base"* %7) #3
  %9 = call %"struct.std::pair"* @_ZSt27__uninitialized_default_n_aIPSt4pairINSt7__cxx1112basic_stringIcSt11char_traitsIcESaIcEEEiEmS7_ET_S9_T0_RSaIT1_E(%"struct.std::pair"* %6, i64 %1, %"class.std::allocator"* dereferenceable(1) %8)
  %10 = bitcast %"class.std::vector"* %0 to %"struct.std::_Vector_base"*
  %11 = getelementptr inbounds %"struct.std::_Vector_base", %"struct.std::_Vector_base"* %10, i32 0, i32 0
  %12 = getelementptr inbounds %"struct.std::_Vector_base<std::pair<std::__cxx11::basic_string<char>, int>, std::allocator<std::pair<std::__cxx11::basic_string<char>, int> > >::_Vector_impl", %"struct.std::_Vector_base<std::pair<std::__cxx11::basic_string<char>, int>, std::allocator<std::pair<std::__cxx11::basic_string<char>, int> > >::_Vector_impl"* %11, i32 0, i32 1
  store %"struct.std::pair"* %9, %"struct.std::pair"** %12, align 8
  ret void
}

; Function Attrs: noinline nounwind uwtable
define linkonce_odr void @_ZNSt12_Vector_baseISt4pairINSt7__cxx1112basic_stringIcSt11char_traitsIcESaIcEEEiESaIS7_EED2Ev(%"struct.std::_Vector_base"* %0) unnamed_addr #5 comdat align 2 personality i8* bitcast (i32 (...)* @__gxx_personality_v0 to i8*) {
  %2 = getelementptr inbounds %"struct.std::_Vector_base", %"struct.std::_Vector_base"* %0, i32 0, i32 0
  %3 = getelementptr inbounds %"struct.std::_Vector_base<std::pair<std::__cxx11::basic_string<char>, int>, std::allocator<std::pair<std::__cxx11::basic_string<char>, int> > >::_Vector_impl", %"struct.std::_Vector_base<std::pair<std::__cxx11::basic_string<char>, int>, std::allocator<std::pair<std::__cxx11::basic_string<char>, int> > >::_Vector_impl"* %2, i32 0, i32 0
  %4 = load %"struct.std::pair"*, %"struct.std::pair"** %3, align 8
  %5 = getelementptr inbounds %"struct.std::_Vector_base", %"struct.std::_Vector_base"* %0, i32 0, i32 0
  %6 = getelementptr inbounds %"struct.std::_Vector_base<std::pair<std::__cxx11::basic_string<char>, int>, std::allocator<std::pair<std::__cxx11::basic_string<char>, int> > >::_Vector_impl", %"struct.std::_Vector_base<std::pair<std::__cxx11::basic_string<char>, int>, std::allocator<std::pair<std::__cxx11::basic_string<char>, int> > >::_Vector_impl"* %5, i32 0, i32 2
  %7 = load %"struct.std::pair"*, %"struct.std::pair"** %6, align 8
  %8 = getelementptr inbounds %"struct.std::_Vector_base", %"struct.std::_Vector_base"* %0, i32 0, i32 0
  %9 = getelementptr inbounds %"struct.std::_Vector_base<std::pair<std::__cxx11::basic_string<char>, int>, std::allocator<std::pair<std::__cxx11::basic_string<char>, int> > >::_Vector_impl", %"struct.std::_Vector_base<std::pair<std::__cxx11::basic_string<char>, int>, std::allocator<std::pair<std::__cxx11::basic_string<char>, int> > >::_Vector_impl"* %8, i32 0, i32 0
  %10 = load %"struct.std::pair"*, %"struct.std::pair"** %9, align 8
  %11 = ptrtoint %"struct.std::pair"* %7 to i64
  %12 = ptrtoint %"struct.std::pair"* %10 to i64
  %13 = sub i64 %11, %12
  %14 = sdiv exact i64 %13, 40
  invoke void @_ZNSt12_Vector_baseISt4pairINSt7__cxx1112basic_stringIcSt11char_traitsIcESaIcEEEiESaIS7_EE13_M_deallocateEPS7_m(%"struct.std::_Vector_base"* %0, %"struct.std::pair"* %4, i64 %14)
          to label %15 unwind label %17

15:                                               ; preds = %1
  %16 = getelementptr inbounds %"struct.std::_Vector_base", %"struct.std::_Vector_base"* %0, i32 0, i32 0
  call void @_ZNSt12_Vector_baseISt4pairINSt7__cxx1112basic_stringIcSt11char_traitsIcESaIcEEEiESaIS7_EE12_Vector_implD2Ev(%"struct.std::_Vector_base<std::pair<std::__cxx11::basic_string<char>, int>, std::allocator<std::pair<std::__cxx11::basic_string<char>, int> > >::_Vector_impl"* %16) #3
  ret void

17:                                               ; preds = %1
  %18 = landingpad { i8*, i32 }
          catch i8* null
  %19 = extractvalue { i8*, i32 } %18, 0
  %20 = extractvalue { i8*, i32 } %18, 1
  %21 = getelementptr inbounds %"struct.std::_Vector_base", %"struct.std::_Vector_base"* %0, i32 0, i32 0
  call void @_ZNSt12_Vector_baseISt4pairINSt7__cxx1112basic_stringIcSt11char_traitsIcESaIcEEEiESaIS7_EE12_Vector_implD2Ev(%"struct.std::_Vector_base<std::pair<std::__cxx11::basic_string<char>, int>, std::allocator<std::pair<std::__cxx11::basic_string<char>, int> > >::_Vector_impl"* %21) #3
  br label %22

22:                                               ; preds = %17
  call void @__clang_call_terminate(i8* %19) #13
  unreachable
}

; Function Attrs: noinline nounwind uwtable
define linkonce_odr void @_ZNSt12_Vector_baseISt4pairINSt7__cxx1112basic_stringIcSt11char_traitsIcESaIcEEEiESaIS7_EE12_Vector_implC2ERKS8_(%"struct.std::_Vector_base<std::pair<std::__cxx11::basic_string<char>, int>, std::allocator<std::pair<std::__cxx11::basic_string<char>, int> > >::_Vector_impl"* %0, %"class.std::allocator"* dereferenceable(1) %1) unnamed_addr #5 comdat align 2 {
  %3 = bitcast %"struct.std::_Vector_base<std::pair<std::__cxx11::basic_string<char>, int>, std::allocator<std::pair<std::__cxx11::basic_string<char>, int> > >::_Vector_impl"* %0 to %"class.std::allocator"*
  call void @_ZNSaISt4pairINSt7__cxx1112basic_stringIcSt11char_traitsIcESaIcEEEiEEC2ERKS7_(%"class.std::allocator"* %3, %"class.std::allocator"* dereferenceable(1) %1) #3
  %4 = getelementptr inbounds %"struct.std::_Vector_base<std::pair<std::__cxx11::basic_string<char>, int>, std::allocator<std::pair<std::__cxx11::basic_string<char>, int> > >::_Vector_impl", %"struct.std::_Vector_base<std::pair<std::__cxx11::basic_string<char>, int>, std::allocator<std::pair<std::__cxx11::basic_string<char>, int> > >::_Vector_impl"* %0, i32 0, i32 0
  store %"struct.std::pair"* null, %"struct.std::pair"** %4, align 8
  %5 = getelementptr inbounds %"struct.std::_Vector_base<std::pair<std::__cxx11::basic_string<char>, int>, std::allocator<std::pair<std::__cxx11::basic_string<char>, int> > >::_Vector_impl", %"struct.std::_Vector_base<std::pair<std::__cxx11::basic_string<char>, int>, std::allocator<std::pair<std::__cxx11::basic_string<char>, int> > >::_Vector_impl"* %0, i32 0, i32 1
  store %"struct.std::pair"* null, %"struct.std::pair"** %5, align 8
  %6 = getelementptr inbounds %"struct.std::_Vector_base<std::pair<std::__cxx11::basic_string<char>, int>, std::allocator<std::pair<std::__cxx11::basic_string<char>, int> > >::_Vector_impl", %"struct.std::_Vector_base<std::pair<std::__cxx11::basic_string<char>, int>, std::allocator<std::pair<std::__cxx11::basic_string<char>, int> > >::_Vector_impl"* %0, i32 0, i32 2
  store %"struct.std::pair"* null, %"struct.std::pair"** %6, align 8
  ret void
}

; Function Attrs: noinline uwtable
define linkonce_odr void @_ZNSt12_Vector_baseISt4pairINSt7__cxx1112basic_stringIcSt11char_traitsIcESaIcEEEiESaIS7_EE17_M_create_storageEm(%"struct.std::_Vector_base"* %0, i64 %1) #0 comdat align 2 {
  %3 = call %"struct.std::pair"* @_ZNSt12_Vector_baseISt4pairINSt7__cxx1112basic_stringIcSt11char_traitsIcESaIcEEEiESaIS7_EE11_M_allocateEm(%"struct.std::_Vector_base"* %0, i64 %1)
  %4 = getelementptr inbounds %"struct.std::_Vector_base", %"struct.std::_Vector_base"* %0, i32 0, i32 0
  %5 = getelementptr inbounds %"struct.std::_Vector_base<std::pair<std::__cxx11::basic_string<char>, int>, std::allocator<std::pair<std::__cxx11::basic_string<char>, int> > >::_Vector_impl", %"struct.std::_Vector_base<std::pair<std::__cxx11::basic_string<char>, int>, std::allocator<std::pair<std::__cxx11::basic_string<char>, int> > >::_Vector_impl"* %4, i32 0, i32 0
  store %"struct.std::pair"* %3, %"struct.std::pair"** %5, align 8
  %6 = getelementptr inbounds %"struct.std::_Vector_base", %"struct.std::_Vector_base"* %0, i32 0, i32 0
  %7 = getelementptr inbounds %"struct.std::_Vector_base<std::pair<std::__cxx11::basic_string<char>, int>, std::allocator<std::pair<std::__cxx11::basic_string<char>, int> > >::_Vector_impl", %"struct.std::_Vector_base<std::pair<std::__cxx11::basic_string<char>, int>, std::allocator<std::pair<std::__cxx11::basic_string<char>, int> > >::_Vector_impl"* %6, i32 0, i32 0
  %8 = load %"struct.std::pair"*, %"struct.std::pair"** %7, align 8
  %9 = getelementptr inbounds %"struct.std::_Vector_base", %"struct.std::_Vector_base"* %0, i32 0, i32 0
  %10 = getelementptr inbounds %"struct.std::_Vector_base<std::pair<std::__cxx11::basic_string<char>, int>, std::allocator<std::pair<std::__cxx11::basic_string<char>, int> > >::_Vector_impl", %"struct.std::_Vector_base<std::pair<std::__cxx11::basic_string<char>, int>, std::allocator<std::pair<std::__cxx11::basic_string<char>, int> > >::_Vector_impl"* %9, i32 0, i32 1
  store %"struct.std::pair"* %8, %"struct.std::pair"** %10, align 8
  %11 = getelementptr inbounds %"struct.std::_Vector_base", %"struct.std::_Vector_base"* %0, i32 0, i32 0
  %12 = getelementptr inbounds %"struct.std::_Vector_base<std::pair<std::__cxx11::basic_string<char>, int>, std::allocator<std::pair<std::__cxx11::basic_string<char>, int> > >::_Vector_impl", %"struct.std::_Vector_base<std::pair<std::__cxx11::basic_string<char>, int>, std::allocator<std::pair<std::__cxx11::basic_string<char>, int> > >::_Vector_impl"* %11, i32 0, i32 0
  %13 = load %"struct.std::pair"*, %"struct.std::pair"** %12, align 8
  %14 = getelementptr inbounds %"struct.std::pair", %"struct.std::pair"* %13, i64 %1
  %15 = getelementptr inbounds %"struct.std::_Vector_base", %"struct.std::_Vector_base"* %0, i32 0, i32 0
  %16 = getelementptr inbounds %"struct.std::_Vector_base<std::pair<std::__cxx11::basic_string<char>, int>, std::allocator<std::pair<std::__cxx11::basic_string<char>, int> > >::_Vector_impl", %"struct.std::_Vector_base<std::pair<std::__cxx11::basic_string<char>, int>, std::allocator<std::pair<std::__cxx11::basic_string<char>, int> > >::_Vector_impl"* %15, i32 0, i32 2
  store %"struct.std::pair"* %14, %"struct.std::pair"** %16, align 8
  ret void
}

; Function Attrs: noinline nounwind uwtable
define linkonce_odr void @_ZNSt12_Vector_baseISt4pairINSt7__cxx1112basic_stringIcSt11char_traitsIcESaIcEEEiESaIS7_EE12_Vector_implD2Ev(%"struct.std::_Vector_base<std::pair<std::__cxx11::basic_string<char>, int>, std::allocator<std::pair<std::__cxx11::basic_string<char>, int> > >::_Vector_impl"* %0) unnamed_addr #5 comdat align 2 {
  %2 = bitcast %"struct.std::_Vector_base<std::pair<std::__cxx11::basic_string<char>, int>, std::allocator<std::pair<std::__cxx11::basic_string<char>, int> > >::_Vector_impl"* %0 to %"class.std::allocator"*
  call void @_ZNSaISt4pairINSt7__cxx1112basic_stringIcSt11char_traitsIcESaIcEEEiEED2Ev(%"class.std::allocator"* %2) #3
  ret void
}

; Function Attrs: noinline nounwind uwtable
define linkonce_odr void @_ZNSaISt4pairINSt7__cxx1112basic_stringIcSt11char_traitsIcESaIcEEEiEEC2ERKS7_(%"class.std::allocator"* %0, %"class.std::allocator"* dereferenceable(1) %1) unnamed_addr #5 comdat align 2 {
  %3 = bitcast %"class.std::allocator"* %0 to %"class.__gnu_cxx::new_allocator"*
  %4 = bitcast %"class.std::allocator"* %1 to %"class.__gnu_cxx::new_allocator"*
  call void @_ZN9__gnu_cxx13new_allocatorISt4pairINSt7__cxx1112basic_stringIcSt11char_traitsIcESaIcEEEiEEC2ERKS9_(%"class.__gnu_cxx::new_allocator"* %3, %"class.__gnu_cxx::new_allocator"* dereferenceable(1) %4) #3
  ret void
}

; Function Attrs: noinline nounwind uwtable
define linkonce_odr void @_ZN9__gnu_cxx13new_allocatorISt4pairINSt7__cxx1112basic_stringIcSt11char_traitsIcESaIcEEEiEEC2ERKS9_(%"class.__gnu_cxx::new_allocator"* %0, %"class.__gnu_cxx::new_allocator"* dereferenceable(1) %1) unnamed_addr #5 comdat align 2 {
  ret void
}

; Function Attrs: noinline uwtable
define linkonce_odr %"struct.std::pair"* @_ZNSt12_Vector_baseISt4pairINSt7__cxx1112basic_stringIcSt11char_traitsIcESaIcEEEiESaIS7_EE11_M_allocateEm(%"struct.std::_Vector_base"* %0, i64 %1) #0 comdat align 2 {
  %3 = icmp ne i64 %1, 0
  br i1 %3, label %4, label %8

4:                                                ; preds = %2
  %5 = getelementptr inbounds %"struct.std::_Vector_base", %"struct.std::_Vector_base"* %0, i32 0, i32 0
  %6 = bitcast %"struct.std::_Vector_base<std::pair<std::__cxx11::basic_string<char>, int>, std::allocator<std::pair<std::__cxx11::basic_string<char>, int> > >::_Vector_impl"* %5 to %"class.std::allocator"*
  %7 = call %"struct.std::pair"* @_ZNSt16allocator_traitsISaISt4pairINSt7__cxx1112basic_stringIcSt11char_traitsIcESaIcEEEiEEE8allocateERS8_m(%"class.std::allocator"* dereferenceable(1) %6, i64 %1)
  br label %9

8:                                                ; preds = %2
  br label %9

9:                                                ; preds = %8, %4
  %10 = phi %"struct.std::pair"* [ %7, %4 ], [ null, %8 ]
  ret %"struct.std::pair"* %10
}

; Function Attrs: noinline uwtable
define linkonce_odr %"struct.std::pair"* @_ZNSt16allocator_traitsISaISt4pairINSt7__cxx1112basic_stringIcSt11char_traitsIcESaIcEEEiEEE8allocateERS8_m(%"class.std::allocator"* dereferenceable(1) %0, i64 %1) #0 comdat align 2 {
  %3 = bitcast %"class.std::allocator"* %0 to %"class.__gnu_cxx::new_allocator"*
  %4 = call %"struct.std::pair"* @_ZN9__gnu_cxx13new_allocatorISt4pairINSt7__cxx1112basic_stringIcSt11char_traitsIcESaIcEEEiEE8allocateEmPKv(%"class.__gnu_cxx::new_allocator"* %3, i64 %1, i8* null)
  ret %"struct.std::pair"* %4
}

; Function Attrs: noinline uwtable
define linkonce_odr %"struct.std::pair"* @_ZN9__gnu_cxx13new_allocatorISt4pairINSt7__cxx1112basic_stringIcSt11char_traitsIcESaIcEEEiEE8allocateEmPKv(%"class.__gnu_cxx::new_allocator"* %0, i64 %1, i8* %2) #0 comdat align 2 {
  %4 = call i64 @_ZNK9__gnu_cxx13new_allocatorISt4pairINSt7__cxx1112basic_stringIcSt11char_traitsIcESaIcEEEiEE8max_sizeEv(%"class.__gnu_cxx::new_allocator"* %0) #3
  %5 = icmp ugt i64 %1, %4
  br i1 %5, label %6, label %7

6:                                                ; preds = %3
  call void @_ZSt17__throw_bad_allocv() #14
  unreachable

7:                                                ; preds = %3
  %8 = mul i64 %1, 40
  %9 = call i8* @_Znwm(i64 %8)
  %10 = bitcast i8* %9 to %"struct.std::pair"*
  ret %"struct.std::pair"* %10
}

; Function Attrs: noinline nounwind uwtable
define linkonce_odr i64 @_ZNK9__gnu_cxx13new_allocatorISt4pairINSt7__cxx1112basic_stringIcSt11char_traitsIcESaIcEEEiEE8max_sizeEv(%"class.__gnu_cxx::new_allocator"* %0) #5 comdat align 2 {
  ret i64 461168601842738790
}

; Function Attrs: noreturn
declare void @_ZSt17__throw_bad_allocv() #6

; Function Attrs: nobuiltin
declare noalias i8* @_Znwm(i64) #7

; Function Attrs: noinline uwtable
define linkonce_odr %"struct.std::pair"* @_ZSt27__uninitialized_default_n_aIPSt4pairINSt7__cxx1112basic_stringIcSt11char_traitsIcESaIcEEEiEmS7_ET_S9_T0_RSaIT1_E(%"struct.std::pair"* %0, i64 %1, %"class.std::allocator"* dereferenceable(1) %2) #0 comdat {
  %4 = call %"struct.std::pair"* @_ZSt25__uninitialized_default_nIPSt4pairINSt7__cxx1112basic_stringIcSt11char_traitsIcESaIcEEEiEmET_S9_T0_(%"struct.std::pair"* %0, i64 %1)
  ret %"struct.std::pair"* %4
}

; Function Attrs: noinline nounwind uwtable
define linkonce_odr dereferenceable(1) %"class.std::allocator"* @_ZNSt12_Vector_baseISt4pairINSt7__cxx1112basic_stringIcSt11char_traitsIcESaIcEEEiESaIS7_EE19_M_get_Tp_allocatorEv(%"struct.std::_Vector_base"* %0) #5 comdat align 2 {
  %2 = getelementptr inbounds %"struct.std::_Vector_base", %"struct.std::_Vector_base"* %0, i32 0, i32 0
  %3 = bitcast %"struct.std::_Vector_base<std::pair<std::__cxx11::basic_string<char>, int>, std::allocator<std::pair<std::__cxx11::basic_string<char>, int> > >::_Vector_impl"* %2 to %"class.std::allocator"*
  ret %"class.std::allocator"* %3
}

; Function Attrs: noinline uwtable
define linkonce_odr %"struct.std::pair"* @_ZSt25__uninitialized_default_nIPSt4pairINSt7__cxx1112basic_stringIcSt11char_traitsIcESaIcEEEiEmET_S9_T0_(%"struct.std::pair"* %0, i64 %1) #0 comdat {
  %3 = call %"struct.std::pair"* @_ZNSt27__uninitialized_default_n_1ILb0EE18__uninit_default_nIPSt4pairINSt7__cxx1112basic_stringIcSt11char_traitsIcESaIcEEEiEmEET_SB_T0_(%"struct.std::pair"* %0, i64 %1)
  ret %"struct.std::pair"* %3
}

; Function Attrs: noinline uwtable
define linkonce_odr %"struct.std::pair"* @_ZNSt27__uninitialized_default_n_1ILb0EE18__uninit_default_nIPSt4pairINSt7__cxx1112basic_stringIcSt11char_traitsIcESaIcEEEiEmEET_SB_T0_(%"struct.std::pair"* %0, i64 %1) #0 comdat align 2 personality i8* bitcast (i32 (...)* @__gxx_personality_v0 to i8*) {
  br label %3

3:                                                ; preds = %8, %2
  %.01 = phi %"struct.std::pair"* [ %0, %2 ], [ %10, %8 ]
  %.0 = phi i64 [ %1, %2 ], [ %9, %8 ]
  %4 = icmp ugt i64 %.0, 0
  br i1 %4, label %5, label %18

5:                                                ; preds = %3
  %6 = call %"struct.std::pair"* @_ZSt11__addressofISt4pairINSt7__cxx1112basic_stringIcSt11char_traitsIcESaIcEEEiEEPT_RS8_(%"struct.std::pair"* dereferenceable(40) %.01) #3
  invoke void @_ZSt10_ConstructISt4pairINSt7__cxx1112basic_stringIcSt11char_traitsIcESaIcEEEiEJEEvPT_DpOT0_(%"struct.std::pair"* %6)
          to label %7 unwind label %11

7:                                                ; preds = %5
  br label %8

8:                                                ; preds = %7
  %9 = add i64 %.0, -1
  %10 = getelementptr inbounds %"struct.std::pair", %"struct.std::pair"* %.01, i32 1
  br label %3

11:                                               ; preds = %5
  %12 = landingpad { i8*, i32 }
          catch i8* null
  %13 = extractvalue { i8*, i32 } %12, 0
  %14 = extractvalue { i8*, i32 } %12, 1
  br label %15

15:                                               ; preds = %11
  %16 = call i8* @__cxa_begin_catch(i8* %13) #3
  invoke void @_ZSt8_DestroyIPSt4pairINSt7__cxx1112basic_stringIcSt11char_traitsIcESaIcEEEiEEvT_S9_(%"struct.std::pair"* %0, %"struct.std::pair"* %.01)
          to label %17 unwind label %19

17:                                               ; preds = %15
  invoke void @__cxa_rethrow() #14
          to label %31 unwind label %19

18:                                               ; preds = %3
  ret %"struct.std::pair"* %.01

19:                                               ; preds = %17, %15
  %20 = landingpad { i8*, i32 }
          cleanup
  %21 = extractvalue { i8*, i32 } %20, 0
  %22 = extractvalue { i8*, i32 } %20, 1
  invoke void @__cxa_end_catch()
          to label %23 unwind label %28

23:                                               ; preds = %19
  br label %25

24:                                               ; No predecessors!
  call void @llvm.trap()
  unreachable

25:                                               ; preds = %23
  %26 = insertvalue { i8*, i32 } undef, i8* %21, 0
  %27 = insertvalue { i8*, i32 } %26, i32 %22, 1
  resume { i8*, i32 } %27

28:                                               ; preds = %19
  %29 = landingpad { i8*, i32 }
          catch i8* null
  %30 = extractvalue { i8*, i32 } %29, 0
  call void @__clang_call_terminate(i8* %30) #13
  unreachable

31:                                               ; preds = %17
  unreachable
}

; Function Attrs: noinline uwtable
define linkonce_odr void @_ZSt10_ConstructISt4pairINSt7__cxx1112basic_stringIcSt11char_traitsIcESaIcEEEiEJEEvPT_DpOT0_(%"struct.std::pair"* %0) #0 comdat {
  %2 = bitcast %"struct.std::pair"* %0 to i8*
  %3 = bitcast i8* %2 to %"struct.std::pair"*
  call void @_ZNSt4pairINSt7__cxx1112basic_stringIcSt11char_traitsIcESaIcEEEiEC2IS5_iLb1EEEv(%"struct.std::pair"* %3)
  ret void
}

; Function Attrs: noinline nounwind uwtable
define linkonce_odr %"struct.std::pair"* @_ZSt11__addressofISt4pairINSt7__cxx1112basic_stringIcSt11char_traitsIcESaIcEEEiEEPT_RS8_(%"struct.std::pair"* dereferenceable(40) %0) #5 comdat {
  ret %"struct.std::pair"* %0
}

declare i8* @__cxa_begin_catch(i8*)

; Function Attrs: noinline uwtable
define linkonce_odr void @_ZSt8_DestroyIPSt4pairINSt7__cxx1112basic_stringIcSt11char_traitsIcESaIcEEEiEEvT_S9_(%"struct.std::pair"* %0, %"struct.std::pair"* %1) #0 comdat {
  call void @_ZNSt12_Destroy_auxILb0EE9__destroyIPSt4pairINSt7__cxx1112basic_stringIcSt11char_traitsIcESaIcEEEiEEEvT_SB_(%"struct.std::pair"* %0, %"struct.std::pair"* %1)
  ret void
}

declare void @__cxa_rethrow()

declare void @__cxa_end_catch()

; Function Attrs: noinline noreturn nounwind
define linkonce_odr hidden void @__clang_call_terminate(i8* %0) #8 comdat {
  %2 = call i8* @__cxa_begin_catch(i8* %0) #3
  call void @_ZSt9terminatev() #13
  unreachable
}

declare void @_ZSt9terminatev()

; Function Attrs: cold noreturn nounwind
declare void @llvm.trap() #9

; Function Attrs: noinline nounwind uwtable
define linkonce_odr void @_ZNSt4pairINSt7__cxx1112basic_stringIcSt11char_traitsIcESaIcEEEiEC2IS5_iLb1EEEv(%"struct.std::pair"* %0) unnamed_addr #5 comdat align 2 {
  %2 = bitcast %"struct.std::pair"* %0 to %"class.std::__pair_base"*
  %3 = getelementptr inbounds %"struct.std::pair", %"struct.std::pair"* %0, i32 0, i32 0
  call void @_ZNSt7__cxx1112basic_stringIcSt11char_traitsIcESaIcEEC1Ev(%"class.std::__cxx11::basic_string"* %3) #3
  %4 = getelementptr inbounds %"struct.std::pair", %"struct.std::pair"* %0, i32 0, i32 1
  store i32 0, i32* %4, align 8
  ret void
}

; Function Attrs: nounwind
declare void @_ZNSt7__cxx1112basic_stringIcSt11char_traitsIcESaIcEEC1Ev(%"class.std::__cxx11::basic_string"*) unnamed_addr #2

; Function Attrs: noinline uwtable
define linkonce_odr void @_ZNSt12_Destroy_auxILb0EE9__destroyIPSt4pairINSt7__cxx1112basic_stringIcSt11char_traitsIcESaIcEEEiEEEvT_SB_(%"struct.std::pair"* %0, %"struct.std::pair"* %1) #0 comdat align 2 {
  br label %3

3:                                                ; preds = %7, %2
  %.0 = phi %"struct.std::pair"* [ %0, %2 ], [ %8, %7 ]
  %4 = icmp ne %"struct.std::pair"* %.0, %1
  br i1 %4, label %5, label %9

5:                                                ; preds = %3
  %6 = call %"struct.std::pair"* @_ZSt11__addressofISt4pairINSt7__cxx1112basic_stringIcSt11char_traitsIcESaIcEEEiEEPT_RS8_(%"struct.std::pair"* dereferenceable(40) %.0) #3
  call void @_ZSt8_DestroyISt4pairINSt7__cxx1112basic_stringIcSt11char_traitsIcESaIcEEEiEEvPT_(%"struct.std::pair"* %6)
  br label %7

7:                                                ; preds = %5
  %8 = getelementptr inbounds %"struct.std::pair", %"struct.std::pair"* %.0, i32 1
  br label %3

9:                                                ; preds = %3
  ret void
}

; Function Attrs: noinline nounwind uwtable
define linkonce_odr void @_ZSt8_DestroyISt4pairINSt7__cxx1112basic_stringIcSt11char_traitsIcESaIcEEEiEEvPT_(%"struct.std::pair"* %0) #5 comdat {
  call void @_ZNSt4pairINSt7__cxx1112basic_stringIcSt11char_traitsIcESaIcEEEiED2Ev(%"struct.std::pair"* %0) #3
  ret void
}

; Function Attrs: noinline nounwind uwtable
define linkonce_odr void @_ZNSt4pairINSt7__cxx1112basic_stringIcSt11char_traitsIcESaIcEEEiED2Ev(%"struct.std::pair"* %0) unnamed_addr #5 comdat align 2 {
  %2 = getelementptr inbounds %"struct.std::pair", %"struct.std::pair"* %0, i32 0, i32 0
  call void @_ZNSt7__cxx1112basic_stringIcSt11char_traitsIcESaIcEED1Ev(%"class.std::__cxx11::basic_string"* %2) #3
  ret void
}

; Function Attrs: nounwind
declare void @_ZNSt7__cxx1112basic_stringIcSt11char_traitsIcESaIcEED1Ev(%"class.std::__cxx11::basic_string"*) unnamed_addr #2

; Function Attrs: noinline uwtable
define linkonce_odr void @_ZNSt12_Vector_baseISt4pairINSt7__cxx1112basic_stringIcSt11char_traitsIcESaIcEEEiESaIS7_EE13_M_deallocateEPS7_m(%"struct.std::_Vector_base"* %0, %"struct.std::pair"* %1, i64 %2) #0 comdat align 2 {
  %4 = icmp ne %"struct.std::pair"* %1, null
  br i1 %4, label %5, label %8

5:                                                ; preds = %3
  %6 = getelementptr inbounds %"struct.std::_Vector_base", %"struct.std::_Vector_base"* %0, i32 0, i32 0
  %7 = bitcast %"struct.std::_Vector_base<std::pair<std::__cxx11::basic_string<char>, int>, std::allocator<std::pair<std::__cxx11::basic_string<char>, int> > >::_Vector_impl"* %6 to %"class.std::allocator"*
  call void @_ZNSt16allocator_traitsISaISt4pairINSt7__cxx1112basic_stringIcSt11char_traitsIcESaIcEEEiEEE10deallocateERS8_PS7_m(%"class.std::allocator"* dereferenceable(1) %7, %"struct.std::pair"* %1, i64 %2)
  br label %8

8:                                                ; preds = %5, %3
  ret void
}

; Function Attrs: noinline uwtable
define linkonce_odr void @_ZNSt16allocator_traitsISaISt4pairINSt7__cxx1112basic_stringIcSt11char_traitsIcESaIcEEEiEEE10deallocateERS8_PS7_m(%"class.std::allocator"* dereferenceable(1) %0, %"struct.std::pair"* %1, i64 %2) #0 comdat align 2 {
  %4 = bitcast %"class.std::allocator"* %0 to %"class.__gnu_cxx::new_allocator"*
  call void @_ZN9__gnu_cxx13new_allocatorISt4pairINSt7__cxx1112basic_stringIcSt11char_traitsIcESaIcEEEiEE10deallocateEPS8_m(%"class.__gnu_cxx::new_allocator"* %4, %"struct.std::pair"* %1, i64 %2)
  ret void
}

; Function Attrs: noinline nounwind uwtable
define linkonce_odr void @_ZN9__gnu_cxx13new_allocatorISt4pairINSt7__cxx1112basic_stringIcSt11char_traitsIcESaIcEEEiEE10deallocateEPS8_m(%"class.__gnu_cxx::new_allocator"* %0, %"struct.std::pair"* %1, i64 %2) #5 comdat align 2 {
  %4 = bitcast %"struct.std::pair"* %1 to i8*
  call void @_ZdlPv(i8* %4) #3
  ret void
}

; Function Attrs: nobuiltin nounwind
declare void @_ZdlPv(i8*) #10

; Function Attrs: noinline uwtable
define linkonce_odr void @_ZSt8_DestroyIPSt4pairINSt7__cxx1112basic_stringIcSt11char_traitsIcESaIcEEEiES7_EvT_S9_RSaIT0_E(%"struct.std::pair"* %0, %"struct.std::pair"* %1, %"class.std::allocator"* dereferenceable(1) %2) #0 comdat {
  call void @_ZSt8_DestroyIPSt4pairINSt7__cxx1112basic_stringIcSt11char_traitsIcESaIcEEEiEEvT_S9_(%"struct.std::pair"* %0, %"struct.std::pair"* %1)
  ret void
}

; Function Attrs: noinline nounwind uwtable
define linkonce_odr void @_ZN9__gnu_cxx17__normal_iteratorIPSt4pairINSt7__cxx1112basic_stringIcSt11char_traitsIcESaIcEEEiESt6vectorIS8_SaIS8_EEEC2ERKS9_(%"class.__gnu_cxx::__normal_iterator"* %0, %"struct.std::pair"** dereferenceable(8) %1) unnamed_addr #5 comdat align 2 {
  %3 = getelementptr inbounds %"class.__gnu_cxx::__normal_iterator", %"class.__gnu_cxx::__normal_iterator"* %0, i32 0, i32 0
  %4 = load %"struct.std::pair"*, %"struct.std::pair"** %1, align 8
  store %"struct.std::pair"* %4, %"struct.std::pair"** %3, align 8
  ret void
}

; Function Attrs: noinline uwtable
define linkonce_odr void @_ZSt6__sortIN9__gnu_cxx17__normal_iteratorIPSt4pairINSt7__cxx1112basic_stringIcSt11char_traitsIcESaIcEEEiESt6vectorIS9_SaIS9_EEEENS0_5__ops15_Iter_less_iterEEvT_SH_T0_(%"struct.std::pair"* %0, %"struct.std::pair"* %1) #0 comdat {
  %3 = alloca %"class.__gnu_cxx::__normal_iterator", align 8
  %4 = alloca %"class.__gnu_cxx::__normal_iterator", align 8
  %5 = alloca %"class.__gnu_cxx::__normal_iterator", align 8
  %6 = alloca %"class.__gnu_cxx::__normal_iterator", align 8
  %7 = alloca %"class.__gnu_cxx::__normal_iterator", align 8
  %8 = alloca %"class.__gnu_cxx::__normal_iterator", align 8
  %9 = getelementptr inbounds %"class.__gnu_cxx::__normal_iterator", %"class.__gnu_cxx::__normal_iterator"* %3, i32 0, i32 0
  store %"struct.std::pair"* %0, %"struct.std::pair"** %9, align 8
  %10 = getelementptr inbounds %"class.__gnu_cxx::__normal_iterator", %"class.__gnu_cxx::__normal_iterator"* %4, i32 0, i32 0
  store %"struct.std::pair"* %1, %"struct.std::pair"** %10, align 8
  %11 = call zeroext i1 @_ZN9__gnu_cxxneIPSt4pairINSt7__cxx1112basic_stringIcSt11char_traitsIcESaIcEEEiESt6vectorIS8_SaIS8_EEEEbRKNS_17__normal_iteratorIT_T0_EESI_(%"class.__gnu_cxx::__normal_iterator"* dereferenceable(8) %3, %"class.__gnu_cxx::__normal_iterator"* dereferenceable(8) %4) #3
  br i1 %11, label %12, label %32

12:                                               ; preds = %2
  %13 = bitcast %"class.__gnu_cxx::__normal_iterator"* %5 to i8*
  %14 = bitcast %"class.__gnu_cxx::__normal_iterator"* %3 to i8*
  call void @llvm.memcpy.p0i8.p0i8.i64(i8* align 8 %13, i8* align 8 %14, i64 8, i1 false)
  %15 = bitcast %"class.__gnu_cxx::__normal_iterator"* %6 to i8*
  %16 = bitcast %"class.__gnu_cxx::__normal_iterator"* %4 to i8*
  call void @llvm.memcpy.p0i8.p0i8.i64(i8* align 8 %15, i8* align 8 %16, i64 8, i1 false)
  %17 = call i64 @_ZN9__gnu_cxxmiIPSt4pairINSt7__cxx1112basic_stringIcSt11char_traitsIcESaIcEEEiESt6vectorIS8_SaIS8_EEEENS_17__normal_iteratorIT_T0_E15difference_typeERKSG_SJ_(%"class.__gnu_cxx::__normal_iterator"* dereferenceable(8) %4, %"class.__gnu_cxx::__normal_iterator"* dereferenceable(8) %3) #3
  %18 = call i64 @_ZSt4__lgl(i64 %17)
  %19 = mul nsw i64 %18, 2
  %20 = getelementptr inbounds %"class.__gnu_cxx::__normal_iterator", %"class.__gnu_cxx::__normal_iterator"* %5, i32 0, i32 0
  %21 = load %"struct.std::pair"*, %"struct.std::pair"** %20, align 8
  %22 = getelementptr inbounds %"class.__gnu_cxx::__normal_iterator", %"class.__gnu_cxx::__normal_iterator"* %6, i32 0, i32 0
  %23 = load %"struct.std::pair"*, %"struct.std::pair"** %22, align 8
  call void @_ZSt16__introsort_loopIN9__gnu_cxx17__normal_iteratorIPSt4pairINSt7__cxx1112basic_stringIcSt11char_traitsIcESaIcEEEiESt6vectorIS9_SaIS9_EEEElNS0_5__ops15_Iter_less_iterEEvT_SH_T0_T1_(%"struct.std::pair"* %21, %"struct.std::pair"* %23, i64 %19)
  %24 = bitcast %"class.__gnu_cxx::__normal_iterator"* %7 to i8*
  %25 = bitcast %"class.__gnu_cxx::__normal_iterator"* %3 to i8*
  call void @llvm.memcpy.p0i8.p0i8.i64(i8* align 8 %24, i8* align 8 %25, i64 8, i1 false)
  %26 = bitcast %"class.__gnu_cxx::__normal_iterator"* %8 to i8*
  %27 = bitcast %"class.__gnu_cxx::__normal_iterator"* %4 to i8*
  call void @llvm.memcpy.p0i8.p0i8.i64(i8* align 8 %26, i8* align 8 %27, i64 8, i1 false)
  %28 = getelementptr inbounds %"class.__gnu_cxx::__normal_iterator", %"class.__gnu_cxx::__normal_iterator"* %7, i32 0, i32 0
  %29 = load %"struct.std::pair"*, %"struct.std::pair"** %28, align 8
  %30 = getelementptr inbounds %"class.__gnu_cxx::__normal_iterator", %"class.__gnu_cxx::__normal_iterator"* %8, i32 0, i32 0
  %31 = load %"struct.std::pair"*, %"struct.std::pair"** %30, align 8
  call void @_ZSt22__final_insertion_sortIN9__gnu_cxx17__normal_iteratorIPSt4pairINSt7__cxx1112basic_stringIcSt11char_traitsIcESaIcEEEiESt6vectorIS9_SaIS9_EEEENS0_5__ops15_Iter_less_iterEEvT_SH_T0_(%"struct.std::pair"* %29, %"struct.std::pair"* %31)
  br label %32

32:                                               ; preds = %12, %2
  ret void
}

; Function Attrs: noinline nounwind uwtable
define linkonce_odr void @_ZN9__gnu_cxx5__ops16__iter_less_iterEv() #5 comdat {
  ret void
}

; Function Attrs: noinline nounwind uwtable
define linkonce_odr zeroext i1 @_ZN9__gnu_cxxneIPSt4pairINSt7__cxx1112basic_stringIcSt11char_traitsIcESaIcEEEiESt6vectorIS8_SaIS8_EEEEbRKNS_17__normal_iteratorIT_T0_EESI_(%"class.__gnu_cxx::__normal_iterator"* dereferenceable(8) %0, %"class.__gnu_cxx::__normal_iterator"* dereferenceable(8) %1) #5 comdat {
  %3 = call dereferenceable(8) %"struct.std::pair"** @_ZNK9__gnu_cxx17__normal_iteratorIPSt4pairINSt7__cxx1112basic_stringIcSt11char_traitsIcESaIcEEEiESt6vectorIS8_SaIS8_EEE4baseEv(%"class.__gnu_cxx::__normal_iterator"* %0) #3
  %4 = load %"struct.std::pair"*, %"struct.std::pair"** %3, align 8
  %5 = call dereferenceable(8) %"struct.std::pair"** @_ZNK9__gnu_cxx17__normal_iteratorIPSt4pairINSt7__cxx1112basic_stringIcSt11char_traitsIcESaIcEEEiESt6vectorIS8_SaIS8_EEE4baseEv(%"class.__gnu_cxx::__normal_iterator"* %1) #3
  %6 = load %"struct.std::pair"*, %"struct.std::pair"** %5, align 8
  %7 = icmp ne %"struct.std::pair"* %4, %6
  ret i1 %7
}

; Function Attrs: noinline uwtable
define linkonce_odr void @_ZSt16__introsort_loopIN9__gnu_cxx17__normal_iteratorIPSt4pairINSt7__cxx1112basic_stringIcSt11char_traitsIcESaIcEEEiESt6vectorIS9_SaIS9_EEEElNS0_5__ops15_Iter_less_iterEEvT_SH_T0_T1_(%"struct.std::pair"* %0, %"struct.std::pair"* %1, i64 %2) #0 comdat {
  %4 = alloca %"class.__gnu_cxx::__normal_iterator", align 8
  %5 = alloca %"class.__gnu_cxx::__normal_iterator", align 8
  %6 = alloca %"class.__gnu_cxx::__normal_iterator", align 8
  %7 = alloca %"class.__gnu_cxx::__normal_iterator", align 8
  %8 = alloca %"class.__gnu_cxx::__normal_iterator", align 8
  %9 = alloca %"class.__gnu_cxx::__normal_iterator", align 8
  %10 = alloca %"class.__gnu_cxx::__normal_iterator", align 8
  %11 = alloca %"class.__gnu_cxx::__normal_iterator", align 8
  %12 = alloca %"class.__gnu_cxx::__normal_iterator", align 8
  %13 = alloca %"class.__gnu_cxx::__normal_iterator", align 8
  %14 = getelementptr inbounds %"class.__gnu_cxx::__normal_iterator", %"class.__gnu_cxx::__normal_iterator"* %4, i32 0, i32 0
  store %"struct.std::pair"* %0, %"struct.std::pair"** %14, align 8
  %15 = getelementptr inbounds %"class.__gnu_cxx::__normal_iterator", %"class.__gnu_cxx::__normal_iterator"* %5, i32 0, i32 0
  store %"struct.std::pair"* %1, %"struct.std::pair"** %15, align 8
  br label %16

16:                                               ; preds = %34, %3
  %.0 = phi i64 [ %2, %3 ], [ %35, %34 ]
  %17 = call i64 @_ZN9__gnu_cxxmiIPSt4pairINSt7__cxx1112basic_stringIcSt11char_traitsIcESaIcEEEiESt6vectorIS8_SaIS8_EEEENS_17__normal_iteratorIT_T0_E15difference_typeERKSG_SJ_(%"class.__gnu_cxx::__normal_iterator"* dereferenceable(8) %5, %"class.__gnu_cxx::__normal_iterator"* dereferenceable(8) %4) #3
  %18 = icmp sgt i64 %17, 16
  br i1 %18, label %19, label %56

19:                                               ; preds = %16
  %20 = icmp eq i64 %.0, 0
  br i1 %20, label %21, label %34

21:                                               ; preds = %19
  %22 = bitcast %"class.__gnu_cxx::__normal_iterator"* %6 to i8*
  %23 = bitcast %"class.__gnu_cxx::__normal_iterator"* %4 to i8*
  call void @llvm.memcpy.p0i8.p0i8.i64(i8* align 8 %22, i8* align 8 %23, i64 8, i1 false)
  %24 = bitcast %"class.__gnu_cxx::__normal_iterator"* %7 to i8*
  %25 = bitcast %"class.__gnu_cxx::__normal_iterator"* %5 to i8*
  call void @llvm.memcpy.p0i8.p0i8.i64(i8* align 8 %24, i8* align 8 %25, i64 8, i1 false)
  %26 = bitcast %"class.__gnu_cxx::__normal_iterator"* %8 to i8*
  %27 = bitcast %"class.__gnu_cxx::__normal_iterator"* %5 to i8*
  call void @llvm.memcpy.p0i8.p0i8.i64(i8* align 8 %26, i8* align 8 %27, i64 8, i1 false)
  %28 = getelementptr inbounds %"class.__gnu_cxx::__normal_iterator", %"class.__gnu_cxx::__normal_iterator"* %6, i32 0, i32 0
  %29 = load %"struct.std::pair"*, %"struct.std::pair"** %28, align 8
  %30 = getelementptr inbounds %"class.__gnu_cxx::__normal_iterator", %"class.__gnu_cxx::__normal_iterator"* %7, i32 0, i32 0
  %31 = load %"struct.std::pair"*, %"struct.std::pair"** %30, align 8
  %32 = getelementptr inbounds %"class.__gnu_cxx::__normal_iterator", %"class.__gnu_cxx::__normal_iterator"* %8, i32 0, i32 0
  %33 = load %"struct.std::pair"*, %"struct.std::pair"** %32, align 8
  call void @_ZSt14__partial_sortIN9__gnu_cxx17__normal_iteratorIPSt4pairINSt7__cxx1112basic_stringIcSt11char_traitsIcESaIcEEEiESt6vectorIS9_SaIS9_EEEENS0_5__ops15_Iter_less_iterEEvT_SH_SH_T0_(%"struct.std::pair"* %29, %"struct.std::pair"* %31, %"struct.std::pair"* %33)
  br label %56

34:                                               ; preds = %19
  %35 = add nsw i64 %.0, -1
  %36 = bitcast %"class.__gnu_cxx::__normal_iterator"* %10 to i8*
  %37 = bitcast %"class.__gnu_cxx::__normal_iterator"* %4 to i8*
  call void @llvm.memcpy.p0i8.p0i8.i64(i8* align 8 %36, i8* align 8 %37, i64 8, i1 false)
  %38 = bitcast %"class.__gnu_cxx::__normal_iterator"* %11 to i8*
  %39 = bitcast %"class.__gnu_cxx::__normal_iterator"* %5 to i8*
  call void @llvm.memcpy.p0i8.p0i8.i64(i8* align 8 %38, i8* align 8 %39, i64 8, i1 false)
  %40 = getelementptr inbounds %"class.__gnu_cxx::__normal_iterator", %"class.__gnu_cxx::__normal_iterator"* %10, i32 0, i32 0
  %41 = load %"struct.std::pair"*, %"struct.std::pair"** %40, align 8
  %42 = getelementptr inbounds %"class.__gnu_cxx::__normal_iterator", %"class.__gnu_cxx::__normal_iterator"* %11, i32 0, i32 0
  %43 = load %"struct.std::pair"*, %"struct.std::pair"** %42, align 8
  %44 = call %"struct.std::pair"* @_ZSt27__unguarded_partition_pivotIN9__gnu_cxx17__normal_iteratorIPSt4pairINSt7__cxx1112basic_stringIcSt11char_traitsIcESaIcEEEiESt6vectorIS9_SaIS9_EEEENS0_5__ops15_Iter_less_iterEET_SH_SH_T0_(%"struct.std::pair"* %41, %"struct.std::pair"* %43)
  %45 = getelementptr inbounds %"class.__gnu_cxx::__normal_iterator", %"class.__gnu_cxx::__normal_iterator"* %9, i32 0, i32 0
  store %"struct.std::pair"* %44, %"struct.std::pair"** %45, align 8
  %46 = bitcast %"class.__gnu_cxx::__normal_iterator"* %12 to i8*
  %47 = bitcast %"class.__gnu_cxx::__normal_iterator"* %9 to i8*
  call void @llvm.memcpy.p0i8.p0i8.i64(i8* align 8 %46, i8* align 8 %47, i64 8, i1 false)
  %48 = bitcast %"class.__gnu_cxx::__normal_iterator"* %13 to i8*
  %49 = bitcast %"class.__gnu_cxx::__normal_iterator"* %5 to i8*
  call void @llvm.memcpy.p0i8.p0i8.i64(i8* align 8 %48, i8* align 8 %49, i64 8, i1 false)
  %50 = getelementptr inbounds %"class.__gnu_cxx::__normal_iterator", %"class.__gnu_cxx::__normal_iterator"* %12, i32 0, i32 0
  %51 = load %"struct.std::pair"*, %"struct.std::pair"** %50, align 8
  %52 = getelementptr inbounds %"class.__gnu_cxx::__normal_iterator", %"class.__gnu_cxx::__normal_iterator"* %13, i32 0, i32 0
  %53 = load %"struct.std::pair"*, %"struct.std::pair"** %52, align 8
  call void @_ZSt16__introsort_loopIN9__gnu_cxx17__normal_iteratorIPSt4pairINSt7__cxx1112basic_stringIcSt11char_traitsIcESaIcEEEiESt6vectorIS9_SaIS9_EEEElNS0_5__ops15_Iter_less_iterEEvT_SH_T0_T1_(%"struct.std::pair"* %51, %"struct.std::pair"* %53, i64 %35)
  %54 = bitcast %"class.__gnu_cxx::__normal_iterator"* %5 to i8*
  %55 = bitcast %"class.__gnu_cxx::__normal_iterator"* %9 to i8*
  call void @llvm.memcpy.p0i8.p0i8.i64(i8* align 8 %54, i8* align 8 %55, i64 8, i1 false)
  br label %16

56:                                               ; preds = %21, %16
  ret void
}

; Function Attrs: noinline nounwind uwtable
define linkonce_odr i64 @_ZSt4__lgl(i64 %0) #5 comdat {
  %2 = call i64 @llvm.ctlz.i64(i64 %0, i1 true)
  %3 = trunc i64 %2 to i32
  %4 = sub nsw i32 63, %3
  %5 = sext i32 %4 to i64
  ret i64 %5
}

; Function Attrs: noinline nounwind uwtable
define linkonce_odr i64 @_ZN9__gnu_cxxmiIPSt4pairINSt7__cxx1112basic_stringIcSt11char_traitsIcESaIcEEEiESt6vectorIS8_SaIS8_EEEENS_17__normal_iteratorIT_T0_E15difference_typeERKSG_SJ_(%"class.__gnu_cxx::__normal_iterator"* dereferenceable(8) %0, %"class.__gnu_cxx::__normal_iterator"* dereferenceable(8) %1) #5 comdat {
  %3 = call dereferenceable(8) %"struct.std::pair"** @_ZNK9__gnu_cxx17__normal_iteratorIPSt4pairINSt7__cxx1112basic_stringIcSt11char_traitsIcESaIcEEEiESt6vectorIS8_SaIS8_EEE4baseEv(%"class.__gnu_cxx::__normal_iterator"* %0) #3
  %4 = load %"struct.std::pair"*, %"struct.std::pair"** %3, align 8
  %5 = call dereferenceable(8) %"struct.std::pair"** @_ZNK9__gnu_cxx17__normal_iteratorIPSt4pairINSt7__cxx1112basic_stringIcSt11char_traitsIcESaIcEEEiESt6vectorIS8_SaIS8_EEE4baseEv(%"class.__gnu_cxx::__normal_iterator"* %1) #3
  %6 = load %"struct.std::pair"*, %"struct.std::pair"** %5, align 8
  %7 = ptrtoint %"struct.std::pair"* %4 to i64
  %8 = ptrtoint %"struct.std::pair"* %6 to i64
  %9 = sub i64 %7, %8
  %10 = sdiv exact i64 %9, 40
  ret i64 %10
}

; Function Attrs: noinline uwtable
define linkonce_odr void @_ZSt22__final_insertion_sortIN9__gnu_cxx17__normal_iteratorIPSt4pairINSt7__cxx1112basic_stringIcSt11char_traitsIcESaIcEEEiESt6vectorIS9_SaIS9_EEEENS0_5__ops15_Iter_less_iterEEvT_SH_T0_(%"struct.std::pair"* %0, %"struct.std::pair"* %1) #0 comdat {
  %3 = alloca %"class.__gnu_cxx::__normal_iterator", align 8
  %4 = alloca %"class.__gnu_cxx::__normal_iterator", align 8
  %5 = alloca %"class.__gnu_cxx::__normal_iterator", align 8
  %6 = alloca %"class.__gnu_cxx::__normal_iterator", align 8
  %7 = alloca %"class.__gnu_cxx::__normal_iterator", align 8
  %8 = alloca %"class.__gnu_cxx::__normal_iterator", align 8
  %9 = alloca %"class.__gnu_cxx::__normal_iterator", align 8
  %10 = alloca %"class.__gnu_cxx::__normal_iterator", align 8
  %11 = getelementptr inbounds %"class.__gnu_cxx::__normal_iterator", %"class.__gnu_cxx::__normal_iterator"* %3, i32 0, i32 0
  store %"struct.std::pair"* %0, %"struct.std::pair"** %11, align 8
  %12 = getelementptr inbounds %"class.__gnu_cxx::__normal_iterator", %"class.__gnu_cxx::__normal_iterator"* %4, i32 0, i32 0
  store %"struct.std::pair"* %1, %"struct.std::pair"** %12, align 8
  %13 = call i64 @_ZN9__gnu_cxxmiIPSt4pairINSt7__cxx1112basic_stringIcSt11char_traitsIcESaIcEEEiESt6vectorIS8_SaIS8_EEEENS_17__normal_iteratorIT_T0_E15difference_typeERKSG_SJ_(%"class.__gnu_cxx::__normal_iterator"* dereferenceable(8) %4, %"class.__gnu_cxx::__normal_iterator"* dereferenceable(8) %3) #3
  %14 = icmp sgt i64 %13, 16
  br i1 %14, label %15, label %32

15:                                               ; preds = %2
  %16 = bitcast %"class.__gnu_cxx::__normal_iterator"* %5 to i8*
  %17 = bitcast %"class.__gnu_cxx::__normal_iterator"* %3 to i8*
  call void @llvm.memcpy.p0i8.p0i8.i64(i8* align 8 %16, i8* align 8 %17, i64 8, i1 false)
  %18 = call %"struct.std::pair"* @_ZNK9__gnu_cxx17__normal_iteratorIPSt4pairINSt7__cxx1112basic_stringIcSt11char_traitsIcESaIcEEEiESt6vectorIS8_SaIS8_EEEplEl(%"class.__gnu_cxx::__normal_iterator"* %3, i64 16) #3
  %19 = getelementptr inbounds %"class.__gnu_cxx::__normal_iterator", %"class.__gnu_cxx::__normal_iterator"* %6, i32 0, i32 0
  store %"struct.std::pair"* %18, %"struct.std::pair"** %19, align 8
  %20 = getelementptr inbounds %"class.__gnu_cxx::__normal_iterator", %"class.__gnu_cxx::__normal_iterator"* %5, i32 0, i32 0
  %21 = load %"struct.std::pair"*, %"struct.std::pair"** %20, align 8
  %22 = getelementptr inbounds %"class.__gnu_cxx::__normal_iterator", %"class.__gnu_cxx::__normal_iterator"* %6, i32 0, i32 0
  %23 = load %"struct.std::pair"*, %"struct.std::pair"** %22, align 8
  call void @_ZSt16__insertion_sortIN9__gnu_cxx17__normal_iteratorIPSt4pairINSt7__cxx1112basic_stringIcSt11char_traitsIcESaIcEEEiESt6vectorIS9_SaIS9_EEEENS0_5__ops15_Iter_less_iterEEvT_SH_T0_(%"struct.std::pair"* %21, %"struct.std::pair"* %23)
  %24 = call %"struct.std::pair"* @_ZNK9__gnu_cxx17__normal_iteratorIPSt4pairINSt7__cxx1112basic_stringIcSt11char_traitsIcESaIcEEEiESt6vectorIS8_SaIS8_EEEplEl(%"class.__gnu_cxx::__normal_iterator"* %3, i64 16) #3
  %25 = getelementptr inbounds %"class.__gnu_cxx::__normal_iterator", %"class.__gnu_cxx::__normal_iterator"* %7, i32 0, i32 0
  store %"struct.std::pair"* %24, %"struct.std::pair"** %25, align 8
  %26 = bitcast %"class.__gnu_cxx::__normal_iterator"* %8 to i8*
  %27 = bitcast %"class.__gnu_cxx::__normal_iterator"* %4 to i8*
  call void @llvm.memcpy.p0i8.p0i8.i64(i8* align 8 %26, i8* align 8 %27, i64 8, i1 false)
  %28 = getelementptr inbounds %"class.__gnu_cxx::__normal_iterator", %"class.__gnu_cxx::__normal_iterator"* %7, i32 0, i32 0
  %29 = load %"struct.std::pair"*, %"struct.std::pair"** %28, align 8
  %30 = getelementptr inbounds %"class.__gnu_cxx::__normal_iterator", %"class.__gnu_cxx::__normal_iterator"* %8, i32 0, i32 0
  %31 = load %"struct.std::pair"*, %"struct.std::pair"** %30, align 8
  call void @_ZSt26__unguarded_insertion_sortIN9__gnu_cxx17__normal_iteratorIPSt4pairINSt7__cxx1112basic_stringIcSt11char_traitsIcESaIcEEEiESt6vectorIS9_SaIS9_EEEENS0_5__ops15_Iter_less_iterEEvT_SH_T0_(%"struct.std::pair"* %29, %"struct.std::pair"* %31)
  br label %41

32:                                               ; preds = %2
  %33 = bitcast %"class.__gnu_cxx::__normal_iterator"* %9 to i8*
  %34 = bitcast %"class.__gnu_cxx::__normal_iterator"* %3 to i8*
  call void @llvm.memcpy.p0i8.p0i8.i64(i8* align 8 %33, i8* align 8 %34, i64 8, i1 false)
  %35 = bitcast %"class.__gnu_cxx::__normal_iterator"* %10 to i8*
  %36 = bitcast %"class.__gnu_cxx::__normal_iterator"* %4 to i8*
  call void @llvm.memcpy.p0i8.p0i8.i64(i8* align 8 %35, i8* align 8 %36, i64 8, i1 false)
  %37 = getelementptr inbounds %"class.__gnu_cxx::__normal_iterator", %"class.__gnu_cxx::__normal_iterator"* %9, i32 0, i32 0
  %38 = load %"struct.std::pair"*, %"struct.std::pair"** %37, align 8
  %39 = getelementptr inbounds %"class.__gnu_cxx::__normal_iterator", %"class.__gnu_cxx::__normal_iterator"* %10, i32 0, i32 0
  %40 = load %"struct.std::pair"*, %"struct.std::pair"** %39, align 8
  call void @_ZSt16__insertion_sortIN9__gnu_cxx17__normal_iteratorIPSt4pairINSt7__cxx1112basic_stringIcSt11char_traitsIcESaIcEEEiESt6vectorIS9_SaIS9_EEEENS0_5__ops15_Iter_less_iterEEvT_SH_T0_(%"struct.std::pair"* %38, %"struct.std::pair"* %40)
  br label %41

41:                                               ; preds = %32, %15
  ret void
}

; Function Attrs: noinline nounwind uwtable
define linkonce_odr dereferenceable(8) %"struct.std::pair"** @_ZNK9__gnu_cxx17__normal_iteratorIPSt4pairINSt7__cxx1112basic_stringIcSt11char_traitsIcESaIcEEEiESt6vectorIS8_SaIS8_EEE4baseEv(%"class.__gnu_cxx::__normal_iterator"* %0) #5 comdat align 2 {
  %2 = getelementptr inbounds %"class.__gnu_cxx::__normal_iterator", %"class.__gnu_cxx::__normal_iterator"* %0, i32 0, i32 0
  ret %"struct.std::pair"** %2
}

; Function Attrs: noinline uwtable
define linkonce_odr void @_ZSt14__partial_sortIN9__gnu_cxx17__normal_iteratorIPSt4pairINSt7__cxx1112basic_stringIcSt11char_traitsIcESaIcEEEiESt6vectorIS9_SaIS9_EEEENS0_5__ops15_Iter_less_iterEEvT_SH_SH_T0_(%"struct.std::pair"* %0, %"struct.std::pair"* %1, %"struct.std::pair"* %2) #0 comdat {
  %4 = alloca %"class.__gnu_cxx::__normal_iterator", align 8
  %5 = alloca %"class.__gnu_cxx::__normal_iterator", align 8
  %6 = alloca %"class.__gnu_cxx::__normal_iterator", align 8
  %7 = alloca %"struct.__gnu_cxx::__ops::_Iter_less_iter", align 1
  %8 = alloca %"class.__gnu_cxx::__normal_iterator", align 8
  %9 = alloca %"class.__gnu_cxx::__normal_iterator", align 8
  %10 = alloca %"class.__gnu_cxx::__normal_iterator", align 8
  %11 = alloca %"class.__gnu_cxx::__normal_iterator", align 8
  %12 = alloca %"class.__gnu_cxx::__normal_iterator", align 8
  %13 = getelementptr inbounds %"class.__gnu_cxx::__normal_iterator", %"class.__gnu_cxx::__normal_iterator"* %4, i32 0, i32 0
  store %"struct.std::pair"* %0, %"struct.std::pair"** %13, align 8
  %14 = getelementptr inbounds %"class.__gnu_cxx::__normal_iterator", %"class.__gnu_cxx::__normal_iterator"* %5, i32 0, i32 0
  store %"struct.std::pair"* %1, %"struct.std::pair"** %14, align 8
  %15 = getelementptr inbounds %"class.__gnu_cxx::__normal_iterator", %"class.__gnu_cxx::__normal_iterator"* %6, i32 0, i32 0
  store %"struct.std::pair"* %2, %"struct.std::pair"** %15, align 8
  %16 = bitcast %"class.__gnu_cxx::__normal_iterator"* %8 to i8*
  %17 = bitcast %"class.__gnu_cxx::__normal_iterator"* %4 to i8*
  call void @llvm.memcpy.p0i8.p0i8.i64(i8* align 8 %16, i8* align 8 %17, i64 8, i1 false)
  %18 = bitcast %"class.__gnu_cxx::__normal_iterator"* %9 to i8*
  %19 = bitcast %"class.__gnu_cxx::__normal_iterator"* %5 to i8*
  call void @llvm.memcpy.p0i8.p0i8.i64(i8* align 8 %18, i8* align 8 %19, i64 8, i1 false)
  %20 = bitcast %"class.__gnu_cxx::__normal_iterator"* %10 to i8*
  %21 = bitcast %"class.__gnu_cxx::__normal_iterator"* %6 to i8*
  call void @llvm.memcpy.p0i8.p0i8.i64(i8* align 8 %20, i8* align 8 %21, i64 8, i1 false)
  %22 = getelementptr inbounds %"class.__gnu_cxx::__normal_iterator", %"class.__gnu_cxx::__normal_iterator"* %8, i32 0, i32 0
  %23 = load %"struct.std::pair"*, %"struct.std::pair"** %22, align 8
  %24 = getelementptr inbounds %"class.__gnu_cxx::__normal_iterator", %"class.__gnu_cxx::__normal_iterator"* %9, i32 0, i32 0
  %25 = load %"struct.std::pair"*, %"struct.std::pair"** %24, align 8
  %26 = getelementptr inbounds %"class.__gnu_cxx::__normal_iterator", %"class.__gnu_cxx::__normal_iterator"* %10, i32 0, i32 0
  %27 = load %"struct.std::pair"*, %"struct.std::pair"** %26, align 8
  call void @_ZSt13__heap_selectIN9__gnu_cxx17__normal_iteratorIPSt4pairINSt7__cxx1112basic_stringIcSt11char_traitsIcESaIcEEEiESt6vectorIS9_SaIS9_EEEENS0_5__ops15_Iter_less_iterEEvT_SH_SH_T0_(%"struct.std::pair"* %23, %"struct.std::pair"* %25, %"struct.std::pair"* %27)
  %28 = bitcast %"class.__gnu_cxx::__normal_iterator"* %11 to i8*
  %29 = bitcast %"class.__gnu_cxx::__normal_iterator"* %4 to i8*
  call void @llvm.memcpy.p0i8.p0i8.i64(i8* align 8 %28, i8* align 8 %29, i64 8, i1 false)
  %30 = bitcast %"class.__gnu_cxx::__normal_iterator"* %12 to i8*
  %31 = bitcast %"class.__gnu_cxx::__normal_iterator"* %5 to i8*
  call void @llvm.memcpy.p0i8.p0i8.i64(i8* align 8 %30, i8* align 8 %31, i64 8, i1 false)
  %32 = getelementptr inbounds %"class.__gnu_cxx::__normal_iterator", %"class.__gnu_cxx::__normal_iterator"* %11, i32 0, i32 0
  %33 = load %"struct.std::pair"*, %"struct.std::pair"** %32, align 8
  %34 = getelementptr inbounds %"class.__gnu_cxx::__normal_iterator", %"class.__gnu_cxx::__normal_iterator"* %12, i32 0, i32 0
  %35 = load %"struct.std::pair"*, %"struct.std::pair"** %34, align 8
  call void @_ZSt11__sort_heapIN9__gnu_cxx17__normal_iteratorIPSt4pairINSt7__cxx1112basic_stringIcSt11char_traitsIcESaIcEEEiESt6vectorIS9_SaIS9_EEEENS0_5__ops15_Iter_less_iterEEvT_SH_RT0_(%"struct.std::pair"* %33, %"struct.std::pair"* %35, %"struct.__gnu_cxx::__ops::_Iter_less_iter"* dereferenceable(1) %7)
  ret void
}

; Function Attrs: noinline uwtable
define linkonce_odr %"struct.std::pair"* @_ZSt27__unguarded_partition_pivotIN9__gnu_cxx17__normal_iteratorIPSt4pairINSt7__cxx1112basic_stringIcSt11char_traitsIcESaIcEEEiESt6vectorIS9_SaIS9_EEEENS0_5__ops15_Iter_less_iterEET_SH_SH_T0_(%"struct.std::pair"* %0, %"struct.std::pair"* %1) #0 comdat {
  %3 = alloca %"class.__gnu_cxx::__normal_iterator", align 8
  %4 = alloca %"class.__gnu_cxx::__normal_iterator", align 8
  %5 = alloca %"class.__gnu_cxx::__normal_iterator", align 8
  %6 = alloca %"class.__gnu_cxx::__normal_iterator", align 8
  %7 = alloca %"class.__gnu_cxx::__normal_iterator", align 8
  %8 = alloca %"class.__gnu_cxx::__normal_iterator", align 8
  %9 = alloca %"class.__gnu_cxx::__normal_iterator", align 8
  %10 = alloca %"class.__gnu_cxx::__normal_iterator", align 8
  %11 = alloca %"class.__gnu_cxx::__normal_iterator", align 8
  %12 = alloca %"class.__gnu_cxx::__normal_iterator", align 8
  %13 = alloca %"class.__gnu_cxx::__normal_iterator", align 8
  %14 = getelementptr inbounds %"class.__gnu_cxx::__normal_iterator", %"class.__gnu_cxx::__normal_iterator"* %4, i32 0, i32 0
  store %"struct.std::pair"* %0, %"struct.std::pair"** %14, align 8
  %15 = getelementptr inbounds %"class.__gnu_cxx::__normal_iterator", %"class.__gnu_cxx::__normal_iterator"* %5, i32 0, i32 0
  store %"struct.std::pair"* %1, %"struct.std::pair"** %15, align 8
  %16 = call i64 @_ZN9__gnu_cxxmiIPSt4pairINSt7__cxx1112basic_stringIcSt11char_traitsIcESaIcEEEiESt6vectorIS8_SaIS8_EEEENS_17__normal_iteratorIT_T0_E15difference_typeERKSG_SJ_(%"class.__gnu_cxx::__normal_iterator"* dereferenceable(8) %5, %"class.__gnu_cxx::__normal_iterator"* dereferenceable(8) %4) #3
  %17 = sdiv i64 %16, 2
  %18 = call %"struct.std::pair"* @_ZNK9__gnu_cxx17__normal_iteratorIPSt4pairINSt7__cxx1112basic_stringIcSt11char_traitsIcESaIcEEEiESt6vectorIS8_SaIS8_EEEplEl(%"class.__gnu_cxx::__normal_iterator"* %4, i64 %17) #3
  %19 = getelementptr inbounds %"class.__gnu_cxx::__normal_iterator", %"class.__gnu_cxx::__normal_iterator"* %6, i32 0, i32 0
  store %"struct.std::pair"* %18, %"struct.std::pair"** %19, align 8
  %20 = bitcast %"class.__gnu_cxx::__normal_iterator"* %7 to i8*
  %21 = bitcast %"class.__gnu_cxx::__normal_iterator"* %4 to i8*
  call void @llvm.memcpy.p0i8.p0i8.i64(i8* align 8 %20, i8* align 8 %21, i64 8, i1 false)
  %22 = call %"struct.std::pair"* @_ZNK9__gnu_cxx17__normal_iteratorIPSt4pairINSt7__cxx1112basic_stringIcSt11char_traitsIcESaIcEEEiESt6vectorIS8_SaIS8_EEEplEl(%"class.__gnu_cxx::__normal_iterator"* %4, i64 1) #3
  %23 = getelementptr inbounds %"class.__gnu_cxx::__normal_iterator", %"class.__gnu_cxx::__normal_iterator"* %8, i32 0, i32 0
  store %"struct.std::pair"* %22, %"struct.std::pair"** %23, align 8
  %24 = bitcast %"class.__gnu_cxx::__normal_iterator"* %9 to i8*
  %25 = bitcast %"class.__gnu_cxx::__normal_iterator"* %6 to i8*
  call void @llvm.memcpy.p0i8.p0i8.i64(i8* align 8 %24, i8* align 8 %25, i64 8, i1 false)
  %26 = call %"struct.std::pair"* @_ZNK9__gnu_cxx17__normal_iteratorIPSt4pairINSt7__cxx1112basic_stringIcSt11char_traitsIcESaIcEEEiESt6vectorIS8_SaIS8_EEEmiEl(%"class.__gnu_cxx::__normal_iterator"* %5, i64 1) #3
  %27 = getelementptr inbounds %"class.__gnu_cxx::__normal_iterator", %"class.__gnu_cxx::__normal_iterator"* %10, i32 0, i32 0
  store %"struct.std::pair"* %26, %"struct.std::pair"** %27, align 8
  %28 = getelementptr inbounds %"class.__gnu_cxx::__normal_iterator", %"class.__gnu_cxx::__normal_iterator"* %7, i32 0, i32 0
  %29 = load %"struct.std::pair"*, %"struct.std::pair"** %28, align 8
  %30 = getelementptr inbounds %"class.__gnu_cxx::__normal_iterator", %"class.__gnu_cxx::__normal_iterator"* %8, i32 0, i32 0
  %31 = load %"struct.std::pair"*, %"struct.std::pair"** %30, align 8
  %32 = getelementptr inbounds %"class.__gnu_cxx::__normal_iterator", %"class.__gnu_cxx::__normal_iterator"* %9, i32 0, i32 0
  %33 = load %"struct.std::pair"*, %"struct.std::pair"** %32, align 8
  %34 = getelementptr inbounds %"class.__gnu_cxx::__normal_iterator", %"class.__gnu_cxx::__normal_iterator"* %10, i32 0, i32 0
  %35 = load %"struct.std::pair"*, %"struct.std::pair"** %34, align 8
  call void @_ZSt22__move_median_to_firstIN9__gnu_cxx17__normal_iteratorIPSt4pairINSt7__cxx1112basic_stringIcSt11char_traitsIcESaIcEEEiESt6vectorIS9_SaIS9_EEEENS0_5__ops15_Iter_less_iterEEvT_SH_SH_SH_T0_(%"struct.std::pair"* %29, %"struct.std::pair"* %31, %"struct.std::pair"* %33, %"struct.std::pair"* %35)
  %36 = call %"struct.std::pair"* @_ZNK9__gnu_cxx17__normal_iteratorIPSt4pairINSt7__cxx1112basic_stringIcSt11char_traitsIcESaIcEEEiESt6vectorIS8_SaIS8_EEEplEl(%"class.__gnu_cxx::__normal_iterator"* %4, i64 1) #3
  %37 = getelementptr inbounds %"class.__gnu_cxx::__normal_iterator", %"class.__gnu_cxx::__normal_iterator"* %11, i32 0, i32 0
  store %"struct.std::pair"* %36, %"struct.std::pair"** %37, align 8
  %38 = bitcast %"class.__gnu_cxx::__normal_iterator"* %12 to i8*
  %39 = bitcast %"class.__gnu_cxx::__normal_iterator"* %5 to i8*
  call void @llvm.memcpy.p0i8.p0i8.i64(i8* align 8 %38, i8* align 8 %39, i64 8, i1 false)
  %40 = bitcast %"class.__gnu_cxx::__normal_iterator"* %13 to i8*
  %41 = bitcast %"class.__gnu_cxx::__normal_iterator"* %4 to i8*
  call void @llvm.memcpy.p0i8.p0i8.i64(i8* align 8 %40, i8* align 8 %41, i64 8, i1 false)
  %42 = getelementptr inbounds %"class.__gnu_cxx::__normal_iterator", %"class.__gnu_cxx::__normal_iterator"* %11, i32 0, i32 0
  %43 = load %"struct.std::pair"*, %"struct.std::pair"** %42, align 8
  %44 = getelementptr inbounds %"class.__gnu_cxx::__normal_iterator", %"class.__gnu_cxx::__normal_iterator"* %12, i32 0, i32 0
  %45 = load %"struct.std::pair"*, %"struct.std::pair"** %44, align 8
  %46 = getelementptr inbounds %"class.__gnu_cxx::__normal_iterator", %"class.__gnu_cxx::__normal_iterator"* %13, i32 0, i32 0
  %47 = load %"struct.std::pair"*, %"struct.std::pair"** %46, align 8
  %48 = call %"struct.std::pair"* @_ZSt21__unguarded_partitionIN9__gnu_cxx17__normal_iteratorIPSt4pairINSt7__cxx1112basic_stringIcSt11char_traitsIcESaIcEEEiESt6vectorIS9_SaIS9_EEEENS0_5__ops15_Iter_less_iterEET_SH_SH_SH_T0_(%"struct.std::pair"* %43, %"struct.std::pair"* %45, %"struct.std::pair"* %47)
  %49 = getelementptr inbounds %"class.__gnu_cxx::__normal_iterator", %"class.__gnu_cxx::__normal_iterator"* %3, i32 0, i32 0
  store %"struct.std::pair"* %48, %"struct.std::pair"** %49, align 8
  %50 = getelementptr inbounds %"class.__gnu_cxx::__normal_iterator", %"class.__gnu_cxx::__normal_iterator"* %3, i32 0, i32 0
  %51 = load %"struct.std::pair"*, %"struct.std::pair"** %50, align 8
  ret %"struct.std::pair"* %51
}

; Function Attrs: noinline uwtable
define linkonce_odr void @_ZSt13__heap_selectIN9__gnu_cxx17__normal_iteratorIPSt4pairINSt7__cxx1112basic_stringIcSt11char_traitsIcESaIcEEEiESt6vectorIS9_SaIS9_EEEENS0_5__ops15_Iter_less_iterEEvT_SH_SH_T0_(%"struct.std::pair"* %0, %"struct.std::pair"* %1, %"struct.std::pair"* %2) #0 comdat {
  %4 = alloca %"class.__gnu_cxx::__normal_iterator", align 8
  %5 = alloca %"class.__gnu_cxx::__normal_iterator", align 8
  %6 = alloca %"class.__gnu_cxx::__normal_iterator", align 8
  %7 = alloca %"struct.__gnu_cxx::__ops::_Iter_less_iter", align 1
  %8 = alloca %"class.__gnu_cxx::__normal_iterator", align 8
  %9 = alloca %"class.__gnu_cxx::__normal_iterator", align 8
  %10 = alloca %"class.__gnu_cxx::__normal_iterator", align 8
  %11 = alloca %"class.__gnu_cxx::__normal_iterator", align 8
  %12 = alloca %"class.__gnu_cxx::__normal_iterator", align 8
  %13 = alloca %"class.__gnu_cxx::__normal_iterator", align 8
  %14 = alloca %"class.__gnu_cxx::__normal_iterator", align 8
  %15 = alloca %"class.__gnu_cxx::__normal_iterator", align 8
  %16 = getelementptr inbounds %"class.__gnu_cxx::__normal_iterator", %"class.__gnu_cxx::__normal_iterator"* %4, i32 0, i32 0
  store %"struct.std::pair"* %0, %"struct.std::pair"** %16, align 8
  %17 = getelementptr inbounds %"class.__gnu_cxx::__normal_iterator", %"class.__gnu_cxx::__normal_iterator"* %5, i32 0, i32 0
  store %"struct.std::pair"* %1, %"struct.std::pair"** %17, align 8
  %18 = getelementptr inbounds %"class.__gnu_cxx::__normal_iterator", %"class.__gnu_cxx::__normal_iterator"* %6, i32 0, i32 0
  store %"struct.std::pair"* %2, %"struct.std::pair"** %18, align 8
  %19 = bitcast %"class.__gnu_cxx::__normal_iterator"* %8 to i8*
  %20 = bitcast %"class.__gnu_cxx::__normal_iterator"* %4 to i8*
  call void @llvm.memcpy.p0i8.p0i8.i64(i8* align 8 %19, i8* align 8 %20, i64 8, i1 false)
  %21 = bitcast %"class.__gnu_cxx::__normal_iterator"* %9 to i8*
  %22 = bitcast %"class.__gnu_cxx::__normal_iterator"* %5 to i8*
  call void @llvm.memcpy.p0i8.p0i8.i64(i8* align 8 %21, i8* align 8 %22, i64 8, i1 false)
  %23 = getelementptr inbounds %"class.__gnu_cxx::__normal_iterator", %"class.__gnu_cxx::__normal_iterator"* %8, i32 0, i32 0
  %24 = load %"struct.std::pair"*, %"struct.std::pair"** %23, align 8
  %25 = getelementptr inbounds %"class.__gnu_cxx::__normal_iterator", %"class.__gnu_cxx::__normal_iterator"* %9, i32 0, i32 0
  %26 = load %"struct.std::pair"*, %"struct.std::pair"** %25, align 8
  call void @_ZSt11__make_heapIN9__gnu_cxx17__normal_iteratorIPSt4pairINSt7__cxx1112basic_stringIcSt11char_traitsIcESaIcEEEiESt6vectorIS9_SaIS9_EEEENS0_5__ops15_Iter_less_iterEEvT_SH_RT0_(%"struct.std::pair"* %24, %"struct.std::pair"* %26, %"struct.__gnu_cxx::__ops::_Iter_less_iter"* dereferenceable(1) %7)
  %27 = bitcast %"class.__gnu_cxx::__normal_iterator"* %10 to i8*
  %28 = bitcast %"class.__gnu_cxx::__normal_iterator"* %5 to i8*
  call void @llvm.memcpy.p0i8.p0i8.i64(i8* align 8 %27, i8* align 8 %28, i64 8, i1 false)
  br label %29

29:                                               ; preds = %55, %3
  %30 = call zeroext i1 @_ZN9__gnu_cxxltIPSt4pairINSt7__cxx1112basic_stringIcSt11char_traitsIcESaIcEEEiESt6vectorIS8_SaIS8_EEEEbRKNS_17__normal_iteratorIT_T0_EESI_(%"class.__gnu_cxx::__normal_iterator"* dereferenceable(8) %10, %"class.__gnu_cxx::__normal_iterator"* dereferenceable(8) %6) #3
  br i1 %30, label %31, label %57

31:                                               ; preds = %29
  %32 = bitcast %"class.__gnu_cxx::__normal_iterator"* %11 to i8*
  %33 = bitcast %"class.__gnu_cxx::__normal_iterator"* %10 to i8*
  call void @llvm.memcpy.p0i8.p0i8.i64(i8* align 8 %32, i8* align 8 %33, i64 8, i1 false)
  %34 = bitcast %"class.__gnu_cxx::__normal_iterator"* %12 to i8*
  %35 = bitcast %"class.__gnu_cxx::__normal_iterator"* %4 to i8*
  call void @llvm.memcpy.p0i8.p0i8.i64(i8* align 8 %34, i8* align 8 %35, i64 8, i1 false)
  %36 = getelementptr inbounds %"class.__gnu_cxx::__normal_iterator", %"class.__gnu_cxx::__normal_iterator"* %11, i32 0, i32 0
  %37 = load %"struct.std::pair"*, %"struct.std::pair"** %36, align 8
  %38 = getelementptr inbounds %"class.__gnu_cxx::__normal_iterator", %"class.__gnu_cxx::__normal_iterator"* %12, i32 0, i32 0
  %39 = load %"struct.std::pair"*, %"struct.std::pair"** %38, align 8
  %40 = call zeroext i1 @_ZNK9__gnu_cxx5__ops15_Iter_less_iterclINS_17__normal_iteratorIPSt4pairINSt7__cxx1112basic_stringIcSt11char_traitsIcESaIcEEEiESt6vectorISB_SaISB_EEEESG_EEbT_T0_(%"struct.__gnu_cxx::__ops::_Iter_less_iter"* %7, %"struct.std::pair"* %37, %"struct.std::pair"* %39)
  br i1 %40, label %41, label %54

41:                                               ; preds = %31
  %42 = bitcast %"class.__gnu_cxx::__normal_iterator"* %13 to i8*
  %43 = bitcast %"class.__gnu_cxx::__normal_iterator"* %4 to i8*
  call void @llvm.memcpy.p0i8.p0i8.i64(i8* align 8 %42, i8* align 8 %43, i64 8, i1 false)
  %44 = bitcast %"class.__gnu_cxx::__normal_iterator"* %14 to i8*
  %45 = bitcast %"class.__gnu_cxx::__normal_iterator"* %5 to i8*
  call void @llvm.memcpy.p0i8.p0i8.i64(i8* align 8 %44, i8* align 8 %45, i64 8, i1 false)
  %46 = bitcast %"class.__gnu_cxx::__normal_iterator"* %15 to i8*
  %47 = bitcast %"class.__gnu_cxx::__normal_iterator"* %10 to i8*
  call void @llvm.memcpy.p0i8.p0i8.i64(i8* align 8 %46, i8* align 8 %47, i64 8, i1 false)
  %48 = getelementptr inbounds %"class.__gnu_cxx::__normal_iterator", %"class.__gnu_cxx::__normal_iterator"* %13, i32 0, i32 0
  %49 = load %"struct.std::pair"*, %"struct.std::pair"** %48, align 8
  %50 = getelementptr inbounds %"class.__gnu_cxx::__normal_iterator", %"class.__gnu_cxx::__normal_iterator"* %14, i32 0, i32 0
  %51 = load %"struct.std::pair"*, %"struct.std::pair"** %50, align 8
  %52 = getelementptr inbounds %"class.__gnu_cxx::__normal_iterator", %"class.__gnu_cxx::__normal_iterator"* %15, i32 0, i32 0
  %53 = load %"struct.std::pair"*, %"struct.std::pair"** %52, align 8
  call void @_ZSt10__pop_heapIN9__gnu_cxx17__normal_iteratorIPSt4pairINSt7__cxx1112basic_stringIcSt11char_traitsIcESaIcEEEiESt6vectorIS9_SaIS9_EEEENS0_5__ops15_Iter_less_iterEEvT_SH_SH_RT0_(%"struct.std::pair"* %49, %"struct.std::pair"* %51, %"struct.std::pair"* %53, %"struct.__gnu_cxx::__ops::_Iter_less_iter"* dereferenceable(1) %7)
  br label %54

54:                                               ; preds = %41, %31
  br label %55

55:                                               ; preds = %54
  %56 = call dereferenceable(8) %"class.__gnu_cxx::__normal_iterator"* @_ZN9__gnu_cxx17__normal_iteratorIPSt4pairINSt7__cxx1112basic_stringIcSt11char_traitsIcESaIcEEEiESt6vectorIS8_SaIS8_EEEppEv(%"class.__gnu_cxx::__normal_iterator"* %10) #3
  br label %29

57:                                               ; preds = %29
  ret void
}

; Function Attrs: noinline uwtable
define linkonce_odr void @_ZSt11__sort_heapIN9__gnu_cxx17__normal_iteratorIPSt4pairINSt7__cxx1112basic_stringIcSt11char_traitsIcESaIcEEEiESt6vectorIS9_SaIS9_EEEENS0_5__ops15_Iter_less_iterEEvT_SH_RT0_(%"struct.std::pair"* %0, %"struct.std::pair"* %1, %"struct.__gnu_cxx::__ops::_Iter_less_iter"* dereferenceable(1) %2) #0 comdat {
  %4 = alloca %"class.__gnu_cxx::__normal_iterator", align 8
  %5 = alloca %"class.__gnu_cxx::__normal_iterator", align 8
  %6 = alloca %"class.__gnu_cxx::__normal_iterator", align 8
  %7 = alloca %"class.__gnu_cxx::__normal_iterator", align 8
  %8 = alloca %"class.__gnu_cxx::__normal_iterator", align 8
  %9 = getelementptr inbounds %"class.__gnu_cxx::__normal_iterator", %"class.__gnu_cxx::__normal_iterator"* %4, i32 0, i32 0
  store %"struct.std::pair"* %0, %"struct.std::pair"** %9, align 8
  %10 = getelementptr inbounds %"class.__gnu_cxx::__normal_iterator", %"class.__gnu_cxx::__normal_iterator"* %5, i32 0, i32 0
  store %"struct.std::pair"* %1, %"struct.std::pair"** %10, align 8
  br label %11

11:                                               ; preds = %14, %3
  %12 = call i64 @_ZN9__gnu_cxxmiIPSt4pairINSt7__cxx1112basic_stringIcSt11char_traitsIcESaIcEEEiESt6vectorIS8_SaIS8_EEEENS_17__normal_iteratorIT_T0_E15difference_typeERKSG_SJ_(%"class.__gnu_cxx::__normal_iterator"* dereferenceable(8) %5, %"class.__gnu_cxx::__normal_iterator"* dereferenceable(8) %4) #3
  %13 = icmp sgt i64 %12, 1
  br i1 %13, label %14, label %28

14:                                               ; preds = %11
  %15 = call dereferenceable(8) %"class.__gnu_cxx::__normal_iterator"* @_ZN9__gnu_cxx17__normal_iteratorIPSt4pairINSt7__cxx1112basic_stringIcSt11char_traitsIcESaIcEEEiESt6vectorIS8_SaIS8_EEEmmEv(%"class.__gnu_cxx::__normal_iterator"* %5) #3
  %16 = bitcast %"class.__gnu_cxx::__normal_iterator"* %6 to i8*
  %17 = bitcast %"class.__gnu_cxx::__normal_iterator"* %4 to i8*
  call void @llvm.memcpy.p0i8.p0i8.i64(i8* align 8 %16, i8* align 8 %17, i64 8, i1 false)
  %18 = bitcast %"class.__gnu_cxx::__normal_iterator"* %7 to i8*
  %19 = bitcast %"class.__gnu_cxx::__normal_iterator"* %5 to i8*
  call void @llvm.memcpy.p0i8.p0i8.i64(i8* align 8 %18, i8* align 8 %19, i64 8, i1 false)
  %20 = bitcast %"class.__gnu_cxx::__normal_iterator"* %8 to i8*
  %21 = bitcast %"class.__gnu_cxx::__normal_iterator"* %5 to i8*
  call void @llvm.memcpy.p0i8.p0i8.i64(i8* align 8 %20, i8* align 8 %21, i64 8, i1 false)
  %22 = getelementptr inbounds %"class.__gnu_cxx::__normal_iterator", %"class.__gnu_cxx::__normal_iterator"* %6, i32 0, i32 0
  %23 = load %"struct.std::pair"*, %"struct.std::pair"** %22, align 8
  %24 = getelementptr inbounds %"class.__gnu_cxx::__normal_iterator", %"class.__gnu_cxx::__normal_iterator"* %7, i32 0, i32 0
  %25 = load %"struct.std::pair"*, %"struct.std::pair"** %24, align 8
  %26 = getelementptr inbounds %"class.__gnu_cxx::__normal_iterator", %"class.__gnu_cxx::__normal_iterator"* %8, i32 0, i32 0
  %27 = load %"struct.std::pair"*, %"struct.std::pair"** %26, align 8
  call void @_ZSt10__pop_heapIN9__gnu_cxx17__normal_iteratorIPSt4pairINSt7__cxx1112basic_stringIcSt11char_traitsIcESaIcEEEiESt6vectorIS9_SaIS9_EEEENS0_5__ops15_Iter_less_iterEEvT_SH_SH_RT0_(%"struct.std::pair"* %23, %"struct.std::pair"* %25, %"struct.std::pair"* %27, %"struct.__gnu_cxx::__ops::_Iter_less_iter"* dereferenceable(1) %2)
  br label %11

28:                                               ; preds = %11
  ret void
}

; Function Attrs: noinline uwtable
define linkonce_odr void @_ZSt11__make_heapIN9__gnu_cxx17__normal_iteratorIPSt4pairINSt7__cxx1112basic_stringIcSt11char_traitsIcESaIcEEEiESt6vectorIS9_SaIS9_EEEENS0_5__ops15_Iter_less_iterEEvT_SH_RT0_(%"struct.std::pair"* %0, %"struct.std::pair"* %1, %"struct.__gnu_cxx::__ops::_Iter_less_iter"* dereferenceable(1) %2) #0 comdat personality i8* bitcast (i32 (...)* @__gxx_personality_v0 to i8*) {
  %4 = alloca %"class.__gnu_cxx::__normal_iterator", align 8
  %5 = alloca %"class.__gnu_cxx::__normal_iterator", align 8
  %6 = alloca %"struct.std::pair", align 8
  %7 = alloca %"class.__gnu_cxx::__normal_iterator", align 8
  %8 = alloca %"class.__gnu_cxx::__normal_iterator", align 8
  %9 = alloca %"struct.std::pair", align 8
  %10 = getelementptr inbounds %"class.__gnu_cxx::__normal_iterator", %"class.__gnu_cxx::__normal_iterator"* %4, i32 0, i32 0
  store %"struct.std::pair"* %0, %"struct.std::pair"** %10, align 8
  %11 = getelementptr inbounds %"class.__gnu_cxx::__normal_iterator", %"class.__gnu_cxx::__normal_iterator"* %5, i32 0, i32 0
  store %"struct.std::pair"* %1, %"struct.std::pair"** %11, align 8
  %12 = call i64 @_ZN9__gnu_cxxmiIPSt4pairINSt7__cxx1112basic_stringIcSt11char_traitsIcESaIcEEEiESt6vectorIS8_SaIS8_EEEENS_17__normal_iteratorIT_T0_E15difference_typeERKSG_SJ_(%"class.__gnu_cxx::__normal_iterator"* dereferenceable(8) %5, %"class.__gnu_cxx::__normal_iterator"* dereferenceable(8) %4) #3
  %13 = icmp slt i64 %12, 2
  br i1 %13, label %14, label %15

14:                                               ; preds = %3
  br label %40

15:                                               ; preds = %3
  %16 = call i64 @_ZN9__gnu_cxxmiIPSt4pairINSt7__cxx1112basic_stringIcSt11char_traitsIcESaIcEEEiESt6vectorIS8_SaIS8_EEEENS_17__normal_iteratorIT_T0_E15difference_typeERKSG_SJ_(%"class.__gnu_cxx::__normal_iterator"* dereferenceable(8) %5, %"class.__gnu_cxx::__normal_iterator"* dereferenceable(8) %4) #3
  %17 = sub nsw i64 %16, 2
  %18 = sdiv i64 %17, 2
  br label %19

19:                                               ; preds = %39, %15
  %.01 = phi i64 [ %18, %15 ], [ %.1, %39 ]
  %20 = call %"struct.std::pair"* @_ZNK9__gnu_cxx17__normal_iteratorIPSt4pairINSt7__cxx1112basic_stringIcSt11char_traitsIcESaIcEEEiESt6vectorIS8_SaIS8_EEEplEl(%"class.__gnu_cxx::__normal_iterator"* %4, i64 %.01) #3
  %21 = getelementptr inbounds %"class.__gnu_cxx::__normal_iterator", %"class.__gnu_cxx::__normal_iterator"* %7, i32 0, i32 0
  store %"struct.std::pair"* %20, %"struct.std::pair"** %21, align 8
  %22 = call dereferenceable(40) %"struct.std::pair"* @_ZNK9__gnu_cxx17__normal_iteratorIPSt4pairINSt7__cxx1112basic_stringIcSt11char_traitsIcESaIcEEEiESt6vectorIS8_SaIS8_EEEdeEv(%"class.__gnu_cxx::__normal_iterator"* %7) #3
  %23 = call dereferenceable(40) %"struct.std::pair"* @_ZSt4moveIRSt4pairINSt7__cxx1112basic_stringIcSt11char_traitsIcESaIcEEEiEEONSt16remove_referenceIT_E4typeEOSA_(%"struct.std::pair"* dereferenceable(40) %22) #3
  call void @_ZNSt4pairINSt7__cxx1112basic_stringIcSt11char_traitsIcESaIcEEEiEC2EOS6_(%"struct.std::pair"* %6, %"struct.std::pair"* dereferenceable(40) %23) #3
  %24 = bitcast %"class.__gnu_cxx::__normal_iterator"* %8 to i8*
  %25 = bitcast %"class.__gnu_cxx::__normal_iterator"* %4 to i8*
  call void @llvm.memcpy.p0i8.p0i8.i64(i8* align 8 %24, i8* align 8 %25, i64 8, i1 false)
  %26 = call dereferenceable(40) %"struct.std::pair"* @_ZSt4moveIRSt4pairINSt7__cxx1112basic_stringIcSt11char_traitsIcESaIcEEEiEEONSt16remove_referenceIT_E4typeEOSA_(%"struct.std::pair"* dereferenceable(40) %6) #3
  call void @_ZNSt4pairINSt7__cxx1112basic_stringIcSt11char_traitsIcESaIcEEEiEC2EOS6_(%"struct.std::pair"* %9, %"struct.std::pair"* dereferenceable(40) %26) #3
  %27 = getelementptr inbounds %"class.__gnu_cxx::__normal_iterator", %"class.__gnu_cxx::__normal_iterator"* %8, i32 0, i32 0
  %28 = load %"struct.std::pair"*, %"struct.std::pair"** %27, align 8
  invoke void @_ZSt13__adjust_heapIN9__gnu_cxx17__normal_iteratorIPSt4pairINSt7__cxx1112basic_stringIcSt11char_traitsIcESaIcEEEiESt6vectorIS9_SaIS9_EEEElS9_NS0_5__ops15_Iter_less_iterEEvT_T0_SI_T1_T2_(%"struct.std::pair"* %28, i64 %.01, i64 %16, %"struct.std::pair"* %9)
          to label %29 unwind label %32

29:                                               ; preds = %19
  call void @_ZNSt4pairINSt7__cxx1112basic_stringIcSt11char_traitsIcESaIcEEEiED2Ev(%"struct.std::pair"* %9) #3
  %30 = icmp eq i64 %.01, 0
  br i1 %30, label %31, label %36

31:                                               ; preds = %29
  br label %38

32:                                               ; preds = %19
  %33 = landingpad { i8*, i32 }
          cleanup
  %34 = extractvalue { i8*, i32 } %33, 0
  %35 = extractvalue { i8*, i32 } %33, 1
  call void @_ZNSt4pairINSt7__cxx1112basic_stringIcSt11char_traitsIcESaIcEEEiED2Ev(%"struct.std::pair"* %9) #3
  call void @_ZNSt4pairINSt7__cxx1112basic_stringIcSt11char_traitsIcESaIcEEEiED2Ev(%"struct.std::pair"* %6) #3
  br label %41

36:                                               ; preds = %29
  %37 = add nsw i64 %.01, -1
  br label %38

38:                                               ; preds = %36, %31
  %.1 = phi i64 [ %.01, %31 ], [ %37, %36 ]
  %.0 = phi i32 [ 1, %31 ], [ 0, %36 ]
  call void @_ZNSt4pairINSt7__cxx1112basic_stringIcSt11char_traitsIcESaIcEEEiED2Ev(%"struct.std::pair"* %6) #3
  switch i32 %.0, label %44 [
    i32 0, label %39
    i32 1, label %40
  ]

39:                                               ; preds = %38
  br label %19

40:                                               ; preds = %38, %14
  ret void

41:                                               ; preds = %32
  %42 = insertvalue { i8*, i32 } undef, i8* %34, 0
  %43 = insertvalue { i8*, i32 } %42, i32 %35, 1
  resume { i8*, i32 } %43

44:                                               ; preds = %38
  unreachable
}

; Function Attrs: noinline nounwind uwtable
define linkonce_odr zeroext i1 @_ZN9__gnu_cxxltIPSt4pairINSt7__cxx1112basic_stringIcSt11char_traitsIcESaIcEEEiESt6vectorIS8_SaIS8_EEEEbRKNS_17__normal_iteratorIT_T0_EESI_(%"class.__gnu_cxx::__normal_iterator"* dereferenceable(8) %0, %"class.__gnu_cxx::__normal_iterator"* dereferenceable(8) %1) #5 comdat {
  %3 = call dereferenceable(8) %"struct.std::pair"** @_ZNK9__gnu_cxx17__normal_iteratorIPSt4pairINSt7__cxx1112basic_stringIcSt11char_traitsIcESaIcEEEiESt6vectorIS8_SaIS8_EEE4baseEv(%"class.__gnu_cxx::__normal_iterator"* %0) #3
  %4 = load %"struct.std::pair"*, %"struct.std::pair"** %3, align 8
  %5 = call dereferenceable(8) %"struct.std::pair"** @_ZNK9__gnu_cxx17__normal_iteratorIPSt4pairINSt7__cxx1112basic_stringIcSt11char_traitsIcESaIcEEEiESt6vectorIS8_SaIS8_EEE4baseEv(%"class.__gnu_cxx::__normal_iterator"* %1) #3
  %6 = load %"struct.std::pair"*, %"struct.std::pair"** %5, align 8
  %7 = icmp ult %"struct.std::pair"* %4, %6
  ret i1 %7
}

; Function Attrs: noinline nounwind uwtable
define linkonce_odr zeroext i1 @_ZNK9__gnu_cxx5__ops15_Iter_less_iterclINS_17__normal_iteratorIPSt4pairINSt7__cxx1112basic_stringIcSt11char_traitsIcESaIcEEEiESt6vectorISB_SaISB_EEEESG_EEbT_T0_(%"struct.__gnu_cxx::__ops::_Iter_less_iter"* %0, %"struct.std::pair"* %1, %"struct.std::pair"* %2) #5 comdat align 2 {
  %4 = alloca %"class.__gnu_cxx::__normal_iterator", align 8
  %5 = alloca %"class.__gnu_cxx::__normal_iterator", align 8
  %6 = getelementptr inbounds %"class.__gnu_cxx::__normal_iterator", %"class.__gnu_cxx::__normal_iterator"* %4, i32 0, i32 0
  store %"struct.std::pair"* %1, %"struct.std::pair"** %6, align 8
  %7 = getelementptr inbounds %"class.__gnu_cxx::__normal_iterator", %"class.__gnu_cxx::__normal_iterator"* %5, i32 0, i32 0
  store %"struct.std::pair"* %2, %"struct.std::pair"** %7, align 8
  %8 = call dereferenceable(40) %"struct.std::pair"* @_ZNK9__gnu_cxx17__normal_iteratorIPSt4pairINSt7__cxx1112basic_stringIcSt11char_traitsIcESaIcEEEiESt6vectorIS8_SaIS8_EEEdeEv(%"class.__gnu_cxx::__normal_iterator"* %4) #3
  %9 = call dereferenceable(40) %"struct.std::pair"* @_ZNK9__gnu_cxx17__normal_iteratorIPSt4pairINSt7__cxx1112basic_stringIcSt11char_traitsIcESaIcEEEiESt6vectorIS8_SaIS8_EEEdeEv(%"class.__gnu_cxx::__normal_iterator"* %5) #3
  %10 = call zeroext i1 @_ZStltINSt7__cxx1112basic_stringIcSt11char_traitsIcESaIcEEEiEbRKSt4pairIT_T0_ESB_(%"struct.std::pair"* dereferenceable(40) %8, %"struct.std::pair"* dereferenceable(40) %9)
  ret i1 %10
}

; Function Attrs: noinline uwtable
define linkonce_odr void @_ZSt10__pop_heapIN9__gnu_cxx17__normal_iteratorIPSt4pairINSt7__cxx1112basic_stringIcSt11char_traitsIcESaIcEEEiESt6vectorIS9_SaIS9_EEEENS0_5__ops15_Iter_less_iterEEvT_SH_SH_RT0_(%"struct.std::pair"* %0, %"struct.std::pair"* %1, %"struct.std::pair"* %2, %"struct.__gnu_cxx::__ops::_Iter_less_iter"* dereferenceable(1) %3) #0 comdat personality i8* bitcast (i32 (...)* @__gxx_personality_v0 to i8*) {
  %5 = alloca %"class.__gnu_cxx::__normal_iterator", align 8
  %6 = alloca %"class.__gnu_cxx::__normal_iterator", align 8
  %7 = alloca %"class.__gnu_cxx::__normal_iterator", align 8
  %8 = alloca %"struct.std::pair", align 8
  %9 = alloca %"class.__gnu_cxx::__normal_iterator", align 8
  %10 = alloca %"struct.std::pair", align 8
  %11 = getelementptr inbounds %"class.__gnu_cxx::__normal_iterator", %"class.__gnu_cxx::__normal_iterator"* %5, i32 0, i32 0
  store %"struct.std::pair"* %0, %"struct.std::pair"** %11, align 8
  %12 = getelementptr inbounds %"class.__gnu_cxx::__normal_iterator", %"class.__gnu_cxx::__normal_iterator"* %6, i32 0, i32 0
  store %"struct.std::pair"* %1, %"struct.std::pair"** %12, align 8
  %13 = getelementptr inbounds %"class.__gnu_cxx::__normal_iterator", %"class.__gnu_cxx::__normal_iterator"* %7, i32 0, i32 0
  store %"struct.std::pair"* %2, %"struct.std::pair"** %13, align 8
  %14 = call dereferenceable(40) %"struct.std::pair"* @_ZNK9__gnu_cxx17__normal_iteratorIPSt4pairINSt7__cxx1112basic_stringIcSt11char_traitsIcESaIcEEEiESt6vectorIS8_SaIS8_EEEdeEv(%"class.__gnu_cxx::__normal_iterator"* %7) #3
  %15 = call dereferenceable(40) %"struct.std::pair"* @_ZSt4moveIRSt4pairINSt7__cxx1112basic_stringIcSt11char_traitsIcESaIcEEEiEEONSt16remove_referenceIT_E4typeEOSA_(%"struct.std::pair"* dereferenceable(40) %14) #3
  call void @_ZNSt4pairINSt7__cxx1112basic_stringIcSt11char_traitsIcESaIcEEEiEC2EOS6_(%"struct.std::pair"* %8, %"struct.std::pair"* dereferenceable(40) %15) #3
  %16 = call dereferenceable(40) %"struct.std::pair"* @_ZNK9__gnu_cxx17__normal_iteratorIPSt4pairINSt7__cxx1112basic_stringIcSt11char_traitsIcESaIcEEEiESt6vectorIS8_SaIS8_EEEdeEv(%"class.__gnu_cxx::__normal_iterator"* %5) #3
  %17 = call dereferenceable(40) %"struct.std::pair"* @_ZSt4moveIRSt4pairINSt7__cxx1112basic_stringIcSt11char_traitsIcESaIcEEEiEEONSt16remove_referenceIT_E4typeEOSA_(%"struct.std::pair"* dereferenceable(40) %16) #3
  %18 = call dereferenceable(40) %"struct.std::pair"* @_ZNK9__gnu_cxx17__normal_iteratorIPSt4pairINSt7__cxx1112basic_stringIcSt11char_traitsIcESaIcEEEiESt6vectorIS8_SaIS8_EEEdeEv(%"class.__gnu_cxx::__normal_iterator"* %7) #3
  %19 = call dereferenceable(40) %"struct.std::pair"* @_ZNSt4pairINSt7__cxx1112basic_stringIcSt11char_traitsIcESaIcEEEiEaSEOS6_(%"struct.std::pair"* %18, %"struct.std::pair"* dereferenceable(40) %17) #3
  %20 = bitcast %"class.__gnu_cxx::__normal_iterator"* %9 to i8*
  %21 = bitcast %"class.__gnu_cxx::__normal_iterator"* %5 to i8*
  call void @llvm.memcpy.p0i8.p0i8.i64(i8* align 8 %20, i8* align 8 %21, i64 8, i1 false)
  %22 = call i64 @_ZN9__gnu_cxxmiIPSt4pairINSt7__cxx1112basic_stringIcSt11char_traitsIcESaIcEEEiESt6vectorIS8_SaIS8_EEEENS_17__normal_iteratorIT_T0_E15difference_typeERKSG_SJ_(%"class.__gnu_cxx::__normal_iterator"* dereferenceable(8) %6, %"class.__gnu_cxx::__normal_iterator"* dereferenceable(8) %5) #3
  %23 = call dereferenceable(40) %"struct.std::pair"* @_ZSt4moveIRSt4pairINSt7__cxx1112basic_stringIcSt11char_traitsIcESaIcEEEiEEONSt16remove_referenceIT_E4typeEOSA_(%"struct.std::pair"* dereferenceable(40) %8) #3
  call void @_ZNSt4pairINSt7__cxx1112basic_stringIcSt11char_traitsIcESaIcEEEiEC2EOS6_(%"struct.std::pair"* %10, %"struct.std::pair"* dereferenceable(40) %23) #3
  %24 = getelementptr inbounds %"class.__gnu_cxx::__normal_iterator", %"class.__gnu_cxx::__normal_iterator"* %9, i32 0, i32 0
  %25 = load %"struct.std::pair"*, %"struct.std::pair"** %24, align 8
  invoke void @_ZSt13__adjust_heapIN9__gnu_cxx17__normal_iteratorIPSt4pairINSt7__cxx1112basic_stringIcSt11char_traitsIcESaIcEEEiESt6vectorIS9_SaIS9_EEEElS9_NS0_5__ops15_Iter_less_iterEEvT_T0_SI_T1_T2_(%"struct.std::pair"* %25, i64 0, i64 %22, %"struct.std::pair"* %10)
          to label %26 unwind label %27

26:                                               ; preds = %4
  call void @_ZNSt4pairINSt7__cxx1112basic_stringIcSt11char_traitsIcESaIcEEEiED2Ev(%"struct.std::pair"* %10) #3
  call void @_ZNSt4pairINSt7__cxx1112basic_stringIcSt11char_traitsIcESaIcEEEiED2Ev(%"struct.std::pair"* %8) #3
  ret void

27:                                               ; preds = %4
  %28 = landingpad { i8*, i32 }
          cleanup
  %29 = extractvalue { i8*, i32 } %28, 0
  %30 = extractvalue { i8*, i32 } %28, 1
  call void @_ZNSt4pairINSt7__cxx1112basic_stringIcSt11char_traitsIcESaIcEEEiED2Ev(%"struct.std::pair"* %10) #3
  call void @_ZNSt4pairINSt7__cxx1112basic_stringIcSt11char_traitsIcESaIcEEEiED2Ev(%"struct.std::pair"* %8) #3
  br label %31

31:                                               ; preds = %27
  %32 = insertvalue { i8*, i32 } undef, i8* %29, 0
  %33 = insertvalue { i8*, i32 } %32, i32 %30, 1
  resume { i8*, i32 } %33
}

; Function Attrs: noinline nounwind uwtable
define linkonce_odr dereferenceable(8) %"class.__gnu_cxx::__normal_iterator"* @_ZN9__gnu_cxx17__normal_iteratorIPSt4pairINSt7__cxx1112basic_stringIcSt11char_traitsIcESaIcEEEiESt6vectorIS8_SaIS8_EEEppEv(%"class.__gnu_cxx::__normal_iterator"* %0) #5 comdat align 2 {
  %2 = getelementptr inbounds %"class.__gnu_cxx::__normal_iterator", %"class.__gnu_cxx::__normal_iterator"* %0, i32 0, i32 0
  %3 = load %"struct.std::pair"*, %"struct.std::pair"** %2, align 8
  %4 = getelementptr inbounds %"struct.std::pair", %"struct.std::pair"* %3, i32 1
  store %"struct.std::pair"* %4, %"struct.std::pair"** %2, align 8
  ret %"class.__gnu_cxx::__normal_iterator"* %0
}

; Function Attrs: noinline nounwind uwtable
define linkonce_odr dereferenceable(40) %"struct.std::pair"* @_ZSt4moveIRSt4pairINSt7__cxx1112basic_stringIcSt11char_traitsIcESaIcEEEiEEONSt16remove_referenceIT_E4typeEOSA_(%"struct.std::pair"* dereferenceable(40) %0) #5 comdat {
  ret %"struct.std::pair"* %0
}

; Function Attrs: noinline nounwind uwtable
define linkonce_odr %"struct.std::pair"* @_ZNK9__gnu_cxx17__normal_iteratorIPSt4pairINSt7__cxx1112basic_stringIcSt11char_traitsIcESaIcEEEiESt6vectorIS8_SaIS8_EEEplEl(%"class.__gnu_cxx::__normal_iterator"* %0, i64 %1) #5 comdat align 2 {
  %3 = alloca %"class.__gnu_cxx::__normal_iterator", align 8
  %4 = alloca %"struct.std::pair"*, align 8
  %5 = getelementptr inbounds %"class.__gnu_cxx::__normal_iterator", %"class.__gnu_cxx::__normal_iterator"* %0, i32 0, i32 0
  %6 = load %"struct.std::pair"*, %"struct.std::pair"** %5, align 8
  %7 = getelementptr inbounds %"struct.std::pair", %"struct.std::pair"* %6, i64 %1
  store %"struct.std::pair"* %7, %"struct.std::pair"** %4, align 8
  call void @_ZN9__gnu_cxx17__normal_iteratorIPSt4pairINSt7__cxx1112basic_stringIcSt11char_traitsIcESaIcEEEiESt6vectorIS8_SaIS8_EEEC2ERKS9_(%"class.__gnu_cxx::__normal_iterator"* %3, %"struct.std::pair"** dereferenceable(8) %4) #3
  %8 = getelementptr inbounds %"class.__gnu_cxx::__normal_iterator", %"class.__gnu_cxx::__normal_iterator"* %3, i32 0, i32 0
  %9 = load %"struct.std::pair"*, %"struct.std::pair"** %8, align 8
  ret %"struct.std::pair"* %9
}

; Function Attrs: noinline nounwind uwtable
define linkonce_odr dereferenceable(40) %"struct.std::pair"* @_ZNK9__gnu_cxx17__normal_iteratorIPSt4pairINSt7__cxx1112basic_stringIcSt11char_traitsIcESaIcEEEiESt6vectorIS8_SaIS8_EEEdeEv(%"class.__gnu_cxx::__normal_iterator"* %0) #5 comdat align 2 {
  %2 = getelementptr inbounds %"class.__gnu_cxx::__normal_iterator", %"class.__gnu_cxx::__normal_iterator"* %0, i32 0, i32 0
  %3 = load %"struct.std::pair"*, %"struct.std::pair"** %2, align 8
  ret %"struct.std::pair"* %3
}

; Function Attrs: noinline nounwind uwtable
define linkonce_odr void @_ZNSt4pairINSt7__cxx1112basic_stringIcSt11char_traitsIcESaIcEEEiEC2EOS6_(%"struct.std::pair"* %0, %"struct.std::pair"* dereferenceable(40) %1) unnamed_addr #5 comdat align 2 {
  %3 = bitcast %"struct.std::pair"* %0 to %"class.std::__pair_base"*
  %4 = bitcast %"struct.std::pair"* %1 to %"class.std::__pair_base"*
  %5 = getelementptr inbounds %"struct.std::pair", %"struct.std::pair"* %0, i32 0, i32 0
  %6 = getelementptr inbounds %"struct.std::pair", %"struct.std::pair"* %1, i32 0, i32 0
  call void @_ZNSt7__cxx1112basic_stringIcSt11char_traitsIcESaIcEEC1EOS4_(%"class.std::__cxx11::basic_string"* %5, %"class.std::__cxx11::basic_string"* dereferenceable(32) %6) #3
  %7 = getelementptr inbounds %"struct.std::pair", %"struct.std::pair"* %0, i32 0, i32 1
  %8 = getelementptr inbounds %"struct.std::pair", %"struct.std::pair"* %1, i32 0, i32 1
  %9 = load i32, i32* %8, align 8
  store i32 %9, i32* %7, align 8
  ret void
}

; Function Attrs: noinline uwtable
define linkonce_odr void @_ZSt13__adjust_heapIN9__gnu_cxx17__normal_iteratorIPSt4pairINSt7__cxx1112basic_stringIcSt11char_traitsIcESaIcEEEiESt6vectorIS9_SaIS9_EEEElS9_NS0_5__ops15_Iter_less_iterEEvT_T0_SI_T1_T2_(%"struct.std::pair"* %0, i64 %1, i64 %2, %"struct.std::pair"* %3) #0 comdat personality i8* bitcast (i32 (...)* @__gxx_personality_v0 to i8*) {
  %5 = alloca %"class.__gnu_cxx::__normal_iterator", align 8
  %6 = alloca %"struct.__gnu_cxx::__ops::_Iter_less_iter", align 1
  %7 = alloca %"class.__gnu_cxx::__normal_iterator", align 8
  %8 = alloca %"class.__gnu_cxx::__normal_iterator", align 8
  %9 = alloca %"class.__gnu_cxx::__normal_iterator", align 8
  %10 = alloca %"class.__gnu_cxx::__normal_iterator", align 8
  %11 = alloca %"class.__gnu_cxx::__normal_iterator", align 8
  %12 = alloca %"class.__gnu_cxx::__normal_iterator", align 8
  %13 = alloca %"struct.__gnu_cxx::__ops::_Iter_less_val", align 1
  %14 = alloca %"class.__gnu_cxx::__normal_iterator", align 8
  %15 = alloca %"struct.std::pair", align 8
  %16 = getelementptr inbounds %"class.__gnu_cxx::__normal_iterator", %"class.__gnu_cxx::__normal_iterator"* %5, i32 0, i32 0
  store %"struct.std::pair"* %0, %"struct.std::pair"** %16, align 8
  br label %17

17:                                               ; preds = %36, %4
  %.01 = phi i64 [ %1, %4 ], [ %.12, %36 ]
  %.0 = phi i64 [ %1, %4 ], [ %.12, %36 ]
  %18 = sub nsw i64 %2, 1
  %19 = sdiv i64 %18, 2
  %20 = icmp slt i64 %.01, %19
  br i1 %20, label %21, label %45

21:                                               ; preds = %17
  %22 = add nsw i64 %.01, 1
  %23 = mul nsw i64 2, %22
  %24 = call %"struct.std::pair"* @_ZNK9__gnu_cxx17__normal_iteratorIPSt4pairINSt7__cxx1112basic_stringIcSt11char_traitsIcESaIcEEEiESt6vectorIS8_SaIS8_EEEplEl(%"class.__gnu_cxx::__normal_iterator"* %5, i64 %23) #3
  %25 = getelementptr inbounds %"class.__gnu_cxx::__normal_iterator", %"class.__gnu_cxx::__normal_iterator"* %7, i32 0, i32 0
  store %"struct.std::pair"* %24, %"struct.std::pair"** %25, align 8
  %26 = sub nsw i64 %23, 1
  %27 = call %"struct.std::pair"* @_ZNK9__gnu_cxx17__normal_iteratorIPSt4pairINSt7__cxx1112basic_stringIcSt11char_traitsIcESaIcEEEiESt6vectorIS8_SaIS8_EEEplEl(%"class.__gnu_cxx::__normal_iterator"* %5, i64 %26) #3
  %28 = getelementptr inbounds %"class.__gnu_cxx::__normal_iterator", %"class.__gnu_cxx::__normal_iterator"* %8, i32 0, i32 0
  store %"struct.std::pair"* %27, %"struct.std::pair"** %28, align 8
  %29 = getelementptr inbounds %"class.__gnu_cxx::__normal_iterator", %"class.__gnu_cxx::__normal_iterator"* %7, i32 0, i32 0
  %30 = load %"struct.std::pair"*, %"struct.std::pair"** %29, align 8
  %31 = getelementptr inbounds %"class.__gnu_cxx::__normal_iterator", %"class.__gnu_cxx::__normal_iterator"* %8, i32 0, i32 0
  %32 = load %"struct.std::pair"*, %"struct.std::pair"** %31, align 8
  %33 = call zeroext i1 @_ZNK9__gnu_cxx5__ops15_Iter_less_iterclINS_17__normal_iteratorIPSt4pairINSt7__cxx1112basic_stringIcSt11char_traitsIcESaIcEEEiESt6vectorISB_SaISB_EEEESG_EEbT_T0_(%"struct.__gnu_cxx::__ops::_Iter_less_iter"* %6, %"struct.std::pair"* %30, %"struct.std::pair"* %32)
  br i1 %33, label %34, label %36

34:                                               ; preds = %21
  %35 = add nsw i64 %23, -1
  br label %36

36:                                               ; preds = %34, %21
  %.12 = phi i64 [ %35, %34 ], [ %23, %21 ]
  %37 = call %"struct.std::pair"* @_ZNK9__gnu_cxx17__normal_iteratorIPSt4pairINSt7__cxx1112basic_stringIcSt11char_traitsIcESaIcEEEiESt6vectorIS8_SaIS8_EEEplEl(%"class.__gnu_cxx::__normal_iterator"* %5, i64 %.12) #3
  %38 = getelementptr inbounds %"class.__gnu_cxx::__normal_iterator", %"class.__gnu_cxx::__normal_iterator"* %9, i32 0, i32 0
  store %"struct.std::pair"* %37, %"struct.std::pair"** %38, align 8
  %39 = call dereferenceable(40) %"struct.std::pair"* @_ZNK9__gnu_cxx17__normal_iteratorIPSt4pairINSt7__cxx1112basic_stringIcSt11char_traitsIcESaIcEEEiESt6vectorIS8_SaIS8_EEEdeEv(%"class.__gnu_cxx::__normal_iterator"* %9) #3
  %40 = call dereferenceable(40) %"struct.std::pair"* @_ZSt4moveIRSt4pairINSt7__cxx1112basic_stringIcSt11char_traitsIcESaIcEEEiEEONSt16remove_referenceIT_E4typeEOSA_(%"struct.std::pair"* dereferenceable(40) %39) #3
  %41 = call %"struct.std::pair"* @_ZNK9__gnu_cxx17__normal_iteratorIPSt4pairINSt7__cxx1112basic_stringIcSt11char_traitsIcESaIcEEEiESt6vectorIS8_SaIS8_EEEplEl(%"class.__gnu_cxx::__normal_iterator"* %5, i64 %.0) #3
  %42 = getelementptr inbounds %"class.__gnu_cxx::__normal_iterator", %"class.__gnu_cxx::__normal_iterator"* %10, i32 0, i32 0
  store %"struct.std::pair"* %41, %"struct.std::pair"** %42, align 8
  %43 = call dereferenceable(40) %"struct.std::pair"* @_ZNK9__gnu_cxx17__normal_iteratorIPSt4pairINSt7__cxx1112basic_stringIcSt11char_traitsIcESaIcEEEiESt6vectorIS8_SaIS8_EEEdeEv(%"class.__gnu_cxx::__normal_iterator"* %10) #3
  %44 = call dereferenceable(40) %"struct.std::pair"* @_ZNSt4pairINSt7__cxx1112basic_stringIcSt11char_traitsIcESaIcEEEiEaSEOS6_(%"struct.std::pair"* %43, %"struct.std::pair"* dereferenceable(40) %40) #3
  br label %17

45:                                               ; preds = %17
  %46 = and i64 %2, 1
  %47 = icmp eq i64 %46, 0
  br i1 %47, label %48, label %65

48:                                               ; preds = %45
  %49 = sub nsw i64 %2, 2
  %50 = sdiv i64 %49, 2
  %51 = icmp eq i64 %.01, %50
  br i1 %51, label %52, label %65

52:                                               ; preds = %48
  %53 = add nsw i64 %.01, 1
  %54 = mul nsw i64 2, %53
  %55 = sub nsw i64 %54, 1
  %56 = call %"struct.std::pair"* @_ZNK9__gnu_cxx17__normal_iteratorIPSt4pairINSt7__cxx1112basic_stringIcSt11char_traitsIcESaIcEEEiESt6vectorIS8_SaIS8_EEEplEl(%"class.__gnu_cxx::__normal_iterator"* %5, i64 %55) #3
  %57 = getelementptr inbounds %"class.__gnu_cxx::__normal_iterator", %"class.__gnu_cxx::__normal_iterator"* %11, i32 0, i32 0
  store %"struct.std::pair"* %56, %"struct.std::pair"** %57, align 8
  %58 = call dereferenceable(40) %"struct.std::pair"* @_ZNK9__gnu_cxx17__normal_iteratorIPSt4pairINSt7__cxx1112basic_stringIcSt11char_traitsIcESaIcEEEiESt6vectorIS8_SaIS8_EEEdeEv(%"class.__gnu_cxx::__normal_iterator"* %11) #3
  %59 = call dereferenceable(40) %"struct.std::pair"* @_ZSt4moveIRSt4pairINSt7__cxx1112basic_stringIcSt11char_traitsIcESaIcEEEiEEONSt16remove_referenceIT_E4typeEOSA_(%"struct.std::pair"* dereferenceable(40) %58) #3
  %60 = call %"struct.std::pair"* @_ZNK9__gnu_cxx17__normal_iteratorIPSt4pairINSt7__cxx1112basic_stringIcSt11char_traitsIcESaIcEEEiESt6vectorIS8_SaIS8_EEEplEl(%"class.__gnu_cxx::__normal_iterator"* %5, i64 %.0) #3
  %61 = getelementptr inbounds %"class.__gnu_cxx::__normal_iterator", %"class.__gnu_cxx::__normal_iterator"* %12, i32 0, i32 0
  store %"struct.std::pair"* %60, %"struct.std::pair"** %61, align 8
  %62 = call dereferenceable(40) %"struct.std::pair"* @_ZNK9__gnu_cxx17__normal_iteratorIPSt4pairINSt7__cxx1112basic_stringIcSt11char_traitsIcESaIcEEEiESt6vectorIS8_SaIS8_EEEdeEv(%"class.__gnu_cxx::__normal_iterator"* %12) #3
  %63 = call dereferenceable(40) %"struct.std::pair"* @_ZNSt4pairINSt7__cxx1112basic_stringIcSt11char_traitsIcESaIcEEEiEaSEOS6_(%"struct.std::pair"* %62, %"struct.std::pair"* dereferenceable(40) %59) #3
  %64 = sub nsw i64 %54, 1
  br label %65

65:                                               ; preds = %52, %48, %45
  %.1 = phi i64 [ %64, %52 ], [ %.0, %48 ], [ %.0, %45 ]
  %66 = call dereferenceable(1) %"struct.__gnu_cxx::__ops::_Iter_less_iter"* @_ZSt4moveIRN9__gnu_cxx5__ops15_Iter_less_iterEEONSt16remove_referenceIT_E4typeEOS5_(%"struct.__gnu_cxx::__ops::_Iter_less_iter"* dereferenceable(1) %6) #3
  call void @_ZN9__gnu_cxx5__ops14_Iter_less_valC2ENS0_15_Iter_less_iterE(%"struct.__gnu_cxx::__ops::_Iter_less_val"* %13)
  %67 = bitcast %"class.__gnu_cxx::__normal_iterator"* %14 to i8*
  %68 = bitcast %"class.__gnu_cxx::__normal_iterator"* %5 to i8*
  call void @llvm.memcpy.p0i8.p0i8.i64(i8* align 8 %67, i8* align 8 %68, i64 8, i1 false)
  %69 = call dereferenceable(40) %"struct.std::pair"* @_ZSt4moveIRSt4pairINSt7__cxx1112basic_stringIcSt11char_traitsIcESaIcEEEiEEONSt16remove_referenceIT_E4typeEOSA_(%"struct.std::pair"* dereferenceable(40) %3) #3
  call void @_ZNSt4pairINSt7__cxx1112basic_stringIcSt11char_traitsIcESaIcEEEiEC2EOS6_(%"struct.std::pair"* %15, %"struct.std::pair"* dereferenceable(40) %69) #3
  %70 = getelementptr inbounds %"class.__gnu_cxx::__normal_iterator", %"class.__gnu_cxx::__normal_iterator"* %14, i32 0, i32 0
  %71 = load %"struct.std::pair"*, %"struct.std::pair"** %70, align 8
  invoke void @_ZSt11__push_heapIN9__gnu_cxx17__normal_iteratorIPSt4pairINSt7__cxx1112basic_stringIcSt11char_traitsIcESaIcEEEiESt6vectorIS9_SaIS9_EEEElS9_NS0_5__ops14_Iter_less_valEEvT_T0_SI_T1_RT2_(%"struct.std::pair"* %71, i64 %.1, i64 %1, %"struct.std::pair"* %15, %"struct.__gnu_cxx::__ops::_Iter_less_val"* dereferenceable(1) %13)
          to label %72 unwind label %73

72:                                               ; preds = %65
  call void @_ZNSt4pairINSt7__cxx1112basic_stringIcSt11char_traitsIcESaIcEEEiED2Ev(%"struct.std::pair"* %15) #3
  ret void

73:                                               ; preds = %65
  %74 = landingpad { i8*, i32 }
          cleanup
  %75 = extractvalue { i8*, i32 } %74, 0
  %76 = extractvalue { i8*, i32 } %74, 1
  call void @_ZNSt4pairINSt7__cxx1112basic_stringIcSt11char_traitsIcESaIcEEEiED2Ev(%"struct.std::pair"* %15) #3
  br label %77

77:                                               ; preds = %73
  %78 = insertvalue { i8*, i32 } undef, i8* %75, 0
  %79 = insertvalue { i8*, i32 } %78, i32 %76, 1
  resume { i8*, i32 } %79
}

; Function Attrs: nounwind
declare void @_ZNSt7__cxx1112basic_stringIcSt11char_traitsIcESaIcEEC1EOS4_(%"class.std::__cxx11::basic_string"*, %"class.std::__cxx11::basic_string"* dereferenceable(32)) unnamed_addr #2

; Function Attrs: noinline nounwind uwtable
define linkonce_odr dereferenceable(40) %"struct.std::pair"* @_ZNSt4pairINSt7__cxx1112basic_stringIcSt11char_traitsIcESaIcEEEiEaSEOS6_(%"struct.std::pair"* %0, %"struct.std::pair"* dereferenceable(40) %1) #5 comdat align 2 {
  %3 = getelementptr inbounds %"struct.std::pair", %"struct.std::pair"* %1, i32 0, i32 0
  %4 = call dereferenceable(32) %"class.std::__cxx11::basic_string"* @_ZSt7forwardINSt7__cxx1112basic_stringIcSt11char_traitsIcESaIcEEEEOT_RNSt16remove_referenceIS6_E4typeE(%"class.std::__cxx11::basic_string"* dereferenceable(32) %3) #3
  %5 = getelementptr inbounds %"struct.std::pair", %"struct.std::pair"* %0, i32 0, i32 0
  %6 = call dereferenceable(32) %"class.std::__cxx11::basic_string"* @_ZNSt7__cxx1112basic_stringIcSt11char_traitsIcESaIcEEaSEOS4_(%"class.std::__cxx11::basic_string"* %5, %"class.std::__cxx11::basic_string"* dereferenceable(32) %4) #3
  %7 = getelementptr inbounds %"struct.std::pair", %"struct.std::pair"* %1, i32 0, i32 1
  %8 = call dereferenceable(4) i32* @_ZSt7forwardIiEOT_RNSt16remove_referenceIS0_E4typeE(i32* dereferenceable(4) %7) #3
  %9 = load i32, i32* %8, align 4
  %10 = getelementptr inbounds %"struct.std::pair", %"struct.std::pair"* %0, i32 0, i32 1
  store i32 %9, i32* %10, align 8
  ret %"struct.std::pair"* %0
}

; Function Attrs: noinline nounwind uwtable
define linkonce_odr dereferenceable(1) %"struct.__gnu_cxx::__ops::_Iter_less_iter"* @_ZSt4moveIRN9__gnu_cxx5__ops15_Iter_less_iterEEONSt16remove_referenceIT_E4typeEOS5_(%"struct.__gnu_cxx::__ops::_Iter_less_iter"* dereferenceable(1) %0) #5 comdat {
  ret %"struct.__gnu_cxx::__ops::_Iter_less_iter"* %0
}

; Function Attrs: noinline nounwind uwtable
define linkonce_odr void @_ZN9__gnu_cxx5__ops14_Iter_less_valC2ENS0_15_Iter_less_iterE(%"struct.__gnu_cxx::__ops::_Iter_less_val"* %0) unnamed_addr #5 comdat align 2 {
  ret void
}

; Function Attrs: noinline uwtable
define linkonce_odr void @_ZSt11__push_heapIN9__gnu_cxx17__normal_iteratorIPSt4pairINSt7__cxx1112basic_stringIcSt11char_traitsIcESaIcEEEiESt6vectorIS9_SaIS9_EEEElS9_NS0_5__ops14_Iter_less_valEEvT_T0_SI_T1_RT2_(%"struct.std::pair"* %0, i64 %1, i64 %2, %"struct.std::pair"* %3, %"struct.__gnu_cxx::__ops::_Iter_less_val"* dereferenceable(1) %4) #0 comdat {
  %6 = alloca %"class.__gnu_cxx::__normal_iterator", align 8
  %7 = alloca %"class.__gnu_cxx::__normal_iterator", align 8
  %8 = alloca %"class.__gnu_cxx::__normal_iterator", align 8
  %9 = alloca %"class.__gnu_cxx::__normal_iterator", align 8
  %10 = alloca %"class.__gnu_cxx::__normal_iterator", align 8
  %11 = getelementptr inbounds %"class.__gnu_cxx::__normal_iterator", %"class.__gnu_cxx::__normal_iterator"* %6, i32 0, i32 0
  store %"struct.std::pair"* %0, %"struct.std::pair"** %11, align 8
  %12 = sub nsw i64 %1, 1
  %13 = sdiv i64 %12, 2
  br label %14

14:                                               ; preds = %24, %5
  %.01 = phi i64 [ %13, %5 ], [ %34, %24 ]
  %.0 = phi i64 [ %1, %5 ], [ %.01, %24 ]
  %15 = icmp sgt i64 %.0, %2
  br i1 %15, label %16, label %22

16:                                               ; preds = %14
  %17 = call %"struct.std::pair"* @_ZNK9__gnu_cxx17__normal_iteratorIPSt4pairINSt7__cxx1112basic_stringIcSt11char_traitsIcESaIcEEEiESt6vectorIS8_SaIS8_EEEplEl(%"class.__gnu_cxx::__normal_iterator"* %6, i64 %.01) #3
  %18 = getelementptr inbounds %"class.__gnu_cxx::__normal_iterator", %"class.__gnu_cxx::__normal_iterator"* %7, i32 0, i32 0
  store %"struct.std::pair"* %17, %"struct.std::pair"** %18, align 8
  %19 = getelementptr inbounds %"class.__gnu_cxx::__normal_iterator", %"class.__gnu_cxx::__normal_iterator"* %7, i32 0, i32 0
  %20 = load %"struct.std::pair"*, %"struct.std::pair"** %19, align 8
  %21 = call zeroext i1 @_ZNK9__gnu_cxx5__ops14_Iter_less_valclINS_17__normal_iteratorIPSt4pairINSt7__cxx1112basic_stringIcSt11char_traitsIcESaIcEEEiESt6vectorISB_SaISB_EEEESB_EEbT_RT0_(%"struct.__gnu_cxx::__ops::_Iter_less_val"* %4, %"struct.std::pair"* %20, %"struct.std::pair"* dereferenceable(40) %3)
  br label %22

22:                                               ; preds = %16, %14
  %23 = phi i1 [ false, %14 ], [ %21, %16 ]
  br i1 %23, label %24, label %35

24:                                               ; preds = %22
  %25 = call %"struct.std::pair"* @_ZNK9__gnu_cxx17__normal_iteratorIPSt4pairINSt7__cxx1112basic_stringIcSt11char_traitsIcESaIcEEEiESt6vectorIS8_SaIS8_EEEplEl(%"class.__gnu_cxx::__normal_iterator"* %6, i64 %.01) #3
  %26 = getelementptr inbounds %"class.__gnu_cxx::__normal_iterator", %"class.__gnu_cxx::__normal_iterator"* %8, i32 0, i32 0
  store %"struct.std::pair"* %25, %"struct.std::pair"** %26, align 8
  %27 = call dereferenceable(40) %"struct.std::pair"* @_ZNK9__gnu_cxx17__normal_iteratorIPSt4pairINSt7__cxx1112basic_stringIcSt11char_traitsIcESaIcEEEiESt6vectorIS8_SaIS8_EEEdeEv(%"class.__gnu_cxx::__normal_iterator"* %8) #3
  %28 = call dereferenceable(40) %"struct.std::pair"* @_ZSt4moveIRSt4pairINSt7__cxx1112basic_stringIcSt11char_traitsIcESaIcEEEiEEONSt16remove_referenceIT_E4typeEOSA_(%"struct.std::pair"* dereferenceable(40) %27) #3
  %29 = call %"struct.std::pair"* @_ZNK9__gnu_cxx17__normal_iteratorIPSt4pairINSt7__cxx1112basic_stringIcSt11char_traitsIcESaIcEEEiESt6vectorIS8_SaIS8_EEEplEl(%"class.__gnu_cxx::__normal_iterator"* %6, i64 %.0) #3
  %30 = getelementptr inbounds %"class.__gnu_cxx::__normal_iterator", %"class.__gnu_cxx::__normal_iterator"* %9, i32 0, i32 0
  store %"struct.std::pair"* %29, %"struct.std::pair"** %30, align 8
  %31 = call dereferenceable(40) %"struct.std::pair"* @_ZNK9__gnu_cxx17__normal_iteratorIPSt4pairINSt7__cxx1112basic_stringIcSt11char_traitsIcESaIcEEEiESt6vectorIS8_SaIS8_EEEdeEv(%"class.__gnu_cxx::__normal_iterator"* %9) #3
  %32 = call dereferenceable(40) %"struct.std::pair"* @_ZNSt4pairINSt7__cxx1112basic_stringIcSt11char_traitsIcESaIcEEEiEaSEOS6_(%"struct.std::pair"* %31, %"struct.std::pair"* dereferenceable(40) %28) #3
  %33 = sub nsw i64 %.01, 1
  %34 = sdiv i64 %33, 2
  br label %14

35:                                               ; preds = %22
  %36 = call dereferenceable(40) %"struct.std::pair"* @_ZSt4moveIRSt4pairINSt7__cxx1112basic_stringIcSt11char_traitsIcESaIcEEEiEEONSt16remove_referenceIT_E4typeEOSA_(%"struct.std::pair"* dereferenceable(40) %3) #3
  %37 = call %"struct.std::pair"* @_ZNK9__gnu_cxx17__normal_iteratorIPSt4pairINSt7__cxx1112basic_stringIcSt11char_traitsIcESaIcEEEiESt6vectorIS8_SaIS8_EEEplEl(%"class.__gnu_cxx::__normal_iterator"* %6, i64 %.0) #3
  %38 = getelementptr inbounds %"class.__gnu_cxx::__normal_iterator", %"class.__gnu_cxx::__normal_iterator"* %10, i32 0, i32 0
  store %"struct.std::pair"* %37, %"struct.std::pair"** %38, align 8
  %39 = call dereferenceable(40) %"struct.std::pair"* @_ZNK9__gnu_cxx17__normal_iteratorIPSt4pairINSt7__cxx1112basic_stringIcSt11char_traitsIcESaIcEEEiESt6vectorIS8_SaIS8_EEEdeEv(%"class.__gnu_cxx::__normal_iterator"* %10) #3
  %40 = call dereferenceable(40) %"struct.std::pair"* @_ZNSt4pairINSt7__cxx1112basic_stringIcSt11char_traitsIcESaIcEEEiEaSEOS6_(%"struct.std::pair"* %39, %"struct.std::pair"* dereferenceable(40) %36) #3
  ret void
}

; Function Attrs: noinline nounwind uwtable
define linkonce_odr dereferenceable(32) %"class.std::__cxx11::basic_string"* @_ZSt7forwardINSt7__cxx1112basic_stringIcSt11char_traitsIcESaIcEEEEOT_RNSt16remove_referenceIS6_E4typeE(%"class.std::__cxx11::basic_string"* dereferenceable(32) %0) #5 comdat {
  ret %"class.std::__cxx11::basic_string"* %0
}

; Function Attrs: nounwind
declare dereferenceable(32) %"class.std::__cxx11::basic_string"* @_ZNSt7__cxx1112basic_stringIcSt11char_traitsIcESaIcEEaSEOS4_(%"class.std::__cxx11::basic_string"*, %"class.std::__cxx11::basic_string"* dereferenceable(32)) #2

; Function Attrs: noinline nounwind uwtable
define linkonce_odr dereferenceable(4) i32* @_ZSt7forwardIiEOT_RNSt16remove_referenceIS0_E4typeE(i32* dereferenceable(4) %0) #5 comdat {
  ret i32* %0
}

; Function Attrs: noinline uwtable
define linkonce_odr zeroext i1 @_ZNK9__gnu_cxx5__ops14_Iter_less_valclINS_17__normal_iteratorIPSt4pairINSt7__cxx1112basic_stringIcSt11char_traitsIcESaIcEEEiESt6vectorISB_SaISB_EEEESB_EEbT_RT0_(%"struct.__gnu_cxx::__ops::_Iter_less_val"* %0, %"struct.std::pair"* %1, %"struct.std::pair"* dereferenceable(40) %2) #0 comdat align 2 {
  %4 = alloca %"class.__gnu_cxx::__normal_iterator", align 8
  %5 = getelementptr inbounds %"class.__gnu_cxx::__normal_iterator", %"class.__gnu_cxx::__normal_iterator"* %4, i32 0, i32 0
  store %"struct.std::pair"* %1, %"struct.std::pair"** %5, align 8
  %6 = call dereferenceable(40) %"struct.std::pair"* @_ZNK9__gnu_cxx17__normal_iteratorIPSt4pairINSt7__cxx1112basic_stringIcSt11char_traitsIcESaIcEEEiESt6vectorIS8_SaIS8_EEEdeEv(%"class.__gnu_cxx::__normal_iterator"* %4) #3
  %7 = call zeroext i1 @_ZStltINSt7__cxx1112basic_stringIcSt11char_traitsIcESaIcEEEiEbRKSt4pairIT_T0_ESB_(%"struct.std::pair"* dereferenceable(40) %6, %"struct.std::pair"* dereferenceable(40) %2)
  ret i1 %7
}

; Function Attrs: noinline nounwind uwtable
define linkonce_odr zeroext i1 @_ZStltINSt7__cxx1112basic_stringIcSt11char_traitsIcESaIcEEEiEbRKSt4pairIT_T0_ESB_(%"struct.std::pair"* dereferenceable(40) %0, %"struct.std::pair"* dereferenceable(40) %1) #5 comdat {
  %3 = getelementptr inbounds %"struct.std::pair", %"struct.std::pair"* %0, i32 0, i32 0
  %4 = getelementptr inbounds %"struct.std::pair", %"struct.std::pair"* %1, i32 0, i32 0
  %5 = call zeroext i1 @_ZStltIcSt11char_traitsIcESaIcEEbRKNSt7__cxx1112basic_stringIT_T0_T1_EESA_(%"class.std::__cxx11::basic_string"* dereferenceable(32) %3, %"class.std::__cxx11::basic_string"* dereferenceable(32) %4) #3
  br i1 %5, label %18, label %6

6:                                                ; preds = %2
  %7 = getelementptr inbounds %"struct.std::pair", %"struct.std::pair"* %1, i32 0, i32 0
  %8 = getelementptr inbounds %"struct.std::pair", %"struct.std::pair"* %0, i32 0, i32 0
  %9 = call zeroext i1 @_ZStltIcSt11char_traitsIcESaIcEEbRKNSt7__cxx1112basic_stringIT_T0_T1_EESA_(%"class.std::__cxx11::basic_string"* dereferenceable(32) %7, %"class.std::__cxx11::basic_string"* dereferenceable(32) %8) #3
  br i1 %9, label %16, label %10

10:                                               ; preds = %6
  %11 = getelementptr inbounds %"struct.std::pair", %"struct.std::pair"* %0, i32 0, i32 1
  %12 = load i32, i32* %11, align 8
  %13 = getelementptr inbounds %"struct.std::pair", %"struct.std::pair"* %1, i32 0, i32 1
  %14 = load i32, i32* %13, align 8
  %15 = icmp slt i32 %12, %14
  br label %16

16:                                               ; preds = %10, %6
  %17 = phi i1 [ false, %6 ], [ %15, %10 ]
  br label %18

18:                                               ; preds = %16, %2
  %19 = phi i1 [ true, %2 ], [ %17, %16 ]
  ret i1 %19
}

; Function Attrs: noinline nounwind uwtable
define linkonce_odr zeroext i1 @_ZStltIcSt11char_traitsIcESaIcEEbRKNSt7__cxx1112basic_stringIT_T0_T1_EESA_(%"class.std::__cxx11::basic_string"* dereferenceable(32) %0, %"class.std::__cxx11::basic_string"* dereferenceable(32) %1) #5 comdat personality i8* bitcast (i32 (...)* @__gxx_personality_v0 to i8*) {
  %3 = invoke i32 @_ZNKSt7__cxx1112basic_stringIcSt11char_traitsIcESaIcEE7compareERKS4_(%"class.std::__cxx11::basic_string"* %0, %"class.std::__cxx11::basic_string"* dereferenceable(32) %1)
          to label %4 unwind label %6

4:                                                ; preds = %2
  %5 = icmp slt i32 %3, 0
  ret i1 %5

6:                                                ; preds = %2
  %7 = landingpad { i8*, i32 }
          catch i8* null
  %8 = extractvalue { i8*, i32 } %7, 0
  call void @__clang_call_terminate(i8* %8) #13
  unreachable
}

declare i32 @_ZNKSt7__cxx1112basic_stringIcSt11char_traitsIcESaIcEE7compareERKS4_(%"class.std::__cxx11::basic_string"*, %"class.std::__cxx11::basic_string"* dereferenceable(32)) #1

; Function Attrs: noinline nounwind uwtable
define linkonce_odr dereferenceable(8) %"class.__gnu_cxx::__normal_iterator"* @_ZN9__gnu_cxx17__normal_iteratorIPSt4pairINSt7__cxx1112basic_stringIcSt11char_traitsIcESaIcEEEiESt6vectorIS8_SaIS8_EEEmmEv(%"class.__gnu_cxx::__normal_iterator"* %0) #5 comdat align 2 {
  %2 = getelementptr inbounds %"class.__gnu_cxx::__normal_iterator", %"class.__gnu_cxx::__normal_iterator"* %0, i32 0, i32 0
  %3 = load %"struct.std::pair"*, %"struct.std::pair"** %2, align 8
  %4 = getelementptr inbounds %"struct.std::pair", %"struct.std::pair"* %3, i32 -1
  store %"struct.std::pair"* %4, %"struct.std::pair"** %2, align 8
  ret %"class.__gnu_cxx::__normal_iterator"* %0
}

; Function Attrs: noinline uwtable
define linkonce_odr void @_ZSt22__move_median_to_firstIN9__gnu_cxx17__normal_iteratorIPSt4pairINSt7__cxx1112basic_stringIcSt11char_traitsIcESaIcEEEiESt6vectorIS9_SaIS9_EEEENS0_5__ops15_Iter_less_iterEEvT_SH_SH_SH_T0_(%"struct.std::pair"* %0, %"struct.std::pair"* %1, %"struct.std::pair"* %2, %"struct.std::pair"* %3) #0 comdat {
  %5 = alloca %"class.__gnu_cxx::__normal_iterator", align 8
  %6 = alloca %"class.__gnu_cxx::__normal_iterator", align 8
  %7 = alloca %"class.__gnu_cxx::__normal_iterator", align 8
  %8 = alloca %"class.__gnu_cxx::__normal_iterator", align 8
  %9 = alloca %"struct.__gnu_cxx::__ops::_Iter_less_iter", align 1
  %10 = alloca %"class.__gnu_cxx::__normal_iterator", align 8
  %11 = alloca %"class.__gnu_cxx::__normal_iterator", align 8
  %12 = alloca %"class.__gnu_cxx::__normal_iterator", align 8
  %13 = alloca %"class.__gnu_cxx::__normal_iterator", align 8
  %14 = alloca %"class.__gnu_cxx::__normal_iterator", align 8
  %15 = alloca %"class.__gnu_cxx::__normal_iterator", align 8
  %16 = alloca %"class.__gnu_cxx::__normal_iterator", align 8
  %17 = alloca %"class.__gnu_cxx::__normal_iterator", align 8
  %18 = alloca %"class.__gnu_cxx::__normal_iterator", align 8
  %19 = alloca %"class.__gnu_cxx::__normal_iterator", align 8
  %20 = alloca %"class.__gnu_cxx::__normal_iterator", align 8
  %21 = alloca %"class.__gnu_cxx::__normal_iterator", align 8
  %22 = alloca %"class.__gnu_cxx::__normal_iterator", align 8
  %23 = alloca %"class.__gnu_cxx::__normal_iterator", align 8
  %24 = alloca %"class.__gnu_cxx::__normal_iterator", align 8
  %25 = alloca %"class.__gnu_cxx::__normal_iterator", align 8
  %26 = alloca %"class.__gnu_cxx::__normal_iterator", align 8
  %27 = alloca %"class.__gnu_cxx::__normal_iterator", align 8
  %28 = alloca %"class.__gnu_cxx::__normal_iterator", align 8
  %29 = alloca %"class.__gnu_cxx::__normal_iterator", align 8
  %30 = alloca %"class.__gnu_cxx::__normal_iterator", align 8
  %31 = alloca %"class.__gnu_cxx::__normal_iterator", align 8
  %32 = getelementptr inbounds %"class.__gnu_cxx::__normal_iterator", %"class.__gnu_cxx::__normal_iterator"* %5, i32 0, i32 0
  store %"struct.std::pair"* %0, %"struct.std::pair"** %32, align 8
  %33 = getelementptr inbounds %"class.__gnu_cxx::__normal_iterator", %"class.__gnu_cxx::__normal_iterator"* %6, i32 0, i32 0
  store %"struct.std::pair"* %1, %"struct.std::pair"** %33, align 8
  %34 = getelementptr inbounds %"class.__gnu_cxx::__normal_iterator", %"class.__gnu_cxx::__normal_iterator"* %7, i32 0, i32 0
  store %"struct.std::pair"* %2, %"struct.std::pair"** %34, align 8
  %35 = getelementptr inbounds %"class.__gnu_cxx::__normal_iterator", %"class.__gnu_cxx::__normal_iterator"* %8, i32 0, i32 0
  store %"struct.std::pair"* %3, %"struct.std::pair"** %35, align 8
  %36 = bitcast %"class.__gnu_cxx::__normal_iterator"* %10 to i8*
  %37 = bitcast %"class.__gnu_cxx::__normal_iterator"* %6 to i8*
  call void @llvm.memcpy.p0i8.p0i8.i64(i8* align 8 %36, i8* align 8 %37, i64 8, i1 false)
  %38 = bitcast %"class.__gnu_cxx::__normal_iterator"* %11 to i8*
  %39 = bitcast %"class.__gnu_cxx::__normal_iterator"* %7 to i8*
  call void @llvm.memcpy.p0i8.p0i8.i64(i8* align 8 %38, i8* align 8 %39, i64 8, i1 false)
  %40 = getelementptr inbounds %"class.__gnu_cxx::__normal_iterator", %"class.__gnu_cxx::__normal_iterator"* %10, i32 0, i32 0
  %41 = load %"struct.std::pair"*, %"struct.std::pair"** %40, align 8
  %42 = getelementptr inbounds %"class.__gnu_cxx::__normal_iterator", %"class.__gnu_cxx::__normal_iterator"* %11, i32 0, i32 0
  %43 = load %"struct.std::pair"*, %"struct.std::pair"** %42, align 8
  %44 = call zeroext i1 @_ZNK9__gnu_cxx5__ops15_Iter_less_iterclINS_17__normal_iteratorIPSt4pairINSt7__cxx1112basic_stringIcSt11char_traitsIcESaIcEEEiESt6vectorISB_SaISB_EEEESG_EEbT_T0_(%"struct.__gnu_cxx::__ops::_Iter_less_iter"* %9, %"struct.std::pair"* %41, %"struct.std::pair"* %43)
  br i1 %44, label %45, label %94

45:                                               ; preds = %4
  %46 = bitcast %"class.__gnu_cxx::__normal_iterator"* %12 to i8*
  %47 = bitcast %"class.__gnu_cxx::__normal_iterator"* %7 to i8*
  call void @llvm.memcpy.p0i8.p0i8.i64(i8* align 8 %46, i8* align 8 %47, i64 8, i1 false)
  %48 = bitcast %"class.__gnu_cxx::__normal_iterator"* %13 to i8*
  %49 = bitcast %"class.__gnu_cxx::__normal_iterator"* %8 to i8*
  call void @llvm.memcpy.p0i8.p0i8.i64(i8* align 8 %48, i8* align 8 %49, i64 8, i1 false)
  %50 = getelementptr inbounds %"class.__gnu_cxx::__normal_iterator", %"class.__gnu_cxx::__normal_iterator"* %12, i32 0, i32 0
  %51 = load %"struct.std::pair"*, %"struct.std::pair"** %50, align 8
  %52 = getelementptr inbounds %"class.__gnu_cxx::__normal_iterator", %"class.__gnu_cxx::__normal_iterator"* %13, i32 0, i32 0
  %53 = load %"struct.std::pair"*, %"struct.std::pair"** %52, align 8
  %54 = call zeroext i1 @_ZNK9__gnu_cxx5__ops15_Iter_less_iterclINS_17__normal_iteratorIPSt4pairINSt7__cxx1112basic_stringIcSt11char_traitsIcESaIcEEEiESt6vectorISB_SaISB_EEEESG_EEbT_T0_(%"struct.__gnu_cxx::__ops::_Iter_less_iter"* %9, %"struct.std::pair"* %51, %"struct.std::pair"* %53)
  br i1 %54, label %55, label %64

55:                                               ; preds = %45
  %56 = bitcast %"class.__gnu_cxx::__normal_iterator"* %14 to i8*
  %57 = bitcast %"class.__gnu_cxx::__normal_iterator"* %5 to i8*
  call void @llvm.memcpy.p0i8.p0i8.i64(i8* align 8 %56, i8* align 8 %57, i64 8, i1 false)
  %58 = bitcast %"class.__gnu_cxx::__normal_iterator"* %15 to i8*
  %59 = bitcast %"class.__gnu_cxx::__normal_iterator"* %7 to i8*
  call void @llvm.memcpy.p0i8.p0i8.i64(i8* align 8 %58, i8* align 8 %59, i64 8, i1 false)
  %60 = getelementptr inbounds %"class.__gnu_cxx::__normal_iterator", %"class.__gnu_cxx::__normal_iterator"* %14, i32 0, i32 0
  %61 = load %"struct.std::pair"*, %"struct.std::pair"** %60, align 8
  %62 = getelementptr inbounds %"class.__gnu_cxx::__normal_iterator", %"class.__gnu_cxx::__normal_iterator"* %15, i32 0, i32 0
  %63 = load %"struct.std::pair"*, %"struct.std::pair"** %62, align 8
  call void @_ZSt9iter_swapIN9__gnu_cxx17__normal_iteratorIPSt4pairINSt7__cxx1112basic_stringIcSt11char_traitsIcESaIcEEEiESt6vectorIS9_SaIS9_EEEESE_EvT_T0_(%"struct.std::pair"* %61, %"struct.std::pair"* %63)
  br label %93

64:                                               ; preds = %45
  %65 = bitcast %"class.__gnu_cxx::__normal_iterator"* %16 to i8*
  %66 = bitcast %"class.__gnu_cxx::__normal_iterator"* %6 to i8*
  call void @llvm.memcpy.p0i8.p0i8.i64(i8* align 8 %65, i8* align 8 %66, i64 8, i1 false)
  %67 = bitcast %"class.__gnu_cxx::__normal_iterator"* %17 to i8*
  %68 = bitcast %"class.__gnu_cxx::__normal_iterator"* %8 to i8*
  call void @llvm.memcpy.p0i8.p0i8.i64(i8* align 8 %67, i8* align 8 %68, i64 8, i1 false)
  %69 = getelementptr inbounds %"class.__gnu_cxx::__normal_iterator", %"class.__gnu_cxx::__normal_iterator"* %16, i32 0, i32 0
  %70 = load %"struct.std::pair"*, %"struct.std::pair"** %69, align 8
  %71 = getelementptr inbounds %"class.__gnu_cxx::__normal_iterator", %"class.__gnu_cxx::__normal_iterator"* %17, i32 0, i32 0
  %72 = load %"struct.std::pair"*, %"struct.std::pair"** %71, align 8
  %73 = call zeroext i1 @_ZNK9__gnu_cxx5__ops15_Iter_less_iterclINS_17__normal_iteratorIPSt4pairINSt7__cxx1112basic_stringIcSt11char_traitsIcESaIcEEEiESt6vectorISB_SaISB_EEEESG_EEbT_T0_(%"struct.__gnu_cxx::__ops::_Iter_less_iter"* %9, %"struct.std::pair"* %70, %"struct.std::pair"* %72)
  br i1 %73, label %74, label %83

74:                                               ; preds = %64
  %75 = bitcast %"class.__gnu_cxx::__normal_iterator"* %18 to i8*
  %76 = bitcast %"class.__gnu_cxx::__normal_iterator"* %5 to i8*
  call void @llvm.memcpy.p0i8.p0i8.i64(i8* align 8 %75, i8* align 8 %76, i64 8, i1 false)
  %77 = bitcast %"class.__gnu_cxx::__normal_iterator"* %19 to i8*
  %78 = bitcast %"class.__gnu_cxx::__normal_iterator"* %8 to i8*
  call void @llvm.memcpy.p0i8.p0i8.i64(i8* align 8 %77, i8* align 8 %78, i64 8, i1 false)
  %79 = getelementptr inbounds %"class.__gnu_cxx::__normal_iterator", %"class.__gnu_cxx::__normal_iterator"* %18, i32 0, i32 0
  %80 = load %"struct.std::pair"*, %"struct.std::pair"** %79, align 8
  %81 = getelementptr inbounds %"class.__gnu_cxx::__normal_iterator", %"class.__gnu_cxx::__normal_iterator"* %19, i32 0, i32 0
  %82 = load %"struct.std::pair"*, %"struct.std::pair"** %81, align 8
  call void @_ZSt9iter_swapIN9__gnu_cxx17__normal_iteratorIPSt4pairINSt7__cxx1112basic_stringIcSt11char_traitsIcESaIcEEEiESt6vectorIS9_SaIS9_EEEESE_EvT_T0_(%"struct.std::pair"* %80, %"struct.std::pair"* %82)
  br label %92

83:                                               ; preds = %64
  %84 = bitcast %"class.__gnu_cxx::__normal_iterator"* %20 to i8*
  %85 = bitcast %"class.__gnu_cxx::__normal_iterator"* %5 to i8*
  call void @llvm.memcpy.p0i8.p0i8.i64(i8* align 8 %84, i8* align 8 %85, i64 8, i1 false)
  %86 = bitcast %"class.__gnu_cxx::__normal_iterator"* %21 to i8*
  %87 = bitcast %"class.__gnu_cxx::__normal_iterator"* %6 to i8*
  call void @llvm.memcpy.p0i8.p0i8.i64(i8* align 8 %86, i8* align 8 %87, i64 8, i1 false)
  %88 = getelementptr inbounds %"class.__gnu_cxx::__normal_iterator", %"class.__gnu_cxx::__normal_iterator"* %20, i32 0, i32 0
  %89 = load %"struct.std::pair"*, %"struct.std::pair"** %88, align 8
  %90 = getelementptr inbounds %"class.__gnu_cxx::__normal_iterator", %"class.__gnu_cxx::__normal_iterator"* %21, i32 0, i32 0
  %91 = load %"struct.std::pair"*, %"struct.std::pair"** %90, align 8
  call void @_ZSt9iter_swapIN9__gnu_cxx17__normal_iteratorIPSt4pairINSt7__cxx1112basic_stringIcSt11char_traitsIcESaIcEEEiESt6vectorIS9_SaIS9_EEEESE_EvT_T0_(%"struct.std::pair"* %89, %"struct.std::pair"* %91)
  br label %92

92:                                               ; preds = %83, %74
  br label %93

93:                                               ; preds = %92, %55
  br label %143

94:                                               ; preds = %4
  %95 = bitcast %"class.__gnu_cxx::__normal_iterator"* %22 to i8*
  %96 = bitcast %"class.__gnu_cxx::__normal_iterator"* %6 to i8*
  call void @llvm.memcpy.p0i8.p0i8.i64(i8* align 8 %95, i8* align 8 %96, i64 8, i1 false)
  %97 = bitcast %"class.__gnu_cxx::__normal_iterator"* %23 to i8*
  %98 = bitcast %"class.__gnu_cxx::__normal_iterator"* %8 to i8*
  call void @llvm.memcpy.p0i8.p0i8.i64(i8* align 8 %97, i8* align 8 %98, i64 8, i1 false)
  %99 = getelementptr inbounds %"class.__gnu_cxx::__normal_iterator", %"class.__gnu_cxx::__normal_iterator"* %22, i32 0, i32 0
  %100 = load %"struct.std::pair"*, %"struct.std::pair"** %99, align 8
  %101 = getelementptr inbounds %"class.__gnu_cxx::__normal_iterator", %"class.__gnu_cxx::__normal_iterator"* %23, i32 0, i32 0
  %102 = load %"struct.std::pair"*, %"struct.std::pair"** %101, align 8
  %103 = call zeroext i1 @_ZNK9__gnu_cxx5__ops15_Iter_less_iterclINS_17__normal_iteratorIPSt4pairINSt7__cxx1112basic_stringIcSt11char_traitsIcESaIcEEEiESt6vectorISB_SaISB_EEEESG_EEbT_T0_(%"struct.__gnu_cxx::__ops::_Iter_less_iter"* %9, %"struct.std::pair"* %100, %"struct.std::pair"* %102)
  br i1 %103, label %104, label %113

104:                                              ; preds = %94
  %105 = bitcast %"class.__gnu_cxx::__normal_iterator"* %24 to i8*
  %106 = bitcast %"class.__gnu_cxx::__normal_iterator"* %5 to i8*
  call void @llvm.memcpy.p0i8.p0i8.i64(i8* align 8 %105, i8* align 8 %106, i64 8, i1 false)
  %107 = bitcast %"class.__gnu_cxx::__normal_iterator"* %25 to i8*
  %108 = bitcast %"class.__gnu_cxx::__normal_iterator"* %6 to i8*
  call void @llvm.memcpy.p0i8.p0i8.i64(i8* align 8 %107, i8* align 8 %108, i64 8, i1 false)
  %109 = getelementptr inbounds %"class.__gnu_cxx::__normal_iterator", %"class.__gnu_cxx::__normal_iterator"* %24, i32 0, i32 0
  %110 = load %"struct.std::pair"*, %"struct.std::pair"** %109, align 8
  %111 = getelementptr inbounds %"class.__gnu_cxx::__normal_iterator", %"class.__gnu_cxx::__normal_iterator"* %25, i32 0, i32 0
  %112 = load %"struct.std::pair"*, %"struct.std::pair"** %111, align 8
  call void @_ZSt9iter_swapIN9__gnu_cxx17__normal_iteratorIPSt4pairINSt7__cxx1112basic_stringIcSt11char_traitsIcESaIcEEEiESt6vectorIS9_SaIS9_EEEESE_EvT_T0_(%"struct.std::pair"* %110, %"struct.std::pair"* %112)
  br label %142

113:                                              ; preds = %94
  %114 = bitcast %"class.__gnu_cxx::__normal_iterator"* %26 to i8*
  %115 = bitcast %"class.__gnu_cxx::__normal_iterator"* %7 to i8*
  call void @llvm.memcpy.p0i8.p0i8.i64(i8* align 8 %114, i8* align 8 %115, i64 8, i1 false)
  %116 = bitcast %"class.__gnu_cxx::__normal_iterator"* %27 to i8*
  %117 = bitcast %"class.__gnu_cxx::__normal_iterator"* %8 to i8*
  call void @llvm.memcpy.p0i8.p0i8.i64(i8* align 8 %116, i8* align 8 %117, i64 8, i1 false)
  %118 = getelementptr inbounds %"class.__gnu_cxx::__normal_iterator", %"class.__gnu_cxx::__normal_iterator"* %26, i32 0, i32 0
  %119 = load %"struct.std::pair"*, %"struct.std::pair"** %118, align 8
  %120 = getelementptr inbounds %"class.__gnu_cxx::__normal_iterator", %"class.__gnu_cxx::__normal_iterator"* %27, i32 0, i32 0
  %121 = load %"struct.std::pair"*, %"struct.std::pair"** %120, align 8
  %122 = call zeroext i1 @_ZNK9__gnu_cxx5__ops15_Iter_less_iterclINS_17__normal_iteratorIPSt4pairINSt7__cxx1112basic_stringIcSt11char_traitsIcESaIcEEEiESt6vectorISB_SaISB_EEEESG_EEbT_T0_(%"struct.__gnu_cxx::__ops::_Iter_less_iter"* %9, %"struct.std::pair"* %119, %"struct.std::pair"* %121)
  br i1 %122, label %123, label %132

123:                                              ; preds = %113
  %124 = bitcast %"class.__gnu_cxx::__normal_iterator"* %28 to i8*
  %125 = bitcast %"class.__gnu_cxx::__normal_iterator"* %5 to i8*
  call void @llvm.memcpy.p0i8.p0i8.i64(i8* align 8 %124, i8* align 8 %125, i64 8, i1 false)
  %126 = bitcast %"class.__gnu_cxx::__normal_iterator"* %29 to i8*
  %127 = bitcast %"class.__gnu_cxx::__normal_iterator"* %8 to i8*
  call void @llvm.memcpy.p0i8.p0i8.i64(i8* align 8 %126, i8* align 8 %127, i64 8, i1 false)
  %128 = getelementptr inbounds %"class.__gnu_cxx::__normal_iterator", %"class.__gnu_cxx::__normal_iterator"* %28, i32 0, i32 0
  %129 = load %"struct.std::pair"*, %"struct.std::pair"** %128, align 8
  %130 = getelementptr inbounds %"class.__gnu_cxx::__normal_iterator", %"class.__gnu_cxx::__normal_iterator"* %29, i32 0, i32 0
  %131 = load %"struct.std::pair"*, %"struct.std::pair"** %130, align 8
  call void @_ZSt9iter_swapIN9__gnu_cxx17__normal_iteratorIPSt4pairINSt7__cxx1112basic_stringIcSt11char_traitsIcESaIcEEEiESt6vectorIS9_SaIS9_EEEESE_EvT_T0_(%"struct.std::pair"* %129, %"struct.std::pair"* %131)
  br label %141

132:                                              ; preds = %113
  %133 = bitcast %"class.__gnu_cxx::__normal_iterator"* %30 to i8*
  %134 = bitcast %"class.__gnu_cxx::__normal_iterator"* %5 to i8*
  call void @llvm.memcpy.p0i8.p0i8.i64(i8* align 8 %133, i8* align 8 %134, i64 8, i1 false)
  %135 = bitcast %"class.__gnu_cxx::__normal_iterator"* %31 to i8*
  %136 = bitcast %"class.__gnu_cxx::__normal_iterator"* %7 to i8*
  call void @llvm.memcpy.p0i8.p0i8.i64(i8* align 8 %135, i8* align 8 %136, i64 8, i1 false)
  %137 = getelementptr inbounds %"class.__gnu_cxx::__normal_iterator", %"class.__gnu_cxx::__normal_iterator"* %30, i32 0, i32 0
  %138 = load %"struct.std::pair"*, %"struct.std::pair"** %137, align 8
  %139 = getelementptr inbounds %"class.__gnu_cxx::__normal_iterator", %"class.__gnu_cxx::__normal_iterator"* %31, i32 0, i32 0
  %140 = load %"struct.std::pair"*, %"struct.std::pair"** %139, align 8
  call void @_ZSt9iter_swapIN9__gnu_cxx17__normal_iteratorIPSt4pairINSt7__cxx1112basic_stringIcSt11char_traitsIcESaIcEEEiESt6vectorIS9_SaIS9_EEEESE_EvT_T0_(%"struct.std::pair"* %138, %"struct.std::pair"* %140)
  br label %141

141:                                              ; preds = %132, %123
  br label %142

142:                                              ; preds = %141, %104
  br label %143

143:                                              ; preds = %142, %93
  ret void
}

; Function Attrs: noinline nounwind uwtable
define linkonce_odr %"struct.std::pair"* @_ZNK9__gnu_cxx17__normal_iteratorIPSt4pairINSt7__cxx1112basic_stringIcSt11char_traitsIcESaIcEEEiESt6vectorIS8_SaIS8_EEEmiEl(%"class.__gnu_cxx::__normal_iterator"* %0, i64 %1) #5 comdat align 2 {
  %3 = alloca %"class.__gnu_cxx::__normal_iterator", align 8
  %4 = alloca %"struct.std::pair"*, align 8
  %5 = getelementptr inbounds %"class.__gnu_cxx::__normal_iterator", %"class.__gnu_cxx::__normal_iterator"* %0, i32 0, i32 0
  %6 = load %"struct.std::pair"*, %"struct.std::pair"** %5, align 8
  %7 = sub i64 0, %1
  %8 = getelementptr inbounds %"struct.std::pair", %"struct.std::pair"* %6, i64 %7
  store %"struct.std::pair"* %8, %"struct.std::pair"** %4, align 8
  call void @_ZN9__gnu_cxx17__normal_iteratorIPSt4pairINSt7__cxx1112basic_stringIcSt11char_traitsIcESaIcEEEiESt6vectorIS8_SaIS8_EEEC2ERKS9_(%"class.__gnu_cxx::__normal_iterator"* %3, %"struct.std::pair"** dereferenceable(8) %4) #3
  %9 = getelementptr inbounds %"class.__gnu_cxx::__normal_iterator", %"class.__gnu_cxx::__normal_iterator"* %3, i32 0, i32 0
  %10 = load %"struct.std::pair"*, %"struct.std::pair"** %9, align 8
  ret %"struct.std::pair"* %10
}

; Function Attrs: noinline nounwind uwtable
define linkonce_odr %"struct.std::pair"* @_ZSt21__unguarded_partitionIN9__gnu_cxx17__normal_iteratorIPSt4pairINSt7__cxx1112basic_stringIcSt11char_traitsIcESaIcEEEiESt6vectorIS9_SaIS9_EEEENS0_5__ops15_Iter_less_iterEET_SH_SH_SH_T0_(%"struct.std::pair"* %0, %"struct.std::pair"* %1, %"struct.std::pair"* %2) #5 comdat {
  %4 = alloca %"class.__gnu_cxx::__normal_iterator", align 8
  %5 = alloca %"class.__gnu_cxx::__normal_iterator", align 8
  %6 = alloca %"class.__gnu_cxx::__normal_iterator", align 8
  %7 = alloca %"class.__gnu_cxx::__normal_iterator", align 8
  %8 = alloca %"struct.__gnu_cxx::__ops::_Iter_less_iter", align 1
  %9 = alloca %"class.__gnu_cxx::__normal_iterator", align 8
  %10 = alloca %"class.__gnu_cxx::__normal_iterator", align 8
  %11 = alloca %"class.__gnu_cxx::__normal_iterator", align 8
  %12 = alloca %"class.__gnu_cxx::__normal_iterator", align 8
  %13 = alloca %"class.__gnu_cxx::__normal_iterator", align 8
  %14 = alloca %"class.__gnu_cxx::__normal_iterator", align 8
  %15 = getelementptr inbounds %"class.__gnu_cxx::__normal_iterator", %"class.__gnu_cxx::__normal_iterator"* %5, i32 0, i32 0
  store %"struct.std::pair"* %0, %"struct.std::pair"** %15, align 8
  %16 = getelementptr inbounds %"class.__gnu_cxx::__normal_iterator", %"class.__gnu_cxx::__normal_iterator"* %6, i32 0, i32 0
  store %"struct.std::pair"* %1, %"struct.std::pair"** %16, align 8
  %17 = getelementptr inbounds %"class.__gnu_cxx::__normal_iterator", %"class.__gnu_cxx::__normal_iterator"* %7, i32 0, i32 0
  store %"struct.std::pair"* %2, %"struct.std::pair"** %17, align 8
  br label %18

18:                                               ; preds = %52, %3
  br label %19

19:                                               ; preds = %29, %18
  %20 = bitcast %"class.__gnu_cxx::__normal_iterator"* %9 to i8*
  %21 = bitcast %"class.__gnu_cxx::__normal_iterator"* %5 to i8*
  call void @llvm.memcpy.p0i8.p0i8.i64(i8* align 8 %20, i8* align 8 %21, i64 8, i1 false)
  %22 = bitcast %"class.__gnu_cxx::__normal_iterator"* %10 to i8*
  %23 = bitcast %"class.__gnu_cxx::__normal_iterator"* %7 to i8*
  call void @llvm.memcpy.p0i8.p0i8.i64(i8* align 8 %22, i8* align 8 %23, i64 8, i1 false)
  %24 = getelementptr inbounds %"class.__gnu_cxx::__normal_iterator", %"class.__gnu_cxx::__normal_iterator"* %9, i32 0, i32 0
  %25 = load %"struct.std::pair"*, %"struct.std::pair"** %24, align 8
  %26 = getelementptr inbounds %"class.__gnu_cxx::__normal_iterator", %"class.__gnu_cxx::__normal_iterator"* %10, i32 0, i32 0
  %27 = load %"struct.std::pair"*, %"struct.std::pair"** %26, align 8
  %28 = call zeroext i1 @_ZNK9__gnu_cxx5__ops15_Iter_less_iterclINS_17__normal_iteratorIPSt4pairINSt7__cxx1112basic_stringIcSt11char_traitsIcESaIcEEEiESt6vectorISB_SaISB_EEEESG_EEbT_T0_(%"struct.__gnu_cxx::__ops::_Iter_less_iter"* %8, %"struct.std::pair"* %25, %"struct.std::pair"* %27)
  br i1 %28, label %29, label %31

29:                                               ; preds = %19
  %30 = call dereferenceable(8) %"class.__gnu_cxx::__normal_iterator"* @_ZN9__gnu_cxx17__normal_iteratorIPSt4pairINSt7__cxx1112basic_stringIcSt11char_traitsIcESaIcEEEiESt6vectorIS8_SaIS8_EEEppEv(%"class.__gnu_cxx::__normal_iterator"* %5) #3
  br label %19

31:                                               ; preds = %19
  %32 = call dereferenceable(8) %"class.__gnu_cxx::__normal_iterator"* @_ZN9__gnu_cxx17__normal_iteratorIPSt4pairINSt7__cxx1112basic_stringIcSt11char_traitsIcESaIcEEEiESt6vectorIS8_SaIS8_EEEmmEv(%"class.__gnu_cxx::__normal_iterator"* %6) #3
  br label %33

33:                                               ; preds = %43, %31
  %34 = bitcast %"class.__gnu_cxx::__normal_iterator"* %11 to i8*
  %35 = bitcast %"class.__gnu_cxx::__normal_iterator"* %7 to i8*
  call void @llvm.memcpy.p0i8.p0i8.i64(i8* align 8 %34, i8* align 8 %35, i64 8, i1 false)
  %36 = bitcast %"class.__gnu_cxx::__normal_iterator"* %12 to i8*
  %37 = bitcast %"class.__gnu_cxx::__normal_iterator"* %6 to i8*
  call void @llvm.memcpy.p0i8.p0i8.i64(i8* align 8 %36, i8* align 8 %37, i64 8, i1 false)
  %38 = getelementptr inbounds %"class.__gnu_cxx::__normal_iterator", %"class.__gnu_cxx::__normal_iterator"* %11, i32 0, i32 0
  %39 = load %"struct.std::pair"*, %"struct.std::pair"** %38, align 8
  %40 = getelementptr inbounds %"class.__gnu_cxx::__normal_iterator", %"class.__gnu_cxx::__normal_iterator"* %12, i32 0, i32 0
  %41 = load %"struct.std::pair"*, %"struct.std::pair"** %40, align 8
  %42 = call zeroext i1 @_ZNK9__gnu_cxx5__ops15_Iter_less_iterclINS_17__normal_iteratorIPSt4pairINSt7__cxx1112basic_stringIcSt11char_traitsIcESaIcEEEiESt6vectorISB_SaISB_EEEESG_EEbT_T0_(%"struct.__gnu_cxx::__ops::_Iter_less_iter"* %8, %"struct.std::pair"* %39, %"struct.std::pair"* %41)
  br i1 %42, label %43, label %45

43:                                               ; preds = %33
  %44 = call dereferenceable(8) %"class.__gnu_cxx::__normal_iterator"* @_ZN9__gnu_cxx17__normal_iteratorIPSt4pairINSt7__cxx1112basic_stringIcSt11char_traitsIcESaIcEEEiESt6vectorIS8_SaIS8_EEEmmEv(%"class.__gnu_cxx::__normal_iterator"* %6) #3
  br label %33

45:                                               ; preds = %33
  %46 = call zeroext i1 @_ZN9__gnu_cxxltIPSt4pairINSt7__cxx1112basic_stringIcSt11char_traitsIcESaIcEEEiESt6vectorIS8_SaIS8_EEEEbRKNS_17__normal_iteratorIT_T0_EESI_(%"class.__gnu_cxx::__normal_iterator"* dereferenceable(8) %5, %"class.__gnu_cxx::__normal_iterator"* dereferenceable(8) %6) #3
  br i1 %46, label %52, label %47

47:                                               ; preds = %45
  %48 = bitcast %"class.__gnu_cxx::__normal_iterator"* %4 to i8*
  %49 = bitcast %"class.__gnu_cxx::__normal_iterator"* %5 to i8*
  call void @llvm.memcpy.p0i8.p0i8.i64(i8* align 8 %48, i8* align 8 %49, i64 8, i1 false)
  %50 = getelementptr inbounds %"class.__gnu_cxx::__normal_iterator", %"class.__gnu_cxx::__normal_iterator"* %4, i32 0, i32 0
  %51 = load %"struct.std::pair"*, %"struct.std::pair"** %50, align 8
  ret %"struct.std::pair"* %51

52:                                               ; preds = %45
  %53 = bitcast %"class.__gnu_cxx::__normal_iterator"* %13 to i8*
  %54 = bitcast %"class.__gnu_cxx::__normal_iterator"* %5 to i8*
  call void @llvm.memcpy.p0i8.p0i8.i64(i8* align 8 %53, i8* align 8 %54, i64 8, i1 false)
  %55 = bitcast %"class.__gnu_cxx::__normal_iterator"* %14 to i8*
  %56 = bitcast %"class.__gnu_cxx::__normal_iterator"* %6 to i8*
  call void @llvm.memcpy.p0i8.p0i8.i64(i8* align 8 %55, i8* align 8 %56, i64 8, i1 false)
  %57 = getelementptr inbounds %"class.__gnu_cxx::__normal_iterator", %"class.__gnu_cxx::__normal_iterator"* %13, i32 0, i32 0
  %58 = load %"struct.std::pair"*, %"struct.std::pair"** %57, align 8
  %59 = getelementptr inbounds %"class.__gnu_cxx::__normal_iterator", %"class.__gnu_cxx::__normal_iterator"* %14, i32 0, i32 0
  %60 = load %"struct.std::pair"*, %"struct.std::pair"** %59, align 8
  call void @_ZSt9iter_swapIN9__gnu_cxx17__normal_iteratorIPSt4pairINSt7__cxx1112basic_stringIcSt11char_traitsIcESaIcEEEiESt6vectorIS9_SaIS9_EEEESE_EvT_T0_(%"struct.std::pair"* %58, %"struct.std::pair"* %60)
  %61 = call dereferenceable(8) %"class.__gnu_cxx::__normal_iterator"* @_ZN9__gnu_cxx17__normal_iteratorIPSt4pairINSt7__cxx1112basic_stringIcSt11char_traitsIcESaIcEEEiESt6vectorIS8_SaIS8_EEEppEv(%"class.__gnu_cxx::__normal_iterator"* %5) #3
  br label %18
}

; Function Attrs: noinline nounwind uwtable
define linkonce_odr void @_ZSt9iter_swapIN9__gnu_cxx17__normal_iteratorIPSt4pairINSt7__cxx1112basic_stringIcSt11char_traitsIcESaIcEEEiESt6vectorIS9_SaIS9_EEEESE_EvT_T0_(%"struct.std::pair"* %0, %"struct.std::pair"* %1) #5 comdat {
  %3 = alloca %"class.__gnu_cxx::__normal_iterator", align 8
  %4 = alloca %"class.__gnu_cxx::__normal_iterator", align 8
  %5 = getelementptr inbounds %"class.__gnu_cxx::__normal_iterator", %"class.__gnu_cxx::__normal_iterator"* %3, i32 0, i32 0
  store %"struct.std::pair"* %0, %"struct.std::pair"** %5, align 8
  %6 = getelementptr inbounds %"class.__gnu_cxx::__normal_iterator", %"class.__gnu_cxx::__normal_iterator"* %4, i32 0, i32 0
  store %"struct.std::pair"* %1, %"struct.std::pair"** %6, align 8
  %7 = call dereferenceable(40) %"struct.std::pair"* @_ZNK9__gnu_cxx17__normal_iteratorIPSt4pairINSt7__cxx1112basic_stringIcSt11char_traitsIcESaIcEEEiESt6vectorIS8_SaIS8_EEEdeEv(%"class.__gnu_cxx::__normal_iterator"* %3) #3
  %8 = call dereferenceable(40) %"struct.std::pair"* @_ZNK9__gnu_cxx17__normal_iteratorIPSt4pairINSt7__cxx1112basic_stringIcSt11char_traitsIcESaIcEEEiESt6vectorIS8_SaIS8_EEEdeEv(%"class.__gnu_cxx::__normal_iterator"* %4) #3
  call void @_ZSt4swapINSt7__cxx1112basic_stringIcSt11char_traitsIcESaIcEEEiENSt9enable_ifIXsr6__and_ISt14__is_swappableIT_ES7_IT0_EEE5valueEvE4typeERSt4pairIS8_SA_ESG_(%"struct.std::pair"* dereferenceable(40) %7, %"struct.std::pair"* dereferenceable(40) %8) #3
  ret void
}

; Function Attrs: noinline nounwind uwtable
define linkonce_odr void @_ZSt4swapINSt7__cxx1112basic_stringIcSt11char_traitsIcESaIcEEEiENSt9enable_ifIXsr6__and_ISt14__is_swappableIT_ES7_IT0_EEE5valueEvE4typeERSt4pairIS8_SA_ESG_(%"struct.std::pair"* dereferenceable(40) %0, %"struct.std::pair"* dereferenceable(40) %1) #5 comdat {
  call void @_ZNSt4pairINSt7__cxx1112basic_stringIcSt11char_traitsIcESaIcEEEiE4swapERS6_(%"struct.std::pair"* %0, %"struct.std::pair"* dereferenceable(40) %1) #3
  ret void
}

; Function Attrs: noinline nounwind uwtable
define linkonce_odr void @_ZNSt4pairINSt7__cxx1112basic_stringIcSt11char_traitsIcESaIcEEEiE4swapERS6_(%"struct.std::pair"* %0, %"struct.std::pair"* dereferenceable(40) %1) #5 comdat align 2 {
  %3 = getelementptr inbounds %"struct.std::pair", %"struct.std::pair"* %0, i32 0, i32 0
  %4 = getelementptr inbounds %"struct.std::pair", %"struct.std::pair"* %1, i32 0, i32 0
  call void @_ZSt4swapIcSt11char_traitsIcESaIcEEvRNSt7__cxx1112basic_stringIT_T0_T1_EES9_(%"class.std::__cxx11::basic_string"* dereferenceable(32) %3, %"class.std::__cxx11::basic_string"* dereferenceable(32) %4) #3
  %5 = getelementptr inbounds %"struct.std::pair", %"struct.std::pair"* %0, i32 0, i32 1
  %6 = getelementptr inbounds %"struct.std::pair", %"struct.std::pair"* %1, i32 0, i32 1
  call void @_ZSt4swapIiENSt9enable_ifIXsr6__and_ISt6__not_ISt15__is_tuple_likeIT_EESt21is_move_constructibleIS3_ESt18is_move_assignableIS3_EEE5valueEvE4typeERS3_SC_(i32* dereferenceable(4) %5, i32* dereferenceable(4) %6) #3
  ret void
}

; Function Attrs: noinline nounwind uwtable
define linkonce_odr void @_ZSt4swapIcSt11char_traitsIcESaIcEEvRNSt7__cxx1112basic_stringIT_T0_T1_EES9_(%"class.std::__cxx11::basic_string"* dereferenceable(32) %0, %"class.std::__cxx11::basic_string"* dereferenceable(32) %1) #5 comdat {
  call void @_ZNSt7__cxx1112basic_stringIcSt11char_traitsIcESaIcEE4swapERS4_(%"class.std::__cxx11::basic_string"* %0, %"class.std::__cxx11::basic_string"* dereferenceable(32) %1) #3
  ret void
}

; Function Attrs: noinline nounwind uwtable
define linkonce_odr void @_ZSt4swapIiENSt9enable_ifIXsr6__and_ISt6__not_ISt15__is_tuple_likeIT_EESt21is_move_constructibleIS3_ESt18is_move_assignableIS3_EEE5valueEvE4typeERS3_SC_(i32* dereferenceable(4) %0, i32* dereferenceable(4) %1) #5 comdat {
  %3 = alloca i32, align 4
  %4 = call dereferenceable(4) i32* @_ZSt4moveIRiEONSt16remove_referenceIT_E4typeEOS2_(i32* dereferenceable(4) %0) #3
  %5 = load i32, i32* %4, align 4
  store i32 %5, i32* %3, align 4
  %6 = call dereferenceable(4) i32* @_ZSt4moveIRiEONSt16remove_referenceIT_E4typeEOS2_(i32* dereferenceable(4) %1) #3
  %7 = load i32, i32* %6, align 4
  store i32 %7, i32* %0, align 4
  %8 = call dereferenceable(4) i32* @_ZSt4moveIRiEONSt16remove_referenceIT_E4typeEOS2_(i32* dereferenceable(4) %3) #3
  %9 = load i32, i32* %8, align 4
  store i32 %9, i32* %1, align 4
  ret void
}

; Function Attrs: nounwind
declare void @_ZNSt7__cxx1112basic_stringIcSt11char_traitsIcESaIcEE4swapERS4_(%"class.std::__cxx11::basic_string"*, %"class.std::__cxx11::basic_string"* dereferenceable(32)) #2

; Function Attrs: noinline nounwind uwtable
define linkonce_odr dereferenceable(4) i32* @_ZSt4moveIRiEONSt16remove_referenceIT_E4typeEOS2_(i32* dereferenceable(4) %0) #5 comdat {
  ret i32* %0
}

; Function Attrs: nocallback nofree nosync nounwind readnone speculatable willreturn
declare i64 @llvm.ctlz.i64(i64, i1 immarg) #11

; Function Attrs: noinline uwtable
define linkonce_odr void @_ZSt16__insertion_sortIN9__gnu_cxx17__normal_iteratorIPSt4pairINSt7__cxx1112basic_stringIcSt11char_traitsIcESaIcEEEiESt6vectorIS9_SaIS9_EEEENS0_5__ops15_Iter_less_iterEEvT_SH_T0_(%"struct.std::pair"* %0, %"struct.std::pair"* %1) #0 comdat personality i8* bitcast (i32 (...)* @__gxx_personality_v0 to i8*) {
  %3 = alloca %"class.__gnu_cxx::__normal_iterator", align 8
  %4 = alloca %"class.__gnu_cxx::__normal_iterator", align 8
  %5 = alloca %"struct.__gnu_cxx::__ops::_Iter_less_iter", align 1
  %6 = alloca %"class.__gnu_cxx::__normal_iterator", align 8
  %7 = alloca %"class.__gnu_cxx::__normal_iterator", align 8
  %8 = alloca %"class.__gnu_cxx::__normal_iterator", align 8
  %9 = alloca %"struct.std::pair", align 8
  %10 = alloca %"class.__gnu_cxx::__normal_iterator", align 8
  %11 = alloca %"class.__gnu_cxx::__normal_iterator", align 8
  %12 = alloca %"class.__gnu_cxx::__normal_iterator", align 8
  %13 = alloca %"class.__gnu_cxx::__normal_iterator", align 8
  %14 = alloca %"class.__gnu_cxx::__normal_iterator", align 8
  %15 = getelementptr inbounds %"class.__gnu_cxx::__normal_iterator", %"class.__gnu_cxx::__normal_iterator"* %3, i32 0, i32 0
  store %"struct.std::pair"* %0, %"struct.std::pair"** %15, align 8
  %16 = getelementptr inbounds %"class.__gnu_cxx::__normal_iterator", %"class.__gnu_cxx::__normal_iterator"* %4, i32 0, i32 0
  store %"struct.std::pair"* %1, %"struct.std::pair"** %16, align 8
  %17 = call zeroext i1 @_ZN9__gnu_cxxeqIPSt4pairINSt7__cxx1112basic_stringIcSt11char_traitsIcESaIcEEEiESt6vectorIS8_SaIS8_EEEEbRKNS_17__normal_iteratorIT_T0_EESI_(%"class.__gnu_cxx::__normal_iterator"* dereferenceable(8) %3, %"class.__gnu_cxx::__normal_iterator"* dereferenceable(8) %4) #3
  br i1 %17, label %18, label %19

18:                                               ; preds = %2
  br label %67

19:                                               ; preds = %2
  %20 = call %"struct.std::pair"* @_ZNK9__gnu_cxx17__normal_iteratorIPSt4pairINSt7__cxx1112basic_stringIcSt11char_traitsIcESaIcEEEiESt6vectorIS8_SaIS8_EEEplEl(%"class.__gnu_cxx::__normal_iterator"* %3, i64 1) #3
  %21 = getelementptr inbounds %"class.__gnu_cxx::__normal_iterator", %"class.__gnu_cxx::__normal_iterator"* %6, i32 0, i32 0
  store %"struct.std::pair"* %20, %"struct.std::pair"** %21, align 8
  br label %22

22:                                               ; preds = %65, %19
  %23 = call zeroext i1 @_ZN9__gnu_cxxneIPSt4pairINSt7__cxx1112basic_stringIcSt11char_traitsIcESaIcEEEiESt6vectorIS8_SaIS8_EEEEbRKNS_17__normal_iteratorIT_T0_EESI_(%"class.__gnu_cxx::__normal_iterator"* dereferenceable(8) %6, %"class.__gnu_cxx::__normal_iterator"* dereferenceable(8) %4) #3
  br i1 %23, label %24, label %67

24:                                               ; preds = %22
  %25 = bitcast %"class.__gnu_cxx::__normal_iterator"* %7 to i8*
  %26 = bitcast %"class.__gnu_cxx::__normal_iterator"* %6 to i8*
  call void @llvm.memcpy.p0i8.p0i8.i64(i8* align 8 %25, i8* align 8 %26, i64 8, i1 false)
  %27 = bitcast %"class.__gnu_cxx::__normal_iterator"* %8 to i8*
  %28 = bitcast %"class.__gnu_cxx::__normal_iterator"* %3 to i8*
  call void @llvm.memcpy.p0i8.p0i8.i64(i8* align 8 %27, i8* align 8 %28, i64 8, i1 false)
  %29 = getelementptr inbounds %"class.__gnu_cxx::__normal_iterator", %"class.__gnu_cxx::__normal_iterator"* %7, i32 0, i32 0
  %30 = load %"struct.std::pair"*, %"struct.std::pair"** %29, align 8
  %31 = getelementptr inbounds %"class.__gnu_cxx::__normal_iterator", %"class.__gnu_cxx::__normal_iterator"* %8, i32 0, i32 0
  %32 = load %"struct.std::pair"*, %"struct.std::pair"** %31, align 8
  %33 = call zeroext i1 @_ZNK9__gnu_cxx5__ops15_Iter_less_iterclINS_17__normal_iteratorIPSt4pairINSt7__cxx1112basic_stringIcSt11char_traitsIcESaIcEEEiESt6vectorISB_SaISB_EEEESG_EEbT_T0_(%"struct.__gnu_cxx::__ops::_Iter_less_iter"* %5, %"struct.std::pair"* %30, %"struct.std::pair"* %32)
  br i1 %33, label %34, label %59

34:                                               ; preds = %24
  %35 = call dereferenceable(40) %"struct.std::pair"* @_ZNK9__gnu_cxx17__normal_iteratorIPSt4pairINSt7__cxx1112basic_stringIcSt11char_traitsIcESaIcEEEiESt6vectorIS8_SaIS8_EEEdeEv(%"class.__gnu_cxx::__normal_iterator"* %6) #3
  %36 = call dereferenceable(40) %"struct.std::pair"* @_ZSt4moveIRSt4pairINSt7__cxx1112basic_stringIcSt11char_traitsIcESaIcEEEiEEONSt16remove_referenceIT_E4typeEOSA_(%"struct.std::pair"* dereferenceable(40) %35) #3
  call void @_ZNSt4pairINSt7__cxx1112basic_stringIcSt11char_traitsIcESaIcEEEiEC2EOS6_(%"struct.std::pair"* %9, %"struct.std::pair"* dereferenceable(40) %36) #3
  %37 = bitcast %"class.__gnu_cxx::__normal_iterator"* %10 to i8*
  %38 = bitcast %"class.__gnu_cxx::__normal_iterator"* %3 to i8*
  call void @llvm.memcpy.p0i8.p0i8.i64(i8* align 8 %37, i8* align 8 %38, i64 8, i1 false)
  %39 = bitcast %"class.__gnu_cxx::__normal_iterator"* %11 to i8*
  %40 = bitcast %"class.__gnu_cxx::__normal_iterator"* %6 to i8*
  call void @llvm.memcpy.p0i8.p0i8.i64(i8* align 8 %39, i8* align 8 %40, i64 8, i1 false)
  %41 = call %"struct.std::pair"* @_ZNK9__gnu_cxx17__normal_iteratorIPSt4pairINSt7__cxx1112basic_stringIcSt11char_traitsIcESaIcEEEiESt6vectorIS8_SaIS8_EEEplEl(%"class.__gnu_cxx::__normal_iterator"* %6, i64 1) #3
  %42 = getelementptr inbounds %"class.__gnu_cxx::__normal_iterator", %"class.__gnu_cxx::__normal_iterator"* %12, i32 0, i32 0
  store %"struct.std::pair"* %41, %"struct.std::pair"** %42, align 8
  %43 = getelementptr inbounds %"class.__gnu_cxx::__normal_iterator", %"class.__gnu_cxx::__normal_iterator"* %10, i32 0, i32 0
  %44 = load %"struct.std::pair"*, %"struct.std::pair"** %43, align 8
  %45 = getelementptr inbounds %"class.__gnu_cxx::__normal_iterator", %"class.__gnu_cxx::__normal_iterator"* %11, i32 0, i32 0
  %46 = load %"struct.std::pair"*, %"struct.std::pair"** %45, align 8
  %47 = getelementptr inbounds %"class.__gnu_cxx::__normal_iterator", %"class.__gnu_cxx::__normal_iterator"* %12, i32 0, i32 0
