; ModuleID = '/home/pedro/tcc/exDataset/codenet/data/selection2/p01285/s712723132.ll'
source_filename = "/home/pedro/tcc/exDataset/codenet/data/selection2/p01285/s712723132.cpp"
target datalayout = "e-m:e-i64:64-f80:128-n8:16:32:64-S128"
target triple = "x86_64-pc-linux-gnu"

%"class.std::ios_base::Init" = type { i8 }
%"class.std::basic_ostream" = type { i32 (...)**, %"class.std::basic_ios" }
%"class.std::basic_ios" = type { %"class.std::ios_base", %"class.std::basic_ostream"*, i8, i8, %"class.std::basic_streambuf"*, %"class.std::ctype"*, %"class.std::num_put"*, %"class.std::num_get"* }
%"class.std::ios_base" = type { i32 (...)**, i64, i64, i32, i32, i32, %"struct.std::ios_base::_Callback_list"*, %"struct.std::ios_base::_Words", [8 x %"struct.std::ios_base::_Words"], i32, %"struct.std::ios_base::_Words"*, %"class.std::locale" }
%"struct.std::ios_base::_Callback_list" = type { %"struct.std::ios_base::_Callback_list"*, void (i32, %"class.std::ios_base"*, i32)*, i32, i32 }
%"struct.std::ios_base::_Words" = type { i8*, i64 }
%"class.std::locale" = type { %"class.std::locale::_Impl"* }
%"class.std::locale::_Impl" = type { i32, %"class.std::locale::facet"**, i64, %"class.std::locale::facet"**, i8** }
%"class.std::locale::facet" = type <{ i32 (...)**, i32, [4 x i8] }>
%"class.std::basic_streambuf" = type { i32 (...)**, i8*, i8*, i8*, i8*, i8*, i8*, %"class.std::locale" }
%"class.std::ctype" = type <{ %"class.std::locale::facet.base", [4 x i8], %struct.__locale_struct*, i8, [7 x i8], i32*, i32*, i16*, i8, [256 x i8], [256 x i8], i8, [6 x i8] }>
%"class.std::locale::facet.base" = type <{ i32 (...)**, i32 }>
%struct.__locale_struct = type { [13 x %struct.__locale_data*], i16*, i32*, i32*, [13 x i8*] }
%struct.__locale_data = type opaque
%"class.std::num_put" = type { %"class.std::locale::facet.base", [4 x i8] }
%"class.std::num_get" = type { %"class.std::locale::facet.base", [4 x i8] }
%"class.std::basic_istream" = type { i32 (...)**, i64, %"class.std::basic_ios" }
%"struct.std::complex" = type { { double, double } }
%struct.Line = type { %"class.std::vector" }
%"class.std::vector" = type { %"struct.std::_Vector_base" }
%"struct.std::_Vector_base" = type { %"struct.std::_Vector_base<std::complex<double>, std::allocator<std::complex<double> > >::_Vector_impl" }
%"struct.std::_Vector_base<std::complex<double>, std::allocator<std::complex<double> > >::_Vector_impl" = type { %"struct.std::complex"*, %"struct.std::complex"*, %"struct.std::complex"* }
%"struct.std::_Setprecision" = type { i32 }
%"class.std::vector.0" = type { %"struct.std::_Vector_base.1" }
%"struct.std::_Vector_base.1" = type { %"struct.std::_Vector_base<Line, std::allocator<Line> >::_Vector_impl" }
%"struct.std::_Vector_base<Line, std::allocator<Line> >::_Vector_impl" = type { %struct.Line*, %struct.Line*, %struct.Line* }
%"class.std::vector.5" = type { %"struct.std::_Vector_base.6" }
%"struct.std::_Vector_base.6" = type { %"struct.std::_Vector_base<double, std::allocator<double> >::_Vector_impl" }
%"struct.std::_Vector_base<double, std::allocator<double> >::_Vector_impl" = type { double*, double*, double* }
%"class.__gnu_cxx::__normal_iterator.10" = type { %"struct.std::complex"* }
%"class.__gnu_cxx::__normal_iterator" = type { %"struct.std::complex"* }
%"class.__gnu_cxx::__normal_iterator.12" = type { double* }
%"class.__gnu_cxx::__normal_iterator.11" = type { double* }
%"class.std::allocator" = type { i8 }
%"class.std::allocator.7" = type { i8 }
%"class.std::allocator.2" = type { i8 }
%"class.__gnu_cxx::new_allocator" = type { i8 }
%"class.std::move_iterator" = type { %"struct.std::complex"* }
%"class.__gnu_cxx::new_allocator.3" = type { i8 }
%"class.__gnu_cxx::__normal_iterator.13" = type { %struct.Line* }
%"class.std::move_iterator.14" = type { %struct.Line* }
%"class.__gnu_cxx::new_allocator.8" = type { i8 }
%"class.std::move_iterator.15" = type { double* }

$_ZSt4realIdET_RKSt7complexIS0_E = comdat any

$_ZStmlIdESt7complexIT_ERKS2_S4_ = comdat any

$_ZSt4conjIdESt7complexIT_ERKS2_ = comdat any

$_ZSt4imagIdET_RKSt7complexIS0_E = comdat any

$_ZSt3absd = comdat any

$_ZStmiIdESt7complexIT_ERKS2_S4_ = comdat any

$_ZNKSt6vectorISt7complexIdESaIS1_EEixEm = comdat any

$_ZSt4normIdET_RKSt7complexIS0_E = comdat any

$_ZStplIdESt7complexIT_ERKS2_S4_ = comdat any

$_ZStmlIdESt7complexIT_ERKS1_RKS2_ = comdat any

$_ZSt3absIdET_RKSt7complexIS0_E = comdat any

$_ZSt5fixedRSt8ios_base = comdat any

$_ZSt12setprecisioni = comdat any

$_ZNSt6vectorI4LineSaIS0_EEC2Ev = comdat any

$_ZNSt6vectorI4LineSaIS0_EE9push_backEOS0_ = comdat any

$_ZNSt7complexIdEC2Edd = comdat any

$_ZN4LineC2ERKSt7complexIdES3_ = comdat any

$_ZN4LineD2Ev = comdat any

$_ZNSt6vectorISt7complexIdESaIS1_EEC2Ev = comdat any

$_ZNSt6vectorIdSaIdEEC2Ev = comdat any

$_ZNSt6vectorI4LineSaIS0_EEixEm = comdat any

$_ZNSt6vectorISt7complexIdESaIS1_EEixEm = comdat any

$_ZNSt7complexIdEdVEd = comdat any

$_ZNSt6vectorISt7complexIdESaIS1_EE9push_backERKS1_ = comdat any

$_ZNKSt6vectorI4LineSaIS0_EE4sizeEv = comdat any

$_ZNKSt6vectorISt7complexIdESaIS1_EE4sizeEv = comdat any

$_ZNSt6vectorIdSaIdEE9push_backEOd = comdat any

$_ZNSt6vectorIdSaIdEEixEm = comdat any

$_ZNSt6vectorISt7complexIdESaIS1_EE5eraseEN9__gnu_cxx17__normal_iteratorIPKS1_S3_EE = comdat any

$_ZNSt6vectorISt7complexIdESaIS1_EE5beginEv = comdat any

$_ZNK9__gnu_cxx17__normal_iteratorIPSt7complexIdESt6vectorIS2_SaIS2_EEEplEl = comdat any

$_ZN9__gnu_cxx17__normal_iteratorIPKSt7complexIdESt6vectorIS2_SaIS2_EEEC2IPS2_EERKNS0_IT_NS_11__enable_ifIXsr3std10__are_sameISB_SA_EE7__valueES7_E6__typeEEE = comdat any

$_ZNSt6vectorIdSaIdEE5eraseEN9__gnu_cxx17__normal_iteratorIPKdS1_EE = comdat any

$_ZNSt6vectorIdSaIdEE5beginEv = comdat any

$_ZNK9__gnu_cxx17__normal_iteratorIPdSt6vectorIdSaIdEEEplEl = comdat any

$_ZN9__gnu_cxx17__normal_iteratorIPKdSt6vectorIdSaIdEEEC2IPdEERKNS0_IT_NS_11__enable_ifIXsr3std10__are_sameIS9_S8_EE7__valueES5_E6__typeEEE = comdat any

$_ZNSt6vectorIdSaIdEED2Ev = comdat any

$_ZNSt6vectorI4LineSaIS0_EED2Ev = comdat any

$_ZNSt6vectorISt7complexIdESaIS1_EED2Ev = comdat any

$_ZNKSt7complexIdE4realB5cxx11Ev = comdat any

$_ZNKSt7complexIdE4imagB5cxx11Ev = comdat any

$_ZNSt8ios_base4setfESt13_Ios_FmtflagsS0_ = comdat any

$_ZStaNRSt13_Ios_FmtflagsS_ = comdat any

$_ZStcoSt13_Ios_Fmtflags = comdat any

$_ZStoRRSt13_Ios_FmtflagsS_ = comdat any

$_ZStanSt13_Ios_FmtflagsS_ = comdat any

$_ZStorSt13_Ios_FmtflagsS_ = comdat any

$_ZNSt12_Vector_baseISt7complexIdESaIS1_EEC2Ev = comdat any

$__clang_call_terminate = comdat any

$_ZNSt12_Vector_baseISt7complexIdESaIS1_EE12_Vector_implC2Ev = comdat any

$_ZNSaISt7complexIdEEC2Ev = comdat any

$_ZN9__gnu_cxx13new_allocatorISt7complexIdEEC2Ev = comdat any

$_ZSt8_DestroyIPSt7complexIdES1_EvT_S3_RSaIT0_E = comdat any

$_ZNSt12_Vector_baseISt7complexIdESaIS1_EE19_M_get_Tp_allocatorEv = comdat any

$_ZNSt12_Vector_baseISt7complexIdESaIS1_EED2Ev = comdat any

$_ZSt8_DestroyIPSt7complexIdEEvT_S3_ = comdat any

$_ZNSt12_Destroy_auxILb1EE9__destroyIPSt7complexIdEEEvT_S5_ = comdat any

$_ZNSt12_Vector_baseISt7complexIdESaIS1_EE13_M_deallocateEPS1_m = comdat any

$_ZNSt12_Vector_baseISt7complexIdESaIS1_EE12_Vector_implD2Ev = comdat any

$_ZNSt16allocator_traitsISaISt7complexIdEEE10deallocateERS2_PS1_m = comdat any

$_ZN9__gnu_cxx13new_allocatorISt7complexIdEE10deallocateEPS2_m = comdat any

$_ZNSaISt7complexIdEED2Ev = comdat any

$_ZN9__gnu_cxx13new_allocatorISt7complexIdEED2Ev = comdat any

$_ZNSt7complexIdEmLIdEERS0_RKS_IT_E = comdat any

$_ZNSt16allocator_traitsISaISt7complexIdEEE9constructIS1_JRKS1_EEEvRS2_PT_DpOT0_ = comdat any

$_ZNSt6vectorISt7complexIdESaIS1_EE17_M_realloc_insertIJRKS1_EEEvN9__gnu_cxx17__normal_iteratorIPS1_S3_EEDpOT_ = comdat any

$_ZNSt6vectorISt7complexIdESaIS1_EE3endEv = comdat any

$_ZN9__gnu_cxx13new_allocatorISt7complexIdEE9constructIS2_JRKS2_EEEvPT_DpOT0_ = comdat any

$_ZSt7forwardIRKSt7complexIdEEOT_RNSt16remove_referenceIS4_E4typeE = comdat any

$_ZNKSt6vectorISt7complexIdESaIS1_EE12_M_check_lenEmPKc = comdat any

$_ZN9__gnu_cxxmiIPSt7complexIdESt6vectorIS2_SaIS2_EEEENS_17__normal_iteratorIT_T0_E15difference_typeERKSA_SD_ = comdat any

$_ZNSt12_Vector_baseISt7complexIdESaIS1_EE11_M_allocateEm = comdat any

$_ZSt34__uninitialized_move_if_noexcept_aIPSt7complexIdES2_SaIS1_EET0_T_S5_S4_RT1_ = comdat any

$_ZNK9__gnu_cxx17__normal_iteratorIPSt7complexIdESt6vectorIS2_SaIS2_EEE4baseEv = comdat any

$_ZNSt16allocator_traitsISaISt7complexIdEEE7destroyIS1_EEvRS2_PT_ = comdat any

$_ZNKSt6vectorISt7complexIdESaIS1_EE8max_sizeEv = comdat any

$_ZSt3maxImERKT_S2_S2_ = comdat any

$_ZNSt16allocator_traitsISaISt7complexIdEEE8max_sizeERKS2_ = comdat any

$_ZNKSt12_Vector_baseISt7complexIdESaIS1_EE19_M_get_Tp_allocatorEv = comdat any

$_ZNK9__gnu_cxx13new_allocatorISt7complexIdEE8max_sizeEv = comdat any

$_ZNSt16allocator_traitsISaISt7complexIdEEE8allocateERS2_m = comdat any

$_ZN9__gnu_cxx13new_allocatorISt7complexIdEE8allocateEmPKv = comdat any

$_ZSt22__uninitialized_copy_aISt13move_iteratorIPSt7complexIdEES3_S2_ET0_T_S6_S5_RSaIT1_E = comdat any

$_ZSt32__make_move_if_noexcept_iteratorISt7complexIdESt13move_iteratorIPS1_EET0_PT_ = comdat any

$_ZSt18uninitialized_copyISt13move_iteratorIPSt7complexIdEES3_ET0_T_S6_S5_ = comdat any

$_ZNSt20__uninitialized_copyILb0EE13__uninit_copyISt13move_iteratorIPSt7complexIdEES5_EET0_T_S8_S7_ = comdat any

$_ZStneIPSt7complexIdEEbRKSt13move_iteratorIT_ES7_ = comdat any

$_ZSt10_ConstructISt7complexIdEJS1_EEvPT_DpOT0_ = comdat any

$_ZSt11__addressofISt7complexIdEEPT_RS2_ = comdat any

$_ZNKSt13move_iteratorIPSt7complexIdEEdeEv = comdat any

$_ZNSt13move_iteratorIPSt7complexIdEEppEv = comdat any

$_ZSteqIPSt7complexIdEEbRKSt13move_iteratorIT_ES7_ = comdat any

$_ZNKSt13move_iteratorIPSt7complexIdEE4baseEv = comdat any

$_ZSt7forwardISt7complexIdEEOT_RNSt16remove_referenceIS2_E4typeE = comdat any

$_ZNSt13move_iteratorIPSt7complexIdEEC2ES2_ = comdat any

$_ZN9__gnu_cxx13new_allocatorISt7complexIdEE7destroyIS2_EEvPT_ = comdat any

$_ZN9__gnu_cxx17__normal_iteratorIPSt7complexIdESt6vectorIS2_SaIS2_EEEC2ERKS3_ = comdat any

$_ZNSt7complexIdEmIIdEERS0_RKS_IT_E = comdat any

$_ZNSt12_Norm_helperILb1EE8_S_do_itIdEET_RKSt7complexIS2_E = comdat any

$_ZNSt7complexIdEmLEd = comdat any

$_ZNSt7complexIdEpLIdEERS0_RKS_IT_E = comdat any

$_ZSt13__complex_absCd = comdat any

$_ZNKSt7complexIdE5__repEv = comdat any

$_ZNSt12_Vector_baseI4LineSaIS0_EEC2Ev = comdat any

$_ZNSt12_Vector_baseI4LineSaIS0_EE12_Vector_implC2Ev = comdat any

$_ZNSaI4LineEC2Ev = comdat any

$_ZN9__gnu_cxx13new_allocatorI4LineEC2Ev = comdat any

$_ZSt8_DestroyIP4LineS0_EvT_S2_RSaIT0_E = comdat any

$_ZNSt12_Vector_baseI4LineSaIS0_EE19_M_get_Tp_allocatorEv = comdat any

$_ZNSt12_Vector_baseI4LineSaIS0_EED2Ev = comdat any

$_ZSt8_DestroyIP4LineEvT_S2_ = comdat any

$_ZNSt12_Destroy_auxILb0EE9__destroyIP4LineEEvT_S4_ = comdat any

$_ZSt8_DestroyI4LineEvPT_ = comdat any

$_ZSt11__addressofI4LineEPT_RS1_ = comdat any

$_ZNSt12_Vector_baseI4LineSaIS0_EE13_M_deallocateEPS0_m = comdat any

$_ZNSt12_Vector_baseI4LineSaIS0_EE12_Vector_implD2Ev = comdat any

$_ZNSt16allocator_traitsISaI4LineEE10deallocateERS1_PS0_m = comdat any

$_ZN9__gnu_cxx13new_allocatorI4LineE10deallocateEPS1_m = comdat any

$_ZNSaI4LineED2Ev = comdat any

$_ZN9__gnu_cxx13new_allocatorI4LineED2Ev = comdat any

$_ZNSt6vectorI4LineSaIS0_EE12emplace_backIJS0_EEEvDpOT_ = comdat any

$_ZSt4moveIR4LineEONSt16remove_referenceIT_E4typeEOS3_ = comdat any

$_ZNSt16allocator_traitsISaI4LineEE9constructIS0_JS0_EEEvRS1_PT_DpOT0_ = comdat any

$_ZSt7forwardI4LineEOT_RNSt16remove_referenceIS1_E4typeE = comdat any

$_ZNSt6vectorI4LineSaIS0_EE17_M_realloc_insertIJS0_EEEvN9__gnu_cxx17__normal_iteratorIPS0_S2_EEDpOT_ = comdat any

$_ZNSt6vectorI4LineSaIS0_EE3endEv = comdat any

$_ZN9__gnu_cxx13new_allocatorI4LineE9constructIS1_JS1_EEEvPT_DpOT0_ = comdat any

$_ZN4LineC2EOS_ = comdat any

$_ZNSt6vectorISt7complexIdESaIS1_EEC2EOS3_ = comdat any

$_ZSt4moveIRSt6vectorISt7complexIdESaIS2_EEEONSt16remove_referenceIT_E4typeEOS7_ = comdat any

$_ZNSt12_Vector_baseISt7complexIdESaIS1_EEC2EOS3_ = comdat any

$_ZSt4moveIRSaISt7complexIdEEEONSt16remove_referenceIT_E4typeEOS5_ = comdat any

$_ZNSt12_Vector_baseISt7complexIdESaIS1_EE12_Vector_implC2EOS2_ = comdat any

$_ZNSt12_Vector_baseISt7complexIdESaIS1_EE12_Vector_impl12_M_swap_dataERS4_ = comdat any

$_ZNSaISt7complexIdEEC2ERKS1_ = comdat any

$_ZN9__gnu_cxx13new_allocatorISt7complexIdEEC2ERKS3_ = comdat any

$_ZSt4swapIPSt7complexIdEENSt9enable_ifIXsr6__and_ISt6__not_ISt15__is_tuple_likeIT_EESt21is_move_constructibleIS6_ESt18is_move_assignableIS6_EEE5valueEvE4typeERS6_SF_ = comdat any

$_ZSt4moveIRPSt7complexIdEEONSt16remove_referenceIT_E4typeEOS5_ = comdat any

$_ZNKSt6vectorI4LineSaIS0_EE12_M_check_lenEmPKc = comdat any

$_ZN9__gnu_cxxmiIP4LineSt6vectorIS1_SaIS1_EEEENS_17__normal_iteratorIT_T0_E15difference_typeERKS9_SC_ = comdat any

$_ZNSt6vectorI4LineSaIS0_EE5beginEv = comdat any

$_ZNSt12_Vector_baseI4LineSaIS0_EE11_M_allocateEm = comdat any

$_ZSt34__uninitialized_move_if_noexcept_aIP4LineS1_SaIS0_EET0_T_S4_S3_RT1_ = comdat any

$_ZNK9__gnu_cxx17__normal_iteratorIP4LineSt6vectorIS1_SaIS1_EEE4baseEv = comdat any

$_ZNSt16allocator_traitsISaI4LineEE7destroyIS0_EEvRS1_PT_ = comdat any

$_ZNKSt6vectorI4LineSaIS0_EE8max_sizeEv = comdat any

$_ZNSt16allocator_traitsISaI4LineEE8max_sizeERKS1_ = comdat any

$_ZNKSt12_Vector_baseI4LineSaIS0_EE19_M_get_Tp_allocatorEv = comdat any

$_ZNK9__gnu_cxx13new_allocatorI4LineE8max_sizeEv = comdat any

$_ZN9__gnu_cxx17__normal_iteratorIP4LineSt6vectorIS1_SaIS1_EEEC2ERKS2_ = comdat any

$_ZNSt16allocator_traitsISaI4LineEE8allocateERS1_m = comdat any

$_ZN9__gnu_cxx13new_allocatorI4LineE8allocateEmPKv = comdat any

$_ZSt22__uninitialized_copy_aISt13move_iteratorIP4LineES2_S1_ET0_T_S5_S4_RSaIT1_E = comdat any

$_ZSt32__make_move_if_noexcept_iteratorI4LineSt13move_iteratorIPS0_EET0_PT_ = comdat any

$_ZSt18uninitialized_copyISt13move_iteratorIP4LineES2_ET0_T_S5_S4_ = comdat any

$_ZNSt20__uninitialized_copyILb0EE13__uninit_copyISt13move_iteratorIP4LineES4_EET0_T_S7_S6_ = comdat any

$_ZStneIP4LineEbRKSt13move_iteratorIT_ES6_ = comdat any

$_ZSt10_ConstructI4LineJS0_EEvPT_DpOT0_ = comdat any

$_ZNKSt13move_iteratorIP4LineEdeEv = comdat any

$_ZNSt13move_iteratorIP4LineEppEv = comdat any

$_ZSteqIP4LineEbRKSt13move_iteratorIT_ES6_ = comdat any

$_ZNKSt13move_iteratorIP4LineE4baseEv = comdat any

$_ZNSt13move_iteratorIP4LineEC2ES1_ = comdat any

$_ZN9__gnu_cxx13new_allocatorI4LineE7destroyIS1_EEvPT_ = comdat any

$_ZNSt12_Vector_baseIdSaIdEEC2Ev = comdat any

$_ZNSt12_Vector_baseIdSaIdEE12_Vector_implC2Ev = comdat any

$_ZNSaIdEC2Ev = comdat any

$_ZN9__gnu_cxx13new_allocatorIdEC2Ev = comdat any

$_ZSt8_DestroyIPddEvT_S1_RSaIT0_E = comdat any

$_ZNSt12_Vector_baseIdSaIdEE19_M_get_Tp_allocatorEv = comdat any

$_ZNSt12_Vector_baseIdSaIdEED2Ev = comdat any

$_ZSt8_DestroyIPdEvT_S1_ = comdat any

$_ZNSt12_Destroy_auxILb1EE9__destroyIPdEEvT_S3_ = comdat any

$_ZNSt12_Vector_baseIdSaIdEE13_M_deallocateEPdm = comdat any

$_ZNSt12_Vector_baseIdSaIdEE12_Vector_implD2Ev = comdat any

$_ZNSt16allocator_traitsISaIdEE10deallocateERS0_Pdm = comdat any

$_ZN9__gnu_cxx13new_allocatorIdE10deallocateEPdm = comdat any

$_ZNSaIdED2Ev = comdat any

$_ZN9__gnu_cxx13new_allocatorIdED2Ev = comdat any

$_ZNSt6vectorIdSaIdEE12emplace_backIJdEEEvDpOT_ = comdat any

$_ZSt4moveIRdEONSt16remove_referenceIT_E4typeEOS2_ = comdat any

$_ZNSt16allocator_traitsISaIdEE9constructIdJdEEEvRS0_PT_DpOT0_ = comdat any

$_ZSt7forwardIdEOT_RNSt16remove_referenceIS0_E4typeE = comdat any

$_ZNSt6vectorIdSaIdEE17_M_realloc_insertIJdEEEvN9__gnu_cxx17__normal_iteratorIPdS1_EEDpOT_ = comdat any

$_ZNSt6vectorIdSaIdEE3endEv = comdat any

$_ZN9__gnu_cxx13new_allocatorIdE9constructIdJdEEEvPT_DpOT0_ = comdat any

$_ZNKSt6vectorIdSaIdEE12_M_check_lenEmPKc = comdat any

$_ZN9__gnu_cxxmiIPdSt6vectorIdSaIdEEEENS_17__normal_iteratorIT_T0_E15difference_typeERKS8_SB_ = comdat any

$_ZNSt12_Vector_baseIdSaIdEE11_M_allocateEm = comdat any

$_ZSt34__uninitialized_move_if_noexcept_aIPdS0_SaIdEET0_T_S3_S2_RT1_ = comdat any

$_ZNK9__gnu_cxx17__normal_iteratorIPdSt6vectorIdSaIdEEE4baseEv = comdat any

$_ZNSt16allocator_traitsISaIdEE7destroyIdEEvRS0_PT_ = comdat any

$_ZNKSt6vectorIdSaIdEE8max_sizeEv = comdat any

$_ZNKSt6vectorIdSaIdEE4sizeEv = comdat any

$_ZNSt16allocator_traitsISaIdEE8max_sizeERKS0_ = comdat any

$_ZNKSt12_Vector_baseIdSaIdEE19_M_get_Tp_allocatorEv = comdat any

$_ZNK9__gnu_cxx13new_allocatorIdE8max_sizeEv = comdat any

$_ZNSt16allocator_traitsISaIdEE8allocateERS0_m = comdat any

$_ZN9__gnu_cxx13new_allocatorIdE8allocateEmPKv = comdat any

$_ZSt22__uninitialized_copy_aISt13move_iteratorIPdES1_dET0_T_S4_S3_RSaIT1_E = comdat any

$_ZSt32__make_move_if_noexcept_iteratorIdSt13move_iteratorIPdEET0_PT_ = comdat any

$_ZSt18uninitialized_copyISt13move_iteratorIPdES1_ET0_T_S4_S3_ = comdat any

$_ZNSt20__uninitialized_copyILb1EE13__uninit_copyISt13move_iteratorIPdES3_EET0_T_S6_S5_ = comdat any

$_ZSt4copyISt13move_iteratorIPdES1_ET0_T_S4_S3_ = comdat any

$_ZSt14__copy_move_a2ILb1EPdS0_ET1_T0_S2_S1_ = comdat any

$_ZSt12__miter_baseIPdEDTcl12__miter_basecldtfp_4baseEEESt13move_iteratorIT_E = comdat any

$_ZSt13__copy_move_aILb1EPdS0_ET1_T0_S2_S1_ = comdat any

$_ZSt12__niter_baseIPdET_S1_ = comdat any

$_ZNSt11__copy_moveILb1ELb1ESt26random_access_iterator_tagE8__copy_mIdEEPT_PKS3_S6_S4_ = comdat any

$_ZSt12__miter_baseIPdET_S1_ = comdat any

$_ZNKSt13move_iteratorIPdE4baseEv = comdat any

$_ZNSt13move_iteratorIPdEC2ES0_ = comdat any

$_ZN9__gnu_cxx13new_allocatorIdE7destroyIdEEvPT_ = comdat any

$_ZN9__gnu_cxx17__normal_iteratorIPdSt6vectorIdSaIdEEEC2ERKS1_ = comdat any

$_ZNSt6vectorISt7complexIdESaIS1_EE8_M_eraseEN9__gnu_cxx17__normal_iteratorIPS1_S3_EE = comdat any

$_ZN9__gnu_cxxmiIPKSt7complexIdESt6vectorIS2_SaIS2_EEEENS_17__normal_iteratorIT_T0_E15difference_typeERKSB_SE_ = comdat any

$_ZNKSt6vectorISt7complexIdESaIS1_EE6cbeginEv = comdat any

$_ZN9__gnu_cxxneIPSt7complexIdESt6vectorIS2_SaIS2_EEEEbRKNS_17__normal_iteratorIT_T0_EESC_ = comdat any

$_ZSt4moveIN9__gnu_cxx17__normal_iteratorIPSt7complexIdESt6vectorIS3_SaIS3_EEEES8_ET0_T_SA_S9_ = comdat any

$_ZSt14__copy_move_a2ILb1EN9__gnu_cxx17__normal_iteratorIPSt7complexIdESt6vectorIS3_SaIS3_EEEES8_ET1_T0_SA_S9_ = comdat any

$_ZSt12__miter_baseIN9__gnu_cxx17__normal_iteratorIPSt7complexIdESt6vectorIS3_SaIS3_EEEEET_S9_ = comdat any

$_ZSt13__copy_move_aILb1EPSt7complexIdES2_ET1_T0_S4_S3_ = comdat any

$_ZSt12__niter_baseIPSt7complexIdESt6vectorIS1_SaIS1_EEET_N9__gnu_cxx17__normal_iteratorIS6_T0_EE = comdat any

$_ZNSt11__copy_moveILb1ELb0ESt26random_access_iterator_tagE8__copy_mIPSt7complexIdES5_EET0_T_S7_S6_ = comdat any

$_ZSt4moveIRSt7complexIdEEONSt16remove_referenceIT_E4typeEOS4_ = comdat any

$_ZNK9__gnu_cxx17__normal_iteratorIPKSt7complexIdESt6vectorIS2_SaIS2_EEE4baseEv = comdat any

$_ZN9__gnu_cxx17__normal_iteratorIPKSt7complexIdESt6vectorIS2_SaIS2_EEEC2ERKS4_ = comdat any

$_ZNSt6vectorIdSaIdEE8_M_eraseEN9__gnu_cxx17__normal_iteratorIPdS1_EE = comdat any

$_ZN9__gnu_cxxmiIPKdSt6vectorIdSaIdEEEENS_17__normal_iteratorIT_T0_E15difference_typeERKS9_SC_ = comdat any

$_ZNKSt6vectorIdSaIdEE6cbeginEv = comdat any

$_ZN9__gnu_cxxneIPdSt6vectorIdSaIdEEEEbRKNS_17__normal_iteratorIT_T0_EESA_ = comdat any

$_ZSt4moveIN9__gnu_cxx17__normal_iteratorIPdSt6vectorIdSaIdEEEES6_ET0_T_S8_S7_ = comdat any

$_ZSt14__copy_move_a2ILb1EN9__gnu_cxx17__normal_iteratorIPdSt6vectorIdSaIdEEEES6_ET1_T0_S8_S7_ = comdat any

$_ZSt12__miter_baseIN9__gnu_cxx17__normal_iteratorIPdSt6vectorIdSaIdEEEEET_S7_ = comdat any

$_ZSt12__niter_baseIPdSt6vectorIdSaIdEEET_N9__gnu_cxx17__normal_iteratorIS4_T0_EE = comdat any

$_ZNK9__gnu_cxx17__normal_iteratorIPKdSt6vectorIdSaIdEEE4baseEv = comdat any

$_ZN9__gnu_cxx17__normal_iteratorIPKdSt6vectorIdSaIdEEEC2ERKS2_ = comdat any

@_ZStL8__ioinit = internal global %"class.std::ios_base::Init" zeroinitializer, align 1
@__dso_handle = external hidden global i8
@_ZSt4cout = external global %"class.std::basic_ostream", align 8
@_ZSt3cin = external global %"class.std::basic_istream", align 8
@.str = private unnamed_addr constant [5 x i8] c"Many\00", align 1
@.str.1 = private unnamed_addr constant [5 x i8] c"None\00", align 1
@.str.2 = private unnamed_addr constant [26 x i8] c"vector::_M_realloc_insert\00", align 1
@llvm.global_ctors = appending global [1 x { i32, void ()*, i8* }] [{ i32, void ()*, i8* } { i32 65535, void ()* @_GLOBAL__sub_I_s712723132.cpp, i8* null }]

; Function Attrs: noinline uwtable
define internal void @__cxx_global_var_init() #0 section ".text.startup" {
  call void @_ZNSt8ios_base4InitC1Ev(%"class.std::ios_base::Init"* @_ZStL8__ioinit)
  %1 = call i32 @__cxa_atexit(void (i8*)* bitcast (void (%"class.std::ios_base::Init"*)* @_ZNSt8ios_base4InitD1Ev to void (i8*)*), i8* getelementptr inbounds (%"class.std::ios_base::Init", %"class.std::ios_base::Init"* @_ZStL8__ioinit, i32 0, i32 0), i8* @__dso_handle) #3
  ret void
}

declare void @_ZNSt8ios_base4InitC1Ev(%"class.std::ios_base::Init"*) unnamed_addr #1

; Function Attrs: nounwind
declare void @_ZNSt8ios_base4InitD1Ev(%"class.std::ios_base::Init"*) unnamed_addr #2

; Function Attrs: nounwind
declare i32 @__cxa_atexit(void (i8*)*, i8*, i8*) #3

; Function Attrs: noinline uwtable
define double @_Z3dotRKSt7complexIdES2_(%"struct.std::complex"* dereferenceable(16) %0, %"struct.std::complex"* dereferenceable(16) %1) #0 {
  %3 = alloca %"struct.std::complex", align 8
  %4 = alloca %"struct.std::complex", align 8
  %5 = call { double, double } @_ZSt4conjIdESt7complexIT_ERKS2_(%"struct.std::complex"* dereferenceable(16) %0)
  %6 = getelementptr inbounds %"struct.std::complex", %"struct.std::complex"* %4, i32 0, i32 0
  %7 = getelementptr inbounds { double, double }, { double, double }* %6, i32 0, i32 0
  %8 = extractvalue { double, double } %5, 0
  store double %8, double* %7, align 8
  %9 = getelementptr inbounds { double, double }, { double, double }* %6, i32 0, i32 1
  %10 = extractvalue { double, double } %5, 1
  store double %10, double* %9, align 8
  %11 = call { double, double } @_ZStmlIdESt7complexIT_ERKS2_S4_(%"struct.std::complex"* dereferenceable(16) %4, %"struct.std::complex"* dereferenceable(16) %1)
  %12 = getelementptr inbounds %"struct.std::complex", %"struct.std::complex"* %3, i32 0, i32 0
  %13 = getelementptr inbounds { double, double }, { double, double }* %12, i32 0, i32 0
  %14 = extractvalue { double, double } %11, 0
  store double %14, double* %13, align 8
  %15 = getelementptr inbounds { double, double }, { double, double }* %12, i32 0, i32 1
  %16 = extractvalue { double, double } %11, 1
  store double %16, double* %15, align 8
  %17 = call double @_ZSt4realIdET_RKSt7complexIS0_E(%"struct.std::complex"* dereferenceable(16) %3)
  ret double %17
}

; Function Attrs: noinline uwtable
define linkonce_odr double @_ZSt4realIdET_RKSt7complexIS0_E(%"struct.std::complex"* dereferenceable(16) %0) #0 comdat {
  %2 = call double @_ZNKSt7complexIdE4realB5cxx11Ev(%"struct.std::complex"* %0)
  ret double %2
}

; Function Attrs: noinline uwtable
define linkonce_odr { double, double } @_ZStmlIdESt7complexIT_ERKS2_S4_(%"struct.std::complex"* dereferenceable(16) %0, %"struct.std::complex"* dereferenceable(16) %1) #0 comdat {
  %3 = alloca %"struct.std::complex", align 8
  %4 = bitcast %"struct.std::complex"* %3 to i8*
  %5 = bitcast %"struct.std::complex"* %0 to i8*
  call void @llvm.memcpy.p0i8.p0i8.i64(i8* align 8 %4, i8* align 8 %5, i64 16, i1 false)
  %6 = call dereferenceable(16) %"struct.std::complex"* @_ZNSt7complexIdEmLIdEERS0_RKS_IT_E(%"struct.std::complex"* %3, %"struct.std::complex"* dereferenceable(16) %1)
  %7 = getelementptr inbounds %"struct.std::complex", %"struct.std::complex"* %3, i32 0, i32 0
  %8 = load { double, double }, { double, double }* %7, align 8
  ret { double, double } %8
}

; Function Attrs: noinline uwtable
define linkonce_odr { double, double } @_ZSt4conjIdESt7complexIT_ERKS2_(%"struct.std::complex"* dereferenceable(16) %0) #0 comdat {
  %2 = alloca %"struct.std::complex", align 8
  %3 = call double @_ZNKSt7complexIdE4realB5cxx11Ev(%"struct.std::complex"* %0)
  %4 = call double @_ZNKSt7complexIdE4imagB5cxx11Ev(%"struct.std::complex"* %0)
  %5 = fsub double -0.000000e+00, %4
  call void @_ZNSt7complexIdEC2Edd(%"struct.std::complex"* %2, double %3, double %5)
  %6 = getelementptr inbounds %"struct.std::complex", %"struct.std::complex"* %2, i32 0, i32 0
  %7 = load { double, double }, { double, double }* %6, align 8
  ret { double, double } %7
}

; Function Attrs: noinline uwtable
define double @_Z5crossRKSt7complexIdES2_(%"struct.std::complex"* dereferenceable(16) %0, %"struct.std::complex"* dereferenceable(16) %1) #0 {
  %3 = alloca %"struct.std::complex", align 8
  %4 = alloca %"struct.std::complex", align 8
  %5 = call { double, double } @_ZSt4conjIdESt7complexIT_ERKS2_(%"struct.std::complex"* dereferenceable(16) %0)
  %6 = getelementptr inbounds %"struct.std::complex", %"struct.std::complex"* %4, i32 0, i32 0
  %7 = getelementptr inbounds { double, double }, { double, double }* %6, i32 0, i32 0
  %8 = extractvalue { double, double } %5, 0
  store double %8, double* %7, align 8
  %9 = getelementptr inbounds { double, double }, { double, double }* %6, i32 0, i32 1
  %10 = extractvalue { double, double } %5, 1
  store double %10, double* %9, align 8
  %11 = call { double, double } @_ZStmlIdESt7complexIT_ERKS2_S4_(%"struct.std::complex"* dereferenceable(16) %4, %"struct.std::complex"* dereferenceable(16) %1)
  %12 = getelementptr inbounds %"struct.std::complex", %"struct.std::complex"* %3, i32 0, i32 0
  %13 = getelementptr inbounds { double, double }, { double, double }* %12, i32 0, i32 0
  %14 = extractvalue { double, double } %11, 0
  store double %14, double* %13, align 8
  %15 = getelementptr inbounds { double, double }, { double, double }* %12, i32 0, i32 1
  %16 = extractvalue { double, double } %11, 1
  store double %16, double* %15, align 8
  %17 = call double @_ZSt4imagIdET_RKSt7complexIS0_E(%"struct.std::complex"* dereferenceable(16) %3)
  ret double %17
}

; Function Attrs: noinline uwtable
define linkonce_odr double @_ZSt4imagIdET_RKSt7complexIS0_E(%"struct.std::complex"* dereferenceable(16) %0) #0 comdat {
  %2 = call double @_ZNKSt7complexIdE4imagB5cxx11Ev(%"struct.std::complex"* %0)
  ret double %2
}

; Function Attrs: noinline uwtable
define zeroext i1 @_ZSteqRKSt7complexIdES2_(%"struct.std::complex"* dereferenceable(16) %0, %"struct.std::complex"* dereferenceable(16) %1) #0 {
  %3 = call double @_ZSt4realIdET_RKSt7complexIS0_E(%"struct.std::complex"* dereferenceable(16) %0)
  %4 = call double @_ZSt4realIdET_RKSt7complexIS0_E(%"struct.std::complex"* dereferenceable(16) %1)
  %5 = fsub double %3, %4
  %6 = call double @_ZSt3absd(double %5)
  %7 = fcmp olt double %6, 1.000000e-08
  br i1 %7, label %8, label %14

8:                                                ; preds = %2
  %9 = call double @_ZSt4imagIdET_RKSt7complexIS0_E(%"struct.std::complex"* dereferenceable(16) %0)
  %10 = call double @_ZSt4imagIdET_RKSt7complexIS0_E(%"struct.std::complex"* dereferenceable(16) %1)
  %11 = fsub double %9, %10
  %12 = call double @_ZSt3absd(double %11)
  %13 = fcmp olt double %12, 1.000000e-08
  br label %14

14:                                               ; preds = %8, %2
  %15 = phi i1 [ false, %2 ], [ %13, %8 ]
  ret i1 %15
}

; Function Attrs: noinline nounwind uwtable
define linkonce_odr double @_ZSt3absd(double %0) #4 comdat {
  %2 = call double @llvm.fabs.f64(double %0)
  ret double %2
}

; Function Attrs: noinline uwtable
define { double, double } @_Z10projectionRK4LineRKSt7complexIdE(%struct.Line* dereferenceable(24) %0, %"struct.std::complex"* dereferenceable(16) %1) #0 {
  %3 = alloca %"struct.std::complex", align 8
  %4 = alloca double, align 8
  %5 = alloca %"struct.std::complex", align 8
  %6 = alloca %"struct.std::complex", align 8
  %7 = alloca %"struct.std::complex", align 8
  %8 = alloca %"struct.std::complex", align 8
  %9 = alloca %"struct.std::complex", align 8
  %10 = bitcast %struct.Line* %0 to %"class.std::vector"*
  %11 = call dereferenceable(16) %"struct.std::complex"* @_ZNKSt6vectorISt7complexIdESaIS1_EEixEm(%"class.std::vector"* %10, i64 0) #3
  %12 = call { double, double } @_ZStmiIdESt7complexIT_ERKS2_S4_(%"struct.std::complex"* dereferenceable(16) %1, %"struct.std::complex"* dereferenceable(16) %11)
  %13 = getelementptr inbounds %"struct.std::complex", %"struct.std::complex"* %5, i32 0, i32 0
  %14 = getelementptr inbounds { double, double }, { double, double }* %13, i32 0, i32 0
  %15 = extractvalue { double, double } %12, 0
  store double %15, double* %14, align 8
  %16 = getelementptr inbounds { double, double }, { double, double }* %13, i32 0, i32 1
  %17 = extractvalue { double, double } %12, 1
  store double %17, double* %16, align 8
  %18 = bitcast %struct.Line* %0 to %"class.std::vector"*
  %19 = call dereferenceable(16) %"struct.std::complex"* @_ZNKSt6vectorISt7complexIdESaIS1_EEixEm(%"class.std::vector"* %18, i64 0) #3
  %20 = bitcast %struct.Line* %0 to %"class.std::vector"*
  %21 = call dereferenceable(16) %"struct.std::complex"* @_ZNKSt6vectorISt7complexIdESaIS1_EEixEm(%"class.std::vector"* %20, i64 1) #3
  %22 = call { double, double } @_ZStmiIdESt7complexIT_ERKS2_S4_(%"struct.std::complex"* dereferenceable(16) %19, %"struct.std::complex"* dereferenceable(16) %21)
  %23 = getelementptr inbounds %"struct.std::complex", %"struct.std::complex"* %6, i32 0, i32 0
  %24 = getelementptr inbounds { double, double }, { double, double }* %23, i32 0, i32 0
  %25 = extractvalue { double, double } %22, 0
  store double %25, double* %24, align 8
  %26 = getelementptr inbounds { double, double }, { double, double }* %23, i32 0, i32 1
  %27 = extractvalue { double, double } %22, 1
  store double %27, double* %26, align 8
  %28 = call double @_Z3dotRKSt7complexIdES2_(%"struct.std::complex"* dereferenceable(16) %5, %"struct.std::complex"* dereferenceable(16) %6)
  %29 = bitcast %struct.Line* %0 to %"class.std::vector"*
  %30 = call dereferenceable(16) %"struct.std::complex"* @_ZNKSt6vectorISt7complexIdESaIS1_EEixEm(%"class.std::vector"* %29, i64 0) #3
  %31 = bitcast %struct.Line* %0 to %"class.std::vector"*
  %32 = call dereferenceable(16) %"struct.std::complex"* @_ZNKSt6vectorISt7complexIdESaIS1_EEixEm(%"class.std::vector"* %31, i64 1) #3
  %33 = call { double, double } @_ZStmiIdESt7complexIT_ERKS2_S4_(%"struct.std::complex"* dereferenceable(16) %30, %"struct.std::complex"* dereferenceable(16) %32)
  %34 = getelementptr inbounds %"struct.std::complex", %"struct.std::complex"* %7, i32 0, i32 0
  %35 = getelementptr inbounds { double, double }, { double, double }* %34, i32 0, i32 0
  %36 = extractvalue { double, double } %33, 0
  store double %36, double* %35, align 8
  %37 = getelementptr inbounds { double, double }, { double, double }* %34, i32 0, i32 1
  %38 = extractvalue { double, double } %33, 1
  store double %38, double* %37, align 8
  %39 = call double @_ZSt4normIdET_RKSt7complexIS0_E(%"struct.std::complex"* dereferenceable(16) %7)
  %40 = fdiv double %28, %39
  store double %40, double* %4, align 8
  %41 = bitcast %struct.Line* %0 to %"class.std::vector"*
  %42 = call dereferenceable(16) %"struct.std::complex"* @_ZNKSt6vectorISt7complexIdESaIS1_EEixEm(%"class.std::vector"* %41, i64 0) #3
  %43 = bitcast %struct.Line* %0 to %"class.std::vector"*
  %44 = call dereferenceable(16) %"struct.std::complex"* @_ZNKSt6vectorISt7complexIdESaIS1_EEixEm(%"class.std::vector"* %43, i64 0) #3
  %45 = bitcast %struct.Line* %0 to %"class.std::vector"*
  %46 = call dereferenceable(16) %"struct.std::complex"* @_ZNKSt6vectorISt7complexIdESaIS1_EEixEm(%"class.std::vector"* %45, i64 1) #3
  %47 = call { double, double } @_ZStmiIdESt7complexIT_ERKS2_S4_(%"struct.std::complex"* dereferenceable(16) %44, %"struct.std::complex"* dereferenceable(16) %46)
  %48 = getelementptr inbounds %"struct.std::complex", %"struct.std::complex"* %9, i32 0, i32 0
  %49 = getelementptr inbounds { double, double }, { double, double }* %48, i32 0, i32 0
  %50 = extractvalue { double, double } %47, 0
  store double %50, double* %49, align 8
  %51 = getelementptr inbounds { double, double }, { double, double }* %48, i32 0, i32 1
  %52 = extractvalue { double, double } %47, 1
  store double %52, double* %51, align 8
  %53 = call { double, double } @_ZStmlIdESt7complexIT_ERKS1_RKS2_(double* dereferenceable(8) %4, %"struct.std::complex"* dereferenceable(16) %9)
  %54 = getelementptr inbounds %"struct.std::complex", %"struct.std::complex"* %8, i32 0, i32 0
  %55 = getelementptr inbounds { double, double }, { double, double }* %54, i32 0, i32 0
  %56 = extractvalue { double, double } %53, 0
  store double %56, double* %55, align 8
  %57 = getelementptr inbounds { double, double }, { double, double }* %54, i32 0, i32 1
  %58 = extractvalue { double, double } %53, 1
  store double %58, double* %57, align 8
  %59 = call { double, double } @_ZStplIdESt7complexIT_ERKS2_S4_(%"struct.std::complex"* dereferenceable(16) %42, %"struct.std::complex"* dereferenceable(16) %8)
  %60 = getelementptr inbounds %"struct.std::complex", %"struct.std::complex"* %3, i32 0, i32 0
  %61 = getelementptr inbounds { double, double }, { double, double }* %60, i32 0, i32 0
  %62 = extractvalue { double, double } %59, 0
  store double %62, double* %61, align 8
  %63 = getelementptr inbounds { double, double }, { double, double }* %60, i32 0, i32 1
  %64 = extractvalue { double, double } %59, 1
  store double %64, double* %63, align 8
  %65 = getelementptr inbounds %"struct.std::complex", %"struct.std::complex"* %3, i32 0, i32 0
  %66 = load { double, double }, { double, double }* %65, align 8
  ret { double, double } %66
}

; Function Attrs: noinline uwtable
define linkonce_odr { double, double } @_ZStmiIdESt7complexIT_ERKS2_S4_(%"struct.std::complex"* dereferenceable(16) %0, %"struct.std::complex"* dereferenceable(16) %1) #0 comdat {
  %3 = alloca %"struct.std::complex", align 8
  %4 = bitcast %"struct.std::complex"* %3 to i8*
  %5 = bitcast %"struct.std::complex"* %0 to i8*
  call void @llvm.memcpy.p0i8.p0i8.i64(i8* align 8 %4, i8* align 8 %5, i64 16, i1 false)
  %6 = call dereferenceable(16) %"struct.std::complex"* @_ZNSt7complexIdEmIIdEERS0_RKS_IT_E(%"struct.std::complex"* %3, %"struct.std::complex"* dereferenceable(16) %1)
  %7 = getelementptr inbounds %"struct.std::complex", %"struct.std::complex"* %3, i32 0, i32 0
  %8 = load { double, double }, { double, double }* %7, align 8
  ret { double, double } %8
}

; Function Attrs: noinline nounwind uwtable
define linkonce_odr dereferenceable(16) %"struct.std::complex"* @_ZNKSt6vectorISt7complexIdESaIS1_EEixEm(%"class.std::vector"* %0, i64 %1) #4 comdat align 2 {
  %3 = bitcast %"class.std::vector"* %0 to %"struct.std::_Vector_base"*
  %4 = getelementptr inbounds %"struct.std::_Vector_base", %"struct.std::_Vector_base"* %3, i32 0, i32 0
  %5 = getelementptr inbounds %"struct.std::_Vector_base<std::complex<double>, std::allocator<std::complex<double> > >::_Vector_impl", %"struct.std::_Vector_base<std::complex<double>, std::allocator<std::complex<double> > >::_Vector_impl"* %4, i32 0, i32 0
  %6 = load %"struct.std::complex"*, %"struct.std::complex"** %5, align 8
  %7 = getelementptr inbounds %"struct.std::complex", %"struct.std::complex"* %6, i64 %1
  ret %"struct.std::complex"* %7
}

; Function Attrs: noinline uwtable
define linkonce_odr double @_ZSt4normIdET_RKSt7complexIS0_E(%"struct.std::complex"* dereferenceable(16) %0) #0 comdat {
  %2 = call double @_ZNSt12_Norm_helperILb1EE8_S_do_itIdEET_RKSt7complexIS2_E(%"struct.std::complex"* dereferenceable(16) %0)
  ret double %2
}

; Function Attrs: noinline uwtable
define linkonce_odr { double, double } @_ZStplIdESt7complexIT_ERKS2_S4_(%"struct.std::complex"* dereferenceable(16) %0, %"struct.std::complex"* dereferenceable(16) %1) #0 comdat {
  %3 = alloca %"struct.std::complex", align 8
  %4 = bitcast %"struct.std::complex"* %3 to i8*
  %5 = bitcast %"struct.std::complex"* %0 to i8*
  call void @llvm.memcpy.p0i8.p0i8.i64(i8* align 8 %4, i8* align 8 %5, i64 16, i1 false)
  %6 = call dereferenceable(16) %"struct.std::complex"* @_ZNSt7complexIdEpLIdEERS0_RKS_IT_E(%"struct.std::complex"* %3, %"struct.std::complex"* dereferenceable(16) %1)
  %7 = getelementptr inbounds %"struct.std::complex", %"struct.std::complex"* %3, i32 0, i32 0
  %8 = load { double, double }, { double, double }* %7, align 8
  ret { double, double } %8
}

; Function Attrs: noinline uwtable
define linkonce_odr { double, double } @_ZStmlIdESt7complexIT_ERKS1_RKS2_(double* dereferenceable(8) %0, %"struct.std::complex"* dereferenceable(16) %1) #0 comdat {
  %3 = alloca %"struct.std::complex", align 8
  %4 = bitcast %"struct.std::complex"* %3 to i8*
  %5 = bitcast %"struct.std::complex"* %1 to i8*
  call void @llvm.memcpy.p0i8.p0i8.i64(i8* align 8 %4, i8* align 8 %5, i64 16, i1 false)
  %6 = load double, double* %0, align 8
  %7 = call dereferenceable(16) %"struct.std::complex"* @_ZNSt7complexIdEmLEd(%"struct.std::complex"* %3, double %6)
  %8 = getelementptr inbounds %"struct.std::complex", %"struct.std::complex"* %3, i32 0, i32 0
  %9 = load { double, double }, { double, double }* %8, align 8
  ret { double, double } %9
}

; Function Attrs: noinline uwtable
define double @_Z6distLPRK4LineRKSt7complexIdE(%struct.Line* dereferenceable(24) %0, %"struct.std::complex"* dereferenceable(16) %1) #0 {
  %3 = alloca %"struct.std::complex", align 8
  %4 = alloca %"struct.std::complex", align 8
  %5 = call { double, double } @_Z10projectionRK4LineRKSt7complexIdE(%struct.Line* dereferenceable(24) %0, %"struct.std::complex"* dereferenceable(16) %1)
  %6 = getelementptr inbounds %"struct.std::complex", %"struct.std::complex"* %4, i32 0, i32 0
  %7 = getelementptr inbounds { double, double }, { double, double }* %6, i32 0, i32 0
  %8 = extractvalue { double, double } %5, 0
  store double %8, double* %7, align 8
  %9 = getelementptr inbounds { double, double }, { double, double }* %6, i32 0, i32 1
  %10 = extractvalue { double, double } %5, 1
  store double %10, double* %9, align 8
  %11 = call { double, double } @_ZStmiIdESt7complexIT_ERKS2_S4_(%"struct.std::complex"* dereferenceable(16) %1, %"struct.std::complex"* dereferenceable(16) %4)
  %12 = getelementptr inbounds %"struct.std::complex", %"struct.std::complex"* %3, i32 0, i32 0
  %13 = getelementptr inbounds { double, double }, { double, double }* %12, i32 0, i32 0
  %14 = extractvalue { double, double } %11, 0
  store double %14, double* %13, align 8
  %15 = getelementptr inbounds { double, double }, { double, double }* %12, i32 0, i32 1
  %16 = extractvalue { double, double } %11, 1
  store double %16, double* %15, align 8
  %17 = call double @_ZSt3absIdET_RKSt7complexIS0_E(%"struct.std::complex"* dereferenceable(16) %3)
  ret double %17
}

; Function Attrs: noinline uwtable
define linkonce_odr double @_ZSt3absIdET_RKSt7complexIS0_E(%"struct.std::complex"* dereferenceable(16) %0) #0 comdat {
  %2 = alloca { double, double }, align 8
  %3 = call { double, double } @_ZNKSt7complexIdE5__repEv(%"struct.std::complex"* %0)
  %4 = extractvalue { double, double } %3, 0
  %5 = extractvalue { double, double } %3, 1
  %6 = getelementptr inbounds { double, double }, { double, double }* %2, i32 0, i32 0
  %7 = getelementptr inbounds { double, double }, { double, double }* %2, i32 0, i32 1
  store double %4, double* %6, align 8
  store double %5, double* %7, align 8
  %8 = getelementptr inbounds { double, double }, { double, double }* %2, i32 0, i32 0
  %9 = load double, double* %8, align 8
  %10 = getelementptr inbounds { double, double }, { double, double }* %2, i32 0, i32 1
  %11 = load double, double* %10, align 8
  %12 = call double @_ZSt13__complex_absCd(double %9, double %11)
  ret double %12
}

; Function Attrs: noinline uwtable
define zeroext i1 @_Z11is_parallelRK4LineS1_(%struct.Line* dereferenceable(24) %0, %struct.Line* dereferenceable(24) %1) #0 {
  %3 = alloca %"struct.std::complex", align 8
  %4 = alloca %"struct.std::complex", align 8
  %5 = bitcast %struct.Line* %0 to %"class.std::vector"*
  %6 = call dereferenceable(16) %"struct.std::complex"* @_ZNKSt6vectorISt7complexIdESaIS1_EEixEm(%"class.std::vector"* %5, i64 1) #3
  %7 = bitcast %struct.Line* %0 to %"class.std::vector"*
  %8 = call dereferenceable(16) %"struct.std::complex"* @_ZNKSt6vectorISt7complexIdESaIS1_EEixEm(%"class.std::vector"* %7, i64 0) #3
  %9 = call { double, double } @_ZStmiIdESt7complexIT_ERKS2_S4_(%"struct.std::complex"* dereferenceable(16) %6, %"struct.std::complex"* dereferenceable(16) %8)
  %10 = getelementptr inbounds %"struct.std::complex", %"struct.std::complex"* %3, i32 0, i32 0
  %11 = getelementptr inbounds { double, double }, { double, double }* %10, i32 0, i32 0
  %12 = extractvalue { double, double } %9, 0
  store double %12, double* %11, align 8
  %13 = getelementptr inbounds { double, double }, { double, double }* %10, i32 0, i32 1
  %14 = extractvalue { double, double } %9, 1
  store double %14, double* %13, align 8
  %15 = bitcast %struct.Line* %1 to %"class.std::vector"*
  %16 = call dereferenceable(16) %"struct.std::complex"* @_ZNKSt6vectorISt7complexIdESaIS1_EEixEm(%"class.std::vector"* %15, i64 1) #3
  %17 = bitcast %struct.Line* %1 to %"class.std::vector"*
  %18 = call dereferenceable(16) %"struct.std::complex"* @_ZNKSt6vectorISt7complexIdESaIS1_EEixEm(%"class.std::vector"* %17, i64 0) #3
  %19 = call { double, double } @_ZStmiIdESt7complexIT_ERKS2_S4_(%"struct.std::complex"* dereferenceable(16) %16, %"struct.std::complex"* dereferenceable(16) %18)
  %20 = getelementptr inbounds %"struct.std::complex", %"struct.std::complex"* %4, i32 0, i32 0
  %21 = getelementptr inbounds { double, double }, { double, double }* %20, i32 0, i32 0
  %22 = extractvalue { double, double } %19, 0
  store double %22, double* %21, align 8
  %23 = getelementptr inbounds { double, double }, { double, double }* %20, i32 0, i32 1
  %24 = extractvalue { double, double } %19, 1
  store double %24, double* %23, align 8
  %25 = call double @_Z5crossRKSt7complexIdES2_(%"struct.std::complex"* dereferenceable(16) %3, %"struct.std::complex"* dereferenceable(16) %4)
  %26 = call double @_ZSt3absd(double %25)
  %27 = fcmp olt double %26, 1.000000e-08
  ret i1 %27
}

; Function Attrs: noinline uwtable
define { double, double } @_Z10crosspointRK4LineS1_(%struct.Line* dereferenceable(24) %0, %struct.Line* dereferenceable(24) %1) #0 {
  %3 = alloca %"struct.std::complex", align 8
  %4 = alloca %"struct.std::complex", align 8
  %5 = alloca %"struct.std::complex", align 8
  %6 = alloca %"struct.std::complex", align 8
  %7 = alloca %"struct.std::complex", align 8
  %8 = alloca %"struct.std::complex", align 8
  %9 = alloca double, align 8
  %10 = alloca %"struct.std::complex", align 8
  %11 = bitcast %struct.Line* %0 to %"class.std::vector"*
  %12 = call dereferenceable(16) %"struct.std::complex"* @_ZNKSt6vectorISt7complexIdESaIS1_EEixEm(%"class.std::vector"* %11, i64 1) #3
  %13 = bitcast %struct.Line* %0 to %"class.std::vector"*
  %14 = call dereferenceable(16) %"struct.std::complex"* @_ZNKSt6vectorISt7complexIdESaIS1_EEixEm(%"class.std::vector"* %13, i64 0) #3
  %15 = call { double, double } @_ZStmiIdESt7complexIT_ERKS2_S4_(%"struct.std::complex"* dereferenceable(16) %12, %"struct.std::complex"* dereferenceable(16) %14)
  %16 = getelementptr inbounds %"struct.std::complex", %"struct.std::complex"* %4, i32 0, i32 0
  %17 = getelementptr inbounds { double, double }, { double, double }* %16, i32 0, i32 0
  %18 = extractvalue { double, double } %15, 0
  store double %18, double* %17, align 8
  %19 = getelementptr inbounds { double, double }, { double, double }* %16, i32 0, i32 1
  %20 = extractvalue { double, double } %15, 1
  store double %20, double* %19, align 8
  %21 = bitcast %struct.Line* %1 to %"class.std::vector"*
  %22 = call dereferenceable(16) %"struct.std::complex"* @_ZNKSt6vectorISt7complexIdESaIS1_EEixEm(%"class.std::vector"* %21, i64 1) #3
  %23 = bitcast %struct.Line* %1 to %"class.std::vector"*
  %24 = call dereferenceable(16) %"struct.std::complex"* @_ZNKSt6vectorISt7complexIdESaIS1_EEixEm(%"class.std::vector"* %23, i64 0) #3
  %25 = call { double, double } @_ZStmiIdESt7complexIT_ERKS2_S4_(%"struct.std::complex"* dereferenceable(16) %22, %"struct.std::complex"* dereferenceable(16) %24)
  %26 = getelementptr inbounds %"struct.std::complex", %"struct.std::complex"* %5, i32 0, i32 0
  %27 = getelementptr inbounds { double, double }, { double, double }* %26, i32 0, i32 0
  %28 = extractvalue { double, double } %25, 0
  store double %28, double* %27, align 8
  %29 = getelementptr inbounds { double, double }, { double, double }* %26, i32 0, i32 1
  %30 = extractvalue { double, double } %25, 1
  store double %30, double* %29, align 8
  %31 = call double @_Z5crossRKSt7complexIdES2_(%"struct.std::complex"* dereferenceable(16) %4, %"struct.std::complex"* dereferenceable(16) %5)
  %32 = bitcast %struct.Line* %0 to %"class.std::vector"*
  %33 = call dereferenceable(16) %"struct.std::complex"* @_ZNKSt6vectorISt7complexIdESaIS1_EEixEm(%"class.std::vector"* %32, i64 1) #3
  %34 = bitcast %struct.Line* %0 to %"class.std::vector"*
  %35 = call dereferenceable(16) %"struct.std::complex"* @_ZNKSt6vectorISt7complexIdESaIS1_EEixEm(%"class.std::vector"* %34, i64 0) #3
  %36 = call { double, double } @_ZStmiIdESt7complexIT_ERKS2_S4_(%"struct.std::complex"* dereferenceable(16) %33, %"struct.std::complex"* dereferenceable(16) %35)
  %37 = getelementptr inbounds %"struct.std::complex", %"struct.std::complex"* %6, i32 0, i32 0
  %38 = getelementptr inbounds { double, double }, { double, double }* %37, i32 0, i32 0
  %39 = extractvalue { double, double } %36, 0
  store double %39, double* %38, align 8
  %40 = getelementptr inbounds { double, double }, { double, double }* %37, i32 0, i32 1
  %41 = extractvalue { double, double } %36, 1
  store double %41, double* %40, align 8
  %42 = bitcast %struct.Line* %0 to %"class.std::vector"*
  %43 = call dereferenceable(16) %"struct.std::complex"* @_ZNKSt6vectorISt7complexIdESaIS1_EEixEm(%"class.std::vector"* %42, i64 1) #3
  %44 = bitcast %struct.Line* %1 to %"class.std::vector"*
  %45 = call dereferenceable(16) %"struct.std::complex"* @_ZNKSt6vectorISt7complexIdESaIS1_EEixEm(%"class.std::vector"* %44, i64 0) #3
  %46 = call { double, double } @_ZStmiIdESt7complexIT_ERKS2_S4_(%"struct.std::complex"* dereferenceable(16) %43, %"struct.std::complex"* dereferenceable(16) %45)
  %47 = getelementptr inbounds %"struct.std::complex", %"struct.std::complex"* %7, i32 0, i32 0
  %48 = getelementptr inbounds { double, double }, { double, double }* %47, i32 0, i32 0
  %49 = extractvalue { double, double } %46, 0
  store double %49, double* %48, align 8
  %50 = getelementptr inbounds { double, double }, { double, double }* %47, i32 0, i32 1
  %51 = extractvalue { double, double } %46, 1
  store double %51, double* %50, align 8
  %52 = call double @_Z5crossRKSt7complexIdES2_(%"struct.std::complex"* dereferenceable(16) %6, %"struct.std::complex"* dereferenceable(16) %7)
  %53 = bitcast %struct.Line* %1 to %"class.std::vector"*
  %54 = call dereferenceable(16) %"struct.std::complex"* @_ZNKSt6vectorISt7complexIdESaIS1_EEixEm(%"class.std::vector"* %53, i64 0) #3
  %55 = fdiv double %52, %31
  store double %55, double* %9, align 8
  %56 = bitcast %struct.Line* %1 to %"class.std::vector"*
  %57 = call dereferenceable(16) %"struct.std::complex"* @_ZNKSt6vectorISt7complexIdESaIS1_EEixEm(%"class.std::vector"* %56, i64 1) #3
  %58 = bitcast %struct.Line* %1 to %"class.std::vector"*
  %59 = call dereferenceable(16) %"struct.std::complex"* @_ZNKSt6vectorISt7complexIdESaIS1_EEixEm(%"class.std::vector"* %58, i64 0) #3
  %60 = call { double, double } @_ZStmiIdESt7complexIT_ERKS2_S4_(%"struct.std::complex"* dereferenceable(16) %57, %"struct.std::complex"* dereferenceable(16) %59)
  %61 = getelementptr inbounds %"struct.std::complex", %"struct.std::complex"* %10, i32 0, i32 0
  %62 = getelementptr inbounds { double, double }, { double, double }* %61, i32 0, i32 0
  %63 = extractvalue { double, double } %60, 0
  store double %63, double* %62, align 8
  %64 = getelementptr inbounds { double, double }, { double, double }* %61, i32 0, i32 1
  %65 = extractvalue { double, double } %60, 1
  store double %65, double* %64, align 8
  %66 = call { double, double } @_ZStmlIdESt7complexIT_ERKS1_RKS2_(double* dereferenceable(8) %9, %"struct.std::complex"* dereferenceable(16) %10)
  %67 = getelementptr inbounds %"struct.std::complex", %"struct.std::complex"* %8, i32 0, i32 0
  %68 = getelementptr inbounds { double, double }, { double, double }* %67, i32 0, i32 0
  %69 = extractvalue { double, double } %66, 0
  store double %69, double* %68, align 8
  %70 = getelementptr inbounds { double, double }, { double, double }* %67, i32 0, i32 1
  %71 = extractvalue { double, double } %66, 1
  store double %71, double* %70, align 8
  %72 = call { double, double } @_ZStplIdESt7complexIT_ERKS2_S4_(%"struct.std::complex"* dereferenceable(16) %54, %"struct.std::complex"* dereferenceable(16) %8)
  %73 = getelementptr inbounds %"struct.std::complex", %"struct.std::complex"* %3, i32 0, i32 0
  %74 = getelementptr inbounds { double, double }, { double, double }* %73, i32 0, i32 0
  %75 = extractvalue { double, double } %72, 0
  store double %75, double* %74, align 8
  %76 = getelementptr inbounds { double, double }, { double, double }* %73, i32 0, i32 1
  %77 = extractvalue { double, double } %72, 1
  store double %77, double* %76, align 8
  %78 = getelementptr inbounds %"struct.std::complex", %"struct.std::complex"* %3, i32 0, i32 0
  %79 = load { double, double }, { double, double }* %78, align 8
  ret { double, double } %79
}

; Function Attrs: noinline norecurse uwtable
define i32 @main() #5 personality i8* bitcast (i32 (...)* @__gxx_personality_v0 to i8*) {
  %1 = alloca i32, align 4
  %2 = alloca i32, align 4
  %3 = alloca i32, align 4
  %4 = alloca i32, align 4
  %5 = alloca i32, align 4
  %6 = alloca %"struct.std::_Setprecision", align 4
  %7 = alloca %"class.std::vector.0", align 8
  %8 = alloca %struct.Line, align 8
  %9 = alloca %"struct.std::complex", align 8
  %10 = alloca %"struct.std::complex", align 8
  %11 = alloca %"class.std::vector", align 8
  %12 = alloca %"class.std::vector", align 8
  %13 = alloca %"class.std::vector.0", align 8
  %14 = alloca %"class.std::vector.5", align 8
  %15 = alloca %"struct.std::complex", align 8
  %16 = alloca %"struct.std::complex", align 8
  %17 = alloca %"struct.std::complex", align 8
  %18 = alloca %struct.Line, align 8
  %19 = alloca %"struct.std::complex", align 8
  %20 = alloca %"struct.std::complex", align 8
  %21 = alloca %struct.Line, align 8
  %22 = alloca %"struct.std::complex", align 8
  %23 = alloca %"struct.std::complex", align 8
  %24 = alloca %"struct.std::complex", align 8
  %25 = alloca %struct.Line, align 8
  %26 = alloca %"struct.std::complex", align 8
  %27 = alloca %"struct.std::complex", align 8
  %28 = alloca %"struct.std::complex", align 8
  %29 = alloca double, align 8
  %30 = alloca %"class.__gnu_cxx::__normal_iterator.10", align 8
  %31 = alloca %"class.__gnu_cxx::__normal_iterator", align 8
  %32 = alloca %"class.__gnu_cxx::__normal_iterator", align 8
  %33 = alloca %"class.__gnu_cxx::__normal_iterator", align 8
  %34 = alloca %"class.__gnu_cxx::__normal_iterator.12", align 8
  %35 = alloca %"class.__gnu_cxx::__normal_iterator.11", align 8
  %36 = alloca %"class.__gnu_cxx::__normal_iterator.11", align 8
  %37 = alloca %"class.__gnu_cxx::__normal_iterator.11", align 8
  %38 = call dereferenceable(272) %"class.std::basic_ostream"* @_ZNSolsEPFRSt8ios_baseS0_E(%"class.std::basic_ostream"* @_ZSt4cout, %"class.std::ios_base"* (%"class.std::ios_base"*)* @_ZSt5fixedRSt8ios_base)
  %39 = call i32 @_ZSt12setprecisioni(i32 5)
  %40 = getelementptr inbounds %"struct.std::_Setprecision", %"struct.std::_Setprecision"* %6, i32 0, i32 0
  store i32 %39, i32* %40, align 4
  %41 = getelementptr inbounds %"struct.std::_Setprecision", %"struct.std::_Setprecision"* %6, i32 0, i32 0
  %42 = load i32, i32* %41, align 4
  %43 = call dereferenceable(272) %"class.std::basic_ostream"* @_ZStlsIcSt11char_traitsIcEERSt13basic_ostreamIT_T0_ES6_St13_Setprecision(%"class.std::basic_ostream"* dereferenceable(272) %38, i32 %42)
  br label %44

44:                                               ; preds = %416, %415, %0
  %45 = call dereferenceable(280) %"class.std::basic_istream"* @_ZNSirsERi(%"class.std::basic_istream"* @_ZSt3cin, i32* dereferenceable(4) %1)
  %46 = bitcast %"class.std::basic_istream"* %45 to i8**
  %47 = load i8*, i8** %46, align 8
  %48 = getelementptr i8, i8* %47, i64 -24
  %49 = bitcast i8* %48 to i64*
  %50 = load i64, i64* %49, align 8
  %51 = bitcast %"class.std::basic_istream"* %45 to i8*
  %52 = getelementptr inbounds i8, i8* %51, i64 %50
  %53 = bitcast i8* %52 to %"class.std::basic_ios"*
  %54 = call zeroext i1 @_ZNKSt9basic_iosIcSt11char_traitsIcEEcvbEv(%"class.std::basic_ios"* %53)
  br i1 %54, label %55, label %58

55:                                               ; preds = %44
  %56 = load i32, i32* %1, align 4
  %57 = icmp ne i32 %56, 0
  br label %58

58:                                               ; preds = %55, %44
  %59 = phi i1 [ false, %44 ], [ %57, %55 ]
  br i1 %59, label %60, label %419

60:                                               ; preds = %58
  call void @_ZNSt6vectorI4LineSaIS0_EEC2Ev(%"class.std::vector.0"* %7) #3
  br label %61

61:                                               ; preds = %85, %60
  %.01 = phi i32 [ 0, %60 ], [ %86, %85 ]
  %62 = load i32, i32* %1, align 4
  %63 = icmp slt i32 %.01, %62
  br i1 %63, label %64, label %95

64:                                               ; preds = %61
  %65 = invoke dereferenceable(280) %"class.std::basic_istream"* @_ZNSirsERi(%"class.std::basic_istream"* @_ZSt3cin, i32* dereferenceable(4) %2)
          to label %66 unwind label %87

66:                                               ; preds = %64
  %67 = invoke dereferenceable(280) %"class.std::basic_istream"* @_ZNSirsERi(%"class.std::basic_istream"* %65, i32* dereferenceable(4) %3)
          to label %68 unwind label %87

68:                                               ; preds = %66
  %69 = invoke dereferenceable(280) %"class.std::basic_istream"* @_ZNSirsERi(%"class.std::basic_istream"* %67, i32* dereferenceable(4) %4)
          to label %70 unwind label %87

70:                                               ; preds = %68
  %71 = invoke dereferenceable(280) %"class.std::basic_istream"* @_ZNSirsERi(%"class.std::basic_istream"* %69, i32* dereferenceable(4) %5)
          to label %72 unwind label %87

72:                                               ; preds = %70
  %73 = load i32, i32* %2, align 4
  %74 = sitofp i32 %73 to double
  %75 = load i32, i32* %3, align 4
  %76 = sitofp i32 %75 to double
  invoke void @_ZNSt7complexIdEC2Edd(%"struct.std::complex"* %9, double %74, double %76)
          to label %77 unwind label %87

77:                                               ; preds = %72
  %78 = load i32, i32* %4, align 4
  %79 = sitofp i32 %78 to double
  %80 = load i32, i32* %5, align 4
  %81 = sitofp i32 %80 to double
  invoke void @_ZNSt7complexIdEC2Edd(%"struct.std::complex"* %10, double %79, double %81)
          to label %82 unwind label %87

82:                                               ; preds = %77
  invoke void @_ZN4LineC2ERKSt7complexIdES3_(%struct.Line* %8, %"struct.std::complex"* dereferenceable(16) %9, %"struct.std::complex"* dereferenceable(16) %10)
          to label %83 unwind label %87

83:                                               ; preds = %82
  invoke void @_ZNSt6vectorI4LineSaIS0_EE9push_backEOS0_(%"class.std::vector.0"* %7, %struct.Line* dereferenceable(24) %8)
          to label %84 unwind label %91

84:                                               ; preds = %83
  call void @_ZN4LineD2Ev(%struct.Line* %8) #3
  br label %85

85:                                               ; preds = %84
  %86 = add nsw i32 %.01, 1
  br label %61

87:                                               ; preds = %100, %98, %82, %77, %72, %70, %68, %66, %64
  %88 = landingpad { i8*, i32 }
          cleanup
  %89 = extractvalue { i8*, i32 } %88, 0
  %90 = extractvalue { i8*, i32 } %88, 1
  br label %418

91:                                               ; preds = %83
  %92 = landingpad { i8*, i32 }
          cleanup
  %93 = extractvalue { i8*, i32 } %92, 0
  %94 = extractvalue { i8*, i32 } %92, 1
  call void @_ZN4LineD2Ev(%struct.Line* %8) #3
  br label %418

95:                                               ; preds = %61
  %96 = load i32, i32* %1, align 4
  %97 = icmp slt i32 %96, 3
  br i1 %97, label %98, label %103

98:                                               ; preds = %95
  %99 = invoke dereferenceable(272) %"class.std::basic_ostream"* @_ZStlsISt11char_traitsIcEERSt13basic_ostreamIcT_ES5_PKc(%"class.std::basic_ostream"* dereferenceable(272) @_ZSt4cout, i8* getelementptr inbounds ([5 x i8], [5 x i8]* @.str, i32 0, i32 0))
          to label %100 unwind label %87

100:                                              ; preds = %98
  %101 = invoke dereferenceable(272) %"class.std::basic_ostream"* @_ZNSolsEPFRSoS_E(%"class.std::basic_ostream"* %99, %"class.std::basic_ostream"* (%"class.std::basic_ostream"*)* @_ZSt4endlIcSt11char_traitsIcEERSt13basic_ostreamIT_T0_ES6_)
          to label %102 unwind label %87

102:                                              ; preds = %100
  br label %415

103:                                              ; preds = %95
  call void @_ZNSt6vectorISt7complexIdESaIS1_EEC2Ev(%"class.std::vector"* %11) #3
  call void @_ZNSt6vectorISt7complexIdESaIS1_EEC2Ev(%"class.std::vector"* %12) #3
  call void @_ZNSt6vectorI4LineSaIS0_EEC2Ev(%"class.std::vector.0"* %13) #3
  call void @_ZNSt6vectorIdSaIdEEC2Ev(%"class.std::vector.5"* %14) #3
  br label %104

104:                                              ; preds = %245, %103
  %.07 = phi i32 [ 0, %103 ], [ %246, %245 ]
  %105 = icmp slt i32 %.07, 3
  br i1 %105, label %106, label %247

106:                                              ; preds = %104
  %107 = sext i32 %.07 to i64
  %108 = call dereferenceable(24) %struct.Line* @_ZNSt6vectorI4LineSaIS0_EEixEm(%"class.std::vector.0"* %7, i64 %107) #3
  %109 = add nsw i32 %.07, 1
  %110 = srem i32 %109, 3
  %111 = sext i32 %110 to i64
  %112 = call dereferenceable(24) %struct.Line* @_ZNSt6vectorI4LineSaIS0_EEixEm(%"class.std::vector.0"* %7, i64 %111) #3
  %113 = invoke zeroext i1 @_Z11is_parallelRK4LineS1_(%struct.Line* dereferenceable(24) %108, %struct.Line* dereferenceable(24) %112)
          to label %114 unwind label %186

114:                                              ; preds = %106
  br i1 %113, label %198, label %115

115:                                              ; preds = %114
  %116 = bitcast %struct.Line* %108 to %"class.std::vector"*
  %117 = call dereferenceable(16) %"struct.std::complex"* @_ZNSt6vectorISt7complexIdESaIS1_EEixEm(%"class.std::vector"* %116, i64 1) #3
  %118 = bitcast %struct.Line* %108 to %"class.std::vector"*
  %119 = call dereferenceable(16) %"struct.std::complex"* @_ZNSt6vectorISt7complexIdESaIS1_EEixEm(%"class.std::vector"* %118, i64 0) #3
  %120 = invoke { double, double } @_ZStmiIdESt7complexIT_ERKS2_S4_(%"struct.std::complex"* dereferenceable(16) %117, %"struct.std::complex"* dereferenceable(16) %119)
          to label %121 unwind label %186

121:                                              ; preds = %115
  %122 = getelementptr inbounds %"struct.std::complex", %"struct.std::complex"* %15, i32 0, i32 0
  %123 = getelementptr inbounds { double, double }, { double, double }* %122, i32 0, i32 0
  %124 = extractvalue { double, double } %120, 0
  store double %124, double* %123, align 8
  %125 = getelementptr inbounds { double, double }, { double, double }* %122, i32 0, i32 1
  %126 = extractvalue { double, double } %120, 1
  store double %126, double* %125, align 8
  %127 = bitcast %struct.Line* %112 to %"class.std::vector"*
  %128 = call dereferenceable(16) %"struct.std::complex"* @_ZNSt6vectorISt7complexIdESaIS1_EEixEm(%"class.std::vector"* %127, i64 1) #3
  %129 = bitcast %struct.Line* %112 to %"class.std::vector"*
  %130 = call dereferenceable(16) %"struct.std::complex"* @_ZNSt6vectorISt7complexIdESaIS1_EEixEm(%"class.std::vector"* %129, i64 0) #3
  %131 = invoke { double, double } @_ZStmiIdESt7complexIT_ERKS2_S4_(%"struct.std::complex"* dereferenceable(16) %128, %"struct.std::complex"* dereferenceable(16) %130)
          to label %132 unwind label %186

132:                                              ; preds = %121
  %133 = getelementptr inbounds %"struct.std::complex", %"struct.std::complex"* %16, i32 0, i32 0
  %134 = getelementptr inbounds { double, double }, { double, double }* %133, i32 0, i32 0
  %135 = extractvalue { double, double } %131, 0
  store double %135, double* %134, align 8
  %136 = getelementptr inbounds { double, double }, { double, double }* %133, i32 0, i32 1
  %137 = extractvalue { double, double } %131, 1
  store double %137, double* %136, align 8
  %138 = invoke double @_ZSt3absIdET_RKSt7complexIS0_E(%"struct.std::complex"* dereferenceable(16) %15)
          to label %139 unwind label %186

139:                                              ; preds = %132
  %140 = invoke dereferenceable(16) %"struct.std::complex"* @_ZNSt7complexIdEdVEd(%"struct.std::complex"* %15, double %138)
          to label %141 unwind label %186

141:                                              ; preds = %139
  %142 = invoke double @_ZSt3absIdET_RKSt7complexIS0_E(%"struct.std::complex"* dereferenceable(16) %16)
          to label %143 unwind label %186

143:                                              ; preds = %141
  %144 = invoke dereferenceable(16) %"struct.std::complex"* @_ZNSt7complexIdEdVEd(%"struct.std::complex"* %16, double %142)
          to label %145 unwind label %186

145:                                              ; preds = %143
  %146 = invoke { double, double } @_Z10crosspointRK4LineS1_(%struct.Line* dereferenceable(24) %108, %struct.Line* dereferenceable(24) %112)
          to label %147 unwind label %186

147:                                              ; preds = %145
  %148 = getelementptr inbounds %"struct.std::complex", %"struct.std::complex"* %17, i32 0, i32 0
  %149 = getelementptr inbounds { double, double }, { double, double }* %148, i32 0, i32 0
  %150 = extractvalue { double, double } %146, 0
  store double %150, double* %149, align 8
  %151 = getelementptr inbounds { double, double }, { double, double }* %148, i32 0, i32 1
  %152 = extractvalue { double, double } %146, 1
  store double %152, double* %151, align 8
  %153 = invoke { double, double } @_ZStplIdESt7complexIT_ERKS2_S4_(%"struct.std::complex"* dereferenceable(16) %17, %"struct.std::complex"* dereferenceable(16) %15)
          to label %154 unwind label %186

154:                                              ; preds = %147
  %155 = getelementptr inbounds %"struct.std::complex", %"struct.std::complex"* %20, i32 0, i32 0
  %156 = getelementptr inbounds { double, double }, { double, double }* %155, i32 0, i32 0
  %157 = extractvalue { double, double } %153, 0
  store double %157, double* %156, align 8
  %158 = getelementptr inbounds { double, double }, { double, double }* %155, i32 0, i32 1
  %159 = extractvalue { double, double } %153, 1
  store double %159, double* %158, align 8
  %160 = invoke { double, double } @_ZStplIdESt7complexIT_ERKS2_S4_(%"struct.std::complex"* dereferenceable(16) %20, %"struct.std::complex"* dereferenceable(16) %16)
          to label %161 unwind label %186

161:                                              ; preds = %154
  %162 = getelementptr inbounds %"struct.std::complex", %"struct.std::complex"* %19, i32 0, i32 0
  %163 = getelementptr inbounds { double, double }, { double, double }* %162, i32 0, i32 0
  %164 = extractvalue { double, double } %160, 0
  store double %164, double* %163, align 8
  %165 = getelementptr inbounds { double, double }, { double, double }* %162, i32 0, i32 1
  %166 = extractvalue { double, double } %160, 1
  store double %166, double* %165, align 8
  invoke void @_ZN4LineC2ERKSt7complexIdES3_(%struct.Line* %18, %"struct.std::complex"* dereferenceable(16) %17, %"struct.std::complex"* dereferenceable(16) %19)
          to label %167 unwind label %186

167:                                              ; preds = %161
  invoke void @_ZNSt6vectorI4LineSaIS0_EE9push_backEOS0_(%"class.std::vector.0"* %13, %struct.Line* dereferenceable(24) %18)
          to label %168 unwind label %190

168:                                              ; preds = %167
  call void @_ZN4LineD2Ev(%struct.Line* %18) #3
  %169 = invoke { double, double } @_ZStplIdESt7complexIT_ERKS2_S4_(%"struct.std::complex"* dereferenceable(16) %17, %"struct.std::complex"* dereferenceable(16) %15)
          to label %170 unwind label %186

170:                                              ; preds = %168
  %171 = getelementptr inbounds %"struct.std::complex", %"struct.std::complex"* %23, i32 0, i32 0
  %172 = getelementptr inbounds { double, double }, { double, double }* %171, i32 0, i32 0
  %173 = extractvalue { double, double } %169, 0
  store double %173, double* %172, align 8
  %174 = getelementptr inbounds { double, double }, { double, double }* %171, i32 0, i32 1
  %175 = extractvalue { double, double } %169, 1
  store double %175, double* %174, align 8
  %176 = invoke { double, double } @_ZStmiIdESt7complexIT_ERKS2_S4_(%"struct.std::complex"* dereferenceable(16) %23, %"struct.std::complex"* dereferenceable(16) %16)
          to label %177 unwind label %186

177:                                              ; preds = %170
  %178 = getelementptr inbounds %"struct.std::complex", %"struct.std::complex"* %22, i32 0, i32 0
  %179 = getelementptr inbounds { double, double }, { double, double }* %178, i32 0, i32 0
  %180 = extractvalue { double, double } %176, 0
  store double %180, double* %179, align 8
  %181 = getelementptr inbounds { double, double }, { double, double }* %178, i32 0, i32 1
  %182 = extractvalue { double, double } %176, 1
  store double %182, double* %181, align 8
  invoke void @_ZN4LineC2ERKSt7complexIdES3_(%struct.Line* %21, %"struct.std::complex"* dereferenceable(16) %17, %"struct.std::complex"* dereferenceable(16) %22)
          to label %183 unwind label %186

183:                                              ; preds = %177
  invoke void @_ZNSt6vectorI4LineSaIS0_EE9push_backEOS0_(%"class.std::vector.0"* %13, %struct.Line* dereferenceable(24) %21)
          to label %184 unwind label %194

184:                                              ; preds = %183
  call void @_ZN4LineD2Ev(%struct.Line* %21) #3
  invoke void @_ZNSt6vectorISt7complexIdESaIS1_EE9push_backERKS1_(%"class.std::vector"* %12, %"struct.std::complex"* dereferenceable(16) %17)
          to label %185 unwind label %186

185:                                              ; preds = %184
  br label %244

186:                                              ; preds = %411, %409, %403, %401, %398, %396, %394, %391, %385, %383, %361, %352, %347, %338, %325, %320, %307, %296, %282, %266, %258, %232, %223, %219, %216, %212, %206, %202, %198, %184, %177, %170, %168, %161, %154, %147, %145, %143, %141, %139, %132, %121, %115, %106
  %187 = landingpad { i8*, i32 }
          cleanup
  %188 = extractvalue { i8*, i32 } %187, 0
  %189 = extractvalue { i8*, i32 } %187, 1
  br label %417

190:                                              ; preds = %167
  %191 = landingpad { i8*, i32 }
          cleanup
  %192 = extractvalue { i8*, i32 } %191, 0
  %193 = extractvalue { i8*, i32 } %191, 1
  call void @_ZN4LineD2Ev(%struct.Line* %18) #3
  br label %417

194:                                              ; preds = %183
  %195 = landingpad { i8*, i32 }
          cleanup
  %196 = extractvalue { i8*, i32 } %195, 0
  %197 = extractvalue { i8*, i32 } %195, 1
  call void @_ZN4LineD2Ev(%struct.Line* %21) #3
  br label %417

198:                                              ; preds = %114
  %199 = bitcast %struct.Line* %108 to %"class.std::vector"*
  %200 = call dereferenceable(16) %"struct.std::complex"* @_ZNSt6vectorISt7complexIdESaIS1_EEixEm(%"class.std::vector"* %199, i64 0) #3
  %201 = invoke double @_ZSt4realIdET_RKSt7complexIS0_E(%"struct.std::complex"* dereferenceable(16) %200)
          to label %202 unwind label %186

202:                                              ; preds = %198
  %203 = bitcast %struct.Line* %112 to %"class.std::vector"*
  %204 = call dereferenceable(16) %"struct.std::complex"* @_ZNSt6vectorISt7complexIdESaIS1_EEixEm(%"class.std::vector"* %203, i64 0) #3
  %205 = invoke double @_ZSt4realIdET_RKSt7complexIS0_E(%"struct.std::complex"* dereferenceable(16) %204)
          to label %206 unwind label %186

206:                                              ; preds = %202
  %207 = fadd double %201, %205
  %208 = fdiv double %207, 2.000000e+00
  %209 = bitcast %struct.Line* %108 to %"class.std::vector"*
  %210 = call dereferenceable(16) %"struct.std::complex"* @_ZNSt6vectorISt7complexIdESaIS1_EEixEm(%"class.std::vector"* %209, i64 0) #3
  %211 = invoke double @_ZSt4imagIdET_RKSt7complexIS0_E(%"struct.std::complex"* dereferenceable(16) %210)
          to label %212 unwind label %186

212:                                              ; preds = %206
  %213 = bitcast %struct.Line* %112 to %"class.std::vector"*
  %214 = call dereferenceable(16) %"struct.std::complex"* @_ZNSt6vectorISt7complexIdESaIS1_EEixEm(%"class.std::vector"* %213, i64 0) #3
  %215 = invoke double @_ZSt4imagIdET_RKSt7complexIS0_E(%"struct.std::complex"* dereferenceable(16) %214)
          to label %216 unwind label %186

216:                                              ; preds = %212
  %217 = fadd double %211, %215
  %218 = fdiv double %217, 2.000000e+00
  invoke void @_ZNSt7complexIdEC2Edd(%"struct.std::complex"* %24, double %208, double %218)
          to label %219 unwind label %186

219:                                              ; preds = %216
  %220 = bitcast %struct.Line* %108 to %"class.std::vector"*
  %221 = call dereferenceable(16) %"struct.std::complex"* @_ZNSt6vectorISt7complexIdESaIS1_EEixEm(%"class.std::vector"* %220, i64 1) #3
  %222 = invoke { double, double } @_ZStplIdESt7complexIT_ERKS2_S4_(%"struct.std::complex"* dereferenceable(16) %24, %"struct.std::complex"* dereferenceable(16) %221)
          to label %223 unwind label %186

223:                                              ; preds = %219
  %224 = getelementptr inbounds %"struct.std::complex", %"struct.std::complex"* %27, i32 0, i32 0
  %225 = getelementptr inbounds { double, double }, { double, double }* %224, i32 0, i32 0
  %226 = extractvalue { double, double } %222, 0
  store double %226, double* %225, align 8
  %227 = getelementptr inbounds { double, double }, { double, double }* %224, i32 0, i32 1
  %228 = extractvalue { double, double } %222, 1
  store double %228, double* %227, align 8
  %229 = bitcast %struct.Line* %108 to %"class.std::vector"*
  %230 = call dereferenceable(16) %"struct.std::complex"* @_ZNSt6vectorISt7complexIdESaIS1_EEixEm(%"class.std::vector"* %229, i64 0) #3
  %231 = invoke { double, double } @_ZStmiIdESt7complexIT_ERKS2_S4_(%"struct.std::complex"* dereferenceable(16) %27, %"struct.std::complex"* dereferenceable(16) %230)
          to label %232 unwind label %186

232:                                              ; preds = %223
  %233 = getelementptr inbounds %"struct.std::complex", %"struct.std::complex"* %26, i32 0, i32 0
  %234 = getelementptr inbounds { double, double }, { double, double }* %233, i32 0, i32 0
  %235 = extractvalue { double, double } %231, 0
  store double %235, double* %234, align 8
  %236 = getelementptr inbounds { double, double }, { double, double }* %233, i32 0, i32 1
  %237 = extractvalue { double, double } %231, 1
  store double %237, double* %236, align 8
  invoke void @_ZN4LineC2ERKSt7complexIdES3_(%struct.Line* %25, %"struct.std::complex"* dereferenceable(16) %24, %"struct.std::complex"* dereferenceable(16) %26)
          to label %238 unwind label %186

238:                                              ; preds = %232
  invoke void @_ZNSt6vectorI4LineSaIS0_EE9push_backEOS0_(%"class.std::vector.0"* %13, %struct.Line* dereferenceable(24) %25)
          to label %239 unwind label %240

239:                                              ; preds = %238
  call void @_ZN4LineD2Ev(%struct.Line* %25) #3
  br label %244

240:                                              ; preds = %238
  %241 = landingpad { i8*, i32 }
          cleanup
  %242 = extractvalue { i8*, i32 } %241, 0
  %243 = extractvalue { i8*, i32 } %241, 1
  call void @_ZN4LineD2Ev(%struct.Line* %25) #3
  br label %417

244:                                              ; preds = %239, %185
  br label %245

245:                                              ; preds = %244
  %246 = add nsw i32 %.07, 1
  br label %104

247:                                              ; preds = %104
  br label %248

248:                                              ; preds = %313, %247
  %.010 = phi i32 [ 0, %247 ], [ %314, %313 ]
  %249 = sext i32 %.010 to i64
  %250 = call i64 @_ZNKSt6vectorI4LineSaIS0_EE4sizeEv(%"class.std::vector.0"* %13) #3
  %251 = icmp ult i64 %249, %250
  br i1 %251, label %252, label %315

252:                                              ; preds = %248
  %253 = add nsw i32 %.010, 1
  br label %254

254:                                              ; preds = %310, %252
  %.011 = phi i32 [ %253, %252 ], [ %311, %310 ]
  %255 = sext i32 %.011 to i64
  %256 = call i64 @_ZNKSt6vectorI4LineSaIS0_EE4sizeEv(%"class.std::vector.0"* %13) #3
  %257 = icmp ult i64 %255, %256
  br i1 %257, label %258, label %312

258:                                              ; preds = %254
  %259 = sext i32 %.010 to i64
  %260 = call dereferenceable(24) %struct.Line* @_ZNSt6vectorI4LineSaIS0_EEixEm(%"class.std::vector.0"* %13, i64 %259) #3
  %261 = sext i32 %.011 to i64
  %262 = call dereferenceable(24) %struct.Line* @_ZNSt6vectorI4LineSaIS0_EEixEm(%"class.std::vector.0"* %13, i64 %261) #3
  %263 = invoke zeroext i1 @_Z11is_parallelRK4LineS1_(%struct.Line* dereferenceable(24) %260, %struct.Line* dereferenceable(24) %262)
          to label %264 unwind label %186

264:                                              ; preds = %258
  br i1 %263, label %265, label %266

265:                                              ; preds = %264
  br label %310

266:                                              ; preds = %264
  %267 = sext i32 %.010 to i64
  %268 = call dereferenceable(24) %struct.Line* @_ZNSt6vectorI4LineSaIS0_EEixEm(%"class.std::vector.0"* %13, i64 %267) #3
  %269 = sext i32 %.011 to i64
  %270 = call dereferenceable(24) %struct.Line* @_ZNSt6vectorI4LineSaIS0_EEixEm(%"class.std::vector.0"* %13, i64 %269) #3
  %271 = invoke { double, double } @_Z10crosspointRK4LineS1_(%struct.Line* dereferenceable(24) %268, %struct.Line* dereferenceable(24) %270)
          to label %272 unwind label %186

272:                                              ; preds = %266
  %273 = getelementptr inbounds %"struct.std::complex", %"struct.std::complex"* %28, i32 0, i32 0
  %274 = getelementptr inbounds { double, double }, { double, double }* %273, i32 0, i32 0
  %275 = extractvalue { double, double } %271, 0
  store double %275, double* %274, align 8
  %276 = getelementptr inbounds { double, double }, { double, double }* %273, i32 0, i32 1
  %277 = extractvalue { double, double } %271, 1
  store double %277, double* %276, align 8
  br label %278

278:                                              ; preds = %289, %272
  %.014 = phi i32 [ 0, %272 ], [ %290, %289 ]
  %.012 = phi i8 [ 0, %272 ], [ %.113, %289 ]
  %279 = sext i32 %.014 to i64
  %280 = call i64 @_ZNKSt6vectorISt7complexIdESaIS1_EE4sizeEv(%"class.std::vector"* %11) #3
  %281 = icmp ult i64 %279, %280
  br i1 %281, label %282, label %291

282:                                              ; preds = %278
  %283 = sext i32 %.014 to i64
  %284 = call dereferenceable(16) %"struct.std::complex"* @_ZNSt6vectorISt7complexIdESaIS1_EEixEm(%"class.std::vector"* %11, i64 %283) #3
  %285 = invoke zeroext i1 @_ZSteqRKSt7complexIdES2_(%"struct.std::complex"* dereferenceable(16) %28, %"struct.std::complex"* dereferenceable(16) %284)
          to label %286 unwind label %186

286:                                              ; preds = %282
  br i1 %285, label %287, label %288

287:                                              ; preds = %286
  br label %288

288:                                              ; preds = %287, %286
  %.113 = phi i8 [ 1, %287 ], [ %.012, %286 ]
  br label %289

289:                                              ; preds = %288
  %290 = add nsw i32 %.014, 1
  br label %278

291:                                              ; preds = %278
  br label %292

292:                                              ; preds = %303, %291
  %.015 = phi i32 [ 0, %291 ], [ %304, %303 ]
  %.2 = phi i8 [ %.012, %291 ], [ %.3, %303 ]
  %293 = sext i32 %.015 to i64
  %294 = call i64 @_ZNKSt6vectorISt7complexIdESaIS1_EE4sizeEv(%"class.std::vector"* %12) #3
  %295 = icmp ult i64 %293, %294
  br i1 %295, label %296, label %305

296:                                              ; preds = %292
  %297 = sext i32 %.015 to i64
  %298 = call dereferenceable(16) %"struct.std::complex"* @_ZNSt6vectorISt7complexIdESaIS1_EEixEm(%"class.std::vector"* %12, i64 %297) #3
  %299 = invoke zeroext i1 @_ZSteqRKSt7complexIdES2_(%"struct.std::complex"* dereferenceable(16) %28, %"struct.std::complex"* dereferenceable(16) %298)
          to label %300 unwind label %186

300:                                              ; preds = %296
  br i1 %299, label %301, label %302

301:                                              ; preds = %300
  br label %302

302:                                              ; preds = %301, %300
  %.3 = phi i8 [ 1, %301 ], [ %.2, %300 ]
  br label %303

303:                                              ; preds = %302
  %304 = add nsw i32 %.015, 1
  br label %292

305:                                              ; preds = %292
  %306 = trunc i8 %.2 to i1
  br i1 %306, label %309, label %307

307:                                              ; preds = %305
  invoke void @_ZNSt6vectorISt7complexIdESaIS1_EE9push_backERKS1_(%"class.std::vector"* %11, %"struct.std::complex"* dereferenceable(16) %28)
          to label %308 unwind label %186

308:                                              ; preds = %307
  br label %309

309:                                              ; preds = %308, %305
  br label %310

310:                                              ; preds = %309, %265
  %311 = add nsw i32 %.011, 1
  br label %254

312:                                              ; preds = %254
  br label %313

313:                                              ; preds = %312
  %314 = add nsw i32 %.010, 1
  br label %248

315:                                              ; preds = %248
  br label %316

316:                                              ; preds = %327, %315
  %.09 = phi i32 [ 0, %315 ], [ %328, %327 ]
  %317 = sext i32 %.09 to i64
  %318 = call i64 @_ZNKSt6vectorISt7complexIdESaIS1_EE4sizeEv(%"class.std::vector"* %11) #3
  %319 = icmp ult i64 %317, %318
  br i1 %319, label %320, label %329

320:                                              ; preds = %316
  %321 = call dereferenceable(24) %struct.Line* @_ZNSt6vectorI4LineSaIS0_EEixEm(%"class.std::vector.0"* %7, i64 0) #3
  %322 = sext i32 %.09 to i64
  %323 = call dereferenceable(16) %"struct.std::complex"* @_ZNSt6vectorISt7complexIdESaIS1_EEixEm(%"class.std::vector"* %11, i64 %322) #3
  %324 = invoke double @_Z6distLPRK4LineRKSt7complexIdE(%struct.Line* dereferenceable(24) %321, %"struct.std::complex"* dereferenceable(16) %323)
          to label %325 unwind label %186

325:                                              ; preds = %320
  store double %324, double* %29, align 8
  invoke void @_ZNSt6vectorIdSaIdEE9push_backEOd(%"class.std::vector.5"* %14, double* dereferenceable(8) %29)
          to label %326 unwind label %186

326:                                              ; preds = %325
  br label %327

327:                                              ; preds = %326
  %328 = add nsw i32 %.09, 1
  br label %316

329:                                              ; preds = %316
  br label %330

330:                                              ; preds = %378, %329
  %.08 = phi i32 [ 3, %329 ], [ %379, %378 ]
  %331 = load i32, i32* %1, align 4
  %332 = icmp slt i32 %.08, %331
  br i1 %332, label %333, label %380

333:                                              ; preds = %330
  br label %334

334:                                              ; preds = %375, %333
  %.0 = phi i32 [ 0, %333 ], [ %376, %375 ]
  %335 = sext i32 %.0 to i64
  %336 = call i64 @_ZNKSt6vectorISt7complexIdESaIS1_EE4sizeEv(%"class.std::vector"* %11) #3
  %337 = icmp ult i64 %335, %336
  br i1 %337, label %338, label %377

338:                                              ; preds = %334
  %339 = sext i32 %.0 to i64
  %340 = call dereferenceable(8) double* @_ZNSt6vectorIdSaIdEEixEm(%"class.std::vector.5"* %14, i64 %339) #3
  %341 = load double, double* %340, align 8
  %342 = sext i32 %.08 to i64
  %343 = call dereferenceable(24) %struct.Line* @_ZNSt6vectorI4LineSaIS0_EEixEm(%"class.std::vector.0"* %7, i64 %342) #3
  %344 = sext i32 %.0 to i64
  %345 = call dereferenceable(16) %"struct.std::complex"* @_ZNSt6vectorISt7complexIdESaIS1_EEixEm(%"class.std::vector"* %11, i64 %344) #3
  %346 = invoke double @_Z6distLPRK4LineRKSt7complexIdE(%struct.Line* dereferenceable(24) %343, %"struct.std::complex"* dereferenceable(16) %345)
          to label %347 unwind label %186

347:                                              ; preds = %338
  %348 = fsub double %341, %346
  %349 = invoke double @_ZSt3absd(double %348)
          to label %350 unwind label %186

350:                                              ; preds = %347
  %351 = fcmp ogt double %349, 1.000000e-08
  br i1 %351, label %352, label %374

352:                                              ; preds = %350
  %353 = call %"struct.std::complex"* @_ZNSt6vectorISt7complexIdESaIS1_EE5beginEv(%"class.std::vector"* %11) #3
  %354 = getelementptr inbounds %"class.__gnu_cxx::__normal_iterator", %"class.__gnu_cxx::__normal_iterator"* %32, i32 0, i32 0
  store %"struct.std::complex"* %353, %"struct.std::complex"** %354, align 8
  %355 = sext i32 %.0 to i64
  %356 = call %"struct.std::complex"* @_ZNK9__gnu_cxx17__normal_iteratorIPSt7complexIdESt6vectorIS2_SaIS2_EEEplEl(%"class.__gnu_cxx::__normal_iterator"* %32, i64 %355) #3
  %357 = getelementptr inbounds %"class.__gnu_cxx::__normal_iterator", %"class.__gnu_cxx::__normal_iterator"* %31, i32 0, i32 0
  store %"struct.std::complex"* %356, %"struct.std::complex"** %357, align 8
  call void @_ZN9__gnu_cxx17__normal_iteratorIPKSt7complexIdESt6vectorIS2_SaIS2_EEEC2IPS2_EERKNS0_IT_NS_11__enable_ifIXsr3std10__are_sameISB_SA_EE7__valueES7_E6__typeEEE(%"class.__gnu_cxx::__normal_iterator.10"* %30, %"class.__gnu_cxx::__normal_iterator"* dereferenceable(8) %31) #3
  %358 = getelementptr inbounds %"class.__gnu_cxx::__normal_iterator.10", %"class.__gnu_cxx::__normal_iterator.10"* %30, i32 0, i32 0
  %359 = load %"struct.std::complex"*, %"struct.std::complex"** %358, align 8
  %360 = invoke %"struct.std::complex"* @_ZNSt6vectorISt7complexIdESaIS1_EE5eraseEN9__gnu_cxx17__normal_iteratorIPKS1_S3_EE(%"class.std::vector"* %11, %"struct.std::complex"* %359)
          to label %361 unwind label %186

361:                                              ; preds = %352
  %362 = getelementptr inbounds %"class.__gnu_cxx::__normal_iterator", %"class.__gnu_cxx::__normal_iterator"* %33, i32 0, i32 0
  store %"struct.std::complex"* %360, %"struct.std::complex"** %362, align 8
  %363 = call double* @_ZNSt6vectorIdSaIdEE5beginEv(%"class.std::vector.5"* %14) #3
  %364 = getelementptr inbounds %"class.__gnu_cxx::__normal_iterator.11", %"class.__gnu_cxx::__normal_iterator.11"* %36, i32 0, i32 0
  store double* %363, double** %364, align 8
  %365 = sext i32 %.0 to i64
  %366 = call double* @_ZNK9__gnu_cxx17__normal_iteratorIPdSt6vectorIdSaIdEEEplEl(%"class.__gnu_cxx::__normal_iterator.11"* %36, i64 %365) #3
  %367 = getelementptr inbounds %"class.__gnu_cxx::__normal_iterator.11", %"class.__gnu_cxx::__normal_iterator.11"* %35, i32 0, i32 0
  store double* %366, double** %367, align 8
  call void @_ZN9__gnu_cxx17__normal_iteratorIPKdSt6vectorIdSaIdEEEC2IPdEERKNS0_IT_NS_11__enable_ifIXsr3std10__are_sameIS9_S8_EE7__valueES5_E6__typeEEE(%"class.__gnu_cxx::__normal_iterator.12"* %34, %"class.__gnu_cxx::__normal_iterator.11"* dereferenceable(8) %35) #3
  %368 = getelementptr inbounds %"class.__gnu_cxx::__normal_iterator.12", %"class.__gnu_cxx::__normal_iterator.12"* %34, i32 0, i32 0
  %369 = load double*, double** %368, align 8
  %370 = invoke double* @_ZNSt6vectorIdSaIdEE5eraseEN9__gnu_cxx17__normal_iteratorIPKdS1_EE(%"class.std::vector.5"* %14, double* %369)
          to label %371 unwind label %186

371:                                              ; preds = %361
  %372 = getelementptr inbounds %"class.__gnu_cxx::__normal_iterator.11", %"class.__gnu_cxx::__normal_iterator.11"* %37, i32 0, i32 0
  store double* %370, double** %372, align 8
  %373 = add nsw i32 %.0, -1
  br label %374

374:                                              ; preds = %371, %350
  %.1 = phi i32 [ %373, %371 ], [ %.0, %350 ]
  br label %375

375:                                              ; preds = %374
  %376 = add nsw i32 %.1, 1
  br label %334

377:                                              ; preds = %334
  br label %378

378:                                              ; preds = %377
  %379 = add nsw i32 %.08, 1
  br label %330

380:                                              ; preds = %330
  %381 = call i64 @_ZNKSt6vectorISt7complexIdESaIS1_EE4sizeEv(%"class.std::vector"* %11) #3
  %382 = icmp ugt i64 %381, 1
  br i1 %382, label %383, label %388

383:                                              ; preds = %380
  %384 = invoke dereferenceable(272) %"class.std::basic_ostream"* @_ZStlsISt11char_traitsIcEERSt13basic_ostreamIcT_ES5_PKc(%"class.std::basic_ostream"* dereferenceable(272) @_ZSt4cout, i8* getelementptr inbounds ([5 x i8], [5 x i8]* @.str, i32 0, i32 0))
          to label %385 unwind label %186

385:                                              ; preds = %383
  %386 = invoke dereferenceable(272) %"class.std::basic_ostream"* @_ZNSolsEPFRSoS_E(%"class.std::basic_ostream"* %384, %"class.std::basic_ostream"* (%"class.std::basic_ostream"*)* @_ZSt4endlIcSt11char_traitsIcEERSt13basic_ostreamIT_T0_ES6_)
          to label %387 unwind label %186

387:                                              ; preds = %385
  br label %388

388:                                              ; preds = %387, %380
  %389 = call i64 @_ZNKSt6vectorISt7complexIdESaIS1_EE4sizeEv(%"class.std::vector"* %11) #3
  %390 = icmp eq i64 %389, 1
  br i1 %390, label %391, label %406

391:                                              ; preds = %388
  %392 = call dereferenceable(16) %"struct.std::complex"* @_ZNSt6vectorISt7complexIdESaIS1_EEixEm(%"class.std::vector"* %11, i64 0) #3
  %393 = invoke double @_ZSt4realIdET_RKSt7complexIS0_E(%"struct.std::complex"* dereferenceable(16) %392)
          to label %394 unwind label %186

394:                                              ; preds = %391
  %395 = invoke dereferenceable(272) %"class.std::basic_ostream"* @_ZNSolsEd(%"class.std::basic_ostream"* @_ZSt4cout, double %393)
          to label %396 unwind label %186

396:                                              ; preds = %394
  %397 = invoke dereferenceable(272) %"class.std::basic_ostream"* @_ZStlsISt11char_traitsIcEERSt13basic_ostreamIcT_ES5_c(%"class.std::basic_ostream"* dereferenceable(272) %395, i8 signext 32)
          to label %398 unwind label %186

398:                                              ; preds = %396
  %399 = call dereferenceable(16) %"struct.std::complex"* @_ZNSt6vectorISt7complexIdESaIS1_EEixEm(%"class.std::vector"* %11, i64 0) #3
  %400 = invoke double @_ZSt4imagIdET_RKSt7complexIS0_E(%"struct.std::complex"* dereferenceable(16) %399)
          to label %401 unwind label %186

401:                                              ; preds = %398
  %402 = invoke dereferenceable(272) %"class.std::basic_ostream"* @_ZNSolsEd(%"class.std::basic_ostream"* %397, double %400)
          to label %403 unwind label %186

403:                                              ; preds = %401
  %404 = invoke dereferenceable(272) %"class.std::basic_ostream"* @_ZNSolsEPFRSoS_E(%"class.std::basic_ostream"* %402, %"class.std::basic_ostream"* (%"class.std::basic_ostream"*)* @_ZSt4endlIcSt11char_traitsIcEERSt13basic_ostreamIT_T0_ES6_)
          to label %405 unwind label %186

405:                                              ; preds = %403
  br label %406

406:                                              ; preds = %405, %388
  %407 = call i64 @_ZNKSt6vectorISt7complexIdESaIS1_EE4sizeEv(%"class.std::vector"* %11) #3
  %408 = icmp eq i64 %407, 0
  br i1 %408, label %409, label %414

409:                                              ; preds = %406
  %410 = invoke dereferenceable(272) %"class.std::basic_ostream"* @_ZStlsISt11char_traitsIcEERSt13basic_ostreamIcT_ES5_PKc(%"class.std::basic_ostream"* dereferenceable(272) @_ZSt4cout, i8* getelementptr inbounds ([5 x i8], [5 x i8]* @.str.1, i32 0, i32 0))
          to label %411 unwind label %186

411:                                              ; preds = %409
  %412 = invoke dereferenceable(272) %"class.std::basic_ostream"* @_ZNSolsEPFRSoS_E(%"class.std::basic_ostream"* %410, %"class.std::basic_ostream"* (%"class.std::basic_ostream"*)* @_ZSt4endlIcSt11char_traitsIcEERSt13basic_ostreamIT_T0_ES6_)
          to label %413 unwind label %186

413:                                              ; preds = %411
  br label %414

414:                                              ; preds = %413, %406
  call void @_ZNSt6vectorIdSaIdEED2Ev(%"class.std::vector.5"* %14) #3
  call void @_ZNSt6vectorI4LineSaIS0_EED2Ev(%"class.std::vector.0"* %13) #3
  call void @_ZNSt6vectorISt7complexIdESaIS1_EED2Ev(%"class.std::vector"* %12) #3
  call void @_ZNSt6vectorISt7complexIdESaIS1_EED2Ev(%"class.std::vector"* %11) #3
  br label %415

415:                                              ; preds = %414, %102
  %.06 = phi i32 [ 2, %102 ], [ 0, %414 ]
  call void @_ZNSt6vectorI4LineSaIS0_EED2Ev(%"class.std::vector.0"* %7) #3
  switch i32 %.06, label %423 [
    i32 0, label %416
    i32 2, label %44
  ]

416:                                              ; preds = %415
  br label %44

417:                                              ; preds = %240, %194, %190, %186
  %.04 = phi i32 [ %243, %240 ], [ %189, %186 ], [ %197, %194 ], [ %193, %190 ]
  %.02 = phi i8* [ %242, %240 ], [ %188, %186 ], [ %196, %194 ], [ %192, %190 ]
  call void @_ZNSt6vectorIdSaIdEED2Ev(%"class.std::vector.5"* %14) #3
  call void @_ZNSt6vectorI4LineSaIS0_EED2Ev(%"class.std::vector.0"* %13) #3
  call void @_ZNSt6vectorISt7complexIdESaIS1_EED2Ev(%"class.std::vector"* %12) #3
  call void @_ZNSt6vectorISt7complexIdESaIS1_EED2Ev(%"class.std::vector"* %11) #3
  br label %418

418:                                              ; preds = %417, %91, %87
  %.15 = phi i32 [ %94, %91 ], [ %90, %87 ], [ %.04, %417 ]
  %.13 = phi i8* [ %93, %91 ], [ %89, %87 ], [ %.02, %417 ]
  call void @_ZNSt6vectorI4LineSaIS0_EED2Ev(%"class.std::vector.0"* %7) #3
  br label %420

419:                                              ; preds = %58
  ret i32 0

420:                                              ; preds = %418
  %421 = insertvalue { i8*, i32 } undef, i8* %.13, 0
  %422 = insertvalue { i8*, i32 } %421, i32 %.15, 1
  resume { i8*, i32 } %422

423:                                              ; preds = %415
  unreachable
}

declare dereferenceable(272) %"class.std::basic_ostream"* @_ZStlsIcSt11char_traitsIcEERSt13basic_ostreamIT_T0_ES6_St13_Setprecision(%"class.std::basic_ostream"* dereferenceable(272), i32) #1

declare dereferenceable(272) %"class.std::basic_ostream"* @_ZNSolsEPFRSt8ios_baseS0_E(%"class.std::basic_ostream"*, %"class.std::ios_base"* (%"class.std::ios_base"*)*) #1

; Function Attrs: noinline uwtable
define linkonce_odr dereferenceable(216) %"class.std::ios_base"* @_ZSt5fixedRSt8ios_base(%"class.std::ios_base"* dereferenceable(216) %0) #0 comdat {
  %2 = call i32 @_ZNSt8ios_base4setfESt13_Ios_FmtflagsS0_(%"class.std::ios_base"* %0, i32 4, i32 260)
  ret %"class.std::ios_base"* %0
}

; Function Attrs: noinline nounwind uwtable
define linkonce_odr i32 @_ZSt12setprecisioni(i32 %0) #4 comdat {
  %2 = alloca %"struct.std::_Setprecision", align 4
  %3 = getelementptr inbounds %"struct.std::_Setprecision", %"struct.std::_Setprecision"* %2, i32 0, i32 0
  store i32 %0, i32* %3, align 4
  %4 = getelementptr inbounds %"struct.std::_Setprecision", %"struct.std::_Setprecision"* %2, i32 0, i32 0
  %5 = load i32, i32* %4, align 4
  ret i32 %5
}

declare dereferenceable(280) %"class.std::basic_istream"* @_ZNSirsERi(%"class.std::basic_istream"*, i32* dereferenceable(4)) #1

declare zeroext i1 @_ZNKSt9basic_iosIcSt11char_traitsIcEEcvbEv(%"class.std::basic_ios"*) #1

; Function Attrs: noinline nounwind uwtable
define linkonce_odr void @_ZNSt6vectorI4LineSaIS0_EEC2Ev(%"class.std::vector.0"* %0) unnamed_addr #4 comdat align 2 personality i8* bitcast (i32 (...)* @__gxx_personality_v0 to i8*) {
  %2 = bitcast %"class.std::vector.0"* %0 to %"struct.std::_Vector_base.1"*
  invoke void @_ZNSt12_Vector_baseI4LineSaIS0_EEC2Ev(%"struct.std::_Vector_base.1"* %2)
          to label %3 unwind label %4

3:                                                ; preds = %1
  ret void

4:                                                ; preds = %1
  %5 = landingpad { i8*, i32 }
          catch i8* null
  %6 = extractvalue { i8*, i32 } %5, 0
  call void @__clang_call_terminate(i8* %6) #13
  unreachable
}

declare i32 @__gxx_personality_v0(...)

; Function Attrs: noinline uwtable
define linkonce_odr void @_ZNSt6vectorI4LineSaIS0_EE9push_backEOS0_(%"class.std::vector.0"* %0, %struct.Line* dereferenceable(24) %1) #0 comdat align 2 {
  %3 = call dereferenceable(24) %struct.Line* @_ZSt4moveIR4LineEONSt16remove_referenceIT_E4typeEOS3_(%struct.Line* dereferenceable(24) %1) #3
  call void @_ZNSt6vectorI4LineSaIS0_EE12emplace_backIJS0_EEEvDpOT_(%"class.std::vector.0"* %0, %struct.Line* dereferenceable(24) %3)
  ret void
}

; Function Attrs: noinline nounwind uwtable
define linkonce_odr void @_ZNSt7complexIdEC2Edd(%"struct.std::complex"* %0, double %1, double %2) unnamed_addr #4 comdat align 2 {
  %4 = getelementptr inbounds %"struct.std::complex", %"struct.std::complex"* %0, i32 0, i32 0
  %5 = getelementptr inbounds { double, double }, { double, double }* %4, i32 0, i32 0
  %6 = getelementptr inbounds { double, double }, { double, double }* %4, i32 0, i32 1
  store double %1, double* %5, align 8
  store double %2, double* %6, align 8
  ret void
}

; Function Attrs: noinline uwtable
define linkonce_odr void @_ZN4LineC2ERKSt7complexIdES3_(%struct.Line* %0, %"struct.std::complex"* dereferenceable(16) %1, %"struct.std::complex"* dereferenceable(16) %2) unnamed_addr #0 comdat align 2 personality i8* bitcast (i32 (...)* @__gxx_personality_v0 to i8*) {
  %4 = bitcast %struct.Line* %0 to %"class.std::vector"*
  call void @_ZNSt6vectorISt7complexIdESaIS1_EEC2Ev(%"class.std::vector"* %4) #3
  %5 = bitcast %struct.Line* %0 to %"class.std::vector"*
  invoke void @_ZNSt6vectorISt7complexIdESaIS1_EE9push_backERKS1_(%"class.std::vector"* %5, %"struct.std::complex"* dereferenceable(16) %1)
          to label %6 unwind label %9

6:                                                ; preds = %3
  %7 = bitcast %struct.Line* %0 to %"class.std::vector"*
  invoke void @_ZNSt6vectorISt7complexIdESaIS1_EE9push_backERKS1_(%"class.std::vector"* %7, %"struct.std::complex"* dereferenceable(16) %2)
          to label %8 unwind label %9

8:                                                ; preds = %6
  ret void

9:                                                ; preds = %6, %3
  %10 = landingpad { i8*, i32 }
          cleanup
  %11 = extractvalue { i8*, i32 } %10, 0
  %12 = extractvalue { i8*, i32 } %10, 1
  %13 = bitcast %struct.Line* %0 to %"class.std::vector"*
  call void @_ZNSt6vectorISt7complexIdESaIS1_EED2Ev(%"class.std::vector"* %13) #3
  br label %14

14:                                               ; preds = %9
  %15 = insertvalue { i8*, i32 } undef, i8* %11, 0
  %16 = insertvalue { i8*, i32 } %15, i32 %12, 1
  resume { i8*, i32 } %16
}

; Function Attrs: noinline nounwind uwtable
define linkonce_odr void @_ZN4LineD2Ev(%struct.Line* %0) unnamed_addr #4 comdat align 2 {
  %2 = bitcast %struct.Line* %0 to %"class.std::vector"*
  call void @_ZNSt6vectorISt7complexIdESaIS1_EED2Ev(%"class.std::vector"* %2) #3
  ret void
}

declare dereferenceable(272) %"class.std::basic_ostream"* @_ZStlsISt11char_traitsIcEERSt13basic_ostreamIcT_ES5_PKc(%"class.std::basic_ostream"* dereferenceable(272), i8*) #1

declare dereferenceable(272) %"class.std::basic_ostream"* @_ZNSolsEPFRSoS_E(%"class.std::basic_ostream"*, %"class.std::basic_ostream"* (%"class.std::basic_ostream"*)*) #1

declare dereferenceable(272) %"class.std::basic_ostream"* @_ZSt4endlIcSt11char_traitsIcEERSt13basic_ostreamIT_T0_ES6_(%"class.std::basic_ostream"* dereferenceable(272)) #1

; Function Attrs: noinline nounwind uwtable
define linkonce_odr void @_ZNSt6vectorISt7complexIdESaIS1_EEC2Ev(%"class.std::vector"* %0) unnamed_addr #4 comdat align 2 personality i8* bitcast (i32 (...)* @__gxx_personality_v0 to i8*) {
  %2 = bitcast %"class.std::vector"* %0 to %"struct.std::_Vector_base"*
  invoke void @_ZNSt12_Vector_baseISt7complexIdESaIS1_EEC2Ev(%"struct.std::_Vector_base"* %2)
          to label %3 unwind label %4

3:                                                ; preds = %1
  ret void

4:                                                ; preds = %1
  %5 = landingpad { i8*, i32 }
          catch i8* null
  %6 = extractvalue { i8*, i32 } %5, 0
  call void @__clang_call_terminate(i8* %6) #13
  unreachable
}

; Function Attrs: noinline nounwind uwtable
define linkonce_odr void @_ZNSt6vectorIdSaIdEEC2Ev(%"class.std::vector.5"* %0) unnamed_addr #4 comdat align 2 personality i8* bitcast (i32 (...)* @__gxx_personality_v0 to i8*) {
  %2 = bitcast %"class.std::vector.5"* %0 to %"struct.std::_Vector_base.6"*
  invoke void @_ZNSt12_Vector_baseIdSaIdEEC2Ev(%"struct.std::_Vector_base.6"* %2)
          to label %3 unwind label %4

3:                                                ; preds = %1
  ret void

4:                                                ; preds = %1
  %5 = landingpad { i8*, i32 }
          catch i8* null
  %6 = extractvalue { i8*, i32 } %5, 0
  call void @__clang_call_terminate(i8* %6) #13
  unreachable
}

; Function Attrs: noinline nounwind uwtable
define linkonce_odr dereferenceable(24) %struct.Line* @_ZNSt6vectorI4LineSaIS0_EEixEm(%"class.std::vector.0"* %0, i64 %1) #4 comdat align 2 {
  %3 = bitcast %"class.std::vector.0"* %0 to %"struct.std::_Vector_base.1"*
  %4 = getelementptr inbounds %"struct.std::_Vector_base.1", %"struct.std::_Vector_base.1"* %3, i32 0, i32 0
  %5 = getelementptr inbounds %"struct.std::_Vector_base<Line, std::allocator<Line> >::_Vector_impl", %"struct.std::_Vector_base<Line, std::allocator<Line> >::_Vector_impl"* %4, i32 0, i32 0
  %6 = load %struct.Line*, %struct.Line** %5, align 8
  %7 = getelementptr inbounds %struct.Line, %struct.Line* %6, i64 %1
  ret %struct.Line* %7
}

; Function Attrs: noinline nounwind uwtable
define linkonce_odr dereferenceable(16) %"struct.std::complex"* @_ZNSt6vectorISt7complexIdESaIS1_EEixEm(%"class.std::vector"* %0, i64 %1) #4 comdat align 2 {
  %3 = bitcast %"class.std::vector"* %0 to %"struct.std::_Vector_base"*
  %4 = getelementptr inbounds %"struct.std::_Vector_base", %"struct.std::_Vector_base"* %3, i32 0, i32 0
  %5 = getelementptr inbounds %"struct.std::_Vector_base<std::complex<double>, std::allocator<std::complex<double> > >::_Vector_impl", %"struct.std::_Vector_base<std::complex<double>, std::allocator<std::complex<double> > >::_Vector_impl"* %4, i32 0, i32 0
  %6 = load %"struct.std::complex"*, %"struct.std::complex"** %5, align 8
  %7 = getelementptr inbounds %"struct.std::complex", %"struct.std::complex"* %6, i64 %1
  ret %"struct.std::complex"* %7
}

; Function Attrs: noinline nounwind uwtable
define linkonce_odr dereferenceable(16) %"struct.std::complex"* @_ZNSt7complexIdEdVEd(%"struct.std::complex"* %0, double %1) #4 comdat align 2 {
  %3 = getelementptr inbounds %"struct.std::complex", %"struct.std::complex"* %0, i32 0, i32 0
  %4 = getelementptr inbounds { double, double }, { double, double }* %3, i32 0, i32 0
  %5 = load double, double* %4, align 8
  %6 = getelementptr inbounds { double, double }, { double, double }* %3, i32 0, i32 1
  %7 = load double, double* %6, align 8
  %8 = fdiv double %5, %1
  %9 = fdiv double %7, %1
  %10 = getelementptr inbounds { double, double }, { double, double }* %3, i32 0, i32 0
  %11 = getelementptr inbounds { double, double }, { double, double }* %3, i32 0, i32 1
  store double %8, double* %10, align 8
  store double %9, double* %11, align 8
  ret %"struct.std::complex"* %0
}

; Function Attrs: noinline uwtable
define linkonce_odr void @_ZNSt6vectorISt7complexIdESaIS1_EE9push_backERKS1_(%"class.std::vector"* %0, %"struct.std::complex"* dereferenceable(16) %1) #0 comdat align 2 {
  %3 = alloca %"class.__gnu_cxx::__normal_iterator", align 8
  %4 = bitcast %"class.std::vector"* %0 to %"struct.std::_Vector_base"*
  %5 = getelementptr inbounds %"struct.std::_Vector_base", %"struct.std::_Vector_base"* %4, i32 0, i32 0
  %6 = getelementptr inbounds %"struct.std::_Vector_base<std::complex<double>, std::allocator<std::complex<double> > >::_Vector_impl", %"struct.std::_Vector_base<std::complex<double>, std::allocator<std::complex<double> > >::_Vector_impl"* %5, i32 0, i32 1
  %7 = load %"struct.std::complex"*, %"struct.std::complex"** %6, align 8
  %8 = bitcast %"class.std::vector"* %0 to %"struct.std::_Vector_base"*
  %9 = getelementptr inbounds %"struct.std::_Vector_base", %"struct.std::_Vector_base"* %8, i32 0, i32 0
  %10 = getelementptr inbounds %"struct.std::_Vector_base<std::complex<double>, std::allocator<std::complex<double> > >::_Vector_impl", %"struct.std::_Vector_base<std::complex<double>, std::allocator<std::complex<double> > >::_Vector_impl"* %9, i32 0, i32 2
  %11 = load %"struct.std::complex"*, %"struct.std::complex"** %10, align 8
  %12 = icmp ne %"struct.std::complex"* %7, %11
  br i1 %12, label %13, label %26

13:                                               ; preds = %2
  %14 = bitcast %"class.std::vector"* %0 to %"struct.std::_Vector_base"*
  %15 = getelementptr inbounds %"struct.std::_Vector_base", %"struct.std::_Vector_base"* %14, i32 0, i32 0
  %16 = bitcast %"struct.std::_Vector_base<std::complex<double>, std::allocator<std::complex<double> > >::_Vector_impl"* %15 to %"class.std::allocator"*
  %17 = bitcast %"class.std::vector"* %0 to %"struct.std::_Vector_base"*
  %18 = getelementptr inbounds %"struct.std::_Vector_base", %"struct.std::_Vector_base"* %17, i32 0, i32 0
  %19 = getelementptr inbounds %"struct.std::_Vector_base<std::complex<double>, std::allocator<std::complex<double> > >::_Vector_impl", %"struct.std::_Vector_base<std::complex<double>, std::allocator<std::complex<double> > >::_Vector_impl"* %18, i32 0, i32 1
  %20 = load %"struct.std::complex"*, %"struct.std::complex"** %19, align 8
  call void @_ZNSt16allocator_traitsISaISt7complexIdEEE9constructIS1_JRKS1_EEEvRS2_PT_DpOT0_(%"class.std::allocator"* dereferenceable(1) %16, %"struct.std::complex"* %20, %"struct.std::complex"* dereferenceable(16) %1)
  %21 = bitcast %"class.std::vector"* %0 to %"struct.std::_Vector_base"*
  %22 = getelementptr inbounds %"struct.std::_Vector_base", %"struct.std::_Vector_base"* %21, i32 0, i32 0
  %23 = getelementptr inbounds %"struct.std::_Vector_base<std::complex<double>, std::allocator<std::complex<double> > >::_Vector_impl", %"struct.std::_Vector_base<std::complex<double>, std::allocator<std::complex<double> > >::_Vector_impl"* %22, i32 0, i32 1
  %24 = load %"struct.std::complex"*, %"struct.std::complex"** %23, align 8
  %25 = getelementptr inbounds %"struct.std::complex", %"struct.std::complex"* %24, i32 1
  store %"struct.std::complex"* %25, %"struct.std::complex"** %23, align 8
  br label %31

26:                                               ; preds = %2
  %27 = call %"struct.std::complex"* @_ZNSt6vectorISt7complexIdESaIS1_EE3endEv(%"class.std::vector"* %0) #3
  %28 = getelementptr inbounds %"class.__gnu_cxx::__normal_iterator", %"class.__gnu_cxx::__normal_iterator"* %3, i32 0, i32 0
  store %"struct.std::complex"* %27, %"struct.std::complex"** %28, align 8
  %29 = getelementptr inbounds %"class.__gnu_cxx::__normal_iterator", %"class.__gnu_cxx::__normal_iterator"* %3, i32 0, i32 0
  %30 = load %"struct.std::complex"*, %"struct.std::complex"** %29, align 8
  call void @_ZNSt6vectorISt7complexIdESaIS1_EE17_M_realloc_insertIJRKS1_EEEvN9__gnu_cxx17__normal_iteratorIPS1_S3_EEDpOT_(%"class.std::vector"* %0, %"struct.std::complex"* %30, %"struct.std::complex"* dereferenceable(16) %1)
  br label %31

31:                                               ; preds = %26, %13
  ret void
}

; Function Attrs: noinline nounwind uwtable
define linkonce_odr i64 @_ZNKSt6vectorI4LineSaIS0_EE4sizeEv(%"class.std::vector.0"* %0) #4 comdat align 2 {
  %2 = bitcast %"class.std::vector.0"* %0 to %"struct.std::_Vector_base.1"*
  %3 = getelementptr inbounds %"struct.std::_Vector_base.1", %"struct.std::_Vector_base.1"* %2, i32 0, i32 0
  %4 = getelementptr inbounds %"struct.std::_Vector_base<Line, std::allocator<Line> >::_Vector_impl", %"struct.std::_Vector_base<Line, std::allocator<Line> >::_Vector_impl"* %3, i32 0, i32 1
  %5 = load %struct.Line*, %struct.Line** %4, align 8
  %6 = bitcast %"class.std::vector.0"* %0 to %"struct.std::_Vector_base.1"*
  %7 = getelementptr inbounds %"struct.std::_Vector_base.1", %"struct.std::_Vector_base.1"* %6, i32 0, i32 0
  %8 = getelementptr inbounds %"struct.std::_Vector_base<Line, std::allocator<Line> >::_Vector_impl", %"struct.std::_Vector_base<Line, std::allocator<Line> >::_Vector_impl"* %7, i32 0, i32 0
  %9 = load %struct.Line*, %struct.Line** %8, align 8
  %10 = ptrtoint %struct.Line* %5 to i64
  %11 = ptrtoint %struct.Line* %9 to i64
  %12 = sub i64 %10, %11
  %13 = sdiv exact i64 %12, 24
  ret i64 %13
}

; Function Attrs: noinline nounwind uwtable
define linkonce_odr i64 @_ZNKSt6vectorISt7complexIdESaIS1_EE4sizeEv(%"class.std::vector"* %0) #4 comdat align 2 {
  %2 = bitcast %"class.std::vector"* %0 to %"struct.std::_Vector_base"*
  %3 = getelementptr inbounds %"struct.std::_Vector_base", %"struct.std::_Vector_base"* %2, i32 0, i32 0
  %4 = getelementptr inbounds %"struct.std::_Vector_base<std::complex<double>, std::allocator<std::complex<double> > >::_Vector_impl", %"struct.std::_Vector_base<std::complex<double>, std::allocator<std::complex<double> > >::_Vector_impl"* %3, i32 0, i32 1
  %5 = load %"struct.std::complex"*, %"struct.std::complex"** %4, align 8
  %6 = bitcast %"class.std::vector"* %0 to %"struct.std::_Vector_base"*
  %7 = getelementptr inbounds %"struct.std::_Vector_base", %"struct.std::_Vector_base"* %6, i32 0, i32 0
  %8 = getelementptr inbounds %"struct.std::_Vector_base<std::complex<double>, std::allocator<std::complex<double> > >::_Vector_impl", %"struct.std::_Vector_base<std::complex<double>, std::allocator<std::complex<double> > >::_Vector_impl"* %7, i32 0, i32 0
  %9 = load %"struct.std::complex"*, %"struct.std::complex"** %8, align 8
  %10 = ptrtoint %"struct.std::complex"* %5 to i64
  %11 = ptrtoint %"struct.std::complex"* %9 to i64
  %12 = sub i64 %10, %11
  %13 = sdiv exact i64 %12, 16
  ret i64 %13
}

; Function Attrs: noinline uwtable
define linkonce_odr void @_ZNSt6vectorIdSaIdEE9push_backEOd(%"class.std::vector.5"* %0, double* dereferenceable(8) %1) #0 comdat align 2 {
  %3 = call dereferenceable(8) double* @_ZSt4moveIRdEONSt16remove_referenceIT_E4typeEOS2_(double* dereferenceable(8) %1) #3
  call void @_ZNSt6vectorIdSaIdEE12emplace_backIJdEEEvDpOT_(%"class.std::vector.5"* %0, double* dereferenceable(8) %3)
  ret void
}

; Function Attrs: noinline nounwind uwtable
define linkonce_odr dereferenceable(8) double* @_ZNSt6vectorIdSaIdEEixEm(%"class.std::vector.5"* %0, i64 %1) #4 comdat align 2 {
  %3 = bitcast %"class.std::vector.5"* %0 to %"struct.std::_Vector_base.6"*
  %4 = getelementptr inbounds %"struct.std::_Vector_base.6", %"struct.std::_Vector_base.6"* %3, i32 0, i32 0
  %5 = getelementptr inbounds %"struct.std::_Vector_base<double, std::allocator<double> >::_Vector_impl", %"struct.std::_Vector_base<double, std::allocator<double> >::_Vector_impl"* %4, i32 0, i32 0
  %6 = load double*, double** %5, align 8
  %7 = getelementptr inbounds double, double* %6, i64 %1
  ret double* %7
}

; Function Attrs: noinline uwtable
define linkonce_odr %"struct.std::complex"* @_ZNSt6vectorISt7complexIdESaIS1_EE5eraseEN9__gnu_cxx17__normal_iteratorIPKS1_S3_EE(%"class.std::vector"* %0, %"struct.std::complex"* %1) #0 comdat align 2 {
  %3 = alloca %"class.__gnu_cxx::__normal_iterator", align 8
  %4 = alloca %"class.__gnu_cxx::__normal_iterator.10", align 8
  %5 = alloca %"class.__gnu_cxx::__normal_iterator", align 8
  %6 = alloca %"class.__gnu_cxx::__normal_iterator", align 8
  %7 = alloca %"class.__gnu_cxx::__normal_iterator.10", align 8
  %8 = getelementptr inbounds %"class.__gnu_cxx::__normal_iterator.10", %"class.__gnu_cxx::__normal_iterator.10"* %4, i32 0, i32 0
  store %"struct.std::complex"* %1, %"struct.std::complex"** %8, align 8
  %9 = call %"struct.std::complex"* @_ZNSt6vectorISt7complexIdESaIS1_EE5beginEv(%"class.std::vector"* %0) #3
  %10 = getelementptr inbounds %"class.__gnu_cxx::__normal_iterator", %"class.__gnu_cxx::__normal_iterator"* %6, i32 0, i32 0
  store %"struct.std::complex"* %9, %"struct.std::complex"** %10, align 8
  %11 = call %"struct.std::complex"* @_ZNKSt6vectorISt7complexIdESaIS1_EE6cbeginEv(%"class.std::vector"* %0) #3
  %12 = getelementptr inbounds %"class.__gnu_cxx::__normal_iterator.10", %"class.__gnu_cxx::__normal_iterator.10"* %7, i32 0, i32 0
  store %"struct.std::complex"* %11, %"struct.std::complex"** %12, align 8
  %13 = call i64 @_ZN9__gnu_cxxmiIPKSt7complexIdESt6vectorIS2_SaIS2_EEEENS_17__normal_iteratorIT_T0_E15difference_typeERKSB_SE_(%"class.__gnu_cxx::__normal_iterator.10"* dereferenceable(8) %4, %"class.__gnu_cxx::__normal_iterator.10"* dereferenceable(8) %7) #3
  %14 = call %"struct.std::complex"* @_ZNK9__gnu_cxx17__normal_iteratorIPSt7complexIdESt6vectorIS2_SaIS2_EEEplEl(%"class.__gnu_cxx::__normal_iterator"* %6, i64 %13) #3
  %15 = getelementptr inbounds %"class.__gnu_cxx::__normal_iterator", %"class.__gnu_cxx::__normal_iterator"* %5, i32 0, i32 0
  store %"struct.std::complex"* %14, %"struct.std::complex"** %15, align 8
  %16 = getelementptr inbounds %"class.__gnu_cxx::__normal_iterator", %"class.__gnu_cxx::__normal_iterator"* %5, i32 0, i32 0
  %17 = load %"struct.std::complex"*, %"struct.std::complex"** %16, align 8
  %18 = call %"struct.std::complex"* @_ZNSt6vectorISt7complexIdESaIS1_EE8_M_eraseEN9__gnu_cxx17__normal_iteratorIPS1_S3_EE(%"class.std::vector"* %0, %"struct.std::complex"* %17)
  %19 = getelementptr inbounds %"class.__gnu_cxx::__normal_iterator", %"class.__gnu_cxx::__normal_iterator"* %3, i32 0, i32 0
  store %"struct.std::complex"* %18, %"struct.std::complex"** %19, align 8
  %20 = getelementptr inbounds %"class.__gnu_cxx::__normal_iterator", %"class.__gnu_cxx::__normal_iterator"* %3, i32 0, i32 0
  %21 = load %"struct.std::complex"*, %"struct.std::complex"** %20, align 8
  ret %"struct.std::complex"* %21
}

; Function Attrs: noinline nounwind uwtable
define linkonce_odr %"struct.std::complex"* @_ZNSt6vectorISt7complexIdESaIS1_EE5beginEv(%"class.std::vector"* %0) #4 comdat align 2 {
  %2 = alloca %"class.__gnu_cxx::__normal_iterator", align 8
  %3 = bitcast %"class.std::vector"* %0 to %"struct.std::_Vector_base"*
  %4 = getelementptr inbounds %"struct.std::_Vector_base", %"struct.std::_Vector_base"* %3, i32 0, i32 0
  %5 = getelementptr inbounds %"struct.std::_Vector_base<std::complex<double>, std::allocator<std::complex<double> > >::_Vector_impl", %"struct.std::_Vector_base<std::complex<double>, std::allocator<std::complex<double> > >::_Vector_impl"* %4, i32 0, i32 0
  call void @_ZN9__gnu_cxx17__normal_iteratorIPSt7complexIdESt6vectorIS2_SaIS2_EEEC2ERKS3_(%"class.__gnu_cxx::__normal_iterator"* %2, %"struct.std::complex"** dereferenceable(8) %5) #3
  %6 = getelementptr inbounds %"class.__gnu_cxx::__normal_iterator", %"class.__gnu_cxx::__normal_iterator"* %2, i32 0, i32 0
  %7 = load %"struct.std::complex"*, %"struct.std::complex"** %6, align 8
  ret %"struct.std::complex"* %7
}

; Function Attrs: noinline nounwind uwtable
define linkonce_odr %"struct.std::complex"* @_ZNK9__gnu_cxx17__normal_iteratorIPSt7complexIdESt6vectorIS2_SaIS2_EEEplEl(%"class.__gnu_cxx::__normal_iterator"* %0, i64 %1) #4 comdat align 2 {
  %3 = alloca %"class.__gnu_cxx::__normal_iterator", align 8
  %4 = alloca %"struct.std::complex"*, align 8
  %5 = getelementptr inbounds %"class.__gnu_cxx::__normal_iterator", %"class.__gnu_cxx::__normal_iterator"* %0, i32 0, i32 0
  %6 = load %"struct.std::complex"*, %"struct.std::complex"** %5, align 8
  %7 = getelementptr inbounds %"struct.std::complex", %"struct.std::complex"* %6, i64 %1
  store %"struct.std::complex"* %7, %"struct.std::complex"** %4, align 8
  call void @_ZN9__gnu_cxx17__normal_iteratorIPSt7complexIdESt6vectorIS2_SaIS2_EEEC2ERKS3_(%"class.__gnu_cxx::__normal_iterator"* %3, %"struct.std::complex"** dereferenceable(8) %4) #3
  %8 = getelementptr inbounds %"class.__gnu_cxx::__normal_iterator", %"class.__gnu_cxx::__normal_iterator"* %3, i32 0, i32 0
  %9 = load %"struct.std::complex"*, %"struct.std::complex"** %8, align 8
  ret %"struct.std::complex"* %9
}

; Function Attrs: noinline nounwind uwtable
define linkonce_odr void @_ZN9__gnu_cxx17__normal_iteratorIPKSt7complexIdESt6vectorIS2_SaIS2_EEEC2IPS2_EERKNS0_IT_NS_11__enable_ifIXsr3std10__are_sameISB_SA_EE7__valueES7_E6__typeEEE(%"class.__gnu_cxx::__normal_iterator.10"* %0, %"class.__gnu_cxx::__normal_iterator"* dereferenceable(8) %1) unnamed_addr #4 comdat align 2 {
  %3 = getelementptr inbounds %"class.__gnu_cxx::__normal_iterator.10", %"class.__gnu_cxx::__normal_iterator.10"* %0, i32 0, i32 0
  %4 = call dereferenceable(8) %"struct.std::complex"** @_ZNK9__gnu_cxx17__normal_iteratorIPSt7complexIdESt6vectorIS2_SaIS2_EEE4baseEv(%"class.__gnu_cxx::__normal_iterator"* %1) #3
  %5 = load %"struct.std::complex"*, %"struct.std::complex"** %4, align 8
  store %"struct.std::complex"* %5, %"struct.std::complex"** %3, align 8
  ret void
}

; Function Attrs: noinline uwtable
define linkonce_odr double* @_ZNSt6vectorIdSaIdEE5eraseEN9__gnu_cxx17__normal_iteratorIPKdS1_EE(%"class.std::vector.5"* %0, double* %1) #0 comdat align 2 {
  %3 = alloca %"class.__gnu_cxx::__normal_iterator.11", align 8
  %4 = alloca %"class.__gnu_cxx::__normal_iterator.12", align 8
  %5 = alloca %"class.__gnu_cxx::__normal_iterator.11", align 8
  %6 = alloca %"class.__gnu_cxx::__normal_iterator.11", align 8
  %7 = alloca %"class.__gnu_cxx::__normal_iterator.12", align 8
  %8 = getelementptr inbounds %"class.__gnu_cxx::__normal_iterator.12", %"class.__gnu_cxx::__normal_iterator.12"* %4, i32 0, i32 0
  store double* %1, double** %8, align 8
  %9 = call double* @_ZNSt6vectorIdSaIdEE5beginEv(%"class.std::vector.5"* %0) #3
  %10 = getelementptr inbounds %"class.__gnu_cxx::__normal_iterator.11", %"class.__gnu_cxx::__normal_iterator.11"* %6, i32 0, i32 0
  store double* %9, double** %10, align 8
  %11 = call double* @_ZNKSt6vectorIdSaIdEE6cbeginEv(%"class.std::vector.5"* %0) #3
  %12 = getelementptr inbounds %"class.__gnu_cxx::__normal_iterator.12", %"class.__gnu_cxx::__normal_iterator.12"* %7, i32 0, i32 0
  store double* %11, double** %12, align 8
  %13 = call i64 @_ZN9__gnu_cxxmiIPKdSt6vectorIdSaIdEEEENS_17__normal_iteratorIT_T0_E15difference_typeERKS9_SC_(%"class.__gnu_cxx::__normal_iterator.12"* dereferenceable(8) %4, %"class.__gnu_cxx::__normal_iterator.12"* dereferenceable(8) %7) #3
  %14 = call double* @_ZNK9__gnu_cxx17__normal_iteratorIPdSt6vectorIdSaIdEEEplEl(%"class.__gnu_cxx::__normal_iterator.11"* %6, i64 %13) #3
  %15 = getelementptr inbounds %"class.__gnu_cxx::__normal_iterator.11", %"class.__gnu_cxx::__normal_iterator.11"* %5, i32 0, i32 0
  store double* %14, double** %15, align 8
  %16 = getelementptr inbounds %"class.__gnu_cxx::__normal_iterator.11", %"class.__gnu_cxx::__normal_iterator.11"* %5, i32 0, i32 0
  %17 = load double*, double** %16, align 8
  %18 = call double* @_ZNSt6vectorIdSaIdEE8_M_eraseEN9__gnu_cxx17__normal_iteratorIPdS1_EE(%"class.std::vector.5"* %0, double* %17)
  %19 = getelementptr inbounds %"class.__gnu_cxx::__normal_iterator.11", %"class.__gnu_cxx::__normal_iterator.11"* %3, i32 0, i32 0
  store double* %18, double** %19, align 8
  %20 = getelementptr inbounds %"class.__gnu_cxx::__normal_iterator.11", %"class.__gnu_cxx::__normal_iterator.11"* %3, i32 0, i32 0
  %21 = load double*, double** %20, align 8
  ret double* %21
}

; Function Attrs: noinline nounwind uwtable
define linkonce_odr double* @_ZNSt6vectorIdSaIdEE5beginEv(%"class.std::vector.5"* %0) #4 comdat align 2 {
  %2 = alloca %"class.__gnu_cxx::__normal_iterator.11", align 8
  %3 = bitcast %"class.std::vector.5"* %0 to %"struct.std::_Vector_base.6"*
  %4 = getelementptr inbounds %"struct.std::_Vector_base.6", %"struct.std::_Vector_base.6"* %3, i32 0, i32 0
  %5 = getelementptr inbounds %"struct.std::_Vector_base<double, std::allocator<double> >::_Vector_impl", %"struct.std::_Vector_base<double, std::allocator<double> >::_Vector_impl"* %4, i32 0, i32 0
  call void @_ZN9__gnu_cxx17__normal_iteratorIPdSt6vectorIdSaIdEEEC2ERKS1_(%"class.__gnu_cxx::__normal_iterator.11"* %2, double** dereferenceable(8) %5) #3
  %6 = getelementptr inbounds %"class.__gnu_cxx::__normal_iterator.11", %"class.__gnu_cxx::__normal_iterator.11"* %2, i32 0, i32 0
  %7 = load double*, double** %6, align 8
  ret double* %7
}

; Function Attrs: noinline nounwind uwtable
define linkonce_odr double* @_ZNK9__gnu_cxx17__normal_iteratorIPdSt6vectorIdSaIdEEEplEl(%"class.__gnu_cxx::__normal_iterator.11"* %0, i64 %1) #4 comdat align 2 {
  %3 = alloca %"class.__gnu_cxx::__normal_iterator.11", align 8
  %4 = alloca double*, align 8
  %5 = getelementptr inbounds %"class.__gnu_cxx::__normal_iterator.11", %"class.__gnu_cxx::__normal_iterator.11"* %0, i32 0, i32 0
  %6 = load double*, double** %5, align 8
  %7 = getelementptr inbounds double, double* %6, i64 %1
  store double* %7, double** %4, align 8
  call void @_ZN9__gnu_cxx17__normal_iteratorIPdSt6vectorIdSaIdEEEC2ERKS1_(%"class.__gnu_cxx::__normal_iterator.11"* %3, double** dereferenceable(8) %4) #3
  %8 = getelementptr inbounds %"class.__gnu_cxx::__normal_iterator.11", %"class.__gnu_cxx::__normal_iterator.11"* %3, i32 0, i32 0
  %9 = load double*, double** %8, align 8
  ret double* %9
}

; Function Attrs: noinline nounwind uwtable
define linkonce_odr void @_ZN9__gnu_cxx17__normal_iteratorIPKdSt6vectorIdSaIdEEEC2IPdEERKNS0_IT_NS_11__enable_ifIXsr3std10__are_sameIS9_S8_EE7__valueES5_E6__typeEEE(%"class.__gnu_cxx::__normal_iterator.12"* %0, %"class.__gnu_cxx::__normal_iterator.11"* dereferenceable(8) %1) unnamed_addr #4 comdat align 2 {
  %3 = getelementptr inbounds %"class.__gnu_cxx::__normal_iterator.12", %"class.__gnu_cxx::__normal_iterator.12"* %0, i32 0, i32 0
  %4 = call dereferenceable(8) double** @_ZNK9__gnu_cxx17__normal_iteratorIPdSt6vectorIdSaIdEEE4baseEv(%"class.__gnu_cxx::__normal_iterator.11"* %1) #3
  %5 = load double*, double** %4, align 8
  store double* %5, double** %3, align 8
  ret void
}

declare dereferenceable(272) %"class.std::basic_ostream"* @_ZStlsISt11char_traitsIcEERSt13basic_ostreamIcT_ES5_c(%"class.std::basic_ostream"* dereferenceable(272), i8 signext) #1

declare dereferenceable(272) %"class.std::basic_ostream"* @_ZNSolsEd(%"class.std::basic_ostream"*, double) #1

; Function Attrs: noinline nounwind uwtable
define linkonce_odr void @_ZNSt6vectorIdSaIdEED2Ev(%"class.std::vector.5"* %0) unnamed_addr #4 comdat align 2 personality i8* bitcast (i32 (...)* @__gxx_personality_v0 to i8*) {
  %2 = bitcast %"class.std::vector.5"* %0 to %"struct.std::_Vector_base.6"*
  %3 = getelementptr inbounds %"struct.std::_Vector_base.6", %"struct.std::_Vector_base.6"* %2, i32 0, i32 0
  %4 = getelementptr inbounds %"struct.std::_Vector_base<double, std::allocator<double> >::_Vector_impl", %"struct.std::_Vector_base<double, std::allocator<double> >::_Vector_impl"* %3, i32 0, i32 0
  %5 = load double*, double** %4, align 8
  %6 = bitcast %"class.std::vector.5"* %0 to %"struct.std::_Vector_base.6"*
  %7 = getelementptr inbounds %"struct.std::_Vector_base.6", %"struct.std::_Vector_base.6"* %6, i32 0, i32 0
  %8 = getelementptr inbounds %"struct.std::_Vector_base<double, std::allocator<double> >::_Vector_impl", %"struct.std::_Vector_base<double, std::allocator<double> >::_Vector_impl"* %7, i32 0, i32 1
  %9 = load double*, double** %8, align 8
  %10 = bitcast %"class.std::vector.5"* %0 to %"struct.std::_Vector_base.6"*
  %11 = call dereferenceable(1) %"class.std::allocator.7"* @_ZNSt12_Vector_baseIdSaIdEE19_M_get_Tp_allocatorEv(%"struct.std::_Vector_base.6"* %10) #3
  invoke void @_ZSt8_DestroyIPddEvT_S1_RSaIT0_E(double* %5, double* %9, %"class.std::allocator.7"* dereferenceable(1) %11)
          to label %12 unwind label %14

12:                                               ; preds = %1
  %13 = bitcast %"class.std::vector.5"* %0 to %"struct.std::_Vector_base.6"*
  call void @_ZNSt12_Vector_baseIdSaIdEED2Ev(%"struct.std::_Vector_base.6"* %13) #3
  ret void

14:                                               ; preds = %1
  %15 = landingpad { i8*, i32 }
          catch i8* null
  %16 = extractvalue { i8*, i32 } %15, 0
  %17 = extractvalue { i8*, i32 } %15, 1
  %18 = bitcast %"class.std::vector.5"* %0 to %"struct.std::_Vector_base.6"*
  call void @_ZNSt12_Vector_baseIdSaIdEED2Ev(%"struct.std::_Vector_base.6"* %18) #3
  br label %19

19:                                               ; preds = %14
  call void @__clang_call_terminate(i8* %16) #13
  unreachable
}

; Function Attrs: noinline nounwind uwtable
define linkonce_odr void @_ZNSt6vectorI4LineSaIS0_EED2Ev(%"class.std::vector.0"* %0) unnamed_addr #4 comdat align 2 personality i8* bitcast (i32 (...)* @__gxx_personality_v0 to i8*) {
  %2 = bitcast %"class.std::vector.0"* %0 to %"struct.std::_Vector_base.1"*
  %3 = getelementptr inbounds %"struct.std::_Vector_base.1", %"struct.std::_Vector_base.1"* %2, i32 0, i32 0
  %4 = getelementptr inbounds %"struct.std::_Vector_base<Line, std::allocator<Line> >::_Vector_impl", %"struct.std::_Vector_base<Line, std::allocator<Line> >::_Vector_impl"* %3, i32 0, i32 0
  %5 = load %struct.Line*, %struct.Line** %4, align 8
  %6 = bitcast %"class.std::vector.0"* %0 to %"struct.std::_Vector_base.1"*
  %7 = getelementptr inbounds %"struct.std::_Vector_base.1", %"struct.std::_Vector_base.1"* %6, i32 0, i32 0
  %8 = getelementptr inbounds %"struct.std::_Vector_base<Line, std::allocator<Line> >::_Vector_impl", %"struct.std::_Vector_base<Line, std::allocator<Line> >::_Vector_impl"* %7, i32 0, i32 1
  %9 = load %struct.Line*, %struct.Line** %8, align 8
  %10 = bitcast %"class.std::vector.0"* %0 to %"struct.std::_Vector_base.1"*
  %11 = call dereferenceable(1) %"class.std::allocator.2"* @_ZNSt12_Vector_baseI4LineSaIS0_EE19_M_get_Tp_allocatorEv(%"struct.std::_Vector_base.1"* %10) #3
  invoke void @_ZSt8_DestroyIP4LineS0_EvT_S2_RSaIT0_E(%struct.Line* %5, %struct.Line* %9, %"class.std::allocator.2"* dereferenceable(1) %11)
          to label %12 unwind label %14

12:                                               ; preds = %1
  %13 = bitcast %"class.std::vector.0"* %0 to %"struct.std::_Vector_base.1"*
  call void @_ZNSt12_Vector_baseI4LineSaIS0_EED2Ev(%"struct.std::_Vector_base.1"* %13) #3
  ret void

14:                                               ; preds = %1
  %15 = landingpad { i8*, i32 }
          catch i8* null
  %16 = extractvalue { i8*, i32 } %15, 0
  %17 = extractvalue { i8*, i32 } %15, 1
  %18 = bitcast %"class.std::vector.0"* %0 to %"struct.std::_Vector_base.1"*
  call void @_ZNSt12_Vector_baseI4LineSaIS0_EED2Ev(%"struct.std::_Vector_base.1"* %18) #3
  br label %19

19:                                               ; preds = %14
  call void @__clang_call_terminate(i8* %16) #13
  unreachable
}

; Function Attrs: noinline nounwind uwtable
define linkonce_odr void @_ZNSt6vectorISt7complexIdESaIS1_EED2Ev(%"class.std::vector"* %0) unnamed_addr #4 comdat align 2 personality i8* bitcast (i32 (...)* @__gxx_personality_v0 to i8*) {
  %2 = bitcast %"class.std::vector"* %0 to %"struct.std::_Vector_base"*
  %3 = getelementptr inbounds %"struct.std::_Vector_base", %"struct.std::_Vector_base"* %2, i32 0, i32 0
  %4 = getelementptr inbounds %"struct.std::_Vector_base<std::complex<double>, std::allocator<std::complex<double> > >::_Vector_impl", %"struct.std::_Vector_base<std::complex<double>, std::allocator<std::complex<double> > >::_Vector_impl"* %3, i32 0, i32 0
  %5 = load %"struct.std::complex"*, %"struct.std::complex"** %4, align 8
  %6 = bitcast %"class.std::vector"* %0 to %"struct.std::_Vector_base"*
  %7 = getelementptr inbounds %"struct.std::_Vector_base", %"struct.std::_Vector_base"* %6, i32 0, i32 0
  %8 = getelementptr inbounds %"struct.std::_Vector_base<std::complex<double>, std::allocator<std::complex<double> > >::_Vector_impl", %"struct.std::_Vector_base<std::complex<double>, std::allocator<std::complex<double> > >::_Vector_impl"* %7, i32 0, i32 1
  %9 = load %"struct.std::complex"*, %"struct.std::complex"** %8, align 8
  %10 = bitcast %"class.std::vector"* %0 to %"struct.std::_Vector_base"*
  %11 = call dereferenceable(1) %"class.std::allocator"* @_ZNSt12_Vector_baseISt7complexIdESaIS1_EE19_M_get_Tp_allocatorEv(%"struct.std::_Vector_base"* %10) #3
  invoke void @_ZSt8_DestroyIPSt7complexIdES1_EvT_S3_RSaIT0_E(%"struct.std::complex"* %5, %"struct.std::complex"* %9, %"class.std::allocator"* dereferenceable(1) %11)
          to label %12 unwind label %14

12:                                               ; preds = %1
  %13 = bitcast %"class.std::vector"* %0 to %"struct.std::_Vector_base"*
  call void @_ZNSt12_Vector_baseISt7complexIdESaIS1_EED2Ev(%"struct.std::_Vector_base"* %13) #3
  ret void

14:                                               ; preds = %1
  %15 = landingpad { i8*, i32 }
          catch i8* null
  %16 = extractvalue { i8*, i32 } %15, 0
  %17 = extractvalue { i8*, i32 } %15, 1
  %18 = bitcast %"class.std::vector"* %0 to %"struct.std::_Vector_base"*
  call void @_ZNSt12_Vector_baseISt7complexIdESaIS1_EED2Ev(%"struct.std::_Vector_base"* %18) #3
  br label %19

19:                                               ; preds = %14
  call void @__clang_call_terminate(i8* %16) #13
  unreachable
}

; Function Attrs: noinline nounwind uwtable
define linkonce_odr double @_ZNKSt7complexIdE4realB5cxx11Ev(%"struct.std::complex"* %0) #4 comdat align 2 {
  %2 = getelementptr inbounds %"struct.std::complex", %"struct.std::complex"* %0, i32 0, i32 0
  %3 = getelementptr inbounds { double, double }, { double, double }* %2, i32 0, i32 0
  %4 = load double, double* %3, align 8
  ret double %4
}

; Function Attrs: noinline nounwind uwtable
define linkonce_odr double @_ZNKSt7complexIdE4imagB5cxx11Ev(%"struct.std::complex"* %0) #4 comdat align 2 {
  %2 = getelementptr inbounds %"struct.std::complex", %"struct.std::complex"* %0, i32 0, i32 0
  %3 = getelementptr inbounds { double, double }, { double, double }* %2, i32 0, i32 1
  %4 = load double, double* %3, align 8
  ret double %4
}

; Function Attrs: nocallback nofree nosync nounwind readnone speculatable willreturn
declare double @llvm.fabs.f64(double) #6

; Function Attrs: noinline uwtable
define linkonce_odr i32 @_ZNSt8ios_base4setfESt13_Ios_FmtflagsS0_(%"class.std::ios_base"* %0, i32 %1, i32 %2) #0 comdat align 2 {
  %4 = getelementptr inbounds %"class.std::ios_base", %"class.std::ios_base"* %0, i32 0, i32 3
  %5 = load i32, i32* %4, align 8
  %6 = call i32 @_ZStcoSt13_Ios_Fmtflags(i32 %2)
  %7 = getelementptr inbounds %"class.std::ios_base", %"class.std::ios_base"* %0, i32 0, i32 3
  %8 = call dereferenceable(4) i32* @_ZStaNRSt13_Ios_FmtflagsS_(i32* dereferenceable(4) %7, i32 %6)
  %9 = call i32 @_ZStanSt13_Ios_FmtflagsS_(i32 %1, i32 %2)
  %10 = getelementptr inbounds %"class.std::ios_base", %"class.std::ios_base"* %0, i32 0, i32 3
  %11 = call dereferenceable(4) i32* @_ZStoRRSt13_Ios_FmtflagsS_(i32* dereferenceable(4) %10, i32 %9)
  ret i32 %5
}

; Function Attrs: noinline uwtable
define linkonce_odr dereferenceable(4) i32* @_ZStaNRSt13_Ios_FmtflagsS_(i32* dereferenceable(4) %0, i32 %1) #0 comdat {
  %3 = load i32, i32* %0, align 4
  %4 = call i32 @_ZStanSt13_Ios_FmtflagsS_(i32 %3, i32 %1)
  store i32 %4, i32* %0, align 4
  ret i32* %0
}

; Function Attrs: noinline nounwind uwtable
define linkonce_odr i32 @_ZStcoSt13_Ios_Fmtflags(i32 %0) #4 comdat {
  %2 = xor i32 %0, -1
  ret i32 %2
}

; Function Attrs: noinline uwtable
define linkonce_odr dereferenceable(4) i32* @_ZStoRRSt13_Ios_FmtflagsS_(i32* dereferenceable(4) %0, i32 %1) #0 comdat {
  %3 = load i32, i32* %0, align 4
  %4 = call i32 @_ZStorSt13_Ios_FmtflagsS_(i32 %3, i32 %1)
  store i32 %4, i32* %0, align 4
  ret i32* %0
}

; Function Attrs: noinline nounwind uwtable
define linkonce_odr i32 @_ZStanSt13_Ios_FmtflagsS_(i32 %0, i32 %1) #4 comdat {
  %3 = and i32 %0, %1
  ret i32 %3
}

; Function Attrs: noinline nounwind uwtable
define linkonce_odr i32 @_ZStorSt13_Ios_FmtflagsS_(i32 %0, i32 %1) #4 comdat {
  %3 = or i32 %0, %1
  ret i32 %3
}

; Function Attrs: noinline uwtable
define linkonce_odr void @_ZNSt12_Vector_baseISt7complexIdESaIS1_EEC2Ev(%"struct.std::_Vector_base"* %0) unnamed_addr #0 comdat align 2 {
  %2 = getelementptr inbounds %"struct.std::_Vector_base", %"struct.std::_Vector_base"* %0, i32 0, i32 0
  call void @_ZNSt12_Vector_baseISt7complexIdESaIS1_EE12_Vector_implC2Ev(%"struct.std::_Vector_base<std::complex<double>, std::allocator<std::complex<double> > >::_Vector_impl"* %2)
  ret void
}

; Function Attrs: noinline noreturn nounwind
define linkonce_odr hidden void @__clang_call_terminate(i8* %0) #7 comdat {
  %2 = call i8* @__cxa_begin_catch(i8* %0) #3
  call void @_ZSt9terminatev() #13
  unreachable
}

declare i8* @__cxa_begin_catch(i8*)

declare void @_ZSt9terminatev()

; Function Attrs: noinline nounwind uwtable
define linkonce_odr void @_ZNSt12_Vector_baseISt7complexIdESaIS1_EE12_Vector_implC2Ev(%"struct.std::_Vector_base<std::complex<double>, std::allocator<std::complex<double> > >::_Vector_impl"* %0) unnamed_addr #4 comdat align 2 {
  %2 = bitcast %"struct.std::_Vector_base<std::complex<double>, std::allocator<std::complex<double> > >::_Vector_impl"* %0 to %"class.std::allocator"*
  call void @_ZNSaISt7complexIdEEC2Ev(%"class.std::allocator"* %2) #3
  %3 = getelementptr inbounds %"struct.std::_Vector_base<std::complex<double>, std::allocator<std::complex<double> > >::_Vector_impl", %"struct.std::_Vector_base<std::complex<double>, std::allocator<std::complex<double> > >::_Vector_impl"* %0, i32 0, i32 0
  store %"struct.std::complex"* null, %"struct.std::complex"** %3, align 8
  %4 = getelementptr inbounds %"struct.std::_Vector_base<std::complex<double>, std::allocator<std::complex<double> > >::_Vector_impl", %"struct.std::_Vector_base<std::complex<double>, std::allocator<std::complex<double> > >::_Vector_impl"* %0, i32 0, i32 1
  store %"struct.std::complex"* null, %"struct.std::complex"** %4, align 8
  %5 = getelementptr inbounds %"struct.std::_Vector_base<std::complex<double>, std::allocator<std::complex<double> > >::_Vector_impl", %"struct.std::_Vector_base<std::complex<double>, std::allocator<std::complex<double> > >::_Vector_impl"* %0, i32 0, i32 2
  store %"struct.std::complex"* null, %"struct.std::complex"** %5, align 8
  ret void
}

; Function Attrs: noinline nounwind uwtable
define linkonce_odr void @_ZNSaISt7complexIdEEC2Ev(%"class.std::allocator"* %0) unnamed_addr #4 comdat align 2 {
  %2 = bitcast %"class.std::allocator"* %0 to %"class.__gnu_cxx::new_allocator"*
  call void @_ZN9__gnu_cxx13new_allocatorISt7complexIdEEC2Ev(%"class.__gnu_cxx::new_allocator"* %2) #3
  ret void
}

; Function Attrs: noinline nounwind uwtable
define linkonce_odr void @_ZN9__gnu_cxx13new_allocatorISt7complexIdEEC2Ev(%"class.__gnu_cxx::new_allocator"* %0) unnamed_addr #4 comdat align 2 {
  ret void
}

; Function Attrs: noinline uwtable
define linkonce_odr void @_ZSt8_DestroyIPSt7complexIdES1_EvT_S3_RSaIT0_E(%"struct.std::complex"* %0, %"struct.std::complex"* %1, %"class.std::allocator"* dereferenceable(1) %2) #0 comdat {
  call void @_ZSt8_DestroyIPSt7complexIdEEvT_S3_(%"struct.std::complex"* %0, %"struct.std::complex"* %1)
  ret void
}

; Function Attrs: noinline nounwind uwtable
define linkonce_odr dereferenceable(1) %"class.std::allocator"* @_ZNSt12_Vector_baseISt7complexIdESaIS1_EE19_M_get_Tp_allocatorEv(%"struct.std::_Vector_base"* %0) #4 comdat align 2 {
  %2 = getelementptr inbounds %"struct.std::_Vector_base", %"struct.std::_Vector_base"* %0, i32 0, i32 0
  %3 = bitcast %"struct.std::_Vector_base<std::complex<double>, std::allocator<std::complex<double> > >::_Vector_impl"* %2 to %"class.std::allocator"*
  ret %"class.std::allocator"* %3
}

; Function Attrs: noinline nounwind uwtable
define linkonce_odr void @_ZNSt12_Vector_baseISt7complexIdESaIS1_EED2Ev(%"struct.std::_Vector_base"* %0) unnamed_addr #4 comdat align 2 personality i8* bitcast (i32 (...)* @__gxx_personality_v0 to i8*) {
  %2 = getelementptr inbounds %"struct.std::_Vector_base", %"struct.std::_Vector_base"* %0, i32 0, i32 0
  %3 = getelementptr inbounds %"struct.std::_Vector_base<std::complex<double>, std::allocator<std::complex<double> > >::_Vector_impl", %"struct.std::_Vector_base<std::complex<double>, std::allocator<std::complex<double> > >::_Vector_impl"* %2, i32 0, i32 0
  %4 = load %"struct.std::complex"*, %"struct.std::complex"** %3, align 8
  %5 = getelementptr inbounds %"struct.std::_Vector_base", %"struct.std::_Vector_base"* %0, i32 0, i32 0
  %6 = getelementptr inbounds %"struct.std::_Vector_base<std::complex<double>, std::allocator<std::complex<double> > >::_Vector_impl", %"struct.std::_Vector_base<std::complex<double>, std::allocator<std::complex<double> > >::_Vector_impl"* %5, i32 0, i32 2
  %7 = load %"struct.std::complex"*, %"struct.std::complex"** %6, align 8
  %8 = getelementptr inbounds %"struct.std::_Vector_base", %"struct.std::_Vector_base"* %0, i32 0, i32 0
  %9 = getelementptr inbounds %"struct.std::_Vector_base<std::complex<double>, std::allocator<std::complex<double> > >::_Vector_impl", %"struct.std::_Vector_base<std::complex<double>, std::allocator<std::complex<double> > >::_Vector_impl"* %8, i32 0, i32 0
  %10 = load %"struct.std::complex"*, %"struct.std::complex"** %9, align 8
  %11 = ptrtoint %"struct.std::complex"* %7 to i64
  %12 = ptrtoint %"struct.std::complex"* %10 to i64
  %13 = sub i64 %11, %12
  %14 = sdiv exact i64 %13, 16
  invoke void @_ZNSt12_Vector_baseISt7complexIdESaIS1_EE13_M_deallocateEPS1_m(%"struct.std::_Vector_base"* %0, %"struct.std::complex"* %4, i64 %14)
          to label %15 unwind label %17

15:                                               ; preds = %1
  %16 = getelementptr inbounds %"struct.std::_Vector_base", %"struct.std::_Vector_base"* %0, i32 0, i32 0
  call void @_ZNSt12_Vector_baseISt7complexIdESaIS1_EE12_Vector_implD2Ev(%"struct.std::_Vector_base<std::complex<double>, std::allocator<std::complex<double> > >::_Vector_impl"* %16) #3
  ret void

17:                                               ; preds = %1
  %18 = landingpad { i8*, i32 }
          catch i8* null
  %19 = extractvalue { i8*, i32 } %18, 0
  %20 = extractvalue { i8*, i32 } %18, 1
  %21 = getelementptr inbounds %"struct.std::_Vector_base", %"struct.std::_Vector_base"* %0, i32 0, i32 0
  call void @_ZNSt12_Vector_baseISt7complexIdESaIS1_EE12_Vector_implD2Ev(%"struct.std::_Vector_base<std::complex<double>, std::allocator<std::complex<double> > >::_Vector_impl"* %21) #3
  br label %22

22:                                               ; preds = %17
  call void @__clang_call_terminate(i8* %19) #13
  unreachable
}

; Function Attrs: noinline uwtable
define linkonce_odr void @_ZSt8_DestroyIPSt7complexIdEEvT_S3_(%"struct.std::complex"* %0, %"struct.std::complex"* %1) #0 comdat {
  call void @_ZNSt12_Destroy_auxILb1EE9__destroyIPSt7complexIdEEEvT_S5_(%"struct.std::complex"* %0, %"struct.std::complex"* %1)
  ret void
}

; Function Attrs: noinline nounwind uwtable
define linkonce_odr void @_ZNSt12_Destroy_auxILb1EE9__destroyIPSt7complexIdEEEvT_S5_(%"struct.std::complex"* %0, %"struct.std::complex"* %1) #4 comdat align 2 {
  ret void
}

; Function Attrs: noinline uwtable
define linkonce_odr void @_ZNSt12_Vector_baseISt7complexIdESaIS1_EE13_M_deallocateEPS1_m(%"struct.std::_Vector_base"* %0, %"struct.std::complex"* %1, i64 %2) #0 comdat align 2 {
  %4 = icmp ne %"struct.std::complex"* %1, null
  br i1 %4, label %5, label %8

5:                                                ; preds = %3
  %6 = getelementptr inbounds %"struct.std::_Vector_base", %"struct.std::_Vector_base"* %0, i32 0, i32 0
  %7 = bitcast %"struct.std::_Vector_base<std::complex<double>, std::allocator<std::complex<double> > >::_Vector_impl"* %6 to %"class.std::allocator"*
  call void @_ZNSt16allocator_traitsISaISt7complexIdEEE10deallocateERS2_PS1_m(%"class.std::allocator"* dereferenceable(1) %7, %"struct.std::complex"* %1, i64 %2)
  br label %8

8:                                                ; preds = %5, %3
  ret void
}

; Function Attrs: noinline nounwind uwtable
define linkonce_odr void @_ZNSt12_Vector_baseISt7complexIdESaIS1_EE12_Vector_implD2Ev(%"struct.std::_Vector_base<std::complex<double>, std::allocator<std::complex<double> > >::_Vector_impl"* %0) unnamed_addr #4 comdat align 2 {
  %2 = bitcast %"struct.std::_Vector_base<std::complex<double>, std::allocator<std::complex<double> > >::_Vector_impl"* %0 to %"class.std::allocator"*
  call void @_ZNSaISt7complexIdEED2Ev(%"class.std::allocator"* %2) #3
  ret void
}

; Function Attrs: noinline uwtable
define linkonce_odr void @_ZNSt16allocator_traitsISaISt7complexIdEEE10deallocateERS2_PS1_m(%"class.std::allocator"* dereferenceable(1) %0, %"struct.std::complex"* %1, i64 %2) #0 comdat align 2 {
  %4 = bitcast %"class.std::allocator"* %0 to %"class.__gnu_cxx::new_allocator"*
  call void @_ZN9__gnu_cxx13new_allocatorISt7complexIdEE10deallocateEPS2_m(%"class.__gnu_cxx::new_allocator"* %4, %"struct.std::complex"* %1, i64 %2)
  ret void
}

; Function Attrs: noinline nounwind uwtable
define linkonce_odr void @_ZN9__gnu_cxx13new_allocatorISt7complexIdEE10deallocateEPS2_m(%"class.__gnu_cxx::new_allocator"* %0, %"struct.std::complex"* %1, i64 %2) #4 comdat align 2 {
  %4 = bitcast %"struct.std::complex"* %1 to i8*
  call void @_ZdlPv(i8* %4) #3
  ret void
}

; Function Attrs: nobuiltin nounwind
declare void @_ZdlPv(i8*) #8

; Function Attrs: noinline nounwind uwtable
define linkonce_odr void @_ZNSaISt7complexIdEED2Ev(%"class.std::allocator"* %0) unnamed_addr #4 comdat align 2 {
  %2 = bitcast %"class.std::allocator"* %0 to %"class.__gnu_cxx::new_allocator"*
  call void @_ZN9__gnu_cxx13new_allocatorISt7complexIdEED2Ev(%"class.__gnu_cxx::new_allocator"* %2) #3
  ret void
}

; Function Attrs: noinline nounwind uwtable
define linkonce_odr void @_ZN9__gnu_cxx13new_allocatorISt7complexIdEED2Ev(%"class.__gnu_cxx::new_allocator"* %0) unnamed_addr #4 comdat align 2 {
  ret void
}

; Function Attrs: noinline nounwind uwtable
define linkonce_odr dereferenceable(16) %"struct.std::complex"* @_ZNSt7complexIdEmLIdEERS0_RKS_IT_E(%"struct.std::complex"* %0, %"struct.std::complex"* dereferenceable(16) %1) #4 comdat align 2 {
  %3 = alloca { double, double }, align 8
  %4 = call double @_ZNKSt7complexIdE4realB5cxx11Ev(%"struct.std::complex"* %1)
  %5 = getelementptr inbounds { double, double }, { double, double }* %3, i32 0, i32 0
  store double %4, double* %5, align 8
  %6 = call double @_ZNKSt7complexIdE4imagB5cxx11Ev(%"struct.std::complex"* %1)
  %7 = getelementptr inbounds { double, double }, { double, double }* %3, i32 0, i32 1
  store double %6, double* %7, align 8
  %8 = getelementptr inbounds { double, double }, { double, double }* %3, i32 0, i32 0
  %9 = load double, double* %8, align 8
  %10 = getelementptr inbounds { double, double }, { double, double }* %3, i32 0, i32 1
  %11 = load double, double* %10, align 8
  %12 = getelementptr inbounds %"struct.std::complex", %"struct.std::complex"* %0, i32 0, i32 0
  %13 = getelementptr inbounds { double, double }, { double, double }* %12, i32 0, i32 0
  %14 = load double, double* %13, align 8
  %15 = getelementptr inbounds { double, double }, { double, double }* %12, i32 0, i32 1
  %16 = load double, double* %15, align 8
  %17 = fmul double %14, %9
  %18 = fmul double %16, %11
  %19 = fmul double %14, %11
  %20 = fmul double %16, %9
  %21 = fsub double %17, %18
  %22 = fadd double %19, %20
  %23 = fcmp uno double %21, %21
  br i1 %23, label %24, label %30, !prof !2

24:                                               ; preds = %2
  %25 = fcmp uno double %22, %22
  br i1 %25, label %26, label %30, !prof !2

26:                                               ; preds = %24
  %27 = call { double, double } @__muldc3(double %14, double %16, double %9, double %11) #3
  %28 = extractvalue { double, double } %27, 0
  %29 = extractvalue { double, double } %27, 1
  br label %30

30:                                               ; preds = %26, %24, %2
  %31 = phi double [ %21, %2 ], [ %21, %24 ], [ %28, %26 ]
  %32 = phi double [ %22, %2 ], [ %22, %24 ], [ %29, %26 ]
  %33 = getelementptr inbounds { double, double }, { double, double }* %12, i32 0, i32 0
  %34 = getelementptr inbounds { double, double }, { double, double }* %12, i32 0, i32 1
  store double %31, double* %33, align 8
  store double %32, double* %34, align 8
  ret %"struct.std::complex"* %0
}

declare { double, double } @__muldc3(double, double, double, double)

; Function Attrs: noinline uwtable
define linkonce_odr void @_ZNSt16allocator_traitsISaISt7complexIdEEE9constructIS1_JRKS1_EEEvRS2_PT_DpOT0_(%"class.std::allocator"* dereferenceable(1) %0, %"struct.std::complex"* %1, %"struct.std::complex"* dereferenceable(16) %2) #0 comdat align 2 {
  %4 = bitcast %"class.std::allocator"* %0 to %"class.__gnu_cxx::new_allocator"*
  %5 = call dereferenceable(16) %"struct.std::complex"* @_ZSt7forwardIRKSt7complexIdEEOT_RNSt16remove_referenceIS4_E4typeE(%"struct.std::complex"* dereferenceable(16) %2) #3
  call void @_ZN9__gnu_cxx13new_allocatorISt7complexIdEE9constructIS2_JRKS2_EEEvPT_DpOT0_(%"class.__gnu_cxx::new_allocator"* %4, %"struct.std::complex"* %1, %"struct.std::complex"* dereferenceable(16) %5)
  ret void
}

; Function Attrs: noinline uwtable
define linkonce_odr void @_ZNSt6vectorISt7complexIdESaIS1_EE17_M_realloc_insertIJRKS1_EEEvN9__gnu_cxx17__normal_iteratorIPS1_S3_EEDpOT_(%"class.std::vector"* %0, %"struct.std::complex"* %1, %"struct.std::complex"* dereferenceable(16) %2) #0 comdat align 2 personality i8* bitcast (i32 (...)* @__gxx_personality_v0 to i8*) {
  %4 = alloca %"class.__gnu_cxx::__normal_iterator", align 8
  %5 = alloca %"class.__gnu_cxx::__normal_iterator", align 8
  %6 = getelementptr inbounds %"class.__gnu_cxx::__normal_iterator", %"class.__gnu_cxx::__normal_iterator"* %4, i32 0, i32 0
  store %"struct.std::complex"* %1, %"struct.std::complex"** %6, align 8
  %7 = call i64 @_ZNKSt6vectorISt7complexIdESaIS1_EE12_M_check_lenEmPKc(%"class.std::vector"* %0, i64 1, i8* getelementptr inbounds ([26 x i8], [26 x i8]* @.str.2, i32 0, i32 0))
  %8 = bitcast %"class.std::vector"* %0 to %"struct.std::_Vector_base"*
  %9 = getelementptr inbounds %"struct.std::_Vector_base", %"struct.std::_Vector_base"* %8, i32 0, i32 0
  %10 = getelementptr inbounds %"struct.std::_Vector_base<std::complex<double>, std::allocator<std::complex<double> > >::_Vector_impl", %"struct.std::_Vector_base<std::complex<double>, std::allocator<std::complex<double> > >::_Vector_impl"* %9, i32 0, i32 0
  %11 = load %"struct.std::complex"*, %"struct.std::complex"** %10, align 8
  %12 = bitcast %"class.std::vector"* %0 to %"struct.std::_Vector_base"*
  %13 = getelementptr inbounds %"struct.std::_Vector_base", %"struct.std::_Vector_base"* %12, i32 0, i32 0
  %14 = getelementptr inbounds %"struct.std::_Vector_base<std::complex<double>, std::allocator<std::complex<double> > >::_Vector_impl", %"struct.std::_Vector_base<std::complex<double>, std::allocator<std::complex<double> > >::_Vector_impl"* %13, i32 0, i32 1
  %15 = load %"struct.std::complex"*, %"struct.std::complex"** %14, align 8
  %16 = call %"struct.std::complex"* @_ZNSt6vectorISt7complexIdESaIS1_EE5beginEv(%"class.std::vector"* %0) #3
  %17 = getelementptr inbounds %"class.__gnu_cxx::__normal_iterator", %"class.__gnu_cxx::__normal_iterator"* %5, i32 0, i32 0
  store %"struct.std::complex"* %16, %"struct.std::complex"** %17, align 8
  %18 = call i64 @_ZN9__gnu_cxxmiIPSt7complexIdESt6vectorIS2_SaIS2_EEEENS_17__normal_iteratorIT_T0_E15difference_typeERKSA_SD_(%"class.__gnu_cxx::__normal_iterator"* dereferenceable(8) %4, %"class.__gnu_cxx::__normal_iterator"* dereferenceable(8) %5) #3
  %19 = bitcast %"class.std::vector"* %0 to %"struct.std::_Vector_base"*
  %20 = call %"struct.std::complex"* @_ZNSt12_Vector_baseISt7complexIdESaIS1_EE11_M_allocateEm(%"struct.std::_Vector_base"* %19, i64 %7)
  %21 = bitcast %"class.std::vector"* %0 to %"struct.std::_Vector_base"*
  %22 = getelementptr inbounds %"struct.std::_Vector_base", %"struct.std::_Vector_base"* %21, i32 0, i32 0
  %23 = bitcast %"struct.std::_Vector_base<std::complex<double>, std::allocator<std::complex<double> > >::_Vector_impl"* %22 to %"class.std::allocator"*
  %24 = getelementptr inbounds %"struct.std::complex", %"struct.std::complex"* %20, i64 %18
  %25 = call dereferenceable(16) %"struct.std::complex"* @_ZSt7forwardIRKSt7complexIdEEOT_RNSt16remove_referenceIS4_E4typeE(%"struct.std::complex"* dereferenceable(16) %2) #3
  invoke void @_ZNSt16allocator_traitsISaISt7complexIdEEE9constructIS1_JRKS1_EEEvRS2_PT_DpOT0_(%"class.std::allocator"* dereferenceable(1) %23, %"struct.std::complex"* %24, %"struct.std::complex"* dereferenceable(16) %25)
          to label %26 unwind label %40

26:                                               ; preds = %3
  %27 = call dereferenceable(8) %"struct.std::complex"** @_ZNK9__gnu_cxx17__normal_iteratorIPSt7complexIdESt6vectorIS2_SaIS2_EEE4baseEv(%"class.__gnu_cxx::__normal_iterator"* %4) #3
  %28 = load %"struct.std::complex"*, %"struct.std::complex"** %27, align 8
  %29 = bitcast %"class.std::vector"* %0 to %"struct.std::_Vector_base"*
  %30 = call dereferenceable(1) %"class.std::allocator"* @_ZNSt12_Vector_baseISt7complexIdESaIS1_EE19_M_get_Tp_allocatorEv(%"struct.std::_Vector_base"* %29) #3
  %31 = invoke %"struct.std::complex"* @_ZSt34__uninitialized_move_if_noexcept_aIPSt7complexIdES2_SaIS1_EET0_T_S5_S4_RT1_(%"struct.std::complex"* %11, %"struct.std::complex"* %28, %"struct.std::complex"* %20, %"class.std::allocator"* dereferenceable(1) %30)
          to label %32 unwind label %40

32:                                               ; preds = %26
  %33 = getelementptr inbounds %"struct.std::complex", %"struct.std::complex"* %31, i32 1
  %34 = call dereferenceable(8) %"struct.std::complex"** @_ZNK9__gnu_cxx17__normal_iteratorIPSt7complexIdESt6vectorIS2_SaIS2_EEE4baseEv(%"class.__gnu_cxx::__normal_iterator"* %4) #3
  %35 = load %"struct.std::complex"*, %"struct.std::complex"** %34, align 8
  %36 = bitcast %"class.std::vector"* %0 to %"struct.std::_Vector_base"*
  %37 = call dereferenceable(1) %"class.std::allocator"* @_ZNSt12_Vector_baseISt7complexIdESaIS1_EE19_M_get_Tp_allocatorEv(%"struct.std::_Vector_base"* %36) #3
  %38 = invoke %"struct.std::complex"* @_ZSt34__uninitialized_move_if_noexcept_aIPSt7complexIdES2_SaIS1_EET0_T_S5_S4_RT1_(%"struct.std::complex"* %35, %"struct.std::complex"* %15, %"struct.std::complex"* %33, %"class.std::allocator"* dereferenceable(1) %37)
          to label %39 unwind label %40

39:                                               ; preds = %32
  br label %65

40:                                               ; preds = %32, %26, %3
  %.0 = phi %"struct.std::complex"* [ %33, %32 ], [ null, %26 ], [ %20, %3 ]
  %41 = landingpad { i8*, i32 }
          catch i8* null
  %42 = extractvalue { i8*, i32 } %41, 0
  %43 = extractvalue { i8*, i32 } %41, 1
  br label %44

44:                                               ; preds = %40
  %45 = call i8* @__cxa_begin_catch(i8* %42) #3
  %46 = icmp ne %"struct.std::complex"* %.0, null
  br i1 %46, label %57, label %47

47:                                               ; preds = %44
  %48 = bitcast %"class.std::vector"* %0 to %"struct.std::_Vector_base"*
  %49 = getelementptr inbounds %"struct.std::_Vector_base", %"struct.std::_Vector_base"* %48, i32 0, i32 0
  %50 = bitcast %"struct.std::_Vector_base<std::complex<double>, std::allocator<std::complex<double> > >::_Vector_impl"* %49 to %"class.std::allocator"*
  %51 = getelementptr inbounds %"struct.std::complex", %"struct.std::complex"* %20, i64 %18
  invoke void @_ZNSt16allocator_traitsISaISt7complexIdEEE7destroyIS1_EEvRS2_PT_(%"class.std::allocator"* dereferenceable(1) %50, %"struct.std::complex"* %51)
          to label %52 unwind label %53

52:                                               ; preds = %47
  br label %61

53:                                               ; preds = %63, %61, %57, %47
  %54 = landingpad { i8*, i32 }
          cleanup
  %55 = extractvalue { i8*, i32 } %54, 0
  %56 = extractvalue { i8*, i32 } %54, 1
  invoke void @__cxa_end_catch()
          to label %64 unwind label %90

57:                                               ; preds = %44
  %58 = bitcast %"class.std::vector"* %0 to %"struct.std::_Vector_base"*
  %59 = call dereferenceable(1) %"class.std::allocator"* @_ZNSt12_Vector_baseISt7complexIdESaIS1_EE19_M_get_Tp_allocatorEv(%"struct.std::_Vector_base"* %58) #3
  invoke void @_ZSt8_DestroyIPSt7complexIdES1_EvT_S3_RSaIT0_E(%"struct.std::complex"* %20, %"struct.std::complex"* %.0, %"class.std::allocator"* dereferenceable(1) %59)
          to label %60 unwind label %53

60:                                               ; preds = %57
  br label %61

61:                                               ; preds = %60, %52
  %62 = bitcast %"class.std::vector"* %0 to %"struct.std::_Vector_base"*
  invoke void @_ZNSt12_Vector_baseISt7complexIdESaIS1_EE13_M_deallocateEPS1_m(%"struct.std::_Vector_base"* %62, %"struct.std::complex"* %20, i64 %7)
          to label %63 unwind label %53

63:                                               ; preds = %61
  invoke void @__cxa_rethrow() #14
          to label %93 unwind label %53

64:                                               ; preds = %53
  br label %87

65:                                               ; preds = %39
  %66 = bitcast %"class.std::vector"* %0 to %"struct.std::_Vector_base"*
  %67 = call dereferenceable(1) %"class.std::allocator"* @_ZNSt12_Vector_baseISt7complexIdESaIS1_EE19_M_get_Tp_allocatorEv(%"struct.std::_Vector_base"* %66) #3
  call void @_ZSt8_DestroyIPSt7complexIdES1_EvT_S3_RSaIT0_E(%"struct.std::complex"* %11, %"struct.std::complex"* %15, %"class.std::allocator"* dereferenceable(1) %67)
  %68 = bitcast %"class.std::vector"* %0 to %"struct.std::_Vector_base"*
  %69 = bitcast %"class.std::vector"* %0 to %"struct.std::_Vector_base"*
  %70 = getelementptr inbounds %"struct.std::_Vector_base", %"struct.std::_Vector_base"* %69, i32 0, i32 0
  %71 = getelementptr inbounds %"struct.std::_Vector_base<std::complex<double>, std::allocator<std::complex<double> > >::_Vector_impl", %"struct.std::_Vector_base<std::complex<double>, std::allocator<std::complex<double> > >::_Vector_impl"* %70, i32 0, i32 2
  %72 = load %"struct.std::complex"*, %"struct.std::complex"** %71, align 8
  %73 = ptrtoint %"struct.std::complex"* %72 to i64
  %74 = ptrtoint %"struct.std::complex"* %11 to i64
  %75 = sub i64 %73, %74
  %76 = sdiv exact i64 %75, 16
  call void @_ZNSt12_Vector_baseISt7complexIdESaIS1_EE13_M_deallocateEPS1_m(%"struct.std::_Vector_base"* %68, %"struct.std::complex"* %11, i64 %76)
  %77 = bitcast %"class.std::vector"* %0 to %"struct.std::_Vector_base"*
  %78 = getelementptr inbounds %"struct.std::_Vector_base", %"struct.std::_Vector_base"* %77, i32 0, i32 0
  %79 = getelementptr inbounds %"struct.std::_Vector_base<std::complex<double>, std::allocator<std::complex<double> > >::_Vector_impl", %"struct.std::_Vector_base<std::complex<double>, std::allocator<std::complex<double> > >::_Vector_impl"* %78, i32 0, i32 0
  store %"struct.std::complex"* %20, %"struct.std::complex"** %79, align 8
  %80 = bitcast %"class.std::vector"* %0 to %"struct.std::_Vector_base"*
  %81 = getelementptr inbounds %"struct.std::_Vector_base", %"struct.std::_Vector_base"* %80, i32 0, i32 0
  %82 = getelementptr inbounds %"struct.std::_Vector_base<std::complex<double>, std::allocator<std::complex<double> > >::_Vector_impl", %"struct.std::_Vector_base<std::complex<double>, std::allocator<std::complex<double> > >::_Vector_impl"* %81, i32 0, i32 1
  store %"struct.std::complex"* %38, %"struct.std::complex"** %82, align 8
  %83 = getelementptr inbounds %"struct.std::complex", %"struct.std::complex"* %20, i64 %7
  %84 = bitcast %"class.std::vector"* %0 to %"struct.std::_Vector_base"*
  %85 = getelementptr inbounds %"struct.std::_Vector_base", %"struct.std::_Vector_base"* %84, i32 0, i32 0
  %86 = getelementptr inbounds %"struct.std::_Vector_base<std::complex<double>, std::allocator<std::complex<double> > >::_Vector_impl", %"struct.std::_Vector_base<std::complex<double>, std::allocator<std::complex<double> > >::_Vector_impl"* %85, i32 0, i32 2
  store %"struct.std::complex"* %83, %"struct.std::complex"** %86, align 8
  ret void

87:                                               ; preds = %64
  %88 = insertvalue { i8*, i32 } undef, i8* %55, 0
  %89 = insertvalue { i8*, i32 } %88, i32 %56, 1
  resume { i8*, i32 } %89

90:                                               ; preds = %53
  %91 = landingpad { i8*, i32 }
          catch i8* null
  %92 = extractvalue { i8*, i32 } %91, 0
  call void @__clang_call_terminate(i8* %92) #13
  unreachable

93:                                               ; preds = %63
  unreachable
}

; Function Attrs: noinline nounwind uwtable
define linkonce_odr %"struct.std::complex"* @_ZNSt6vectorISt7complexIdESaIS1_EE3endEv(%"class.std::vector"* %0) #4 comdat align 2 {
  %2 = alloca %"class.__gnu_cxx::__normal_iterator", align 8
  %3 = bitcast %"class.std::vector"* %0 to %"struct.std::_Vector_base"*
  %4 = getelementptr inbounds %"struct.std::_Vector_base", %"struct.std::_Vector_base"* %3, i32 0, i32 0
  %5 = getelementptr inbounds %"struct.std::_Vector_base<std::complex<double>, std::allocator<std::complex<double> > >::_Vector_impl", %"struct.std::_Vector_base<std::complex<double>, std::allocator<std::complex<double> > >::_Vector_impl"* %4, i32 0, i32 1
  call void @_ZN9__gnu_cxx17__normal_iteratorIPSt7complexIdESt6vectorIS2_SaIS2_EEEC2ERKS3_(%"class.__gnu_cxx::__normal_iterator"* %2, %"struct.std::complex"** dereferenceable(8) %5) #3
  %6 = getelementptr inbounds %"class.__gnu_cxx::__normal_iterator", %"class.__gnu_cxx::__normal_iterator"* %2, i32 0, i32 0
  %7 = load %"struct.std::complex"*, %"struct.std::complex"** %6, align 8
  ret %"struct.std::complex"* %7
}

; Function Attrs: noinline nounwind uwtable
define linkonce_odr void @_ZN9__gnu_cxx13new_allocatorISt7complexIdEE9constructIS2_JRKS2_EEEvPT_DpOT0_(%"class.__gnu_cxx::new_allocator"* %0, %"struct.std::complex"* %1, %"struct.std::complex"* dereferenceable(16) %2) #4 comdat align 2 {
  %4 = bitcast %"struct.std::complex"* %1 to i8*
  %5 = bitcast i8* %4 to %"struct.std::complex"*
  %6 = call dereferenceable(16) %"struct.std::complex"* @_ZSt7forwardIRKSt7complexIdEEOT_RNSt16remove_referenceIS4_E4typeE(%"struct.std::complex"* dereferenceable(16) %2) #3
  %7 = bitcast %"struct.std::complex"* %5 to i8*
  %8 = bitcast %"struct.std::complex"* %6 to i8*
  call void @llvm.memcpy.p0i8.p0i8.i64(i8* align 8 %7, i8* align 8 %8, i64 16, i1 false)
  ret void
}

; Function Attrs: noinline nounwind uwtable
define linkonce_odr dereferenceable(16) %"struct.std::complex"* @_ZSt7forwardIRKSt7complexIdEEOT_RNSt16remove_referenceIS4_E4typeE(%"struct.std::complex"* dereferenceable(16) %0) #4 comdat {
  ret %"struct.std::complex"* %0
}

; Function Attrs: noinline uwtable
define linkonce_odr i64 @_ZNKSt6vectorISt7complexIdESaIS1_EE12_M_check_lenEmPKc(%"class.std::vector"* %0, i64 %1, i8* %2) #0 comdat align 2 {
  %4 = alloca i64, align 8
  %5 = alloca i64, align 8
  store i64 %1, i64* %4, align 8
  %6 = call i64 @_ZNKSt6vectorISt7complexIdESaIS1_EE8max_sizeEv(%"class.std::vector"* %0) #3
  %7 = call i64 @_ZNKSt6vectorISt7complexIdESaIS1_EE4sizeEv(%"class.std::vector"* %0) #3
  %8 = sub i64 %6, %7
  %9 = load i64, i64* %4, align 8
  %10 = icmp ult i64 %8, %9
  br i1 %10, label %11, label %12

11:                                               ; preds = %3
  call void @_ZSt20__throw_length_errorPKc(i8* %2) #14
  unreachable

12:                                               ; preds = %3
  %13 = call i64 @_ZNKSt6vectorISt7complexIdESaIS1_EE4sizeEv(%"class.std::vector"* %0) #3
  %14 = call i64 @_ZNKSt6vectorISt7complexIdESaIS1_EE4sizeEv(%"class.std::vector"* %0) #3
  store i64 %14, i64* %5, align 8
  %15 = call dereferenceable(8) i64* @_ZSt3maxImERKT_S2_S2_(i64* dereferenceable(8) %5, i64* dereferenceable(8) %4)
  %16 = load i64, i64* %15, align 8
  %17 = add i64 %13, %16
  %18 = call i64 @_ZNKSt6vectorISt7complexIdESaIS1_EE4sizeEv(%"class.std::vector"* %0) #3
  %19 = icmp ult i64 %17, %18
  br i1 %19, label %23, label %20

20:                                               ; preds = %12
  %21 = call i64 @_ZNKSt6vectorISt7complexIdESaIS1_EE8max_sizeEv(%"class.std::vector"* %0) #3
  %22 = icmp ugt i64 %17, %21
  br i1 %22, label %23, label %25

23:                                               ; preds = %20, %12
  %24 = call i64 @_ZNKSt6vectorISt7complexIdESaIS1_EE8max_sizeEv(%"class.std::vector"* %0) #3
  br label %26

25:                                               ; preds = %20
  br label %26

26:                                               ; preds = %25, %23
  %27 = phi i64 [ %24, %23 ], [ %17, %25 ]
  ret i64 %27
}

; Function Attrs: noinline nounwind uwtable
define linkonce_odr i64 @_ZN9__gnu_cxxmiIPSt7complexIdESt6vectorIS2_SaIS2_EEEENS_17__normal_iteratorIT_T0_E15difference_typeERKSA_SD_(%"class.__gnu_cxx::__normal_iterator"* dereferenceable(8) %0, %"class.__gnu_cxx::__normal_iterator"* dereferenceable(8) %1) #4 comdat {
  %3 = call dereferenceable(8) %"struct.std::complex"** @_ZNK9__gnu_cxx17__normal_iteratorIPSt7complexIdESt6vectorIS2_SaIS2_EEE4baseEv(%"class.__gnu_cxx::__normal_iterator"* %0) #3
  %4 = load %"struct.std::complex"*, %"struct.std::complex"** %3, align 8
  %5 = call dereferenceable(8) %"struct.std::complex"** @_ZNK9__gnu_cxx17__normal_iteratorIPSt7complexIdESt6vectorIS2_SaIS2_EEE4baseEv(%"class.__gnu_cxx::__normal_iterator"* %1) #3
  %6 = load %"struct.std::complex"*, %"struct.std::complex"** %5, align 8
  %7 = ptrtoint %"struct.std::complex"* %4 to i64
  %8 = ptrtoint %"struct.std::complex"* %6 to i64
  %9 = sub i64 %7, %8
  %10 = sdiv exact i64 %9, 16
  ret i64 %10
}

; Function Attrs: noinline uwtable
define linkonce_odr %"struct.std::complex"* @_ZNSt12_Vector_baseISt7complexIdESaIS1_EE11_M_allocateEm(%"struct.std::_Vector_base"* %0, i64 %1) #0 comdat align 2 {
  %3 = icmp ne i64 %1, 0
  br i1 %3, label %4, label %8

4:                                                ; preds = %2
  %5 = getelementptr inbounds %"struct.std::_Vector_base", %"struct.std::_Vector_base"* %0, i32 0, i32 0
  %6 = bitcast %"struct.std::_Vector_base<std::complex<double>, std::allocator<std::complex<double> > >::_Vector_impl"* %5 to %"class.std::allocator"*
  %7 = call %"struct.std::complex"* @_ZNSt16allocator_traitsISaISt7complexIdEEE8allocateERS2_m(%"class.std::allocator"* dereferenceable(1) %6, i64 %1)
  br label %9

8:                                                ; preds = %2
  br label %9

9:                                                ; preds = %8, %4
  %10 = phi %"struct.std::complex"* [ %7, %4 ], [ null, %8 ]
  ret %"struct.std::complex"* %10
}

; Function Attrs: noinline uwtable
define linkonce_odr %"struct.std::complex"* @_ZSt34__uninitialized_move_if_noexcept_aIPSt7complexIdES2_SaIS1_EET0_T_S5_S4_RT1_(%"struct.std::complex"* %0, %"struct.std::complex"* %1, %"struct.std::complex"* %2, %"class.std::allocator"* dereferenceable(1) %3) #0 comdat {
  %5 = alloca %"class.std::move_iterator", align 8
  %6 = alloca %"class.std::move_iterator", align 8
  %7 = call %"struct.std::complex"* @_ZSt32__make_move_if_noexcept_iteratorISt7complexIdESt13move_iteratorIPS1_EET0_PT_(%"struct.std::complex"* %0)
  %8 = getelementptr inbounds %"class.std::move_iterator", %"class.std::move_iterator"* %5, i32 0, i32 0
  store %"struct.std::complex"* %7, %"struct.std::complex"** %8, align 8
  %9 = call %"struct.std::complex"* @_ZSt32__make_move_if_noexcept_iteratorISt7complexIdESt13move_iteratorIPS1_EET0_PT_(%"struct.std::complex"* %1)
  %10 = getelementptr inbounds %"class.std::move_iterator", %"class.std::move_iterator"* %6, i32 0, i32 0
  store %"struct.std::complex"* %9, %"struct.std::complex"** %10, align 8
  %11 = getelementptr inbounds %"class.std::move_iterator", %"class.std::move_iterator"* %5, i32 0, i32 0
  %12 = load %"struct.std::complex"*, %"struct.std::complex"** %11, align 8
  %13 = getelementptr inbounds %"class.std::move_iterator", %"class.std::move_iterator"* %6, i32 0, i32 0
  %14 = load %"struct.std::complex"*, %"struct.std::complex"** %13, align 8
  %15 = call %"struct.std::complex"* @_ZSt22__uninitialized_copy_aISt13move_iteratorIPSt7complexIdEES3_S2_ET0_T_S6_S5_RSaIT1_E(%"struct.std::complex"* %12, %"struct.std::complex"* %14, %"struct.std::complex"* %2, %"class.std::allocator"* dereferenceable(1) %3)
  ret %"struct.std::complex"* %15
}

; Function Attrs: noinline nounwind uwtable
define linkonce_odr dereferenceable(8) %"struct.std::complex"** @_ZNK9__gnu_cxx17__normal_iteratorIPSt7complexIdESt6vectorIS2_SaIS2_EEE4baseEv(%"class.__gnu_cxx::__normal_iterator"* %0) #4 comdat align 2 {
  %2 = getelementptr inbounds %"class.__gnu_cxx::__normal_iterator", %"class.__gnu_cxx::__normal_iterator"* %0, i32 0, i32 0
  ret %"struct.std::complex"** %2
}

; Function Attrs: noinline uwtable
define linkonce_odr void @_ZNSt16allocator_traitsISaISt7complexIdEEE7destroyIS1_EEvRS2_PT_(%"class.std::allocator"* dereferenceable(1) %0, %"struct.std::complex"* %1) #0 comdat align 2 {
  %3 = bitcast %"class.std::allocator"* %0 to %"class.__gnu_cxx::new_allocator"*
  call void @_ZN9__gnu_cxx13new_allocatorISt7complexIdEE7destroyIS2_EEvPT_(%"class.__gnu_cxx::new_allocator"* %3, %"struct.std::complex"* %1)
  ret void
}

declare void @__cxa_rethrow()

declare void @__cxa_end_catch()

; Function Attrs: noinline nounwind uwtable
define linkonce_odr i64 @_ZNKSt6vectorISt7complexIdESaIS1_EE8max_sizeEv(%"class.std::vector"* %0) #4 comdat align 2 {
  %2 = bitcast %"class.std::vector"* %0 to %"struct.std::_Vector_base"*
  %3 = call dereferenceable(1) %"class.std::allocator"* @_ZNKSt12_Vector_baseISt7complexIdESaIS1_EE19_M_get_Tp_allocatorEv(%"struct.std::_Vector_base"* %2) #3
  %4 = call i64 @_ZNSt16allocator_traitsISaISt7complexIdEEE8max_sizeERKS2_(%"class.std::allocator"* dereferenceable(1) %3) #3
  ret i64 %4
}

; Function Attrs: noreturn
declare void @_ZSt20__throw_length_errorPKc(i8*) #9

; Function Attrs: noinline nounwind uwtable
define linkonce_odr dereferenceable(8) i64* @_ZSt3maxImERKT_S2_S2_(i64* dereferenceable(8) %0, i64* dereferenceable(8) %1) #4 comdat {
  %3 = load i64, i64* %0, align 8
  %4 = load i64, i64* %1, align 8
  %5 = icmp ult i64 %3, %4
  br i1 %5, label %6, label %7

6:                                                ; preds = %2
  br label %8

7:                                                ; preds = %2
  br label %8

8:                                                ; preds = %7, %6
  %.0 = phi i64* [ %1, %6 ], [ %0, %7 ]
  ret i64* %.0
}

; Function Attrs: noinline nounwind uwtable
define linkonce_odr i64 @_ZNSt16allocator_traitsISaISt7complexIdEEE8max_sizeERKS2_(%"class.std::allocator"* dereferenceable(1) %0) #4 comdat align 2 {
  %2 = bitcast %"class.std::allocator"* %0 to %"class.__gnu_cxx::new_allocator"*
  %3 = call i64 @_ZNK9__gnu_cxx13new_allocatorISt7complexIdEE8max_sizeEv(%"class.__gnu_cxx::new_allocator"* %2) #3
  ret i64 %3
}

; Function Attrs: noinline nounwind uwtable
define linkonce_odr dereferenceable(1) %"class.std::allocator"* @_ZNKSt12_Vector_baseISt7complexIdESaIS1_EE19_M_get_Tp_allocatorEv(%"struct.std::_Vector_base"* %0) #4 comdat align 2 {
  %2 = getelementptr inbounds %"struct.std::_Vector_base", %"struct.std::_Vector_base"* %0, i32 0, i32 0
  %3 = bitcast %"struct.std::_Vector_base<std::complex<double>, std::allocator<std::complex<double> > >::_Vector_impl"* %2 to %"class.std::allocator"*
  ret %"class.std::allocator"* %3
}

; Function Attrs: noinline nounwind uwtable
define linkonce_odr i64 @_ZNK9__gnu_cxx13new_allocatorISt7complexIdEE8max_sizeEv(%"class.__gnu_cxx::new_allocator"* %0) #4 comdat align 2 {
  ret i64 1152921504606846975
}

; Function Attrs: noinline uwtable
define linkonce_odr %"struct.std::complex"* @_ZNSt16allocator_traitsISaISt7complexIdEEE8allocateERS2_m(%"class.std::allocator"* dereferenceable(1) %0, i64 %1) #0 comdat align 2 {
  %3 = bitcast %"class.std::allocator"* %0 to %"class.__gnu_cxx::new_allocator"*
  %4 = call %"struct.std::complex"* @_ZN9__gnu_cxx13new_allocatorISt7complexIdEE8allocateEmPKv(%"class.__gnu_cxx::new_allocator"* %3, i64 %1, i8* null)
  ret %"struct.std::complex"* %4
}

; Function Attrs: noinline uwtable
define linkonce_odr %"struct.std::complex"* @_ZN9__gnu_cxx13new_allocatorISt7complexIdEE8allocateEmPKv(%"class.__gnu_cxx::new_allocator"* %0, i64 %1, i8* %2) #0 comdat align 2 {
  %4 = call i64 @_ZNK9__gnu_cxx13new_allocatorISt7complexIdEE8max_sizeEv(%"class.__gnu_cxx::new_allocator"* %0) #3
  %5 = icmp ugt i64 %1, %4
  br i1 %5, label %6, label %7

6:                                                ; preds = %3
  call void @_ZSt17__throw_bad_allocv() #14
  unreachable

7:                                                ; preds = %3
  %8 = mul i64 %1, 16
  %9 = call i8* @_Znwm(i64 %8)
  %10 = bitcast i8* %9 to %"struct.std::complex"*
  ret %"struct.std::complex"* %10
}

; Function Attrs: noreturn
declare void @_ZSt17__throw_bad_allocv() #9

; Function Attrs: nobuiltin
declare noalias i8* @_Znwm(i64) #10

; Function Attrs: noinline uwtable
define linkonce_odr %"struct.std::complex"* @_ZSt22__uninitialized_copy_aISt13move_iteratorIPSt7complexIdEES3_S2_ET0_T_S6_S5_RSaIT1_E(%"struct.std::complex"* %0, %"struct.std::complex"* %1, %"struct.std::complex"* %2, %"class.std::allocator"* dereferenceable(1) %3) #0 comdat {
  %5 = alloca %"class.std::move_iterator", align 8
  %6 = alloca %"class.std::move_iterator", align 8
  %7 = alloca %"class.std::move_iterator", align 8
  %8 = alloca %"class.std::move_iterator", align 8
  %9 = getelementptr inbounds %"class.std::move_iterator", %"class.std::move_iterator"* %5, i32 0, i32 0
  store %"struct.std::complex"* %0, %"struct.std::complex"** %9, align 8
  %10 = getelementptr inbounds %"class.std::move_iterator", %"class.std::move_iterator"* %6, i32 0, i32 0
  store %"struct.std::complex"* %1, %"struct.std::complex"** %10, align 8
  %11 = bitcast %"class.std::move_iterator"* %7 to i8*
  %12 = bitcast %"class.std::move_iterator"* %5 to i8*
  call void @llvm.memcpy.p0i8.p0i8.i64(i8* align 8 %11, i8* align 8 %12, i64 8, i1 false)
  %13 = bitcast %"class.std::move_iterator"* %8 to i8*
  %14 = bitcast %"class.std::move_iterator"* %6 to i8*
  call void @llvm.memcpy.p0i8.p0i8.i64(i8* align 8 %13, i8* align 8 %14, i64 8, i1 false)
  %15 = getelementptr inbounds %"class.std::move_iterator", %"class.std::move_iterator"* %7, i32 0, i32 0
  %16 = load %"struct.std::complex"*, %"struct.std::complex"** %15, align 8
  %17 = getelementptr inbounds %"class.std::move_iterator", %"class.std::move_iterator"* %8, i32 0, i32 0
  %18 = load %"struct.std::complex"*, %"struct.std::complex"** %17, align 8
  %19 = call %"struct.std::complex"* @_ZSt18uninitialized_copyISt13move_iteratorIPSt7complexIdEES3_ET0_T_S6_S5_(%"struct.std::complex"* %16, %"struct.std::complex"* %18, %"struct.std::complex"* %2)
  ret %"struct.std::complex"* %19
}

; Function Attrs: noinline uwtable
define linkonce_odr %"struct.std::complex"* @_ZSt32__make_move_if_noexcept_iteratorISt7complexIdESt13move_iteratorIPS1_EET0_PT_(%"struct.std::complex"* %0) #0 comdat {
  %2 = alloca %"class.std::move_iterator", align 8
  call void @_ZNSt13move_iteratorIPSt7complexIdEEC2ES2_(%"class.std::move_iterator"* %2, %"struct.std::complex"* %0)
  %3 = getelementptr inbounds %"class.std::move_iterator", %"class.std::move_iterator"* %2, i32 0, i32 0
  %4 = load %"struct.std::complex"*, %"struct.std::complex"** %3, align 8
  ret %"struct.std::complex"* %4
}

; Function Attrs: noinline uwtable
define linkonce_odr %"struct.std::complex"* @_ZSt18uninitialized_copyISt13move_iteratorIPSt7complexIdEES3_ET0_T_S6_S5_(%"struct.std::complex"* %0, %"struct.std::complex"* %1, %"struct.std::complex"* %2) #0 comdat {
  %4 = alloca %"class.std::move_iterator", align 8
  %5 = alloca %"class.std::move_iterator", align 8
  %6 = alloca %"class.std::move_iterator", align 8
  %7 = alloca %"class.std::move_iterator", align 8
  %8 = getelementptr inbounds %"class.std::move_iterator", %"class.std::move_iterator"* %4, i32 0, i32 0
  store %"struct.std::complex"* %0, %"struct.std::complex"** %8, align 8
  %9 = getelementptr inbounds %"class.std::move_iterator", %"class.std::move_iterator"* %5, i32 0, i32 0
  store %"struct.std::complex"* %1, %"struct.std::complex"** %9, align 8
  %10 = bitcast %"class.std::move_iterator"* %6 to i8*
  %11 = bitcast %"class.std::move_iterator"* %4 to i8*
  call void @llvm.memcpy.p0i8.p0i8.i64(i8* align 8 %10, i8* align 8 %11, i64 8, i1 false)
  %12 = bitcast %"class.std::move_iterator"* %7 to i8*
  %13 = bitcast %"class.std::move_iterator"* %5 to i8*
  call void @llvm.memcpy.p0i8.p0i8.i64(i8* align 8 %12, i8* align 8 %13, i64 8, i1 false)
  %14 = getelementptr inbounds %"class.std::move_iterator", %"class.std::move_iterator"* %6, i32 0, i32 0
  %15 = load %"struct.std::complex"*, %"struct.std::complex"** %14, align 8
  %16 = getelementptr inbounds %"class.std::move_iterator", %"class.std::move_iterator"* %7, i32 0, i32 0
  %17 = load %"struct.std::complex"*, %"struct.std::complex"** %16, align 8
  %18 = call %"struct.std::complex"* @_ZNSt20__uninitialized_copyILb0EE13__uninit_copyISt13move_iteratorIPSt7complexIdEES5_EET0_T_S8_S7_(%"struct.std::complex"* %15, %"struct.std::complex"* %17, %"struct.std::complex"* %2)
  ret %"struct.std::complex"* %18
}

; Function Attrs: noinline uwtable
define linkonce_odr %"struct.std::complex"* @_ZNSt20__uninitialized_copyILb0EE13__uninit_copyISt13move_iteratorIPSt7complexIdEES5_EET0_T_S8_S7_(%"struct.std::complex"* %0, %"struct.std::complex"* %1, %"struct.std::complex"* %2) #0 comdat align 2 personality i8* bitcast (i32 (...)* @__gxx_personality_v0 to i8*) {
  %4 = alloca %"class.std::move_iterator", align 8
  %5 = alloca %"class.std::move_iterator", align 8
  %6 = getelementptr inbounds %"class.std::move_iterator", %"class.std::move_iterator"* %4, i32 0, i32 0
  store %"struct.std::complex"* %0, %"struct.std::complex"** %6, align 8
  %7 = getelementptr inbounds %"class.std::move_iterator", %"class.std::move_iterator"* %5, i32 0, i32 0
  store %"struct.std::complex"* %1, %"struct.std::complex"** %7, align 8
  br label %8

8:                                                ; preds = %18, %3
  %.0 = phi %"struct.std::complex"* [ %2, %3 ], [ %19, %18 ]
  %9 = invoke zeroext i1 @_ZStneIPSt7complexIdEEbRKSt13move_iteratorIT_ES7_(%"class.std::move_iterator"* dereferenceable(8) %4, %"class.std::move_iterator"* dereferenceable(8) %5)
          to label %10 unwind label %20

10:                                               ; preds = %8
  br i1 %9, label %11, label %27

11:                                               ; preds = %10
  %12 = call %"struct.std::complex"* @_ZSt11__addressofISt7complexIdEEPT_RS2_(%"struct.std::complex"* dereferenceable(16) %.0) #3
  %13 = invoke dereferenceable(16) %"struct.std::complex"* @_ZNKSt13move_iteratorIPSt7complexIdEEdeEv(%"class.std::move_iterator"* %4)
          to label %14 unwind label %20

14:                                               ; preds = %11
  invoke void @_ZSt10_ConstructISt7complexIdEJS1_EEvPT_DpOT0_(%"struct.std::complex"* %12, %"struct.std::complex"* dereferenceable(16) %13)
          to label %15 unwind label %20

15:                                               ; preds = %14
  br label %16

16:                                               ; preds = %15
  %17 = invoke dereferenceable(8) %"class.std::move_iterator"* @_ZNSt13move_iteratorIPSt7complexIdEEppEv(%"class.std::move_iterator"* %4)
          to label %18 unwind label %20

18:                                               ; preds = %16
  %19 = getelementptr inbounds %"struct.std::complex", %"struct.std::complex"* %.0, i32 1
  br label %8

20:                                               ; preds = %16, %14, %11, %8
  %21 = landingpad { i8*, i32 }
          catch i8* null
  %22 = extractvalue { i8*, i32 } %21, 0
  %23 = extractvalue { i8*, i32 } %21, 1
  br label %24

24:                                               ; preds = %20
  %25 = call i8* @__cxa_begin_catch(i8* %22) #3
  invoke void @_ZSt8_DestroyIPSt7complexIdEEvT_S3_(%"struct.std::complex"* %2, %"struct.std::complex"* %.0)
          to label %26 unwind label %28

26:                                               ; preds = %24
  invoke void @__cxa_rethrow() #14
          to label %40 unwind label %28

27:                                               ; preds = %10
  ret %"struct.std::complex"* %.0

28:                                               ; preds = %26, %24
  %29 = landingpad { i8*, i32 }
          cleanup
  %30 = extractvalue { i8*, i32 } %29, 0
  %31 = extractvalue { i8*, i32 } %29, 1
  invoke void @__cxa_end_catch()
          to label %32 unwind label %37

32:                                               ; preds = %28
  br label %34

33:                                               ; No predecessors!
  call void @llvm.trap()
  unreachable

34:                                               ; preds = %32
  %35 = insertvalue { i8*, i32 } undef, i8* %30, 0
  %36 = insertvalue { i8*, i32 } %35, i32 %31, 1
  resume { i8*, i32 } %36

37:                                               ; preds = %28
  %38 = landingpad { i8*, i32 }
          catch i8* null
  %39 = extractvalue { i8*, i32 } %38, 0
  call void @__clang_call_terminate(i8* %39) #13
  unreachable

40:                                               ; preds = %26
  unreachable
}

; Function Attrs: noinline uwtable
define linkonce_odr zeroext i1 @_ZStneIPSt7complexIdEEbRKSt13move_iteratorIT_ES7_(%"class.std::move_iterator"* dereferenceable(8) %0, %"class.std::move_iterator"* dereferenceable(8) %1) #0 comdat {
  %3 = call zeroext i1 @_ZSteqIPSt7complexIdEEbRKSt13move_iteratorIT_ES7_(%"class.std::move_iterator"* dereferenceable(8) %0, %"class.std::move_iterator"* dereferenceable(8) %1)
  %4 = xor i1 %3, true
  ret i1 %4
}

; Function Attrs: noinline nounwind uwtable
define linkonce_odr void @_ZSt10_ConstructISt7complexIdEJS1_EEvPT_DpOT0_(%"struct.std::complex"* %0, %"struct.std::complex"* dereferenceable(16) %1) #4 comdat {
  %3 = bitcast %"struct.std::complex"* %0 to i8*
  %4 = bitcast i8* %3 to %"struct.std::complex"*
  %5 = call dereferenceable(16) %"struct.std::complex"* @_ZSt7forwardISt7complexIdEEOT_RNSt16remove_referenceIS2_E4typeE(%"struct.std::complex"* dereferenceable(16) %1) #3
  %6 = bitcast %"struct.std::complex"* %4 to i8*
  %7 = bitcast %"struct.std::complex"* %5 to i8*
  call void @llvm.memcpy.p0i8.p0i8.i64(i8* align 8 %6, i8* align 8 %7, i64 16, i1 false)
  ret void
}

; Function Attrs: noinline nounwind uwtable
define linkonce_odr %"struct.std::complex"* @_ZSt11__addressofISt7complexIdEEPT_RS2_(%"struct.std::complex"* dereferenceable(16) %0) #4 comdat {
  ret %"struct.std::complex"* %0
}

; Function Attrs: noinline nounwind uwtable
define linkonce_odr dereferenceable(16) %"struct.std::complex"* @_ZNKSt13move_iteratorIPSt7complexIdEEdeEv(%"class.std::move_iterator"* %0) #4 comdat align 2 {
  %2 = getelementptr inbounds %"class.std::move_iterator", %"class.std::move_iterator"* %0, i32 0, i32 0
  %3 = load %"struct.std::complex"*, %"struct.std::complex"** %2, align 8
  ret %"struct.std::complex"* %3
}

; Function Attrs: noinline nounwind uwtable
define linkonce_odr dereferenceable(8) %"class.std::move_iterator"* @_ZNSt13move_iteratorIPSt7complexIdEEppEv(%"class.std::move_iterator"* %0) #4 comdat align 2 {
  %2 = getelementptr inbounds %"class.std::move_iterator", %"class.std::move_iterator"* %0, i32 0, i32 0
  %3 = load %"struct.std::complex"*, %"struct.std::complex"** %2, align 8
  %4 = getelementptr inbounds %"struct.std::complex", %"struct.std::complex"* %3, i32 1
  store %"struct.std::complex"* %4, %"struct.std::complex"** %2, align 8
  ret %"class.std::move_iterator"* %0
}

; Function Attrs: cold noreturn nounwind
declare void @llvm.trap() #11

; Function Attrs: noinline uwtable
define linkonce_odr zeroext i1 @_ZSteqIPSt7complexIdEEbRKSt13move_iteratorIT_ES7_(%"class.std::move_iterator"* dereferenceable(8) %0, %"class.std::move_iterator"* dereferenceable(8) %1) #0 comdat {
  %3 = call %"struct.std::complex"* @_ZNKSt13move_iteratorIPSt7complexIdEE4baseEv(%"class.std::move_iterator"* %0)
  %4 = call %"struct.std::complex"* @_ZNKSt13move_iteratorIPSt7complexIdEE4baseEv(%"class.std::move_iterator"* %1)
  %5 = icmp eq %"struct.std::complex"* %3, %4
  ret i1 %5
}

; Function Attrs: noinline nounwind uwtable
define linkonce_odr %"struct.std::complex"* @_ZNKSt13move_iteratorIPSt7complexIdEE4baseEv(%"class.std::move_iterator"* %0) #4 comdat align 2 {
  %2 = getelementptr inbounds %"class.std::move_iterator", %"class.std::move_iterator"* %0, i32 0, i32 0
  %3 = load %"struct.std::complex"*, %"struct.std::complex"** %2, align 8
  ret %"struct.std::complex"* %3
}

; Function Attrs: noinline nounwind uwtable
define linkonce_odr dereferenceable(16) %"struct.std::complex"* @_ZSt7forwardISt7complexIdEEOT_RNSt16remove_referenceIS2_E4typeE(%"struct.std::complex"* dereferenceable(16) %0) #4 comdat {
  ret %"struct.std::complex"* %0
}

; Function Attrs: noinline nounwind uwtable
define linkonce_odr void @_ZNSt13move_iteratorIPSt7complexIdEEC2ES2_(%"class.std::move_iterator"* %0, %"struct.std::complex"* %1) unnamed_addr #4 comdat align 2 {
  %3 = getelementptr inbounds %"class.std::move_iterator", %"class.std::move_iterator"* %0, i32 0, i32 0
  store %"struct.std::complex"* %1, %"struct.std::complex"** %3, align 8
  ret void
}

; Function Attrs: noinline nounwind uwtable
define linkonce_odr void @_ZN9__gnu_cxx13new_allocatorISt7complexIdEE7destroyIS2_EEvPT_(%"class.__gnu_cxx::new_allocator"* %0, %"struct.std::complex"* %1) #4 comdat align 2 {
  ret void
}

; Function Attrs: noinline nounwind uwtable
define linkonce_odr void @_ZN9__gnu_cxx17__normal_iteratorIPSt7complexIdESt6vectorIS2_SaIS2_EEEC2ERKS3_(%"class.__gnu_cxx::__normal_iterator"* %0, %"struct.std::complex"** dereferenceable(8) %1) unnamed_addr #4 comdat align 2 {
  %3 = getelementptr inbounds %"class.__gnu_cxx::__normal_iterator", %"class.__gnu_cxx::__normal_iterator"* %0, i32 0, i32 0
  %4 = load %"struct.std::complex"*, %"struct.std::complex"** %1, align 8
  store %"struct.std::complex"* %4, %"struct.std::complex"** %3, align 8
  ret void
}

; Function Attrs: noinline nounwind uwtable
define linkonce_odr dereferenceable(16) %"struct.std::complex"* @_ZNSt7complexIdEmIIdEERS0_RKS_IT_E(%"struct.std::complex"* %0, %"struct.std::complex"* dereferenceable(16) %1) #4 comdat align 2 {
  %3 = call double @_ZNKSt7complexIdE4realB5cxx11Ev(%"struct.std::complex"* %1)
  %4 = getelementptr inbounds %"struct.std::complex", %"struct.std::complex"* %0, i32 0, i32 0
  %5 = getelementptr inbounds { double, double }, { double, double }* %4, i32 0, i32 0
  %6 = load double, double* %5, align 8
  %7 = fsub double %6, %3
  store double %7, double* %5, align 8
  %8 = call double @_ZNKSt7complexIdE4imagB5cxx11Ev(%"struct.std::complex"* %1)
  %9 = getelementptr inbounds %"struct.std::complex", %"struct.std::complex"* %0, i32 0, i32 0
  %10 = getelementptr inbounds { double, double }, { double, double }* %9, i32 0, i32 1
  %11 = load double, double* %10, align 8
  %12 = fsub double %11, %8
  store double %12, double* %10, align 8
  ret %"struct.std::complex"* %0
}

; Function Attrs: noinline uwtable
define linkonce_odr double @_ZNSt12_Norm_helperILb1EE8_S_do_itIdEET_RKSt7complexIS2_E(%"struct.std::complex"* dereferenceable(16) %0) #0 comdat align 2 {
  %2 = call double @_ZSt3absIdET_RKSt7complexIS0_E(%"struct.std::complex"* dereferenceable(16) %0)
  %3 = fmul double %2, %2
  ret double %3
}

; Function Attrs: noinline nounwind uwtable
define linkonce_odr dereferenceable(16) %"struct.std::complex"* @_ZNSt7complexIdEmLEd(%"struct.std::complex"* %0, double %1) #4 comdat align 2 {
  %3 = getelementptr inbounds %"struct.std::complex", %"struct.std::complex"* %0, i32 0, i32 0
  %4 = getelementptr inbounds { double, double }, { double, double }* %3, i32 0, i32 0
  %5 = load double, double* %4, align 8
  %6 = getelementptr inbounds { double, double }, { double, double }* %3, i32 0, i32 1
  %7 = load double, double* %6, align 8
  %8 = fmul double %5, %1
  %9 = fmul double %7, %1
  %10 = getelementptr inbounds { double, double }, { double, double }* %3, i32 0, i32 0
  %11 = getelementptr inbounds { double, double }, { double, double }* %3, i32 0, i32 1
  store double %8, double* %10, align 8
  store double %9, double* %11, align 8
  ret %"struct.std::complex"* %0
}

; Function Attrs: noinline nounwind uwtable
define linkonce_odr dereferenceable(16) %"struct.std::complex"* @_ZNSt7complexIdEpLIdEERS0_RKS_IT_E(%"struct.std::complex"* %0, %"struct.std::complex"* dereferenceable(16) %1) #4 comdat align 2 {
  %3 = call double @_ZNKSt7complexIdE4realB5cxx11Ev(%"struct.std::complex"* %1)
  %4 = getelementptr inbounds %"struct.std::complex", %"struct.std::complex"* %0, i32 0, i32 0
  %5 = getelementptr inbounds { double, double }, { double, double }* %4, i32 0, i32 0
  %6 = load double, double* %5, align 8
  %7 = fadd double %6, %3
  store double %7, double* %5, align 8
  %8 = call double @_ZNKSt7complexIdE4imagB5cxx11Ev(%"struct.std::complex"* %1)
  %9 = getelementptr inbounds %"struct.std::complex", %"struct.std::complex"* %0, i32 0, i32 0
  %10 = getelementptr inbounds { double, double }, { double, double }* %9, i32 0, i32 1
  %11 = load double, double* %10, align 8
  %12 = fadd double %11, %8
  store double %12, double* %10, align 8
  ret %"struct.std::complex"* %0
}

; Function Attrs: noinline nounwind uwtable
define linkonce_odr double @_ZSt13__complex_absCd(double %0, double %1) #4 comdat {
  %3 = alloca { double, double }, align 8
  %4 = alloca { double, double }, align 8
  %5 = getelementptr inbounds { double, double }, { double, double }* %3, i32 0, i32 0
  store double %0, double* %5, align 8
  %6 = getelementptr inbounds { double, double }, { double, double }* %3, i32 0, i32 1
  store double %1, double* %6, align 8
  %7 = getelementptr inbounds { double, double }, { double, double }* %3, i32 0, i32 0
  %8 = load double, double* %7, align 8
  %9 = getelementptr inbounds { double, double }, { double, double }* %3, i32 0, i32 1
  %10 = load double, double* %9, align 8
  %11 = getelementptr inbounds { double, double }, { double, double }* %4, i32 0, i32 0
  %12 = getelementptr inbounds { double, double }, { double, double }* %4, i32 0, i32 1
  store double %8, double* %11, align 8
  store double %10, double* %12, align 8
  %13 = getelementptr inbounds { double, double }, { double, double }* %4, i32 0, i32 0
  %14 = load double, double* %13, align 8
  %15 = getelementptr inbounds { double, double }, { double, double }* %4, i32 0, i32 1
  %16 = load double, double* %15, align 8
  %17 = call double @cabs(double %14, double %16) #3
  ret double %17
}

; Function Attrs: noinline nounwind uwtable
define linkonce_odr { double, double } @_ZNKSt7complexIdE5__repEv(%"struct.std::complex"* %0) #4 comdat align 2 {
  %2 = alloca { double, double }, align 8
  %3 = getelementptr inbounds %"struct.std::complex", %"struct.std::complex"* %0, i32 0, i32 0
  %4 = getelementptr inbounds { double, double }, { double, double }* %3, i32 0, i32 0
  %5 = load double, double* %4, align 8
  %6 = getelementptr inbounds { double, double }, { double, double }* %3, i32 0, i32 1
  %7 = load double, double* %6, align 8
  %8 = getelementptr inbounds { double, double }, { double, double }* %2, i32 0, i32 0
  %9 = getelementptr inbounds { double, double }, { double, double }* %2, i32 0, i32 1
  store double %5, double* %8, align 8
  store double %7, double* %9, align 8
  %10 = load { double, double }, { double, double }* %2, align 8
  ret { double, double } %10
}

; Function Attrs: nounwind
declare double @cabs(double, double) #2

; Function Attrs: noinline uwtable
define linkonce_odr void @_ZNSt12_Vector_baseI4LineSaIS0_EEC2Ev(%"struct.std::_Vector_base.1"* %0) unnamed_addr #0 comdat align 2 {
  %2 = getelementptr inbounds %"struct.std::_Vector_base.1", %"struct.std::_Vector_base.1"* %0, i32 0, i32 0
  call void @_ZNSt12_Vector_baseI4LineSaIS0_EE12_Vector_implC2Ev(%"struct.std::_Vector_base<Line, std::allocator<Line> >::_Vector_impl"* %2)
  ret void
}

; Function Attrs: noinline nounwind uwtable
define linkonce_odr void @_ZNSt12_Vector_baseI4LineSaIS0_EE12_Vector_implC2Ev(%"struct.std::_Vector_base<Line, std::allocator<Line> >::_Vector_impl"* %0) unnamed_addr #4 comdat align 2 {
  %2 = bitcast %"struct.std::_Vector_base<Line, std::allocator<Line> >::_Vector_impl"* %0 to %"class.std::allocator.2"*
  call void @_ZNSaI4LineEC2Ev(%"class.std::allocator.2"* %2) #3
  %3 = getelementptr inbounds %"struct.std::_Vector_base<Line, std::allocator<Line> >::_Vector_impl", %"struct.std::_Vector_base<Line, std::allocator<Line> >::_Vector_impl"* %0, i32 0, i32 0
  store %struct.Line* null, %struct.Line** %3, align 8
  %4 = getelementptr inbounds %"struct.std::_Vector_base<Line, std::allocator<Line> >::_Vector_impl", %"struct.std::_Vector_base<Line, std::allocator<Line> >::_Vector_impl"* %0, i32 0, i32 1
  store %struct.Line* null, %struct.Line** %4, align 8
  %5 = getelementptr inbounds %"struct.std::_Vector_base<Line, std::allocator<Line> >::_Vector_impl", %"struct.std::_Vector_base<Line, std::allocator<Line> >::_Vector_impl"* %0, i32 0, i32 2
  store %struct.Line* null, %struct.Line** %5, align 8
  ret void
}

; Function Attrs: noinline nounwind uwtable
define linkonce_odr void @_ZNSaI4LineEC2Ev(%"class.std::allocator.2"* %0) unnamed_addr #4 comdat align 2 {
  %2 = bitcast %"class.std::allocator.2"* %0 to %"class.__gnu_cxx::new_allocator.3"*
  call void @_ZN9__gnu_cxx13new_allocatorI4LineEC2Ev(%"class.__gnu_cxx::new_allocator.3"* %2) #3
  ret void
}

; Function Attrs: noinline nounwind uwtable
define linkonce_odr void @_ZN9__gnu_cxx13new_allocatorI4LineEC2Ev(%"class.__gnu_cxx::new_allocator.3"* %0) unnamed_addr #4 comdat align 2 {
  ret void
}

; Function Attrs: noinline uwtable
define linkonce_odr void @_ZSt8_DestroyIP4LineS0_EvT_S2_RSaIT0_E(%struct.Line* %0, %struct.Line* %1, %"class.std::allocator.2"* dereferenceable(1) %2) #0 comdat {
  call void @_ZSt8_DestroyIP4LineEvT_S2_(%struct.Line* %0, %struct.Line* %1)
  ret void
}

; Function Attrs: noinline nounwind uwtable
define linkonce_odr dereferenceable(1) %"class.std::allocator.2"* @_ZNSt12_Vector_baseI4LineSaIS0_EE19_M_get_Tp_allocatorEv(%"struct.std::_Vector_base.1"* %0) #4 comdat align 2 {
  %2 = getelementptr inbounds %"struct.std::_Vector_base.1", %"struct.std::_Vector_base.1"* %0, i32 0, i32 0
  %3 = bitcast %"struct.std::_Vector_base<Line, std::allocator<Line> >::_Vector_impl"* %2 to %"class.std::allocator.2"*
  ret %"class.std::allocator.2"* %3
}

; Function Attrs: noinline nounwind uwtable
define linkonce_odr void @_ZNSt12_Vector_baseI4LineSaIS0_EED2Ev(%"struct.std::_Vector_base.1"* %0) unnamed_addr #4 comdat align 2 personality i8* bitcast (i32 (...)* @__gxx_personality_v0 to i8*) {
  %2 = getelementptr inbounds %"struct.std::_Vector_base.1", %"struct.std::_Vector_base.1"* %0, i32 0, i32 0
  %3 = getelementptr inbounds %"struct.std::_Vector_base<Line, std::allocator<Line> >::_Vector_impl", %"struct.std::_Vector_base<Line, std::allocator<Line> >::_Vector_impl"* %2, i32 0, i32 0
  %4 = load %struct.Line*, %struct.Line** %3, align 8
  %5 = getelementptr inbounds %"struct.std::_Vector_base.1", %"struct.std::_Vector_base.1"* %0, i32 0, i32 0
  %6 = getelementptr inbounds %"struct.std::_Vector_base<Line, std::allocator<Line> >::_Vector_impl", %"struct.std::_Vector_base<Line, std::allocator<Line> >::_Vector_impl"* %5, i32 0, i32 2
  %7 = load %struct.Line*, %struct.Line** %6, align 8
  %8 = getelementptr inbounds %"struct.std::_Vector_base.1", %"struct.std::_Vector_base.1"* %0, i32 0, i32 0
  %9 = getelementptr inbounds %"struct.std::_Vector_base<Line, std::allocator<Line> >::_Vector_impl", %"struct.std::_Vector_base<Line, std::allocator<Line> >::_Vector_impl"* %8, i32 0, i32 0
  %10 = load %struct.Line*, %struct.Line** %9, align 8
  %11 = ptrtoint %struct.Line* %7 to i64
  %12 = ptrtoint %struct.Line* %10 to i64
  %13 = sub i64 %11, %12
  %14 = sdiv exact i64 %13, 24
  invoke void @_ZNSt12_Vector_baseI4LineSaIS0_EE13_M_deallocateEPS0_m(%"struct.std::_Vector_base.1"* %0, %struct.Line* %4, i64 %14)
          to label %15 unwind label %17

15:                                               ; preds = %1
  %16 = getelementptr inbounds %"struct.std::_Vector_base.1", %"struct.std::_Vector_base.1"* %0, i32 0, i32 0
  call void @_ZNSt12_Vector_baseI4LineSaIS0_EE12_Vector_implD2Ev(%"struct.std::_Vector_base<Line, std::allocator<Line> >::_Vector_impl"* %16) #3
  ret void

17:                                               ; preds = %1
  %18 = landingpad { i8*, i32 }
          catch i8* null
  %19 = extractvalue { i8*, i32 } %18, 0
  %20 = extractvalue { i8*, i32 } %18, 1
  %21 = getelementptr inbounds %"struct.std::_Vector_base.1", %"struct.std::_Vector_base.1"* %0, i32 0, i32 0
  call void @_ZNSt12_Vector_baseI4LineSaIS0_EE12_Vector_implD2Ev(%"struct.std::_Vector_base<Line, std::allocator<Line> >::_Vector_impl"* %21) #3
  br label %22

22:                                               ; preds = %17
  call void @__clang_call_terminate(i8* %19) #13
  unreachable
}

; Function Attrs: noinline uwtable
define linkonce_odr void @_ZSt8_DestroyIP4LineEvT_S2_(%struct.Line* %0, %struct.Line* %1) #0 comdat {
  call void @_ZNSt12_Destroy_auxILb0EE9__destroyIP4LineEEvT_S4_(%struct.Line* %0, %struct.Line* %1)
  ret void
}

; Function Attrs: noinline uwtable
define linkonce_odr void @_ZNSt12_Destroy_auxILb0EE9__destroyIP4LineEEvT_S4_(%struct.Line* %0, %struct.Line* %1) #0 comdat align 2 {
  br label %3

3:                                                ; preds = %7, %2
  %.0 = phi %struct.Line* [ %0, %2 ], [ %8, %7 ]
  %4 = icmp ne %struct.Line* %.0, %1
  br i1 %4, label %5, label %9

5:                                                ; preds = %3
  %6 = call %struct.Line* @_ZSt11__addressofI4LineEPT_RS1_(%struct.Line* dereferenceable(24) %.0) #3
  call void @_ZSt8_DestroyI4LineEvPT_(%struct.Line* %6)
  br label %7

7:                                                ; preds = %5
  %8 = getelementptr inbounds %struct.Line, %struct.Line* %.0, i32 1
  br label %3

9:                                                ; preds = %3
  ret void
}

; Function Attrs: noinline nounwind uwtable
define linkonce_odr void @_ZSt8_DestroyI4LineEvPT_(%struct.Line* %0) #4 comdat {
  call void @_ZN4LineD2Ev(%struct.Line* %0) #3
  ret void
}

; Function Attrs: noinline nounwind uwtable
define linkonce_odr %struct.Line* @_ZSt11__addressofI4LineEPT_RS1_(%struct.Line* dereferenceable(24) %0) #4 comdat {
  ret %struct.Line* %0
}

; Function Attrs: noinline uwtable
define linkonce_odr void @_ZNSt12_Vector_baseI4LineSaIS0_EE13_M_deallocateEPS0_m(%"struct.std::_Vector_base.1"* %0, %struct.Line* %1, i64 %2) #0 comdat align 2 {
  %4 = icmp ne %struct.Line* %1, null
  br i1 %4, label %5, label %8

5:                                                ; preds = %3
  %6 = getelementptr inbounds %"struct.std::_Vector_base.1", %"struct.std::_Vector_base.1"* %0, i32 0, i32 0
  %7 = bitcast %"struct.std::_Vector_base<Line, std::allocator<Line> >::_Vector_impl"* %6 to %"class.std::allocator.2"*
  call void @_ZNSt16allocator_traitsISaI4LineEE10deallocateERS1_PS0_m(%"class.std::allocator.2"* dereferenceable(1) %7, %struct.Line* %1, i64 %2)
  br label %8

8:                                                ; preds = %5, %3
  ret void
}

; Function Attrs: noinline nounwind uwtable
define linkonce_odr void @_ZNSt12_Vector_baseI4LineSaIS0_EE12_Vector_implD2Ev(%"struct.std::_Vector_base<Line, std::allocator<Line> >::_Vector_impl"* %0) unnamed_addr #4 comdat align 2 {
  %2 = bitcast %"struct.std::_Vector_base<Line, std::allocator<Line> >::_Vector_impl"* %0 to %"class.std::allocator.2"*
  call void @_ZNSaI4LineED2Ev(%"class.std::allocator.2"* %2) #3
  ret void
}

; Function Attrs: noinline uwtable
define linkonce_odr void @_ZNSt16allocator_traitsISaI4LineEE10deallocateERS1_PS0_m(%"class.std::allocator.2"* dereferenceable(1) %0, %struct.Line* %1, i64 %2) #0 comdat align 2 {
  %4 = bitcast %"class.std::allocator.2"* %0 to %"class.__gnu_cxx::new_allocator.3"*
  call void @_ZN9__gnu_cxx13new_allocatorI4LineE10deallocateEPS1_m(%"class.__gnu_cxx::new_allocator.3"* %4, %struct.Line* %1, i64 %2)
  ret void
}

; Function Attrs: noinline nounwind uwtable
define linkonce_odr void @_ZN9__gnu_cxx13new_allocatorI4LineE10deallocateEPS1_m(%"class.__gnu_cxx::new_allocator.3"* %0, %struct.Line* %1, i64 %2) #4 comdat align 2 {
  %4 = bitcast %struct.Line* %1 to i8*
  call void @_ZdlPv(i8* %4) #3
  ret void
}

; Function Attrs: noinline nounwind uwtable
define linkonce_odr void @_ZNSaI4LineED2Ev(%"class.std::allocator.2"* %0) unnamed_addr #4 comdat align 2 {
  %2 = bitcast %"class.std::allocator.2"* %0 to %"class.__gnu_cxx::new_allocator.3"*
  call void @_ZN9__gnu_cxx13new_allocatorI4LineED2Ev(%"class.__gnu_cxx::new_allocator.3"* %2) #3
  ret void
}

; Function Attrs: noinline nounwind uwtable
define linkonce_odr void @_ZN9__gnu_cxx13new_allocatorI4LineED2Ev(%"class.__gnu_cxx::new_allocator.3"* %0) unnamed_addr #4 comdat align 2 {
  ret void
}

; Function Attrs: noinline uwtable
define linkonce_odr void @_ZNSt6vectorI4LineSaIS0_EE12emplace_backIJS0_EEEvDpOT_(%"class.std::vector.0"* %0, %struct.Line* dereferenceable(24) %1) #0 comdat align 2 {
  %3 = alloca %"class.__gnu_cxx::__normal_iterator.13", align 8
  %4 = bitcast %"class.std::vector.0"* %0 to %"struct.std::_Vector_base.1"*
  %5 = getelementptr inbounds %"struct.std::_Vector_base.1", %"struct.std::_Vector_base.1"* %4, i32 0, i32 0
  %6 = getelementptr inbounds %"struct.std::_Vector_base<Line, std::allocator<Line> >::_Vector_impl", %"struct.std::_Vector_base<Line, std::allocator<Line> >::_Vector_impl"* %5, i32 0, i32 1
  %7 = load %struct.Line*, %struct.Line** %6, align 8
  %8 = bitcast %"class.std::vector.0"* %0 to %"struct.std::_Vector_base.1"*
  %9 = getelementptr inbounds %"struct.std::_Vector_base.1", %"struct.std::_Vector_base.1"* %8, i32 0, i32 0
  %10 = getelementptr inbounds %"struct.std::_Vector_base<Line, std::allocator<Line> >::_Vector_impl", %"struct.std::_Vector_base<Line, std::allocator<Line> >::_Vector_impl"* %9, i32 0, i32 2
  %11 = load %struct.Line*, %struct.Line** %10, align 8
  %12 = icmp ne %struct.Line* %7, %11
  br i1 %12, label %13, label %27

13:                                               ; preds = %2
  %14 = bitcast %"class.std::vector.0"* %0 to %"struct.std::_Vector_base.1"*
  %15 = getelementptr inbounds %"struct.std::_Vector_base.1", %"struct.std::_Vector_base.1"* %14, i32 0, i32 0
  %16 = bitcast %"struct.std::_Vector_base<Line, std::allocator<Line> >::_Vector_impl"* %15 to %"class.std::allocator.2"*
  %17 = bitcast %"class.std::vector.0"* %0 to %"struct.std::_Vector_base.1"*
  %18 = getelementptr inbounds %"struct.std::_Vector_base.1", %"struct.std::_Vector_base.1"* %17, i32 0, i32 0
  %19 = getelementptr inbounds %"struct.std::_Vector_base<Line, std::allocator<Line> >::_Vector_impl", %"struct.std::_Vector_base<Line, std::allocator<Line> >::_Vector_impl"* %18, i32 0, i32 1
  %20 = load %struct.Line*, %struct.Line** %19, align 8
  %21 = call dereferenceable(24) %struct.Line* @_ZSt7forwardI4LineEOT_RNSt16remove_referenceIS1_E4typeE(%struct.Line* dereferenceable(24) %1) #3
  call void @_ZNSt16allocator_traitsISaI4LineEE9constructIS0_JS0_EEEvRS1_PT_DpOT0_(%"class.std::allocator.2"* dereferenceable(1) %16, %struct.Line* %20, %struct.Line* dereferenceable(24) %21)
  %22 = bitcast %"class.std::vector.0"* %0 to %"struct.std::_Vector_base.1"*
  %23 = getelementptr inbounds %"struct.std::_Vector_base.1", %"struct.std::_Vector_base.1"* %22, i32 0, i32 0
  %24 = getelementptr inbounds %"struct.std::_Vector_base<Line, std::allocator<Line> >::_Vector_impl", %"struct.std::_Vector_base<Line, std::allocator<Line> >::_Vector_impl"* %23, i32 0, i32 1
  %25 = load %struct.Line*, %struct.Line** %24, align 8
  %26 = getelementptr inbounds %struct.Line, %struct.Line* %25, i32 1
  store %struct.Line* %26, %struct.Line** %24, align 8
  br label %33

27:                                               ; preds = %2
  %28 = call %struct.Line* @_ZNSt6vectorI4LineSaIS0_EE3endEv(%"class.std::vector.0"* %0) #3
  %29 = getelementptr inbounds %"class.__gnu_cxx::__normal_iterator.13", %"class.__gnu_cxx::__normal_iterator.13"* %3, i32 0, i32 0
  store %struct.Line* %28, %struct.Line** %29, align 8
  %30 = call dereferenceable(24) %struct.Line* @_ZSt7forwardI4LineEOT_RNSt16remove_referenceIS1_E4typeE(%struct.Line* dereferenceable(24) %1) #3
  %31 = getelementptr inbounds %"class.__gnu_cxx::__normal_iterator.13", %"class.__gnu_cxx::__normal_iterator.13"* %3, i32 0, i32 0
  %32 = load %struct.Line*, %struct.Line** %31, align 8
  call void @_ZNSt6vectorI4LineSaIS0_EE17_M_realloc_insertIJS0_EEEvN9__gnu_cxx17__normal_iteratorIPS0_S2_EEDpOT_(%"class.std::vector.0"* %0, %struct.Line* %32, %struct.Line* dereferenceable(24) %30)
  br label %33

33:                                               ; preds = %27, %13
  ret void
}

; Function Attrs: noinline nounwind uwtable
define linkonce_odr dereferenceable(24) %struct.Line* @_ZSt4moveIR4LineEONSt16remove_referenceIT_E4typeEOS3_(%struct.Line* dereferenceable(24) %0) #4 comdat {
  ret %struct.Line* %0
}

; Function Attrs: noinline uwtable
define linkonce_odr void @_ZNSt16allocator_traitsISaI4LineEE9constructIS0_JS0_EEEvRS1_PT_DpOT0_(%"class.std::allocator.2"* dereferenceable(1) %0, %struct.Line* %1, %struct.Line* dereferenceable(24) %2) #0 comdat align 2 {
  %4 = bitcast %"class.std::allocator.2"* %0 to %"class.__gnu_cxx::new_allocator.3"*
  %5 = call dereferenceable(24) %struct.Line* @_ZSt7forwardI4LineEOT_RNSt16remove_referenceIS1_E4typeE(%struct.Line* dereferenceable(24) %2) #3
  call void @_ZN9__gnu_cxx13new_allocatorI4LineE9constructIS1_JS1_EEEvPT_DpOT0_(%"class.__gnu_cxx::new_allocator.3"* %4, %struct.Line* %1, %struct.Line* dereferenceable(24) %5)
  ret void
}

; Function Attrs: noinline nounwind uwtable
define linkonce_odr dereferenceable(24) %struct.Line* @_ZSt7forwardI4LineEOT_RNSt16remove_referenceIS1_E4typeE(%struct.Line* dereferenceable(24) %0) #4 comdat {
  ret %struct.Line* %0
}

; Function Attrs: noinline uwtable
define linkonce_odr void @_ZNSt6vectorI4LineSaIS0_EE17_M_realloc_insertIJS0_EEEvN9__gnu_cxx17__normal_iteratorIPS0_S2_EEDpOT_(%"class.std::vector.0"* %0, %struct.Line* %1, %struct.Line* dereferenceable(24) %2) #0 comdat align 2 personality i8* bitcast (i32 (...)* @__gxx_personality_v0 to i8*) {
  %4 = alloca %"class.__gnu_cxx::__normal_iterator.13", align 8
  %5 = alloca %"class.__gnu_cxx::__normal_iterator.13", align 8
  %6 = getelementptr inbounds %"class.__gnu_cxx::__normal_iterator.13", %"class.__gnu_cxx::__normal_iterator.13"* %4, i32 0, i32 0
  store %struct.Line* %1, %struct.Line** %6, align 8
  %7 = call i64 @_ZNKSt6vectorI4LineSaIS0_EE12_M_check_lenEmPKc(%"class.std::vector.0"* %0, i64 1, i8* getelementptr inbounds ([26 x i8], [26 x i8]* @.str.2, i32 0, i32 0))
  %8 = bitcast %"class.std::vector.0"* %0 to %"struct.std::_Vector_base.1"*
  %9 = getelementptr inbounds %"struct.std::_Vector_base.1", %"struct.std::_Vector_base.1"* %8, i32 0, i32 0
  %10 = getelementptr inbounds %"struct.std::_Vector_base<Line, std::allocator<Line> >::_Vector_impl", %"struct.std::_Vector_base<Line, std::allocator<Line> >::_Vector_impl"* %9, i32 0, i32 0
  %11 = load %struct.Line*, %struct.Line** %10, align 8
  %12 = bitcast %"class.std::vector.0"* %0 to %"struct.std::_Vector_base.1"*
  %13 = getelementptr inbounds %"struct.std::_Vector_base.1", %"struct.std::_Vector_base.1"* %12, i32 0, i32 0
  %14 = getelementptr inbounds %"struct.std::_Vector_base<Line, std::allocator<Line> >::_Vector_impl", %"struct.std::_Vector_base<Line, std::allocator<Line> >::_Vector_impl"* %13, i32 0, i32 1
  %15 = load %struct.Line*, %struct.Line** %14, align 8
  %16 = call %struct.Line* @_ZNSt6vectorI4LineSaIS0_EE5beginEv(%"class.std::vector.0"* %0) #3
  %17 = getelementptr inbounds %"class.__gnu_cxx::__normal_iterator.13", %"class.__gnu_cxx::__normal_iterator.13"* %5, i32 0, i32 0
  store %struct.Line* %16, %struct.Line** %17, align 8
  %18 = call i64 @_ZN9__gnu_cxxmiIP4LineSt6vectorIS1_SaIS1_EEEENS_17__normal_iteratorIT_T0_E15difference_typeERKS9_SC_(%"class.__gnu_cxx::__normal_iterator.13"* dereferenceable(8) %4, %"class.__gnu_cxx::__normal_iterator.13"* dereferenceable(8) %5) #3
  %19 = bitcast %"class.std::vector.0"* %0 to %"struct.std::_Vector_base.1"*
  %20 = call %struct.Line* @_ZNSt12_Vector_baseI4LineSaIS0_EE11_M_allocateEm(%"struct.std::_Vector_base.1"* %19, i64 %7)
  %21 = bitcast %"class.std::vector.0"* %0 to %"struct.std::_Vector_base.1"*
  %22 = getelementptr inbounds %"struct.std::_Vector_base.1", %"struct.std::_Vector_base.1"* %21, i32 0, i32 0
  %23 = bitcast %"struct.std::_Vector_base<Line, std::allocator<Line> >::_Vector_impl"* %22 to %"class.std::allocator.2"*
  %24 = getelementptr inbounds %struct.Line, %struct.Line* %20, i64 %18
  %25 = call dereferenceable(24) %struct.Line* @_ZSt7forwardI4LineEOT_RNSt16remove_referenceIS1_E4typeE(%struct.Line* dereferenceable(24) %2) #3
  invoke void @_ZNSt16allocator_traitsISaI4LineEE9constructIS0_JS0_EEEvRS1_PT_DpOT0_(%"class.std::allocator.2"* dereferenceable(1) %23, %struct.Line* %24, %struct.Line* dereferenceable(24) %25)
          to label %26 unwind label %40

26:                                               ; preds = %3
  %27 = call dereferenceable(8) %struct.Line** @_ZNK9__gnu_cxx17__normal_iteratorIP4LineSt6vectorIS1_SaIS1_EEE4baseEv(%"class.__gnu_cxx::__normal_iterator.13"* %4) #3
  %28 = load %struct.Line*, %struct.Line** %27, align 8
  %29 = bitcast %"class.std::vector.0"* %0 to %"struct.std::_Vector_base.1"*
  %30 = call dereferenceable(1) %"class.std::allocator.2"* @_ZNSt12_Vector_baseI4LineSaIS0_EE19_M_get_Tp_allocatorEv(%"struct.std::_Vector_base.1"* %29) #3
  %31 = invoke %struct.Line* @_ZSt34__uninitialized_move_if_noexcept_aIP4LineS1_SaIS0_EET0_T_S4_S3_RT1_(%struct.Line* %11, %struct.Line* %28, %struct.Line* %20, %"class.std::allocator.2"* dereferenceable(1) %30)
          to label %32 unwind label %40

32:                                               ; preds = %26
  %33 = getelementptr inbounds %struct.Line, %struct.Line* %31, i32 1
  %34 = call dereferenceable(8) %struct.Line** @_ZNK9__gnu_cxx17__normal_iteratorIP4LineSt6vectorIS1_SaIS1_EEE4baseEv(%"class.__gnu_cxx::__normal_iterator.13"* %4) #3
  %35 = load %struct.Line*, %struct.Line** %34, align 8
  %36 = bitcast %"class.std::vector.0"* %0 to %"struct.std::_Vector_base.1"*
  %37 = call dereferenceable(1) %"class.std::allocator.2"* @_ZNSt12_Vector_baseI4LineSaIS0_EE19_M_get_Tp_allocatorEv(%"struct.std::_Vector_base.1"* %36) #3
  %38 = invoke %struct.Line* @_ZSt34__uninitialized_move_if_noexcept_aIP4LineS1_SaIS0_EET0_T_S4_S3_RT1_(%struct.Line* %35, %struct.Line* %15, %struct.Line* %33, %"class.std::allocator.2"* dereferenceable(1) %37)
          to label %39 unwind label %40

39:                                               ; preds = %32
  br label %65

40:                                               ; preds = %32, %26, %3
  %.0 = phi %struct.Line* [ %33, %32 ], [ null, %26 ], [ %20, %3 ]
  %41 = landingpad { i8*, i32 }
          catch i8* null
  %42 = extractvalue { i8*, i32 } %41, 0
  %43 = extractvalue { i8*, i32 } %41, 1
  br label %44

44:                                               ; preds = %40
  %45 = call i8* @__cxa_begin_catch(i8* %42) #3
  %46 = icmp ne %struct.Line* %.0, null
  br i1 %46, label %57, label %47

47:                                               ; preds = %44
  %48 = bitcast %"class.std::vector.0"* %0 to %"struct.std::_Vector_base.1"*
  %49 = getelementptr inbounds %"struct.std::_Vector_base.1", %"struct.std::_Vector_base.1"* %48, i32 0, i32 0
  %50 = bitcast %"struct.std::_Vector_base<Line, std::allocator<Line> >::_Vector_impl"* %49 to %"class.std::allocator.2"*
  %51 = getelementptr inbounds %struct.Line, %struct.Line* %20, i64 %18
  invoke void @_ZNSt16allocator_traitsISaI4LineEE7destroyIS0_EEvRS1_PT_(%"class.std::allocator.2"* dereferenceable(1) %50, %struct.Line* %51)
          to label %52 unwind label %53

52:                                               ; preds = %47
  br label %61

53:                                               ; preds = %63, %61, %57, %47
  %54 = landingpad { i8*, i32 }
          cleanup
  %55 = extractvalue { i8*, i32 } %54, 0
  %56 = extractvalue { i8*, i32 } %54, 1
  invoke void @__cxa_end_catch()
          to label %64 unwind label %90

57:                                               ; preds = %44
  %58 = bitcast %"class.std::vector.0"* %0 to %"struct.std::_Vector_base.1"*
  %59 = call dereferenceable(1) %"class.std::allocator.2"* @_ZNSt12_Vector_baseI4LineSaIS0_EE19_M_get_Tp_allocatorEv(%"struct.std::_Vector_base.1"* %58) #3
  invoke void @_ZSt8_DestroyIP4LineS0_EvT_S2_RSaIT0_E(%struct.Line* %20, %struct.Line* %.0, %"class.std::allocator.2"* dereferenceable(1) %59)
          to label %60 unwind label %53

60:                                               ; preds = %57
  br label %61

61:                                               ; preds = %60, %52
  %62 = bitcast %"class.std::vector.0"* %0 to %"struct.std::_Vector_base.1"*
  invoke void @_ZNSt12_Vector_baseI4LineSaIS0_EE13_M_deallocateEPS0_m(%"struct.std::_Vector_base.1"* %62, %struct.Line* %20, i64 %7)
          to label %63 unwind label %53

63:                                               ; preds = %61
  invoke void @__cxa_rethrow() #14
          to label %93 unwind label %53

64:                                               ; preds = %53
  br label %87

65:                                               ; preds = %39
  %66 = bitcast %"class.std::vector.0"* %0 to %"struct.std::_Vector_base.1"*
  %67 = call dereferenceable(1) %"class.std::allocator.2"* @_ZNSt12_Vector_baseI4LineSaIS0_EE19_M_get_Tp_allocatorEv(%"struct.std::_Vector_base.1"* %66) #3
  call void @_ZSt8_DestroyIP4LineS0_EvT_S2_RSaIT0_E(%struct.Line* %11, %struct.Line* %15, %"class.std::allocator.2"* dereferenceable(1) %67)
  %68 = bitcast %"class.std::vector.0"* %0 to %"struct.std::_Vector_base.1"*
  %69 = bitcast %"class.std::vector.0"* %0 to %"struct.std::_Vector_base.1"*
  %70 = getelementptr inbounds %"struct.std::_Vector_base.1", %"struct.std::_Vector_base.1"* %69, i32 0, i32 0
  %71 = getelementptr inbounds %"struct.std::_Vector_base<Line, std::allocator<Line> >::_Vector_impl", %"struct.std::_Vector_base<Line, std::allocator<Line> >::_Vector_impl"* %70, i32 0, i32 2
  %72 = load %struct.Line*, %struct.Line** %71, align 8
  %73 = ptrtoint %struct.Line* %72 to i64
  %74 = ptrtoint %struct.Line* %11 to i64
  %75 = sub i64 %73, %74
  %76 = sdiv exact i64 %75, 24
  call void @_ZNSt12_Vector_baseI4LineSaIS0_EE13_M_deallocateEPS0_m(%"struct.std::_Vector_base.1"* %68, %struct.Line* %11, i64 %76)
  %77 = bitcast %"class.std::vector.0"* %0 to %"struct.std::_Vector_base.1"*
  %78 = getelementptr inbounds %"struct.std::_Vector_base.1", %"struct.std::_Vector_base.1"* %77, i32 0, i32 0
  %79 = getelementptr inbounds %"struct.std::_Vector_base<Line, std::allocator<Line> >::_Vector_impl", %"struct.std::_Vector_base<Line, std::allocator<Line> >::_Vector_impl"* %78, i32 0, i32 0
  store %struct.Line* %20, %struct.Line** %79, align 8
  %80 = bitcast %"class.std::vector.0"* %0 to %"struct.std::_Vector_base.1"*
  %81 = getelementptr inbounds %"struct.std::_Vector_base.1", %"struct.std::_Vector_base.1"* %80, i32 0, i32 0
  %82 = getelementptr inbounds %"struct.std::_Vector_base<Line, std::allocator<Line> >::_Vector_impl", %"struct.std::_Vector_base<Line, std::allocator<Line> >::_Vector_impl"* %81, i32 0, i32 1
  store %struct.Line* %38, %struct.Line** %82, align 8
  %83 = getelementptr inbounds %struct.Line, %struct.Line* %20, i64 %7
  %84 = bitcast %"class.std::vector.0"* %0 to %"struct.std::_Vector_base.1"*
  %85 = getelementptr inbounds %"struct.std::_Vector_base.1", %"struct.std::_Vector_base.1"* %84, i32 0, i32 0
  %86 = getelementptr inbounds %"struct.std::_Vector_base<Line, std::allocator<Line> >::_Vector_impl", %"struct.std::_Vector_base<Line, std::allocator<Line> >::_Vector_impl"* %85, i32 0, i32 2
  store %struct.Line* %83, %struct.Line** %86, align 8
  ret void

87:                                               ; preds = %64
  %88 = insertvalue { i8*, i32 } undef, i8* %55, 0
  %89 = insertvalue { i8*, i32 } %88, i32 %56, 1
  resume { i8*, i32 } %89

90:                                               ; preds = %53
  %91 = landingpad { i8*, i32 }
          catch i8* null
  %92 = extractvalue { i8*, i32 } %91, 0
  call void @__clang_call_terminate(i8* %92) #13
  unreachable

93:                                               ; preds = %63
  unreachable
}

; Function Attrs: noinline nounwind uwtable
define linkonce_odr %struct.Line* @_ZNSt6vectorI4LineSaIS0_EE3endEv(%"class.std::vector.0"* %0) #4 comdat align 2 {
  %2 = alloca %"class.__gnu_cxx::__normal_iterator.13", align 8
  %3 = bitcast %"class.std::vector.0"* %0 to %"struct.std::_Vector_base.1"*
  %4 = getelementptr inbounds %"struct.std::_Vector_base.1", %"struct.std::_Vector_base.1"* %3, i32 0, i32 0
  %5 = getelementptr inbounds %"struct.std::_Vector_base<Line, std::allocator<Line> >::_Vector_impl", %"struct.std::_Vector_base<Line, std::allocator<Line> >::_Vector_impl"* %4, i32 0, i32 1
  call void @_ZN9__gnu_cxx17__normal_iteratorIP4LineSt6vectorIS1_SaIS1_EEEC2ERKS2_(%"class.__gnu_cxx::__normal_iterator.13"* %2, %struct.Line** dereferenceable(8) %5) #3
  %6 = getelementptr inbounds %"class.__gnu_cxx::__normal_iterator.13", %"class.__gnu_cxx::__normal_iterator.13"* %2, i32 0, i32 0
  %7 = load %struct.Line*, %struct.Line** %6, align 8
  ret %struct.Line* %7
}

; Function Attrs: noinline nounwind uwtable
define linkonce_odr void @_ZN9__gnu_cxx13new_allocatorI4LineE9constructIS1_JS1_EEEvPT_DpOT0_(%"class.__gnu_cxx::new_allocator.3"* %0, %struct.Line* %1, %struct.Line* dereferenceable(24) %2) #4 comdat align 2 {
  %4 = bitcast %struct.Line* %1 to i8*
  %5 = bitcast i8* %4 to %struct.Line*
  %6 = call dereferenceable(24) %struct.Line* @_ZSt7forwardI4LineEOT_RNSt16remove_referenceIS1_E4typeE(%struct.Line* dereferenceable(24) %2) #3
  call void @_ZN4LineC2EOS_(%struct.Line* %5, %struct.Line* dereferenceable(24) %6) #3
  ret void
}

; Function Attrs: noinline nounwind uwtable
define linkonce_odr void @_ZN4LineC2EOS_(%struct.Line* %0, %struct.Line* dereferenceable(24) %1) unnamed_addr #4 comdat align 2 {
  %3 = bitcast %struct.Line* %0 to %"class.std::vector"*
  %4 = bitcast %struct.Line* %1 to %"class.std::vector"*
  call void @_ZNSt6vectorISt7complexIdESaIS1_EEC2EOS3_(%"class.std::vector"* %3, %"class.std::vector"* dereferenceable(24) %4) #3
  ret void
}

; Function Attrs: noinline nounwind uwtable
define linkonce_odr void @_ZNSt6vectorISt7complexIdESaIS1_EEC2EOS3_(%"class.std::vector"* %0, %"class.std::vector"* dereferenceable(24) %1) unnamed_addr #4 comdat align 2 {
  %3 = bitcast %"class.std::vector"* %0 to %"struct.std::_Vector_base"*
  %4 = call dereferenceable(24) %"class.std::vector"* @_ZSt4moveIRSt6vectorISt7complexIdESaIS2_EEEONSt16remove_referenceIT_E4typeEOS7_(%"class.std::vector"* dereferenceable(24) %1) #3
  %5 = bitcast %"class.std::vector"* %4 to %"struct.std::_Vector_base"*
  call void @_ZNSt12_Vector_baseISt7complexIdESaIS1_EEC2EOS3_(%"struct.std::_Vector_base"* %3, %"struct.std::_Vector_base"* dereferenceable(24) %5) #3
  ret void
}

; Function Attrs: noinline nounwind uwtable
define linkonce_odr dereferenceable(24) %"class.std::vector"* @_ZSt4moveIRSt6vectorISt7complexIdESaIS2_EEEONSt16remove_referenceIT_E4typeEOS7_(%"class.std::vector"* dereferenceable(24) %0) #4 comdat {
  ret %"class.std::vector"* %0
}

; Function Attrs: noinline nounwind uwtable
define linkonce_odr void @_ZNSt12_Vector_baseISt7complexIdESaIS1_EEC2EOS3_(%"struct.std::_Vector_base"* %0, %"struct.std::_Vector_base"* dereferenceable(24) %1) unnamed_addr #4 comdat align 2 {
  %3 = getelementptr inbounds %"struct.std::_Vector_base", %"struct.std::_Vector_base"* %0, i32 0, i32 0
  %4 = call dereferenceable(1) %"class.std::allocator"* @_ZNSt12_Vector_baseISt7complexIdESaIS1_EE19_M_get_Tp_allocatorEv(%"struct.std::_Vector_base"* %1) #3
  %5 = call dereferenceable(1) %"class.std::allocator"* @_ZSt4moveIRSaISt7complexIdEEEONSt16remove_referenceIT_E4typeEOS5_(%"class.std::allocator"* dereferenceable(1) %4) #3
  call void @_ZNSt12_Vector_baseISt7complexIdESaIS1_EE12_Vector_implC2EOS2_(%"struct.std::_Vector_base<std::complex<double>, std::allocator<std::complex<double> > >::_Vector_impl"* %3, %"class.std::allocator"* dereferenceable(1) %5) #3
  %6 = getelementptr inbounds %"struct.std::_Vector_base", %"struct.std::_Vector_base"* %0, i32 0, i32 0
  %7 = getelementptr inbounds %"struct.std::_Vector_base", %"struct.std::_Vector_base"* %1, i32 0, i32 0
  call void @_ZNSt12_Vector_baseISt7complexIdESaIS1_EE12_Vector_impl12_M_swap_dataERS4_(%"struct.std::_Vector_base<std::complex<double>, std::allocator<std::complex<double> > >::_Vector_impl"* %6, %"struct.std::_Vector_base<std::complex<double>, std::allocator<std::complex<double> > >::_Vector_impl"* dereferenceable(24) %7) #3
  ret void
}

; Function Attrs: noinline nounwind uwtable
define linkonce_odr dereferenceable(1) %"class.std::allocator"* @_ZSt4moveIRSaISt7complexIdEEEONSt16remove_referenceIT_E4typeEOS5_(%"class.std::allocator"* dereferenceable(1) %0) #4 comdat {
  ret %"class.std::allocator"* %0
}

; Function Attrs: noinline nounwind uwtable
define linkonce_odr void @_ZNSt12_Vector_baseISt7complexIdESaIS1_EE12_Vector_implC2EOS2_(%"struct.std::_Vector_base<std::complex<double>, std::allocator<std::complex<double> > >::_Vector_impl"* %0, %"class.std::allocator"* dereferenceable(1) %1) unnamed_addr #4 comdat align 2 {
  %3 = bitcast %"struct.std::_Vector_base<std::complex<double>, std::allocator<std::complex<double> > >::_Vector_impl"* %0 to %"class.std::allocator"*
  %4 = call dereferenceable(1) %"class.std::allocator"* @_ZSt4moveIRSaISt7complexIdEEEONSt16remove_referenceIT_E4typeEOS5_(%"class.std::allocator"* dereferenceable(1) %1) #3
  call void @_ZNSaISt7complexIdEEC2ERKS1_(%"class.std::allocator"* %3, %"class.std::allocator"* dereferenceable(1) %4) #3
  %5 = getelementptr inbounds %"struct.std::_Vector_base<std::complex<double>, std::allocator<std::complex<double> > >::_Vector_impl", %"struct.std::_Vector_base<std::complex<double>, std::allocator<std::complex<double> > >::_Vector_impl"* %0, i32 0, i32 0
  store %"struct.std::complex"* null, %"struct.std::complex"** %5, align 8
  %6 = getelementptr inbounds %"struct.std::_Vector_base<std::complex<double>, std::allocator<std::complex<double> > >::_Vector_impl", %"struct.std::_Vector_base<std::complex<double>, std::allocator<std::complex<double> > >::_Vector_impl"* %0, i32 0, i32 1
  store %"struct.std::complex"* null, %"struct.std::complex"** %6, align 8
  %7 = getelementptr inbounds %"struct.std::_Vector_base<std::complex<double>, std::allocator<std::complex<double> > >::_Vector_impl", %"struct.std::_Vector_base<std::complex<double>, std::allocator<std::complex<double> > >::_Vector_impl"* %0, i32 0, i32 2
  store %"struct.std::complex"* null, %"struct.std::complex"** %7, align 8
  ret void
}

; Function Attrs: noinline nounwind uwtable
define linkonce_odr void @_ZNSt12_Vector_baseISt7complexIdESaIS1_EE12_Vector_impl12_M_swap_dataERS4_(%"struct.std::_Vector_base<std::complex<double>, std::allocator<std::complex<double> > >::_Vector_impl"* %0, %"struct.std::_Vector_base<std::complex<double>, std::allocator<std::complex<double> > >::_Vector_impl"* dereferenceable(24) %1) #4 comdat align 2 {
  %3 = getelementptr inbounds %"struct.std::_Vector_base<std::complex<double>, std::allocator<std::complex<double> > >::_Vector_impl", %"struct.std::_Vector_base<std::complex<double>, std::allocator<std::complex<double> > >::_Vector_impl"* %0, i32 0, i32 0
  %4 = getelementptr inbounds %"struct.std::_Vector_base<std::complex<double>, std::allocator<std::complex<double> > >::_Vector_impl", %"struct.std::_Vector_base<std::complex<double>, std::allocator<std::complex<double> > >::_Vector_impl"* %1, i32 0, i32 0
  call void @_ZSt4swapIPSt7complexIdEENSt9enable_ifIXsr6__and_ISt6__not_ISt15__is_tuple_likeIT_EESt21is_move_constructibleIS6_ESt18is_move_assignableIS6_EEE5valueEvE4typeERS6_SF_(%"struct.std::complex"** dereferenceable(8) %3, %"struct.std::complex"** dereferenceable(8) %4) #3
  %5 = getelementptr inbounds %"struct.std::_Vector_base<std::complex<double>, std::allocator<std::complex<double> > >::_Vector_impl", %"struct.std::_Vector_base<std::complex<double>, std::allocator<std::complex<double> > >::_Vector_impl"* %0, i32 0, i32 1
  %6 = getelementptr inbounds %"struct.std::_Vector_base<std::complex<double>, std::allocator<std::complex<double> > >::_Vector_impl", %"struct.std::_Vector_base<std::complex<double>, std::allocator<std::complex<double> > >::_Vector_impl"* %1, i32 0, i32 1
  call void @_ZSt4swapIPSt7complexIdEENSt9enable_ifIXsr6__and_ISt6__not_ISt15__is_tuple_likeIT_EESt21is_move_constructibleIS6_ESt18is_move_assignableIS6_EEE5valueEvE4typeERS6_SF_(%"struct.std::complex"** dereferenceable(8) %5, %"struct.std::complex"** dereferenceable(8) %6) #3
  %7 = getelementptr inbounds %"struct.std::_Vector_base<std::complex<double>, std::allocator<std::complex<double> > >::_Vector_impl", %"struct.std::_Vector_base<std::complex<double>, std::allocator<std::complex<double> > >::_Vector_impl"* %0, i32 0, i32 2
  %8 = getelementptr inbounds %"struct.std::_Vector_base<std::complex<double>, std::allocator<std::complex<double> > >::_Vector_impl", %"struct.std::_Vector_base<std::complex<double>, std::allocator<std::complex<double> > >::_Vector_impl"* %1, i32 0, i32 2
  call void @_ZSt4swapIPSt7complexIdEENSt9enable_ifIXsr6__and_ISt6__not_ISt15__is_tuple_likeIT_EESt21is_move_constructibleIS6_ESt18is_move_assignableIS6_EEE5valueEvE4typeERS6_SF_(%"struct.std::complex"** dereferenceable(8) %7, %"struct.std::complex"** dereferenceable(8) %8) #3
  ret void
}

; Function Attrs: noinline nounwind uwtable
define linkonce_odr void @_ZNSaISt7complexIdEEC2ERKS1_(%"class.std::allocator"* %0, %"class.std::allocator"* dereferenceable(1) %1) unnamed_addr #4 comdat align 2 {
  %3 = bitcast %"class.std::allocator"* %0 to %"class.__gnu_cxx::new_allocator"*
  %4 = bitcast %"class.std::allocator"* %1 to %"class.__gnu_cxx::new_allocator"*
  call void @_ZN9__gnu_cxx13new_allocatorISt7complexIdEEC2ERKS3_(%"class.__gnu_cxx::new_allocator"* %3, %"class.__gnu_cxx::new_allocator"* dereferenceable(1) %4) #3
  ret void
}

; Function Attrs: noinline nounwind uwtable
define linkonce_odr void @_ZN9__gnu_cxx13new_allocatorISt7complexIdEEC2ERKS3_(%"class.__gnu_cxx::new_allocator"* %0, %"class.__gnu_cxx::new_allocator"* dereferenceable(1) %1) unnamed_addr #4 comdat align 2 {
  ret void
}

; Function Attrs: noinline nounwind uwtable
define linkonce_odr void @_ZSt4swapIPSt7complexIdEENSt9enable_ifIXsr6__and_ISt6__not_ISt15__is_tuple_likeIT_EESt21is_move_constructibleIS6_ESt18is_move_assignableIS6_EEE5valueEvE4typeERS6_SF_(%"struct.std::complex"** dereferenceable(8) %0, %"struct.std::complex"** dereferenceable(8) %1) #4 comdat {
  %3 = alloca %"struct.std::complex"*, align 8
  %4 = call dereferenceable(8) %"struct.std::complex"** @_ZSt4moveIRPSt7complexIdEEONSt16remove_referenceIT_E4typeEOS5_(%"struct.std::complex"** dereferenceable(8) %0) #3
  %5 = load %"struct.std::complex"*, %"struct.std::complex"** %4, align 8
  store %"struct.std::complex"* %5, %"struct.std::complex"** %3, align 8
  %6 = call dereferenceable(8) %"struct.std::complex"** @_ZSt4moveIRPSt7complexIdEEONSt16remove_referenceIT_E4typeEOS5_(%"struct.std::complex"** dereferenceable(8) %1) #3
  %7 = load %"struct.std::complex"*, %"struct.std::complex"** %6, align 8
  store %"struct.std::complex"* %7, %"struct.std::complex"** %0, align 8
  %8 = call dereferenceable(8) %"struct.std::complex"** @_ZSt4moveIRPSt7complexIdEEONSt16remove_referenceIT_E4typeEOS5_(%"struct.std::complex"** dereferenceable(8) %3) #3
  %9 = load %"struct.std::complex"*, %"struct.std::complex"** %8, align 8
  store %"struct.std::complex"* %9, %"struct.std::complex"** %1, align 8
  ret void
}

; Function Attrs: noinline nounwind uwtable
define linkonce_odr dereferenceable(8) %"struct.std::complex"** @_ZSt4moveIRPSt7complexIdEEONSt16remove_referenceIT_E4typeEOS5_(%"struct.std::complex"** dereferenceable(8) %0) #4 comdat {
  ret %"struct.std::complex"** %0
}

; Function Attrs: noinline uwtable
define linkonce_odr i64 @_ZNKSt6vectorI4LineSaIS0_EE12_M_check_lenEmPKc(%"class.std::vector.0"* %0, i64 %1, i8* %2) #0 comdat align 2 {
  %4 = alloca i64, align 8
  %5 = alloca i64, align 8
  store i64 %1, i64* %4, align 8
  %6 = call i64 @_ZNKSt6vectorI4LineSaIS0_EE8max_sizeEv(%"class.std::vector.0"* %0) #3
  %7 = call i64 @_ZNKSt6vectorI4LineSaIS0_EE4sizeEv(%"class.std::vector.0"* %0) #3
  %8 = sub i64 %6, %7
  %9 = load i64, i64* %4, align 8
  %10 = icmp ult i64 %8, %9
  br i1 %10, label %11, label %12

11:                                               ; preds = %3
  call void @_ZSt20__throw_length_errorPKc(i8* %2) #14
  unreachable

12:                                               ; preds = %3
  %13 = call i64 @_ZNKSt6vectorI4LineSaIS0_EE4sizeEv(%"class.std::vector.0"* %0) #3
  %14 = call i64 @_ZNKSt6vectorI4LineSaIS0_EE4sizeEv(%"class.std::vector.0"* %0) #3
  store i64 %14, i64* %5, align 8
  %15 = call dereferenceable(8) i64* @_ZSt3maxImERKT_S2_S2_(i64* dereferenceable(8) %5, i64* dereferenceable(8) %4)
  %16 = load i64, i64* %15, align 8
  %17 = add i64 %13, %16
  %18 = call i64 @_ZNKSt6vectorI4LineSaIS0_EE4sizeEv(%"class.std::vector.0"* %0) #3
  %19 = icmp ult i64 %17, %18
  br i1 %19, label %23, label %20

20:                                               ; preds = %12
  %21 = call i64 @_ZNKSt6vectorI4LineSaIS0_EE8max_sizeEv(%"class.std::vector.0"* %0) #3
  %22 = icmp ugt i64 %17, %21
  br i1 %22, label %23, label %25

23:                                               ; preds = %20, %12
  %24 = call i64 @_ZNKSt6vectorI4LineSaIS0_EE8max_sizeEv(%"class.std::vector.0"* %0) #3
  br label %26

25:                                               ; preds = %20
  br label %26

26:                                               ; preds = %25, %23
  %27 = phi i64 [ %24, %23 ], [ %17, %25 ]
  ret i64 %27
}

; Function Attrs: noinline nounwind uwtable
define linkonce_odr i64 @_ZN9__gnu_cxxmiIP4LineSt6vectorIS1_SaIS1_EEEENS_17__normal_iteratorIT_T0_E15difference_typeERKS9_SC_(%"class.__gnu_cxx::__normal_iterator.13"* dereferenceable(8) %0, %"class.__gnu_cxx::__normal_iterator.13"* dereferenceable(8) %1) #4 comdat {
  %3 = call dereferenceable(8) %struct.Line** @_ZNK9__gnu_cxx17__normal_iteratorIP4LineSt6vectorIS1_SaIS1_EEE4baseEv(%"class.__gnu_cxx::__normal_iterator.13"* %0) #3
  %4 = load %struct.Line*, %struct.Line** %3, align 8
  %5 = call dereferenceable(8) %struct.Line** @_ZNK9__gnu_cxx17__normal_iteratorIP4LineSt6vectorIS1_SaIS1_EEE4baseEv(%"class.__gnu_cxx::__normal_iterator.13"* %1) #3
  %6 = load %struct.Line*, %struct.Line** %5, align 8
  %7 = ptrtoint %struct.Line* %4 to i64
  %8 = ptrtoint %struct.Line* %6 to i64
  %9 = sub i64 %7, %8
  %10 = sdiv exact i64 %9, 24
  ret i64 %10
}

; Function Attrs: noinline nounwind uwtable
define linkonce_odr %struct.Line* @_ZNSt6vectorI4LineSaIS0_EE5beginEv(%"class.std::vector.0"* %0) #4 comdat align 2 {
  %2 = alloca %"class.__gnu_cxx::__normal_iterator.13", align 8
  %3 = bitcast %"class.std::vector.0"* %0 to %"struct.std::_Vector_base.1"*
  %4 = getelementptr inbounds %"struct.std::_Vector_base.1", %"struct.std::_Vector_base.1"* %3, i32 0, i32 0
  %5 = getelementptr inbounds %"struct.std::_Vector_base<Line, std::allocator<Line> >::_Vector_impl", %"struct.std::_Vector_base<Line, std::allocator<Line> >::_Vector_impl"* %4, i32 0, i32 0
  call void @_ZN9__gnu_cxx17__normal_iteratorIP4LineSt6vectorIS1_SaIS1_EEEC2ERKS2_(%"class.__gnu_cxx::__normal_iterator.13"* %2, %struct.Line** dereferenceable(8) %5) #3
  %6 = getelementptr inbounds %"class.__gnu_cxx::__normal_iterator.13", %"class.__gnu_cxx::__normal_iterator.13"* %2, i32 0, i32 0
  %7 = load %struct.Line*, %struct.Line** %6, align 8
  ret %struct.Line* %7
}

; Function Attrs: noinline uwtable
define linkonce_odr %struct.Line* @_ZNSt12_Vector_baseI4LineSaIS0_EE11_M_allocateEm(%"struct.std::_Vector_base.1"* %0, i64 %1) #0 comdat align 2 {
  %3 = icmp ne i64 %1, 0
  br i1 %3, label %4, label %8

4:                                                ; preds = %2
  %5 = getelementptr inbounds %"struct.std::_Vector_base.1", %"struct.std::_Vector_base.1"* %0, i32 0, i32 0
  %6 = bitcast %"struct.std::_Vector_base<Line, std::allocator<Line> >::_Vector_impl"* %5 to %"class.std::allocator.2"*
  %7 = call %struct.Line* @_ZNSt16allocator_traitsISaI4LineEE8allocateERS1_m(%"class.std::allocator.2"* dereferenceable(1) %6, i64 %1)
  br label %9

8:                                                ; preds = %2
  br label %9

9:                                                ; preds = %8, %4
  %10 = phi %struct.Line* [ %7, %4 ], [ null, %8 ]
  ret %struct.Line* %10
}

; Function Attrs: noinline uwtable
define linkonce_odr %struct.Line* @_ZSt34__uninitialized_move_if_noexcept_aIP4LineS1_SaIS0_EET0_T_S4_S3_RT1_(%struct.Line* %0, %struct.Line* %1, %struct.Line* %2, %"class.std::allocator.2"* dereferenceable(1) %3) #0 comdat {
  %5 = alloca %"class.std::move_iterator.14", align 8
  %6 = alloca %"class.std::move_iterator.14", align 8
  %7 = call %struct.Line* @_ZSt32__make_move_if_noexcept_iteratorI4LineSt13move_iteratorIPS0_EET0_PT_(%struct.Line* %0)
  %8 = getelementptr inbounds %"class.std::move_iterator.14", %"class.std::move_iterator.14"* %5, i32 0, i32 0
  store %struct.Line* %7, %struct.Line** %8, align 8
  %9 = call %struct.Line* @_ZSt32__make_move_if_noexcept_iteratorI4LineSt13move_iteratorIPS0_EET0_PT_(%struct.Line* %1)
  %10 = getelementptr inbounds %"class.std::move_iterator.14", %"class.std::move_iterator.14"* %6, i32 0, i32 0
  store %struct.Line* %9, %struct.Line** %10, align 8
  %11 = getelementptr inbounds %"class.std::move_iterator.14", %"class.std::move_iterator.14"* %5, i32 0, i32 0
  %12 = load %struct.Line*, %struct.Line** %11, align 8
  %13 = getelementptr inbounds %"class.std::move_iterator.14", %"class.std::move_iterator.14"* %6, i32 0, i32 0
  %14 = load %struct.Line*, %struct.Line** %13, align 8
  %15 = call %struct.Line* @_ZSt22__uninitialized_copy_aISt13move_iteratorIP4LineES2_S1_ET0_T_S5_S4_RSaIT1_E(%struct.Line* %12, %struct.Line* %14, %struct.Line* %2, %"class.std::allocator.2"* dereferenceable(1) %3)
  ret %struct.Line* %15
}

; Function Attrs: noinline nounwind uwtable
define linkonce_odr dereferenceable(8) %struct.Line** @_ZNK9__gnu_cxx17__normal_iteratorIP4LineSt6vectorIS1_SaIS1_EEE4baseEv(%"class.__gnu_cxx::__normal_iterator.13"* %0) #4 comdat align 2 {
  %2 = getelementptr inbounds %"class.__gnu_cxx::__normal_iterator.13", %"class.__gnu_cxx::__normal_iterator.13"* %0, i32 0, i32 0
  ret %struct.Line** %2
}

; Function Attrs: noinline uwtable
define linkonce_odr void @_ZNSt16allocator_traitsISaI4LineEE7destroyIS0_EEvRS1_PT_(%"class.std::allocator.2"* dereferenceable(1) %0, %struct.Line* %1) #0 comdat align 2 {
  %3 = bitcast %"class.std::allocator.2"* %0 to %"class.__gnu_cxx::new_allocator.3"*
  call void @_ZN9__gnu_cxx13new_allocatorI4LineE7destroyIS1_EEvPT_(%"class.__gnu_cxx::new_allocator.3"* %3, %struct.Line* %1)
  ret void
}

; Function Attrs: noinline nounwind uwtable
define linkonce_odr i64 @_ZNKSt6vectorI4LineSaIS0_EE8max_sizeEv(%"class.std::vector.0"* %0) #4 comdat align 2 {
  %2 = bitcast %"class.std::vector.0"* %0 to %"struct.std::_Vector_base.1"*
  %3 = call dereferenceable(1) %"class.std::allocator.2"* @_ZNKSt12_Vector_baseI4LineSaIS0_EE19_M_get_Tp_allocatorEv(%"struct.std::_Vector_base.1"* %2) #3
  %4 = call i64 @_ZNSt16allocator_traitsISaI4LineEE8max_sizeERKS1_(%"class.std::allocator.2"* dereferenceable(1) %3) #3
  ret i64 %4
}

; Function Attrs: noinline nounwind uwtable
define linkonce_odr i64 @_ZNSt16allocator_traitsISaI4LineEE8max_sizeERKS1_(%"class.std::allocator.2"* dereferenceable(1) %0) #4 comdat align 2 {
  %2 = bitcast %"class.std::allocator.2"* %0 to %"class.__gnu_cxx::new_allocator.3"*
  %3 = call i64 @_ZNK9__gnu_cxx13new_allocatorI4LineE8max_sizeEv(%"class.__gnu_cxx::new_allocator.3"* %2) #3
  ret i64 %3
}

; Function Attrs: noinline nounwind uwtable
define linkonce_odr dereferenceable(1) %"class.std::allocator.2"* @_ZNKSt12_Vector_baseI4LineSaIS0_EE19_M_get_Tp_allocatorEv(%"struct.std::_Vector_base.1"* %0) #4 comdat align 2 {
  %2 = getelementptr inbounds %"struct.std::_Vector_base.1", %"struct.std::_Vector_base.1"* %0, i32 0, i32 0
  %3 = bitcast %"struct.std::_Vector_base<Line, std::allocator<Line> >::_Vector_impl"* %2 to %"class.std::allocator.2"*
  ret %"class.std::allocator.2"* %3
}

; Function Attrs: noinline nounwind uwtable
define linkonce_odr i64 @_ZNK9__gnu_cxx13new_allocatorI4LineE8max_sizeEv(%"class.__gnu_cxx::new_allocator.3"* %0) #4 comdat align 2 {
  ret i64 768614336404564650
}

; Function Attrs: noinline nounwind uwtable
define linkonce_odr void @_ZN9__gnu_cxx17__normal_iteratorIP4LineSt6vectorIS1_SaIS1_EEEC2ERKS2_(%"class.__gnu_cxx::__normal_iterator.13"* %0, %struct.Line** dereferenceable(8) %1) unnamed_addr #4 comdat align 2 {
  %3 = getelementptr inbounds %"class.__gnu_cxx::__normal_iterator.13", %"class.__gnu_cxx::__normal_iterator.13"* %0, i32 0, i32 0
  %4 = load %struct.Line*, %struct.Line** %1, align 8
  store %struct.Line* %4, %struct.Line** %3, align 8
  ret void
}

; Function Attrs: noinline uwtable
define linkonce_odr %struct.Line* @_ZNSt16allocator_traitsISaI4LineEE8allocateERS1_m(%"class.std::allocator.2"* dereferenceable(1) %0, i64 %1) #0 comdat align 2 {
  %3 = bitcast %"class.std::allocator.2"* %0 to %"class.__gnu_cxx::new_allocator.3"*
  %4 = call %struct.Line* @_ZN9__gnu_cxx13new_allocatorI4LineE8allocateEmPKv(%"class.__gnu_cxx::new_allocator.3"* %3, i64 %1, i8* null)
  ret %struct.Line* %4
}

; Function Attrs: noinline uwtable
define linkonce_odr %struct.Line* @_ZN9__gnu_cxx13new_allocatorI4LineE8allocateEmPKv(%"class.__gnu_cxx::new_allocator.3"* %0, i64 %1, i8* %2) #0 comdat align 2 {
  %4 = call i64 @_ZNK9__gnu_cxx13new_allocatorI4LineE8max_sizeEv(%"class.__gnu_cxx::new_allocator.3"* %0) #3
  %5 = icmp ugt i64 %1, %4
  br i1 %5, label %6, label %7

6:                                                ; preds = %3
  call void @_ZSt17__throw_bad_allocv() #14
  unreachable

7:                                                ; preds = %3
  %8 = mul i64 %1, 24
  %9 = call i8* @_Znwm(i64 %8)
  %10 = bitcast i8* %9 to %struct.Line*
  ret %struct.Line* %10
}

; Function Attrs: noinline uwtable
define linkonce_odr %struct.Line* @_ZSt22__uninitialized_copy_aISt13move_iteratorIP4LineES2_S1_ET0_T_S5_S4_RSaIT1_E(%struct.Line* %0, %struct.Line* %1, %struct.Line* %2, %"class.std::allocator.2"* dereferenceable(1) %3) #0 comdat {
  %5 = alloca %"class.std::move_iterator.14", align 8
  %6 = alloca %"class.std::move_iterator.14", align 8
  %7 = alloca %"class.std::move_iterator.14", align 8
  %8 = alloca %"class.std::move_iterator.14", align 8
  %9 = getelementptr inbounds %"class.std::move_iterator.14", %"class.std::move_iterator.14"* %5, i32 0, i32 0
  store %struct.Line* %0, %struct.Line** %9, align 8
  %10 = getelementptr inbounds %"class.std::move_iterator.14", %"class.std::move_iterator.14"* %6, i32 0, i32 0
  store %struct.Line* %1, %struct.Line** %10, align 8
  %11 = bitcast %"class.std::move_iterator.14"* %7 to i8*
  %12 = bitcast %"class.std::move_iterator.14"* %5 to i8*
  call void @llvm.memcpy.p0i8.p0i8.i64(i8* align 8 %11, i8* align 8 %12, i64 8, i1 false)
  %13 = bitcast %"class.std::move_iterator.14"* %8 to i8*
  %14 = bitcast %"class.std::move_iterator.14"* %6 to i8*
  call void @llvm.memcpy.p0i8.p0i8.i64(i8* align 8 %13, i8* align 8 %14, i64 8, i1 false)
  %15 = getelementptr inbounds %"class.std::move_iterator.14", %"class.std::move_iterator.14"* %7, i32 0, i32 0
  %16 = load %struct.Line*, %struct.Line** %15, align 8
  %17 = getelementptr inbounds %"class.std::move_iterator.14", %"class.std::move_iterator.14"* %8, i32 0, i32 0
  %18 = load %struct.Line*, %struct.Line** %17, align 8
  %19 = call %struct.Line* @_ZSt18uninitialized_copyISt13move_iteratorIP4LineES2_ET0_T_S5_S4_(%struct.Line* %16, %struct.Line* %18, %struct.Line* %2)
  ret %struct.Line* %19
}

; Function Attrs: noinline uwtable
define linkonce_odr %struct.Line* @_ZSt32__make_move_if_noexcept_iteratorI4LineSt13move_iteratorIPS0_EET0_PT_(%struct.Line* %0) #0 comdat {
  %2 = alloca %"class.std::move_iterator.14", align 8
  call void @_ZNSt13move_iteratorIP4LineEC2ES1_(%"class.std::move_iterator.14"* %2, %struct.Line* %0)
  %3 = getelementptr inbounds %"class.std::move_iterator.14", %"class.std::move_iterator.14"* %2, i32 0, i32 0
  %4 = load %struct.Line*, %struct.Line** %3, align 8
  ret %struct.Line* %4
}

; Function Attrs: noinline uwtable
define linkonce_odr %struct.Line* @_ZSt18uninitialized_copyISt13move_iteratorIP4LineES2_ET0_T_S5_S4_(%struct.Line* %0, %struct.Line* %1, %struct.Line* %2) #0 comdat {
  %4 = alloca %"class.std::move_iterator.14", align 8
  %5 = alloca %"class.std::move_iterator.14", align 8
  %6 = alloca %"class.std::move_iterator.14", align 8
  %7 = alloca %"class.std::move_iterator.14", align 8
  %8 = getelementptr inbounds %"class.std::move_iterator.14", %"class.std::move_iterator.14"* %4, i32 0, i32 0
  store %struct.Line* %0, %struct.Line** %8, align 8
  %9 = getelementptr inbounds %"class.std::move_iterator.14", %"class.std::move_iterator.14"* %5, i32 0, i32 0
  store %struct.Line* %1, %struct.Line** %9, align 8
  %10 = bitcast %"class.std::move_iterator.14"* %6 to i8*
  %11 = bitcast %"class.std::move_iterator.14"* %4 to i8*
  call void @llvm.memcpy.p0i8.p0i8.i64(i8* align 8 %10, i8* align 8 %11, i64 8, i1 false)
  %12 = bitcast %"class.std::move_iterator.14"* %7 to i8*
  %13 = bitcast %"class.std::move_iterator.14"* %5 to i8*
  call void @llvm.memcpy.p0i8.p0i8.i64(i8* align 8 %12, i8* align 8 %13, i64 8, i1 false)
  %14 = getelementptr inbounds %"class.std::move_iterator.14", %"class.std::move_iterator.14"* %6, i32 0, i32 0
  %15 = load %struct.Line*, %struct.Line** %14, align 8
  %16 = getelementptr inbounds %"class.std::move_iterator.14", %"class.std::move_iterator.14"* %7, i32 0, i32 0
  %17 = load %struct.Line*, %struct.Line** %16, align 8
  %18 = call %struct.Line* @_ZNSt20__uninitialized_copyILb0EE13__uninit_copyISt13move_iteratorIP4LineES4_EET0_T_S7_S6_(%struct.Line* %15, %struct.Line* %17, %struct.Line* %2)
  ret %struct.Line* %18
}

; Function Attrs: noinline uwtable
define linkonce_odr %struct.Line* @_ZNSt20__uninitialized_copyILb0EE13__uninit_copyISt13move_iteratorIP4LineES4_EET0_T_S7_S6_(%struct.Line* %0, %struct.Line* %1, %struct.Line* %2) #0 comdat align 2 personality i8* bitcast (i32 (...)* @__gxx_personality_v0 to i8*) {
  %4 = alloca %"class.std::move_iterator.14", align 8
  %5 = alloca %"class.std::move_iterator.14", align 8
  %6 = getelementptr inbounds %"class.std::move_iterator.14", %"class.std::move_iterator.14"* %4, i32 0, i32 0
  store %struct.Line* %0, %struct.Line** %6, align 8
  %7 = getelementptr inbounds %"class.std::move_iterator.14", %"class.std::move_iterator.14"* %5, i32 0, i32 0
  store %struct.Line* %1, %struct.Line** %7, align 8
  br label %8

8:                                                ; preds = %18, %3
  %.0 = phi %struct.Line* [ %2, %3 ], [ %19, %18 ]
  %9 = invoke zeroext i1 @_ZStneIP4LineEbRKSt13move_iteratorIT_ES6_(%"class.std::move_iterator.14"* dereferenceable(8) %4, %"class.std::move_iterator.14"* dereferenceable(8) %5)
          to label %10 unwind label %20

10:                                               ; preds = %8
  br i1 %9, label %11, label %27

11:                                               ; preds = %10
  %12 = call %struct.Line* @_ZSt11__addressofI4LineEPT_RS1_(%struct.Line* dereferenceable(24) %.0) #3
  %13 = invoke dereferenceable(24) %struct.Line* @_ZNKSt13move_iteratorIP4LineEdeEv(%"class.std::move_iterator.14"* %4)
          to label %14 unwind label %20

14:                                               ; preds = %11
  invoke void @_ZSt10_ConstructI4LineJS0_EEvPT_DpOT0_(%struct.Line* %12, %struct.Line* dereferenceable(24) %13)
          to label %15 unwind label %20

15:                                               ; preds = %14
  br label %16

16:                                               ; preds = %15
  %17 = invoke dereferenceable(8) %"class.std::move_iterator.14"* @_ZNSt13move_iteratorIP4LineEppEv(%"class.std::move_iterator.14"* %4)
          to label %18 unwind label %20

18:                                               ; preds = %16
  %19 = getelementptr inbounds %struct.Line, %struct.Line* %.0, i32 1
  br label %8

20:                                               ; preds = %16, %14, %11, %8
  %21 = landingpad { i8*, i32 }
          catch i8* null
  %22 = extractvalue { i8*, i32 } %21, 0
  %23 = extractvalue { i8*, i32 } %21, 1
  br label %24

24:                                               ; preds = %20
  %25 = call i8* @__cxa_begin_catch(i8* %22) #3
  invoke void @_ZSt8_DestroyIP4LineEvT_S2_(%struct.Line* %2, %struct.Line* %.0)
          to label %26 unwind label %28

26:                                               ; preds = %24
  invoke void @__cxa_rethrow() #14
          to label %40 unwind label %28

27:                                               ; preds = %10
  ret %struct.Line* %.0

28:                                               ; preds = %26, %24
  %29 = landingpad { i8*, i32 }
          cleanup
  %30 = extractvalue { i8*, i32 } %29, 0
  %31 = extractvalue { i8*, i32 } %29, 1
  invoke void @__cxa_end_catch()
          to label %32 unwind label %37

32:                                               ; preds = %28
  br label %34

33:                                               ; No predecessors!
  call void @llvm.trap()
  unreachable

34:                                               ; preds = %32
  %35 = insertvalue { i8*, i32 } undef, i8* %30, 0
  %36 = insertvalue { i8*, i32 } %35, i32 %31, 1
  resume { i8*, i32 } %36

37:                                               ; preds = %28
  %38 = landingpad { i8*, i32 }
          catch i8* null
  %39 = extractvalue { i8*, i32 } %38, 0
  call void @__clang_call_terminate(i8* %39) #13
  unreachable

40:                                               ; preds = %26
  unreachable
}

; Function Attrs: noinline uwtable
define linkonce_odr zeroext i1 @_ZStneIP4LineEbRKSt13move_iteratorIT_ES6_(%"class.std::move_iterator.14"* dereferenceable(8) %0, %"class.std::move_iterator.14"* dereferenceable(8) %1) #0 comdat {
  %3 = call zeroext i1 @_ZSteqIP4LineEbRKSt13move_iteratorIT_ES6_(%"class.std::move_iterator.14"* dereferenceable(8) %0, %"class.std::move_iterator.14"* dereferenceable(8) %1)
  %4 = xor i1 %3, true
  ret i1 %4
}

; Function Attrs: noinline nounwind uwtable
define linkonce_odr void @_ZSt10_ConstructI4LineJS0_EEvPT_DpOT0_(%struct.Line* %0, %struct.Line* dereferenceable(24) %1) #4 comdat {
  %3 = bitcast %struct.Line* %0 to i8*
  %4 = bitcast i8* %3 to %struct.Line*
  %5 = call dereferenceable(24) %struct.Line* @_ZSt7forwardI4LineEOT_RNSt16remove_referenceIS1_E4typeE(%struct.Line* dereferenceable(24) %1) #3
  call void @_ZN4LineC2EOS_(%struct.Line* %4, %struct.Line* dereferenceable(24) %5) #3
  ret void
}

; Function Attrs: noinline nounwind uwtable
define linkonce_odr dereferenceable(24) %struct.Line* @_ZNKSt13move_iteratorIP4LineEdeEv(%"class.std::move_iterator.14"* %0) #4 comdat align 2 {
  %2 = getelementptr inbounds %"class.std::move_iterator.14", %"class.std::move_iterator.14"* %0, i32 0, i32 0
  %3 = load %struct.Line*, %struct.Line** %2, align 8
  ret %struct.Line* %3
}

; Function Attrs: noinline nounwind uwtable
define linkonce_odr dereferenceable(8) %"class.std::move_iterator.14"* @_ZNSt13move_iteratorIP4LineEppEv(%"class.std::move_iterator.14"* %0) #4 comdat align 2 {
  %2 = getelementptr inbounds %"class.std::move_iterator.14", %"class.std::move_iterator.14"* %0, i32 0, i32 0
  %3 = load %struct.Line*, %struct.Line** %2, align 8
  %4 = getelementptr inbounds %struct.Line, %struct.Line* %3, i32 1
  store %struct.Line* %4, %struct.Line** %2, align 8
  ret %"class.std::move_iterator.14"* %0
}

; Function Attrs: noinline uwtable
define linkonce_odr zeroext i1 @_ZSteqIP4LineEbRKSt13move_iteratorIT_ES6_(%"class.std::move_iterator.14"* dereferenceable(8) %0, %"class.std::move_iterator.14"* dereferenceable(8) %1) #0 comdat {
  %3 = call %struct.Line* @_ZNKSt13move_iteratorIP4LineE4baseEv(%"class.std::move_iterator.14"* %0)
  %4 = call %struct.Line* @_ZNKSt13move_iteratorIP4LineE4baseEv(%"class.std::move_iterator.14"* %1)
  %5 = icmp eq %struct.Line* %3, %4
  ret i1 %5
}

; Function Attrs: noinline nounwind uwtable
define linkonce_odr %struct.Line* @_ZNKSt13move_iteratorIP4LineE4baseEv(%"class.std::move_iterator.14"* %0) #4 comdat align 2 {
  %2 = getelementptr inbounds %"class.std::move_iterator.14", %"class.std::move_iterator.14"* %0, i32 0, i32 0
  %3 = load %struct.Line*, %struct.Line** %2, align 8
  ret %struct.Line* %3
}

; Function Attrs: noinline nounwind uwtable
define linkonce_odr void @_ZNSt13move_iteratorIP4LineEC2ES1_(%"class.std::move_iterator.14"* %0, %struct.Line* %1) unnamed_addr #4 comdat align 2 {
  %3 = getelementptr inbounds %"class.std::move_iterator.14", %"class.std::move_iterator.14"* %0, i32 0, i32 0
  store %struct.Line* %1, %struct.Line** %3, align 8
  ret void
}

; Function Attrs: noinline nounwind uwtable
define linkonce_odr void @_ZN9__gnu_cxx13new_allocatorI4LineE7destroyIS1_EEvPT_(%"class.__gnu_cxx::new_allocator.3"* %0, %struct.Line* %1) #4 comdat align 2 {
  call void @_ZN4LineD2Ev(%struct.Line* %1) #3
  ret void
}

; Function Attrs: noinline uwtable
define linkonce_odr void @_ZNSt12_Vector_baseIdSaIdEEC2Ev(%"struct.std::_Vector_base.6"* %0) unnamed_addr #0 comdat align 2 {
  %2 = getelementptr inbounds %"struct.std::_Vector_base.6", %"struct.std::_Vector_base.6"* %0, i32 0, i32 0
  call void @_ZNSt12_Vector_baseIdSaIdEE12_Vector_implC2Ev(%"struct.std::_Vector_base<double, std::allocator<double> >::_Vector_impl"* %2)
  ret void
}

; Function Attrs: noinline nounwind uwtable
define linkonce_odr void @_ZNSt12_Vector_baseIdSaIdEE12_Vector_implC2Ev(%"struct.std::_Vector_base<double, std::allocator<double> >::_Vector_impl"* %0) unnamed_addr #4 comdat align 2 {
  %2 = bitcast %"struct.std::_Vector_base<double, std::allocator<double> >::_Vector_impl"* %0 to %"class.std::allocator.7"*
  call void @_ZNSaIdEC2Ev(%"class.std::allocator.7"* %2) #3
  %3 = getelementptr inbounds %"struct.std::_Vector_base<double, std::allocator<double> >::_Vector_impl", %"struct.std::_Vector_base<double, std::allocator<double> >::_Vector_impl"* %0, i32 0, i32 0
  store double* null, double** %3, align 8
  %4 = getelementptr inbounds %"struct.std::_Vector_base<double, std::allocator<double> >::_Vector_impl", %"struct.std::_Vector_base<double, std::allocator<double> >::_Vector_impl"* %0, i32 0, i32 1
  store double* null, double** %4, align 8
  %5 = getelementptr inbounds %"struct.std::_Vector_base<double, std::allocator<double> >::_Vector_impl", %"struct.std::_Vector_base<double, std::allocator<double> >::_Vector_impl"* %0, i32 0, i32 2
  store double* null, double** %5, align 8
  ret void
}

; Function Attrs: noinline nounwind uwtable
define linkonce_odr void @_ZNSaIdEC2Ev(%"class.std::allocator.7"* %0) unnamed_addr #4 comdat align 2 {
  %2 = bitcast %"class.std::allocator.7"* %0 to %"class.__gnu_cxx::new_allocator.8"*
  call void @_ZN9__gnu_cxx13new_allocatorIdEC2Ev(%"class.__gnu_cxx::new_allocator.8"* %2) #3
  ret void
}

; Function Attrs: noinline nounwind uwtable
define linkonce_odr void @_ZN9__gnu_cxx13new_allocatorIdEC2Ev(%"class.__gnu_cxx::new_allocator.8"* %0) unnamed_addr #4 comdat align 2 {
  ret void
}

; Function Attrs: noinline uwtable
define linkonce_odr void @_ZSt8_DestroyIPddEvT_S1_RSaIT0_E(double* %0, double* %1, %"class.std::allocator.7"* dereferenceable(1) %2) #0 comdat {
  call void @_ZSt8_DestroyIPdEvT_S1_(double* %0, double* %1)
  ret void
}

; Function Attrs: noinline nounwind uwtable
define linkonce_odr dereferenceable(1) %"class.std::allocator.7"* @_ZNSt12_Vector_baseIdSaIdEE19_M_get_Tp_allocatorEv(%"struct.std::_Vector_base.6"* %0) #4 comdat align 2 {
  %2 = getelementptr inbounds %"struct.std::_Vector_base.6", %"struct.std::_Vector_base.6"* %0, i32 0, i32 0
  %3 = bitcast %"struct.std::_Vector_base<double, std::allocator<double> >::_Vector_impl"* %2 to %"class.std::allocator.7"*
  ret %"class.std::allocator.7"* %3
}

; Function Attrs: noinline nounwind uwtable
define linkonce_odr void @_ZNSt12_Vector_baseIdSaIdEED2Ev(%"struct.std::_Vector_base.6"* %0) unnamed_addr #4 comdat align 2 personality i8* bitcast (i32 (...)* @__gxx_personality_v0 to i8*) {
  %2 = getelementptr inbounds %"struct.std::_Vector_base.6", %"struct.std::_Vector_base.6"* %0, i32 0, i32 0
  %3 = getelementptr inbounds %"struct.std::_Vector_base<double, std::allocator<double> >::_Vector_impl", %"struct.std::_Vector_base<double, std::allocator<double> >::_Vector_impl"* %2, i32 0, i32 0
  %4 = load double*, double** %3, align 8
  %5 = getelementptr inbounds %"struct.std::_Vector_base.6", %"struct.std::_Vector_base.6"* %0, i32 0, i32 0
  %6 = getelementptr inbounds %"struct.std::_Vector_base<double, std::allocator<double> >::_Vector_impl", %"struct.std::_Vector_base<double, std::allocator<double> >::_Vector_impl"* %5, i32 0, i32 2
  %7 = load double*, double** %6, align 8
  %8 = getelementptr inbounds %"struct.std::_Vector_base.6", %"struct.std::_Vector_base.6"* %0, i32 0, i32 0
  %9 = getelementptr inbounds %"struct.std::_Vector_base<double, std::allocator<double> >::_Vector_impl", %"struct.std::_Vector_base<double, std::allocator<double> >::_Vector_impl"* %8, i32 0, i32 0
  %10 = load double*, double** %9, align 8
  %11 = ptrtoint double* %7 to i64
  %12 = ptrtoint double* %10 to i64
  %13 = sub i64 %11, %12
  %14 = sdiv exact i64 %13, 8
  invoke void @_ZNSt12_Vector_baseIdSaIdEE13_M_deallocateEPdm(%"struct.std::_Vector_base.6"* %0, double* %4, i64 %14)
          to label %15 unwind label %17

15:                                               ; preds = %1
  %16 = getelementptr inbounds %"struct.std::_Vector_base.6", %"struct.std::_Vector_base.6"* %0, i32 0, i32 0
  call void @_ZNSt12_Vector_baseIdSaIdEE12_Vector_implD2Ev(%"struct.std::_Vector_base<double, std::allocator<double> >::_Vector_impl"* %16) #3
  ret void

17:                                               ; preds = %1
  %18 = landingpad { i8*, i32 }
          catch i8* null
  %19 = extractvalue { i8*, i32 } %18, 0
  %20 = extractvalue { i8*, i32 } %18, 1
  %21 = getelementptr inbounds %"struct.std::_Vector_base.6", %"struct.std::_Vector_base.6"* %0, i32 0, i32 0
  call void @_ZNSt12_Vector_baseIdSaIdEE12_Vector_implD2Ev(%"struct.std::_Vector_base<double, std::allocator<double> >::_Vector_impl"* %21) #3
  br label %22

22:                                               ; preds = %17
  call void @__clang_call_terminate(i8* %19) #13
  unreachable
}

; Function Attrs: noinline uwtable
define linkonce_odr void @_ZSt8_DestroyIPdEvT_S1_(double* %0, double* %1) #0 comdat {
  call void @_ZNSt12_Destroy_auxILb1EE9__destroyIPdEEvT_S3_(double* %0, double* %1)
  ret void
}

; Function Attrs: noinline nounwind uwtable
