; ModuleID = '/home/pedro/tcc/exDataset/codenet/data/selection/p01339/s338896753.ll'
source_filename = "/home/pedro/tcc/exDataset/codenet/data/selection/p01339/s338896753.cpp"
target datalayout = "e-m:e-i64:64-f80:128-n8:16:32:64-S128"
target triple = "x86_64-pc-linux-gnu"

%"class.std::ios_base::Init" = type { i8 }
%"class.std::vector" = type { %"struct.std::_Vector_base" }
%"struct.std::_Vector_base" = type { %"struct.std::_Vector_base<std::vector<Data, std::allocator<Data> >, std::allocator<std::vector<Data, std::allocator<Data> > > >::_Vector_impl" }
%"struct.std::_Vector_base<std::vector<Data, std::allocator<Data> >, std::allocator<std::vector<Data, std::allocator<Data> > > >::_Vector_impl" = type { %"class.std::vector.0"*, %"class.std::vector.0"*, %"class.std::vector.0"* }
%"class.std::vector.0" = type { %"struct.std::_Vector_base.6" }
%"struct.std::_Vector_base.6" = type { %"struct.std::_Vector_base<Data, std::allocator<Data> >::_Vector_impl" }
%"struct.std::_Vector_base<Data, std::allocator<Data> >::_Vector_impl" = type { %struct.Data*, %struct.Data*, %struct.Data* }
%struct.Data = type { i32, i32 }
%"class.std::vector.1" = type { %"struct.std::_Vector_base.2" }
%"struct.std::_Vector_base.2" = type { %"struct.std::_Vector_base<int, std::allocator<int> >::_Vector_impl" }
%"struct.std::_Vector_base<int, std::allocator<int> >::_Vector_impl" = type { i32*, i32*, i32* }
%"class.std::basic_istream" = type { i32 (...)**, i64, %"class.std::basic_ios" }
%"class.std::basic_ios" = type { %"class.std::ios_base", %"class.std::basic_ostream"*, i8, i8, %"class.std::basic_streambuf"*, %"class.std::ctype"*, %"class.std::num_put"*, %"class.std::num_get"* }
%"class.std::ios_base" = type { i32 (...)**, i64, i64, i32, i32, i32, %"struct.std::ios_base::_Callback_list"*, %"struct.std::ios_base::_Words", [8 x %"struct.std::ios_base::_Words"], i32, %"struct.std::ios_base::_Words"*, %"class.std::locale" }
%"struct.std::ios_base::_Callback_list" = type { %"struct.std::ios_base::_Callback_list"*, void (i32, %"class.std::ios_base"*, i32)*, i32, i32 }
%"struct.std::ios_base::_Words" = type { i8*, i64 }
%"class.std::locale" = type { %"class.std::locale::_Impl"* }
%"class.std::locale::_Impl" = type { i32, %"class.std::locale::facet"**, i64, %"class.std::locale::facet"**, i8** }
%"class.std::locale::facet" = type <{ i32 (...)**, i32, [4 x i8] }>
%"class.std::basic_ostream" = type { i32 (...)**, %"class.std::basic_ios" }
%"class.std::basic_streambuf" = type { i32 (...)**, i8*, i8*, i8*, i8*, i8*, i8*, %"class.std::locale" }
%"class.std::ctype" = type <{ %"class.std::locale::facet.base", [4 x i8], %struct.__locale_struct*, i8, [7 x i8], i32*, i32*, i16*, i8, [256 x i8], [256 x i8], i8, [6 x i8] }>
%"class.std::locale::facet.base" = type <{ i32 (...)**, i32 }>
%struct.__locale_struct = type { [13 x %struct.__locale_data*], i16*, i32*, i32*, [13 x i8*] }
%struct.__locale_data = type opaque
%"class.std::num_put" = type { %"class.std::locale::facet.base", [4 x i8] }
%"class.std::num_get" = type { %"class.std::locale::facet.base", [4 x i8] }
%"class.std::allocator" = type { i8 }
%"class.std::allocator.3" = type { i8 }
%"class.__gnu_cxx::__normal_iterator" = type { i32* }
%"struct.std::pair" = type <{ %"struct.std::_Rb_tree_const_iterator", i8, [7 x i8] }>
%"struct.std::_Rb_tree_const_iterator" = type { %"struct.std::_Rb_tree_node_base"* }
%"struct.std::_Rb_tree_node_base" = type { i32, %"struct.std::_Rb_tree_node_base"*, %"struct.std::_Rb_tree_node_base"*, %"struct.std::_Rb_tree_node_base"* }
%"class.std::set" = type { %"class.std::_Rb_tree" }
%"class.std::_Rb_tree" = type { %"struct.std::_Rb_tree<int, int, std::_Identity<int>, std::less<int>, std::allocator<int> >::_Rb_tree_impl" }
%"struct.std::_Rb_tree<int, int, std::_Identity<int>, std::less<int>, std::allocator<int> >::_Rb_tree_impl" = type { %"struct.std::_Rb_tree_key_compare", %"struct.std::_Rb_tree_header" }
%"struct.std::_Rb_tree_key_compare" = type { %"struct.std::less" }
%"struct.std::less" = type { i8 }
%"struct.std::_Rb_tree_header" = type { %"struct.std::_Rb_tree_node_base", i64 }
%"struct.std::pair.13" = type <{ %"struct.std::_Rb_tree_iterator", i8, [7 x i8] }>
%"struct.std::_Rb_tree_iterator" = type { %"struct.std::_Rb_tree_node_base"* }
%"struct.std::_Rb_tree_node" = type <{ %"struct.std::_Rb_tree_node_base", %"struct.__gnu_cxx::__aligned_membuf", [4 x i8] }>
%"struct.__gnu_cxx::__aligned_membuf" = type { [4 x i8] }
%"class.__gnu_cxx::__normal_iterator.23" = type { %struct.Data* }
%"class.std::allocator.10" = type { i8 }
%"class.__gnu_cxx::new_allocator.11" = type { i8 }
%"class.__gnu_cxx::new_allocator" = type { i8 }
%"class.std::allocator.7" = type { i8 }
%"class.__gnu_cxx::new_allocator.8" = type { i8 }
%"class.__gnu_cxx::new_allocator.4" = type { i8 }
%"class.std::move_iterator" = type { i32* }
%"struct.std::pair.17" = type { %"struct.std::_Rb_tree_node_base"*, %"struct.std::_Rb_tree_node_base"* }
%"struct.std::_Identity" = type { i8 }
%"struct.std::_Rb_tree<int, int, std::_Identity<int>, std::less<int>, std::allocator<int> >::_Alloc_node" = type { %"class.std::_Rb_tree"* }
%"class.std::__pair_base" = type { i8 }
%"class.std::__pair_base.14" = type { i8 }
%"class.std::__pair_base.18" = type { i8 }
%"class.std::move_iterator.20" = type { %"class.std::vector.0"* }
%"class.__gnu_cxx::__normal_iterator.21" = type { %struct.Data* }
%"class.std::move_iterator.22" = type { %struct.Data* }

$_ZNSt6vectorIS_I4DataSaIS0_EESaIS2_EEC2Ev = comdat any

$_ZNSt6vectorIS_I4DataSaIS0_EESaIS2_EED2Ev = comdat any

$_ZNSt6vectorIiSaIiEEC2Ev = comdat any

$_ZNSt6vectorIiSaIiEED2Ev = comdat any

$_ZNKSt6vectorIiSaIiEE4sizeEv = comdat any

$_ZNSt6vectorIiSaIiEEixEm = comdat any

$_ZNSt6vectorIiSaIiEE9push_backERKi = comdat any

$_ZNSt6vectorIiSaIiEE5clearEv = comdat any

$_Z8add_edgeii = comdat any

$_ZNSt3setIiSt4lessIiESaIiEEC2Ev = comdat any

$_ZNSt3setIiSt4lessIiESaIiEE6insertERKi = comdat any

$_ZNSt6vectorIS_I4DataSaIS0_EESaIS2_EE5clearEv = comdat any

$_ZNSt6vectorIS_I4DataSaIS0_EESaIS2_EE6resizeEm = comdat any

$_ZNKSt3setIiSt4lessIiESaIiEE5beginEv = comdat any

$_ZNKSt3setIiSt4lessIiESaIiEE3endEv = comdat any

$_ZNKSt23_Rb_tree_const_iteratorIiEneERKS0_ = comdat any

$_ZNKSt23_Rb_tree_const_iteratorIiEdeEv = comdat any

$_ZNSt6vectorIS_I4DataSaIS0_EESaIS2_EEixEm = comdat any

$_ZNSt6vectorI4DataSaIS0_EE9push_backEOS0_ = comdat any

$_ZN4DataC2Eii = comdat any

$_ZNSt23_Rb_tree_const_iteratorIiEppEv = comdat any

$_Z15topologicalSortISt6vectorIS0_I4DataSaIS1_EESaIS3_EEEbRKT_RS0_IiSaIiEE = comdat any

$_ZNKSt6vectorI4DataSaIS0_EE5emptyEv = comdat any

$_ZNKSt6vectorI4DataSaIS0_EE4sizeEv = comdat any

$_ZNSt6vectorI4DataSaIS0_EEixEm = comdat any

$_ZNSt3setIiSt4lessIiESaIiEED2Ev = comdat any

$_ZNSt8_Rb_treeIiiSt9_IdentityIiESt4lessIiESaIiEEC2Ev = comdat any

$_ZNSt8_Rb_treeIiiSt9_IdentityIiESt4lessIiESaIiEE13_Rb_tree_implIS3_Lb1EEC2Ev = comdat any

$_ZNSaISt13_Rb_tree_nodeIiEEC2Ev = comdat any

$_ZNSt20_Rb_tree_key_compareISt4lessIiEEC2Ev = comdat any

$_ZNSt15_Rb_tree_headerC2Ev = comdat any

$_ZN9__gnu_cxx13new_allocatorISt13_Rb_tree_nodeIiEEC2Ev = comdat any

$_ZNSt15_Rb_tree_header8_M_resetEv = comdat any

$__clang_call_terminate = comdat any

$_ZNSt8_Rb_treeIiiSt9_IdentityIiESt4lessIiESaIiEED2Ev = comdat any

$_ZNSt8_Rb_treeIiiSt9_IdentityIiESt4lessIiESaIiEE8_M_eraseEPSt13_Rb_tree_nodeIiE = comdat any

$_ZNSt8_Rb_treeIiiSt9_IdentityIiESt4lessIiESaIiEE8_M_beginEv = comdat any

$_ZNSt8_Rb_treeIiiSt9_IdentityIiESt4lessIiESaIiEE13_Rb_tree_implIS3_Lb1EED2Ev = comdat any

$_ZNSt8_Rb_treeIiiSt9_IdentityIiESt4lessIiESaIiEE8_S_rightEPSt18_Rb_tree_node_base = comdat any

$_ZNSt8_Rb_treeIiiSt9_IdentityIiESt4lessIiESaIiEE7_S_leftEPSt18_Rb_tree_node_base = comdat any

$_ZNSt8_Rb_treeIiiSt9_IdentityIiESt4lessIiESaIiEE12_M_drop_nodeEPSt13_Rb_tree_nodeIiE = comdat any

$_ZNSt8_Rb_treeIiiSt9_IdentityIiESt4lessIiESaIiEE15_M_destroy_nodeEPSt13_Rb_tree_nodeIiE = comdat any

$_ZNSt8_Rb_treeIiiSt9_IdentityIiESt4lessIiESaIiEE11_M_put_nodeEPSt13_Rb_tree_nodeIiE = comdat any

$_ZNSt16allocator_traitsISaISt13_Rb_tree_nodeIiEEE7destroyIiEEvRS2_PT_ = comdat any

$_ZNSt8_Rb_treeIiiSt9_IdentityIiESt4lessIiESaIiEE21_M_get_Node_allocatorEv = comdat any

$_ZNSt13_Rb_tree_nodeIiE9_M_valptrEv = comdat any

$_ZN9__gnu_cxx13new_allocatorISt13_Rb_tree_nodeIiEE7destroyIiEEvPT_ = comdat any

$_ZN9__gnu_cxx16__aligned_membufIiE6_M_ptrEv = comdat any

$_ZN9__gnu_cxx16__aligned_membufIiE7_M_addrEv = comdat any

$_ZNSt16allocator_traitsISaISt13_Rb_tree_nodeIiEEE10deallocateERS2_PS1_m = comdat any

$_ZN9__gnu_cxx13new_allocatorISt13_Rb_tree_nodeIiEE10deallocateEPS2_m = comdat any

$_ZNSaISt13_Rb_tree_nodeIiEED2Ev = comdat any

$_ZN9__gnu_cxx13new_allocatorISt13_Rb_tree_nodeIiEED2Ev = comdat any

$_ZNSt12_Vector_baseISt6vectorI4DataSaIS1_EESaIS3_EEC2Ev = comdat any

$_ZNSt12_Vector_baseISt6vectorI4DataSaIS1_EESaIS3_EE12_Vector_implC2Ev = comdat any

$_ZNSaISt6vectorI4DataSaIS0_EEEC2Ev = comdat any

$_ZN9__gnu_cxx13new_allocatorISt6vectorI4DataSaIS2_EEEC2Ev = comdat any

$_ZSt8_DestroyIPSt6vectorI4DataSaIS1_EES3_EvT_S5_RSaIT0_E = comdat any

$_ZNSt12_Vector_baseISt6vectorI4DataSaIS1_EESaIS3_EE19_M_get_Tp_allocatorEv = comdat any

$_ZNSt12_Vector_baseISt6vectorI4DataSaIS1_EESaIS3_EED2Ev = comdat any

$_ZSt8_DestroyIPSt6vectorI4DataSaIS1_EEEvT_S5_ = comdat any

$_ZNSt12_Destroy_auxILb0EE9__destroyIPSt6vectorI4DataSaIS3_EEEEvT_S7_ = comdat any

$_ZSt8_DestroyISt6vectorI4DataSaIS1_EEEvPT_ = comdat any

$_ZSt11__addressofISt6vectorI4DataSaIS1_EEEPT_RS4_ = comdat any

$_ZNSt6vectorI4DataSaIS0_EED2Ev = comdat any

$_ZSt8_DestroyIP4DataS0_EvT_S2_RSaIT0_E = comdat any

$_ZNSt12_Vector_baseI4DataSaIS0_EE19_M_get_Tp_allocatorEv = comdat any

$_ZNSt12_Vector_baseI4DataSaIS0_EED2Ev = comdat any

$_ZSt8_DestroyIP4DataEvT_S2_ = comdat any

$_ZNSt12_Destroy_auxILb1EE9__destroyIP4DataEEvT_S4_ = comdat any

$_ZNSt12_Vector_baseI4DataSaIS0_EE13_M_deallocateEPS0_m = comdat any

$_ZNSt12_Vector_baseI4DataSaIS0_EE12_Vector_implD2Ev = comdat any

$_ZNSt16allocator_traitsISaI4DataEE10deallocateERS1_PS0_m = comdat any

$_ZN9__gnu_cxx13new_allocatorI4DataE10deallocateEPS1_m = comdat any

$_ZNSaI4DataED2Ev = comdat any

$_ZN9__gnu_cxx13new_allocatorI4DataED2Ev = comdat any

$_ZNSt12_Vector_baseISt6vectorI4DataSaIS1_EESaIS3_EE13_M_deallocateEPS3_m = comdat any

$_ZNSt12_Vector_baseISt6vectorI4DataSaIS1_EESaIS3_EE12_Vector_implD2Ev = comdat any

$_ZNSt16allocator_traitsISaISt6vectorI4DataSaIS1_EEEE10deallocateERS4_PS3_m = comdat any

$_ZN9__gnu_cxx13new_allocatorISt6vectorI4DataSaIS2_EEE10deallocateEPS4_m = comdat any

$_ZNSaISt6vectorI4DataSaIS0_EEED2Ev = comdat any

$_ZN9__gnu_cxx13new_allocatorISt6vectorI4DataSaIS2_EEED2Ev = comdat any

$_ZNSt12_Vector_baseIiSaIiEEC2Ev = comdat any

$_ZNSt12_Vector_baseIiSaIiEE12_Vector_implC2Ev = comdat any

$_ZN9__gnu_cxx13new_allocatorIiEC2Ev = comdat any

$_ZSt8_DestroyIPiiEvT_S1_RSaIT0_E = comdat any

$_ZNSt12_Vector_baseIiSaIiEE19_M_get_Tp_allocatorEv = comdat any

$_ZNSt12_Vector_baseIiSaIiEED2Ev = comdat any

$_ZSt8_DestroyIPiEvT_S1_ = comdat any

$_ZNSt12_Destroy_auxILb1EE9__destroyIPiEEvT_S3_ = comdat any

$_ZNSt12_Vector_baseIiSaIiEE13_M_deallocateEPim = comdat any

$_ZNSt12_Vector_baseIiSaIiEE12_Vector_implD2Ev = comdat any

$_ZNSt16allocator_traitsISaIiEE10deallocateERS0_Pim = comdat any

$_ZN9__gnu_cxx13new_allocatorIiE10deallocateEPim = comdat any

$_ZN9__gnu_cxx13new_allocatorIiED2Ev = comdat any

$_ZNSt16allocator_traitsISaIiEE9constructIiJRKiEEEvRS0_PT_DpOT0_ = comdat any

$_ZNSt6vectorIiSaIiEE17_M_realloc_insertIJRKiEEEvN9__gnu_cxx17__normal_iteratorIPiS1_EEDpOT_ = comdat any

$_ZNSt6vectorIiSaIiEE3endEv = comdat any

$_ZN9__gnu_cxx13new_allocatorIiE9constructIiJRKiEEEvPT_DpOT0_ = comdat any

$_ZSt7forwardIRKiEOT_RNSt16remove_referenceIS2_E4typeE = comdat any

$_ZNKSt6vectorIiSaIiEE12_M_check_lenEmPKc = comdat any

$_ZN9__gnu_cxxmiIPiSt6vectorIiSaIiEEEENS_17__normal_iteratorIT_T0_E15difference_typeERKS8_SB_ = comdat any

$_ZNSt6vectorIiSaIiEE5beginEv = comdat any

$_ZNSt12_Vector_baseIiSaIiEE11_M_allocateEm = comdat any

$_ZSt34__uninitialized_move_if_noexcept_aIPiS0_SaIiEET0_T_S3_S2_RT1_ = comdat any

$_ZNK9__gnu_cxx17__normal_iteratorIPiSt6vectorIiSaIiEEE4baseEv = comdat any

$_ZNSt16allocator_traitsISaIiEE7destroyIiEEvRS0_PT_ = comdat any

$_ZNKSt6vectorIiSaIiEE8max_sizeEv = comdat any

$_ZSt3maxImERKT_S2_S2_ = comdat any

$_ZNSt16allocator_traitsISaIiEE8max_sizeERKS0_ = comdat any

$_ZNKSt12_Vector_baseIiSaIiEE19_M_get_Tp_allocatorEv = comdat any

$_ZNK9__gnu_cxx13new_allocatorIiE8max_sizeEv = comdat any

$_ZN9__gnu_cxx17__normal_iteratorIPiSt6vectorIiSaIiEEEC2ERKS1_ = comdat any

$_ZNSt16allocator_traitsISaIiEE8allocateERS0_m = comdat any

$_ZN9__gnu_cxx13new_allocatorIiE8allocateEmPKv = comdat any

$_ZSt22__uninitialized_copy_aISt13move_iteratorIPiES1_iET0_T_S4_S3_RSaIT1_E = comdat any

$_ZSt32__make_move_if_noexcept_iteratorIiSt13move_iteratorIPiEET0_PT_ = comdat any

$_ZSt18uninitialized_copyISt13move_iteratorIPiES1_ET0_T_S4_S3_ = comdat any

$_ZNSt20__uninitialized_copyILb1EE13__uninit_copyISt13move_iteratorIPiES3_EET0_T_S6_S5_ = comdat any

$_ZSt4copyISt13move_iteratorIPiES1_ET0_T_S4_S3_ = comdat any

$_ZSt14__copy_move_a2ILb1EPiS0_ET1_T0_S2_S1_ = comdat any

$_ZSt12__miter_baseIPiEDTcl12__miter_basecldtfp_4baseEEESt13move_iteratorIT_E = comdat any

$_ZSt13__copy_move_aILb1EPiS0_ET1_T0_S2_S1_ = comdat any

$_ZSt12__niter_baseIPiET_S1_ = comdat any

$_ZNSt11__copy_moveILb1ELb1ESt26random_access_iterator_tagE8__copy_mIiEEPT_PKS3_S6_S4_ = comdat any

$_ZSt12__miter_baseIPiET_S1_ = comdat any

$_ZNKSt13move_iteratorIPiE4baseEv = comdat any

$_ZNSt13move_iteratorIPiEC2ES0_ = comdat any

$_ZN9__gnu_cxx13new_allocatorIiE7destroyIiEEvPT_ = comdat any

$_ZNSt6vectorIiSaIiEE15_M_erase_at_endEPi = comdat any

$_ZNSt8_Rb_treeIiiSt9_IdentityIiESt4lessIiESaIiEE16_M_insert_uniqueIRKiEESt4pairISt17_Rb_tree_iteratorIiEbEOT_ = comdat any

$_ZNSt4pairISt23_Rb_tree_const_iteratorIiEbEC2IRSt17_Rb_tree_iteratorIiERbLb1EEEOT_OT0_ = comdat any

$_ZNSt8_Rb_treeIiiSt9_IdentityIiESt4lessIiESaIiEE24_M_get_insert_unique_posERKi = comdat any

$_ZNKSt9_IdentityIiEclERKi = comdat any

$_ZNSt8_Rb_treeIiiSt9_IdentityIiESt4lessIiESaIiEE11_Alloc_nodeC2ERS5_ = comdat any

$_ZNSt8_Rb_treeIiiSt9_IdentityIiESt4lessIiESaIiEE10_M_insert_IRKiNS5_11_Alloc_nodeEEESt17_Rb_tree_iteratorIiEPSt18_Rb_tree_node_baseSD_OT_RT0_ = comdat any

$_ZNSt4pairISt17_Rb_tree_iteratorIiEbEC2IS1_bLb1EEEOT_OT0_ = comdat any

$_ZNSt17_Rb_tree_iteratorIiEC2EPSt18_Rb_tree_node_base = comdat any

$_ZNSt8_Rb_treeIiiSt9_IdentityIiESt4lessIiESaIiEE6_M_endEv = comdat any

$_ZNKSt4lessIiEclERKiS2_ = comdat any

$_ZNSt8_Rb_treeIiiSt9_IdentityIiESt4lessIiESaIiEE6_S_keyEPKSt13_Rb_tree_nodeIiE = comdat any

$_ZNKSt17_Rb_tree_iteratorIiEeqERKS0_ = comdat any

$_ZNSt8_Rb_treeIiiSt9_IdentityIiESt4lessIiESaIiEE5beginEv = comdat any

$_ZNSt4pairIPSt18_Rb_tree_node_baseS1_EC2IRPSt13_Rb_tree_nodeIiERS1_Lb1EEEOT_OT0_ = comdat any

$_ZNSt17_Rb_tree_iteratorIiEmmEv = comdat any

$_ZNSt8_Rb_treeIiiSt9_IdentityIiESt4lessIiESaIiEE6_S_keyEPKSt18_Rb_tree_node_base = comdat any

$_ZNSt4pairIPSt18_Rb_tree_node_baseS1_EC2IRS1_Lb1EEEOT_RKS1_ = comdat any

$_ZNKSt13_Rb_tree_nodeIiE9_M_valptrEv = comdat any

$_ZNK9__gnu_cxx16__aligned_membufIiE6_M_ptrEv = comdat any

$_ZNK9__gnu_cxx16__aligned_membufIiE7_M_addrEv = comdat any

$_ZSt7forwardIRPSt13_Rb_tree_nodeIiEEOT_RNSt16remove_referenceIS4_E4typeE = comdat any

$_ZSt7forwardIRPSt18_Rb_tree_node_baseEOT_RNSt16remove_referenceIS3_E4typeE = comdat any

$_ZNKSt8_Rb_treeIiiSt9_IdentityIiESt4lessIiESaIiEE11_Alloc_nodeclIRKiEEPSt13_Rb_tree_nodeIiEOT_ = comdat any

$_ZNSt8_Rb_treeIiiSt9_IdentityIiESt4lessIiESaIiEE14_M_create_nodeIJRKiEEEPSt13_Rb_tree_nodeIiEDpOT_ = comdat any

$_ZNSt8_Rb_treeIiiSt9_IdentityIiESt4lessIiESaIiEE11_M_get_nodeEv = comdat any

$_ZNSt8_Rb_treeIiiSt9_IdentityIiESt4lessIiESaIiEE17_M_construct_nodeIJRKiEEEvPSt13_Rb_tree_nodeIiEDpOT_ = comdat any

$_ZNSt16allocator_traitsISaISt13_Rb_tree_nodeIiEEE8allocateERS2_m = comdat any

$_ZN9__gnu_cxx13new_allocatorISt13_Rb_tree_nodeIiEE8allocateEmPKv = comdat any

$_ZNK9__gnu_cxx13new_allocatorISt13_Rb_tree_nodeIiEE8max_sizeEv = comdat any

$_ZNSt16allocator_traitsISaISt13_Rb_tree_nodeIiEEE9constructIiJRKiEEEvRS2_PT_DpOT0_ = comdat any

$_ZN9__gnu_cxx13new_allocatorISt13_Rb_tree_nodeIiEE9constructIiJRKiEEEvPT_DpOT0_ = comdat any

$_ZSt7forwardISt17_Rb_tree_iteratorIiEEOT_RNSt16remove_referenceIS2_E4typeE = comdat any

$_ZSt7forwardIbEOT_RNSt16remove_referenceIS0_E4typeE = comdat any

$_ZSt7forwardIRSt17_Rb_tree_iteratorIiEEOT_RNSt16remove_referenceIS3_E4typeE = comdat any

$_ZNSt23_Rb_tree_const_iteratorIiEC2ERKSt17_Rb_tree_iteratorIiE = comdat any

$_ZSt7forwardIRbEOT_RNSt16remove_referenceIS1_E4typeE = comdat any

$_ZNSt6vectorIS_I4DataSaIS0_EESaIS2_EE15_M_erase_at_endEPS2_ = comdat any

$_ZNKSt6vectorIS_I4DataSaIS0_EESaIS2_EE4sizeEv = comdat any

$_ZNSt6vectorIS_I4DataSaIS0_EESaIS2_EE17_M_default_appendEm = comdat any

$_ZNKSt6vectorIS_I4DataSaIS0_EESaIS2_EE8max_sizeEv = comdat any

$_ZSt27__uninitialized_default_n_aIPSt6vectorI4DataSaIS1_EEmS3_ET_S5_T0_RSaIT1_E = comdat any

$_ZNKSt6vectorIS_I4DataSaIS0_EESaIS2_EE12_M_check_lenEmPKc = comdat any

$_ZNSt12_Vector_baseISt6vectorI4DataSaIS1_EESaIS3_EE11_M_allocateEm = comdat any

$_ZSt34__uninitialized_move_if_noexcept_aIPSt6vectorI4DataSaIS1_EES4_SaIS3_EET0_T_S7_S6_RT1_ = comdat any

$_ZNSt16allocator_traitsISaISt6vectorI4DataSaIS1_EEEE8max_sizeERKS4_ = comdat any

$_ZNKSt12_Vector_baseISt6vectorI4DataSaIS1_EESaIS3_EE19_M_get_Tp_allocatorEv = comdat any

$_ZNK9__gnu_cxx13new_allocatorISt6vectorI4DataSaIS2_EEE8max_sizeEv = comdat any

$_ZSt25__uninitialized_default_nIPSt6vectorI4DataSaIS1_EEmET_S5_T0_ = comdat any

$_ZNSt27__uninitialized_default_n_1ILb0EE18__uninit_default_nIPSt6vectorI4DataSaIS3_EEmEET_S7_T0_ = comdat any

$_ZSt10_ConstructISt6vectorI4DataSaIS1_EEJEEvPT_DpOT0_ = comdat any

$_ZNSt6vectorI4DataSaIS0_EEC2Ev = comdat any

$_ZNSt12_Vector_baseI4DataSaIS0_EEC2Ev = comdat any

$_ZNSt12_Vector_baseI4DataSaIS0_EE12_Vector_implC2Ev = comdat any

$_ZNSaI4DataEC2Ev = comdat any

$_ZN9__gnu_cxx13new_allocatorI4DataEC2Ev = comdat any

$_ZNSt16allocator_traitsISaISt6vectorI4DataSaIS1_EEEE8allocateERS4_m = comdat any

$_ZN9__gnu_cxx13new_allocatorISt6vectorI4DataSaIS2_EEE8allocateEmPKv = comdat any

$_ZSt22__uninitialized_copy_aISt13move_iteratorIPSt6vectorI4DataSaIS2_EEES5_S4_ET0_T_S8_S7_RSaIT1_E = comdat any

$_ZSt32__make_move_if_noexcept_iteratorISt6vectorI4DataSaIS1_EESt13move_iteratorIPS3_EET0_PT_ = comdat any

$_ZSt18uninitialized_copyISt13move_iteratorIPSt6vectorI4DataSaIS2_EEES5_ET0_T_S8_S7_ = comdat any

$_ZNSt20__uninitialized_copyILb0EE13__uninit_copyISt13move_iteratorIPSt6vectorI4DataSaIS4_EEES7_EET0_T_SA_S9_ = comdat any

$_ZStneIPSt6vectorI4DataSaIS1_EEEbRKSt13move_iteratorIT_ES9_ = comdat any

$_ZSt10_ConstructISt6vectorI4DataSaIS1_EEJS3_EEvPT_DpOT0_ = comdat any

$_ZNKSt13move_iteratorIPSt6vectorI4DataSaIS1_EEEdeEv = comdat any

$_ZNSt13move_iteratorIPSt6vectorI4DataSaIS1_EEEppEv = comdat any

$_ZSteqIPSt6vectorI4DataSaIS1_EEEbRKSt13move_iteratorIT_ES9_ = comdat any

$_ZNKSt13move_iteratorIPSt6vectorI4DataSaIS1_EEE4baseEv = comdat any

$_ZSt7forwardISt6vectorI4DataSaIS1_EEEOT_RNSt16remove_referenceIS4_E4typeE = comdat any

$_ZNSt6vectorI4DataSaIS0_EEC2EOS2_ = comdat any

$_ZSt4moveIRSt6vectorI4DataSaIS1_EEEONSt16remove_referenceIT_E4typeEOS6_ = comdat any

$_ZNSt12_Vector_baseI4DataSaIS0_EEC2EOS2_ = comdat any

$_ZSt4moveIRSaI4DataEEONSt16remove_referenceIT_E4typeEOS4_ = comdat any

$_ZNSt12_Vector_baseI4DataSaIS0_EE12_Vector_implC2EOS1_ = comdat any

$_ZNSt12_Vector_baseI4DataSaIS0_EE12_Vector_impl12_M_swap_dataERS3_ = comdat any

$_ZNSaI4DataEC2ERKS0_ = comdat any

$_ZN9__gnu_cxx13new_allocatorI4DataEC2ERKS2_ = comdat any

$_ZSt4swapIP4DataENSt9enable_ifIXsr6__and_ISt6__not_ISt15__is_tuple_likeIT_EESt21is_move_constructibleIS5_ESt18is_move_assignableIS5_EEE5valueEvE4typeERS5_SE_ = comdat any

$_ZSt4moveIRP4DataEONSt16remove_referenceIT_E4typeEOS4_ = comdat any

$_ZNSt13move_iteratorIPSt6vectorI4DataSaIS1_EEEC2ES4_ = comdat any

$_ZNKSt8_Rb_treeIiiSt9_IdentityIiESt4lessIiESaIiEE5beginEv = comdat any

$_ZNSt23_Rb_tree_const_iteratorIiEC2EPKSt18_Rb_tree_node_base = comdat any

$_ZNKSt8_Rb_treeIiiSt9_IdentityIiESt4lessIiESaIiEE3endEv = comdat any

$_ZNSt6vectorI4DataSaIS0_EE12emplace_backIJS0_EEEvDpOT_ = comdat any

$_ZSt4moveIR4DataEONSt16remove_referenceIT_E4typeEOS3_ = comdat any

$_ZNSt16allocator_traitsISaI4DataEE9constructIS0_JS0_EEEvRS1_PT_DpOT0_ = comdat any

$_ZSt7forwardI4DataEOT_RNSt16remove_referenceIS1_E4typeE = comdat any

$_ZNSt6vectorI4DataSaIS0_EE17_M_realloc_insertIJS0_EEEvN9__gnu_cxx17__normal_iteratorIPS0_S2_EEDpOT_ = comdat any

$_ZNSt6vectorI4DataSaIS0_EE3endEv = comdat any

$_ZN9__gnu_cxx13new_allocatorI4DataE9constructIS1_JS1_EEEvPT_DpOT0_ = comdat any

$_ZNKSt6vectorI4DataSaIS0_EE12_M_check_lenEmPKc = comdat any

$_ZN9__gnu_cxxmiIP4DataSt6vectorIS1_SaIS1_EEEENS_17__normal_iteratorIT_T0_E15difference_typeERKS9_SC_ = comdat any

$_ZNSt6vectorI4DataSaIS0_EE5beginEv = comdat any

$_ZNSt12_Vector_baseI4DataSaIS0_EE11_M_allocateEm = comdat any

$_ZSt34__uninitialized_move_if_noexcept_aIP4DataS1_SaIS0_EET0_T_S4_S3_RT1_ = comdat any

$_ZNK9__gnu_cxx17__normal_iteratorIP4DataSt6vectorIS1_SaIS1_EEE4baseEv = comdat any

$_ZNSt16allocator_traitsISaI4DataEE7destroyIS0_EEvRS1_PT_ = comdat any

$_ZNKSt6vectorI4DataSaIS0_EE8max_sizeEv = comdat any

$_ZNSt16allocator_traitsISaI4DataEE8max_sizeERKS1_ = comdat any

$_ZNKSt12_Vector_baseI4DataSaIS0_EE19_M_get_Tp_allocatorEv = comdat any

$_ZNK9__gnu_cxx13new_allocatorI4DataE8max_sizeEv = comdat any

$_ZN9__gnu_cxx17__normal_iteratorIP4DataSt6vectorIS1_SaIS1_EEEC2ERKS2_ = comdat any

$_ZNSt16allocator_traitsISaI4DataEE8allocateERS1_m = comdat any

$_ZN9__gnu_cxx13new_allocatorI4DataE8allocateEmPKv = comdat any

$_ZSt22__uninitialized_copy_aISt13move_iteratorIP4DataES2_S1_ET0_T_S5_S4_RSaIT1_E = comdat any

$_ZSt32__make_move_if_noexcept_iteratorI4DataSt13move_iteratorIPS0_EET0_PT_ = comdat any

$_ZSt18uninitialized_copyISt13move_iteratorIP4DataES2_ET0_T_S5_S4_ = comdat any

$_ZNSt20__uninitialized_copyILb0EE13__uninit_copyISt13move_iteratorIP4DataES4_EET0_T_S7_S6_ = comdat any

$_ZStneIP4DataEbRKSt13move_iteratorIT_ES6_ = comdat any

$_ZSt10_ConstructI4DataJS0_EEvPT_DpOT0_ = comdat any

$_ZSt11__addressofI4DataEPT_RS1_ = comdat any

$_ZNKSt13move_iteratorIP4DataEdeEv = comdat any

$_ZNSt13move_iteratorIP4DataEppEv = comdat any

$_ZSteqIP4DataEbRKSt13move_iteratorIT_ES6_ = comdat any

$_ZNKSt13move_iteratorIP4DataE4baseEv = comdat any

$_ZNSt13move_iteratorIP4DataEC2ES1_ = comdat any

$_ZN9__gnu_cxx13new_allocatorI4DataE7destroyIS1_EEvPT_ = comdat any

$_ZNSaIiEC2Ev = comdat any

$_ZNSt6vectorIiSaIiEEC2EmRKS0_ = comdat any

$_ZNSaIiED2Ev = comdat any

$_Z5visitISt6vectorIS0_I4DataSaIS1_EESaIS3_EEEbRKT_iRS0_IiSaIiEESB_ = comdat any

$_ZSt7reverseIN9__gnu_cxx17__normal_iteratorIPiSt6vectorIiSaIiEEEEEvT_S7_ = comdat any

$_ZNSt12_Vector_baseIiSaIiEEC2EmRKS0_ = comdat any

$_ZNSt6vectorIiSaIiEE21_M_default_initializeEm = comdat any

$_ZNSt12_Vector_baseIiSaIiEE12_Vector_implC2ERKS0_ = comdat any

$_ZNSt12_Vector_baseIiSaIiEE17_M_create_storageEm = comdat any

$_ZNSaIiEC2ERKS_ = comdat any

$_ZN9__gnu_cxx13new_allocatorIiEC2ERKS1_ = comdat any

$_ZSt27__uninitialized_default_n_aIPimiET_S1_T0_RSaIT1_E = comdat any

$_ZSt25__uninitialized_default_nIPimET_S1_T0_ = comdat any

$_ZNSt27__uninitialized_default_n_1ILb1EE18__uninit_default_nIPimEET_S3_T0_ = comdat any

$_ZSt6fill_nIPimiET_S1_T0_RKT1_ = comdat any

$_ZSt10__fill_n_aIPimiEN9__gnu_cxx11__enable_ifIXsr11__is_scalarIT1_EE7__valueET_E6__typeES4_T0_RKS3_ = comdat any

$_ZNKSt6vectorIS_I4DataSaIS0_EESaIS2_EEixEm = comdat any

$_ZNKSt6vectorI4DataSaIS0_EE5beginEv = comdat any

$_ZN9__gnu_cxxneIPK4DataSt6vectorIS1_SaIS1_EEEEbRKNS_17__normal_iteratorIT_T0_EESC_ = comdat any

$_ZNKSt6vectorI4DataSaIS0_EE3endEv = comdat any

$_ZNK9__gnu_cxx17__normal_iteratorIPK4DataSt6vectorIS1_SaIS1_EEEptEv = comdat any

$_ZN9__gnu_cxx17__normal_iteratorIPK4DataSt6vectorIS1_SaIS1_EEEppEi = comdat any

$_ZN9__gnu_cxx17__normal_iteratorIPK4DataSt6vectorIS1_SaIS1_EEEC2ERKS3_ = comdat any

$_ZNK9__gnu_cxx17__normal_iteratorIPK4DataSt6vectorIS1_SaIS1_EEE4baseEv = comdat any

$_ZSt9__reverseIN9__gnu_cxx17__normal_iteratorIPiSt6vectorIiSaIiEEEEEvT_S7_St26random_access_iterator_tag = comdat any

$_ZSt19__iterator_categoryIN9__gnu_cxx17__normal_iteratorIPiSt6vectorIiSaIiEEEEENSt15iterator_traitsIT_E17iterator_categoryERKS8_ = comdat any

$_ZN9__gnu_cxxeqIPiSt6vectorIiSaIiEEEEbRKNS_17__normal_iteratorIT_T0_EESA_ = comdat any

$_ZN9__gnu_cxx17__normal_iteratorIPiSt6vectorIiSaIiEEEmmEv = comdat any

$_ZN9__gnu_cxxltIPiSt6vectorIiSaIiEEEEbRKNS_17__normal_iteratorIT_T0_EESA_ = comdat any

$_ZSt9iter_swapIN9__gnu_cxx17__normal_iteratorIPiSt6vectorIiSaIiEEEES6_EvT_T0_ = comdat any

$_ZN9__gnu_cxx17__normal_iteratorIPiSt6vectorIiSaIiEEEppEv = comdat any

$_ZSt4swapIiENSt9enable_ifIXsr6__and_ISt6__not_ISt15__is_tuple_likeIT_EESt21is_move_constructibleIS3_ESt18is_move_assignableIS3_EEE5valueEvE4typeERS3_SC_ = comdat any

$_ZNK9__gnu_cxx17__normal_iteratorIPiSt6vectorIiSaIiEEEdeEv = comdat any

$_ZSt4moveIRiEONSt16remove_referenceIT_E4typeEOS2_ = comdat any

$_ZN9__gnu_cxxeqIPK4DataSt6vectorIS1_SaIS1_EEEEbRKNS_17__normal_iteratorIT_T0_EESC_ = comdat any

@_ZStL8__ioinit = internal global %"class.std::ios_base::Init" zeroinitializer, align 1
@__dso_handle = external hidden global i8
@V = global i32 0, align 4
@E = global i32 0, align 4
@S = global i32 0, align 4
@D = global i32 0, align 4
@tmp_G = global %"class.std::vector" zeroinitializer, align 8
@tmp_rG = global %"class.std::vector" zeroinitializer, align 8
@G = global [2000 x %"class.std::vector.1"] zeroinitializer, align 16
@rG = global [2000 x %"class.std::vector.1"] zeroinitializer, align 16
@vs = global %"class.std::vector.1" zeroinitializer, align 8
@used = global [2000 x i8] zeroinitializer, align 16
@cmp = global [2000 x i32] zeroinitializer, align 16
@dp = global [2000 x i64] zeroinitializer, align 16
@_ZSt3cin = external global %"class.std::basic_istream", align 8
@.str = private unnamed_addr constant [17 x i8] c"1 <= S && S <= V\00", align 1
@.str.7 = private unnamed_addr constant [71 x i8] c"/home/pedro/tcc/exDataset/codenet/data/selection/p01339/s338896753.cpp\00", align 1
@__PRETTY_FUNCTION__.main = private unnamed_addr constant [11 x i8] c"int main()\00", align 1
@.str.8 = private unnamed_addr constant [17 x i8] c"1 <= D && D <= V\00", align 1
@.str.9 = private unnamed_addr constant [15 x i8] c"dp[prev] != -1\00", align 1
@.str.10 = private unnamed_addr constant [14 x i8] c"dp[cur] == -1\00", align 1
@_ZSt4cout = external global %"class.std::basic_ostream", align 8
@.str.11 = private unnamed_addr constant [26 x i8] c"vector::_M_realloc_insert\00", align 1
@.str.12 = private unnamed_addr constant [26 x i8] c"vector::_M_default_append\00", align 1
@llvm.global_ctors = appending global [1 x { i32, void ()*, i8* }] [{ i32, void ()*, i8* } { i32 65535, void ()* @_GLOBAL__sub_I_s338896753.cpp, i8* null }]

; Function Attrs: noinline uwtable
define internal void @__cxx_global_var_init() #0 section ".text.startup" {
  call void @_ZNSt8ios_base4InitC1Ev(%"class.std::ios_base::Init"* @_ZStL8__ioinit)
  %1 = call i32 @__cxa_atexit(void (i8*)* bitcast (void (%"class.std::ios_base::Init"*)* @_ZNSt8ios_base4InitD1Ev to void (i8*)*), i8* getelementptr inbounds (%"class.std::ios_base::Init", %"class.std::ios_base::Init"* @_ZStL8__ioinit, i32 0, i32 0), i8* @__dso_handle) #3
  ret void
}

declare void @_ZNSt8ios_base4InitC1Ev(%"class.std::ios_base::Init"*) unnamed_addr #1

; Function Attrs: nounwind
declare void @_ZNSt8ios_base4InitD1Ev(%"class.std::ios_base::Init"*) unnamed_addr #2

; Function Attrs: nounwind
declare i32 @__cxa_atexit(void (i8*)*, i8*, i8*) #3

; Function Attrs: noinline uwtable
define internal void @__cxx_global_var_init.1() #0 section ".text.startup" {
  call void @_ZNSt6vectorIS_I4DataSaIS0_EESaIS2_EEC2Ev(%"class.std::vector"* @tmp_G) #3
  %1 = call i32 @__cxa_atexit(void (i8*)* bitcast (void (%"class.std::vector"*)* @_ZNSt6vectorIS_I4DataSaIS0_EESaIS2_EED2Ev to void (i8*)*), i8* bitcast (%"class.std::vector"* @tmp_G to i8*), i8* @__dso_handle) #3
  ret void
}

; Function Attrs: noinline nounwind uwtable
define linkonce_odr void @_ZNSt6vectorIS_I4DataSaIS0_EESaIS2_EEC2Ev(%"class.std::vector"* %0) unnamed_addr #4 comdat align 2 personality i8* bitcast (i32 (...)* @__gxx_personality_v0 to i8*) {
  %2 = bitcast %"class.std::vector"* %0 to %"struct.std::_Vector_base"*
  invoke void @_ZNSt12_Vector_baseISt6vectorI4DataSaIS1_EESaIS3_EEC2Ev(%"struct.std::_Vector_base"* %2)
          to label %3 unwind label %4

3:                                                ; preds = %1
  ret void

4:                                                ; preds = %1
  %5 = landingpad { i8*, i32 }
          catch i8* null
  %6 = extractvalue { i8*, i32 } %5, 0
  call void @__clang_call_terminate(i8* %6) #16
  unreachable
}

; Function Attrs: noinline nounwind uwtable
define linkonce_odr void @_ZNSt6vectorIS_I4DataSaIS0_EESaIS2_EED2Ev(%"class.std::vector"* %0) unnamed_addr #4 comdat align 2 personality i8* bitcast (i32 (...)* @__gxx_personality_v0 to i8*) {
  %2 = bitcast %"class.std::vector"* %0 to %"struct.std::_Vector_base"*
  %3 = getelementptr inbounds %"struct.std::_Vector_base", %"struct.std::_Vector_base"* %2, i32 0, i32 0
  %4 = getelementptr inbounds %"struct.std::_Vector_base<std::vector<Data, std::allocator<Data> >, std::allocator<std::vector<Data, std::allocator<Data> > > >::_Vector_impl", %"struct.std::_Vector_base<std::vector<Data, std::allocator<Data> >, std::allocator<std::vector<Data, std::allocator<Data> > > >::_Vector_impl"* %3, i32 0, i32 0
  %5 = load %"class.std::vector.0"*, %"class.std::vector.0"** %4, align 8
  %6 = bitcast %"class.std::vector"* %0 to %"struct.std::_Vector_base"*
  %7 = getelementptr inbounds %"struct.std::_Vector_base", %"struct.std::_Vector_base"* %6, i32 0, i32 0
  %8 = getelementptr inbounds %"struct.std::_Vector_base<std::vector<Data, std::allocator<Data> >, std::allocator<std::vector<Data, std::allocator<Data> > > >::_Vector_impl", %"struct.std::_Vector_base<std::vector<Data, std::allocator<Data> >, std::allocator<std::vector<Data, std::allocator<Data> > > >::_Vector_impl"* %7, i32 0, i32 1
  %9 = load %"class.std::vector.0"*, %"class.std::vector.0"** %8, align 8
  %10 = bitcast %"class.std::vector"* %0 to %"struct.std::_Vector_base"*
  %11 = call dereferenceable(1) %"class.std::allocator"* @_ZNSt12_Vector_baseISt6vectorI4DataSaIS1_EESaIS3_EE19_M_get_Tp_allocatorEv(%"struct.std::_Vector_base"* %10) #3
  invoke void @_ZSt8_DestroyIPSt6vectorI4DataSaIS1_EES3_EvT_S5_RSaIT0_E(%"class.std::vector.0"* %5, %"class.std::vector.0"* %9, %"class.std::allocator"* dereferenceable(1) %11)
          to label %12 unwind label %14

12:                                               ; preds = %1
  %13 = bitcast %"class.std::vector"* %0 to %"struct.std::_Vector_base"*
  call void @_ZNSt12_Vector_baseISt6vectorI4DataSaIS1_EESaIS3_EED2Ev(%"struct.std::_Vector_base"* %13) #3
  ret void

14:                                               ; preds = %1
  %15 = landingpad { i8*, i32 }
          catch i8* null
  %16 = extractvalue { i8*, i32 } %15, 0
  %17 = extractvalue { i8*, i32 } %15, 1
  %18 = bitcast %"class.std::vector"* %0 to %"struct.std::_Vector_base"*
  call void @_ZNSt12_Vector_baseISt6vectorI4DataSaIS1_EESaIS3_EED2Ev(%"struct.std::_Vector_base"* %18) #3
  br label %19

19:                                               ; preds = %14
  call void @__clang_call_terminate(i8* %16) #16
  unreachable
}

; Function Attrs: noinline uwtable
define internal void @__cxx_global_var_init.2() #0 section ".text.startup" {
  call void @_ZNSt6vectorIS_I4DataSaIS0_EESaIS2_EEC2Ev(%"class.std::vector"* @tmp_rG) #3
  %1 = call i32 @__cxa_atexit(void (i8*)* bitcast (void (%"class.std::vector"*)* @_ZNSt6vectorIS_I4DataSaIS0_EESaIS2_EED2Ev to void (i8*)*), i8* bitcast (%"class.std::vector"* @tmp_rG to i8*), i8* @__dso_handle) #3
  ret void
}

; Function Attrs: noinline uwtable
define internal void @__cxx_global_var_init.3() #0 section ".text.startup" {
  br label %1

1:                                                ; preds = %1, %0
  %2 = phi %"class.std::vector.1"* [ getelementptr inbounds ([2000 x %"class.std::vector.1"], [2000 x %"class.std::vector.1"]* @G, i32 0, i32 0), %0 ], [ %3, %1 ]
  call void @_ZNSt6vectorIiSaIiEEC2Ev(%"class.std::vector.1"* %2) #3
  %3 = getelementptr inbounds %"class.std::vector.1", %"class.std::vector.1"* %2, i64 1
  %4 = icmp eq %"class.std::vector.1"* %3, getelementptr inbounds ([2000 x %"class.std::vector.1"], [2000 x %"class.std::vector.1"]* @G, i64 1, i64 0)
  br i1 %4, label %5, label %1

5:                                                ; preds = %1
  %6 = call i32 @__cxa_atexit(void (i8*)* @__cxx_global_array_dtor, i8* null, i8* @__dso_handle) #3
  ret void
}

; Function Attrs: noinline nounwind uwtable
define linkonce_odr void @_ZNSt6vectorIiSaIiEEC2Ev(%"class.std::vector.1"* %0) unnamed_addr #4 comdat align 2 personality i8* bitcast (i32 (...)* @__gxx_personality_v0 to i8*) {
  %2 = bitcast %"class.std::vector.1"* %0 to %"struct.std::_Vector_base.2"*
  invoke void @_ZNSt12_Vector_baseIiSaIiEEC2Ev(%"struct.std::_Vector_base.2"* %2)
          to label %3 unwind label %4

3:                                                ; preds = %1
  ret void

4:                                                ; preds = %1
  %5 = landingpad { i8*, i32 }
          catch i8* null
  %6 = extractvalue { i8*, i32 } %5, 0
  call void @__clang_call_terminate(i8* %6) #16
  unreachable
}

; Function Attrs: noinline uwtable
define internal void @__cxx_global_array_dtor(i8* %0) #0 section ".text.startup" {
  br label %2

2:                                                ; preds = %2, %1
  %3 = phi %"class.std::vector.1"* [ getelementptr inbounds ([2000 x %"class.std::vector.1"], [2000 x %"class.std::vector.1"]* @G, i64 1, i64 0), %1 ], [ %4, %2 ]
  %4 = getelementptr inbounds %"class.std::vector.1", %"class.std::vector.1"* %3, i64 -1
  call void @_ZNSt6vectorIiSaIiEED2Ev(%"class.std::vector.1"* %4) #3
  %5 = icmp eq %"class.std::vector.1"* %4, getelementptr inbounds ([2000 x %"class.std::vector.1"], [2000 x %"class.std::vector.1"]* @G, i32 0, i32 0)
  br i1 %5, label %6, label %2

6:                                                ; preds = %2
  ret void
}

; Function Attrs: noinline nounwind uwtable
define linkonce_odr void @_ZNSt6vectorIiSaIiEED2Ev(%"class.std::vector.1"* %0) unnamed_addr #4 comdat align 2 personality i8* bitcast (i32 (...)* @__gxx_personality_v0 to i8*) {
  %2 = bitcast %"class.std::vector.1"* %0 to %"struct.std::_Vector_base.2"*
  %3 = getelementptr inbounds %"struct.std::_Vector_base.2", %"struct.std::_Vector_base.2"* %2, i32 0, i32 0
  %4 = getelementptr inbounds %"struct.std::_Vector_base<int, std::allocator<int> >::_Vector_impl", %"struct.std::_Vector_base<int, std::allocator<int> >::_Vector_impl"* %3, i32 0, i32 0
  %5 = load i32*, i32** %4, align 8
  %6 = bitcast %"class.std::vector.1"* %0 to %"struct.std::_Vector_base.2"*
  %7 = getelementptr inbounds %"struct.std::_Vector_base.2", %"struct.std::_Vector_base.2"* %6, i32 0, i32 0
  %8 = getelementptr inbounds %"struct.std::_Vector_base<int, std::allocator<int> >::_Vector_impl", %"struct.std::_Vector_base<int, std::allocator<int> >::_Vector_impl"* %7, i32 0, i32 1
  %9 = load i32*, i32** %8, align 8
  %10 = bitcast %"class.std::vector.1"* %0 to %"struct.std::_Vector_base.2"*
  %11 = call dereferenceable(1) %"class.std::allocator.3"* @_ZNSt12_Vector_baseIiSaIiEE19_M_get_Tp_allocatorEv(%"struct.std::_Vector_base.2"* %10) #3
  invoke void @_ZSt8_DestroyIPiiEvT_S1_RSaIT0_E(i32* %5, i32* %9, %"class.std::allocator.3"* dereferenceable(1) %11)
          to label %12 unwind label %14

12:                                               ; preds = %1
  %13 = bitcast %"class.std::vector.1"* %0 to %"struct.std::_Vector_base.2"*
  call void @_ZNSt12_Vector_baseIiSaIiEED2Ev(%"struct.std::_Vector_base.2"* %13) #3
  ret void

14:                                               ; preds = %1
  %15 = landingpad { i8*, i32 }
          catch i8* null
  %16 = extractvalue { i8*, i32 } %15, 0
  %17 = extractvalue { i8*, i32 } %15, 1
  %18 = bitcast %"class.std::vector.1"* %0 to %"struct.std::_Vector_base.2"*
  call void @_ZNSt12_Vector_baseIiSaIiEED2Ev(%"struct.std::_Vector_base.2"* %18) #3
  br label %19

19:                                               ; preds = %14
  call void @__clang_call_terminate(i8* %16) #16
  unreachable
}

; Function Attrs: noinline uwtable
define internal void @__cxx_global_var_init.4() #0 section ".text.startup" {
  br label %1

1:                                                ; preds = %1, %0
  %2 = phi %"class.std::vector.1"* [ getelementptr inbounds ([2000 x %"class.std::vector.1"], [2000 x %"class.std::vector.1"]* @rG, i32 0, i32 0), %0 ], [ %3, %1 ]
  call void @_ZNSt6vectorIiSaIiEEC2Ev(%"class.std::vector.1"* %2) #3
  %3 = getelementptr inbounds %"class.std::vector.1", %"class.std::vector.1"* %2, i64 1
  %4 = icmp eq %"class.std::vector.1"* %3, getelementptr inbounds ([2000 x %"class.std::vector.1"], [2000 x %"class.std::vector.1"]* @rG, i64 1, i64 0)
  br i1 %4, label %5, label %1

5:                                                ; preds = %1
  %6 = call i32 @__cxa_atexit(void (i8*)* @__cxx_global_array_dtor.5, i8* null, i8* @__dso_handle) #3
  ret void
}

; Function Attrs: noinline uwtable
define internal void @__cxx_global_array_dtor.5(i8* %0) #0 section ".text.startup" {
  br label %2

2:                                                ; preds = %2, %1
  %3 = phi %"class.std::vector.1"* [ getelementptr inbounds ([2000 x %"class.std::vector.1"], [2000 x %"class.std::vector.1"]* @rG, i64 1, i64 0), %1 ], [ %4, %2 ]
  %4 = getelementptr inbounds %"class.std::vector.1", %"class.std::vector.1"* %3, i64 -1
  call void @_ZNSt6vectorIiSaIiEED2Ev(%"class.std::vector.1"* %4) #3
  %5 = icmp eq %"class.std::vector.1"* %4, getelementptr inbounds ([2000 x %"class.std::vector.1"], [2000 x %"class.std::vector.1"]* @rG, i32 0, i32 0)
  br i1 %5, label %6, label %2

6:                                                ; preds = %2
  ret void
}

; Function Attrs: noinline uwtable
define internal void @__cxx_global_var_init.6() #0 section ".text.startup" {
  call void @_ZNSt6vectorIiSaIiEEC2Ev(%"class.std::vector.1"* @vs) #3
  %1 = call i32 @__cxa_atexit(void (i8*)* bitcast (void (%"class.std::vector.1"*)* @_ZNSt6vectorIiSaIiEED2Ev to void (i8*)*), i8* bitcast (%"class.std::vector.1"* @vs to i8*), i8* @__dso_handle) #3
  ret void
}

; Function Attrs: noinline uwtable
define void @_Z3dfsi(i32 %0) #0 {
  %2 = alloca i32, align 4
  store i32 %0, i32* %2, align 4
  %3 = load i32, i32* %2, align 4
  %4 = sext i32 %3 to i64
  %5 = getelementptr inbounds [2000 x i8], [2000 x i8]* @used, i64 0, i64 %4
  store i8 1, i8* %5, align 1
  br label %6

6:                                                ; preds = %32, %1
  %.0 = phi i32 [ 0, %1 ], [ %33, %32 ]
  %7 = sext i32 %.0 to i64
  %8 = load i32, i32* %2, align 4
  %9 = sext i32 %8 to i64
  %10 = getelementptr inbounds [2000 x %"class.std::vector.1"], [2000 x %"class.std::vector.1"]* @G, i64 0, i64 %9
  %11 = call i64 @_ZNKSt6vectorIiSaIiEE4sizeEv(%"class.std::vector.1"* %10) #3
  %12 = icmp ult i64 %7, %11
  br i1 %12, label %13, label %34

13:                                               ; preds = %6
  %14 = load i32, i32* %2, align 4
  %15 = sext i32 %14 to i64
  %16 = getelementptr inbounds [2000 x %"class.std::vector.1"], [2000 x %"class.std::vector.1"]* @G, i64 0, i64 %15
  %17 = sext i32 %.0 to i64
  %18 = call dereferenceable(4) i32* @_ZNSt6vectorIiSaIiEEixEm(%"class.std::vector.1"* %16, i64 %17) #3
  %19 = load i32, i32* %18, align 4
  %20 = sext i32 %19 to i64
  %21 = getelementptr inbounds [2000 x i8], [2000 x i8]* @used, i64 0, i64 %20
  %22 = load i8, i8* %21, align 1
  %23 = trunc i8 %22 to i1
  br i1 %23, label %31, label %24

24:                                               ; preds = %13
  %25 = load i32, i32* %2, align 4
  %26 = sext i32 %25 to i64
  %27 = getelementptr inbounds [2000 x %"class.std::vector.1"], [2000 x %"class.std::vector.1"]* @G, i64 0, i64 %26
  %28 = sext i32 %.0 to i64
  %29 = call dereferenceable(4) i32* @_ZNSt6vectorIiSaIiEEixEm(%"class.std::vector.1"* %27, i64 %28) #3
  %30 = load i32, i32* %29, align 4
  call void @_Z3dfsi(i32 %30)
  br label %31

31:                                               ; preds = %24, %13
  br label %32

32:                                               ; preds = %31
  %33 = add nsw i32 %.0, 1
  br label %6

34:                                               ; preds = %6
  call void @_ZNSt6vectorIiSaIiEE9push_backERKi(%"class.std::vector.1"* @vs, i32* dereferenceable(4) %2)
  ret void
}

; Function Attrs: noinline nounwind uwtable
define linkonce_odr i64 @_ZNKSt6vectorIiSaIiEE4sizeEv(%"class.std::vector.1"* %0) #4 comdat align 2 {
  %2 = bitcast %"class.std::vector.1"* %0 to %"struct.std::_Vector_base.2"*
  %3 = getelementptr inbounds %"struct.std::_Vector_base.2", %"struct.std::_Vector_base.2"* %2, i32 0, i32 0
  %4 = getelementptr inbounds %"struct.std::_Vector_base<int, std::allocator<int> >::_Vector_impl", %"struct.std::_Vector_base<int, std::allocator<int> >::_Vector_impl"* %3, i32 0, i32 1
  %5 = load i32*, i32** %4, align 8
  %6 = bitcast %"class.std::vector.1"* %0 to %"struct.std::_Vector_base.2"*
  %7 = getelementptr inbounds %"struct.std::_Vector_base.2", %"struct.std::_Vector_base.2"* %6, i32 0, i32 0
  %8 = getelementptr inbounds %"struct.std::_Vector_base<int, std::allocator<int> >::_Vector_impl", %"struct.std::_Vector_base<int, std::allocator<int> >::_Vector_impl"* %7, i32 0, i32 0
  %9 = load i32*, i32** %8, align 8
  %10 = ptrtoint i32* %5 to i64
  %11 = ptrtoint i32* %9 to i64
  %12 = sub i64 %10, %11
  %13 = sdiv exact i64 %12, 4
  ret i64 %13
}

; Function Attrs: noinline nounwind uwtable
define linkonce_odr dereferenceable(4) i32* @_ZNSt6vectorIiSaIiEEixEm(%"class.std::vector.1"* %0, i64 %1) #4 comdat align 2 {
  %3 = bitcast %"class.std::vector.1"* %0 to %"struct.std::_Vector_base.2"*
  %4 = getelementptr inbounds %"struct.std::_Vector_base.2", %"struct.std::_Vector_base.2"* %3, i32 0, i32 0
  %5 = getelementptr inbounds %"struct.std::_Vector_base<int, std::allocator<int> >::_Vector_impl", %"struct.std::_Vector_base<int, std::allocator<int> >::_Vector_impl"* %4, i32 0, i32 0
  %6 = load i32*, i32** %5, align 8
  %7 = getelementptr inbounds i32, i32* %6, i64 %1
  ret i32* %7
}

; Function Attrs: noinline uwtable
define linkonce_odr void @_ZNSt6vectorIiSaIiEE9push_backERKi(%"class.std::vector.1"* %0, i32* dereferenceable(4) %1) #0 comdat align 2 {
  %3 = alloca %"class.__gnu_cxx::__normal_iterator", align 8
  %4 = bitcast %"class.std::vector.1"* %0 to %"struct.std::_Vector_base.2"*
  %5 = getelementptr inbounds %"struct.std::_Vector_base.2", %"struct.std::_Vector_base.2"* %4, i32 0, i32 0
  %6 = getelementptr inbounds %"struct.std::_Vector_base<int, std::allocator<int> >::_Vector_impl", %"struct.std::_Vector_base<int, std::allocator<int> >::_Vector_impl"* %5, i32 0, i32 1
  %7 = load i32*, i32** %6, align 8
  %8 = bitcast %"class.std::vector.1"* %0 to %"struct.std::_Vector_base.2"*
  %9 = getelementptr inbounds %"struct.std::_Vector_base.2", %"struct.std::_Vector_base.2"* %8, i32 0, i32 0
  %10 = getelementptr inbounds %"struct.std::_Vector_base<int, std::allocator<int> >::_Vector_impl", %"struct.std::_Vector_base<int, std::allocator<int> >::_Vector_impl"* %9, i32 0, i32 2
  %11 = load i32*, i32** %10, align 8
  %12 = icmp ne i32* %7, %11
  br i1 %12, label %13, label %26

13:                                               ; preds = %2
  %14 = bitcast %"class.std::vector.1"* %0 to %"struct.std::_Vector_base.2"*
  %15 = getelementptr inbounds %"struct.std::_Vector_base.2", %"struct.std::_Vector_base.2"* %14, i32 0, i32 0
  %16 = bitcast %"struct.std::_Vector_base<int, std::allocator<int> >::_Vector_impl"* %15 to %"class.std::allocator.3"*
  %17 = bitcast %"class.std::vector.1"* %0 to %"struct.std::_Vector_base.2"*
  %18 = getelementptr inbounds %"struct.std::_Vector_base.2", %"struct.std::_Vector_base.2"* %17, i32 0, i32 0
  %19 = getelementptr inbounds %"struct.std::_Vector_base<int, std::allocator<int> >::_Vector_impl", %"struct.std::_Vector_base<int, std::allocator<int> >::_Vector_impl"* %18, i32 0, i32 1
  %20 = load i32*, i32** %19, align 8
  call void @_ZNSt16allocator_traitsISaIiEE9constructIiJRKiEEEvRS0_PT_DpOT0_(%"class.std::allocator.3"* dereferenceable(1) %16, i32* %20, i32* dereferenceable(4) %1)
  %21 = bitcast %"class.std::vector.1"* %0 to %"struct.std::_Vector_base.2"*
  %22 = getelementptr inbounds %"struct.std::_Vector_base.2", %"struct.std::_Vector_base.2"* %21, i32 0, i32 0
  %23 = getelementptr inbounds %"struct.std::_Vector_base<int, std::allocator<int> >::_Vector_impl", %"struct.std::_Vector_base<int, std::allocator<int> >::_Vector_impl"* %22, i32 0, i32 1
  %24 = load i32*, i32** %23, align 8
  %25 = getelementptr inbounds i32, i32* %24, i32 1
  store i32* %25, i32** %23, align 8
  br label %31

26:                                               ; preds = %2
  %27 = call i32* @_ZNSt6vectorIiSaIiEE3endEv(%"class.std::vector.1"* %0) #3
  %28 = getelementptr inbounds %"class.__gnu_cxx::__normal_iterator", %"class.__gnu_cxx::__normal_iterator"* %3, i32 0, i32 0
  store i32* %27, i32** %28, align 8
  %29 = getelementptr inbounds %"class.__gnu_cxx::__normal_iterator", %"class.__gnu_cxx::__normal_iterator"* %3, i32 0, i32 0
  %30 = load i32*, i32** %29, align 8
  call void @_ZNSt6vectorIiSaIiEE17_M_realloc_insertIJRKiEEEvN9__gnu_cxx17__normal_iteratorIPiS1_EEDpOT_(%"class.std::vector.1"* %0, i32* %30, i32* dereferenceable(4) %1)
  br label %31

31:                                               ; preds = %26, %13
  ret void
}

; Function Attrs: noinline uwtable
define void @_Z4rdfsii(i32 %0, i32 %1) #0 {
  %3 = sext i32 %0 to i64
  %4 = getelementptr inbounds [2000 x i8], [2000 x i8]* @used, i64 0, i64 %3
  store i8 1, i8* %4, align 1
  %5 = sext i32 %0 to i64
  %6 = getelementptr inbounds [2000 x i32], [2000 x i32]* @cmp, i64 0, i64 %5
  store i32 %1, i32* %6, align 4
  br label %7

7:                                                ; preds = %30, %2
  %.0 = phi i32 [ 0, %2 ], [ %31, %30 ]
  %8 = sext i32 %.0 to i64
  %9 = sext i32 %0 to i64
  %10 = getelementptr inbounds [2000 x %"class.std::vector.1"], [2000 x %"class.std::vector.1"]* @rG, i64 0, i64 %9
  %11 = call i64 @_ZNKSt6vectorIiSaIiEE4sizeEv(%"class.std::vector.1"* %10) #3
  %12 = icmp ult i64 %8, %11
  br i1 %12, label %13, label %32

13:                                               ; preds = %7
  %14 = sext i32 %0 to i64
  %15 = getelementptr inbounds [2000 x %"class.std::vector.1"], [2000 x %"class.std::vector.1"]* @rG, i64 0, i64 %14
  %16 = sext i32 %.0 to i64
  %17 = call dereferenceable(4) i32* @_ZNSt6vectorIiSaIiEEixEm(%"class.std::vector.1"* %15, i64 %16) #3
  %18 = load i32, i32* %17, align 4
  %19 = sext i32 %18 to i64
  %20 = getelementptr inbounds [2000 x i8], [2000 x i8]* @used, i64 0, i64 %19
  %21 = load i8, i8* %20, align 1
  %22 = trunc i8 %21 to i1
  br i1 %22, label %29, label %23

23:                                               ; preds = %13
  %24 = sext i32 %0 to i64
  %25 = getelementptr inbounds [2000 x %"class.std::vector.1"], [2000 x %"class.std::vector.1"]* @rG, i64 0, i64 %24
  %26 = sext i32 %.0 to i64
  %27 = call dereferenceable(4) i32* @_ZNSt6vectorIiSaIiEEixEm(%"class.std::vector.1"* %25, i64 %26) #3
  %28 = load i32, i32* %27, align 4
  call void @_Z4rdfsii(i32 %28, i32 %1)
  br label %29

29:                                               ; preds = %23, %13
  br label %30

30:                                               ; preds = %29
  %31 = add nsw i32 %.0, 1
  br label %7

32:                                               ; preds = %7
  ret void
}

; Function Attrs: noinline uwtable
define i32 @_Z3sccv() #0 {
  call void @llvm.memset.p0i8.i64(i8* align 16 getelementptr inbounds ([2000 x i8], [2000 x i8]* @used, i32 0, i32 0), i8 0, i64 2000, i1 false)
  call void @_ZNSt6vectorIiSaIiEE5clearEv(%"class.std::vector.1"* @vs) #3
  br label %1

1:                                                ; preds = %11, %0
  %.0 = phi i32 [ 0, %0 ], [ %12, %11 ]
  %2 = load i32, i32* @V, align 4
  %3 = icmp slt i32 %.0, %2
  br i1 %3, label %4, label %13

4:                                                ; preds = %1
  %5 = sext i32 %.0 to i64
  %6 = getelementptr inbounds [2000 x i8], [2000 x i8]* @used, i64 0, i64 %5
  %7 = load i8, i8* %6, align 1
  %8 = trunc i8 %7 to i1
  br i1 %8, label %10, label %9

9:                                                ; preds = %4
  call void @_Z3dfsi(i32 %.0)
  br label %10

10:                                               ; preds = %9, %4
  br label %11

11:                                               ; preds = %10
  %12 = add nsw i32 %.0, 1
  br label %1

13:                                               ; preds = %1
  call void @llvm.memset.p0i8.i64(i8* align 16 getelementptr inbounds ([2000 x i8], [2000 x i8]* @used, i32 0, i32 0), i8 0, i64 2000, i1 false)
  %14 = call i64 @_ZNKSt6vectorIiSaIiEE4sizeEv(%"class.std::vector.1"* @vs) #3
  %15 = sub i64 %14, 1
  %16 = trunc i64 %15 to i32
  br label %17

17:                                               ; preds = %33, %13
  %.02 = phi i32 [ %16, %13 ], [ %34, %33 ]
  %.01 = phi i32 [ 0, %13 ], [ %.1, %33 ]
  %18 = icmp sge i32 %.02, 0
  br i1 %18, label %19, label %35

19:                                               ; preds = %17
  %20 = sext i32 %.02 to i64
  %21 = call dereferenceable(4) i32* @_ZNSt6vectorIiSaIiEEixEm(%"class.std::vector.1"* @vs, i64 %20) #3
  %22 = load i32, i32* %21, align 4
  %23 = sext i32 %22 to i64
  %24 = getelementptr inbounds [2000 x i8], [2000 x i8]* @used, i64 0, i64 %23
  %25 = load i8, i8* %24, align 1
  %26 = trunc i8 %25 to i1
  br i1 %26, label %32, label %27

27:                                               ; preds = %19
  %28 = sext i32 %.02 to i64
  %29 = call dereferenceable(4) i32* @_ZNSt6vectorIiSaIiEEixEm(%"class.std::vector.1"* @vs, i64 %28) #3
  %30 = load i32, i32* %29, align 4
  %31 = add nsw i32 %.01, 1
  call void @_Z4rdfsii(i32 %30, i32 %.01)
  br label %32

32:                                               ; preds = %27, %19
  %.1 = phi i32 [ %.01, %19 ], [ %31, %27 ]
  br label %33

33:                                               ; preds = %32
  %34 = add nsw i32 %.02, -1
  br label %17

35:                                               ; preds = %17
  ret i32 %.01
}

; Function Attrs: noinline nounwind uwtable
define linkonce_odr void @_ZNSt6vectorIiSaIiEE5clearEv(%"class.std::vector.1"* %0) #4 comdat align 2 {
  %2 = bitcast %"class.std::vector.1"* %0 to %"struct.std::_Vector_base.2"*
  %3 = getelementptr inbounds %"struct.std::_Vector_base.2", %"struct.std::_Vector_base.2"* %2, i32 0, i32 0
  %4 = getelementptr inbounds %"struct.std::_Vector_base<int, std::allocator<int> >::_Vector_impl", %"struct.std::_Vector_base<int, std::allocator<int> >::_Vector_impl"* %3, i32 0, i32 0
  %5 = load i32*, i32** %4, align 8
  call void @_ZNSt6vectorIiSaIiEE15_M_erase_at_endEPi(%"class.std::vector.1"* %0, i32* %5) #3
  ret void
}

; Function Attrs: noinline norecurse uwtable
define i32 @main() #5 personality i8* bitcast (i32 (...)* @__gxx_personality_v0 to i8*) {
  %1 = alloca %"struct.std::pair", align 8
  %2 = alloca %"struct.std::_Rb_tree_const_iterator", align 8
  %3 = alloca %"struct.std::_Rb_tree_const_iterator", align 8
  %4 = alloca %struct.Data, align 4
  %5 = alloca %struct.Data, align 4
  %6 = alloca %"class.std::vector.1", align 8
  %7 = call dereferenceable(280) %"class.std::basic_istream"* @_ZNSirsERi(%"class.std::basic_istream"* @_ZSt3cin, i32* dereferenceable(4) @V)
  %8 = call dereferenceable(280) %"class.std::basic_istream"* @_ZNSirsERi(%"class.std::basic_istream"* %7, i32* dereferenceable(4) @E)
  br label %9

9:                                                ; preds = %43, %0
  %.0 = phi i32 [ 0, %0 ], [ %44, %43 ]
  %10 = load i32, i32* @E, align 4
  %11 = icmp slt i32 %.0, %10
  br i1 %11, label %12, label %45

12:                                               ; preds = %9
  %13 = call dereferenceable(280) %"class.std::basic_istream"* @_ZNSirsERi(%"class.std::basic_istream"* @_ZSt3cin, i32* dereferenceable(4) @S)
  %14 = call dereferenceable(280) %"class.std::basic_istream"* @_ZNSirsERi(%"class.std::basic_istream"* %13, i32* dereferenceable(4) @D)
  %15 = load i32, i32* @S, align 4
  %16 = icmp sle i32 1, %15
  br i1 %16, label %17, label %21

17:                                               ; preds = %12
  %18 = load i32, i32* @S, align 4
  %19 = load i32, i32* @V, align 4
  %20 = icmp sle i32 %18, %19
  br label %21

21:                                               ; preds = %17, %12
  %22 = phi i1 [ false, %12 ], [ %20, %17 ]
  br i1 %22, label %23, label %24

23:                                               ; preds = %21
  br label %26

24:                                               ; preds = %21
  call void @__assert_fail(i8* getelementptr inbounds ([17 x i8], [17 x i8]* @.str, i32 0, i32 0), i8* getelementptr inbounds ([71 x i8], [71 x i8]* @.str.7, i32 0, i32 0), i32 104, i8* getelementptr inbounds ([11 x i8], [11 x i8]* @__PRETTY_FUNCTION__.main, i32 0, i32 0)) #16
  unreachable

25:                                               ; No predecessors!
  br label %26

26:                                               ; preds = %25, %23
  %27 = load i32, i32* @D, align 4
  %28 = icmp sle i32 1, %27
  br i1 %28, label %29, label %33

29:                                               ; preds = %26
  %30 = load i32, i32* @D, align 4
  %31 = load i32, i32* @V, align 4
  %32 = icmp sle i32 %30, %31
  br label %33

33:                                               ; preds = %29, %26
  %34 = phi i1 [ false, %26 ], [ %32, %29 ]
  br i1 %34, label %35, label %36

35:                                               ; preds = %33
  br label %38

36:                                               ; preds = %33
  call void @__assert_fail(i8* getelementptr inbounds ([17 x i8], [17 x i8]* @.str.8, i32 0, i32 0), i8* getelementptr inbounds ([71 x i8], [71 x i8]* @.str.7, i32 0, i32 0), i32 105, i8* getelementptr inbounds ([11 x i8], [11 x i8]* @__PRETTY_FUNCTION__.main, i32 0, i32 0)) #16
  unreachable

37:                                               ; No predecessors!
  br label %38

38:                                               ; preds = %37, %35
  %39 = load i32, i32* @S, align 4
  %40 = sub nsw i32 %39, 1
  %41 = load i32, i32* @D, align 4
  %42 = sub nsw i32 %41, 1
  call void @_Z8add_edgeii(i32 %40, i32 %42)
  br label %43

43:                                               ; preds = %38
  %44 = add nsw i32 %.0, 1
  br label %9

45:                                               ; preds = %9
  %46 = call i32 @_Z3sccv()
  br label %47

47:                                               ; preds = %52, %45
  %.02 = phi i32 [ 0, %45 ], [ %53, %52 ]
  %48 = icmp slt i32 %.02, %46
  br i1 %48, label %49, label %54

49:                                               ; preds = %47
  %50 = sext i32 %.02 to i64
  %51 = getelementptr inbounds [2000 x i64], [2000 x i64]* @dp, i64 0, i64 %50
  store i64 -1, i64* %51, align 8
  br label %52

52:                                               ; preds = %49
  %53 = add nsw i32 %.02, 1
  br label %47

54:                                               ; preds = %47
  %55 = zext i32 %46 to i64
  %56 = call i8* @llvm.stacksave()
  %57 = alloca %"class.std::set", i64 %55, align 16
  %58 = icmp eq i64 %55, 0
  br i1 %58, label %65, label %59

59:                                               ; preds = %54
  %60 = getelementptr inbounds %"class.std::set", %"class.std::set"* %57, i64 %55
  br label %61

61:                                               ; preds = %61, %59
  %62 = phi %"class.std::set"* [ %57, %59 ], [ %63, %61 ]
  call void @_ZNSt3setIiSt4lessIiESaIiEEC2Ev(%"class.std::set"* %62) #3
  %63 = getelementptr inbounds %"class.std::set", %"class.std::set"* %62, i64 1
  %64 = icmp eq %"class.std::set"* %63, %60
  br i1 %64, label %65, label %61

65:                                               ; preds = %61, %54
  br label %66

66:                                               ; preds = %117, %65
  %.04 = phi i32 [ 0, %65 ], [ %118, %117 ]
  %67 = load i32, i32* @V, align 4
  %68 = icmp slt i32 %.04, %67
  br i1 %68, label %69, label %119

69:                                               ; preds = %66
  br label %70

70:                                               ; preds = %110, %69
  %.05 = phi i32 [ 0, %69 ], [ %111, %110 ]
  %71 = sext i32 %.05 to i64
  %72 = sext i32 %.04 to i64
  %73 = getelementptr inbounds [2000 x %"class.std::vector.1"], [2000 x %"class.std::vector.1"]* @G, i64 0, i64 %72
  %74 = call i64 @_ZNKSt6vectorIiSaIiEE4sizeEv(%"class.std::vector.1"* %73) #3
  %75 = icmp ult i64 %71, %74
  br i1 %75, label %76, label %116

76:                                               ; preds = %70
  %77 = sext i32 %.04 to i64
  %78 = getelementptr inbounds [2000 x i32], [2000 x i32]* @cmp, i64 0, i64 %77
  %79 = load i32, i32* %78, align 4
  %80 = sext i32 %.04 to i64
  %81 = getelementptr inbounds [2000 x %"class.std::vector.1"], [2000 x %"class.std::vector.1"]* @G, i64 0, i64 %80
  %82 = sext i32 %.05 to i64
  %83 = call dereferenceable(4) i32* @_ZNSt6vectorIiSaIiEEixEm(%"class.std::vector.1"* %81, i64 %82) #3
  %84 = load i32, i32* %83, align 4
  %85 = sext i32 %84 to i64
  %86 = getelementptr inbounds [2000 x i32], [2000 x i32]* @cmp, i64 0, i64 %85
  %87 = load i32, i32* %86, align 4
  %88 = icmp eq i32 %79, %87
  br i1 %88, label %89, label %90

89:                                               ; preds = %76
  br label %110

90:                                               ; preds = %76
  %91 = sext i32 %.04 to i64
  %92 = getelementptr inbounds [2000 x i32], [2000 x i32]* @cmp, i64 0, i64 %91
  %93 = load i32, i32* %92, align 4
  %94 = sext i32 %93 to i64
  %95 = getelementptr inbounds %"class.std::set", %"class.std::set"* %57, i64 %94
  %96 = sext i32 %.04 to i64
  %97 = getelementptr inbounds [2000 x %"class.std::vector.1"], [2000 x %"class.std::vector.1"]* @G, i64 0, i64 %96
  %98 = sext i32 %.05 to i64
  %99 = call dereferenceable(4) i32* @_ZNSt6vectorIiSaIiEEixEm(%"class.std::vector.1"* %97, i64 %98) #3
  %100 = load i32, i32* %99, align 4
  %101 = sext i32 %100 to i64
  %102 = getelementptr inbounds [2000 x i32], [2000 x i32]* @cmp, i64 0, i64 %101
  %103 = invoke { %"struct.std::_Rb_tree_node_base"*, i8 } @_ZNSt3setIiSt4lessIiESaIiEE6insertERKi(%"class.std::set"* %95, i32* dereferenceable(4) %102)
          to label %104 unwind label %112

104:                                              ; preds = %90
  %105 = bitcast %"struct.std::pair"* %1 to { %"struct.std::_Rb_tree_node_base"*, i8 }*
  %106 = getelementptr inbounds { %"struct.std::_Rb_tree_node_base"*, i8 }, { %"struct.std::_Rb_tree_node_base"*, i8 }* %105, i32 0, i32 0
  %107 = extractvalue { %"struct.std::_Rb_tree_node_base"*, i8 } %103, 0
  store %"struct.std::_Rb_tree_node_base"* %107, %"struct.std::_Rb_tree_node_base"** %106, align 8
  %108 = getelementptr inbounds { %"struct.std::_Rb_tree_node_base"*, i8 }, { %"struct.std::_Rb_tree_node_base"*, i8 }* %105, i32 0, i32 1
  %109 = extractvalue { %"struct.std::_Rb_tree_node_base"*, i8 } %103, 1
  store i8 %109, i8* %108, align 8
  br label %110

110:                                              ; preds = %104, %89
  %111 = add nsw i32 %.05, 1
  br label %70

112:                                              ; preds = %144, %141, %140, %135, %121, %119, %90
  %113 = landingpad { i8*, i32 }
          cleanup
  %114 = extractvalue { i8*, i32 } %113, 0
  %115 = extractvalue { i8*, i32 } %113, 1
  br label %253

116:                                              ; preds = %70
  br label %117

117:                                              ; preds = %116
  %118 = add nsw i32 %.04, 1
  br label %66

119:                                              ; preds = %66
  call void @_ZNSt6vectorIS_I4DataSaIS0_EESaIS2_EE5clearEv(%"class.std::vector"* @tmp_G) #3
  call void @_ZNSt6vectorIS_I4DataSaIS0_EESaIS2_EE5clearEv(%"class.std::vector"* @tmp_rG) #3
  %120 = sext i32 %46 to i64
  invoke void @_ZNSt6vectorIS_I4DataSaIS0_EESaIS2_EE6resizeEm(%"class.std::vector"* @tmp_G, i64 %120)
          to label %121 unwind label %112

121:                                              ; preds = %119
  %122 = sext i32 %46 to i64
  invoke void @_ZNSt6vectorIS_I4DataSaIS0_EESaIS2_EE6resizeEm(%"class.std::vector"* @tmp_rG, i64 %122)
          to label %123 unwind label %112

123:                                              ; preds = %121
  br label %124

124:                                              ; preds = %149, %123
  %.08 = phi i32 [ 0, %123 ], [ %150, %149 ]
  %125 = icmp slt i32 %.08, %46
  br i1 %125, label %126, label %151

126:                                              ; preds = %124
  %127 = sext i32 %.08 to i64
  %128 = getelementptr inbounds %"class.std::set", %"class.std::set"* %57, i64 %127
  %129 = call %"struct.std::_Rb_tree_node_base"* @_ZNKSt3setIiSt4lessIiESaIiEE5beginEv(%"class.std::set"* %128) #3
  %130 = getelementptr inbounds %"struct.std::_Rb_tree_const_iterator", %"struct.std::_Rb_tree_const_iterator"* %2, i32 0, i32 0
  store %"struct.std::_Rb_tree_node_base"* %129, %"struct.std::_Rb_tree_node_base"** %130, align 8
  %131 = call %"struct.std::_Rb_tree_node_base"* @_ZNKSt3setIiSt4lessIiESaIiEE3endEv(%"class.std::set"* %128) #3
  %132 = getelementptr inbounds %"struct.std::_Rb_tree_const_iterator", %"struct.std::_Rb_tree_const_iterator"* %3, i32 0, i32 0
  store %"struct.std::_Rb_tree_node_base"* %131, %"struct.std::_Rb_tree_node_base"** %132, align 8
  br label %133

133:                                              ; preds = %146, %126
  %134 = call zeroext i1 @_ZNKSt23_Rb_tree_const_iteratorIiEneERKS0_(%"struct.std::_Rb_tree_const_iterator"* %2, %"struct.std::_Rb_tree_const_iterator"* dereferenceable(8) %3) #3
  br i1 %134, label %135, label %148

135:                                              ; preds = %133
  %136 = call dereferenceable(4) i32* @_ZNKSt23_Rb_tree_const_iteratorIiEdeEv(%"struct.std::_Rb_tree_const_iterator"* %2) #3
  %137 = load i32, i32* %136, align 4
  %138 = sext i32 %.08 to i64
  %139 = call dereferenceable(24) %"class.std::vector.0"* @_ZNSt6vectorIS_I4DataSaIS0_EESaIS2_EEixEm(%"class.std::vector"* @tmp_G, i64 %138) #3
  invoke void @_ZN4DataC2Eii(%struct.Data* %4, i32 %137, i32 2147483647)
          to label %140 unwind label %112

140:                                              ; preds = %135
  invoke void @_ZNSt6vectorI4DataSaIS0_EE9push_backEOS0_(%"class.std::vector.0"* %139, %struct.Data* dereferenceable(8) %4)
          to label %141 unwind label %112

141:                                              ; preds = %140
  %142 = sext i32 %137 to i64
  %143 = call dereferenceable(24) %"class.std::vector.0"* @_ZNSt6vectorIS_I4DataSaIS0_EESaIS2_EEixEm(%"class.std::vector"* @tmp_rG, i64 %142) #3
  invoke void @_ZN4DataC2Eii(%struct.Data* %5, i32 %.08, i32 2147483647)
          to label %144 unwind label %112

144:                                              ; preds = %141
  invoke void @_ZNSt6vectorI4DataSaIS0_EE9push_backEOS0_(%"class.std::vector.0"* %143, %struct.Data* dereferenceable(8) %5)
          to label %145 unwind label %112

145:                                              ; preds = %144
  br label %146

146:                                              ; preds = %145
  %147 = call dereferenceable(8) %"struct.std::_Rb_tree_const_iterator"* @_ZNSt23_Rb_tree_const_iteratorIiEppEv(%"struct.std::_Rb_tree_const_iterator"* %2) #3
  br label %133

148:                                              ; preds = %133
  br label %149

149:                                              ; preds = %148
  %150 = add nsw i32 %.08, 1
  br label %124

151:                                              ; preds = %124
  call void @_ZNSt6vectorIiSaIiEEC2Ev(%"class.std::vector.1"* %6) #3
  %152 = invoke zeroext i1 @_Z15topologicalSortISt6vectorIS0_I4DataSaIS1_EESaIS3_EEEbRKT_RS0_IiSaIiEE(%"class.std::vector"* dereferenceable(24) @tmp_G, %"class.std::vector.1"* dereferenceable(24) %6)
          to label %153 unwind label %169

153:                                              ; preds = %151
  br label %154

154:                                              ; preds = %174, %153
  %.011 = phi i32 [ 0, %153 ], [ %175, %174 ]
  %155 = icmp slt i32 %.011, %46
  br i1 %155, label %156, label %176

156:                                              ; preds = %154
  %157 = sext i32 %.011 to i64
  %158 = call dereferenceable(4) i32* @_ZNSt6vectorIiSaIiEEixEm(%"class.std::vector.1"* %6, i64 %157) #3
  %159 = load i32, i32* %158, align 4
  %160 = sext i32 %159 to i64
  %161 = call dereferenceable(24) %"class.std::vector.0"* @_ZNSt6vectorIS_I4DataSaIS0_EESaIS2_EEixEm(%"class.std::vector"* @tmp_rG, i64 %160) #3
  %162 = call zeroext i1 @_ZNKSt6vectorI4DataSaIS0_EE5emptyEv(%"class.std::vector.0"* %161) #3
  br i1 %162, label %163, label %173

163:                                              ; preds = %156
  %164 = sext i32 %.011 to i64
  %165 = call dereferenceable(4) i32* @_ZNSt6vectorIiSaIiEEixEm(%"class.std::vector.1"* %6, i64 %164) #3
  %166 = load i32, i32* %165, align 4
  %167 = sext i32 %166 to i64
  %168 = getelementptr inbounds [2000 x i64], [2000 x i64]* @dp, i64 0, i64 %167
  store i64 2, i64* %168, align 8
  br label %173

169:                                              ; preds = %243, %241, %151
  %170 = landingpad { i8*, i32 }
          cleanup
  %171 = extractvalue { i8*, i32 } %170, 0
  %172 = extractvalue { i8*, i32 } %170, 1
  call void @_ZNSt6vectorIiSaIiEED2Ev(%"class.std::vector.1"* %6) #3
  br label %253

173:                                              ; preds = %163, %156
  br label %174

174:                                              ; preds = %173
  %175 = add nsw i32 %.011, 1
  br label %154

176:                                              ; preds = %154
  br label %177

177:                                              ; preds = %239, %176
  %.010 = phi i64 [ 1, %176 ], [ %.1, %239 ]
  %.09 = phi i32 [ 0, %176 ], [ %240, %239 ]
  %178 = icmp slt i32 %.09, %46
  br i1 %178, label %179, label %241

179:                                              ; preds = %177
  %180 = sext i32 %.09 to i64
  %181 = call dereferenceable(4) i32* @_ZNSt6vectorIiSaIiEEixEm(%"class.std::vector.1"* %6, i64 %180) #3
  %182 = load i32, i32* %181, align 4
  br label %183

183:                                              ; preds = %209, %179
  %.03 = phi i64 [ 1, %179 ], [ %208, %209 ]
  %.01 = phi i32 [ 0, %179 ], [ %210, %209 ]
  %184 = sext i32 %.01 to i64
  %185 = sext i32 %182 to i64
  %186 = call dereferenceable(24) %"class.std::vector.0"* @_ZNSt6vectorIS_I4DataSaIS0_EESaIS2_EEixEm(%"class.std::vector"* @tmp_rG, i64 %185) #3
  %187 = call i64 @_ZNKSt6vectorI4DataSaIS0_EE4sizeEv(%"class.std::vector.0"* %186) #3
  %188 = icmp ult i64 %184, %187
  br i1 %188, label %189, label %211

189:                                              ; preds = %183
  %190 = sext i32 %182 to i64
  %191 = call dereferenceable(24) %"class.std::vector.0"* @_ZNSt6vectorIS_I4DataSaIS0_EESaIS2_EEixEm(%"class.std::vector"* @tmp_rG, i64 %190) #3
  %192 = sext i32 %.01 to i64
  %193 = call dereferenceable(8) %struct.Data* @_ZNSt6vectorI4DataSaIS0_EEixEm(%"class.std::vector.0"* %191, i64 %192) #3
  %194 = getelementptr inbounds %struct.Data, %struct.Data* %193, i32 0, i32 0
  %195 = load i32, i32* %194, align 4
  %196 = sext i32 %195 to i64
  %197 = getelementptr inbounds [2000 x i64], [2000 x i64]* @dp, i64 0, i64 %196
  %198 = load i64, i64* %197, align 8
  %199 = icmp ne i64 %198, -1
  br i1 %199, label %200, label %201

200:                                              ; preds = %189
  br label %203

201:                                              ; preds = %189
  call void @__assert_fail(i8* getelementptr inbounds ([15 x i8], [15 x i8]* @.str.9, i32 0, i32 0), i8* getelementptr inbounds ([71 x i8], [71 x i8]* @.str.7, i32 0, i32 0), i32 142, i8* getelementptr inbounds ([11 x i8], [11 x i8]* @__PRETTY_FUNCTION__.main, i32 0, i32 0)) #16
  unreachable

202:                                              ; No predecessors!
  br label %203

203:                                              ; preds = %202, %200
  %204 = sext i32 %195 to i64
  %205 = getelementptr inbounds [2000 x i64], [2000 x i64]* @dp, i64 0, i64 %204
  %206 = load i64, i64* %205, align 8
  %207 = mul nsw i64 %.03, %206
  %208 = srem i64 %207, 1000000007
  br label %209

209:                                              ; preds = %203
  %210 = add nsw i32 %.01, 1
  br label %183

211:                                              ; preds = %183
  %212 = sext i32 %182 to i64
  %213 = call dereferenceable(24) %"class.std::vector.0"* @_ZNSt6vectorIS_I4DataSaIS0_EESaIS2_EEixEm(%"class.std::vector"* @tmp_rG, i64 %212) #3
  %214 = call zeroext i1 @_ZNKSt6vectorI4DataSaIS0_EE5emptyEv(%"class.std::vector.0"* %213) #3
  br i1 %214, label %228, label %215

215:                                              ; preds = %211
  %216 = sext i32 %182 to i64
  %217 = getelementptr inbounds [2000 x i64], [2000 x i64]* @dp, i64 0, i64 %216
  %218 = load i64, i64* %217, align 8
  %219 = icmp eq i64 %218, -1
  br i1 %219, label %220, label %221

220:                                              ; preds = %215
  br label %223

221:                                              ; preds = %215
  call void @__assert_fail(i8* getelementptr inbounds ([14 x i8], [14 x i8]* @.str.10, i32 0, i32 0), i8* getelementptr inbounds ([71 x i8], [71 x i8]* @.str.7, i32 0, i32 0), i32 146, i8* getelementptr inbounds ([11 x i8], [11 x i8]* @__PRETTY_FUNCTION__.main, i32 0, i32 0)) #16
  unreachable

222:                                              ; No predecessors!
  br label %223

223:                                              ; preds = %222, %220
  %224 = add i64 %.03, 1
  %225 = urem i64 %224, 1000000007
  %226 = sext i32 %182 to i64
  %227 = getelementptr inbounds [2000 x i64], [2000 x i64]* @dp, i64 0, i64 %226
  store i64 %225, i64* %227, align 8
  br label %228

228:                                              ; preds = %223, %211
  %229 = sext i32 %182 to i64
  %230 = call dereferenceable(24) %"class.std::vector.0"* @_ZNSt6vectorIS_I4DataSaIS0_EESaIS2_EEixEm(%"class.std::vector"* @tmp_G, i64 %229) #3
  %231 = call zeroext i1 @_ZNKSt6vectorI4DataSaIS0_EE5emptyEv(%"class.std::vector.0"* %230) #3
  br i1 %231, label %232, label %238

232:                                              ; preds = %228
  %233 = sext i32 %182 to i64
  %234 = getelementptr inbounds [2000 x i64], [2000 x i64]* @dp, i64 0, i64 %233
  %235 = load i64, i64* %234, align 8
  %236 = mul nsw i64 %.010, %235
  %237 = srem i64 %236, 1000000007
  br label %238

238:                                              ; preds = %232, %228
  %.1 = phi i64 [ %237, %232 ], [ %.010, %228 ]
  br label %239

239:                                              ; preds = %238
  %240 = add nsw i32 %.09, 1
  br label %177

241:                                              ; preds = %177
  %242 = invoke dereferenceable(272) %"class.std::basic_ostream"* @_ZNSolsEx(%"class.std::basic_ostream"* @_ZSt4cout, i64 %.010)
          to label %243 unwind label %169

243:                                              ; preds = %241
  %244 = invoke dereferenceable(272) %"class.std::basic_ostream"* @_ZNSolsEPFRSoS_E(%"class.std::basic_ostream"* %242, %"class.std::basic_ostream"* (%"class.std::basic_ostream"*)* @_ZSt4endlIcSt11char_traitsIcEERSt13basic_ostreamIT_T0_ES6_)
          to label %245 unwind label %169

245:                                              ; preds = %243
  call void @_ZNSt6vectorIiSaIiEED2Ev(%"class.std::vector.1"* %6) #3
  %246 = getelementptr inbounds %"class.std::set", %"class.std::set"* %57, i64 %55
  %247 = icmp eq %"class.std::set"* %57, %246
  br i1 %247, label %252, label %248

248:                                              ; preds = %248, %245
  %249 = phi %"class.std::set"* [ %246, %245 ], [ %250, %248 ]
  %250 = getelementptr inbounds %"class.std::set", %"class.std::set"* %249, i64 -1
  call void @_ZNSt3setIiSt4lessIiESaIiEED2Ev(%"class.std::set"* %250) #3
  %251 = icmp eq %"class.std::set"* %250, %57
  br i1 %251, label %252, label %248

252:                                              ; preds = %248, %245
  call void @llvm.stackrestore(i8* %56)
  ret i32 0

253:                                              ; preds = %169, %112
  %.07 = phi i32 [ %115, %112 ], [ %172, %169 ]
  %.06 = phi i8* [ %114, %112 ], [ %171, %169 ]
  %254 = getelementptr inbounds %"class.std::set", %"class.std::set"* %57, i64 %55
  %255 = icmp eq %"class.std::set"* %57, %254
  br i1 %255, label %260, label %256

256:                                              ; preds = %256, %253
  %257 = phi %"class.std::set"* [ %254, %253 ], [ %258, %256 ]
  %258 = getelementptr inbounds %"class.std::set", %"class.std::set"* %257, i64 -1
  call void @_ZNSt3setIiSt4lessIiESaIiEED2Ev(%"class.std::set"* %258) #3
  %259 = icmp eq %"class.std::set"* %258, %57
  br i1 %259, label %260, label %256

260:                                              ; preds = %256, %253
  br label %261

261:                                              ; preds = %260
  %262 = insertvalue { i8*, i32 } undef, i8* %.06, 0
  %263 = insertvalue { i8*, i32 } %262, i32 %.07, 1
  resume { i8*, i32 } %263
}

declare dereferenceable(280) %"class.std::basic_istream"* @_ZNSirsERi(%"class.std::basic_istream"*, i32* dereferenceable(4)) #1

; Function Attrs: noreturn nounwind
declare void @__assert_fail(i8*, i8*, i32, i8*) #6

; Function Attrs: noinline uwtable
define linkonce_odr void @_Z8add_edgeii(i32 %0, i32 %1) #0 comdat {
  %3 = alloca i32, align 4
  %4 = alloca i32, align 4
  store i32 %0, i32* %3, align 4
  store i32 %1, i32* %4, align 4
  %5 = load i32, i32* %3, align 4
  %6 = sext i32 %5 to i64
  %7 = getelementptr inbounds [2000 x %"class.std::vector.1"], [2000 x %"class.std::vector.1"]* @G, i64 0, i64 %6
  call void @_ZNSt6vectorIiSaIiEE9push_backERKi(%"class.std::vector.1"* %7, i32* dereferenceable(4) %4)
  %8 = load i32, i32* %4, align 4
  %9 = sext i32 %8 to i64
  %10 = getelementptr inbounds [2000 x %"class.std::vector.1"], [2000 x %"class.std::vector.1"]* @rG, i64 0, i64 %9
  call void @_ZNSt6vectorIiSaIiEE9push_backERKi(%"class.std::vector.1"* %10, i32* dereferenceable(4) %3)
  ret void
}

; Function Attrs: nocallback nofree nosync nounwind willreturn
declare i8* @llvm.stacksave() #7

; Function Attrs: noinline nounwind uwtable
define linkonce_odr void @_ZNSt3setIiSt4lessIiESaIiEEC2Ev(%"class.std::set"* %0) unnamed_addr #4 comdat align 2 {
  %2 = getelementptr inbounds %"class.std::set", %"class.std::set"* %0, i32 0, i32 0
  call void @_ZNSt8_Rb_treeIiiSt9_IdentityIiESt4lessIiESaIiEEC2Ev(%"class.std::_Rb_tree"* %2) #3
  ret void
}

; Function Attrs: noinline uwtable
define linkonce_odr { %"struct.std::_Rb_tree_node_base"*, i8 } @_ZNSt3setIiSt4lessIiESaIiEE6insertERKi(%"class.std::set"* %0, i32* dereferenceable(4) %1) #0 comdat align 2 {
  %3 = alloca %"struct.std::pair", align 8
  %4 = alloca %"struct.std::pair.13", align 8
  %5 = getelementptr inbounds %"class.std::set", %"class.std::set"* %0, i32 0, i32 0
  %6 = call { %"struct.std::_Rb_tree_node_base"*, i8 } @_ZNSt8_Rb_treeIiiSt9_IdentityIiESt4lessIiESaIiEE16_M_insert_uniqueIRKiEESt4pairISt17_Rb_tree_iteratorIiEbEOT_(%"class.std::_Rb_tree"* %5, i32* dereferenceable(4) %1)
  %7 = bitcast %"struct.std::pair.13"* %4 to { %"struct.std::_Rb_tree_node_base"*, i8 }*
  %8 = getelementptr inbounds { %"struct.std::_Rb_tree_node_base"*, i8 }, { %"struct.std::_Rb_tree_node_base"*, i8 }* %7, i32 0, i32 0
  %9 = extractvalue { %"struct.std::_Rb_tree_node_base"*, i8 } %6, 0
  store %"struct.std::_Rb_tree_node_base"* %9, %"struct.std::_Rb_tree_node_base"** %8, align 8
  %10 = getelementptr inbounds { %"struct.std::_Rb_tree_node_base"*, i8 }, { %"struct.std::_Rb_tree_node_base"*, i8 }* %7, i32 0, i32 1
  %11 = extractvalue { %"struct.std::_Rb_tree_node_base"*, i8 } %6, 1
  store i8 %11, i8* %10, align 8
  %12 = getelementptr inbounds %"struct.std::pair.13", %"struct.std::pair.13"* %4, i32 0, i32 0
  %13 = getelementptr inbounds %"struct.std::pair.13", %"struct.std::pair.13"* %4, i32 0, i32 1
  call void @_ZNSt4pairISt23_Rb_tree_const_iteratorIiEbEC2IRSt17_Rb_tree_iteratorIiERbLb1EEEOT_OT0_(%"struct.std::pair"* %3, %"struct.std::_Rb_tree_iterator"* dereferenceable(8) %12, i8* dereferenceable(1) %13)
  %14 = bitcast %"struct.std::pair"* %3 to { %"struct.std::_Rb_tree_node_base"*, i8 }*
  %15 = load { %"struct.std::_Rb_tree_node_base"*, i8 }, { %"struct.std::_Rb_tree_node_base"*, i8 }* %14, align 8
  ret { %"struct.std::_Rb_tree_node_base"*, i8 } %15
}

declare i32 @__gxx_personality_v0(...)

; Function Attrs: noinline nounwind uwtable
define linkonce_odr void @_ZNSt6vectorIS_I4DataSaIS0_EESaIS2_EE5clearEv(%"class.std::vector"* %0) #4 comdat align 2 {
  %2 = bitcast %"class.std::vector"* %0 to %"struct.std::_Vector_base"*
  %3 = getelementptr inbounds %"struct.std::_Vector_base", %"struct.std::_Vector_base"* %2, i32 0, i32 0
  %4 = getelementptr inbounds %"struct.std::_Vector_base<std::vector<Data, std::allocator<Data> >, std::allocator<std::vector<Data, std::allocator<Data> > > >::_Vector_impl", %"struct.std::_Vector_base<std::vector<Data, std::allocator<Data> >, std::allocator<std::vector<Data, std::allocator<Data> > > >::_Vector_impl"* %3, i32 0, i32 0
  %5 = load %"class.std::vector.0"*, %"class.std::vector.0"** %4, align 8
  call void @_ZNSt6vectorIS_I4DataSaIS0_EESaIS2_EE15_M_erase_at_endEPS2_(%"class.std::vector"* %0, %"class.std::vector.0"* %5) #3
  ret void
}

; Function Attrs: noinline uwtable
define linkonce_odr void @_ZNSt6vectorIS_I4DataSaIS0_EESaIS2_EE6resizeEm(%"class.std::vector"* %0, i64 %1) #0 comdat align 2 {
  %3 = call i64 @_ZNKSt6vectorIS_I4DataSaIS0_EESaIS2_EE4sizeEv(%"class.std::vector"* %0) #3
  %4 = icmp ugt i64 %1, %3
  br i1 %4, label %5, label %8

5:                                                ; preds = %2
  %6 = call i64 @_ZNKSt6vectorIS_I4DataSaIS0_EESaIS2_EE4sizeEv(%"class.std::vector"* %0) #3
  %7 = sub i64 %1, %6
  call void @_ZNSt6vectorIS_I4DataSaIS0_EESaIS2_EE17_M_default_appendEm(%"class.std::vector"* %0, i64 %7)
  br label %18

8:                                                ; preds = %2
  %9 = call i64 @_ZNKSt6vectorIS_I4DataSaIS0_EESaIS2_EE4sizeEv(%"class.std::vector"* %0) #3
  %10 = icmp ult i64 %1, %9
  br i1 %10, label %11, label %17

11:                                               ; preds = %8
  %12 = bitcast %"class.std::vector"* %0 to %"struct.std::_Vector_base"*
  %13 = getelementptr inbounds %"struct.std::_Vector_base", %"struct.std::_Vector_base"* %12, i32 0, i32 0
  %14 = getelementptr inbounds %"struct.std::_Vector_base<std::vector<Data, std::allocator<Data> >, std::allocator<std::vector<Data, std::allocator<Data> > > >::_Vector_impl", %"struct.std::_Vector_base<std::vector<Data, std::allocator<Data> >, std::allocator<std::vector<Data, std::allocator<Data> > > >::_Vector_impl"* %13, i32 0, i32 0
  %15 = load %"class.std::vector.0"*, %"class.std::vector.0"** %14, align 8
  %16 = getelementptr inbounds %"class.std::vector.0", %"class.std::vector.0"* %15, i64 %1
  call void @_ZNSt6vectorIS_I4DataSaIS0_EESaIS2_EE15_M_erase_at_endEPS2_(%"class.std::vector"* %0, %"class.std::vector.0"* %16) #3
  br label %17

17:                                               ; preds = %11, %8
  br label %18

18:                                               ; preds = %17, %5
  ret void
}

; Function Attrs: noinline nounwind uwtable
define linkonce_odr %"struct.std::_Rb_tree_node_base"* @_ZNKSt3setIiSt4lessIiESaIiEE5beginEv(%"class.std::set"* %0) #4 comdat align 2 {
  %2 = alloca %"struct.std::_Rb_tree_const_iterator", align 8
  %3 = getelementptr inbounds %"class.std::set", %"class.std::set"* %0, i32 0, i32 0
  %4 = call %"struct.std::_Rb_tree_node_base"* @_ZNKSt8_Rb_treeIiiSt9_IdentityIiESt4lessIiESaIiEE5beginEv(%"class.std::_Rb_tree"* %3) #3
  %5 = getelementptr inbounds %"struct.std::_Rb_tree_const_iterator", %"struct.std::_Rb_tree_const_iterator"* %2, i32 0, i32 0
  store %"struct.std::_Rb_tree_node_base"* %4, %"struct.std::_Rb_tree_node_base"** %5, align 8
  %6 = getelementptr inbounds %"struct.std::_Rb_tree_const_iterator", %"struct.std::_Rb_tree_const_iterator"* %2, i32 0, i32 0
  %7 = load %"struct.std::_Rb_tree_node_base"*, %"struct.std::_Rb_tree_node_base"** %6, align 8
  ret %"struct.std::_Rb_tree_node_base"* %7
}

; Function Attrs: noinline nounwind uwtable
define linkonce_odr %"struct.std::_Rb_tree_node_base"* @_ZNKSt3setIiSt4lessIiESaIiEE3endEv(%"class.std::set"* %0) #4 comdat align 2 {
  %2 = alloca %"struct.std::_Rb_tree_const_iterator", align 8
  %3 = getelementptr inbounds %"class.std::set", %"class.std::set"* %0, i32 0, i32 0
  %4 = call %"struct.std::_Rb_tree_node_base"* @_ZNKSt8_Rb_treeIiiSt9_IdentityIiESt4lessIiESaIiEE3endEv(%"class.std::_Rb_tree"* %3) #3
  %5 = getelementptr inbounds %"struct.std::_Rb_tree_const_iterator", %"struct.std::_Rb_tree_const_iterator"* %2, i32 0, i32 0
  store %"struct.std::_Rb_tree_node_base"* %4, %"struct.std::_Rb_tree_node_base"** %5, align 8
  %6 = getelementptr inbounds %"struct.std::_Rb_tree_const_iterator", %"struct.std::_Rb_tree_const_iterator"* %2, i32 0, i32 0
  %7 = load %"struct.std::_Rb_tree_node_base"*, %"struct.std::_Rb_tree_node_base"** %6, align 8
  ret %"struct.std::_Rb_tree_node_base"* %7
}

; Function Attrs: noinline nounwind uwtable
define linkonce_odr zeroext i1 @_ZNKSt23_Rb_tree_const_iteratorIiEneERKS0_(%"struct.std::_Rb_tree_const_iterator"* %0, %"struct.std::_Rb_tree_const_iterator"* dereferenceable(8) %1) #4 comdat align 2 {
  %3 = getelementptr inbounds %"struct.std::_Rb_tree_const_iterator", %"struct.std::_Rb_tree_const_iterator"* %0, i32 0, i32 0
  %4 = load %"struct.std::_Rb_tree_node_base"*, %"struct.std::_Rb_tree_node_base"** %3, align 8
  %5 = getelementptr inbounds %"struct.std::_Rb_tree_const_iterator", %"struct.std::_Rb_tree_const_iterator"* %1, i32 0, i32 0
  %6 = load %"struct.std::_Rb_tree_node_base"*, %"struct.std::_Rb_tree_node_base"** %5, align 8
  %7 = icmp ne %"struct.std::_Rb_tree_node_base"* %4, %6
  ret i1 %7
}

; Function Attrs: noinline nounwind uwtable
define linkonce_odr dereferenceable(4) i32* @_ZNKSt23_Rb_tree_const_iteratorIiEdeEv(%"struct.std::_Rb_tree_const_iterator"* %0) #4 comdat align 2 personality i8* bitcast (i32 (...)* @__gxx_personality_v0 to i8*) {
  %2 = getelementptr inbounds %"struct.std::_Rb_tree_const_iterator", %"struct.std::_Rb_tree_const_iterator"* %0, i32 0, i32 0
  %3 = load %"struct.std::_Rb_tree_node_base"*, %"struct.std::_Rb_tree_node_base"** %2, align 8
  %4 = bitcast %"struct.std::_Rb_tree_node_base"* %3 to %"struct.std::_Rb_tree_node"*
  %5 = invoke i32* @_ZNKSt13_Rb_tree_nodeIiE9_M_valptrEv(%"struct.std::_Rb_tree_node"* %4)
          to label %6 unwind label %7

6:                                                ; preds = %1
  ret i32* %5

7:                                                ; preds = %1
  %8 = landingpad { i8*, i32 }
          catch i8* null
  %9 = extractvalue { i8*, i32 } %8, 0
  call void @__clang_call_terminate(i8* %9) #16
  unreachable
}

; Function Attrs: noinline nounwind uwtable
define linkonce_odr dereferenceable(24) %"class.std::vector.0"* @_ZNSt6vectorIS_I4DataSaIS0_EESaIS2_EEixEm(%"class.std::vector"* %0, i64 %1) #4 comdat align 2 {
  %3 = bitcast %"class.std::vector"* %0 to %"struct.std::_Vector_base"*
  %4 = getelementptr inbounds %"struct.std::_Vector_base", %"struct.std::_Vector_base"* %3, i32 0, i32 0
  %5 = getelementptr inbounds %"struct.std::_Vector_base<std::vector<Data, std::allocator<Data> >, std::allocator<std::vector<Data, std::allocator<Data> > > >::_Vector_impl", %"struct.std::_Vector_base<std::vector<Data, std::allocator<Data> >, std::allocator<std::vector<Data, std::allocator<Data> > > >::_Vector_impl"* %4, i32 0, i32 0
  %6 = load %"class.std::vector.0"*, %"class.std::vector.0"** %5, align 8
  %7 = getelementptr inbounds %"class.std::vector.0", %"class.std::vector.0"* %6, i64 %1
  ret %"class.std::vector.0"* %7
}

; Function Attrs: noinline uwtable
define linkonce_odr void @_ZNSt6vectorI4DataSaIS0_EE9push_backEOS0_(%"class.std::vector.0"* %0, %struct.Data* dereferenceable(8) %1) #0 comdat align 2 {
  %3 = call dereferenceable(8) %struct.Data* @_ZSt4moveIR4DataEONSt16remove_referenceIT_E4typeEOS3_(%struct.Data* dereferenceable(8) %1) #3
  call void @_ZNSt6vectorI4DataSaIS0_EE12emplace_backIJS0_EEEvDpOT_(%"class.std::vector.0"* %0, %struct.Data* dereferenceable(8) %3)
  ret void
}

; Function Attrs: noinline nounwind uwtable
define linkonce_odr void @_ZN4DataC2Eii(%struct.Data* %0, i32 %1, i32 %2) unnamed_addr #4 comdat align 2 {
  %4 = getelementptr inbounds %struct.Data, %struct.Data* %0, i32 0, i32 0
  store i32 %1, i32* %4, align 4
  %5 = getelementptr inbounds %struct.Data, %struct.Data* %0, i32 0, i32 1
  store i32 %2, i32* %5, align 4
  ret void
}

; Function Attrs: noinline nounwind uwtable
define linkonce_odr dereferenceable(8) %"struct.std::_Rb_tree_const_iterator"* @_ZNSt23_Rb_tree_const_iteratorIiEppEv(%"struct.std::_Rb_tree_const_iterator"* %0) #4 comdat align 2 {
  %2 = getelementptr inbounds %"struct.std::_Rb_tree_const_iterator", %"struct.std::_Rb_tree_const_iterator"* %0, i32 0, i32 0
  %3 = load %"struct.std::_Rb_tree_node_base"*, %"struct.std::_Rb_tree_node_base"** %2, align 8
  %4 = call %"struct.std::_Rb_tree_node_base"* @_ZSt18_Rb_tree_incrementPKSt18_Rb_tree_node_base(%"struct.std::_Rb_tree_node_base"* %3) #17
  %5 = getelementptr inbounds %"struct.std::_Rb_tree_const_iterator", %"struct.std::_Rb_tree_const_iterator"* %0, i32 0, i32 0
  store %"struct.std::_Rb_tree_node_base"* %4, %"struct.std::_Rb_tree_node_base"** %5, align 8
  ret %"struct.std::_Rb_tree_const_iterator"* %0
}

; Function Attrs: noinline uwtable
define linkonce_odr zeroext i1 @_Z15topologicalSortISt6vectorIS0_I4DataSaIS1_EESaIS3_EEEbRKT_RS0_IiSaIiEE(%"class.std::vector"* dereferenceable(24) %0, %"class.std::vector.1"* dereferenceable(24) %1) #0 comdat personality i8* bitcast (i32 (...)* @__gxx_personality_v0 to i8*) {
  %3 = alloca %"class.std::vector.1", align 8
  %4 = alloca %"class.std::allocator.3", align 1
  %5 = alloca %"class.__gnu_cxx::__normal_iterator", align 8
  %6 = alloca %"class.__gnu_cxx::__normal_iterator", align 8
  %7 = call i64 @_ZNKSt6vectorIS_I4DataSaIS0_EESaIS2_EE4sizeEv(%"class.std::vector"* %0) #3
  %8 = trunc i64 %7 to i32
  %9 = sext i32 %8 to i64
  call void @_ZNSaIiEC2Ev(%"class.std::allocator.3"* %4) #3
  invoke void @_ZNSt6vectorIiSaIiEEC2EmRKS0_(%"class.std::vector.1"* %3, i64 %9, %"class.std::allocator.3"* dereferenceable(1) %4)
          to label %10 unwind label %22

10:                                               ; preds = %2
  call void @_ZNSaIiED2Ev(%"class.std::allocator.3"* %4) #3
  br label %11

11:                                               ; preds = %31, %10
  %.01 = phi i32 [ 0, %10 ], [ %32, %31 ]
  %12 = icmp slt i32 %.01, %8
  br i1 %12, label %13, label %33

13:                                               ; preds = %11
  %14 = sext i32 %.01 to i64
  %15 = call dereferenceable(4) i32* @_ZNSt6vectorIiSaIiEEixEm(%"class.std::vector.1"* %3, i64 %14) #3
  %16 = load i32, i32* %15, align 4
  %17 = icmp ne i32 %16, 0
  br i1 %17, label %30, label %18

18:                                               ; preds = %13
  %19 = invoke zeroext i1 @_Z5visitISt6vectorIS0_I4DataSaIS1_EESaIS3_EEEbRKT_iRS0_IiSaIiEESB_(%"class.std::vector"* dereferenceable(24) %0, i32 %.01, %"class.std::vector.1"* dereferenceable(24) %1, %"class.std::vector.1"* dereferenceable(24) %3)
          to label %20 unwind label %26

20:                                               ; preds = %18
  br i1 %19, label %30, label %21

21:                                               ; preds = %20
  br label %43

22:                                               ; preds = %2
  %23 = landingpad { i8*, i32 }
          cleanup
  %24 = extractvalue { i8*, i32 } %23, 0
  %25 = extractvalue { i8*, i32 } %23, 1
  call void @_ZNSaIiED2Ev(%"class.std::allocator.3"* %4) #3
  br label %44

26:                                               ; preds = %33, %18
  %27 = landingpad { i8*, i32 }
          cleanup
  %28 = extractvalue { i8*, i32 } %27, 0
  %29 = extractvalue { i8*, i32 } %27, 1
  call void @_ZNSt6vectorIiSaIiEED2Ev(%"class.std::vector.1"* %3) #3
  br label %44

30:                                               ; preds = %20, %13
  br label %31

31:                                               ; preds = %30
  %32 = add nsw i32 %.01, 1
  br label %11

33:                                               ; preds = %11
  %34 = call i32* @_ZNSt6vectorIiSaIiEE5beginEv(%"class.std::vector.1"* %1) #3
  %35 = getelementptr inbounds %"class.__gnu_cxx::__normal_iterator", %"class.__gnu_cxx::__normal_iterator"* %5, i32 0, i32 0
  store i32* %34, i32** %35, align 8
  %36 = call i32* @_ZNSt6vectorIiSaIiEE3endEv(%"class.std::vector.1"* %1) #3
  %37 = getelementptr inbounds %"class.__gnu_cxx::__normal_iterator", %"class.__gnu_cxx::__normal_iterator"* %6, i32 0, i32 0
  store i32* %36, i32** %37, align 8
  %38 = getelementptr inbounds %"class.__gnu_cxx::__normal_iterator", %"class.__gnu_cxx::__normal_iterator"* %5, i32 0, i32 0
  %39 = load i32*, i32** %38, align 8
  %40 = getelementptr inbounds %"class.__gnu_cxx::__normal_iterator", %"class.__gnu_cxx::__normal_iterator"* %6, i32 0, i32 0
  %41 = load i32*, i32** %40, align 8
  invoke void @_ZSt7reverseIN9__gnu_cxx17__normal_iteratorIPiSt6vectorIiSaIiEEEEEvT_S7_(i32* %39, i32* %41)
          to label %42 unwind label %26

42:                                               ; preds = %33
  br label %43

43:                                               ; preds = %42, %21
  %.0 = phi i1 [ false, %21 ], [ true, %42 ]
  call void @_ZNSt6vectorIiSaIiEED2Ev(%"class.std::vector.1"* %3) #3
  ret i1 %.0

44:                                               ; preds = %26, %22
  %.03 = phi i8* [ %28, %26 ], [ %24, %22 ]
  %.02 = phi i32 [ %29, %26 ], [ %25, %22 ]
  %45 = insertvalue { i8*, i32 } undef, i8* %.03, 0
  %46 = insertvalue { i8*, i32 } %45, i32 %.02, 1
  resume { i8*, i32 } %46
}

; Function Attrs: noinline nounwind uwtable
define linkonce_odr zeroext i1 @_ZNKSt6vectorI4DataSaIS0_EE5emptyEv(%"class.std::vector.0"* %0) #4 comdat align 2 {
  %2 = alloca %"class.__gnu_cxx::__normal_iterator.23", align 8
  %3 = alloca %"class.__gnu_cxx::__normal_iterator.23", align 8
  %4 = call %struct.Data* @_ZNKSt6vectorI4DataSaIS0_EE5beginEv(%"class.std::vector.0"* %0) #3
  %5 = getelementptr inbounds %"class.__gnu_cxx::__normal_iterator.23", %"class.__gnu_cxx::__normal_iterator.23"* %2, i32 0, i32 0
  store %struct.Data* %4, %struct.Data** %5, align 8
  %6 = call %struct.Data* @_ZNKSt6vectorI4DataSaIS0_EE3endEv(%"class.std::vector.0"* %0) #3
  %7 = getelementptr inbounds %"class.__gnu_cxx::__normal_iterator.23", %"class.__gnu_cxx::__normal_iterator.23"* %3, i32 0, i32 0
  store %struct.Data* %6, %struct.Data** %7, align 8
  %8 = call zeroext i1 @_ZN9__gnu_cxxeqIPK4DataSt6vectorIS1_SaIS1_EEEEbRKNS_17__normal_iteratorIT_T0_EESC_(%"class.__gnu_cxx::__normal_iterator.23"* dereferenceable(8) %2, %"class.__gnu_cxx::__normal_iterator.23"* dereferenceable(8) %3) #3
  ret i1 %8
}

; Function Attrs: noinline nounwind uwtable
define linkonce_odr i64 @_ZNKSt6vectorI4DataSaIS0_EE4sizeEv(%"class.std::vector.0"* %0) #4 comdat align 2 {
  %2 = bitcast %"class.std::vector.0"* %0 to %"struct.std::_Vector_base.6"*
  %3 = getelementptr inbounds %"struct.std::_Vector_base.6", %"struct.std::_Vector_base.6"* %2, i32 0, i32 0
  %4 = getelementptr inbounds %"struct.std::_Vector_base<Data, std::allocator<Data> >::_Vector_impl", %"struct.std::_Vector_base<Data, std::allocator<Data> >::_Vector_impl"* %3, i32 0, i32 1
  %5 = load %struct.Data*, %struct.Data** %4, align 8
  %6 = bitcast %"class.std::vector.0"* %0 to %"struct.std::_Vector_base.6"*
  %7 = getelementptr inbounds %"struct.std::_Vector_base.6", %"struct.std::_Vector_base.6"* %6, i32 0, i32 0
  %8 = getelementptr inbounds %"struct.std::_Vector_base<Data, std::allocator<Data> >::_Vector_impl", %"struct.std::_Vector_base<Data, std::allocator<Data> >::_Vector_impl"* %7, i32 0, i32 0
  %9 = load %struct.Data*, %struct.Data** %8, align 8
  %10 = ptrtoint %struct.Data* %5 to i64
  %11 = ptrtoint %struct.Data* %9 to i64
  %12 = sub i64 %10, %11
  %13 = sdiv exact i64 %12, 8
  ret i64 %13
}

; Function Attrs: noinline nounwind uwtable
define linkonce_odr dereferenceable(8) %struct.Data* @_ZNSt6vectorI4DataSaIS0_EEixEm(%"class.std::vector.0"* %0, i64 %1) #4 comdat align 2 {
  %3 = bitcast %"class.std::vector.0"* %0 to %"struct.std::_Vector_base.6"*
  %4 = getelementptr inbounds %"struct.std::_Vector_base.6", %"struct.std::_Vector_base.6"* %3, i32 0, i32 0
  %5 = getelementptr inbounds %"struct.std::_Vector_base<Data, std::allocator<Data> >::_Vector_impl", %"struct.std::_Vector_base<Data, std::allocator<Data> >::_Vector_impl"* %4, i32 0, i32 0
  %6 = load %struct.Data*, %struct.Data** %5, align 8
  %7 = getelementptr inbounds %struct.Data, %struct.Data* %6, i64 %1
  ret %struct.Data* %7
}

declare dereferenceable(272) %"class.std::basic_ostream"* @_ZNSolsEx(%"class.std::basic_ostream"*, i64) #1

declare dereferenceable(272) %"class.std::basic_ostream"* @_ZNSolsEPFRSoS_E(%"class.std::basic_ostream"*, %"class.std::basic_ostream"* (%"class.std::basic_ostream"*)*) #1

declare dereferenceable(272) %"class.std::basic_ostream"* @_ZSt4endlIcSt11char_traitsIcEERSt13basic_ostreamIT_T0_ES6_(%"class.std::basic_ostream"* dereferenceable(272)) #1

; Function Attrs: noinline nounwind uwtable
define linkonce_odr void @_ZNSt3setIiSt4lessIiESaIiEED2Ev(%"class.std::set"* %0) unnamed_addr #4 comdat align 2 {
  %2 = getelementptr inbounds %"class.std::set", %"class.std::set"* %0, i32 0, i32 0
  call void @_ZNSt8_Rb_treeIiiSt9_IdentityIiESt4lessIiESaIiEED2Ev(%"class.std::_Rb_tree"* %2) #3
  ret void
}

; Function Attrs: nocallback nofree nosync nounwind willreturn
declare void @llvm.stackrestore(i8*) #7

; Function Attrs: noinline nounwind uwtable
define linkonce_odr void @_ZNSt8_Rb_treeIiiSt9_IdentityIiESt4lessIiESaIiEEC2Ev(%"class.std::_Rb_tree"* %0) unnamed_addr #4 comdat align 2 {
  %2 = getelementptr inbounds %"class.std::_Rb_tree", %"class.std::_Rb_tree"* %0, i32 0, i32 0
  call void @_ZNSt8_Rb_treeIiiSt9_IdentityIiESt4lessIiESaIiEE13_Rb_tree_implIS3_Lb1EEC2Ev(%"struct.std::_Rb_tree<int, int, std::_Identity<int>, std::less<int>, std::allocator<int> >::_Rb_tree_impl"* %2) #3
  ret void
}

; Function Attrs: noinline nounwind uwtable
define linkonce_odr void @_ZNSt8_Rb_treeIiiSt9_IdentityIiESt4lessIiESaIiEE13_Rb_tree_implIS3_Lb1EEC2Ev(%"struct.std::_Rb_tree<int, int, std::_Identity<int>, std::less<int>, std::allocator<int> >::_Rb_tree_impl"* %0) unnamed_addr #4 comdat align 2 {
  %2 = bitcast %"struct.std::_Rb_tree<int, int, std::_Identity<int>, std::less<int>, std::allocator<int> >::_Rb_tree_impl"* %0 to %"class.std::allocator.10"*
  call void @_ZNSaISt13_Rb_tree_nodeIiEEC2Ev(%"class.std::allocator.10"* %2) #3
  %3 = bitcast %"struct.std::_Rb_tree<int, int, std::_Identity<int>, std::less<int>, std::allocator<int> >::_Rb_tree_impl"* %0 to %"struct.std::_Rb_tree_key_compare"*
  call void @_ZNSt20_Rb_tree_key_compareISt4lessIiEEC2Ev(%"struct.std::_Rb_tree_key_compare"* %3) #3
  %4 = bitcast %"struct.std::_Rb_tree<int, int, std::_Identity<int>, std::less<int>, std::allocator<int> >::_Rb_tree_impl"* %0 to i8*
  %5 = getelementptr inbounds i8, i8* %4, i64 8
  %6 = bitcast i8* %5 to %"struct.std::_Rb_tree_header"*
  call void @_ZNSt15_Rb_tree_headerC2Ev(%"struct.std::_Rb_tree_header"* %6) #3
  ret void
}

; Function Attrs: noinline nounwind uwtable
define linkonce_odr void @_ZNSaISt13_Rb_tree_nodeIiEEC2Ev(%"class.std::allocator.10"* %0) unnamed_addr #4 comdat align 2 {
  %2 = bitcast %"class.std::allocator.10"* %0 to %"class.__gnu_cxx::new_allocator.11"*
  call void @_ZN9__gnu_cxx13new_allocatorISt13_Rb_tree_nodeIiEEC2Ev(%"class.__gnu_cxx::new_allocator.11"* %2) #3
  ret void
}

; Function Attrs: noinline nounwind uwtable
define linkonce_odr void @_ZNSt20_Rb_tree_key_compareISt4lessIiEEC2Ev(%"struct.std::_Rb_tree_key_compare"* %0) unnamed_addr #4 comdat align 2 {
  %2 = getelementptr inbounds %"struct.std::_Rb_tree_key_compare", %"struct.std::_Rb_tree_key_compare"* %0, i32 0, i32 0
  ret void
}

; Function Attrs: noinline nounwind uwtable
define linkonce_odr void @_ZNSt15_Rb_tree_headerC2Ev(%"struct.std::_Rb_tree_header"* %0) unnamed_addr #4 comdat align 2 personality i8* bitcast (i32 (...)* @__gxx_personality_v0 to i8*) {
  %2 = getelementptr inbounds %"struct.std::_Rb_tree_header", %"struct.std::_Rb_tree_header"* %0, i32 0, i32 0
  %3 = getelementptr inbounds %"struct.std::_Rb_tree_header", %"struct.std::_Rb_tree_header"* %0, i32 0, i32 0
  %4 = getelementptr inbounds %"struct.std::_Rb_tree_node_base", %"struct.std::_Rb_tree_node_base"* %3, i32 0, i32 0
  store i32 0, i32* %4, align 8
  invoke void @_ZNSt15_Rb_tree_header8_M_resetEv(%"struct.std::_Rb_tree_header"* %0)
          to label %5 unwind label %6

5:                                                ; preds = %1
  ret void

6:                                                ; preds = %1
  %7 = landingpad { i8*, i32 }
          catch i8* null
  %8 = extractvalue { i8*, i32 } %7, 0
  call void @__clang_call_terminate(i8* %8) #16
  unreachable
}

; Function Attrs: noinline nounwind uwtable
define linkonce_odr void @_ZN9__gnu_cxx13new_allocatorISt13_Rb_tree_nodeIiEEC2Ev(%"class.__gnu_cxx::new_allocator.11"* %0) unnamed_addr #4 comdat align 2 {
  ret void
}

; Function Attrs: noinline nounwind uwtable
define linkonce_odr void @_ZNSt15_Rb_tree_header8_M_resetEv(%"struct.std::_Rb_tree_header"* %0) #4 comdat align 2 {
  %2 = getelementptr inbounds %"struct.std::_Rb_tree_header", %"struct.std::_Rb_tree_header"* %0, i32 0, i32 0
  %3 = getelementptr inbounds %"struct.std::_Rb_tree_node_base", %"struct.std::_Rb_tree_node_base"* %2, i32 0, i32 1
  store %"struct.std::_Rb_tree_node_base"* null, %"struct.std::_Rb_tree_node_base"** %3, align 8
  %4 = getelementptr inbounds %"struct.std::_Rb_tree_header", %"struct.std::_Rb_tree_header"* %0, i32 0, i32 0
  %5 = getelementptr inbounds %"struct.std::_Rb_tree_header", %"struct.std::_Rb_tree_header"* %0, i32 0, i32 0
  %6 = getelementptr inbounds %"struct.std::_Rb_tree_node_base", %"struct.std::_Rb_tree_node_base"* %5, i32 0, i32 2
  store %"struct.std::_Rb_tree_node_base"* %4, %"struct.std::_Rb_tree_node_base"** %6, align 8
  %7 = getelementptr inbounds %"struct.std::_Rb_tree_header", %"struct.std::_Rb_tree_header"* %0, i32 0, i32 0
  %8 = getelementptr inbounds %"struct.std::_Rb_tree_header", %"struct.std::_Rb_tree_header"* %0, i32 0, i32 0
  %9 = getelementptr inbounds %"struct.std::_Rb_tree_node_base", %"struct.std::_Rb_tree_node_base"* %8, i32 0, i32 3
  store %"struct.std::_Rb_tree_node_base"* %7, %"struct.std::_Rb_tree_node_base"** %9, align 8
  %10 = getelementptr inbounds %"struct.std::_Rb_tree_header", %"struct.std::_Rb_tree_header"* %0, i32 0, i32 1
  store i64 0, i64* %10, align 8
  ret void
}

; Function Attrs: noinline noreturn nounwind
define linkonce_odr hidden void @__clang_call_terminate(i8* %0) #8 comdat {
  %2 = call i8* @__cxa_begin_catch(i8* %0) #3
  call void @_ZSt9terminatev() #16
  unreachable
}

declare i8* @__cxa_begin_catch(i8*)

declare void @_ZSt9terminatev()

; Function Attrs: noinline nounwind uwtable
define linkonce_odr void @_ZNSt8_Rb_treeIiiSt9_IdentityIiESt4lessIiESaIiEED2Ev(%"class.std::_Rb_tree"* %0) unnamed_addr #4 comdat align 2 personality i8* bitcast (i32 (...)* @__gxx_personality_v0 to i8*) {
  %2 = call %"struct.std::_Rb_tree_node"* @_ZNSt8_Rb_treeIiiSt9_IdentityIiESt4lessIiESaIiEE8_M_beginEv(%"class.std::_Rb_tree"* %0) #3
  invoke void @_ZNSt8_Rb_treeIiiSt9_IdentityIiESt4lessIiESaIiEE8_M_eraseEPSt13_Rb_tree_nodeIiE(%"class.std::_Rb_tree"* %0, %"struct.std::_Rb_tree_node"* %2)
          to label %3 unwind label %5

3:                                                ; preds = %1
  %4 = getelementptr inbounds %"class.std::_Rb_tree", %"class.std::_Rb_tree"* %0, i32 0, i32 0
  call void @_ZNSt8_Rb_treeIiiSt9_IdentityIiESt4lessIiESaIiEE13_Rb_tree_implIS3_Lb1EED2Ev(%"struct.std::_Rb_tree<int, int, std::_Identity<int>, std::less<int>, std::allocator<int> >::_Rb_tree_impl"* %4) #3
  ret void

5:                                                ; preds = %1
  %6 = landingpad { i8*, i32 }
          catch i8* null
  %7 = extractvalue { i8*, i32 } %6, 0
  %8 = extractvalue { i8*, i32 } %6, 1
  %9 = getelementptr inbounds %"class.std::_Rb_tree", %"class.std::_Rb_tree"* %0, i32 0, i32 0
  call void @_ZNSt8_Rb_treeIiiSt9_IdentityIiESt4lessIiESaIiEE13_Rb_tree_implIS3_Lb1EED2Ev(%"struct.std::_Rb_tree<int, int, std::_Identity<int>, std::less<int>, std::allocator<int> >::_Rb_tree_impl"* %9) #3
  br label %10

10:                                               ; preds = %5
  call void @__clang_call_terminate(i8* %7) #16
  unreachable
}

; Function Attrs: noinline uwtable
define linkonce_odr void @_ZNSt8_Rb_treeIiiSt9_IdentityIiESt4lessIiESaIiEE8_M_eraseEPSt13_Rb_tree_nodeIiE(%"class.std::_Rb_tree"* %0, %"struct.std::_Rb_tree_node"* %1) #0 comdat align 2 {
  br label %3

3:                                                ; preds = %5, %2
  %.0 = phi %"struct.std::_Rb_tree_node"* [ %1, %2 ], [ %9, %5 ]
  %4 = icmp ne %"struct.std::_Rb_tree_node"* %.0, null
  br i1 %4, label %5, label %10

5:                                                ; preds = %3
  %6 = bitcast %"struct.std::_Rb_tree_node"* %.0 to %"struct.std::_Rb_tree_node_base"*
  %7 = call %"struct.std::_Rb_tree_node"* @_ZNSt8_Rb_treeIiiSt9_IdentityIiESt4lessIiESaIiEE8_S_rightEPSt18_Rb_tree_node_base(%"struct.std::_Rb_tree_node_base"* %6) #3
  call void @_ZNSt8_Rb_treeIiiSt9_IdentityIiESt4lessIiESaIiEE8_M_eraseEPSt13_Rb_tree_nodeIiE(%"class.std::_Rb_tree"* %0, %"struct.std::_Rb_tree_node"* %7)
  %8 = bitcast %"struct.std::_Rb_tree_node"* %.0 to %"struct.std::_Rb_tree_node_base"*
  %9 = call %"struct.std::_Rb_tree_node"* @_ZNSt8_Rb_treeIiiSt9_IdentityIiESt4lessIiESaIiEE7_S_leftEPSt18_Rb_tree_node_base(%"struct.std::_Rb_tree_node_base"* %8) #3
  call void @_ZNSt8_Rb_treeIiiSt9_IdentityIiESt4lessIiESaIiEE12_M_drop_nodeEPSt13_Rb_tree_nodeIiE(%"class.std::_Rb_tree"* %0, %"struct.std::_Rb_tree_node"* %.0) #3
  br label %3

10:                                               ; preds = %3
  ret void
}

; Function Attrs: noinline nounwind uwtable
define linkonce_odr %"struct.std::_Rb_tree_node"* @_ZNSt8_Rb_treeIiiSt9_IdentityIiESt4lessIiESaIiEE8_M_beginEv(%"class.std::_Rb_tree"* %0) #4 comdat align 2 {
  %2 = getelementptr inbounds %"class.std::_Rb_tree", %"class.std::_Rb_tree"* %0, i32 0, i32 0
  %3 = bitcast %"struct.std::_Rb_tree<int, int, std::_Identity<int>, std::less<int>, std::allocator<int> >::_Rb_tree_impl"* %2 to i8*
  %4 = getelementptr inbounds i8, i8* %3, i64 8
  %5 = bitcast i8* %4 to %"struct.std::_Rb_tree_header"*
  %6 = getelementptr inbounds %"struct.std::_Rb_tree_header", %"struct.std::_Rb_tree_header"* %5, i32 0, i32 0
  %7 = getelementptr inbounds %"struct.std::_Rb_tree_node_base", %"struct.std::_Rb_tree_node_base"* %6, i32 0, i32 1
  %8 = load %"struct.std::_Rb_tree_node_base"*, %"struct.std::_Rb_tree_node_base"** %7, align 8
  %9 = bitcast %"struct.std::_Rb_tree_node_base"* %8 to %"struct.std::_Rb_tree_node"*
  ret %"struct.std::_Rb_tree_node"* %9
}

; Function Attrs: noinline nounwind uwtable
define linkonce_odr void @_ZNSt8_Rb_treeIiiSt9_IdentityIiESt4lessIiESaIiEE13_Rb_tree_implIS3_Lb1EED2Ev(%"struct.std::_Rb_tree<int, int, std::_Identity<int>, std::less<int>, std::allocator<int> >::_Rb_tree_impl"* %0) unnamed_addr #4 comdat align 2 {
  %2 = bitcast %"struct.std::_Rb_tree<int, int, std::_Identity<int>, std::less<int>, std::allocator<int> >::_Rb_tree_impl"* %0 to %"class.std::allocator.10"*
  call void @_ZNSaISt13_Rb_tree_nodeIiEED2Ev(%"class.std::allocator.10"* %2) #3
  ret void
}

; Function Attrs: noinline nounwind uwtable
define linkonce_odr %"struct.std::_Rb_tree_node"* @_ZNSt8_Rb_treeIiiSt9_IdentityIiESt4lessIiESaIiEE8_S_rightEPSt18_Rb_tree_node_base(%"struct.std::_Rb_tree_node_base"* %0) #4 comdat align 2 {
  %2 = getelementptr inbounds %"struct.std::_Rb_tree_node_base", %"struct.std::_Rb_tree_node_base"* %0, i32 0, i32 3
  %3 = load %"struct.std::_Rb_tree_node_base"*, %"struct.std::_Rb_tree_node_base"** %2, align 8
  %4 = bitcast %"struct.std::_Rb_tree_node_base"* %3 to %"struct.std::_Rb_tree_node"*
  ret %"struct.std::_Rb_tree_node"* %4
}

; Function Attrs: noinline nounwind uwtable
define linkonce_odr %"struct.std::_Rb_tree_node"* @_ZNSt8_Rb_treeIiiSt9_IdentityIiESt4lessIiESaIiEE7_S_leftEPSt18_Rb_tree_node_base(%"struct.std::_Rb_tree_node_base"* %0) #4 comdat align 2 {
  %2 = getelementptr inbounds %"struct.std::_Rb_tree_node_base", %"struct.std::_Rb_tree_node_base"* %0, i32 0, i32 2
  %3 = load %"struct.std::_Rb_tree_node_base"*, %"struct.std::_Rb_tree_node_base"** %2, align 8
  %4 = bitcast %"struct.std::_Rb_tree_node_base"* %3 to %"struct.std::_Rb_tree_node"*
  ret %"struct.std::_Rb_tree_node"* %4
}

; Function Attrs: noinline nounwind uwtable
define linkonce_odr void @_ZNSt8_Rb_treeIiiSt9_IdentityIiESt4lessIiESaIiEE12_M_drop_nodeEPSt13_Rb_tree_nodeIiE(%"class.std::_Rb_tree"* %0, %"struct.std::_Rb_tree_node"* %1) #4 comdat align 2 {
  call void @_ZNSt8_Rb_treeIiiSt9_IdentityIiESt4lessIiESaIiEE15_M_destroy_nodeEPSt13_Rb_tree_nodeIiE(%"class.std::_Rb_tree"* %0, %"struct.std::_Rb_tree_node"* %1) #3
  call void @_ZNSt8_Rb_treeIiiSt9_IdentityIiESt4lessIiESaIiEE11_M_put_nodeEPSt13_Rb_tree_nodeIiE(%"class.std::_Rb_tree"* %0, %"struct.std::_Rb_tree_node"* %1) #3
  ret void
}

; Function Attrs: noinline nounwind uwtable
define linkonce_odr void @_ZNSt8_Rb_treeIiiSt9_IdentityIiESt4lessIiESaIiEE15_M_destroy_nodeEPSt13_Rb_tree_nodeIiE(%"class.std::_Rb_tree"* %0, %"struct.std::_Rb_tree_node"* %1) #4 comdat align 2 personality i8* bitcast (i32 (...)* @__gxx_personality_v0 to i8*) {
  %3 = call dereferenceable(1) %"class.std::allocator.10"* @_ZNSt8_Rb_treeIiiSt9_IdentityIiESt4lessIiESaIiEE21_M_get_Node_allocatorEv(%"class.std::_Rb_tree"* %0) #3
  %4 = invoke i32* @_ZNSt13_Rb_tree_nodeIiE9_M_valptrEv(%"struct.std::_Rb_tree_node"* %1)
          to label %5 unwind label %7

5:                                                ; preds = %2
  invoke void @_ZNSt16allocator_traitsISaISt13_Rb_tree_nodeIiEEE7destroyIiEEvRS2_PT_(%"class.std::allocator.10"* dereferenceable(1) %3, i32* %4)
          to label %6 unwind label %7

6:                                                ; preds = %5
  ret void

7:                                                ; preds = %5, %2
  %8 = landingpad { i8*, i32 }
          catch i8* null
  %9 = extractvalue { i8*, i32 } %8, 0
  call void @__clang_call_terminate(i8* %9) #16
  unreachable
}

; Function Attrs: noinline nounwind uwtable
define linkonce_odr void @_ZNSt8_Rb_treeIiiSt9_IdentityIiESt4lessIiESaIiEE11_M_put_nodeEPSt13_Rb_tree_nodeIiE(%"class.std::_Rb_tree"* %0, %"struct.std::_Rb_tree_node"* %1) #4 comdat align 2 personality i8* bitcast (i32 (...)* @__gxx_personality_v0 to i8*) {
  %3 = call dereferenceable(1) %"class.std::allocator.10"* @_ZNSt8_Rb_treeIiiSt9_IdentityIiESt4lessIiESaIiEE21_M_get_Node_allocatorEv(%"class.std::_Rb_tree"* %0) #3
  invoke void @_ZNSt16allocator_traitsISaISt13_Rb_tree_nodeIiEEE10deallocateERS2_PS1_m(%"class.std::allocator.10"* dereferenceable(1) %3, %"struct.std::_Rb_tree_node"* %1, i64 1)
          to label %4 unwind label %5

4:                                                ; preds = %2
  ret void

5:                                                ; preds = %2
  %6 = landingpad { i8*, i32 }
          catch i8* null
  %7 = extractvalue { i8*, i32 } %6, 0
  call void @__clang_call_terminate(i8* %7) #16
  unreachable
}

; Function Attrs: noinline uwtable
define linkonce_odr void @_ZNSt16allocator_traitsISaISt13_Rb_tree_nodeIiEEE7destroyIiEEvRS2_PT_(%"class.std::allocator.10"* dereferenceable(1) %0, i32* %1) #0 comdat align 2 {
  %3 = bitcast %"class.std::allocator.10"* %0 to %"class.__gnu_cxx::new_allocator.11"*
  call void @_ZN9__gnu_cxx13new_allocatorISt13_Rb_tree_nodeIiEE7destroyIiEEvPT_(%"class.__gnu_cxx::new_allocator.11"* %3, i32* %1)
  ret void
}

; Function Attrs: noinline nounwind uwtable
define linkonce_odr dereferenceable(1) %"class.std::allocator.10"* @_ZNSt8_Rb_treeIiiSt9_IdentityIiESt4lessIiESaIiEE21_M_get_Node_allocatorEv(%"class.std::_Rb_tree"* %0) #4 comdat align 2 {
  %2 = getelementptr inbounds %"class.std::_Rb_tree", %"class.std::_Rb_tree"* %0, i32 0, i32 0
  %3 = bitcast %"struct.std::_Rb_tree<int, int, std::_Identity<int>, std::less<int>, std::allocator<int> >::_Rb_tree_impl"* %2 to %"class.std::allocator.10"*
  ret %"class.std::allocator.10"* %3
}

; Function Attrs: noinline nounwind uwtable
define linkonce_odr i32* @_ZNSt13_Rb_tree_nodeIiE9_M_valptrEv(%"struct.std::_Rb_tree_node"* %0) #4 comdat align 2 {
  %2 = getelementptr inbounds %"struct.std::_Rb_tree_node", %"struct.std::_Rb_tree_node"* %0, i32 0, i32 1
  %3 = call i32* @_ZN9__gnu_cxx16__aligned_membufIiE6_M_ptrEv(%"struct.__gnu_cxx::__aligned_membuf"* %2) #3
  ret i32* %3
}

; Function Attrs: noinline nounwind uwtable
define linkonce_odr void @_ZN9__gnu_cxx13new_allocatorISt13_Rb_tree_nodeIiEE7destroyIiEEvPT_(%"class.__gnu_cxx::new_allocator.11"* %0, i32* %1) #4 comdat align 2 {
  ret void
}

; Function Attrs: noinline nounwind uwtable
define linkonce_odr i32* @_ZN9__gnu_cxx16__aligned_membufIiE6_M_ptrEv(%"struct.__gnu_cxx::__aligned_membuf"* %0) #4 comdat align 2 {
  %2 = call i8* @_ZN9__gnu_cxx16__aligned_membufIiE7_M_addrEv(%"struct.__gnu_cxx::__aligned_membuf"* %0) #3
  %3 = bitcast i8* %2 to i32*
  ret i32* %3
}

; Function Attrs: noinline nounwind uwtable
define linkonce_odr i8* @_ZN9__gnu_cxx16__aligned_membufIiE7_M_addrEv(%"struct.__gnu_cxx::__aligned_membuf"* %0) #4 comdat align 2 {
  %2 = getelementptr inbounds %"struct.__gnu_cxx::__aligned_membuf", %"struct.__gnu_cxx::__aligned_membuf"* %0, i32 0, i32 0
  %3 = bitcast [4 x i8]* %2 to i8*
  ret i8* %3
}

; Function Attrs: noinline uwtable
define linkonce_odr void @_ZNSt16allocator_traitsISaISt13_Rb_tree_nodeIiEEE10deallocateERS2_PS1_m(%"class.std::allocator.10"* dereferenceable(1) %0, %"struct.std::_Rb_tree_node"* %1, i64 %2) #0 comdat align 2 {
  %4 = bitcast %"class.std::allocator.10"* %0 to %"class.__gnu_cxx::new_allocator.11"*
  call void @_ZN9__gnu_cxx13new_allocatorISt13_Rb_tree_nodeIiEE10deallocateEPS2_m(%"class.__gnu_cxx::new_allocator.11"* %4, %"struct.std::_Rb_tree_node"* %1, i64 %2)
  ret void
}

; Function Attrs: noinline nounwind uwtable
define linkonce_odr void @_ZN9__gnu_cxx13new_allocatorISt13_Rb_tree_nodeIiEE10deallocateEPS2_m(%"class.__gnu_cxx::new_allocator.11"* %0, %"struct.std::_Rb_tree_node"* %1, i64 %2) #4 comdat align 2 {
  %4 = bitcast %"struct.std::_Rb_tree_node"* %1 to i8*
  call void @_ZdlPv(i8* %4) #3
  ret void
}

; Function Attrs: nobuiltin nounwind
declare void @_ZdlPv(i8*) #9

; Function Attrs: noinline nounwind uwtable
define linkonce_odr void @_ZNSaISt13_Rb_tree_nodeIiEED2Ev(%"class.std::allocator.10"* %0) unnamed_addr #4 comdat align 2 {
  %2 = bitcast %"class.std::allocator.10"* %0 to %"class.__gnu_cxx::new_allocator.11"*
  call void @_ZN9__gnu_cxx13new_allocatorISt13_Rb_tree_nodeIiEED2Ev(%"class.__gnu_cxx::new_allocator.11"* %2) #3
  ret void
}

; Function Attrs: noinline nounwind uwtable
define linkonce_odr void @_ZN9__gnu_cxx13new_allocatorISt13_Rb_tree_nodeIiEED2Ev(%"class.__gnu_cxx::new_allocator.11"* %0) unnamed_addr #4 comdat align 2 {
  ret void
}

; Function Attrs: noinline uwtable
define linkonce_odr void @_ZNSt12_Vector_baseISt6vectorI4DataSaIS1_EESaIS3_EEC2Ev(%"struct.std::_Vector_base"* %0) unnamed_addr #0 comdat align 2 {
  %2 = getelementptr inbounds %"struct.std::_Vector_base", %"struct.std::_Vector_base"* %0, i32 0, i32 0
  call void @_ZNSt12_Vector_baseISt6vectorI4DataSaIS1_EESaIS3_EE12_Vector_implC2Ev(%"struct.std::_Vector_base<std::vector<Data, std::allocator<Data> >, std::allocator<std::vector<Data, std::allocator<Data> > > >::_Vector_impl"* %2)
  ret void
}

; Function Attrs: noinline nounwind uwtable
define linkonce_odr void @_ZNSt12_Vector_baseISt6vectorI4DataSaIS1_EESaIS3_EE12_Vector_implC2Ev(%"struct.std::_Vector_base<std::vector<Data, std::allocator<Data> >, std::allocator<std::vector<Data, std::allocator<Data> > > >::_Vector_impl"* %0) unnamed_addr #4 comdat align 2 {
  %2 = bitcast %"struct.std::_Vector_base<std::vector<Data, std::allocator<Data> >, std::allocator<std::vector<Data, std::allocator<Data> > > >::_Vector_impl"* %0 to %"class.std::allocator"*
  call void @_ZNSaISt6vectorI4DataSaIS0_EEEC2Ev(%"class.std::allocator"* %2) #3
  %3 = getelementptr inbounds %"struct.std::_Vector_base<std::vector<Data, std::allocator<Data> >, std::allocator<std::vector<Data, std::allocator<Data> > > >::_Vector_impl", %"struct.std::_Vector_base<std::vector<Data, std::allocator<Data> >, std::allocator<std::vector<Data, std::allocator<Data> > > >::_Vector_impl"* %0, i32 0, i32 0
  store %"class.std::vector.0"* null, %"class.std::vector.0"** %3, align 8
  %4 = getelementptr inbounds %"struct.std::_Vector_base<std::vector<Data, std::allocator<Data> >, std::allocator<std::vector<Data, std::allocator<Data> > > >::_Vector_impl", %"struct.std::_Vector_base<std::vector<Data, std::allocator<Data> >, std::allocator<std::vector<Data, std::allocator<Data> > > >::_Vector_impl"* %0, i32 0, i32 1
  store %"class.std::vector.0"* null, %"class.std::vector.0"** %4, align 8
  %5 = getelementptr inbounds %"struct.std::_Vector_base<std::vector<Data, std::allocator<Data> >, std::allocator<std::vector<Data, std::allocator<Data> > > >::_Vector_impl", %"struct.std::_Vector_base<std::vector<Data, std::allocator<Data> >, std::allocator<std::vector<Data, std::allocator<Data> > > >::_Vector_impl"* %0, i32 0, i32 2
  store %"class.std::vector.0"* null, %"class.std::vector.0"** %5, align 8
  ret void
}

; Function Attrs: noinline nounwind uwtable
define linkonce_odr void @_ZNSaISt6vectorI4DataSaIS0_EEEC2Ev(%"class.std::allocator"* %0) unnamed_addr #4 comdat align 2 {
  %2 = bitcast %"class.std::allocator"* %0 to %"class.__gnu_cxx::new_allocator"*
  call void @_ZN9__gnu_cxx13new_allocatorISt6vectorI4DataSaIS2_EEEC2Ev(%"class.__gnu_cxx::new_allocator"* %2) #3
  ret void
}

; Function Attrs: noinline nounwind uwtable
define linkonce_odr void @_ZN9__gnu_cxx13new_allocatorISt6vectorI4DataSaIS2_EEEC2Ev(%"class.__gnu_cxx::new_allocator"* %0) unnamed_addr #4 comdat align 2 {
  ret void
}

; Function Attrs: noinline uwtable
define linkonce_odr void @_ZSt8_DestroyIPSt6vectorI4DataSaIS1_EES3_EvT_S5_RSaIT0_E(%"class.std::vector.0"* %0, %"class.std::vector.0"* %1, %"class.std::allocator"* dereferenceable(1) %2) #0 comdat {
  call void @_ZSt8_DestroyIPSt6vectorI4DataSaIS1_EEEvT_S5_(%"class.std::vector.0"* %0, %"class.std::vector.0"* %1)
  ret void
}

; Function Attrs: noinline nounwind uwtable
define linkonce_odr dereferenceable(1) %"class.std::allocator"* @_ZNSt12_Vector_baseISt6vectorI4DataSaIS1_EESaIS3_EE19_M_get_Tp_allocatorEv(%"struct.std::_Vector_base"* %0) #4 comdat align 2 {
  %2 = getelementptr inbounds %"struct.std::_Vector_base", %"struct.std::_Vector_base"* %0, i32 0, i32 0
  %3 = bitcast %"struct.std::_Vector_base<std::vector<Data, std::allocator<Data> >, std::allocator<std::vector<Data, std::allocator<Data> > > >::_Vector_impl"* %2 to %"class.std::allocator"*
  ret %"class.std::allocator"* %3
}

; Function Attrs: noinline nounwind uwtable
define linkonce_odr void @_ZNSt12_Vector_baseISt6vectorI4DataSaIS1_EESaIS3_EED2Ev(%"struct.std::_Vector_base"* %0) unnamed_addr #4 comdat align 2 personality i8* bitcast (i32 (...)* @__gxx_personality_v0 to i8*) {
  %2 = getelementptr inbounds %"struct.std::_Vector_base", %"struct.std::_Vector_base"* %0, i32 0, i32 0
  %3 = getelementptr inbounds %"struct.std::_Vector_base<std::vector<Data, std::allocator<Data> >, std::allocator<std::vector<Data, std::allocator<Data> > > >::_Vector_impl", %"struct.std::_Vector_base<std::vector<Data, std::allocator<Data> >, std::allocator<std::vector<Data, std::allocator<Data> > > >::_Vector_impl"* %2, i32 0, i32 0
  %4 = load %"class.std::vector.0"*, %"class.std::vector.0"** %3, align 8
  %5 = getelementptr inbounds %"struct.std::_Vector_base", %"struct.std::_Vector_base"* %0, i32 0, i32 0
  %6 = getelementptr inbounds %"struct.std::_Vector_base<std::vector<Data, std::allocator<Data> >, std::allocator<std::vector<Data, std::allocator<Data> > > >::_Vector_impl", %"struct.std::_Vector_base<std::vector<Data, std::allocator<Data> >, std::allocator<std::vector<Data, std::allocator<Data> > > >::_Vector_impl"* %5, i32 0, i32 2
  %7 = load %"class.std::vector.0"*, %"class.std::vector.0"** %6, align 8
  %8 = getelementptr inbounds %"struct.std::_Vector_base", %"struct.std::_Vector_base"* %0, i32 0, i32 0
  %9 = getelementptr inbounds %"struct.std::_Vector_base<std::vector<Data, std::allocator<Data> >, std::allocator<std::vector<Data, std::allocator<Data> > > >::_Vector_impl", %"struct.std::_Vector_base<std::vector<Data, std::allocator<Data> >, std::allocator<std::vector<Data, std::allocator<Data> > > >::_Vector_impl"* %8, i32 0, i32 0
  %10 = load %"class.std::vector.0"*, %"class.std::vector.0"** %9, align 8
  %11 = ptrtoint %"class.std::vector.0"* %7 to i64
  %12 = ptrtoint %"class.std::vector.0"* %10 to i64
  %13 = sub i64 %11, %12
  %14 = sdiv exact i64 %13, 24
  invoke void @_ZNSt12_Vector_baseISt6vectorI4DataSaIS1_EESaIS3_EE13_M_deallocateEPS3_m(%"struct.std::_Vector_base"* %0, %"class.std::vector.0"* %4, i64 %14)
          to label %15 unwind label %17

15:                                               ; preds = %1
  %16 = getelementptr inbounds %"struct.std::_Vector_base", %"struct.std::_Vector_base"* %0, i32 0, i32 0
  call void @_ZNSt12_Vector_baseISt6vectorI4DataSaIS1_EESaIS3_EE12_Vector_implD2Ev(%"struct.std::_Vector_base<std::vector<Data, std::allocator<Data> >, std::allocator<std::vector<Data, std::allocator<Data> > > >::_Vector_impl"* %16) #3
  ret void

17:                                               ; preds = %1
  %18 = landingpad { i8*, i32 }
          catch i8* null
  %19 = extractvalue { i8*, i32 } %18, 0
  %20 = extractvalue { i8*, i32 } %18, 1
  %21 = getelementptr inbounds %"struct.std::_Vector_base", %"struct.std::_Vector_base"* %0, i32 0, i32 0
  call void @_ZNSt12_Vector_baseISt6vectorI4DataSaIS1_EESaIS3_EE12_Vector_implD2Ev(%"struct.std::_Vector_base<std::vector<Data, std::allocator<Data> >, std::allocator<std::vector<Data, std::allocator<Data> > > >::_Vector_impl"* %21) #3
  br label %22

22:                                               ; preds = %17
  call void @__clang_call_terminate(i8* %19) #16
  unreachable
}

; Function Attrs: noinline uwtable
define linkonce_odr void @_ZSt8_DestroyIPSt6vectorI4DataSaIS1_EEEvT_S5_(%"class.std::vector.0"* %0, %"class.std::vector.0"* %1) #0 comdat {
  call void @_ZNSt12_Destroy_auxILb0EE9__destroyIPSt6vectorI4DataSaIS3_EEEEvT_S7_(%"class.std::vector.0"* %0, %"class.std::vector.0"* %1)
  ret void
}

; Function Attrs: noinline uwtable
define linkonce_odr void @_ZNSt12_Destroy_auxILb0EE9__destroyIPSt6vectorI4DataSaIS3_EEEEvT_S7_(%"class.std::vector.0"* %0, %"class.std::vector.0"* %1) #0 comdat align 2 {
  br label %3

3:                                                ; preds = %7, %2
  %.0 = phi %"class.std::vector.0"* [ %0, %2 ], [ %8, %7 ]
  %4 = icmp ne %"class.std::vector.0"* %.0, %1
  br i1 %4, label %5, label %9

5:                                                ; preds = %3
  %6 = call %"class.std::vector.0"* @_ZSt11__addressofISt6vectorI4DataSaIS1_EEEPT_RS4_(%"class.std::vector.0"* dereferenceable(24) %.0) #3
  call void @_ZSt8_DestroyISt6vectorI4DataSaIS1_EEEvPT_(%"class.std::vector.0"* %6)
  br label %7

7:                                                ; preds = %5
  %8 = getelementptr inbounds %"class.std::vector.0", %"class.std::vector.0"* %.0, i32 1
  br label %3

9:                                                ; preds = %3
  ret void
}

; Function Attrs: noinline nounwind uwtable
define linkonce_odr void @_ZSt8_DestroyISt6vectorI4DataSaIS1_EEEvPT_(%"class.std::vector.0"* %0) #4 comdat {
  call void @_ZNSt6vectorI4DataSaIS0_EED2Ev(%"class.std::vector.0"* %0) #3
  ret void
}

; Function Attrs: noinline nounwind uwtable
define linkonce_odr %"class.std::vector.0"* @_ZSt11__addressofISt6vectorI4DataSaIS1_EEEPT_RS4_(%"class.std::vector.0"* dereferenceable(24) %0) #4 comdat {
  ret %"class.std::vector.0"* %0
}

; Function Attrs: noinline nounwind uwtable
define linkonce_odr void @_ZNSt6vectorI4DataSaIS0_EED2Ev(%"class.std::vector.0"* %0) unnamed_addr #4 comdat align 2 personality i8* bitcast (i32 (...)* @__gxx_personality_v0 to i8*) {
  %2 = bitcast %"class.std::vector.0"* %0 to %"struct.std::_Vector_base.6"*
  %3 = getelementptr inbounds %"struct.std::_Vector_base.6", %"struct.std::_Vector_base.6"* %2, i32 0, i32 0
  %4 = getelementptr inbounds %"struct.std::_Vector_base<Data, std::allocator<Data> >::_Vector_impl", %"struct.std::_Vector_base<Data, std::allocator<Data> >::_Vector_impl"* %3, i32 0, i32 0
  %5 = load %struct.Data*, %struct.Data** %4, align 8
  %6 = bitcast %"class.std::vector.0"* %0 to %"struct.std::_Vector_base.6"*
  %7 = getelementptr inbounds %"struct.std::_Vector_base.6", %"struct.std::_Vector_base.6"* %6, i32 0, i32 0
  %8 = getelementptr inbounds %"struct.std::_Vector_base<Data, std::allocator<Data> >::_Vector_impl", %"struct.std::_Vector_base<Data, std::allocator<Data> >::_Vector_impl"* %7, i32 0, i32 1
  %9 = load %struct.Data*, %struct.Data** %8, align 8
  %10 = bitcast %"class.std::vector.0"* %0 to %"struct.std::_Vector_base.6"*
  %11 = call dereferenceable(1) %"class.std::allocator.7"* @_ZNSt12_Vector_baseI4DataSaIS0_EE19_M_get_Tp_allocatorEv(%"struct.std::_Vector_base.6"* %10) #3
  invoke void @_ZSt8_DestroyIP4DataS0_EvT_S2_RSaIT0_E(%struct.Data* %5, %struct.Data* %9, %"class.std::allocator.7"* dereferenceable(1) %11)
          to label %12 unwind label %14

12:                                               ; preds = %1
  %13 = bitcast %"class.std::vector.0"* %0 to %"struct.std::_Vector_base.6"*
  call void @_ZNSt12_Vector_baseI4DataSaIS0_EED2Ev(%"struct.std::_Vector_base.6"* %13) #3
  ret void

14:                                               ; preds = %1
  %15 = landingpad { i8*, i32 }
          catch i8* null
  %16 = extractvalue { i8*, i32 } %15, 0
  %17 = extractvalue { i8*, i32 } %15, 1
  %18 = bitcast %"class.std::vector.0"* %0 to %"struct.std::_Vector_base.6"*
  call void @_ZNSt12_Vector_baseI4DataSaIS0_EED2Ev(%"struct.std::_Vector_base.6"* %18) #3
  br label %19

19:                                               ; preds = %14
  call void @__clang_call_terminate(i8* %16) #16
  unreachable
}

; Function Attrs: noinline uwtable
define linkonce_odr void @_ZSt8_DestroyIP4DataS0_EvT_S2_RSaIT0_E(%struct.Data* %0, %struct.Data* %1, %"class.std::allocator.7"* dereferenceable(1) %2) #0 comdat {
  call void @_ZSt8_DestroyIP4DataEvT_S2_(%struct.Data* %0, %struct.Data* %1)
  ret void
}

; Function Attrs: noinline nounwind uwtable
define linkonce_odr dereferenceable(1) %"class.std::allocator.7"* @_ZNSt12_Vector_baseI4DataSaIS0_EE19_M_get_Tp_allocatorEv(%"struct.std::_Vector_base.6"* %0) #4 comdat align 2 {
  %2 = getelementptr inbounds %"struct.std::_Vector_base.6", %"struct.std::_Vector_base.6"* %0, i32 0, i32 0
  %3 = bitcast %"struct.std::_Vector_base<Data, std::allocator<Data> >::_Vector_impl"* %2 to %"class.std::allocator.7"*
  ret %"class.std::allocator.7"* %3
}

; Function Attrs: noinline nounwind uwtable
define linkonce_odr void @_ZNSt12_Vector_baseI4DataSaIS0_EED2Ev(%"struct.std::_Vector_base.6"* %0) unnamed_addr #4 comdat align 2 personality i8* bitcast (i32 (...)* @__gxx_personality_v0 to i8*) {
  %2 = getelementptr inbounds %"struct.std::_Vector_base.6", %"struct.std::_Vector_base.6"* %0, i32 0, i32 0
  %3 = getelementptr inbounds %"struct.std::_Vector_base<Data, std::allocator<Data> >::_Vector_impl", %"struct.std::_Vector_base<Data, std::allocator<Data> >::_Vector_impl"* %2, i32 0, i32 0
  %4 = load %struct.Data*, %struct.Data** %3, align 8
  %5 = getelementptr inbounds %"struct.std::_Vector_base.6", %"struct.std::_Vector_base.6"* %0, i32 0, i32 0
  %6 = getelementptr inbounds %"struct.std::_Vector_base<Data, std::allocator<Data> >::_Vector_impl", %"struct.std::_Vector_base<Data, std::allocator<Data> >::_Vector_impl"* %5, i32 0, i32 2
  %7 = load %struct.Data*, %struct.Data** %6, align 8
  %8 = getelementptr inbounds %"struct.std::_Vector_base.6", %"struct.std::_Vector_base.6"* %0, i32 0, i32 0
  %9 = getelementptr inbounds %"struct.std::_Vector_base<Data, std::allocator<Data> >::_Vector_impl", %"struct.std::_Vector_base<Data, std::allocator<Data> >::_Vector_impl"* %8, i32 0, i32 0
  %10 = load %struct.Data*, %struct.Data** %9, align 8
  %11 = ptrtoint %struct.Data* %7 to i64
  %12 = ptrtoint %struct.Data* %10 to i64
  %13 = sub i64 %11, %12
  %14 = sdiv exact i64 %13, 8
  invoke void @_ZNSt12_Vector_baseI4DataSaIS0_EE13_M_deallocateEPS0_m(%"struct.std::_Vector_base.6"* %0, %struct.Data* %4, i64 %14)
          to label %15 unwind label %17

15:                                               ; preds = %1
  %16 = getelementptr inbounds %"struct.std::_Vector_base.6", %"struct.std::_Vector_base.6"* %0, i32 0, i32 0
  call void @_ZNSt12_Vector_baseI4DataSaIS0_EE12_Vector_implD2Ev(%"struct.std::_Vector_base<Data, std::allocator<Data> >::_Vector_impl"* %16) #3
  ret void

17:                                               ; preds = %1
  %18 = landingpad { i8*, i32 }
          catch i8* null
  %19 = extractvalue { i8*, i32 } %18, 0
  %20 = extractvalue { i8*, i32 } %18, 1
  %21 = getelementptr inbounds %"struct.std::_Vector_base.6", %"struct.std::_Vector_base.6"* %0, i32 0, i32 0
  call void @_ZNSt12_Vector_baseI4DataSaIS0_EE12_Vector_implD2Ev(%"struct.std::_Vector_base<Data, std::allocator<Data> >::_Vector_impl"* %21) #3
  br label %22

22:                                               ; preds = %17
  call void @__clang_call_terminate(i8* %19) #16
  unreachable
}

; Function Attrs: noinline uwtable
define linkonce_odr void @_ZSt8_DestroyIP4DataEvT_S2_(%struct.Data* %0, %struct.Data* %1) #0 comdat {
  call void @_ZNSt12_Destroy_auxILb1EE9__destroyIP4DataEEvT_S4_(%struct.Data* %0, %struct.Data* %1)
  ret void
}

; Function Attrs: noinline nounwind uwtable
define linkonce_odr void @_ZNSt12_Destroy_auxILb1EE9__destroyIP4DataEEvT_S4_(%struct.Data* %0, %struct.Data* %1) #4 comdat align 2 {
  ret void
}

; Function Attrs: noinline uwtable
define linkonce_odr void @_ZNSt12_Vector_baseI4DataSaIS0_EE13_M_deallocateEPS0_m(%"struct.std::_Vector_base.6"* %0, %struct.Data* %1, i64 %2) #0 comdat align 2 {
  %4 = icmp ne %struct.Data* %1, null
  br i1 %4, label %5, label %8

5:                                                ; preds = %3
  %6 = getelementptr inbounds %"struct.std::_Vector_base.6", %"struct.std::_Vector_base.6"* %0, i32 0, i32 0
  %7 = bitcast %"struct.std::_Vector_base<Data, std::allocator<Data> >::_Vector_impl"* %6 to %"class.std::allocator.7"*
  call void @_ZNSt16allocator_traitsISaI4DataEE10deallocateERS1_PS0_m(%"class.std::allocator.7"* dereferenceable(1) %7, %struct.Data* %1, i64 %2)
  br label %8

8:                                                ; preds = %5, %3
  ret void
}

; Function Attrs: noinline nounwind uwtable
define linkonce_odr void @_ZNSt12_Vector_baseI4DataSaIS0_EE12_Vector_implD2Ev(%"struct.std::_Vector_base<Data, std::allocator<Data> >::_Vector_impl"* %0) unnamed_addr #4 comdat align 2 {
  %2 = bitcast %"struct.std::_Vector_base<Data, std::allocator<Data> >::_Vector_impl"* %0 to %"class.std::allocator.7"*
  call void @_ZNSaI4DataED2Ev(%"class.std::allocator.7"* %2) #3
  ret void
}

; Function Attrs: noinline uwtable
define linkonce_odr void @_ZNSt16allocator_traitsISaI4DataEE10deallocateERS1_PS0_m(%"class.std::allocator.7"* dereferenceable(1) %0, %struct.Data* %1, i64 %2) #0 comdat align 2 {
  %4 = bitcast %"class.std::allocator.7"* %0 to %"class.__gnu_cxx::new_allocator.8"*
  call void @_ZN9__gnu_cxx13new_allocatorI4DataE10deallocateEPS1_m(%"class.__gnu_cxx::new_allocator.8"* %4, %struct.Data* %1, i64 %2)
  ret void
}

; Function Attrs: noinline nounwind uwtable
define linkonce_odr void @_ZN9__gnu_cxx13new_allocatorI4DataE10deallocateEPS1_m(%"class.__gnu_cxx::new_allocator.8"* %0, %struct.Data* %1, i64 %2) #4 comdat align 2 {
  %4 = bitcast %struct.Data* %1 to i8*
  call void @_ZdlPv(i8* %4) #3
  ret void
}

; Function Attrs: noinline nounwind uwtable
define linkonce_odr void @_ZNSaI4DataED2Ev(%"class.std::allocator.7"* %0) unnamed_addr #4 comdat align 2 {
  %2 = bitcast %"class.std::allocator.7"* %0 to %"class.__gnu_cxx::new_allocator.8"*
  call void @_ZN9__gnu_cxx13new_allocatorI4DataED2Ev(%"class.__gnu_cxx::new_allocator.8"* %2) #3
  ret void
}

; Function Attrs: noinline nounwind uwtable
define linkonce_odr void @_ZN9__gnu_cxx13new_allocatorI4DataED2Ev(%"class.__gnu_cxx::new_allocator.8"* %0) unnamed_addr #4 comdat align 2 {
  ret void
}

; Function Attrs: noinline uwtable
define linkonce_odr void @_ZNSt12_Vector_baseISt6vectorI4DataSaIS1_EESaIS3_EE13_M_deallocateEPS3_m(%"struct.std::_Vector_base"* %0, %"class.std::vector.0"* %1, i64 %2) #0 comdat align 2 {
  %4 = icmp ne %"class.std::vector.0"* %1, null
  br i1 %4, label %5, label %8

5:                                                ; preds = %3
  %6 = getelementptr inbounds %"struct.std::_Vector_base", %"struct.std::_Vector_base"* %0, i32 0, i32 0
  %7 = bitcast %"struct.std::_Vector_base<std::vector<Data, std::allocator<Data> >, std::allocator<std::vector<Data, std::allocator<Data> > > >::_Vector_impl"* %6 to %"class.std::allocator"*
  call void @_ZNSt16allocator_traitsISaISt6vectorI4DataSaIS1_EEEE10deallocateERS4_PS3_m(%"class.std::allocator"* dereferenceable(1) %7, %"class.std::vector.0"* %1, i64 %2)
  br label %8

8:                                                ; preds = %5, %3
  ret void
}

; Function Attrs: noinline nounwind uwtable
define linkonce_odr void @_ZNSt12_Vector_baseISt6vectorI4DataSaIS1_EESaIS3_EE12_Vector_implD2Ev(%"struct.std::_Vector_base<std::vector<Data, std::allocator<Data> >, std::allocator<std::vector<Data, std::allocator<Data> > > >::_Vector_impl"* %0) unnamed_addr #4 comdat align 2 {
  %2 = bitcast %"struct.std::_Vector_base<std::vector<Data, std::allocator<Data> >, std::allocator<std::vector<Data, std::allocator<Data> > > >::_Vector_impl"* %0 to %"class.std::allocator"*
  call void @_ZNSaISt6vectorI4DataSaIS0_EEED2Ev(%"class.std::allocator"* %2) #3
  ret void
}

; Function Attrs: noinline uwtable
define linkonce_odr void @_ZNSt16allocator_traitsISaISt6vectorI4DataSaIS1_EEEE10deallocateERS4_PS3_m(%"class.std::allocator"* dereferenceable(1) %0, %"class.std::vector.0"* %1, i64 %2) #0 comdat align 2 {
  %4 = bitcast %"class.std::allocator"* %0 to %"class.__gnu_cxx::new_allocator"*
  call void @_ZN9__gnu_cxx13new_allocatorISt6vectorI4DataSaIS2_EEE10deallocateEPS4_m(%"class.__gnu_cxx::new_allocator"* %4, %"class.std::vector.0"* %1, i64 %2)
  ret void
}

; Function Attrs: noinline nounwind uwtable
define linkonce_odr void @_ZN9__gnu_cxx13new_allocatorISt6vectorI4DataSaIS2_EEE10deallocateEPS4_m(%"class.__gnu_cxx::new_allocator"* %0, %"class.std::vector.0"* %1, i64 %2) #4 comdat align 2 {
  %4 = bitcast %"class.std::vector.0"* %1 to i8*
  call void @_ZdlPv(i8* %4) #3
  ret void
}

; Function Attrs: noinline nounwind uwtable
define linkonce_odr void @_ZNSaISt6vectorI4DataSaIS0_EEED2Ev(%"class.std::allocator"* %0) unnamed_addr #4 comdat align 2 {
  %2 = bitcast %"class.std::allocator"* %0 to %"class.__gnu_cxx::new_allocator"*
  call void @_ZN9__gnu_cxx13new_allocatorISt6vectorI4DataSaIS2_EEED2Ev(%"class.__gnu_cxx::new_allocator"* %2) #3
  ret void
}

; Function Attrs: noinline nounwind uwtable
define linkonce_odr void @_ZN9__gnu_cxx13new_allocatorISt6vectorI4DataSaIS2_EEED2Ev(%"class.__gnu_cxx::new_allocator"* %0) unnamed_addr #4 comdat align 2 {
  ret void
}

; Function Attrs: noinline uwtable
define linkonce_odr void @_ZNSt12_Vector_baseIiSaIiEEC2Ev(%"struct.std::_Vector_base.2"* %0) unnamed_addr #0 comdat align 2 {
  %2 = getelementptr inbounds %"struct.std::_Vector_base.2", %"struct.std::_Vector_base.2"* %0, i32 0, i32 0
  call void @_ZNSt12_Vector_baseIiSaIiEE12_Vector_implC2Ev(%"struct.std::_Vector_base<int, std::allocator<int> >::_Vector_impl"* %2)
  ret void
}

; Function Attrs: noinline nounwind uwtable
define linkonce_odr void @_ZNSt12_Vector_baseIiSaIiEE12_Vector_implC2Ev(%"struct.std::_Vector_base<int, std::allocator<int> >::_Vector_impl"* %0) unnamed_addr #4 comdat align 2 {
  %2 = bitcast %"struct.std::_Vector_base<int, std::allocator<int> >::_Vector_impl"* %0 to %"class.std::allocator.3"*
  call void @_ZNSaIiEC2Ev(%"class.std::allocator.3"* %2) #3
  %3 = getelementptr inbounds %"struct.std::_Vector_base<int, std::allocator<int> >::_Vector_impl", %"struct.std::_Vector_base<int, std::allocator<int> >::_Vector_impl"* %0, i32 0, i32 0
  store i32* null, i32** %3, align 8
  %4 = getelementptr inbounds %"struct.std::_Vector_base<int, std::allocator<int> >::_Vector_impl", %"struct.std::_Vector_base<int, std::allocator<int> >::_Vector_impl"* %0, i32 0, i32 1
  store i32* null, i32** %4, align 8
  %5 = getelementptr inbounds %"struct.std::_Vector_base<int, std::allocator<int> >::_Vector_impl", %"struct.std::_Vector_base<int, std::allocator<int> >::_Vector_impl"* %0, i32 0, i32 2
  store i32* null, i32** %5, align 8
  ret void
}

; Function Attrs: noinline nounwind uwtable
define linkonce_odr void @_ZN9__gnu_cxx13new_allocatorIiEC2Ev(%"class.__gnu_cxx::new_allocator.4"* %0) unnamed_addr #4 comdat align 2 {
  ret void
}

; Function Attrs: noinline uwtable
define linkonce_odr void @_ZSt8_DestroyIPiiEvT_S1_RSaIT0_E(i32* %0, i32* %1, %"class.std::allocator.3"* dereferenceable(1) %2) #0 comdat {
  call void @_ZSt8_DestroyIPiEvT_S1_(i32* %0, i32* %1)
  ret void
}

; Function Attrs: noinline nounwind uwtable
define linkonce_odr dereferenceable(1) %"class.std::allocator.3"* @_ZNSt12_Vector_baseIiSaIiEE19_M_get_Tp_allocatorEv(%"struct.std::_Vector_base.2"* %0) #4 comdat align 2 {
  %2 = getelementptr inbounds %"struct.std::_Vector_base.2", %"struct.std::_Vector_base.2"* %0, i32 0, i32 0
  %3 = bitcast %"struct.std::_Vector_base<int, std::allocator<int> >::_Vector_impl"* %2 to %"class.std::allocator.3"*
  ret %"class.std::allocator.3"* %3
}

; Function Attrs: noinline nounwind uwtable
define linkonce_odr void @_ZNSt12_Vector_baseIiSaIiEED2Ev(%"struct.std::_Vector_base.2"* %0) unnamed_addr #4 comdat align 2 personality i8* bitcast (i32 (...)* @__gxx_personality_v0 to i8*) {
  %2 = getelementptr inbounds %"struct.std::_Vector_base.2", %"struct.std::_Vector_base.2"* %0, i32 0, i32 0
  %3 = getelementptr inbounds %"struct.std::_Vector_base<int, std::allocator<int> >::_Vector_impl", %"struct.std::_Vector_base<int, std::allocator<int> >::_Vector_impl"* %2, i32 0, i32 0
  %4 = load i32*, i32** %3, align 8
  %5 = getelementptr inbounds %"struct.std::_Vector_base.2", %"struct.std::_Vector_base.2"* %0, i32 0, i32 0
  %6 = getelementptr inbounds %"struct.std::_Vector_base<int, std::allocator<int> >::_Vector_impl", %"struct.std::_Vector_base<int, std::allocator<int> >::_Vector_impl"* %5, i32 0, i32 2
  %7 = load i32*, i32** %6, align 8
  %8 = getelementptr inbounds %"struct.std::_Vector_base.2", %"struct.std::_Vector_base.2"* %0, i32 0, i32 0
  %9 = getelementptr inbounds %"struct.std::_Vector_base<int, std::allocator<int> >::_Vector_impl", %"struct.std::_Vector_base<int, std::allocator<int> >::_Vector_impl"* %8, i32 0, i32 0
  %10 = load i32*, i32** %9, align 8
  %11 = ptrtoint i32* %7 to i64
  %12 = ptrtoint i32* %10 to i64
  %13 = sub i64 %11, %12
  %14 = sdiv exact i64 %13, 4
  invoke void @_ZNSt12_Vector_baseIiSaIiEE13_M_deallocateEPim(%"struct.std::_Vector_base.2"* %0, i32* %4, i64 %14)
          to label %15 unwind label %17

15:                                               ; preds = %1
  %16 = getelementptr inbounds %"struct.std::_Vector_base.2", %"struct.std::_Vector_base.2"* %0, i32 0, i32 0
  call void @_ZNSt12_Vector_baseIiSaIiEE12_Vector_implD2Ev(%"struct.std::_Vector_base<int, std::allocator<int> >::_Vector_impl"* %16) #3
  ret void

17:                                               ; preds = %1
  %18 = landingpad { i8*, i32 }
          catch i8* null
  %19 = extractvalue { i8*, i32 } %18, 0
  %20 = extractvalue { i8*, i32 } %18, 1
  %21 = getelementptr inbounds %"struct.std::_Vector_base.2", %"struct.std::_Vector_base.2"* %0, i32 0, i32 0
  call void @_ZNSt12_Vector_baseIiSaIiEE12_Vector_implD2Ev(%"struct.std::_Vector_base<int, std::allocator<int> >::_Vector_impl"* %21) #3
  br label %22

22:                                               ; preds = %17
  call void @__clang_call_terminate(i8* %19) #16
  unreachable
}

; Function Attrs: noinline uwtable
define linkonce_odr void @_ZSt8_DestroyIPiEvT_S1_(i32* %0, i32* %1) #0 comdat {
  call void @_ZNSt12_Destroy_auxILb1EE9__destroyIPiEEvT_S3_(i32* %0, i32* %1)
  ret void
}

; Function Attrs: noinline nounwind uwtable
define linkonce_odr void @_ZNSt12_Destroy_auxILb1EE9__destroyIPiEEvT_S3_(i32* %0, i32* %1) #4 comdat align 2 {
  ret void
}

; Function Attrs: noinline uwtable
define linkonce_odr void @_ZNSt12_Vector_baseIiSaIiEE13_M_deallocateEPim(%"struct.std::_Vector_base.2"* %0, i32* %1, i64 %2) #0 comdat align 2 {
  %4 = icmp ne i32* %1, null
  br i1 %4, label %5, label %8

5:                                                ; preds = %3
  %6 = getelementptr inbounds %"struct.std::_Vector_base.2", %"struct.std::_Vector_base.2"* %0, i32 0, i32 0
  %7 = bitcast %"struct.std::_Vector_base<int, std::allocator<int> >::_Vector_impl"* %6 to %"class.std::allocator.3"*
  call void @_ZNSt16allocator_traitsISaIiEE10deallocateERS0_Pim(%"class.std::allocator.3"* dereferenceable(1) %7, i32* %1, i64 %2)
  br label %8

8:                                                ; preds = %5, %3
  ret void
}

; Function Attrs: noinline nounwind uwtable
define linkonce_odr void @_ZNSt12_Vector_baseIiSaIiEE12_Vector_implD2Ev(%"struct.std::_Vector_base<int, std::allocator<int> >::_Vector_impl"* %0) unnamed_addr #4 comdat align 2 {
  %2 = bitcast %"struct.std::_Vector_base<int, std::allocator<int> >::_Vector_impl"* %0 to %"class.std::allocator.3"*
  call void @_ZNSaIiED2Ev(%"class.std::allocator.3"* %2) #3
  ret void
}

; Function Attrs: noinline uwtable
define linkonce_odr void @_ZNSt16allocator_traitsISaIiEE10deallocateERS0_Pim(%"class.std::allocator.3"* dereferenceable(1) %0, i32* %1, i64 %2) #0 comdat align 2 {
  %4 = bitcast %"class.std::allocator.3"* %0 to %"class.__gnu_cxx::new_allocator.4"*
  call void @_ZN9__gnu_cxx13new_allocatorIiE10deallocateEPim(%"class.__gnu_cxx::new_allocator.4"* %4, i32* %1, i64 %2)
  ret void
}

; Function Attrs: noinline nounwind uwtable
define linkonce_odr void @_ZN9__gnu_cxx13new_allocatorIiE10deallocateEPim(%"class.__gnu_cxx::new_allocator.4"* %0, i32* %1, i64 %2) #4 comdat align 2 {
  %4 = bitcast i32* %1 to i8*
  call void @_ZdlPv(i8* %4) #3
  ret void
}

; Function Attrs: noinline nounwind uwtable
define linkonce_odr void @_ZN9__gnu_cxx13new_allocatorIiED2Ev(%"class.__gnu_cxx::new_allocator.4"* %0) unnamed_addr #4 comdat align 2 {
  ret void
}

; Function Attrs: noinline uwtable
define linkonce_odr void @_ZNSt16allocator_traitsISaIiEE9constructIiJRKiEEEvRS0_PT_DpOT0_(%"class.std::allocator.3"* dereferenceable(1) %0, i32* %1, i32* dereferenceable(4) %2) #0 comdat align 2 {
  %4 = bitcast %"class.std::allocator.3"* %0 to %"class.__gnu_cxx::new_allocator.4"*
  %5 = call dereferenceable(4) i32* @_ZSt7forwardIRKiEOT_RNSt16remove_referenceIS2_E4typeE(i32* dereferenceable(4) %2) #3
  call void @_ZN9__gnu_cxx13new_allocatorIiE9constructIiJRKiEEEvPT_DpOT0_(%"class.__gnu_cxx::new_allocator.4"* %4, i32* %1, i32* dereferenceable(4) %5)
  ret void
}

; Function Attrs: noinline uwtable
define linkonce_odr void @_ZNSt6vectorIiSaIiEE17_M_realloc_insertIJRKiEEEvN9__gnu_cxx17__normal_iteratorIPiS1_EEDpOT_(%"class.std::vector.1"* %0, i32* %1, i32* dereferenceable(4) %2) #0 comdat align 2 personality i8* bitcast (i32 (...)* @__gxx_personality_v0 to i8*) {
  %4 = alloca %"class.__gnu_cxx::__normal_iterator", align 8
  %5 = alloca %"class.__gnu_cxx::__normal_iterator", align 8
  %6 = getelementptr inbounds %"class.__gnu_cxx::__normal_iterator", %"class.__gnu_cxx::__normal_iterator"* %4, i32 0, i32 0
  store i32* %1, i32** %6, align 8
  %7 = call i64 @_ZNKSt6vectorIiSaIiEE12_M_check_lenEmPKc(%"class.std::vector.1"* %0, i64 1, i8* getelementptr inbounds ([26 x i8], [26 x i8]* @.str.11, i32 0, i32 0))
  %8 = bitcast %"class.std::vector.1"* %0 to %"struct.std::_Vector_base.2"*
  %9 = getelementptr inbounds %"struct.std::_Vector_base.2", %"struct.std::_Vector_base.2"* %8, i32 0, i32 0
  %10 = getelementptr inbounds %"struct.std::_Vector_base<int, std::allocator<int> >::_Vector_impl", %"struct.std::_Vector_base<int, std::allocator<int> >::_Vector_impl"* %9, i32 0, i32 0
  %11 = load i32*, i32** %10, align 8
  %12 = bitcast %"class.std::vector.1"* %0 to %"struct.std::_Vector_base.2"*
  %13 = getelementptr inbounds %"struct.std::_Vector_base.2", %"struct.std::_Vector_base.2"* %12, i32 0, i32 0
  %14 = getelementptr inbounds %"struct.std::_Vector_base<int, std::allocator<int> >::_Vector_impl", %"struct.std::_Vector_base<int, std::allocator<int> >::_Vector_impl"* %13, i32 0, i32 1
  %15 = load i32*, i32** %14, align 8
  %16 = call i32* @_ZNSt6vectorIiSaIiEE5beginEv(%"class.std::vector.1"* %0) #3
  %17 = getelementptr inbounds %"class.__gnu_cxx::__normal_iterator", %"class.__gnu_cxx::__normal_iterator"* %5, i32 0, i32 0
  store i32* %16, i32** %17, align 8
  %18 = call i64 @_ZN9__gnu_cxxmiIPiSt6vectorIiSaIiEEEENS_17__normal_iteratorIT_T0_E15difference_typeERKS8_SB_(%"class.__gnu_cxx::__normal_iterator"* dereferenceable(8) %4, %"class.__gnu_cxx::__normal_iterator"* dereferenceable(8) %5) #3
  %19 = bitcast %"class.std::vector.1"* %0 to %"struct.std::_Vector_base.2"*
  %20 = call i32* @_ZNSt12_Vector_baseIiSaIiEE11_M_allocateEm(%"struct.std::_Vector_base.2"* %19, i64 %7)
  %21 = bitcast %"class.std::vector.1"* %0 to %"struct.std::_Vector_base.2"*
  %22 = getelementptr inbounds %"struct.std::_Vector_base.2", %"struct.std::_Vector_base.2"* %21, i32 0, i32 0
  %23 = bitcast %"struct.std::_Vector_base<int, std::allocator<int> >::_Vector_impl"* %22 to %"class.std::allocator.3"*
  %24 = getelementptr inbounds i32, i32* %20, i64 %18
  %25 = call dereferenceable(4) i32* @_ZSt7forwardIRKiEOT_RNSt16remove_referenceIS2_E4typeE(i32* dereferenceable(4) %2) #3
  invoke void @_ZNSt16allocator_traitsISaIiEE9constructIiJRKiEEEvRS0_PT_DpOT0_(%"class.std::allocator.3"* dereferenceable(1) %23, i32* %24, i32* dereferenceable(4) %25)
          to label %26 unwind label %40

26:                                               ; preds = %3
  %27 = call dereferenceable(8) i32** @_ZNK9__gnu_cxx17__normal_iteratorIPiSt6vectorIiSaIiEEE4baseEv(%"class.__gnu_cxx::__normal_iterator"* %4) #3
  %28 = load i32*, i32** %27, align 8
  %29 = bitcast %"class.std::vector.1"* %0 to %"struct.std::_Vector_base.2"*
  %30 = call dereferenceable(1) %"class.std::allocator.3"* @_ZNSt12_Vector_baseIiSaIiEE19_M_get_Tp_allocatorEv(%"struct.std::_Vector_base.2"* %29) #3
  %31 = invoke i32* @_ZSt34__uninitialized_move_if_noexcept_aIPiS0_SaIiEET0_T_S3_S2_RT1_(i32* %11, i32* %28, i32* %20, %"class.std::allocator.3"* dereferenceable(1) %30)
          to label %32 unwind label %40

32:                                               ; preds = %26
  %33 = getelementptr inbounds i32, i32* %31, i32 1
  %34 = call dereferenceable(8) i32** @_ZNK9__gnu_cxx17__normal_iteratorIPiSt6vectorIiSaIiEEE4baseEv(%"class.__gnu_cxx::__normal_iterator"* %4) #3
  %35 = load i32*, i32** %34, align 8
  %36 = bitcast %"class.std::vector.1"* %0 to %"struct.std::_Vector_base.2"*
  %37 = call dereferenceable(1) %"class.std::allocator.3"* @_ZNSt12_Vector_baseIiSaIiEE19_M_get_Tp_allocatorEv(%"struct.std::_Vector_base.2"* %36) #3
  %38 = invoke i32* @_ZSt34__uninitialized_move_if_noexcept_aIPiS0_SaIiEET0_T_S3_S2_RT1_(i32* %35, i32* %15, i32* %33, %"class.std::allocator.3"* dereferenceable(1) %37)
          to label %39 unwind label %40

39:                                               ; preds = %32
  br label %65

40:                                               ; preds = %32, %26, %3
  %.0 = phi i32* [ %33, %32 ], [ null, %26 ], [ %20, %3 ]
  %41 = landingpad { i8*, i32 }
          catch i8* null
  %42 = extractvalue { i8*, i32 } %41, 0
  %43 = extractvalue { i8*, i32 } %41, 1
  br label %44

44:                                               ; preds = %40
  %45 = call i8* @__cxa_begin_catch(i8* %42) #3
  %46 = icmp ne i32* %.0, null
  br i1 %46, label %57, label %47

47:                                               ; preds = %44
  %48 = bitcast %"class.std::vector.1"* %0 to %"struct.std::_Vector_base.2"*
  %49 = getelementptr inbounds %"struct.std::_Vector_base.2", %"struct.std::_Vector_base.2"* %48, i32 0, i32 0
  %50 = bitcast %"struct.std::_Vector_base<int, std::allocator<int> >::_Vector_impl"* %49 to %"class.std::allocator.3"*
  %51 = getelementptr inbounds i32, i32* %20, i64 %18
  invoke void @_ZNSt16allocator_traitsISaIiEE7destroyIiEEvRS0_PT_(%"class.std::allocator.3"* dereferenceable(1) %50, i32* %51)
          to label %52 unwind label %53

52:                                               ; preds = %47
  br label %61

53:                                               ; preds = %63, %61, %57, %47
  %54 = landingpad { i8*, i32 }
          cleanup
  %55 = extractvalue { i8*, i32 } %54, 0
  %56 = extractvalue { i8*, i32 } %54, 1
  invoke void @__cxa_end_catch()
          to label %64 unwind label %90

57:                                               ; preds = %44
  %58 = bitcast %"class.std::vector.1"* %0 to %"struct.std::_Vector_base.2"*
  %59 = call dereferenceable(1) %"class.std::allocator.3"* @_ZNSt12_Vector_baseIiSaIiEE19_M_get_Tp_allocatorEv(%"struct.std::_Vector_base.2"* %58) #3
  invoke void @_ZSt8_DestroyIPiiEvT_S1_RSaIT0_E(i32* %20, i32* %.0, %"class.std::allocator.3"* dereferenceable(1) %59)
          to label %60 unwind label %53

60:                                               ; preds = %57
  br label %61

61:                                               ; preds = %60, %52
  %62 = bitcast %"class.std::vector.1"* %0 to %"struct.std::_Vector_base.2"*
  invoke void @_ZNSt12_Vector_baseIiSaIiEE13_M_deallocateEPim(%"struct.std::_Vector_base.2"* %62, i32* %20, i64 %7)
          to label %63 unwind label %53

63:                                               ; preds = %61
  invoke void @__cxa_rethrow() #18
          to label %93 unwind label %53

64:                                               ; preds = %53
  br label %87

65:                                               ; preds = %39
  %66 = bitcast %"class.std::vector.1"* %0 to %"struct.std::_Vector_base.2"*
  %67 = call dereferenceable(1) %"class.std::allocator.3"* @_ZNSt12_Vector_baseIiSaIiEE19_M_get_Tp_allocatorEv(%"struct.std::_Vector_base.2"* %66) #3
  call void @_ZSt8_DestroyIPiiEvT_S1_RSaIT0_E(i32* %11, i32* %15, %"class.std::allocator.3"* dereferenceable(1) %67)
  %68 = bitcast %"class.std::vector.1"* %0 to %"struct.std::_Vector_base.2"*
  %69 = bitcast %"class.std::vector.1"* %0 to %"struct.std::_Vector_base.2"*
  %70 = getelementptr inbounds %"struct.std::_Vector_base.2", %"struct.std::_Vector_base.2"* %69, i32 0, i32 0
  %71 = getelementptr inbounds %"struct.std::_Vector_base<int, std::allocator<int> >::_Vector_impl", %"struct.std::_Vector_base<int, std::allocator<int> >::_Vector_impl"* %70, i32 0, i32 2
  %72 = load i32*, i32** %71, align 8
  %73 = ptrtoint i32* %72 to i64
  %74 = ptrtoint i32* %11 to i64
  %75 = sub i64 %73, %74
  %76 = sdiv exact i64 %75, 4
  call void @_ZNSt12_Vector_baseIiSaIiEE13_M_deallocateEPim(%"struct.std::_Vector_base.2"* %68, i32* %11, i64 %76)
  %77 = bitcast %"class.std::vector.1"* %0 to %"struct.std::_Vector_base.2"*
  %78 = getelementptr inbounds %"struct.std::_Vector_base.2", %"struct.std::_Vector_base.2"* %77, i32 0, i32 0
  %79 = getelementptr inbounds %"struct.std::_Vector_base<int, std::allocator<int> >::_Vector_impl", %"struct.std::_Vector_base<int, std::allocator<int> >::_Vector_impl"* %78, i32 0, i32 0
  store i32* %20, i32** %79, align 8
  %80 = bitcast %"class.std::vector.1"* %0 to %"struct.std::_Vector_base.2"*
  %81 = getelementptr inbounds %"struct.std::_Vector_base.2", %"struct.std::_Vector_base.2"* %80, i32 0, i32 0
  %82 = getelementptr inbounds %"struct.std::_Vector_base<int, std::allocator<int> >::_Vector_impl", %"struct.std::_Vector_base<int, std::allocator<int> >::_Vector_impl"* %81, i32 0, i32 1
  store i32* %38, i32** %82, align 8
  %83 = getelementptr inbounds i32, i32* %20, i64 %7
  %84 = bitcast %"class.std::vector.1"* %0 to %"struct.std::_Vector_base.2"*
  %85 = getelementptr inbounds %"struct.std::_Vector_base.2", %"struct.std::_Vector_base.2"* %84, i32 0, i32 0
  %86 = getelementptr inbounds %"struct.std::_Vector_base<int, std::allocator<int> >::_Vector_impl", %"struct.std::_Vector_base<int, std::allocator<int> >::_Vector_impl"* %85, i32 0, i32 2
  store i32* %83, i32** %86, align 8
  ret void

87:                                               ; preds = %64
  %88 = insertvalue { i8*, i32 } undef, i8* %55, 0
  %89 = insertvalue { i8*, i32 } %88, i32 %56, 1
  resume { i8*, i32 } %89

90:                                               ; preds = %53
  %91 = landingpad { i8*, i32 }
          catch i8* null
  %92 = extractvalue { i8*, i32 } %91, 0
  call void @__clang_call_terminate(i8* %92) #16
  unreachable

93:                                               ; preds = %63
  unreachable
}

; Function Attrs: noinline nounwind uwtable
define linkonce_odr i32* @_ZNSt6vectorIiSaIiEE3endEv(%"class.std::vector.1"* %0) #4 comdat align 2 {
  %2 = alloca %"class.__gnu_cxx::__normal_iterator", align 8
  %3 = bitcast %"class.std::vector.1"* %0 to %"struct.std::_Vector_base.2"*
  %4 = getelementptr inbounds %"struct.std::_Vector_base.2", %"struct.std::_Vector_base.2"* %3, i32 0, i32 0
  %5 = getelementptr inbounds %"struct.std::_Vector_base<int, std::allocator<int> >::_Vector_impl", %"struct.std::_Vector_base<int, std::allocator<int> >::_Vector_impl"* %4, i32 0, i32 1
  call void @_ZN9__gnu_cxx17__normal_iteratorIPiSt6vectorIiSaIiEEEC2ERKS1_(%"class.__gnu_cxx::__normal_iterator"* %2, i32** dereferenceable(8) %5) #3
  %6 = getelementptr inbounds %"class.__gnu_cxx::__normal_iterator", %"class.__gnu_cxx::__normal_iterator"* %2, i32 0, i32 0
  %7 = load i32*, i32** %6, align 8
  ret i32* %7
}

; Function Attrs: noinline nounwind uwtable
define linkonce_odr void @_ZN9__gnu_cxx13new_allocatorIiE9constructIiJRKiEEEvPT_DpOT0_(%"class.__gnu_cxx::new_allocator.4"* %0, i32* %1, i32* dereferenceable(4) %2) #4 comdat align 2 {
  %4 = bitcast i32* %1 to i8*
  %5 = bitcast i8* %4 to i32*
  %6 = call dereferenceable(4) i32* @_ZSt7forwardIRKiEOT_RNSt16remove_referenceIS2_E4typeE(i32* dereferenceable(4) %2) #3
  %7 = load i32, i32* %6, align 4
  store i32 %7, i32* %5, align 4
  ret void
}

; Function Attrs: noinline nounwind uwtable
define linkonce_odr dereferenceable(4) i32* @_ZSt7forwardIRKiEOT_RNSt16remove_referenceIS2_E4typeE(i32* dereferenceable(4) %0) #4 comdat {
  ret i32* %0
}

; Function Attrs: noinline uwtable
define linkonce_odr i64 @_ZNKSt6vectorIiSaIiEE12_M_check_lenEmPKc(%"class.std::vector.1"* %0, i64 %1, i8* %2) #0 comdat align 2 {
  %4 = alloca i64, align 8
  %5 = alloca i64, align 8
  store i64 %1, i64* %4, align 8
  %6 = call i64 @_ZNKSt6vectorIiSaIiEE8max_sizeEv(%"class.std::vector.1"* %0) #3
  %7 = call i64 @_ZNKSt6vectorIiSaIiEE4sizeEv(%"class.std::vector.1"* %0) #3
  %8 = sub i64 %6, %7
  %9 = load i64, i64* %4, align 8
  %10 = icmp ult i64 %8, %9
  br i1 %10, label %11, label %12

11:                                               ; preds = %3
  call void @_ZSt20__throw_length_errorPKc(i8* %2) #18
  unreachable

12:                                               ; preds = %3
  %13 = call i64 @_ZNKSt6vectorIiSaIiEE4sizeEv(%"class.std::vector.1"* %0) #3
  %14 = call i64 @_ZNKSt6vectorIiSaIiEE4sizeEv(%"class.std::vector.1"* %0) #3
  store i64 %14, i64* %5, align 8
  %15 = call dereferenceable(8) i64* @_ZSt3maxImERKT_S2_S2_(i64* dereferenceable(8) %5, i64* dereferenceable(8) %4)
  %16 = load i64, i64* %15, align 8
  %17 = add i64 %13, %16
  %18 = call i64 @_ZNKSt6vectorIiSaIiEE4sizeEv(%"class.std::vector.1"* %0) #3
  %19 = icmp ult i64 %17, %18
  br i1 %19, label %23, label %20

20:                                               ; preds = %12
  %21 = call i64 @_ZNKSt6vectorIiSaIiEE8max_sizeEv(%"class.std::vector.1"* %0) #3
  %22 = icmp ugt i64 %17, %21
  br i1 %22, label %23, label %25

23:                                               ; preds = %20, %12
  %24 = call i64 @_ZNKSt6vectorIiSaIiEE8max_sizeEv(%"class.std::vector.1"* %0) #3
  br label %26

25:                                               ; preds = %20
  br label %26

26:                                               ; preds = %25, %23
  %27 = phi i64 [ %24, %23 ], [ %17, %25 ]
  ret i64 %27
}

; Function Attrs: noinline nounwind uwtable
define linkonce_odr i64 @_ZN9__gnu_cxxmiIPiSt6vectorIiSaIiEEEENS_17__normal_iteratorIT_T0_E15difference_typeERKS8_SB_(%"class.__gnu_cxx::__normal_iterator"* dereferenceable(8) %0, %"class.__gnu_cxx::__normal_iterator"* dereferenceable(8) %1) #4 comdat {
  %3 = call dereferenceable(8) i32** @_ZNK9__gnu_cxx17__normal_iteratorIPiSt6vectorIiSaIiEEE4baseEv(%"class.__gnu_cxx::__normal_iterator"* %0) #3
  %4 = load i32*, i32** %3, align 8
  %5 = call dereferenceable(8) i32** @_ZNK9__gnu_cxx17__normal_iteratorIPiSt6vectorIiSaIiEEE4baseEv(%"class.__gnu_cxx::__normal_iterator"* %1) #3
  %6 = load i32*, i32** %5, align 8
  %7 = ptrtoint i32* %4 to i64
  %8 = ptrtoint i32* %6 to i64
  %9 = sub i64 %7, %8
  %10 = sdiv exact i64 %9, 4
  ret i64 %10
}

; Function Attrs: noinline nounwind uwtable
define linkonce_odr i32* @_ZNSt6vectorIiSaIiEE5beginEv(%"class.std::vector.1"* %0) #4 comdat align 2 {
  %2 = alloca %"class.__gnu_cxx::__normal_iterator", align 8
  %3 = bitcast %"class.std::vector.1"* %0 to %"struct.std::_Vector_base.2"*
  %4 = getelementptr inbounds %"struct.std::_Vector_base.2", %"struct.std::_Vector_base.2"* %3, i32 0, i32 0
  %5 = getelementptr inbounds %"struct.std::_Vector_base<int, std::allocator<int> >::_Vector_impl", %"struct.std::_Vector_base<int, std::allocator<int> >::_Vector_impl"* %4, i32 0, i32 0
  call void @_ZN9__gnu_cxx17__normal_iteratorIPiSt6vectorIiSaIiEEEC2ERKS1_(%"class.__gnu_cxx::__normal_iterator"* %2, i32** dereferenceable(8) %5) #3
  %6 = getelementptr inbounds %"class.__gnu_cxx::__normal_iterator", %"class.__gnu_cxx::__normal_iterator"* %2, i32 0, i32 0
  %7 = load i32*, i32** %6, align 8
  ret i32* %7
}

; Function Attrs: noinline uwtable
define linkonce_odr i32* @_ZNSt12_Vector_baseIiSaIiEE11_M_allocateEm(%"struct.std::_Vector_base.2"* %0, i64 %1) #0 comdat align 2 {
  %3 = icmp ne i64 %1, 0
  br i1 %3, label %4, label %8

4:                                                ; preds = %2
  %5 = getelementptr inbounds %"struct.std::_Vector_base.2", %"struct.std::_Vector_base.2"* %0, i32 0, i32 0
  %6 = bitcast %"struct.std::_Vector_base<int, std::allocator<int> >::_Vector_impl"* %5 to %"class.std::allocator.3"*
  %7 = call i32* @_ZNSt16allocator_traitsISaIiEE8allocateERS0_m(%"class.std::allocator.3"* dereferenceable(1) %6, i64 %1)
  br label %9

8:                                                ; preds = %2
  br label %9

9:                                                ; preds = %8, %4
  %10 = phi i32* [ %7, %4 ], [ null, %8 ]
  ret i32* %10
}

; Function Attrs: noinline uwtable
define linkonce_odr i32* @_ZSt34__uninitialized_move_if_noexcept_aIPiS0_SaIiEET0_T_S3_S2_RT1_(i32* %0, i32* %1, i32* %2, %"class.std::allocator.3"* dereferenceable(1) %3) #0 comdat {
  %5 = alloca %"class.std::move_iterator", align 8
  %6 = alloca %"class.std::move_iterator", align 8
  %7 = call i32* @_ZSt32__make_move_if_noexcept_iteratorIiSt13move_iteratorIPiEET0_PT_(i32* %0)
  %8 = getelementptr inbounds %"class.std::move_iterator", %"class.std::move_iterator"* %5, i32 0, i32 0
  store i32* %7, i32** %8, align 8
  %9 = call i32* @_ZSt32__make_move_if_noexcept_iteratorIiSt13move_iteratorIPiEET0_PT_(i32* %1)
  %10 = getelementptr inbounds %"class.std::move_iterator", %"class.std::move_iterator"* %6, i32 0, i32 0
  store i32* %9, i32** %10, align 8
  %11 = getelementptr inbounds %"class.std::move_iterator", %"class.std::move_iterator"* %5, i32 0, i32 0
  %12 = load i32*, i32** %11, align 8
  %13 = getelementptr inbounds %"class.std::move_iterator", %"class.std::move_iterator"* %6, i32 0, i32 0
  %14 = load i32*, i32** %13, align 8
  %15 = call i32* @_ZSt22__uninitialized_copy_aISt13move_iteratorIPiES1_iET0_T_S4_S3_RSaIT1_E(i32* %12, i32* %14, i32* %2, %"class.std::allocator.3"* dereferenceable(1) %3)
  ret i32* %15
}

; Function Attrs: noinline nounwind uwtable
define linkonce_odr dereferenceable(8) i32** @_ZNK9__gnu_cxx17__normal_iteratorIPiSt6vectorIiSaIiEEE4baseEv(%"class.__gnu_cxx::__normal_iterator"* %0) #4 comdat align 2 {
  %2 = getelementptr inbounds %"class.__gnu_cxx::__normal_iterator", %"class.__gnu_cxx::__normal_iterator"* %0, i32 0, i32 0
  ret i32** %2
}

; Function Attrs: noinline uwtable
define linkonce_odr void @_ZNSt16allocator_traitsISaIiEE7destroyIiEEvRS0_PT_(%"class.std::allocator.3"* dereferenceable(1) %0, i32* %1) #0 comdat align 2 {
  %3 = bitcast %"class.std::allocator.3"* %0 to %"class.__gnu_cxx::new_allocator.4"*
  call void @_ZN9__gnu_cxx13new_allocatorIiE7destroyIiEEvPT_(%"class.__gnu_cxx::new_allocator.4"* %3, i32* %1)
  ret void
}

declare void @__cxa_rethrow()

declare void @__cxa_end_catch()

; Function Attrs: noinline nounwind uwtable
define linkonce_odr i64 @_ZNKSt6vectorIiSaIiEE8max_sizeEv(%"class.std::vector.1"* %0) #4 comdat align 2 {
  %2 = bitcast %"class.std::vector.1"* %0 to %"struct.std::_Vector_base.2"*
  %3 = call dereferenceable(1) %"class.std::allocator.3"* @_ZNKSt12_Vector_baseIiSaIiEE19_M_get_Tp_allocatorEv(%"struct.std::_Vector_base.2"* %2) #3
  %4 = call i64 @_ZNSt16allocator_traitsISaIiEE8max_sizeERKS0_(%"class.std::allocator.3"* dereferenceable(1) %3) #3
  ret i64 %4
}

; Function Attrs: noreturn
declare void @_ZSt20__throw_length_errorPKc(i8*) #10

; Function Attrs: noinline nounwind uwtable
define linkonce_odr dereferenceable(8) i64* @_ZSt3maxImERKT_S2_S2_(i64* dereferenceable(8) %0, i64* dereferenceable(8) %1) #4 comdat {
  %3 = load i64, i64* %0, align 8
  %4 = load i64, i64* %1, align 8
  %5 = icmp ult i64 %3, %4
  br i1 %5, label %6, label %7

6:                                                ; preds = %2
  br label %8

7:                                                ; preds = %2
  br label %8

8:                                                ; preds = %7, %6
  %.0 = phi i64* [ %1, %6 ], [ %0, %7 ]
  ret i64* %.0
}

; Function Attrs: noinline nounwind uwtable
define linkonce_odr i64 @_ZNSt16allocator_traitsISaIiEE8max_sizeERKS0_(%"class.std::allocator.3"* dereferenceable(1) %0) #4 comdat align 2 {
  %2 = bitcast %"class.std::allocator.3"* %0 to %"class.__gnu_cxx::new_allocator.4"*
  %3 = call i64 @_ZNK9__gnu_cxx13new_allocatorIiE8max_sizeEv(%"class.__gnu_cxx::new_allocator.4"* %2) #3
  ret i64 %3
}

; Function Attrs: noinline nounwind uwtable
define linkonce_odr dereferenceable(1) %"class.std::allocator.3"* @_ZNKSt12_Vector_baseIiSaIiEE19_M_get_Tp_allocatorEv(%"struct.std::_Vector_base.2"* %0) #4 comdat align 2 {
  %2 = getelementptr inbounds %"struct.std::_Vector_base.2", %"struct.std::_Vector_base.2"* %0, i32 0, i32 0
  %3 = bitcast %"struct.std::_Vector_base<int, std::allocator<int> >::_Vector_impl"* %2 to %"class.std::allocator.3"*
  ret %"class.std::allocator.3"* %3
}

; Function Attrs: noinline nounwind uwtable
define linkonce_odr i64 @_ZNK9__gnu_cxx13new_allocatorIiE8max_sizeEv(%"class.__gnu_cxx::new_allocator.4"* %0) #4 comdat align 2 {
  ret i64 4611686018427387903
}

; Function Attrs: noinline nounwind uwtable
define linkonce_odr void @_ZN9__gnu_cxx17__normal_iteratorIPiSt6vectorIiSaIiEEEC2ERKS1_(%"class.__gnu_cxx::__normal_iterator"* %0, i32** dereferenceable(8) %1) unnamed_addr #4 comdat align 2 {
  %3 = getelementptr inbounds %"class.__gnu_cxx::__normal_iterator", %"class.__gnu_cxx::__normal_iterator"* %0, i32 0, i32 0
  %4 = load i32*, i32** %1, align 8
  store i32* %4, i32** %3, align 8
  ret void
}

; Function Attrs: noinline uwtable
define linkonce_odr i32* @_ZNSt16allocator_traitsISaIiEE8allocateERS0_m(%"class.std::allocator.3"* dereferenceable(1) %0, i64 %1) #0 comdat align 2 {
  %3 = bitcast %"class.std::allocator.3"* %0 to %"class.__gnu_cxx::new_allocator.4"*
  %4 = call i32* @_ZN9__gnu_cxx13new_allocatorIiE8allocateEmPKv(%"class.__gnu_cxx::new_allocator.4"* %3, i64 %1, i8* null)
  ret i32* %4
}

; Function Attrs: noinline uwtable
define linkonce_odr i32* @_ZN9__gnu_cxx13new_allocatorIiE8allocateEmPKv(%"class.__gnu_cxx::new_allocator.4"* %0, i64 %1, i8* %2) #0 comdat align 2 {
  %4 = call i64 @_ZNK9__gnu_cxx13new_allocatorIiE8max_sizeEv(%"class.__gnu_cxx::new_allocator.4"* %0) #3
  %5 = icmp ugt i64 %1, %4
  br i1 %5, label %6, label %7

6:                                                ; preds = %3
  call void @_ZSt17__throw_bad_allocv() #18
  unreachable

7:                                                ; preds = %3
  %8 = mul i64 %1, 4
  %9 = call i8* @_Znwm(i64 %8)
  %10 = bitcast i8* %9 to i32*
  ret i32* %10
}

; Function Attrs: noreturn
declare void @_ZSt17__throw_bad_allocv() #10

; Function Attrs: nobuiltin
declare noalias i8* @_Znwm(i64) #11

; Function Attrs: noinline uwtable
define linkonce_odr i32* @_ZSt22__uninitialized_copy_aISt13move_iteratorIPiES1_iET0_T_S4_S3_RSaIT1_E(i32* %0, i32* %1, i32* %2, %"class.std::allocator.3"* dereferenceable(1) %3) #0 comdat {
  %5 = alloca %"class.std::move_iterator", align 8
  %6 = alloca %"class.std::move_iterator", align 8
  %7 = alloca %"class.std::move_iterator", align 8
  %8 = alloca %"class.std::move_iterator", align 8
  %9 = getelementptr inbounds %"class.std::move_iterator", %"class.std::move_iterator"* %5, i32 0, i32 0
  store i32* %0, i32** %9, align 8
  %10 = getelementptr inbounds %"class.std::move_iterator", %"class.std::move_iterator"* %6, i32 0, i32 0
  store i32* %1, i32** %10, align 8
  %11 = bitcast %"class.std::move_iterator"* %7 to i8*
  %12 = bitcast %"class.std::move_iterator"* %5 to i8*
  call void @llvm.memcpy.p0i8.p0i8.i64(i8* align 8 %11, i8* align 8 %12, i64 8, i1 false)
  %13 = bitcast %"class.std::move_iterator"* %8 to i8*
  %14 = bitcast %"class.std::move_iterator"* %6 to i8*
  call void @llvm.memcpy.p0i8.p0i8.i64(i8* align 8 %13, i8* align 8 %14, i64 8, i1 false)
  %15 = getelementptr inbounds %"class.std::move_iterator", %"class.std::move_iterator"* %7, i32 0, i32 0
  %16 = load i32*, i32** %15, align 8
  %17 = getelementptr inbounds %"class.std::move_iterator", %"class.std::move_iterator"* %8, i32 0, i32 0
  %18 = load i32*, i32** %17, align 8
  %19 = call i32* @_ZSt18uninitialized_copyISt13move_iteratorIPiES1_ET0_T_S4_S3_(i32* %16, i32* %18, i32* %2)
  ret i32* %19
}

; Function Attrs: noinline uwtable
define linkonce_odr i32* @_ZSt32__make_move_if_noexcept_iteratorIiSt13move_iteratorIPiEET0_PT_(i32* %0) #0 comdat {
  %2 = alloca %"class.std::move_iterator", align 8
  call void @_ZNSt13move_iteratorIPiEC2ES0_(%"class.std::move_iterator"* %2, i32* %0)
  %3 = getelementptr inbounds %"class.std::move_iterator", %"class.std::move_iterator"* %2, i32 0, i32 0
  %4 = load i32*, i32** %3, align 8
  ret i32* %4
}

; Function Attrs: noinline uwtable
define linkonce_odr i32* @_ZSt18uninitialized_copyISt13move_iteratorIPiES1_ET0_T_S4_S3_(i32* %0, i32* %1, i32* %2) #0 comdat {
  %4 = alloca %"class.std::move_iterator", align 8
  %5 = alloca %"class.std::move_iterator", align 8
  %6 = alloca %"class.std::move_iterator", align 8
  %7 = alloca %"class.std::move_iterator", align 8
  %8 = getelementptr inbounds %"class.std::move_iterator", %"class.std::move_iterator"* %4, i32 0, i32 0
  store i32* %0, i32** %8, align 8
  %9 = getelementptr inbounds %"class.std::move_iterator", %"class.std::move_iterator"* %5, i32 0, i32 0
  store i32* %1, i32** %9, align 8
  %10 = bitcast %"class.std::move_iterator"* %6 to i8*
  %11 = bitcast %"class.std::move_iterator"* %4 to i8*
  call void @llvm.memcpy.p0i8.p0i8.i64(i8* align 8 %10, i8* align 8 %11, i64 8, i1 false)
  %12 = bitcast %"class.std::move_iterator"* %7 to i8*
  %13 = bitcast %"class.std::move_iterator"* %5 to i8*
  call void @llvm.memcpy.p0i8.p0i8.i64(i8* align 8 %12, i8* align 8 %13, i64 8, i1 false)
  %14 = getelementptr inbounds %"class.std::move_iterator", %"class.std::move_iterator"* %6, i32 0, i32 0
  %15 = load i32*, i32** %14, align 8
  %16 = getelementptr inbounds %"class.std::move_iterator", %"class.std::move_iterator"* %7, i32 0, i32 0
  %17 = load i32*, i32** %16, align 8
  %18 = call i32* @_ZNSt20__uninitialized_copyILb1EE13__uninit_copyISt13move_iteratorIPiES3_EET0_T_S6_S5_(i32* %15, i32* %17, i32* %2)
  ret i32* %18
}

; Function Attrs: noinline uwtable
define linkonce_odr i32* @_ZNSt20__uninitialized_copyILb1EE13__uninit_copyISt13move_iteratorIPiES3_EET0_T_S6_S5_(i32* %0, i32* %1, i32* %2) #0 comdat align 2 {
  %4 = alloca %"class.std::move_iterator", align 8
  %5 = alloca %"class.std::move_iterator", align 8
  %6 = alloca %"class.std::move_iterator", align 8
  %7 = alloca %"class.std::move_iterator", align 8
  %8 = getelementptr inbounds %"class.std::move_iterator", %"class.std::move_iterator"* %4, i32 0, i32 0
  store i32* %0, i32** %8, align 8
  %9 = getelementptr inbounds %"class.std::move_iterator", %"class.std::move_iterator"* %5, i32 0, i32 0
  store i32* %1, i32** %9, align 8
  %10 = bitcast %"class.std::move_iterator"* %6 to i8*
  %11 = bitcast %"class.std::move_iterator"* %4 to i8*
  call void @llvm.memcpy.p0i8.p0i8.i64(i8* align 8 %10, i8* align 8 %11, i64 8, i1 false)
  %12 = bitcast %"class.std::move_iterator"* %7 to i8*
  %13 = bitcast %"class.std::move_iterator"* %5 to i8*
  call void @llvm.memcpy.p0i8.p0i8.i64(i8* align 8 %12, i8* align 8 %13, i64 8, i1 false)
  %14 = getelementptr inbounds %"class.std::move_iterator", %"class.std::move_iterator"* %6, i32 0, i32 0
  %15 = load i32*, i32** %14, align 8
  %16 = getelementptr inbounds %"class.std::move_iterator", %"class.std::move_iterator"* %7, i32 0, i32 0
  %17 = load i32*, i32** %16, align 8
  %18 = call i32* @_ZSt4copyISt13move_iteratorIPiES1_ET0_T_S4_S3_(i32* %15, i32* %17, i32* %2)
  ret i32* %18
}

; Function Attrs: noinline uwtable
define linkonce_odr i32* @_ZSt4copyISt13move_iteratorIPiES1_ET0_T_S4_S3_(i32* %0, i32* %1, i32* %2) #0 comdat {
  %4 = alloca %"class.std::move_iterator", align 8
  %5 = alloca %"class.std::move_iterator", align 8
  %6 = alloca %"class.std::move_iterator", align 8
  %7 = alloca %"class.std::move_iterator", align 8
  %8 = getelementptr inbounds %"class.std::move_iterator", %"class.std::move_iterator"* %4, i32 0, i32 0
  store i32* %0, i32** %8, align 8
  %9 = getelementptr inbounds %"class.std::move_iterator", %"class.std::move_iterator"* %5, i32 0, i32 0
  store i32* %1, i32** %9, align 8
  %10 = bitcast %"class.std::move_iterator"* %6 to i8*
  %11 = bitcast %"class.std::move_iterator"* %4 to i8*
  call void @llvm.memcpy.p0i8.p0i8.i64(i8* align 8 %10, i8* align 8 %11, i64 8, i1 false)
  %12 = getelementptr inbounds %"class.std::move_iterator", %"class.std::move_iterator"* %6, i32 0, i32 0
  %13 = load i32*, i32** %12, align 8
  %14 = call i32* @_ZSt12__miter_baseIPiEDTcl12__miter_basecldtfp_4baseEEESt13move_iteratorIT_E(i32* %13)
  %15 = bitcast %"class.std::move_iterator"* %7 to i8*
  %16 = bitcast %"class.std::move_iterator"* %5 to i8*
  call void @llvm.memcpy.p0i8.p0i8.i64(i8* align 8 %15, i8* align 8 %16, i64 8, i1 false)
  %17 = getelementptr inbounds %"class.std::move_iterator", %"class.std::move_iterator"* %7, i32 0, i32 0
  %18 = load i32*, i32** %17, align 8
  %19 = call i32* @_ZSt12__miter_baseIPiEDTcl12__miter_basecldtfp_4baseEEESt13move_iteratorIT_E(i32* %18)
  %20 = call i32* @_ZSt14__copy_move_a2ILb1EPiS0_ET1_T0_S2_S1_(i32* %14, i32* %19, i32* %2)
  ret i32* %20
}

; Function Attrs: noinline uwtable
define linkonce_odr i32* @_ZSt14__copy_move_a2ILb1EPiS0_ET1_T0_S2_S1_(i32* %0, i32* %1, i32* %2) #0 comdat {
  %4 = call i32* @_ZSt12__niter_baseIPiET_S1_(i32* %0)
  %5 = call i32* @_ZSt12__niter_baseIPiET_S1_(i32* %1)
  %6 = call i32* @_ZSt12__niter_baseIPiET_S1_(i32* %2)
  %7 = call i32* @_ZSt13__copy_move_aILb1EPiS0_ET1_T0_S2_S1_(i32* %4, i32* %5, i32* %6)
  ret i32* %7
}

; Function Attrs: noinline uwtable
define linkonce_odr i32* @_ZSt12__miter_baseIPiEDTcl12__miter_basecldtfp_4baseEEESt13move_iteratorIT_E(i32* %0) #0 comdat {
  %2 = alloca %"class.std::move_iterator", align 8
  %3 = getelementptr inbounds %"class.std::move_iterator", %"class.std::move_iterator"* %2, i32 0, i32 0
  store i32* %0, i32** %3, align 8
  %4 = call i32* @_ZNKSt13move_iteratorIPiE4baseEv(%"class.std::move_iterator"* %2)
  %5 = call i32* @_ZSt12__miter_baseIPiET_S1_(i32* %4)
  ret i32* %5
}

; Function Attrs: noinline uwtable
define linkonce_odr i32* @_ZSt13__copy_move_aILb1EPiS0_ET1_T0_S2_S1_(i32* %0, i32* %1, i32* %2) #0 comdat {
  %4 = call i32* @_ZNSt11__copy_moveILb1ELb1ESt26random_access_iterator_tagE8__copy_mIiEEPT_PKS3_S6_S4_(i32* %0, i32* %1, i32* %2)
  ret i32* %4
}

; Function Attrs: noinline nounwind uwtable
define linkonce_odr i32* @_ZSt12__niter_baseIPiET_S1_(i32* %0) #4 comdat {
  ret i32* %0
}

; Function Attrs: noinline nounwind uwtable
define linkonce_odr i32* @_ZNSt11__copy_moveILb1ELb1ESt26random_access_iterator_tagE8__copy_mIiEEPT_PKS3_S6_S4_(i32* %0, i32* %1, i32* %2) #4 comdat align 2 {
  %4 = ptrtoint i32* %1 to i64
  %5 = ptrtoint i32* %0 to i64
  %6 = sub i64 %4, %5
  %7 = sdiv exact i64 %6, 4
  %8 = icmp ne i64 %7, 0
  br i1 %8, label %9, label %13

9:                                                ; preds = %3
  %10 = bitcast i32* %2 to i8*
  %11 = bitcast i32* %0 to i8*
  %12 = mul i64 4, %7
  call void @llvm.memmove.p0i8.p0i8.i64(i8* align 4 %10, i8* align 4 %11, i64 %12, i1 false)
  br label %13

13:                                               ; preds = %9, %3
  %14 = getelementptr inbounds i32, i32* %2, i64 %7
  ret i32* %14
}

; Function Attrs: noinline nounwind uwtable
define linkonce_odr i32* @_ZSt12__miter_baseIPiET_S1_(i32* %0) #4 comdat {
  ret i32* %0
}

; Function Attrs: noinline nounwind uwtable
define linkonce_odr i32* @_ZNKSt13move_iteratorIPiE4baseEv(%"class.std::move_iterator"* %0) #4 comdat align 2 {
  %2 = getelementptr inbounds %"class.std::move_iterator", %"class.std::move_iterator"* %0, i32 0, i32 0
  %3 = load i32*, i32** %2, align 8
  ret i32* %3
}

; Function Attrs: noinline nounwind uwtable
define linkonce_odr void @_ZNSt13move_iteratorIPiEC2ES0_(%"class.std::move_iterator"* %0, i32* %1) unnamed_addr #4 comdat align 2 {
  %3 = getelementptr inbounds %"class.std::move_iterator", %"class.std::move_iterator"* %0, i32 0, i32 0
  store i32* %1, i32** %3, align 8
  ret void
}

; Function Attrs: noinline nounwind uwtable
define linkonce_odr void @_ZN9__gnu_cxx13new_allocatorIiE7destroyIiEEvPT_(%"class.__gnu_cxx::new_allocator.4"* %0, i32* %1) #4 comdat align 2 {
  ret void
}

; Function Attrs: noinline nounwind uwtable
define linkonce_odr void @_ZNSt6vectorIiSaIiEE15_M_erase_at_endEPi(%"class.std::vector.1"* %0, i32* %1) #4 comdat align 2 personality i8* bitcast (i32 (...)* @__gxx_personality_v0 to i8*) {
  %3 = bitcast %"class.std::vector.1"* %0 to %"struct.std::_Vector_base.2"*
  %4 = getelementptr inbounds %"struct.std::_Vector_base.2", %"struct.std::_Vector_base.2"* %3, i32 0, i32 0
  %5 = getelementptr inbounds %"struct.std::_Vector_base<int, std::allocator<int> >::_Vector_impl", %"struct.std::_Vector_base<int, std::allocator<int> >::_Vector_impl"* %4, i32 0, i32 1
  %6 = load i32*, i32** %5, align 8
  %7 = ptrtoint i32* %6 to i64
  %8 = ptrtoint i32* %1 to i64
  %9 = sub i64 %7, %8
  %10 = sdiv exact i64 %9, 4
  %11 = icmp ne i64 %10, 0
  br i1 %11, label %12, label %23

12:                                               ; preds = %2
  %13 = bitcast %"class.std::vector.1"* %0 to %"struct.std::_Vector_base.2"*
  %14 = getelementptr inbounds %"struct.std::_Vector_base.2", %"struct.std::_Vector_base.2"* %13, i32 0, i32 0
  %15 = getelementptr inbounds %"struct.std::_Vector_base<int, std::allocator<int> >::_Vector_impl", %"struct.std::_Vector_base<int, std::allocator<int> >::_Vector_impl"* %14, i32 0, i32 1
  %16 = load i32*, i32** %15, align 8
  %17 = bitcast %"class.std::vector.1"* %0 to %"struct.std::_Vector_base.2"*
  %18 = call dereferenceable(1) %"class.std::allocator.3"* @_ZNSt12_Vector_baseIiSaIiEE19_M_get_Tp_allocatorEv(%"struct.std::_Vector_base.2"* %17) #3
  invoke void @_ZSt8_DestroyIPiiEvT_S1_RSaIT0_E(i32* %1, i32* %16, %"class.std::allocator.3"* dereferenceable(1) %18)
          to label %19 unwind label %24

19:                                               ; preds = %12
  %20 = bitcast %"class.std::vector.1"* %0 to %"struct.std::_Vector_base.2"*
  %21 = getelementptr inbounds %"struct.std::_Vector_base.2", %"struct.std::_Vector_base.2"* %20, i32 0, i32 0
  %22 = getelementptr inbounds %"struct.std::_Vector_base<int, std::allocator<int> >::_Vector_impl", %"struct.std::_Vector_base<int, std::allocator<int> >::_Vector_impl"* %21, i32 0, i32 1
  store i32* %1, i32** %22, align 8
  br label %23

23:                                               ; preds = %19, %2
  ret void

24:                                               ; preds = %12
  %25 = landingpad { i8*, i32 }
          catch i8* null
  %26 = extractvalue { i8*, i32 } %25, 0
  call void @__clang_call_terminate(i8* %26) #16
  unreachable
}

; Function Attrs: noinline uwtable
define linkonce_odr { %"struct.std::_Rb_tree_node_base"*, i8 } @_ZNSt8_Rb_treeIiiSt9_IdentityIiESt4lessIiESaIiEE16_M_insert_uniqueIRKiEESt4pairISt17_Rb_tree_iteratorIiEbEOT_(%"class.std::_Rb_tree"* %0, i32* dereferenceable(4) %1) #0 comdat align 2 {
  %3 = alloca %"struct.std::pair.13", align 8
  %4 = alloca %"struct.std::pair.17", align 8
  %5 = alloca %"struct.std::_Identity", align 1
  %6 = alloca %"struct.std::_Rb_tree<int, int, std::_Identity<int>, std::less<int>, std::allocator<int> >::_Alloc_node", align 8
  %7 = alloca %"struct.std::_Rb_tree_iterator", align 8
  %8 = alloca i8, align 1
  %9 = alloca %"struct.std::_Rb_tree_iterator", align 8
  %10 = alloca i8, align 1
  %11 = call dereferenceable(4) i32* @_ZNKSt9_IdentityIiEclERKi(%"struct.std::_Identity"* %5, i32* dereferenceable(4) %1)
  %12 = call { %"struct.std::_Rb_tree_node_base"*, %"struct.std::_Rb_tree_node_base"* } @_ZNSt8_Rb_treeIiiSt9_IdentityIiESt4lessIiESaIiEE24_M_get_insert_unique_posERKi(%"class.std::_Rb_tree"* %0, i32* dereferenceable(4) %11)
  %13 = bitcast %"struct.std::pair.17"* %4 to { %"struct.std::_Rb_tree_node_base"*, %"struct.std::_Rb_tree_node_base"* }*
  %14 = getelementptr inbounds { %"struct.std::_Rb_tree_node_base"*, %"struct.std::_Rb_tree_node_base"* }, { %"struct.std::_Rb_tree_node_base"*, %"struct.std::_Rb_tree_node_base"* }* %13, i32 0, i32 0
  %15 = extractvalue { %"struct.std::_Rb_tree_node_base"*, %"struct.std::_Rb_tree_node_base"* } %12, 0
  store %"struct.std::_Rb_tree_node_base"* %15, %"struct.std::_Rb_tree_node_base"** %14, align 8
  %16 = getelementptr inbounds { %"struct.std::_Rb_tree_node_base"*, %"struct.std::_Rb_tree_node_base"* }, { %"struct.std::_Rb_tree_node_base"*, %"struct.std::_Rb_tree_node_base"* }* %13, i32 0, i32 1
  %17 = extractvalue { %"struct.std::_Rb_tree_node_base"*, %"struct.std::_Rb_tree_node_base"* } %12, 1
  store %"struct.std::_Rb_tree_node_base"* %17, %"struct.std::_Rb_tree_node_base"** %16, align 8
  %18 = getelementptr inbounds %"struct.std::pair.17", %"struct.std::pair.17"* %4, i32 0, i32 1
  %19 = load %"struct.std::_Rb_tree_node_base"*, %"struct.std::_Rb_tree_node_base"** %18, align 8
  %20 = icmp ne %"struct.std::_Rb_tree_node_base"* %19, null
  br i1 %20, label %21, label %29

21:                                               ; preds = %2
  call void @_ZNSt8_Rb_treeIiiSt9_IdentityIiESt4lessIiESaIiEE11_Alloc_nodeC2ERS5_(%"struct.std::_Rb_tree<int, int, std::_Identity<int>, std::less<int>, std::allocator<int> >::_Alloc_node"* %6, %"class.std::_Rb_tree"* dereferenceable(48) %0)
  %22 = getelementptr inbounds %"struct.std::pair.17", %"struct.std::pair.17"* %4, i32 0, i32 0
  %23 = load %"struct.std::_Rb_tree_node_base"*, %"struct.std::_Rb_tree_node_base"** %22, align 8
  %24 = getelementptr inbounds %"struct.std::pair.17", %"struct.std::pair.17"* %4, i32 0, i32 1
  %25 = load %"struct.std::_Rb_tree_node_base"*, %"struct.std::_Rb_tree_node_base"** %24, align 8
  %26 = call dereferenceable(4) i32* @_ZSt7forwardIRKiEOT_RNSt16remove_referenceIS2_E4typeE(i32* dereferenceable(4) %1) #3
  %27 = call %"struct.std::_Rb_tree_node_base"* @_ZNSt8_Rb_treeIiiSt9_IdentityIiESt4lessIiESaIiEE10_M_insert_IRKiNS5_11_Alloc_nodeEEESt17_Rb_tree_iteratorIiEPSt18_Rb_tree_node_baseSD_OT_RT0_(%"class.std::_Rb_tree"* %0, %"struct.std::_Rb_tree_node_base"* %23, %"struct.std::_Rb_tree_node_base"* %25, i32* dereferenceable(4) %26, %"struct.std::_Rb_tree<int, int, std::_Identity<int>, std::less<int>, std::allocator<int> >::_Alloc_node"* dereferenceable(8) %6)
  %28 = getelementptr inbounds %"struct.std::_Rb_tree_iterator", %"struct.std::_Rb_tree_iterator"* %7, i32 0, i32 0
  store %"struct.std::_Rb_tree_node_base"* %27, %"struct.std::_Rb_tree_node_base"** %28, align 8
  store i8 1, i8* %8, align 1
  call void @_ZNSt4pairISt17_Rb_tree_iteratorIiEbEC2IS1_bLb1EEEOT_OT0_(%"struct.std::pair.13"* %3, %"struct.std::_Rb_tree_iterator"* dereferenceable(8) %7, i8* dereferenceable(1) %8)
  br label %32

29:                                               ; preds = %2
  %30 = getelementptr inbounds %"struct.std::pair.17", %"struct.std::pair.17"* %4, i32 0, i32 0
  %31 = load %"struct.std::_Rb_tree_node_base"*, %"struct.std::_Rb_tree_node_base"** %30, align 8
  call void @_ZNSt17_Rb_tree_iteratorIiEC2EPSt18_Rb_tree_node_base(%"struct.std::_Rb_tree_iterator"* %9, %"struct.std::_Rb_tree_node_base"* %31) #3
  store i8 0, i8* %10, align 1
  call void @_ZNSt4pairISt17_Rb_tree_iteratorIiEbEC2IS1_bLb1EEEOT_OT0_(%"struct.std::pair.13"* %3, %"struct.std::_Rb_tree_iterator"* dereferenceable(8) %9, i8* dereferenceable(1) %10)
  br label %32

32:                                               ; preds = %29, %21
  %33 = bitcast %"struct.std::pair.13"* %3 to { %"struct.std::_Rb_tree_node_base"*, i8 }*
  %34 = load { %"struct.std::_Rb_tree_node_base"*, i8 }, { %"struct.std::_Rb_tree_node_base"*, i8 }* %33, align 8
  ret { %"struct.std::_Rb_tree_node_base"*, i8 } %34
}

; Function Attrs: noinline nounwind uwtable
define linkonce_odr void @_ZNSt4pairISt23_Rb_tree_const_iteratorIiEbEC2IRSt17_Rb_tree_iteratorIiERbLb1EEEOT_OT0_(%"struct.std::pair"* %0, %"struct.std::_Rb_tree_iterator"* dereferenceable(8) %1, i8* dereferenceable(1) %2) unnamed_addr #4 comdat align 2 {
  %4 = bitcast %"struct.std::pair"* %0 to %"class.std::__pair_base"*
  %5 = getelementptr inbounds %"struct.std::pair", %"struct.std::pair"* %0, i32 0, i32 0
  %6 = call dereferenceable(8) %"struct.std::_Rb_tree_iterator"* @_ZSt7forwardIRSt17_Rb_tree_iteratorIiEEOT_RNSt16remove_referenceIS3_E4typeE(%"struct.std::_Rb_tree_iterator"* dereferenceable(8) %1) #3
  call void @_ZNSt23_Rb_tree_const_iteratorIiEC2ERKSt17_Rb_tree_iteratorIiE(%"struct.std::_Rb_tree_const_iterator"* %5, %"struct.std::_Rb_tree_iterator"* dereferenceable(8) %6) #3
  %7 = getelementptr inbounds %"struct.std::pair", %"struct.std::pair"* %0, i32 0, i32 1
  %8 = call dereferenceable(1) i8* @_ZSt7forwardIRbEOT_RNSt16remove_referenceIS1_E4typeE(i8* dereferenceable(1) %2) #3
  %9 = load i8, i8* %8, align 1
  %10 = trunc i8 %9 to i1
  %11 = zext i1 %10 to i8
  store i8 %11, i8* %7, align 8
  ret void
}

; Function Attrs: noinline uwtable
define linkonce_odr { %"struct.std::_Rb_tree_node_base"*, %"struct.std::_Rb_tree_node_base"* } @_ZNSt8_Rb_treeIiiSt9_IdentityIiESt4lessIiESaIiEE24_M_get_insert_unique_posERKi(%"class.std::_Rb_tree"* %0, i32* dereferenceable(4) %1) #0 comdat align 2 {
  %3 = alloca %"struct.std::pair.17", align 8
  %4 = alloca %"struct.std::_Rb_tree_node"*, align 8
  %5 = alloca %"struct.std::_Rb_tree_node_base"*, align 8
  %6 = alloca %"struct.std::_Rb_tree_iterator", align 8
  %7 = alloca %"struct.std::_Rb_tree_iterator", align 8
  %8 = alloca %"struct.std::_Rb_tree_node_base"*, align 8
  %9 = call %"struct.std::_Rb_tree_node"* @_ZNSt8_Rb_treeIiiSt9_IdentityIiESt4lessIiESaIiEE8_M_beginEv(%"class.std::_Rb_tree"* %0) #3
  store %"struct.std::_Rb_tree_node"* %9, %"struct.std::_Rb_tree_node"** %4, align 8
  %10 = call %"struct.std::_Rb_tree_node_base"* @_ZNSt8_Rb_treeIiiSt9_IdentityIiESt4lessIiESaIiEE6_M_endEv(%"class.std::_Rb_tree"* %0) #3
  store %"struct.std::_Rb_tree_node_base"* %10, %"struct.std::_Rb_tree_node_base"** %5, align 8
  br label %11

11:                                               ; preds = %33, %2
  %.0 = phi i8 [ 1, %2 ], [ %23, %33 ]
  %12 = load %"struct.std::_Rb_tree_node"*, %"struct.std::_Rb_tree_node"** %4, align 8
  %13 = icmp ne %"struct.std::_Rb_tree_node"* %12, null
  br i1 %13, label %14, label %35

14:                                               ; preds = %11
  %15 = load %"struct.std::_Rb_tree_node"*, %"struct.std::_Rb_tree_node"** %4, align 8
  %16 = bitcast %"struct.std::_Rb_tree_node"* %15 to %"struct.std::_Rb_tree_node_base"*
  store %"struct.std::_Rb_tree_node_base"* %16, %"struct.std::_Rb_tree_node_base"** %5, align 8
  %17 = getelementptr inbounds %"class.std::_Rb_tree", %"class.std::_Rb_tree"* %0, i32 0, i32 0
  %18 = bitcast %"struct.std::_Rb_tree<int, int, std::_Identity<int>, std::less<int>, std::allocator<int> >::_Rb_tree_impl"* %17 to %"struct.std::_Rb_tree_key_compare"*
  %19 = getelementptr inbounds %"struct.std::_Rb_tree_key_compare", %"struct.std::_Rb_tree_key_compare"* %18, i32 0, i32 0
  %20 = load %"struct.std::_Rb_tree_node"*, %"struct.std::_Rb_tree_node"** %4, align 8
  %21 = call dereferenceable(4) i32* @_ZNSt8_Rb_treeIiiSt9_IdentityIiESt4lessIiESaIiEE6_S_keyEPKSt13_Rb_tree_nodeIiE(%"struct.std::_Rb_tree_node"* %20)
  %22 = call zeroext i1 @_ZNKSt4lessIiEclERKiS2_(%"struct.std::less"* %19, i32* dereferenceable(4) %1, i32* dereferenceable(4) %21)
  %23 = zext i1 %22 to i8
  %24 = trunc i8 %23 to i1
  br i1 %24, label %25, label %29

25:                                               ; preds = %14
  %26 = load %"struct.std::_Rb_tree_node"*, %"struct.std::_Rb_tree_node"** %4, align 8
  %27 = bitcast %"struct.std::_Rb_tree_node"* %26 to %"struct.std::_Rb_tree_node_base"*
  %28 = call %"struct.std::_Rb_tree_node"* @_ZNSt8_Rb_treeIiiSt9_IdentityIiESt4lessIiESaIiEE7_S_leftEPSt18_Rb_tree_node_base(%"struct.std::_Rb_tree_node_base"* %27) #3
  br label %33

29:                                               ; preds = %14
  %30 = load %"struct.std::_Rb_tree_node"*, %"struct.std::_Rb_tree_node"** %4, align 8
  %31 = bitcast %"struct.std::_Rb_tree_node"* %30 to %"struct.std::_Rb_tree_node_base"*
  %32 = call %"struct.std::_Rb_tree_node"* @_ZNSt8_Rb_treeIiiSt9_IdentityIiESt4lessIiESaIiEE8_S_rightEPSt18_Rb_tree_node_base(%"struct.std::_Rb_tree_node_base"* %31) #3
  br label %33

33:                                               ; preds = %29, %25
  %34 = phi %"struct.std::_Rb_tree_node"* [ %28, %25 ], [ %32, %29 ]
  store %"struct.std::_Rb_tree_node"* %34, %"struct.std::_Rb_tree_node"** %4, align 8
  br label %11

35:                                               ; preds = %11
  %36 = load %"struct.std::_Rb_tree_node_base"*, %"struct.std::_Rb_tree_node_base"** %5, align 8
  call void @_ZNSt17_Rb_tree_iteratorIiEC2EPSt18_Rb_tree_node_base(%"struct.std::_Rb_tree_iterator"* %6, %"struct.std::_Rb_tree_node_base"* %36) #3
  %37 = trunc i8 %.0 to i1
  br i1 %37, label %38, label %46

38:                                               ; preds = %35
  %39 = call %"struct.std::_Rb_tree_node_base"* @_ZNSt8_Rb_treeIiiSt9_IdentityIiESt4lessIiESaIiEE5beginEv(%"class.std::_Rb_tree"* %0) #3
  %40 = getelementptr inbounds %"struct.std::_Rb_tree_iterator", %"struct.std::_Rb_tree_iterator"* %7, i32 0, i32 0
  store %"struct.std::_Rb_tree_node_base"* %39, %"struct.std::_Rb_tree_node_base"** %40, align 8
  %41 = call zeroext i1 @_ZNKSt17_Rb_tree_iteratorIiEeqERKS0_(%"struct.std::_Rb_tree_iterator"* %6, %"struct.std::_Rb_tree_iterator"* dereferenceable(8) %7) #3
  br i1 %41, label %42, label %43

42:                                               ; preds = %38
  call void @_ZNSt4pairIPSt18_Rb_tree_node_baseS1_EC2IRPSt13_Rb_tree_nodeIiERS1_Lb1EEEOT_OT0_(%"struct.std::pair.17"* %3, %"struct.std::_Rb_tree_node"** dereferenceable(8) %4, %"struct.std::_Rb_tree_node_base"** dereferenceable(8) %5)
  br label %57

43:                                               ; preds = %38
  %44 = call dereferenceable(8) %"struct.std::_Rb_tree_iterator"* @_ZNSt17_Rb_tree_iteratorIiEmmEv(%"struct.std::_Rb_tree_iterator"* %6) #3
  br label %45

45:                                               ; preds = %43
  br label %46

46:                                               ; preds = %45, %35
  %47 = getelementptr inbounds %"class.std::_Rb_tree", %"class.std::_Rb_tree"* %0, i32 0, i32 0
  %48 = bitcast %"struct.std::_Rb_tree<int, int, std::_Identity<int>, std::less<int>, std::allocator<int> >::_Rb_tree_impl"* %47 to %"struct.std::_Rb_tree_key_compare"*
  %49 = getelementptr inbounds %"struct.std::_Rb_tree_key_compare", %"struct.std::_Rb_tree_key_compare"* %48, i32 0, i32 0
  %50 = getelementptr inbounds %"struct.std::_Rb_tree_iterator", %"struct.std::_Rb_tree_iterator"* %6, i32 0, i32 0
  %51 = load %"struct.std::_Rb_tree_node_base"*, %"struct.std::_Rb_tree_node_base"** %50, align 8
  %52 = call dereferenceable(4) i32* @_ZNSt8_Rb_treeIiiSt9_IdentityIiESt4lessIiESaIiEE6_S_keyEPKSt18_Rb_tree_node_base(%"struct.std::_Rb_tree_node_base"* %51)
  %53 = call zeroext i1 @_ZNKSt4lessIiEclERKiS2_(%"struct.std::less"* %49, i32* dereferenceable(4) %52, i32* dereferenceable(4) %1)
  br i1 %53, label %54, label %55

54:                                               ; preds = %46
  call void @_ZNSt4pairIPSt18_Rb_tree_node_baseS1_EC2IRPSt13_Rb_tree_nodeIiERS1_Lb1EEEOT_OT0_(%"struct.std::pair.17"* %3, %"struct.std::_Rb_tree_node"** dereferenceable(8) %4, %"struct.std::_Rb_tree_node_base"** dereferenceable(8) %5)
  br label %57

55:                                               ; preds = %46
  %56 = getelementptr inbounds %"struct.std::_Rb_tree_iterator", %"struct.std::_Rb_tree_iterator"* %6, i32 0, i32 0
  store %"struct.std::_Rb_tree_node_base"* null, %"struct.std::_Rb_tree_node_base"** %8, align 8
  call void @_ZNSt4pairIPSt18_Rb_tree_node_baseS1_EC2IRS1_Lb1EEEOT_RKS1_(%"struct.std::pair.17"* %3, %"struct.std::_Rb_tree_node_base"** dereferenceable(8) %56, %"struct.std::_Rb_tree_node_base"** dereferenceable(8) %8)
  br label %57

57:                                               ; preds = %55, %54, %42
  %58 = bitcast %"struct.std::pair.17"* %3 to { %"struct.std::_Rb_tree_node_base"*, %"struct.std::_Rb_tree_node_base"* }*
  %59 = load { %"struct.std::_Rb_tree_node_base"*, %"struct.std::_Rb_tree_node_base"* }, { %"struct.std::_Rb_tree_node_base"*, %"struct.std::_Rb_tree_node_base"* }* %58, align 8
  ret { %"struct.std::_Rb_tree_node_base"*, %"struct.std::_Rb_tree_node_base"* } %59
}

; Function Attrs: noinline nounwind uwtable
define linkonce_odr dereferenceable(4) i32* @_ZNKSt9_IdentityIiEclERKi(%"struct.std::_Identity"* %0, i32* dereferenceable(4) %1) #4 comdat align 2 {
  ret i32* %1
}

; Function Attrs: noinline nounwind uwtable
define linkonce_odr void @_ZNSt8_Rb_treeIiiSt9_IdentityIiESt4lessIiESaIiEE11_Alloc_nodeC2ERS5_(%"struct.std::_Rb_tree<int, int, std::_Identity<int>, std::less<int>, std::allocator<int> >::_Alloc_node"* %0, %"class.std::_Rb_tree"* dereferenceable(48) %1) unnamed_addr #4 comdat align 2 {
  %3 = getelementptr inbounds %"struct.std::_Rb_tree<int, int, std::_Identity<int>, std::less<int>, std::allocator<int> >::_Alloc_node", %"struct.std::_Rb_tree<int, int, std::_Identity<int>, std::less<int>, std::allocator<int> >::_Alloc_node"* %0, i32 0, i32 0
  store %"class.std::_Rb_tree"* %1, %"class.std::_Rb_tree"** %3, align 8
  ret void
}

; Function Attrs: noinline uwtable
define linkonce_odr %"struct.std::_Rb_tree_node_base"* @_ZNSt8_Rb_treeIiiSt9_IdentityIiESt4lessIiESaIiEE10_M_insert_IRKiNS5_11_Alloc_nodeEEESt17_Rb_tree_iteratorIiEPSt18_Rb_tree_node_baseSD_OT_RT0_(%"class.std::_Rb_tree"* %0, %"struct.std::_Rb_tree_node_base"* %1, %"struct.std::_Rb_tree_node_base"* %2, i32* dereferenceable(4) %3, %"struct.std::_Rb_tree<int, int, std::_Identity<int>, std::less<int>, std::allocator<int> >::_Alloc_node"* dereferenceable(8) %4) #0 comdat align 2 {
  %6 = alloca %"struct.std::_Rb_tree_iterator", align 8
  %7 = alloca %"struct.std::_Identity", align 1
  %8 = icmp ne %"struct.std::_Rb_tree_node_base"* %1, null
  br i1 %8, label %19, label %9

9:                                                ; preds = %5
  %10 = call %"struct.std::_Rb_tree_node_base"* @_ZNSt8_Rb_treeIiiSt9_IdentityIiESt4lessIiESaIiEE6_M_endEv(%"class.std::_Rb_tree"* %0) #3
  %11 = icmp eq %"struct.std::_Rb_tree_node_base"* %2, %10
  br i1 %11, label %19, label %12

12:                                               ; preds = %9
  %13 = getelementptr inbounds %"class.std::_Rb_tree", %"class.std::_Rb_tree"* %0, i32 0, i32 0
  %14 = bitcast %"struct.std::_Rb_tree<int, int, std::_Identity<int>, std::less<int>, std::allocator<int> >::_Rb_tree_impl"* %13 to %"struct.std::_Rb_tree_key_compare"*
  %15 = getelementptr inbounds %"struct.std::_Rb_tree_key_compare", %"struct.std::_Rb_tree_key_compare"* %14, i32 0, i32 0
  %16 = call dereferenceable(4) i32* @_ZNKSt9_IdentityIiEclERKi(%"struct.std::_Identity"* %7, i32* dereferenceable(4) %3)
  %17 = call dereferenceable(4) i32* @_ZNSt8_Rb_treeIiiSt9_IdentityIiESt4lessIiESaIiEE6_S_keyEPKSt18_Rb_tree_node_base(%"struct.std::_Rb_tree_node_base"* %2)
  %18 = call zeroext i1 @_ZNKSt4lessIiEclERKiS2_(%"struct.std::less"* %15, i32* dereferenceable(4) %16, i32* dereferenceable(4) %17)
  br label %19

19:                                               ; preds = %12, %9, %5
  %20 = phi i1 [ true, %9 ], [ true, %5 ], [ %18, %12 ]
  %21 = zext i1 %20 to i8
  %22 = call dereferenceable(4) i32* @_ZSt7forwardIRKiEOT_RNSt16remove_referenceIS2_E4typeE(i32* dereferenceable(4) %3) #3
  %23 = call %"struct.std::_Rb_tree_node"* @_ZNKSt8_Rb_treeIiiSt9_IdentityIiESt4lessIiESaIiEE11_Alloc_nodeclIRKiEEPSt13_Rb_tree_nodeIiEOT_(%"struct.std::_Rb_tree<int, int, std::_Identity<int>, std::less<int>, std::allocator<int> >::_Alloc_node"* %4, i32* dereferenceable(4) %22)
  %24 = trunc i8 %21 to i1
  %25 = bitcast %"struct.std::_Rb_tree_node"* %23 to %"struct.std::_Rb_tree_node_base"*
  %26 = getelementptr inbounds %"class.std::_Rb_tree", %"class.std::_Rb_tree"* %0, i32 0, i32 0
  %27 = bitcast %"struct.std::_Rb_tree<int, int, std::_Identity<int>, std::less<int>, std::allocator<int> >::_Rb_tree_impl"* %26 to i8*
  %28 = getelementptr inbounds i8, i8* %27, i64 8
  %29 = bitcast i8* %28 to %"struct.std::_Rb_tree_header"*
  %30 = getelementptr inbounds %"struct.std::_Rb_tree_header", %"struct.std::_Rb_tree_header"* %29, i32 0, i32 0
  call void @_ZSt29_Rb_tree_insert_and_rebalancebPSt18_Rb_tree_node_baseS0_RS_(i1 zeroext %24, %"struct.std::_Rb_tree_node_base"* %25, %"struct.std::_Rb_tree_node_base"* %2, %"struct.std::_Rb_tree_node_base"* dereferenceable(32) %30) #3
  %31 = getelementptr inbounds %"class.std::_Rb_tree", %"class.std::_Rb_tree"* %0, i32 0, i32 0
  %32 = bitcast %"struct.std::_Rb_tree<int, int, std::_Identity<int>, std::less<int>, std::allocator<int> >::_Rb_tree_impl"* %31 to i8*
  %33 = getelementptr inbounds i8, i8* %32, i64 8
  %34 = bitcast i8* %33 to %"struct.std::_Rb_tree_header"*
  %35 = getelementptr inbounds %"struct.std::_Rb_tree_header", %"struct.std::_Rb_tree_header"* %34, i32 0, i32 1
  %36 = load i64, i64* %35, align 8
  %37 = add i64 %36, 1
  store i64 %37, i64* %35, align 8
  %38 = bitcast %"struct.std::_Rb_tree_node"* %23 to %"struct.std::_Rb_tree_node_base"*
  call void @_ZNSt17_Rb_tree_iteratorIiEC2EPSt18_Rb_tree_node_base(%"struct.std::_Rb_tree_iterator"* %6, %"struct.std::_Rb_tree_node_base"* %38) #3
  %39 = getelementptr inbounds %"struct.std::_Rb_tree_iterator", %"struct.std::_Rb_tree_iterator"* %6, i32 0, i32 0
  %40 = load %"struct.std::_Rb_tree_node_base"*, %"struct.std::_Rb_tree_node_base"** %39, align 8
  ret %"struct.std::_Rb_tree_node_base"* %40
}

; Function Attrs: noinline nounwind uwtable
define linkonce_odr void @_ZNSt4pairISt17_Rb_tree_iteratorIiEbEC2IS1_bLb1EEEOT_OT0_(%"struct.std::pair.13"* %0, %"struct.std::_Rb_tree_iterator"* dereferenceable(8) %1, i8* dereferenceable(1) %2) unnamed_addr #4 comdat align 2 {
  %4 = bitcast %"struct.std::pair.13"* %0 to %"class.std::__pair_base.14"*
  %5 = getelementptr inbounds %"struct.std::pair.13", %"struct.std::pair.13"* %0, i32 0, i32 0
  %6 = call dereferenceable(8) %"struct.std::_Rb_tree_iterator"* @_ZSt7forwardISt17_Rb_tree_iteratorIiEEOT_RNSt16remove_referenceIS2_E4typeE(%"struct.std::_Rb_tree_iterator"* dereferenceable(8) %1) #3
  %7 = bitcast %"struct.std::_Rb_tree_iterator"* %5 to i8*
  %8 = bitcast %"struct.std::_Rb_tree_iterator"* %6 to i8*
  call void @llvm.memcpy.p0i8.p0i8.i64(i8* align 8 %7, i8* align 8 %8, i64 8, i1 false)
  %9 = getelementptr inbounds %"struct.std::pair.13", %"struct.std::pair.13"* %0, i32 0, i32 1
  %10 = call dereferenceable(1) i8* @_ZSt7forwardIbEOT_RNSt16remove_referenceIS0_E4typeE(i8* dereferenceable(1) %2) #3
  %11 = load i8, i8* %10, align 1
  %12 = trunc i8 %11 to i1
  %13 = zext i1 %12 to i8
  store i8 %13, i8* %9, align 8
  ret void
}

; Function Attrs: noinline nounwind uwtable
define linkonce_odr void @_ZNSt17_Rb_tree_iteratorIiEC2EPSt18_Rb_tree_node_base(%"struct.std::_Rb_tree_iterator"* %0, %"struct.std::_Rb_tree_node_base"* %1) unnamed_addr #4 comdat align 2 {
  %3 = getelementptr inbounds %"struct.std::_Rb_tree_iterator", %"struct.std::_Rb_tree_iterator"* %0, i32 0, i32 0
  store %"struct.std::_Rb_tree_node_base"* %1, %"struct.std::_Rb_tree_node_base"** %3, align 8
  ret void
}

; Function Attrs: noinline nounwind uwtable
define linkonce_odr %"struct.std::_Rb_tree_node_base"* @_ZNSt8_Rb_treeIiiSt9_IdentityIiESt4lessIiESaIiEE6_M_endEv(%"class.std::_Rb_tree"* %0) #4 comdat align 2 {
  %2 = getelementptr inbounds %"class.std::_Rb_tree", %"class.std::_Rb_tree"* %0, i32 0, i32 0
  %3 = bitcast %"struct.std::_Rb_tree<int, int, std::_Identity<int>, std::less<int>, std::allocator<int> >::_Rb_tree_impl"* %2 to i8*
  %4 = getelementptr inbounds i8, i8* %3, i64 8
  %5 = bitcast i8* %4 to %"struct.std::_Rb_tree_header"*
  %6 = getelementptr inbounds %"struct.std::_Rb_tree_header", %"struct.std::_Rb_tree_header"* %5, i32 0, i32 0
  ret %"struct.std::_Rb_tree_node_base"* %6
}

; Function Attrs: noinline nounwind uwtable
define linkonce_odr zeroext i1 @_ZNKSt4lessIiEclERKiS2_(%"struct.std::less"* %0, i32* dereferenceable(4) %1, i32* dereferenceable(4) %2) #4 comdat align 2 {
  %4 = load i32, i32* %1, align 4
  %5 = load i32, i32* %2, align 4
  %6 = icmp slt i32 %4, %5
  ret i1 %6
}

; Function Attrs: noinline uwtable
define linkonce_odr dereferenceable(4) i32* @_ZNSt8_Rb_treeIiiSt9_IdentityIiESt4lessIiESaIiEE6_S_keyEPKSt13_Rb_tree_nodeIiE(%"struct.std::_Rb_tree_node"* %0) #0 comdat align 2 {
  %2 = alloca %"struct.std::_Identity", align 1
  %3 = call i32* @_ZNKSt13_Rb_tree_nodeIiE9_M_valptrEv(%"struct.std::_Rb_tree_node"* %0)
  %4 = call dereferenceable(4) i32* @_ZNKSt9_IdentityIiEclERKi(%"struct.std::_Identity"* %2, i32* dereferenceable(4) %3)
  ret i32* %4
}

; Function Attrs: noinline nounwind uwtable
define linkonce_odr zeroext i1 @_ZNKSt17_Rb_tree_iteratorIiEeqERKS0_(%"struct.std::_Rb_tree_iterator"* %0, %"struct.std::_Rb_tree_iterator"* dereferenceable(8) %1) #4 comdat align 2 {
  %3 = getelementptr inbounds %"struct.std::_Rb_tree_iterator", %"struct.std::_Rb_tree_iterator"* %0, i32 0, i32 0
  %4 = load %"struct.std::_Rb_tree_node_base"*, %"struct.std::_Rb_tree_node_base"** %3, align 8
  %5 = getelementptr inbounds %"struct.std::_Rb_tree_iterator", %"struct.std::_Rb_tree_iterator"* %1, i32 0, i32 0
  %6 = load %"struct.std::_Rb_tree_node_base"*, %"struct.std::_Rb_tree_node_base"** %5, align 8
  %7 = icmp eq %"struct.std::_Rb_tree_node_base"* %4, %6
  ret i1 %7
}

; Function Attrs: noinline nounwind uwtable
define linkonce_odr %"struct.std::_Rb_tree_node_base"* @_ZNSt8_Rb_treeIiiSt9_IdentityIiESt4lessIiESaIiEE5beginEv(%"class.std::_Rb_tree"* %0) #4 comdat align 2 {
  %2 = alloca %"struct.std::_Rb_tree_iterator", align 8
  %3 = getelementptr inbounds %"class.std::_Rb_tree", %"class.std::_Rb_tree"* %0, i32 0, i32 0
  %4 = bitcast %"struct.std::_Rb_tree<int, int, std::_Identity<int>, std::less<int>, std::allocator<int> >::_Rb_tree_impl"* %3 to i8*
  %5 = getelementptr inbounds i8, i8* %4, i64 8
  %6 = bitcast i8* %5 to %"struct.std::_Rb_tree_header"*
  %7 = getelementptr inbounds %"struct.std::_Rb_tree_header", %"struct.std::_Rb_tree_header"* %6, i32 0, i32 0
  %8 = getelementptr inbounds %"struct.std::_Rb_tree_node_base", %"struct.std::_Rb_tree_node_base"* %7, i32 0, i32 2
  %9 = load %"struct.std::_Rb_tree_node_base"*, %"struct.std::_Rb_tree_node_base"** %8, align 8
  call void @_ZNSt17_Rb_tree_iteratorIiEC2EPSt18_Rb_tree_node_base(%"struct.std::_Rb_tree_iterator"* %2, %"struct.std::_Rb_tree_node_base"* %9) #3
  %10 = getelementptr inbounds %"struct.std::_Rb_tree_iterator", %"struct.std::_Rb_tree_iterator"* %2, i32 0, i32 0
  %11 = load %"struct.std::_Rb_tree_node_base"*, %"struct.std::_Rb_tree_node_base"** %10, align 8
  ret %"struct.std::_Rb_tree_node_base"* %11
}

; Function Attrs: noinline nounwind uwtable
define linkonce_odr void @_ZNSt4pairIPSt18_Rb_tree_node_baseS1_EC2IRPSt13_Rb_tree_nodeIiERS1_Lb1EEEOT_OT0_(%"struct.std::pair.17"* %0, %"struct.std::_Rb_tree_node"** dereferenceable(8) %1, %"struct.std::_Rb_tree_node_base"** dereferenceable(8) %2) unnamed_addr #4 comdat align 2 {
  %4 = bitcast %"struct.std::pair.17"* %0 to %"class.std::__pair_base.18"*
  %5 = getelementptr inbounds %"struct.std::pair.17", %"struct.std::pair.17"* %0, i32 0, i32 0
  %6 = call dereferenceable(8) %"struct.std::_Rb_tree_node"** @_ZSt7forwardIRPSt13_Rb_tree_nodeIiEEOT_RNSt16remove_referenceIS4_E4typeE(%"struct.std::_Rb_tree_node"** dereferenceable(8) %1) #3
  %7 = load %"struct.std::_Rb_tree_node"*, %"struct.std::_Rb_tree_node"** %6, align 8
  %8 = bitcast %"struct.std::_Rb_tree_node"* %7 to %"struct.std::_Rb_tree_node_base"*
  store %"struct.std::_Rb_tree_node_base"* %8, %"struct.std::_Rb_tree_node_base"** %5, align 8
  %9 = getelementptr inbounds %"struct.std::pair.17", %"struct.std::pair.17"* %0, i32 0, i32 1
  %10 = call dereferenceable(8) %"struct.std::_Rb_tree_node_base"** @_ZSt7forwardIRPSt18_Rb_tree_node_baseEOT_RNSt16remove_referenceIS3_E4typeE(%"struct.std::_Rb_tree_node_base"** dereferenceable(8) %2) #3
  %11 = load %"struct.std::_Rb_tree_node_base"*, %"struct.std::_Rb_tree_node_base"** %10, align 8
  store %"struct.std::_Rb_tree_node_base"* %11, %"struct.std::_Rb_tree_node_base"** %9, align 8
  ret void
}

; Function Attrs: noinline nounwind uwtable
define linkonce_odr dereferenceable(8) %"struct.std::_Rb_tree_iterator"* @_ZNSt17_Rb_tree_iteratorIiEmmEv(%"struct.std::_Rb_tree_iterator"* %0) #4 comdat align 2 {
  %2 = getelementptr inbounds %"struct.std::_Rb_tree_iterator", %"struct.std::_Rb_tree_iterator"* %0, i32 0, i32 0
  %3 = load %"struct.std::_Rb_tree_node_base"*, %"struct.std::_Rb_tree_node_base"** %2, align 8
  %4 = call %"struct.std::_Rb_tree_node_base"* @_ZSt18_Rb_tree_decrementPSt18_Rb_tree_node_base(%"struct.std::_Rb_tree_node_base"* %3) #17
  %5 = getelementptr inbounds %"struct.std::_Rb_tree_iterator", %"struct.std::_Rb_tree_iterator"* %0, i32 0, i32 0
  store %"struct.std::_Rb_tree_node_base"* %4, %"struct.std::_Rb_tree_node_base"** %5, align 8
  ret %"struct.std::_Rb_tree_iterator"* %0
}

; Function Attrs: noinline uwtable
define linkonce_odr dereferenceable(4) i32* @_ZNSt8_Rb_treeIiiSt9_IdentityIiESt4lessIiESaIiEE6_S_keyEPKSt18_Rb_tree_node_base(%"struct.std::_Rb_tree_node_base"* %0) #0 comdat align 2 {
  %2 = bitcast %"struct.std::_Rb_tree_node_base"* %0 to %"struct.std::_Rb_tree_node"*
  %3 = call dereferenceable(4) i32* @_ZNSt8_Rb_treeIiiSt9_IdentityIiESt4lessIiESaIiEE6_S_keyEPKSt13_Rb_tree_nodeIiE(%"struct.std::_Rb_tree_node"* %2)
  ret i32* %3
}

; Function Attrs: noinline nounwind uwtable
define linkonce_odr void @_ZNSt4pairIPSt18_Rb_tree_node_baseS1_EC2IRS1_Lb1EEEOT_RKS1_(%"struct.std::pair.17"* %0, %"struct.std::_Rb_tree_node_base"** dereferenceable(8) %1, %"struct.std::_Rb_tree_node_base"** dereferenceable(8) %2) unnamed_addr #4 comdat align 2 {
  %4 = bitcast %"struct.std::pair.17"* %0 to %"class.std::__pair_base.18"*
  %5 = getelementptr inbounds %"struct.std::pair.17", %"struct.std::pair.17"* %0, i32 0, i32 0
  %6 = call dereferenceable(8) %"struct.std::_Rb_tree_node_base"** @_ZSt7forwardIRPSt18_Rb_tree_node_baseEOT_RNSt16remove_referenceIS3_E4typeE(%"struct.std::_Rb_tree_node_base"** dereferenceable(8) %1) #3
  %7 = load %"struct.std::_Rb_tree_node_base"*, %"struct.std::_Rb_tree_node_base"** %6, align 8
  store %"struct.std::_Rb_tree_node_base"* %7, %"struct.std::_Rb_tree_node_base"** %5, align 8
  %8 = getelementptr inbounds %"struct.std::pair.17", %"struct.std::pair.17"* %0, i32 0, i32 1
  %9 = load %"struct.std::_Rb_tree_node_base"*, %"struct.std::_Rb_tree_node_base"** %2, align 8
  store %"struct.std::_Rb_tree_node_base"* %9, %"struct.std::_Rb_tree_node_base"** %8, align 8
  ret void
}

; Function Attrs: noinline nounwind uwtable
define linkonce_odr i32* @_ZNKSt13_Rb_tree_nodeIiE9_M_valptrEv(%"struct.std::_Rb_tree_node"* %0) #4 comdat align 2 {
  %2 = getelementptr inbounds %"struct.std::_Rb_tree_node", %"struct.std::_Rb_tree_node"* %0, i32 0, i32 1
  %3 = call i32* @_ZNK9__gnu_cxx16__aligned_membufIiE6_M_ptrEv(%"struct.__gnu_cxx::__aligned_membuf"* %2) #3
  ret i32* %3
}

; Function Attrs: noinline nounwind uwtable
define linkonce_odr i32* @_ZNK9__gnu_cxx16__aligned_membufIiE6_M_ptrEv(%"struct.__gnu_cxx::__aligned_membuf"* %0) #4 comdat align 2 {
  %2 = call i8* @_ZNK9__gnu_cxx16__aligned_membufIiE7_M_addrEv(%"struct.__gnu_cxx::__aligned_membuf"* %0) #3
  %3 = bitcast i8* %2 to i32*
  ret i32* %3
}

; Function Attrs: noinline nounwind uwtable
define linkonce_odr i8* @_ZNK9__gnu_cxx16__aligned_membufIiE7_M_addrEv(%"struct.__gnu_cxx::__aligned_membuf"* %0) #4 comdat align 2 {
  %2 = getelementptr inbounds %"struct.__gnu_cxx::__aligned_membuf", %"struct.__gnu_cxx::__aligned_membuf"* %0, i32 0, i32 0
  %3 = bitcast [4 x i8]* %2 to i8*
  ret i8* %3
}

; Function Attrs: noinline nounwind uwtable
define linkonce_odr dereferenceable(8) %"struct.std::_Rb_tree_node"** @_ZSt7forwardIRPSt13_Rb_tree_nodeIiEEOT_RNSt16remove_referenceIS4_E4typeE(%"struct.std::_Rb_tree_node"** dereferenceable(8) %0) #4 comdat {
  ret %"struct.std::_Rb_tree_node"** %0
}

; Function Attrs: noinline nounwind uwtable
define linkonce_odr dereferenceable(8) %"struct.std::_Rb_tree_node_base"** @_ZSt7forwardIRPSt18_Rb_tree_node_baseEOT_RNSt16remove_referenceIS3_E4typeE(%"struct.std::_Rb_tree_node_base"** dereferenceable(8) %0) #4 comdat {
  ret %"struct.std::_Rb_tree_node_base"** %0
}

; Function Attrs: nounwind readonly
declare %"struct.std::_Rb_tree_node_base"* @_ZSt18_Rb_tree_decrementPSt18_Rb_tree_node_base(%"struct.std::_Rb_tree_node_base"*) #12

; Function Attrs: noinline uwtable
define linkonce_odr %"struct.std::_Rb_tree_node"* @_ZNKSt8_Rb_treeIiiSt9_IdentityIiESt4lessIiESaIiEE11_Alloc_nodeclIRKiEEPSt13_Rb_tree_nodeIiEOT_(%"struct.std::_Rb_tree<int, int, std::_Identity<int>, std::less<int>, std::allocator<int> >::_Alloc_node"* %0, i32* dereferenceable(4) %1) #0 comdat align 2 {
  %3 = getelementptr inbounds %"struct.std::_Rb_tree<int, int, std::_Identity<int>, std::less<int>, std::allocator<int> >::_Alloc_node", %"struct.std::_Rb_tree<int, int, std::_Identity<int>, std::less<int>, std::allocator<int> >::_Alloc_node"* %0, i32 0, i32 0
  %4 = load %"class.std::_Rb_tree"*, %"class.std::_Rb_tree"** %3, align 8
  %5 = call dereferenceable(4) i32* @_ZSt7forwardIRKiEOT_RNSt16remove_referenceIS2_E4typeE(i32* dereferenceable(4) %1) #3
  %6 = call %"struct.std::_Rb_tree_node"* @_ZNSt8_Rb_treeIiiSt9_IdentityIiESt4lessIiESaIiEE14_M_create_nodeIJRKiEEEPSt13_Rb_tree_nodeIiEDpOT_(%"class.std::_Rb_tree"* %4, i32* dereferenceable(4) %5)
  ret %"struct.std::_Rb_tree_node"* %6
}

; Function Attrs: nounwind
declare void @_ZSt29_Rb_tree_insert_and_rebalancebPSt18_Rb_tree_node_baseS0_RS_(i1 zeroext, %"struct.std::_Rb_tree_node_base"*, %"struct.std::_Rb_tree_node_base"*, %"struct.std::_Rb_tree_node_base"* dereferenceable(32)) #2

; Function Attrs: noinline uwtable
define linkonce_odr %"struct.std::_Rb_tree_node"* @_ZNSt8_Rb_treeIiiSt9_IdentityIiESt4lessIiESaIiEE14_M_create_nodeIJRKiEEEPSt13_Rb_tree_nodeIiEDpOT_(%"class.std::_Rb_tree"* %0, i32* dereferenceable(4) %1) #0 comdat align 2 {
  %3 = call %"struct.std::_Rb_tree_node"* @_ZNSt8_Rb_treeIiiSt9_IdentityIiESt4lessIiESaIiEE11_M_get_nodeEv(%"class.std::_Rb_tree"* %0)
  %4 = call dereferenceable(4) i32* @_ZSt7forwardIRKiEOT_RNSt16remove_referenceIS2_E4typeE(i32* dereferenceable(4) %1) #3
  call void @_ZNSt8_Rb_treeIiiSt9_IdentityIiESt4lessIiESaIiEE17_M_construct_nodeIJRKiEEEvPSt13_Rb_tree_nodeIiEDpOT_(%"class.std::_Rb_tree"* %0, %"struct.std::_Rb_tree_node"* %3, i32* dereferenceable(4) %4)
  ret %"struct.std::_Rb_tree_node"* %3
}

; Function Attrs: noinline uwtable
define linkonce_odr %"struct.std::_Rb_tree_node"* @_ZNSt8_Rb_treeIiiSt9_IdentityIiESt4lessIiESaIiEE11_M_get_nodeEv(%"class.std::_Rb_tree"* %0) #0 comdat align 2 {
  %2 = call dereferenceable(1) %"class.std::allocator.10"* @_ZNSt8_Rb_treeIiiSt9_IdentityIiESt4lessIiESaIiEE21_M_get_Node_allocatorEv(%"class.std::_Rb_tree"* %0) #3
  %3 = call %"struct.std::_Rb_tree_node"* @_ZNSt16allocator_traitsISaISt13_Rb_tree_nodeIiEEE8allocateERS2_m(%"class.std::allocator.10"* dereferenceable(1) %2, i64 1)
  ret %"struct.std::_Rb_tree_node"* %3
}

; Function Attrs: noinline uwtable
define linkonce_odr void @_ZNSt8_Rb_treeIiiSt9_IdentityIiESt4lessIiESaIiEE17_M_construct_nodeIJRKiEEEvPSt13_Rb_tree_nodeIiEDpOT_(%"class.std::_Rb_tree"* %0, %"struct.std::_Rb_tree_node"* %1, i32* dereferenceable(4) %2) #0 comdat align 2 personality i8* bitcast (i32 (...)* @__gxx_personality_v0 to i8*) {
  %4 = bitcast %"struct.std::_Rb_tree_node"* %1 to i8*
  %5 = bitcast i8* %4 to %"struct.std::_Rb_tree_node"*
  %6 = call dereferenceable(1) %"class.std::allocator.10"* @_ZNSt8_Rb_treeIiiSt9_IdentityIiESt4lessIiESaIiEE21_M_get_Node_allocatorEv(%"class.std::_Rb_tree"* %0) #3
  %7 = invoke i32* @_ZNSt13_Rb_tree_nodeIiE9_M_valptrEv(%"struct.std::_Rb_tree_node"* %1)
          to label %8 unwind label %11

8:                                                ; preds = %3
  %9 = call dereferenceable(4) i32* @_ZSt7forwardIRKiEOT_RNSt16remove_referenceIS2_E4typeE(i32* dereferenceable(4) %2) #3
  invoke void @_ZNSt16allocator_traitsISaISt13_Rb_tree_nodeIiEEE9constructIiJRKiEEEvRS2_PT_DpOT0_(%"class.std::allocator.10"* dereferenceable(1) %6, i32* %7, i32* dereferenceable(4) %9)
          to label %10 unwind label %11

10:                                               ; preds = %8
  br label %22

11:                                               ; preds = %8, %3
  %12 = landingpad { i8*, i32 }
          catch i8* null
  %13 = extractvalue { i8*, i32 } %12, 0
  %14 = extractvalue { i8*, i32 } %12, 1
  br label %15

15:                                               ; preds = %11
  %16 = call i8* @__cxa_begin_catch(i8* %13) #3
  call void @_ZNSt8_Rb_treeIiiSt9_IdentityIiESt4lessIiESaIiEE11_M_put_nodeEPSt13_Rb_tree_nodeIiE(%"class.std::_Rb_tree"* %0, %"struct.std::_Rb_tree_node"* %1) #3
  invoke void @__cxa_rethrow() #18
          to label %29 unwind label %17

17:                                               ; preds = %15
  %18 = landingpad { i8*, i32 }
          cleanup
  %19 = extractvalue { i8*, i32 } %18, 0
  %20 = extractvalue { i8*, i32 } %18, 1
  invoke void @__cxa_end_catch()
          to label %21 unwind label %26

21:                                               ; preds = %17
  br label %23

22:                                               ; preds = %10
  ret void

23:                                               ; preds = %21
  %24 = insertvalue { i8*, i32 } undef, i8* %19, 0
  %25 = insertvalue { i8*, i32 } %24, i32 %20, 1
  resume { i8*, i32 } %25

26:                                               ; preds = %17
  %27 = landingpad { i8*, i32 }
          catch i8* null
  %28 = extractvalue { i8*, i32 } %27, 0
  call void @__clang_call_terminate(i8* %28) #16
  unreachable

29:                                               ; preds = %15
  unreachable
}

; Function Attrs: noinline uwtable
define linkonce_odr %"struct.std::_Rb_tree_node"* @_ZNSt16allocator_traitsISaISt13_Rb_tree_nodeIiEEE8allocateERS2_m(%"class.std::allocator.10"* dereferenceable(1) %0, i64 %1) #0 comdat align 2 {
  %3 = bitcast %"class.std::allocator.10"* %0 to %"class.__gnu_cxx::new_allocator.11"*
  %4 = call %"struct.std::_Rb_tree_node"* @_ZN9__gnu_cxx13new_allocatorISt13_Rb_tree_nodeIiEE8allocateEmPKv(%"class.__gnu_cxx::new_allocator.11"* %3, i64 %1, i8* null)
  ret %"struct.std::_Rb_tree_node"* %4
}

; Function Attrs: noinline uwtable
define linkonce_odr %"struct.std::_Rb_tree_node"* @_ZN9__gnu_cxx13new_allocatorISt13_Rb_tree_nodeIiEE8allocateEmPKv(%"class.__gnu_cxx::new_allocator.11"* %0, i64 %1, i8* %2) #0 comdat align 2 {
  %4 = call i64 @_ZNK9__gnu_cxx13new_allocatorISt13_Rb_tree_nodeIiEE8max_sizeEv(%"class.__gnu_cxx::new_allocator.11"* %0) #3
  %5 = icmp ugt i64 %1, %4
  br i1 %5, label %6, label %7

6:                                                ; preds = %3
  call void @_ZSt17__throw_bad_allocv() #18
  unreachable

7:                                                ; preds = %3
  %8 = mul i64 %1, 40
  %9 = call i8* @_Znwm(i64 %8)
  %10 = bitcast i8* %9 to %"struct.std::_Rb_tree_node"*
  ret %"struct.std::_Rb_tree_node"* %10
}

; Function Attrs: noinline nounwind uwtable
define linkonce_odr i64 @_ZNK9__gnu_cxx13new_allocatorISt13_Rb_tree_nodeIiEE8max_sizeEv(%"class.__gnu_cxx::new_allocator.11"* %0) #4 comdat align 2 {
  ret i64 461168601842738790
}

; Function Attrs: noinline uwtable
define linkonce_odr void @_ZNSt16allocator_traitsISaISt13_Rb_tree_nodeIiEEE9constructIiJRKiEEEvRS2_PT_DpOT0_(%"class.std::allocator.10"* dereferenceable(1) %0, i32* %1, i32* dereferenceable(4) %2) #0 comdat align 2 {
  %4 = bitcast %"class.std::allocator.10"* %0 to %"class.__gnu_cxx::new_allocator.11"*
  %5 = call dereferenceable(4) i32* @_ZSt7forwardIRKiEOT_RNSt16remove_referenceIS2_E4typeE(i32* dereferenceable(4) %2) #3
  call void @_ZN9__gnu_cxx13new_allocatorISt13_Rb_tree_nodeIiEE9constructIiJRKiEEEvPT_DpOT0_(%"class.__gnu_cxx::new_allocator.11"* %4, i32* %1, i32* dereferenceable(4) %5)
  ret void
}

; Function Attrs: noinline nounwind uwtable
define linkonce_odr void @_ZN9__gnu_cxx13new_allocatorISt13_Rb_tree_nodeIiEE9constructIiJRKiEEEvPT_DpOT0_(%"class.__gnu_cxx::new_allocator.11"* %0, i32* %1, i32* dereferenceable(4) %2) #4 comdat align 2 {
  %4 = bitcast i32* %1 to i8*
  %5 = bitcast i8* %4 to i32*
  %6 = call dereferenceable(4) i32* @_ZSt7forwardIRKiEOT_RNSt16remove_referenceIS2_E4typeE(i32* dereferenceable(4) %2) #3
  %7 = load i32, i32* %6, align 4
  store i32 %7, i32* %5, align 4
  ret void
}

; Function Attrs: noinline nounwind uwtable
define linkonce_odr dereferenceable(8) %"struct.std::_Rb_tree_iterator"* @_ZSt7forwardISt17_Rb_tree_iteratorIiEEOT_RNSt16remove_referenceIS2_E4typeE(%"struct.std::_Rb_tree_iterator"* dereferenceable(8) %0) #4 comdat {
  ret %"struct.std::_Rb_tree_iterator"* %0
}

; Function Attrs: noinline nounwind uwtable
define linkonce_odr dereferenceable(1) i8* @_ZSt7forwardIbEOT_RNSt16remove_referenceIS0_E4typeE(i8* dereferenceable(1) %0) #4 comdat {
  ret i8* %0
}

; Function Attrs: noinline nounwind uwtable
define linkonce_odr dereferenceable(8) %"struct.std::_Rb_tree_iterator"* @_ZSt7forwardIRSt17_Rb_tree_iteratorIiEEOT_RNSt16remove_referenceIS3_E4typeE(%"struct.std::_Rb_tree_iterator"* dereferenceable(8) %0) #4 comdat {
  ret %"struct.std::_Rb_tree_iterator"* %0
}

; Function Attrs: noinline nounwind uwtable
define linkonce_odr void @_ZNSt23_Rb_tree_const_iteratorIiEC2ERKSt17_Rb_tree_iteratorIiE(%"struct.std::_Rb_tree_const_iterator"* %0, %"struct.std::_Rb_tree_iterator"* dereferenceable(8) %1) unnamed_addr #4 comdat align 2 {
  %3 = getelementptr inbounds %"struct.std::_Rb_tree_const_iterator", %"struct.std::_Rb_tree_const_iterator"* %0, i32 0, i32 0
  %4 = getelementptr inbounds %"struct.std::_Rb_tree_iterator", %"struct.std::_Rb_tree_iterator"* %1, i32 0, i32 0
  %5 = load %"struct.std::_Rb_tree_node_base"*, %"struct.std::_Rb_tree_node_base"** %4, align 8
  store %"struct.std::_Rb_tree_node_base"* %5, %"struct.std::_Rb_tree_node_base"** %3, align 8
  ret void
}

; Function Attrs: noinline nounwind uwtable
define linkonce_odr dereferenceable(1) i8* @_ZSt7forwardIRbEOT_RNSt16remove_referenceIS1_E4typeE(i8* dereferenceable(1) %0) #4 comdat {
  ret i8* %0
}

; Function Attrs: noinline nounwind uwtable
define linkonce_odr void @_ZNSt6vectorIS_I4DataSaIS0_EESaIS2_EE15_M_erase_at_endEPS2_(%"class.std::vector"* %0, %"class.std::vector.0"* %1) #4 comdat align 2 personality i8* bitcast (i32 (...)* @__gxx_personality_v0 to i8*) {
  %3 = bitcast %"class.std::vector"* %0 to %"struct.std::_Vector_base"*
  %4 = getelementptr inbounds %"struct.std::_Vector_base", %"struct.std::_Vector_base"* %3, i32 0, i32 0
  %5 = getelementptr inbounds %"struct.std::_Vector_base<std::vector<Data, std::allocator<Data> >, std::allocator<std::vector<Data, std::allocator<Data> > > >::_Vector_impl", %"struct.std::_Vector_base<std::vector<Data, std::allocator<Data> >, std::allocator<std::vector<Data, std::allocator<Data> > > >::_Vector_impl"* %4, i32 0, i32 1
  %6 = load %"class.std::vector.0"*, %"class.std::vector.0"** %5, align 8
  %7 = ptrtoint %"class.std::vector.0"* %6 to i64
  %8 = ptrtoint %"class.std::vector.0"* %1 to i64
  %9 = sub i64 %7, %8
  %10 = sdiv exact i64 %9, 24
  %11 = icmp ne i64 %10, 0
  br i1 %11, label %12, label %23

12:                                               ; preds = %2
  %13 = bitcast %"class.std::vector"* %0 to %"struct.std::_Vector_base"*
  %14 = getelementptr inbounds %"struct.std::_Vector_base", %"struct.std::_Vector_base"* %13, i32 0, i32 0
  %15 = getelementptr inbounds %"struct.std::_Vector_base<std::vector<Data, std::allocator<Data> >, std::allocator<std::vector<Data, std::allocator<Data> > > >::_Vector_impl", %"struct.std::_Vector_base<std::vector<Data, std::allocator<Data> >, std::allocator<std::vector<Data, std::allocator<Data> > > >::_Vector_impl"* %14, i32 0, i32 1
  %16 = load %"class.std::vector.0"*, %"class.std::vector.0"** %15, align 8
  %17 = bitcast %"class.std::vector"* %0 to %"struct.std::_Vector_base"*
  %18 = call dereferenceable(1) %"class.std::allocator"* @_ZNSt12_Vector_baseISt6vectorI4DataSaIS1_EESaIS3_EE19_M_get_Tp_allocatorEv(%"struct.std::_Vector_base"* %17) #3
  invoke void @_ZSt8_DestroyIPSt6vectorI4DataSaIS1_EES3_EvT_S5_RSaIT0_E(%"class.std::vector.0"* %1, %"class.std::vector.0"* %16, %"class.std::allocator"* dereferenceable(1) %18)
          to label %19 unwind label %24

19:                                               ; preds = %12
  %20 = bitcast %"class.std::vector"* %0 to %"struct.std::_Vector_base"*
  %21 = getelementptr inbounds %"struct.std::_Vector_base", %"struct.std::_Vector_base"* %20, i32 0, i32 0
  %22 = getelementptr inbounds %"struct.std::_Vector_base<std::vector<Data, std::allocator<Data> >, std::allocator<std::vector<Data, std::allocator<Data> > > >::_Vector_impl", %"struct.std::_Vector_base<std::vector<Data, std::allocator<Data> >, std::allocator<std::vector<Data, std::allocator<Data> > > >::_Vector_impl"* %21, i32 0, i32 1
  store %"class.std::vector.0"* %1, %"class.std::vector.0"** %22, align 8
  br label %23

23:                                               ; preds = %19, %2
  ret void

24:                                               ; preds = %12
  %25 = landingpad { i8*, i32 }
          catch i8* null
  %26 = extractvalue { i8*, i32 } %25, 0
  call void @__clang_call_terminate(i8* %26) #16
  unreachable
}

; Function Attrs: noinline nounwind uwtable
define linkonce_odr i64 @_ZNKSt6vectorIS_I4DataSaIS0_EESaIS2_EE4sizeEv(%"class.std::vector"* %0) #4 comdat align 2 {
  %2 = bitcast %"class.std::vector"* %0 to %"struct.std::_Vector_base"*
  %3 = getelementptr inbounds %"struct.std::_Vector_base", %"struct.std::_Vector_base"* %2, i32 0, i32 0
  %4 = getelementptr inbounds %"struct.std::_Vector_base<std::vector<Data, std::allocator<Data> >, std::allocator<std::vector<Data, std::allocator<Data> > > >::_Vector_impl", %"struct.std::_Vector_base<std::vector<Data, std::allocator<Data> >, std::allocator<std::vector<Data, std::allocator<Data> > > >::_Vector_impl"* %3, i32 0, i32 1
  %5 = load %"class.std::vector.0"*, %"class.std::vector.0"** %4, align 8
  %6 = bitcast %"class.std::vector"* %0 to %"struct.std::_Vector_base"*
  %7 = getelementptr inbounds %"struct.std::_Vector_base", %"struct.std::_Vector_base"* %6, i32 0, i32 0
  %8 = getelementptr inbounds %"struct.std::_Vector_base<std::vector<Data, std::allocator<Data> >, std::allocator<std::vector<Data, std::allocator<Data> > > >::_Vector_impl", %"struct.std::_Vector_base<std::vector<Data, std::allocator<Data> >, std::allocator<std::vector<Data, std::allocator<Data> > > >::_Vector_impl"* %7, i32 0, i32 0
  %9 = load %"class.std::vector.0"*, %"class.std::vector.0"** %8, align 8
  %10 = ptrtoint %"class.std::vector.0"* %5 to i64
  %11 = ptrtoint %"class.std::vector.0"* %9 to i64
  %12 = sub i64 %10, %11
  %13 = sdiv exact i64 %12, 24
  ret i64 %13
}

; Function Attrs: noinline uwtable
define linkonce_odr void @_ZNSt6vectorIS_I4DataSaIS0_EESaIS2_EE17_M_default_appendEm(%"class.std::vector"* %0, i64 %1) #0 comdat align 2 personality i8* bitcast (i32 (...)* @__gxx_personality_v0 to i8*) {
  %3 = icmp ne i64 %1, 0
  br i1 %3, label %4, label %121

4:                                                ; preds = %2
  %5 = call i64 @_ZNKSt6vectorIS_I4DataSaIS0_EESaIS2_EE4sizeEv(%"class.std::vector"* %0) #3
  %6 = bitcast %"class.std::vector"* %0 to %"struct.std::_Vector_base"*
  %7 = getelementptr inbounds %"struct.std::_Vector_base", %"struct.std::_Vector_base"* %6, i32 0, i32 0
  %8 = getelementptr inbounds %"struct.std::_Vector_base<std::vector<Data, std::allocator<Data> >, std::allocator<std::vector<Data, std::allocator<Data> > > >::_Vector_impl", %"struct.std::_Vector_base<std::vector<Data, std::allocator<Data> >, std::allocator<std::vector<Data, std::allocator<Data> > > >::_Vector_impl"* %7, i32 0, i32 2
  %9 = load %"class.std::vector.0"*, %"class.std::vector.0"** %8, align 8
  %10 = bitcast %"class.std::vector"* %0 to %"struct.std::_Vector_base"*
  %11 = getelementptr inbounds %"struct.std::_Vector_base", %"struct.std::_Vector_base"* %10, i32 0, i32 0
  %12 = getelementptr inbounds %"struct.std::_Vector_base<std::vector<Data, std::allocator<Data> >, std::allocator<std::vector<Data, std::allocator<Data> > > >::_Vector_impl", %"struct.std::_Vector_base<std::vector<Data, std::allocator<Data> >, std::allocator<std::vector<Data, std::allocator<Data> > > >::_Vector_impl"* %11, i32 0, i32 1
  %13 = load %"class.std::vector.0"*, %"class.std::vector.0"** %12, align 8
  %14 = ptrtoint %"class.std::vector.0"* %9 to i64
  %15 = ptrtoint %"class.std::vector.0"* %13 to i64
  %16 = sub i64 %14, %15
  %17 = sdiv exact i64 %16, 24
  %18 = call i64 @_ZNKSt6vectorIS_I4DataSaIS0_EESaIS2_EE8max_sizeEv(%"class.std::vector"* %0) #3
  %19 = icmp ugt i64 %5, %18
  br i1 %19, label %24, label %20

20:                                               ; preds = %4
  %21 = call i64 @_ZNKSt6vectorIS_I4DataSaIS0_EESaIS2_EE8max_sizeEv(%"class.std::vector"* %0) #3
  %22 = sub i64 %21, %5
  %23 = icmp ugt i64 %17, %22
  br i1 %23, label %24, label %25

24:                                               ; preds = %20, %4
  unreachable

25:                                               ; preds = %20
  %26 = icmp uge i64 %17, %1
  br i1 %26, label %27, label %38

27:                                               ; preds = %25
  %28 = bitcast %"class.std::vector"* %0 to %"struct.std::_Vector_base"*
  %29 = getelementptr inbounds %"struct.std::_Vector_base", %"struct.std::_Vector_base"* %28, i32 0, i32 0
  %30 = getelementptr inbounds %"struct.std::_Vector_base<std::vector<Data, std::allocator<Data> >, std::allocator<std::vector<Data, std::allocator<Data> > > >::_Vector_impl", %"struct.std::_Vector_base<std::vector<Data, std::allocator<Data> >, std::allocator<std::vector<Data, std::allocator<Data> > > >::_Vector_impl"* %29, i32 0, i32 1
  %31 = load %"class.std::vector.0"*, %"class.std::vector.0"** %30, align 8
  %32 = bitcast %"class.std::vector"* %0 to %"struct.std::_Vector_base"*
  %33 = call dereferenceable(1) %"class.std::allocator"* @_ZNSt12_Vector_baseISt6vectorI4DataSaIS1_EESaIS3_EE19_M_get_Tp_allocatorEv(%"struct.std::_Vector_base"* %32) #3
  %34 = call %"class.std::vector.0"* @_ZSt27__uninitialized_default_n_aIPSt6vectorI4DataSaIS1_EEmS3_ET_S5_T0_RSaIT1_E(%"class.std::vector.0"* %31, i64 %1, %"class.std::allocator"* dereferenceable(1) %33)
  %35 = bitcast %"class.std::vector"* %0 to %"struct.std::_Vector_base"*
  %36 = getelementptr inbounds %"struct.std::_Vector_base", %"struct.std::_Vector_base"* %35, i32 0, i32 0
  %37 = getelementptr inbounds %"struct.std::_Vector_base<std::vector<Data, std::allocator<Data> >, std::allocator<std::vector<Data, std::allocator<Data> > > >::_Vector_impl", %"struct.std::_Vector_base<std::vector<Data, std::allocator<Data> >, std::allocator<std::vector<Data, std::allocator<Data> > > >::_Vector_impl"* %36, i32 0, i32 1
  store %"class.std::vector.0"* %34, %"class.std::vector.0"** %37, align 8
  br label %120

38:                                               ; preds = %25
  %39 = call i64 @_ZNKSt6vectorIS_I4DataSaIS0_EESaIS2_EE12_M_check_lenEmPKc(%"class.std::vector"* %0, i64 %1, i8* getelementptr inbounds ([26 x i8], [26 x i8]* @.str.12, i32 0, i32 0))
  %40 = bitcast %"class.std::vector"* %0 to %"struct.std::_Vector_base"*
  %41 = call %"class.std::vector.0"* @_ZNSt12_Vector_baseISt6vectorI4DataSaIS1_EESaIS3_EE11_M_allocateEm(%"struct.std::_Vector_base"* %40, i64 %39)
  %42 = getelementptr inbounds %"class.std::vector.0", %"class.std::vector.0"* %41, i64 %5
  %43 = bitcast %"class.std::vector"* %0 to %"struct.std::_Vector_base"*
  %44 = call dereferenceable(1) %"class.std::allocator"* @_ZNSt12_Vector_baseISt6vectorI4DataSaIS1_EESaIS3_EE19_M_get_Tp_allocatorEv(%"struct.std::_Vector_base"* %43) #3
  %45 = invoke %"class.std::vector.0"* @_ZSt27__uninitialized_default_n_aIPSt6vectorI4DataSaIS1_EEmS3_ET_S5_T0_RSaIT1_E(%"class.std::vector.0"* %42, i64 %1, %"class.std::allocator"* dereferenceable(1) %44)
          to label %46 unwind label %60

46:                                               ; preds = %38
  %47 = getelementptr inbounds %"class.std::vector.0", %"class.std::vector.0"* %41, i64 %5
  %48 = bitcast %"class.std::vector"* %0 to %"struct.std::_Vector_base"*
  %49 = getelementptr inbounds %"struct.std::_Vector_base", %"struct.std::_Vector_base"* %48, i32 0, i32 0
  %50 = getelementptr inbounds %"struct.std::_Vector_base<std::vector<Data, std::allocator<Data> >, std::allocator<std::vector<Data, std::allocator<Data> > > >::_Vector_impl", %"struct.std::_Vector_base<std::vector<Data, std::allocator<Data> >, std::allocator<std::vector<Data, std::allocator<Data> > > >::_Vector_impl"* %49, i32 0, i32 0
  %51 = load %"class.std::vector.0"*, %"class.std::vector.0"** %50, align 8
  %52 = bitcast %"class.std::vector"* %0 to %"struct.std::_Vector_base"*
  %53 = getelementptr inbounds %"struct.std::_Vector_base", %"struct.std::_Vector_base"* %52, i32 0, i32 0
  %54 = getelementptr inbounds %"struct.std::_Vector_base<std::vector<Data, std::allocator<Data> >, std::allocator<std::vector<Data, std::allocator<Data> > > >::_Vector_impl", %"struct.std::_Vector_base<std::vector<Data, std::allocator<Data> >, std::allocator<std::vector<Data, std::allocator<Data> > > >::_Vector_impl"* %53, i32 0, i32 1
  %55 = load %"class.std::vector.0"*, %"class.std::vector.0"** %54, align 8
  %56 = bitcast %"class.std::vector"* %0 to %"struct.std::_Vector_base"*
  %57 = call dereferenceable(1) %"class.std::allocator"* @_ZNSt12_Vector_baseISt6vectorI4DataSaIS1_EESaIS3_EE19_M_get_Tp_allocatorEv(%"struct.std::_Vector_base"* %56) #3
  %58 = invoke %"class.std::vector.0"* @_ZSt34__uninitialized_move_if_noexcept_aIPSt6vectorI4DataSaIS1_EES4_SaIS3_EET0_T_S7_S6_RT1_(%"class.std::vector.0"* %51, %"class.std::vector.0"* %55, %"class.std::vector.0"* %41, %"class.std::allocator"* dereferenceable(1) %57)
          to label %59 unwind label %60

59:                                               ; preds = %46
  br label %80

60:                                               ; preds = %46, %38
  %.0 = phi %"class.std::vector.0"* [ %47, %46 ], [ null, %38 ]
  %61 = landingpad { i8*, i32 }
          catch i8* null
  %62 = extractvalue { i8*, i32 } %61, 0
  %63 = extractvalue { i8*, i32 } %61, 1
  br label %64

64:                                               ; preds = %60
  %65 = call i8* @__cxa_begin_catch(i8* %62) #3
  %66 = icmp ne %"class.std::vector.0"* %.0, null
  br i1 %66, label %67, label %76

67:                                               ; preds = %64
  %68 = getelementptr inbounds %"class.std::vector.0", %"class.std::vector.0"* %.0, i64 %1
  %69 = bitcast %"class.std::vector"* %0 to %"struct.std::_Vector_base"*
  %70 = call dereferenceable(1) %"class.std::allocator"* @_ZNSt12_Vector_baseISt6vectorI4DataSaIS1_EESaIS3_EE19_M_get_Tp_allocatorEv(%"struct.std::_Vector_base"* %69) #3
  invoke void @_ZSt8_DestroyIPSt6vectorI4DataSaIS1_EES3_EvT_S5_RSaIT0_E(%"class.std::vector.0"* %.0, %"class.std::vector.0"* %68, %"class.std::allocator"* dereferenceable(1) %70)
          to label %71 unwind label %72

71:                                               ; preds = %67
  br label %76

72:                                               ; preds = %78, %76, %67
  %73 = landingpad { i8*, i32 }
          cleanup
  %74 = extractvalue { i8*, i32 } %73, 0
  %75 = extractvalue { i8*, i32 } %73, 1
  invoke void @__cxa_end_catch()
          to label %79 unwind label %125

76:                                               ; preds = %71, %64
  %77 = bitcast %"class.std::vector"* %0 to %"struct.std::_Vector_base"*
  invoke void @_ZNSt12_Vector_baseISt6vectorI4DataSaIS1_EESaIS3_EE13_M_deallocateEPS3_m(%"struct.std::_Vector_base"* %77, %"class.std::vector.0"* %41, i64 %39)
          to label %78 unwind label %72

78:                                               ; preds = %76
  invoke void @__cxa_rethrow() #18
          to label %128 unwind label %72

79:                                               ; preds = %72
  br label %122

80:                                               ; preds = %59
  %81 = bitcast %"class.std::vector"* %0 to %"struct.std::_Vector_base"*
  %82 = getelementptr inbounds %"struct.std::_Vector_base", %"struct.std::_Vector_base"* %81, i32 0, i32 0
  %83 = getelementptr inbounds %"struct.std::_Vector_base<std::vector<Data, std::allocator<Data> >, std::allocator<std::vector<Data, std::allocator<Data> > > >::_Vector_impl", %"struct.std::_Vector_base<std::vector<Data, std::allocator<Data> >, std::allocator<std::vector<Data, std::allocator<Data> > > >::_Vector_impl"* %82, i32 0, i32 0
  %84 = load %"class.std::vector.0"*, %"class.std::vector.0"** %83, align 8
  %85 = bitcast %"class.std::vector"* %0 to %"struct.std::_Vector_base"*
  %86 = getelementptr inbounds %"struct.std::_Vector_base", %"struct.std::_Vector_base"* %85, i32 0, i32 0
  %87 = getelementptr inbounds %"struct.std::_Vector_base<std::vector<Data, std::allocator<Data> >, std::allocator<std::vector<Data, std::allocator<Data> > > >::_Vector_impl", %"struct.std::_Vector_base<std::vector<Data, std::allocator<Data> >, std::allocator<std::vector<Data, std::allocator<Data> > > >::_Vector_impl"* %86, i32 0, i32 1
  %88 = load %"class.std::vector.0"*, %"class.std::vector.0"** %87, align 8
  %89 = bitcast %"class.std::vector"* %0 to %"struct.std::_Vector_base"*
  %90 = call dereferenceable(1) %"class.std::allocator"* @_ZNSt12_Vector_baseISt6vectorI4DataSaIS1_EESaIS3_EE19_M_get_Tp_allocatorEv(%"struct.std::_Vector_base"* %89) #3
  call void @_ZSt8_DestroyIPSt6vectorI4DataSaIS1_EES3_EvT_S5_RSaIT0_E(%"class.std::vector.0"* %84, %"class.std::vector.0"* %88, %"class.std::allocator"* dereferenceable(1) %90)
  %91 = bitcast %"class.std::vector"* %0 to %"struct.std::_Vector_base"*
  %92 = bitcast %"class.std::vector"* %0 to %"struct.std::_Vector_base"*
  %93 = getelementptr inbounds %"struct.std::_Vector_base", %"struct.std::_Vector_base"* %92, i32 0, i32 0
  %94 = getelementptr inbounds %"struct.std::_Vector_base<std::vector<Data, std::allocator<Data> >, std::allocator<std::vector<Data, std::allocator<Data> > > >::_Vector_impl", %"struct.std::_Vector_base<std::vector<Data, std::allocator<Data> >, std::allocator<std::vector<Data, std::allocator<Data> > > >::_Vector_impl"* %93, i32 0, i32 0
  %95 = load %"class.std::vector.0"*, %"class.std::vector.0"** %94, align 8
  %96 = bitcast %"class.std::vector"* %0 to %"struct.std::_Vector_base"*
  %97 = getelementptr inbounds %"struct.std::_Vector_base", %"struct.std::_Vector_base"* %96, i32 0, i32 0
  %98 = getelementptr inbounds %"struct.std::_Vector_base<std::vector<Data, std::allocator<Data> >, std::allocator<std::vector<Data, std::allocator<Data> > > >::_Vector_impl", %"struct.std::_Vector_base<std::vector<Data, std::allocator<Data> >, std::allocator<std::vector<Data, std::allocator<Data> > > >::_Vector_impl"* %97, i32 0, i32 2
  %99 = load %"class.std::vector.0"*, %"class.std::vector.0"** %98, align 8
  %100 = bitcast %"class.std::vector"* %0 to %"struct.std::_Vector_base"*
  %101 = getelementptr inbounds %"struct.std::_Vector_base", %"struct.std::_Vector_base"* %100, i32 0, i32 0
  %102 = getelementptr inbounds %"struct.std::_Vector_base<std::vector<Data, std::allocator<Data> >, std::allocator<std::vector<Data, std::allocator<Data> > > >::_Vector_impl", %"struct.std::_Vector_base<std::vector<Data, std::allocator<Data> >, std::allocator<std::vector<Data, std::allocator<Data> > > >::_Vector_impl"* %101, i32 0, i32 0
  %103 = load %"class.std::vector.0"*, %"class.std::vector.0"** %102, align 8
  %104 = ptrtoint %"class.std::vector.0"* %99 to i64
  %105 = ptrtoint %"class.std::vector.0"* %103 to i64
  %106 = sub i64 %104, %105
  %107 = sdiv exact i64 %106, 24
  call void @_ZNSt12_Vector_baseISt6vectorI4DataSaIS1_EESaIS3_EE13_M_deallocateEPS3_m(%"struct.std::_Vector_base"* %91, %"class.std::vector.0"* %95, i64 %107)
  %108 = bitcast %"class.std::vector"* %0 to %"struct.std::_Vector_base"*
  %109 = getelementptr inbounds %"struct.std::_Vector_base", %"struct.std::_Vector_base"* %108, i32 0, i32 0
  %110 = getelementptr inbounds %"struct.std::_Vector_base<std::vector<Data, std::allocator<Data> >, std::allocator<std::vector<Data, std::allocator<Data> > > >::_Vector_impl", %"struct.std::_Vector_base<std::vector<Data, std::allocator<Data> >, std::allocator<std::vector<Data, std::allocator<Data> > > >::_Vector_impl"* %109, i32 0, i32 0
  store %"class.std::vector.0"* %41, %"class.std::vector.0"** %110, align 8
  %111 = getelementptr inbounds %"class.std::vector.0", %"class.std::vector.0"* %41, i64 %5
  %112 = getelementptr inbounds %"class.std::vector.0", %"class.std::vector.0"* %111, i64 %1
  %113 = bitcast %"class.std::vector"* %0 to %"struct.std::_Vector_base"*
  %114 = getelementptr inbounds %"struct.std::_Vector_base", %"struct.std::_Vector_base"* %113, i32 0, i32 0
  %115 = getelementptr inbounds %"struct.std::_Vector_base<std::vector<Data, std::allocator<Data> >, std::allocator<std::vector<Data, std::allocator<Data> > > >::_Vector_impl", %"struct.std::_Vector_base<std::vector<Data, std::allocator<Data> >, std::allocator<std::vector<Data, std::allocator<Data> > > >::_Vector_impl"* %114, i32 0, i32 1
  store %"class.std::vector.0"* %112, %"class.std::vector.0"** %115, align 8
  %116 = getelementptr inbounds %"class.std::vector.0", %"class.std::vector.0"* %41, i64 %39
  %117 = bitcast %"class.std::vector"* %0 to %"struct.std::_Vector_base"*
  %118 = getelementptr inbounds %"struct.std::_Vector_base", %"struct.std::_Vector_base"* %117, i32 0, i32 0
  %119 = getelementptr inbounds %"struct.std::_Vector_base<std::vector<Data, std::allocator<Data> >, std::allocator<std::vector<Data, std::allocator<Data> > > >::_Vector_impl", %"struct.std::_Vector_base<std::vector<Data, std::allocator<Data> >, std::allocator<std::vector<Data, std::allocator<Data> > > >::_Vector_impl"* %118, i32 0, i32 2
  store %"class.std::vector.0"* %116, %"class.std::vector.0"** %119, align 8
  br label %120

120:                                              ; preds = %80, %27
  br label %121

121:                                              ; preds = %120, %2
  ret void

122:                                              ; preds = %79
  %123 = insertvalue { i8*, i32 } undef, i8* %74, 0
  %124 = insertvalue { i8*, i32 } %123, i32 %75, 1
  resume { i8*, i32 } %124

125:                                              ; preds = %72
  %126 = landingpad { i8*, i32 }
          catch i8* null
  %127 = extractvalue { i8*, i32 } %126, 0
  call void @__clang_call_terminate(i8* %127) #16
  unreachable

128:                                              ; preds = %78
  unreachable
}

; Function Attrs: noinline nounwind uwtable
define linkonce_odr i64 @_ZNKSt6vectorIS_I4DataSaIS0_EESaIS2_EE8max_sizeEv(%"class.std::vector"* %0) #4 comdat align 2 {
  %2 = bitcast %"class.std::vector"* %0 to %"struct.std::_Vector_base"*
  %3 = call dereferenceable(1) %"class.std::allocator"* @_ZNKSt12_Vector_baseISt6vectorI4DataSaIS1_EESaIS3_EE19_M_get_Tp_allocatorEv(%"struct.std::_Vector_base"* %2) #3
  %4 = call i64 @_ZNSt16allocator_traitsISaISt6vectorI4DataSaIS1_EEEE8max_sizeERKS4_(%"class.std::allocator"* dereferenceable(1) %3) #3
  ret i64 %4
}

; Function Attrs: noinline uwtable
define linkonce_odr %"class.std::vector.0"* @_ZSt27__uninitialized_default_n_aIPSt6vectorI4DataSaIS1_EEmS3_ET_S5_T0_RSaIT1_E(%"class.std::vector.0"* %0, i64 %1, %"class.std::allocator"* dereferenceable(1) %2) #0 comdat {
  %4 = call %"class.std::vector.0"* @_ZSt25__uninitialized_default_nIPSt6vectorI4DataSaIS1_EEmET_S5_T0_(%"class.std::vector.0"* %0, i64 %1)
  ret %"class.std::vector.0"* %4
}

; Function Attrs: noinline uwtable
define linkonce_odr i64 @_ZNKSt6vectorIS_I4DataSaIS0_EESaIS2_EE12_M_check_lenEmPKc(%"class.std::vector"* %0, i64 %1, i8* %2) #0 comdat align 2 {
  %4 = alloca i64, align 8
  %5 = alloca i64, align 8
  store i64 %1, i64* %4, align 8
  %6 = call i64 @_ZNKSt6vectorIS_I4DataSaIS0_EESaIS2_EE8max_sizeEv(%"class.std::vector"* %0) #3
  %7 = call i64 @_ZNKSt6vectorIS_I4DataSaIS0_EESaIS2_EE4sizeEv(%"class.std::vector"* %0) #3
  %8 = sub i64 %6, %7
  %9 = load i64, i64* %4, align 8
  %10 = icmp ult i64 %8, %9
  br i1 %10, label %11, label %12

11:                                               ; preds = %3
  call void @_ZSt20__throw_length_errorPKc(i8* %2) #18
  unreachable

12:                                               ; preds = %3
  %13 = call i64 @_ZNKSt6vectorIS_I4DataSaIS0_EESaIS2_EE4sizeEv(%"class.std::vector"* %0) #3
  %14 = call i64 @_ZNKSt6vectorIS_I4DataSaIS0_EESaIS2_EE4sizeEv(%"class.std::vector"* %0) #3
  store i64 %14, i64* %5, align 8
  %15 = call dereferenceable(8) i64* @_ZSt3maxImERKT_S2_S2_(i64* dereferenceable(8) %5, i64* dereferenceable(8) %4)
  %16 = load i64, i64* %15, align 8
  %17 = add i64 %13, %16
  %18 = call i64 @_ZNKSt6vectorIS_I4DataSaIS0_EESaIS2_EE4sizeEv(%"class.std::vector"* %0) #3
  %19 = icmp ult i64 %17, %18
  br i1 %19, label %23, label %20

20:                                               ; preds = %12
  %21 = call i64 @_ZNKSt6vectorIS_I4DataSaIS0_EESaIS2_EE8max_sizeEv(%"class.std::vector"* %0) #3
  %22 = icmp ugt i64 %17, %21
  br i1 %22, label %23, label %25

23:                                               ; preds = %20, %12
  %24 = call i64 @_ZNKSt6vectorIS_I4DataSaIS0_EESaIS2_EE8max_sizeEv(%"class.std::vector"* %0) #3
  br label %26

25:                                               ; preds = %20
  br label %26

26:                                               ; preds = %25, %23
  %27 = phi i64 [ %24, %23 ], [ %17, %25 ]
  ret i64 %27
}

; Function Attrs: noinline uwtable
define linkonce_odr %"class.std::vector.0"* @_ZNSt12_Vector_baseISt6vectorI4DataSaIS1_EESaIS3_EE11_M_allocateEm(%"struct.std::_Vector_base"* %0, i64 %1) #0 comdat align 2 {
  %3 = icmp ne i64 %1, 0
  br i1 %3, label %4, label %8

4:                                                ; preds = %2
  %5 = getelementptr inbounds %"struct.std::_Vector_base", %"struct.std::_Vector_base"* %0, i32 0, i32 0
  %6 = bitcast %"struct.std::_Vector_base<std::vector<Data, std::allocator<Data> >, std::allocator<std::vector<Data, std::allocator<Data> > > >::_Vector_impl"* %5 to %"class.std::allocator"*
  %7 = call %"class.std::vector.0"* @_ZNSt16allocator_traitsISaISt6vectorI4DataSaIS1_EEEE8allocateERS4_m(%"class.std::allocator"* dereferenceable(1) %6, i64 %1)
  br label %9

8:                                                ; preds = %2
  br label %9

9:                                                ; preds = %8, %4
  %10 = phi %"class.std::vector.0"* [ %7, %4 ], [ null, %8 ]
  ret %"class.std::vector.0"* %10
}

; Function Attrs: noinline uwtable
define linkonce_odr %"class.std::vector.0"* @_ZSt34__uninitialized_move_if_noexcept_aIPSt6vectorI4DataSaIS1_EES4_SaIS3_EET0_T_S7_S6_RT1_(%"class.std::vector.0"* %0, %"class.std::vector.0"* %1, %"class.std::vector.0"* %2, %"class.std::allocator"* dereferenceable(1) %3) #0 comdat {
  %5 = alloca %"class.std::move_iterator.20", align 8
  %6 = alloca %"class.std::move_iterator.20", align 8
  %7 = call %"class.std::vector.0"* @_ZSt32__make_move_if_noexcept_iteratorISt6vectorI4DataSaIS1_EESt13move_iteratorIPS3_EET0_PT_(%"class.std::vector.0"* %0)
  %8 = getelementptr inbounds %"class.std::move_iterator.20", %"class.std::move_iterator.20"* %5, i32 0, i32 0
  store %"class.std::vector.0"* %7, %"class.std::vector.0"** %8, align 8
  %9 = call %"class.std::vector.0"* @_ZSt32__make_move_if_noexcept_iteratorISt6vectorI4DataSaIS1_EESt13move_iteratorIPS3_EET0_PT_(%"class.std::vector.0"* %1)
  %10 = getelementptr inbounds %"class.std::move_iterator.20", %"class.std::move_iterator.20"* %6, i32 0, i32 0
  store %"class.std::vector.0"* %9, %"class.std::vector.0"** %10, align 8
  %11 = getelementptr inbounds %"class.std::move_iterator.20", %"class.std::move_iterator.20"* %5, i32 0, i32 0
  %12 = load %"class.std::vector.0"*, %"class.std::vector.0"** %11, align 8
  %13 = getelementptr inbounds %"class.std::move_iterator.20", %"class.std::move_iterator.20"* %6, i32 0, i32 0
  %14 = load %"class.std::vector.0"*, %"class.std::vector.0"** %13, align 8
  %15 = call %"class.std::vector.0"* @_ZSt22__uninitialized_copy_aISt13move_iteratorIPSt6vectorI4DataSaIS2_EEES5_S4_ET0_T_S8_S7_RSaIT1_E(%"class.std::vector.0"* %12, %"class.std::vector.0"* %14, %"class.std::vector.0"* %2, %"class.std::allocator"* dereferenceable(1) %3)
  ret %"class.std::vector.0"* %15
}

; Function Attrs: noinline nounwind uwtable
define linkonce_odr i64 @_ZNSt16allocator_traitsISaISt6vectorI4DataSaIS1_EEEE8max_sizeERKS4_(%"class.std::allocator"* dereferenceable(1) %0) #4 comdat align 2 {
  %2 = bitcast %"class.std::allocator"* %0 to %"class.__gnu_cxx::new_allocator"*
  %3 = call i64 @_ZNK9__gnu_cxx13new_allocatorISt6vectorI4DataSaIS2_EEE8max_sizeEv(%"class.__gnu_cxx::new_allocator"* %2) #3
  ret i64 %3
}

; Function Attrs: noinline nounwind uwtable
define linkonce_odr dereferenceable(1) %"class.std::allocator"* @_ZNKSt12_Vector_baseISt6vectorI4DataSaIS1_EESaIS3_EE19_M_get_Tp_allocatorEv(%"struct.std::_Vector_base"* %0) #4 comdat align 2 {
  %2 = getelementptr inbounds %"struct.std::_Vector_base", %"struct.std::_Vector_base"* %0, i32 0, i32 0
  %3 = bitcast %"struct.std::_Vector_base<std::vector<Data, std::allocator<Data> >, std::allocator<std::vector<Data, std::allocator<Data> > > >::_Vector_impl"* %2 to %"class.std::allocator"*
  ret %"class.std::allocator"* %3
}

; Function Attrs: noinline nounwind uwtable
define linkonce_odr i64 @_ZNK9__gnu_cxx13new_allocatorISt6vectorI4DataSaIS2_EEE8max_sizeEv(%"class.__gnu_cxx::new_allocator"* %0) #4 comdat align 2 {
  ret i64 768614336404564650
}

; Function Attrs: noinline uwtable
define linkonce_odr %"class.std::vector.0"* @_ZSt25__uninitialized_default_nIPSt6vectorI4DataSaIS1_EEmET_S5_T0_(%"class.std::vector.0"* %0, i64 %1) #0 comdat {
  %3 = call %"class.std::vector.0"* @_ZNSt27__uninitialized_default_n_1ILb0EE18__uninit_default_nIPSt6vectorI4DataSaIS3_EEmEET_S7_T0_(%"class.std::vector.0"* %0, i64 %1)
  ret %"class.std::vector.0"* %3
}

; Function Attrs: noinline uwtable
define linkonce_odr %"class.std::vector.0"* @_ZNSt27__uninitialized_default_n_1ILb0EE18__uninit_default_nIPSt6vectorI4DataSaIS3_EEmEET_S7_T0_(%"class.std::vector.0"* %0, i64 %1) #0 comdat align 2 personality i8* bitcast (i32 (...)* @__gxx_personality_v0 to i8*) {
  br label %3

3:                                                ; preds = %8, %2
  %.01 = phi %"class.std::vector.0"* [ %0, %2 ], [ %10, %8 ]
  %.0 = phi i64 [ %1, %2 ], [ %9, %8 ]
  %4 = icmp ugt i64 %.0, 0
  br i1 %4, label %5, label %18

5:                                                ; preds = %3
  %6 = call %"class.std::vector.0"* @_ZSt11__addressofISt6vectorI4DataSaIS1_EEEPT_RS4_(%"class.std::vector.0"* dereferenceable(24) %.01) #3
  invoke void @_ZSt10_ConstructISt6vectorI4DataSaIS1_EEJEEvPT_DpOT0_(%"class.std::vector.0"* %6)
          to label %7 unwind label %11

7:                                                ; preds = %5
  br label %8

8:                                                ; preds = %7
  %9 = add i64 %.0, -1
  %10 = getelementptr inbounds %"class.std::vector.0", %"class.std::vector.0"* %.01, i32 1
  br label %3

11:                                               ; preds = %5
  %12 = landingpad { i8*, i32 }
          catch i8* null
  %13 = extractvalue { i8*, i32 } %12, 0
  %14 = extractvalue { i8*, i32 } %12, 1
  br label %15

15:                                               ; preds = %11
  %16 = call i8* @__cxa_begin_catch(i8* %13) #3
  invoke void @_ZSt8_DestroyIPSt6vectorI4DataSaIS1_EEEvT_S5_(%"class.std::vector.0"* %0, %"class.std::vector.0"* %.01)
          to label %17 unwind label %19

17:                                               ; preds = %15
  invoke void @__cxa_rethrow() #18
          to label %31 unwind label %19

18:                                               ; preds = %3
  ret %"class.std::vector.0"* %.01

19:                                               ; preds = %17, %15
  %20 = landingpad { i8*, i32 }
          cleanup
  %21 = extractvalue { i8*, i32 } %20, 0
  %22 = extractvalue { i8*, i32 } %20, 1
  invoke void @__cxa_end_catch()
          to label %23 unwind label %28

23:                                               ; preds = %19
  br label %25

24:                                               ; No predecessors!
  call void @llvm.trap()
  unreachable

25:                                               ; preds = %23
  %26 = insertvalue { i8*, i32 } undef, i8* %21, 0
  %27 = insertvalue { i8*, i32 } %26, i32 %22, 1
  resume { i8*, i32 } %27

28:                                               ; preds = %19
  %29 = landingpad { i8*, i32 }
          catch i8* null
  %30 = extractvalue { i8*, i32 } %29, 0
  call void @__clang_call_terminate(i8* %30) #16
  unreachable

31:                                               ; preds = %17
  unreachable
}

; Function Attrs: noinline nounwind uwtable
define linkonce_odr void @_ZSt10_ConstructISt6vectorI4DataSaIS1_EEJEEvPT_DpOT0_(%"class.std::vector.0"* %0) #4 comdat {
  %2 = bitcast %"class.std::vector.0"* %0 to i8*
  %3 = bitcast i8* %2 to %"class.std::vector.0"*
  call void @_ZNSt6vectorI4DataSaIS0_EEC2Ev(%"class.std::vector.0"* %3) #3
  ret void
}

; Function Attrs: cold noreturn nounwind
declare void @llvm.trap() #13

; Function Attrs: noinline nounwind uwtable
define linkonce_odr void @_ZNSt6vectorI4DataSaIS0_EEC2Ev(%"class.std::vector.0"* %0) unnamed_addr #4 comdat align 2 personality i8* bitcast (i32 (...)* @__gxx_personality_v0 to i8*) {
  %2 = bitcast %"class.std::vector.0"* %0 to %"struct.std::_Vector_base.6"*
  invoke void @_ZNSt12_Vector_baseI4DataSaIS0_EEC2Ev(%"struct.std::_Vector_base.6"* %2)
          to label %3 unwind label %4

3:                                                ; preds = %1
  ret void

4:                                                ; preds = %1
  %5 = landingpad { i8*, i32 }
          catch i8* null
  %6 = extractvalue { i8*, i32 } %5, 0
  call void @__clang_call_terminate(i8* %6) #16
  unreachable
}

; Function Attrs: noinline uwtable
define linkonce_odr void @_ZNSt12_Vector_baseI4DataSaIS0_EEC2Ev(%"struct.std::_Vector_base.6"* %0) unnamed_addr #0 comdat align 2 {
  %2 = getelementptr inbounds %"struct.std::_Vector_base.6", %"struct.std::_Vector_base.6"* %0, i32 0, i32 0
  call void @_ZNSt12_Vector_baseI4DataSaIS0_EE12_Vector_implC2Ev(%"struct.std::_Vector_base<Data, std::allocator<Data> >::_Vector_impl"* %2)
  ret void
}

; Function Attrs: noinline nounwind uwtable
define linkonce_odr void @_ZNSt12_Vector_baseI4DataSaIS0_EE12_Vector_implC2Ev(%"struct.std::_Vector_base<Data, std::allocator<Data> >::_Vector_impl"* %0) unnamed_addr #4 comdat align 2 {
  %2 = bitcast %"struct.std::_Vector_base<Data, std::allocator<Data> >::_Vector_impl"* %0 to %"class.std::allocator.7"*
  call void @_ZNSaI4DataEC2Ev(%"class.std::allocator.7"* %2) #3
  %3 = getelementptr inbounds %"struct.std::_Vector_base<Data, std::allocator<Data> >::_Vector_impl", %"struct.std::_Vector_base<Data, std::allocator<Data> >::_Vector_impl"* %0, i32 0, i32 0
  store %struct.Data* null, %struct.Data** %3, align 8
  %4 = getelementptr inbounds %"struct.std::_Vector_base<Data, std::allocator<Data> >::_Vector_impl", %"struct.std::_Vector_base<Data, std::allocator<Data> >::_Vector_impl"* %0, i32 0, i32 1
  store %struct.Data* null, %struct.Data** %4, align 8
  %5 = getelementptr inbounds %"struct.std::_Vector_base<Data, std::allocator<Data> >::_Vector_impl", %"struct.std::_Vector_base<Data, std::allocator<Data> >::_Vector_impl"* %0, i32 0, i32 2
  store %struct.Data* null, %struct.Data** %5, align 8
  ret void
}

; Function Attrs: noinline nounwind uwtable
define linkonce_odr void @_ZNSaI4DataEC2Ev(%"class.std::allocator.7"* %0) unnamed_addr #4 comdat align 2 {
  %2 = bitcast %"class.std::allocator.7"* %0 to %"class.__gnu_cxx::new_allocator.8"*
  call void @_ZN9__gnu_cxx13new_allocatorI4DataEC2Ev(%"class.__gnu_cxx::new_allocator.8"* %2) #3
  ret void
}

; Function Attrs: noinline nounwind uwtable
define linkonce_odr void @_ZN9__gnu_cxx13new_allocatorI4DataEC2Ev(%"class.__gnu_cxx::new_allocator.8"* %0) unnamed_addr #4 comdat align 2 {
  ret void
}

; Function Attrs: noinline uwtable
define linkonce_odr %"class.std::vector.0"* @_ZNSt16allocator_traitsISaISt6vectorI4DataSaIS1_EEEE8allocateERS4_m(%"class.std::allocator"* dereferenceable(1) %0, i64 %1) #0 comdat align 2 {
  %3 = bitcast %"class.std::allocator"* %0 to %"class.__gnu_cxx::new_allocator"*
  %4 = call %"class.std::vector.0"* @_ZN9__gnu_cxx13new_allocatorISt6vectorI4DataSaIS2_EEE8allocateEmPKv(%"class.__gnu_cxx::new_allocator"* %3, i64 %1, i8* null)
  ret %"class.std::vector.0"* %4
}

; Function Attrs: noinline uwtable
define linkonce_odr %"class.std::vector.0"* @_ZN9__gnu_cxx13new_allocatorISt6vectorI4DataSaIS2_EEE8allocateEmPKv(%"class.__gnu_cxx::new_allocator"* %0, i64 %1, i8* %2) #0 comdat align 2 {
  %4 = call i64 @_ZNK9__gnu_cxx13new_allocatorISt6vectorI4DataSaIS2_EEE8max_sizeEv(%"class.__gnu_cxx::new_allocator"* %0) #3
  %5 = icmp ugt i64 %1, %4
  br i1 %5, label %6, label %7

6:                                                ; preds = %3
  call void @_ZSt17__throw_bad_allocv() #18
  unreachable

7:                                                ; preds = %3
  %8 = mul i64 %1, 24
  %9 = call i8* @_Znwm(i64 %8)
  %10 = bitcast i8* %9 to %"class.std::vector.0"*
  ret %"class.std::vector.0"* %10
}

; Function Attrs: noinline uwtable
define linkonce_odr %"class.std::vector.0"* @_ZSt22__uninitialized_copy_aISt13move_iteratorIPSt6vectorI4DataSaIS2_EEES5_S4_ET0_T_S8_S7_RSaIT1_E(%"class.std::vector.0"* %0, %"class.std::vector.0"* %1, %"class.std::vector.0"* %2, %"class.std::allocator"* dereferenceable(1) %3) #0 comdat {
  %5 = alloca %"class.std::move_iterator.20", align 8
  %6 = alloca %"class.std::move_iterator.20", align 8
  %7 = alloca %"class.std::move_iterator.20", align 8
  %8 = alloca %"class.std::move_iterator.20", align 8
