; ModuleID = '/home/pedro/tcc/exDataset/codenet/data/selection3/p01374/s180058997.ll'
source_filename = "/home/pedro/tcc/exDataset/codenet/data/selection3/p01374/s180058997.cpp"
target datalayout = "e-m:e-i64:64-f80:128-n8:16:32:64-S128"
target triple = "x86_64-pc-linux-gnu"

%"class.std::ios_base::Init" = type { i8 }
%struct.modint = type { i32 }
%"class.std::basic_istream" = type { i32 (...)**, i64, %"class.std::basic_ios" }
%"class.std::basic_ios" = type { %"class.std::ios_base", %"class.std::basic_ostream"*, i8, i8, %"class.std::basic_streambuf"*, %"class.std::ctype"*, %"class.std::num_put"*, %"class.std::num_get"* }
%"class.std::ios_base" = type { i32 (...)**, i64, i64, i32, i32, i32, %"struct.std::ios_base::_Callback_list"*, %"struct.std::ios_base::_Words", [8 x %"struct.std::ios_base::_Words"], i32, %"struct.std::ios_base::_Words"*, %"class.std::locale" }
%"struct.std::ios_base::_Callback_list" = type { %"struct.std::ios_base::_Callback_list"*, void (i32, %"class.std::ios_base"*, i32)*, i32, i32 }
%"struct.std::ios_base::_Words" = type { i8*, i64 }
%"class.std::locale" = type { %"class.std::locale::_Impl"* }
%"class.std::locale::_Impl" = type { i32, %"class.std::locale::facet"**, i64, %"class.std::locale::facet"**, i8** }
%"class.std::locale::facet" = type <{ i32 (...)**, i32, [4 x i8] }>
%"class.std::basic_ostream" = type { i32 (...)**, %"class.std::basic_ios" }
%"class.std::basic_streambuf" = type { i32 (...)**, i8*, i8*, i8*, i8*, i8*, i8*, %"class.std::locale" }
%"class.std::ctype" = type <{ %"class.std::locale::facet.base", [4 x i8], %struct.__locale_struct*, i8, [7 x i8], i32*, i32*, i16*, i8, [256 x i8], [256 x i8], i8, [6 x i8] }>
%"class.std::locale::facet.base" = type <{ i32 (...)**, i32 }>
%struct.__locale_struct = type { [13 x %struct.__locale_data*], i16*, i32*, i32*, [13 x i8*] }
%struct.__locale_data = type opaque
%"class.std::num_put" = type { %"class.std::locale::facet.base", [4 x i8] }
%"class.std::num_get" = type { %"class.std::locale::facet.base", [4 x i8] }
%"struct.std::piecewise_construct_t" = type { i8 }
%"class.std::vector" = type { %"struct.std::_Vector_base" }
%"struct.std::_Vector_base" = type { %"struct.std::_Vector_base<std::__cxx11::basic_string<char>, std::allocator<std::__cxx11::basic_string<char> > >::_Vector_impl" }
%"struct.std::_Vector_base<std::__cxx11::basic_string<char>, std::allocator<std::__cxx11::basic_string<char> > >::_Vector_impl" = type { %"class.std::__cxx11::basic_string"*, %"class.std::__cxx11::basic_string"*, %"class.std::__cxx11::basic_string"* }
%"class.std::__cxx11::basic_string" = type { %"struct.std::__cxx11::basic_string<char, std::char_traits<char>, std::allocator<char> >::_Alloc_hider", i64, %union.anon }
%"struct.std::__cxx11::basic_string<char, std::char_traits<char>, std::allocator<char> >::_Alloc_hider" = type { i8* }
%union.anon = type { i64, [8 x i8] }
%"class.std::vector.3" = type { %"struct.std::_Vector_base.4" }
%"struct.std::_Vector_base.4" = type { %"struct.std::_Vector_base<std::vector<int, std::allocator<int> >, std::allocator<std::vector<int, std::allocator<int> > > >::_Vector_impl" }
%"struct.std::_Vector_base<std::vector<int, std::allocator<int> >, std::allocator<std::vector<int, std::allocator<int> > > >::_Vector_impl" = type { %"class.std::vector.8"*, %"class.std::vector.8"*, %"class.std::vector.8"* }
%"class.std::vector.8" = type { %"struct.std::_Vector_base.9" }
%"struct.std::_Vector_base.9" = type { %"struct.std::_Vector_base<int, std::allocator<int> >::_Vector_impl" }
%"struct.std::_Vector_base<int, std::allocator<int> >::_Vector_impl" = type { i32*, i32*, i32* }
%"class.std::allocator" = type { i8 }
%"class.std::map" = type { %"class.std::_Rb_tree" }
%"class.std::_Rb_tree" = type { %"struct.std::_Rb_tree<std::__cxx11::basic_string<char>, std::pair<const std::__cxx11::basic_string<char>, int>, std::_Select1st<std::pair<const std::__cxx11::basic_string<char>, int> >, std::less<std::__cxx11::basic_string<char> >, std::allocator<std::pair<const std::__cxx11::basic_string<char>, int> > >::_Rb_tree_impl" }
%"struct.std::_Rb_tree<std::__cxx11::basic_string<char>, std::pair<const std::__cxx11::basic_string<char>, int>, std::_Select1st<std::pair<const std::__cxx11::basic_string<char>, int> >, std::less<std::__cxx11::basic_string<char> >, std::allocator<std::pair<const std::__cxx11::basic_string<char>, int> > >::_Rb_tree_impl" = type { %"struct.std::_Rb_tree_key_compare", %"struct.std::_Rb_tree_header" }
%"struct.std::_Rb_tree_key_compare" = type { %"struct.std::less" }
%"struct.std::less" = type { i8 }
%"struct.std::_Rb_tree_header" = type { %"struct.std::_Rb_tree_node_base", i64 }
%"struct.std::_Rb_tree_node_base" = type { i32, %"struct.std::_Rb_tree_node_base"*, %"struct.std::_Rb_tree_node_base"*, %"struct.std::_Rb_tree_node_base"* }
%class.AhoCorasick = type { %"class.std::vector.16", %"class.std::vector.8" }
%"class.std::vector.16" = type { %"struct.std::_Vector_base.17" }
%"struct.std::_Vector_base.17" = type { %"struct.std::_Vector_base<AhoCorasick<26, 97>::Node, std::allocator<AhoCorasick<26, 97>::Node> >::_Vector_impl" }
%"struct.std::_Vector_base<AhoCorasick<26, 97>::Node, std::allocator<AhoCorasick<26, 97>::Node> >::_Vector_impl" = type { %"struct.AhoCorasick<26, 97>::Node"*, %"struct.AhoCorasick<26, 97>::Node"*, %"struct.AhoCorasick<26, 97>::Node"* }
%"struct.AhoCorasick<26, 97>::Node" = type { %"struct.std::array", i32 }
%"struct.std::array" = type { [26 x i32] }
%"class.__gnu_cxx::__normal_iterator" = type { i32* }
%"class.__gnu_cxx::__normal_iterator.21" = type { i8* }
%"class.__gnu_cxx::new_allocator" = type { i8 }
%"struct.std::_Rb_tree_const_iterator" = type { %"struct.std::_Rb_tree_node_base"* }
%"struct.std::_Rb_tree_iterator" = type { %"struct.std::_Rb_tree_node_base"* }
%"class.std::tuple" = type { %"struct.std::_Tuple_impl" }
%"struct.std::_Tuple_impl" = type { %"struct.std::_Head_base" }
%"struct.std::_Head_base" = type { %"class.std::__cxx11::basic_string"* }
%"class.std::tuple.22" = type { i8 }
%"struct.std::pair" = type <{ %"class.std::__cxx11::basic_string", i32, [4 x i8] }>
%"class.__gnu_cxx::__normal_iterator.27" = type { %"class.std::__cxx11::basic_string"* }
%"class.__gnu_cxx::__normal_iterator.28" = type { %"class.std::vector.8"* }
%"class.std::allocator.5" = type { i8 }
%"class.std::allocator.10" = type { i8 }
%"class.std::allocator.18" = type { i8 }
%"class.std::allocator.13" = type { i8 }
%"class.__gnu_cxx::new_allocator.14" = type { i8 }
%"class.__gnu_cxx::new_allocator.11" = type { i8 }
%"class.__gnu_cxx::new_allocator.19" = type { i8 }
%"struct.std::_Rb_tree_node" = type { %"struct.std::_Rb_tree_node_base", %"struct.__gnu_cxx::__aligned_membuf" }
%"struct.__gnu_cxx::__aligned_membuf" = type { [40 x i8] }
%"class.__gnu_cxx::new_allocator.6" = type { i8 }
%"struct.std::_Select1st" = type { i8 }
%"struct.std::pair.23" = type { %"struct.std::_Rb_tree_node_base"*, %"struct.std::_Rb_tree_node_base"* }
%"class.std::__pair_base" = type { i8 }
%"class.std::__pair_base.24" = type { i8 }
%"class.std::move_iterator" = type { %"class.std::__cxx11::basic_string"* }
%"class.std::move_iterator.29" = type { %"class.std::vector.8"* }
%"class.std::move_iterator.30" = type { i32* }
%"class.__gnu_cxx::__normal_iterator.31" = type { %"struct.AhoCorasick<26, 97>::Node"* }
%"class.std::move_iterator.32" = type { %"struct.AhoCorasick<26, 97>::Node"* }

$_ZN6modintILj1000000007EEC2Ev = comdat any

$_ZNSt6vectorINSt7__cxx1112basic_stringIcSt11char_traitsIcESaIcEEESaIS5_EEC2Ev = comdat any

$_ZNSt6vectorIS_IiSaIiEESaIS1_EEC2Ev = comdat any

$_ZSt4fillIPiiEvT_S1_RKT0_ = comdat any

$_ZNSaINSt7__cxx1112basic_stringIcSt11char_traitsIcESaIcEEEEC2Ev = comdat any

$_ZNSt6vectorINSt7__cxx1112basic_stringIcSt11char_traitsIcESaIcEEESaIS5_EEC2EmRKS6_ = comdat any

$_ZNSaINSt7__cxx1112basic_stringIcSt11char_traitsIcESaIcEEEED2Ev = comdat any

$_ZNSt3mapINSt7__cxx1112basic_stringIcSt11char_traitsIcESaIcEEEiSt4lessIS5_ESaISt4pairIKS5_iEEEC2Ev = comdat any

$_ZNKSt3mapINSt7__cxx1112basic_stringIcSt11char_traitsIcESaIcEEEiSt4lessIS5_ESaISt4pairIKS5_iEEE5countERS9_ = comdat any

$_ZNSt3mapINSt7__cxx1112basic_stringIcSt11char_traitsIcESaIcEEEiSt4lessIS5_ESaISt4pairIKS5_iEEEixERS9_ = comdat any

$_ZNSt6vectorINSt7__cxx1112basic_stringIcSt11char_traitsIcESaIcEEESaIS5_EE12emplace_backIJRS5_EEEvDpOT_ = comdat any

$_ZNSt6vectorIS_IiSaIiEESaIS1_EE12emplace_backIJEEEvDpOT_ = comdat any

$_ZNSt6vectorIS_IiSaIiEESaIS1_EEixEm = comdat any

$_ZNSt6vectorIiSaIiEE12emplace_backIJRiEEEvDpOT_ = comdat any

$_ZNKSt6vectorINSt7__cxx1112basic_stringIcSt11char_traitsIcESaIcEEESaIS5_EE4sizeEv = comdat any

$_ZN11AhoCorasickILi26ELi97EEC2Ev = comdat any

$_ZNSt6vectorINSt7__cxx1112basic_stringIcSt11char_traitsIcESaIcEEESaIS5_EEixEm = comdat any

$_ZN11AhoCorasickILi26ELi97EE3addERNSt7__cxx1112basic_stringIcSt11char_traitsIcESaIcEEEi = comdat any

$_ZN11AhoCorasickILi26ELi97EE5buildEv = comdat any

$_ZNSt6vectorIiSaIiEE5beginEv = comdat any

$_ZNSt6vectorIiSaIiEE3endEv = comdat any

$_ZN9__gnu_cxxneIPiSt6vectorIiSaIiEEEEbRKNS_17__normal_iteratorIT_T0_EESA_ = comdat any

$_ZNK9__gnu_cxx17__normal_iteratorIPiSt6vectorIiSaIiEEEdeEv = comdat any

$_ZNSt6vectorIN11AhoCorasickILi26ELi97EE4NodeESaIS2_EEixEm = comdat any

$_ZN9__gnu_cxx17__normal_iteratorIPiSt6vectorIiSaIiEEEppEv = comdat any

$_ZNKSt6vectorIN11AhoCorasickILi26ELi97EE4NodeESaIS2_EE4sizeEv = comdat any

$_ZN9__gnu_cxxneIPcNSt7__cxx1112basic_stringIcSt11char_traitsIcESaIcEEEEEbRKNS_17__normal_iteratorIT_T0_EESD_ = comdat any

$_ZNK9__gnu_cxx17__normal_iteratorIPcNSt7__cxx1112basic_stringIcSt11char_traitsIcESaIcEEEEdeEv = comdat any

$_ZN11AhoCorasickILi26ELi97EE4nextEic = comdat any

$_ZN9__gnu_cxx17__normal_iteratorIPcNSt7__cxx1112basic_stringIcSt11char_traitsIcESaIcEEEEppEv = comdat any

$_ZN11AhoCorasickILi26ELi97EED2Ev = comdat any

$_ZNSt3mapINSt7__cxx1112basic_stringIcSt11char_traitsIcESaIcEEEiSt4lessIS5_ESaISt4pairIKS5_iEEED2Ev = comdat any

$_ZN6modintILj1000000007EEaSIiEERS0_T_ = comdat any

$_ZN6modintILj1000000007EEC2IiEET_ = comdat any

$_ZN6modintILj1000000007EEpLES0_ = comdat any

$_ZNSt6vectorINSt7__cxx1112basic_stringIcSt11char_traitsIcESaIcEEESaIS5_EED2Ev = comdat any

$_ZNSt6vectorIS_IiSaIiEESaIS1_EED2Ev = comdat any

$_ZNSt8_Rb_treeINSt7__cxx1112basic_stringIcSt11char_traitsIcESaIcEEESt4pairIKS5_iESt10_Select1stIS8_ESt4lessIS5_ESaIS8_EEC2Ev = comdat any

$_ZNSt8_Rb_treeINSt7__cxx1112basic_stringIcSt11char_traitsIcESaIcEEESt4pairIKS5_iESt10_Select1stIS8_ESt4lessIS5_ESaIS8_EE13_Rb_tree_implISC_Lb1EEC2Ev = comdat any

$_ZNSaISt13_Rb_tree_nodeISt4pairIKNSt7__cxx1112basic_stringIcSt11char_traitsIcESaIcEEEiEEEC2Ev = comdat any

$_ZNSt20_Rb_tree_key_compareISt4lessINSt7__cxx1112basic_stringIcSt11char_traitsIcESaIcEEEEEC2Ev = comdat any

$_ZNSt15_Rb_tree_headerC2Ev = comdat any

$_ZN9__gnu_cxx13new_allocatorISt13_Rb_tree_nodeISt4pairIKNSt7__cxx1112basic_stringIcSt11char_traitsIcESaIcEEEiEEEC2Ev = comdat any

$_ZNSt15_Rb_tree_header8_M_resetEv = comdat any

$__clang_call_terminate = comdat any

$_ZNSt6vectorIiSaIiEED2Ev = comdat any

$_ZNSt6vectorIN11AhoCorasickILi26ELi97EE4NodeESaIS2_EED2Ev = comdat any

$_ZSt8_DestroyIPiiEvT_S1_RSaIT0_E = comdat any

$_ZNSt12_Vector_baseIiSaIiEE19_M_get_Tp_allocatorEv = comdat any

$_ZNSt12_Vector_baseIiSaIiEED2Ev = comdat any

$_ZSt8_DestroyIPiEvT_S1_ = comdat any

$_ZNSt12_Destroy_auxILb1EE9__destroyIPiEEvT_S3_ = comdat any

$_ZNSt12_Vector_baseIiSaIiEE13_M_deallocateEPim = comdat any

$_ZNSt12_Vector_baseIiSaIiEE12_Vector_implD2Ev = comdat any

$_ZNSt16allocator_traitsISaIiEE10deallocateERS0_Pim = comdat any

$_ZN9__gnu_cxx13new_allocatorIiE10deallocateEPim = comdat any

$_ZNSaIiED2Ev = comdat any

$_ZN9__gnu_cxx13new_allocatorIiED2Ev = comdat any

$_ZSt8_DestroyIPN11AhoCorasickILi26ELi97EE4NodeES2_EvT_S4_RSaIT0_E = comdat any

$_ZNSt12_Vector_baseIN11AhoCorasickILi26ELi97EE4NodeESaIS2_EE19_M_get_Tp_allocatorEv = comdat any

$_ZNSt12_Vector_baseIN11AhoCorasickILi26ELi97EE4NodeESaIS2_EED2Ev = comdat any

$_ZSt8_DestroyIPN11AhoCorasickILi26ELi97EE4NodeEEvT_S4_ = comdat any

$_ZNSt12_Destroy_auxILb1EE9__destroyIPN11AhoCorasickILi26ELi97EE4NodeEEEvT_S6_ = comdat any

$_ZNSt12_Vector_baseIN11AhoCorasickILi26ELi97EE4NodeESaIS2_EE13_M_deallocateEPS2_m = comdat any

$_ZNSt12_Vector_baseIN11AhoCorasickILi26ELi97EE4NodeESaIS2_EE12_Vector_implD2Ev = comdat any

$_ZNSt16allocator_traitsISaIN11AhoCorasickILi26ELi97EE4NodeEEE10deallocateERS3_PS2_m = comdat any

$_ZN9__gnu_cxx13new_allocatorIN11AhoCorasickILi26ELi97EE4NodeEE10deallocateEPS3_m = comdat any

$_ZN9__gnu_cxx13new_allocatorIN11AhoCorasickILi26ELi97EE4NodeEED2Ev = comdat any

$_ZNSt8_Rb_treeINSt7__cxx1112basic_stringIcSt11char_traitsIcESaIcEEESt4pairIKS5_iESt10_Select1stIS8_ESt4lessIS5_ESaIS8_EED2Ev = comdat any

$_ZNSt8_Rb_treeINSt7__cxx1112basic_stringIcSt11char_traitsIcESaIcEEESt4pairIKS5_iESt10_Select1stIS8_ESt4lessIS5_ESaIS8_EE8_M_eraseEPSt13_Rb_tree_nodeIS8_E = comdat any

$_ZNSt8_Rb_treeINSt7__cxx1112basic_stringIcSt11char_traitsIcESaIcEEESt4pairIKS5_iESt10_Select1stIS8_ESt4lessIS5_ESaIS8_EE8_M_beginEv = comdat any

$_ZNSt8_Rb_treeINSt7__cxx1112basic_stringIcSt11char_traitsIcESaIcEEESt4pairIKS5_iESt10_Select1stIS8_ESt4lessIS5_ESaIS8_EE13_Rb_tree_implISC_Lb1EED2Ev = comdat any

$_ZNSt8_Rb_treeINSt7__cxx1112basic_stringIcSt11char_traitsIcESaIcEEESt4pairIKS5_iESt10_Select1stIS8_ESt4lessIS5_ESaIS8_EE8_S_rightEPSt18_Rb_tree_node_base = comdat any

$_ZNSt8_Rb_treeINSt7__cxx1112basic_stringIcSt11char_traitsIcESaIcEEESt4pairIKS5_iESt10_Select1stIS8_ESt4lessIS5_ESaIS8_EE7_S_leftEPSt18_Rb_tree_node_base = comdat any

$_ZNSt8_Rb_treeINSt7__cxx1112basic_stringIcSt11char_traitsIcESaIcEEESt4pairIKS5_iESt10_Select1stIS8_ESt4lessIS5_ESaIS8_EE12_M_drop_nodeEPSt13_Rb_tree_nodeIS8_E = comdat any

$_ZNSt8_Rb_treeINSt7__cxx1112basic_stringIcSt11char_traitsIcESaIcEEESt4pairIKS5_iESt10_Select1stIS8_ESt4lessIS5_ESaIS8_EE15_M_destroy_nodeEPSt13_Rb_tree_nodeIS8_E = comdat any

$_ZNSt8_Rb_treeINSt7__cxx1112basic_stringIcSt11char_traitsIcESaIcEEESt4pairIKS5_iESt10_Select1stIS8_ESt4lessIS5_ESaIS8_EE11_M_put_nodeEPSt13_Rb_tree_nodeIS8_E = comdat any

$_ZNSt16allocator_traitsISaISt13_Rb_tree_nodeISt4pairIKNSt7__cxx1112basic_stringIcSt11char_traitsIcESaIcEEEiEEEE7destroyIS9_EEvRSB_PT_ = comdat any

$_ZNSt8_Rb_treeINSt7__cxx1112basic_stringIcSt11char_traitsIcESaIcEEESt4pairIKS5_iESt10_Select1stIS8_ESt4lessIS5_ESaIS8_EE21_M_get_Node_allocatorEv = comdat any

$_ZNSt13_Rb_tree_nodeISt4pairIKNSt7__cxx1112basic_stringIcSt11char_traitsIcESaIcEEEiEE9_M_valptrEv = comdat any

$_ZN9__gnu_cxx13new_allocatorISt13_Rb_tree_nodeISt4pairIKNSt7__cxx1112basic_stringIcSt11char_traitsIcESaIcEEEiEEE7destroyISA_EEvPT_ = comdat any

$_ZNSt4pairIKNSt7__cxx1112basic_stringIcSt11char_traitsIcESaIcEEEiED2Ev = comdat any

$_ZN9__gnu_cxx16__aligned_membufISt4pairIKNSt7__cxx1112basic_stringIcSt11char_traitsIcESaIcEEEiEE6_M_ptrEv = comdat any

$_ZN9__gnu_cxx16__aligned_membufISt4pairIKNSt7__cxx1112basic_stringIcSt11char_traitsIcESaIcEEEiEE7_M_addrEv = comdat any

$_ZNSt16allocator_traitsISaISt13_Rb_tree_nodeISt4pairIKNSt7__cxx1112basic_stringIcSt11char_traitsIcESaIcEEEiEEEE10deallocateERSB_PSA_m = comdat any

$_ZN9__gnu_cxx13new_allocatorISt13_Rb_tree_nodeISt4pairIKNSt7__cxx1112basic_stringIcSt11char_traitsIcESaIcEEEiEEE10deallocateEPSB_m = comdat any

$_ZNSaISt13_Rb_tree_nodeISt4pairIKNSt7__cxx1112basic_stringIcSt11char_traitsIcESaIcEEEiEEED2Ev = comdat any

$_ZN9__gnu_cxx13new_allocatorISt13_Rb_tree_nodeISt4pairIKNSt7__cxx1112basic_stringIcSt11char_traitsIcESaIcEEEiEEED2Ev = comdat any

$_ZNSt12_Vector_baseINSt7__cxx1112basic_stringIcSt11char_traitsIcESaIcEEESaIS5_EEC2Ev = comdat any

$_ZNSt12_Vector_baseINSt7__cxx1112basic_stringIcSt11char_traitsIcESaIcEEESaIS5_EE12_Vector_implC2Ev = comdat any

$_ZN9__gnu_cxx13new_allocatorINSt7__cxx1112basic_stringIcSt11char_traitsIcESaIcEEEEC2Ev = comdat any

$_ZSt8_DestroyIPNSt7__cxx1112basic_stringIcSt11char_traitsIcESaIcEEES5_EvT_S7_RSaIT0_E = comdat any

$_ZNSt12_Vector_baseINSt7__cxx1112basic_stringIcSt11char_traitsIcESaIcEEESaIS5_EE19_M_get_Tp_allocatorEv = comdat any

$_ZNSt12_Vector_baseINSt7__cxx1112basic_stringIcSt11char_traitsIcESaIcEEESaIS5_EED2Ev = comdat any

$_ZSt8_DestroyIPNSt7__cxx1112basic_stringIcSt11char_traitsIcESaIcEEEEvT_S7_ = comdat any

$_ZNSt12_Destroy_auxILb0EE9__destroyIPNSt7__cxx1112basic_stringIcSt11char_traitsIcESaIcEEEEEvT_S9_ = comdat any

$_ZSt8_DestroyINSt7__cxx1112basic_stringIcSt11char_traitsIcESaIcEEEEvPT_ = comdat any

$_ZSt11__addressofINSt7__cxx1112basic_stringIcSt11char_traitsIcESaIcEEEEPT_RS6_ = comdat any

$_ZNSt12_Vector_baseINSt7__cxx1112basic_stringIcSt11char_traitsIcESaIcEEESaIS5_EE13_M_deallocateEPS5_m = comdat any

$_ZNSt12_Vector_baseINSt7__cxx1112basic_stringIcSt11char_traitsIcESaIcEEESaIS5_EE12_Vector_implD2Ev = comdat any

$_ZNSt16allocator_traitsISaINSt7__cxx1112basic_stringIcSt11char_traitsIcESaIcEEEEE10deallocateERS6_PS5_m = comdat any

$_ZN9__gnu_cxx13new_allocatorINSt7__cxx1112basic_stringIcSt11char_traitsIcESaIcEEEE10deallocateEPS6_m = comdat any

$_ZN9__gnu_cxx13new_allocatorINSt7__cxx1112basic_stringIcSt11char_traitsIcESaIcEEEED2Ev = comdat any

$_ZNSt12_Vector_baseISt6vectorIiSaIiEESaIS2_EEC2Ev = comdat any

$_ZNSt12_Vector_baseISt6vectorIiSaIiEESaIS2_EE12_Vector_implC2Ev = comdat any

$_ZNSaISt6vectorIiSaIiEEEC2Ev = comdat any

$_ZN9__gnu_cxx13new_allocatorISt6vectorIiSaIiEEEC2Ev = comdat any

$_ZSt8_DestroyIPSt6vectorIiSaIiEES2_EvT_S4_RSaIT0_E = comdat any

$_ZNSt12_Vector_baseISt6vectorIiSaIiEESaIS2_EE19_M_get_Tp_allocatorEv = comdat any

$_ZNSt12_Vector_baseISt6vectorIiSaIiEESaIS2_EED2Ev = comdat any

$_ZSt8_DestroyIPSt6vectorIiSaIiEEEvT_S4_ = comdat any

$_ZNSt12_Destroy_auxILb0EE9__destroyIPSt6vectorIiSaIiEEEEvT_S6_ = comdat any

$_ZSt8_DestroyISt6vectorIiSaIiEEEvPT_ = comdat any

$_ZSt11__addressofISt6vectorIiSaIiEEEPT_RS3_ = comdat any

$_ZNSt12_Vector_baseISt6vectorIiSaIiEESaIS2_EE13_M_deallocateEPS2_m = comdat any

$_ZNSt12_Vector_baseISt6vectorIiSaIiEESaIS2_EE12_Vector_implD2Ev = comdat any

$_ZNSt16allocator_traitsISaISt6vectorIiSaIiEEEE10deallocateERS3_PS2_m = comdat any

$_ZN9__gnu_cxx13new_allocatorISt6vectorIiSaIiEEE10deallocateEPS3_m = comdat any

$_ZNSaISt6vectorIiSaIiEEED2Ev = comdat any

$_ZN9__gnu_cxx13new_allocatorISt6vectorIiSaIiEEED2Ev = comdat any

$_ZSt8__fill_aIPiiEN9__gnu_cxx11__enable_ifIXsr11__is_scalarIT0_EE7__valueEvE6__typeET_S6_RKS3_ = comdat any

$_ZSt12__niter_baseIPiET_S1_ = comdat any

$_ZNSt12_Vector_baseINSt7__cxx1112basic_stringIcSt11char_traitsIcESaIcEEESaIS5_EEC2EmRKS6_ = comdat any

$_ZNSt6vectorINSt7__cxx1112basic_stringIcSt11char_traitsIcESaIcEEESaIS5_EE21_M_default_initializeEm = comdat any

$_ZNSt12_Vector_baseINSt7__cxx1112basic_stringIcSt11char_traitsIcESaIcEEESaIS5_EE12_Vector_implC2ERKS6_ = comdat any

$_ZNSt12_Vector_baseINSt7__cxx1112basic_stringIcSt11char_traitsIcESaIcEEESaIS5_EE17_M_create_storageEm = comdat any

$_ZNSaINSt7__cxx1112basic_stringIcSt11char_traitsIcESaIcEEEEC2ERKS5_ = comdat any

$_ZN9__gnu_cxx13new_allocatorINSt7__cxx1112basic_stringIcSt11char_traitsIcESaIcEEEEC2ERKS7_ = comdat any

$_ZNSt12_Vector_baseINSt7__cxx1112basic_stringIcSt11char_traitsIcESaIcEEESaIS5_EE11_M_allocateEm = comdat any

$_ZNSt16allocator_traitsISaINSt7__cxx1112basic_stringIcSt11char_traitsIcESaIcEEEEE8allocateERS6_m = comdat any

$_ZN9__gnu_cxx13new_allocatorINSt7__cxx1112basic_stringIcSt11char_traitsIcESaIcEEEE8allocateEmPKv = comdat any

$_ZNK9__gnu_cxx13new_allocatorINSt7__cxx1112basic_stringIcSt11char_traitsIcESaIcEEEE8max_sizeEv = comdat any

$_ZSt27__uninitialized_default_n_aIPNSt7__cxx1112basic_stringIcSt11char_traitsIcESaIcEEEmS5_ET_S7_T0_RSaIT1_E = comdat any

$_ZSt25__uninitialized_default_nIPNSt7__cxx1112basic_stringIcSt11char_traitsIcESaIcEEEmET_S7_T0_ = comdat any

$_ZNSt27__uninitialized_default_n_1ILb0EE18__uninit_default_nIPNSt7__cxx1112basic_stringIcSt11char_traitsIcESaIcEEEmEET_S9_T0_ = comdat any

$_ZSt10_ConstructINSt7__cxx1112basic_stringIcSt11char_traitsIcESaIcEEEJEEvPT_DpOT0_ = comdat any

$_ZNKSt8_Rb_treeINSt7__cxx1112basic_stringIcSt11char_traitsIcESaIcEEESt4pairIKS5_iESt10_Select1stIS8_ESt4lessIS5_ESaIS8_EE4findERS7_ = comdat any

$_ZNKSt23_Rb_tree_const_iteratorISt4pairIKNSt7__cxx1112basic_stringIcSt11char_traitsIcESaIcEEEiEEeqERKS9_ = comdat any

$_ZNKSt8_Rb_treeINSt7__cxx1112basic_stringIcSt11char_traitsIcESaIcEEESt4pairIKS5_iESt10_Select1stIS8_ESt4lessIS5_ESaIS8_EE3endEv = comdat any

$_ZNKSt8_Rb_treeINSt7__cxx1112basic_stringIcSt11char_traitsIcESaIcEEESt4pairIKS5_iESt10_Select1stIS8_ESt4lessIS5_ESaIS8_EE14_M_lower_boundEPKSt13_Rb_tree_nodeIS8_EPKSt18_Rb_tree_node_baseRS7_ = comdat any

$_ZNKSt8_Rb_treeINSt7__cxx1112basic_stringIcSt11char_traitsIcESaIcEEESt4pairIKS5_iESt10_Select1stIS8_ESt4lessIS5_ESaIS8_EE8_M_beginEv = comdat any

$_ZNKSt8_Rb_treeINSt7__cxx1112basic_stringIcSt11char_traitsIcESaIcEEESt4pairIKS5_iESt10_Select1stIS8_ESt4lessIS5_ESaIS8_EE6_M_endEv = comdat any

$_ZNKSt4lessINSt7__cxx1112basic_stringIcSt11char_traitsIcESaIcEEEEclERKS5_S8_ = comdat any

$_ZNSt8_Rb_treeINSt7__cxx1112basic_stringIcSt11char_traitsIcESaIcEEESt4pairIKS5_iESt10_Select1stIS8_ESt4lessIS5_ESaIS8_EE6_S_keyEPKSt18_Rb_tree_node_base = comdat any

$_ZNSt8_Rb_treeINSt7__cxx1112basic_stringIcSt11char_traitsIcESaIcEEESt4pairIKS5_iESt10_Select1stIS8_ESt4lessIS5_ESaIS8_EE6_S_keyEPKSt13_Rb_tree_nodeIS8_E = comdat any

$_ZNSt8_Rb_treeINSt7__cxx1112basic_stringIcSt11char_traitsIcESaIcEEESt4pairIKS5_iESt10_Select1stIS8_ESt4lessIS5_ESaIS8_EE7_S_leftEPKSt18_Rb_tree_node_base = comdat any

$_ZNSt8_Rb_treeINSt7__cxx1112basic_stringIcSt11char_traitsIcESaIcEEESt4pairIKS5_iESt10_Select1stIS8_ESt4lessIS5_ESaIS8_EE8_S_rightEPKSt18_Rb_tree_node_base = comdat any

$_ZNSt23_Rb_tree_const_iteratorISt4pairIKNSt7__cxx1112basic_stringIcSt11char_traitsIcESaIcEEEiEEC2EPKSt18_Rb_tree_node_base = comdat any

$_ZNKSt10_Select1stISt4pairIKNSt7__cxx1112basic_stringIcSt11char_traitsIcESaIcEEEiEEclERKS8_ = comdat any

$_ZNKSt13_Rb_tree_nodeISt4pairIKNSt7__cxx1112basic_stringIcSt11char_traitsIcESaIcEEEiEE9_M_valptrEv = comdat any

$_ZNK9__gnu_cxx16__aligned_membufISt4pairIKNSt7__cxx1112basic_stringIcSt11char_traitsIcESaIcEEEiEE6_M_ptrEv = comdat any

$_ZNK9__gnu_cxx16__aligned_membufISt4pairIKNSt7__cxx1112basic_stringIcSt11char_traitsIcESaIcEEEiEE7_M_addrEv = comdat any

$_ZStltIcSt11char_traitsIcESaIcEEbRKNSt7__cxx1112basic_stringIT_T0_T1_EESA_ = comdat any

$_ZNSt3mapINSt7__cxx1112basic_stringIcSt11char_traitsIcESaIcEEEiSt4lessIS5_ESaISt4pairIKS5_iEEE11lower_boundERS9_ = comdat any

$_ZNKSt17_Rb_tree_iteratorISt4pairIKNSt7__cxx1112basic_stringIcSt11char_traitsIcESaIcEEEiEEeqERKS9_ = comdat any

$_ZNSt3mapINSt7__cxx1112basic_stringIcSt11char_traitsIcESaIcEEEiSt4lessIS5_ESaISt4pairIKS5_iEEE3endEv = comdat any

$_ZNKSt3mapINSt7__cxx1112basic_stringIcSt11char_traitsIcESaIcEEEiSt4lessIS5_ESaISt4pairIKS5_iEEE8key_compEv = comdat any

$_ZNKSt17_Rb_tree_iteratorISt4pairIKNSt7__cxx1112basic_stringIcSt11char_traitsIcESaIcEEEiEEdeEv = comdat any

$_ZNSt8_Rb_treeINSt7__cxx1112basic_stringIcSt11char_traitsIcESaIcEEESt4pairIKS5_iESt10_Select1stIS8_ESt4lessIS5_ESaIS8_EE22_M_emplace_hint_uniqueIJRKSt21piecewise_construct_tSt5tupleIJRS7_EESJ_IJEEEEESt17_Rb_tree_iteratorIS8_ESt23_Rb_tree_const_iteratorIS8_EDpOT_ = comdat any

$_ZNSt23_Rb_tree_const_iteratorISt4pairIKNSt7__cxx1112basic_stringIcSt11char_traitsIcESaIcEEEiEEC2ERKSt17_Rb_tree_iteratorIS8_E = comdat any

$_ZNSt5tupleIJRKNSt7__cxx1112basic_stringIcSt11char_traitsIcESaIcEEEEEC2IvLb1EEES7_ = comdat any

$_ZNSt8_Rb_treeINSt7__cxx1112basic_stringIcSt11char_traitsIcESaIcEEESt4pairIKS5_iESt10_Select1stIS8_ESt4lessIS5_ESaIS8_EE11lower_boundERS7_ = comdat any

$_ZNSt8_Rb_treeINSt7__cxx1112basic_stringIcSt11char_traitsIcESaIcEEESt4pairIKS5_iESt10_Select1stIS8_ESt4lessIS5_ESaIS8_EE14_M_lower_boundEPSt13_Rb_tree_nodeIS8_EPSt18_Rb_tree_node_baseRS7_ = comdat any

$_ZNSt8_Rb_treeINSt7__cxx1112basic_stringIcSt11char_traitsIcESaIcEEESt4pairIKS5_iESt10_Select1stIS8_ESt4lessIS5_ESaIS8_EE6_M_endEv = comdat any

$_ZNSt17_Rb_tree_iteratorISt4pairIKNSt7__cxx1112basic_stringIcSt11char_traitsIcESaIcEEEiEEC2EPSt18_Rb_tree_node_base = comdat any

$_ZNSt8_Rb_treeINSt7__cxx1112basic_stringIcSt11char_traitsIcESaIcEEESt4pairIKS5_iESt10_Select1stIS8_ESt4lessIS5_ESaIS8_EE3endEv = comdat any

$_ZNKSt8_Rb_treeINSt7__cxx1112basic_stringIcSt11char_traitsIcESaIcEEESt4pairIKS5_iESt10_Select1stIS8_ESt4lessIS5_ESaIS8_EE8key_compEv = comdat any

$_ZNSt8_Rb_treeINSt7__cxx1112basic_stringIcSt11char_traitsIcESaIcEEESt4pairIKS5_iESt10_Select1stIS8_ESt4lessIS5_ESaIS8_EE14_M_create_nodeIJRKSt21piecewise_construct_tSt5tupleIJRS7_EESJ_IJEEEEEPSt13_Rb_tree_nodeIS8_EDpOT_ = comdat any

$_ZSt7forwardIRKSt21piecewise_construct_tEOT_RNSt16remove_referenceIS3_E4typeE = comdat any

$_ZSt7forwardISt5tupleIJRKNSt7__cxx1112basic_stringIcSt11char_traitsIcESaIcEEEEEEOT_RNSt16remove_referenceISA_E4typeE = comdat any

$_ZSt7forwardISt5tupleIJEEEOT_RNSt16remove_referenceIS2_E4typeE = comdat any

$_ZNSt8_Rb_treeINSt7__cxx1112basic_stringIcSt11char_traitsIcESaIcEEESt4pairIKS5_iESt10_Select1stIS8_ESt4lessIS5_ESaIS8_EE29_M_get_insert_hint_unique_posESt23_Rb_tree_const_iteratorIS8_ERS7_ = comdat any

$_ZNSt8_Rb_treeINSt7__cxx1112basic_stringIcSt11char_traitsIcESaIcEEESt4pairIKS5_iESt10_Select1stIS8_ESt4lessIS5_ESaIS8_EE14_M_insert_nodeEPSt18_Rb_tree_node_baseSG_PSt13_Rb_tree_nodeIS8_E = comdat any

$_ZNSt8_Rb_treeINSt7__cxx1112basic_stringIcSt11char_traitsIcESaIcEEESt4pairIKS5_iESt10_Select1stIS8_ESt4lessIS5_ESaIS8_EE11_M_get_nodeEv = comdat any

$_ZNSt8_Rb_treeINSt7__cxx1112basic_stringIcSt11char_traitsIcESaIcEEESt4pairIKS5_iESt10_Select1stIS8_ESt4lessIS5_ESaIS8_EE17_M_construct_nodeIJRKSt21piecewise_construct_tSt5tupleIJRS7_EESJ_IJEEEEEvPSt13_Rb_tree_nodeIS8_EDpOT_ = comdat any

$_ZNSt16allocator_traitsISaISt13_Rb_tree_nodeISt4pairIKNSt7__cxx1112basic_stringIcSt11char_traitsIcESaIcEEEiEEEE8allocateERSB_m = comdat any

$_ZN9__gnu_cxx13new_allocatorISt13_Rb_tree_nodeISt4pairIKNSt7__cxx1112basic_stringIcSt11char_traitsIcESaIcEEEiEEE8allocateEmPKv = comdat any

$_ZNK9__gnu_cxx13new_allocatorISt13_Rb_tree_nodeISt4pairIKNSt7__cxx1112basic_stringIcSt11char_traitsIcESaIcEEEiEEE8max_sizeEv = comdat any

$_ZNSt16allocator_traitsISaISt13_Rb_tree_nodeISt4pairIKNSt7__cxx1112basic_stringIcSt11char_traitsIcESaIcEEEiEEEE9constructIS9_JRKSt21piecewise_construct_tSt5tupleIJRS8_EESH_IJEEEEEvRSB_PT_DpOT0_ = comdat any

$_ZN9__gnu_cxx13new_allocatorISt13_Rb_tree_nodeISt4pairIKNSt7__cxx1112basic_stringIcSt11char_traitsIcESaIcEEEiEEE9constructISA_JRKSt21piecewise_construct_tSt5tupleIJRS9_EESH_IJEEEEEvPT_DpOT0_ = comdat any

$_ZNSt5tupleIJRKNSt7__cxx1112basic_stringIcSt11char_traitsIcESaIcEEEEEC2EOS8_ = comdat any

$_ZNSt4pairIKNSt7__cxx1112basic_stringIcSt11char_traitsIcESaIcEEEiEC2IJRS6_EJEEESt21piecewise_construct_tSt5tupleIJDpT_EESB_IJDpT0_EE = comdat any

$_ZNSt11_Tuple_implILm0EJRKNSt7__cxx1112basic_stringIcSt11char_traitsIcESaIcEEEEEC2EOS8_ = comdat any

$_ZSt7forwardIRKNSt7__cxx1112basic_stringIcSt11char_traitsIcESaIcEEEEOT_RNSt16remove_referenceIS8_E4typeE = comdat any

$_ZNSt11_Tuple_implILm0EJRKNSt7__cxx1112basic_stringIcSt11char_traitsIcESaIcEEEEE7_M_headERS8_ = comdat any

$_ZNSt10_Head_baseILm0ERKNSt7__cxx1112basic_stringIcSt11char_traitsIcESaIcEEELb0EEC2ES7_ = comdat any

$_ZNSt10_Head_baseILm0ERKNSt7__cxx1112basic_stringIcSt11char_traitsIcESaIcEEELb0EE7_M_headERS8_ = comdat any

$_ZNSt4pairIKNSt7__cxx1112basic_stringIcSt11char_traitsIcESaIcEEEiEC2IJRS6_EJLm0EEJEJEEERSt5tupleIJDpT_EERSA_IJDpT1_EESt12_Index_tupleIJXspT0_EEESJ_IJXspT2_EEE = comdat any

$_ZSt3getILm0EJRKNSt7__cxx1112basic_stringIcSt11char_traitsIcESaIcEEEEERNSt13tuple_elementIXT_ESt5tupleIJDpT0_EEE4typeERSC_ = comdat any

$_ZSt12__get_helperILm0ERKNSt7__cxx1112basic_stringIcSt11char_traitsIcESaIcEEEJEERT0_RSt11_Tuple_implIXT_EJS8_DpT1_EE = comdat any

$_ZNKSt23_Rb_tree_const_iteratorISt4pairIKNSt7__cxx1112basic_stringIcSt11char_traitsIcESaIcEEEiEE13_M_const_castEv = comdat any

$_ZNKSt8_Rb_treeINSt7__cxx1112basic_stringIcSt11char_traitsIcESaIcEEESt4pairIKS5_iESt10_Select1stIS8_ESt4lessIS5_ESaIS8_EE4sizeEv = comdat any

$_ZNSt8_Rb_treeINSt7__cxx1112basic_stringIcSt11char_traitsIcESaIcEEESt4pairIKS5_iESt10_Select1stIS8_ESt4lessIS5_ESaIS8_EE12_M_rightmostEv = comdat any

$_ZNSt4pairIPSt18_Rb_tree_node_baseS1_EC2IRS1_Lb1EEERKS1_OT_ = comdat any

$_ZNSt8_Rb_treeINSt7__cxx1112basic_stringIcSt11char_traitsIcESaIcEEESt4pairIKS5_iESt10_Select1stIS8_ESt4lessIS5_ESaIS8_EE24_M_get_insert_unique_posERS7_ = comdat any

$_ZNSt8_Rb_treeINSt7__cxx1112basic_stringIcSt11char_traitsIcESaIcEEESt4pairIKS5_iESt10_Select1stIS8_ESt4lessIS5_ESaIS8_EE11_M_leftmostEv = comdat any

$_ZNSt4pairIPSt18_Rb_tree_node_baseS1_EC2IRS1_S4_Lb1EEEOT_OT0_ = comdat any

$_ZNSt17_Rb_tree_iteratorISt4pairIKNSt7__cxx1112basic_stringIcSt11char_traitsIcESaIcEEEiEEmmEv = comdat any

$_ZNSt17_Rb_tree_iteratorISt4pairIKNSt7__cxx1112basic_stringIcSt11char_traitsIcESaIcEEEiEEppEv = comdat any

$_ZNSt4pairIPSt18_Rb_tree_node_baseS1_EC2IRS1_Lb1EEEOT_RKS1_ = comdat any

$_ZSt7forwardIRPSt18_Rb_tree_node_baseEOT_RNSt16remove_referenceIS3_E4typeE = comdat any

$_ZNSt8_Rb_treeINSt7__cxx1112basic_stringIcSt11char_traitsIcESaIcEEESt4pairIKS5_iESt10_Select1stIS8_ESt4lessIS5_ESaIS8_EE5beginEv = comdat any

$_ZNSt4pairIPSt18_Rb_tree_node_baseS1_EC2IRPSt13_Rb_tree_nodeIS_IKNSt7__cxx1112basic_stringIcSt11char_traitsIcESaIcEEEiEERS1_Lb1EEEOT_OT0_ = comdat any

$_ZSt7forwardIRPSt13_Rb_tree_nodeISt4pairIKNSt7__cxx1112basic_stringIcSt11char_traitsIcESaIcEEEiEEEOT_RNSt16remove_referenceISD_E4typeE = comdat any

$_ZNSt11_Tuple_implILm0EJRKNSt7__cxx1112basic_stringIcSt11char_traitsIcESaIcEEEEEC2ES7_ = comdat any

$_ZNSt16allocator_traitsISaINSt7__cxx1112basic_stringIcSt11char_traitsIcESaIcEEEEE9constructIS5_JRS5_EEEvRS6_PT_DpOT0_ = comdat any

$_ZSt7forwardIRNSt7__cxx1112basic_stringIcSt11char_traitsIcESaIcEEEEOT_RNSt16remove_referenceIS7_E4typeE = comdat any

$_ZNSt6vectorINSt7__cxx1112basic_stringIcSt11char_traitsIcESaIcEEESaIS5_EE17_M_realloc_insertIJRS5_EEEvN9__gnu_cxx17__normal_iteratorIPS5_S7_EEDpOT_ = comdat any

$_ZNSt6vectorINSt7__cxx1112basic_stringIcSt11char_traitsIcESaIcEEESaIS5_EE3endEv = comdat any

$_ZN9__gnu_cxx13new_allocatorINSt7__cxx1112basic_stringIcSt11char_traitsIcESaIcEEEE9constructIS6_JRS6_EEEvPT_DpOT0_ = comdat any

$_ZNKSt6vectorINSt7__cxx1112basic_stringIcSt11char_traitsIcESaIcEEESaIS5_EE12_M_check_lenEmPKc = comdat any

$_ZN9__gnu_cxxmiIPNSt7__cxx1112basic_stringIcSt11char_traitsIcESaIcEEESt6vectorIS6_SaIS6_EEEENS_17__normal_iteratorIT_T0_E15difference_typeERKSE_SH_ = comdat any

$_ZNSt6vectorINSt7__cxx1112basic_stringIcSt11char_traitsIcESaIcEEESaIS5_EE5beginEv = comdat any

$_ZSt34__uninitialized_move_if_noexcept_aIPNSt7__cxx1112basic_stringIcSt11char_traitsIcESaIcEEES6_SaIS5_EET0_T_S9_S8_RT1_ = comdat any

$_ZNK9__gnu_cxx17__normal_iteratorIPNSt7__cxx1112basic_stringIcSt11char_traitsIcESaIcEEESt6vectorIS6_SaIS6_EEE4baseEv = comdat any

$_ZNSt16allocator_traitsISaINSt7__cxx1112basic_stringIcSt11char_traitsIcESaIcEEEEE7destroyIS5_EEvRS6_PT_ = comdat any

$_ZNKSt6vectorINSt7__cxx1112basic_stringIcSt11char_traitsIcESaIcEEESaIS5_EE8max_sizeEv = comdat any

$_ZSt3maxImERKT_S2_S2_ = comdat any

$_ZNSt16allocator_traitsISaINSt7__cxx1112basic_stringIcSt11char_traitsIcESaIcEEEEE8max_sizeERKS6_ = comdat any

$_ZNKSt12_Vector_baseINSt7__cxx1112basic_stringIcSt11char_traitsIcESaIcEEESaIS5_EE19_M_get_Tp_allocatorEv = comdat any

$_ZN9__gnu_cxx17__normal_iteratorIPNSt7__cxx1112basic_stringIcSt11char_traitsIcESaIcEEESt6vectorIS6_SaIS6_EEEC2ERKS7_ = comdat any

$_ZSt22__uninitialized_copy_aISt13move_iteratorIPNSt7__cxx1112basic_stringIcSt11char_traitsIcESaIcEEEES7_S6_ET0_T_SA_S9_RSaIT1_E = comdat any

$_ZSt32__make_move_if_noexcept_iteratorINSt7__cxx1112basic_stringIcSt11char_traitsIcESaIcEEESt13move_iteratorIPS5_EET0_PT_ = comdat any

$_ZSt18uninitialized_copyISt13move_iteratorIPNSt7__cxx1112basic_stringIcSt11char_traitsIcESaIcEEEES7_ET0_T_SA_S9_ = comdat any

$_ZNSt20__uninitialized_copyILb0EE13__uninit_copyISt13move_iteratorIPNSt7__cxx1112basic_stringIcSt11char_traitsIcESaIcEEEES9_EET0_T_SC_SB_ = comdat any

$_ZStneIPNSt7__cxx1112basic_stringIcSt11char_traitsIcESaIcEEEEbRKSt13move_iteratorIT_ESB_ = comdat any

$_ZSt10_ConstructINSt7__cxx1112basic_stringIcSt11char_traitsIcESaIcEEEJS5_EEvPT_DpOT0_ = comdat any

$_ZNKSt13move_iteratorIPNSt7__cxx1112basic_stringIcSt11char_traitsIcESaIcEEEEdeEv = comdat any

$_ZNSt13move_iteratorIPNSt7__cxx1112basic_stringIcSt11char_traitsIcESaIcEEEEppEv = comdat any

$_ZSteqIPNSt7__cxx1112basic_stringIcSt11char_traitsIcESaIcEEEEbRKSt13move_iteratorIT_ESB_ = comdat any

$_ZNKSt13move_iteratorIPNSt7__cxx1112basic_stringIcSt11char_traitsIcESaIcEEEE4baseEv = comdat any

$_ZSt7forwardINSt7__cxx1112basic_stringIcSt11char_traitsIcESaIcEEEEOT_RNSt16remove_referenceIS6_E4typeE = comdat any

$_ZNSt13move_iteratorIPNSt7__cxx1112basic_stringIcSt11char_traitsIcESaIcEEEEC2ES6_ = comdat any

$_ZN9__gnu_cxx13new_allocatorINSt7__cxx1112basic_stringIcSt11char_traitsIcESaIcEEEE7destroyIS6_EEvPT_ = comdat any

$_ZNSt16allocator_traitsISaISt6vectorIiSaIiEEEE9constructIS2_JEEEvRS3_PT_DpOT0_ = comdat any

$_ZNSt6vectorIS_IiSaIiEESaIS1_EE17_M_realloc_insertIJEEEvN9__gnu_cxx17__normal_iteratorIPS1_S3_EEDpOT_ = comdat any

$_ZNSt6vectorIS_IiSaIiEESaIS1_EE3endEv = comdat any

$_ZN9__gnu_cxx13new_allocatorISt6vectorIiSaIiEEE9constructIS3_JEEEvPT_DpOT0_ = comdat any

$_ZNSt6vectorIiSaIiEEC2Ev = comdat any

$_ZNSt12_Vector_baseIiSaIiEEC2Ev = comdat any

$_ZNSt12_Vector_baseIiSaIiEE12_Vector_implC2Ev = comdat any

$_ZNSaIiEC2Ev = comdat any

$_ZN9__gnu_cxx13new_allocatorIiEC2Ev = comdat any

$_ZNKSt6vectorIS_IiSaIiEESaIS1_EE12_M_check_lenEmPKc = comdat any

$_ZN9__gnu_cxxmiIPSt6vectorIiSaIiEES1_IS3_SaIS3_EEEENS_17__normal_iteratorIT_T0_E15difference_typeERKSA_SD_ = comdat any

$_ZNSt6vectorIS_IiSaIiEESaIS1_EE5beginEv = comdat any

$_ZNSt12_Vector_baseISt6vectorIiSaIiEESaIS2_EE11_M_allocateEm = comdat any

$_ZSt34__uninitialized_move_if_noexcept_aIPSt6vectorIiSaIiEES3_SaIS2_EET0_T_S6_S5_RT1_ = comdat any

$_ZNK9__gnu_cxx17__normal_iteratorIPSt6vectorIiSaIiEES1_IS3_SaIS3_EEE4baseEv = comdat any

$_ZNSt16allocator_traitsISaISt6vectorIiSaIiEEEE7destroyIS2_EEvRS3_PT_ = comdat any

$_ZNKSt6vectorIS_IiSaIiEESaIS1_EE8max_sizeEv = comdat any

$_ZNKSt6vectorIS_IiSaIiEESaIS1_EE4sizeEv = comdat any

$_ZNSt16allocator_traitsISaISt6vectorIiSaIiEEEE8max_sizeERKS3_ = comdat any

$_ZNKSt12_Vector_baseISt6vectorIiSaIiEESaIS2_EE19_M_get_Tp_allocatorEv = comdat any

$_ZNK9__gnu_cxx13new_allocatorISt6vectorIiSaIiEEE8max_sizeEv = comdat any

$_ZN9__gnu_cxx17__normal_iteratorIPSt6vectorIiSaIiEES1_IS3_SaIS3_EEEC2ERKS4_ = comdat any

$_ZNSt16allocator_traitsISaISt6vectorIiSaIiEEEE8allocateERS3_m = comdat any

$_ZN9__gnu_cxx13new_allocatorISt6vectorIiSaIiEEE8allocateEmPKv = comdat any

$_ZSt22__uninitialized_copy_aISt13move_iteratorIPSt6vectorIiSaIiEEES4_S3_ET0_T_S7_S6_RSaIT1_E = comdat any

$_ZSt32__make_move_if_noexcept_iteratorISt6vectorIiSaIiEESt13move_iteratorIPS2_EET0_PT_ = comdat any

$_ZSt18uninitialized_copyISt13move_iteratorIPSt6vectorIiSaIiEEES4_ET0_T_S7_S6_ = comdat any

$_ZNSt20__uninitialized_copyILb0EE13__uninit_copyISt13move_iteratorIPSt6vectorIiSaIiEEES6_EET0_T_S9_S8_ = comdat any

$_ZStneIPSt6vectorIiSaIiEEEbRKSt13move_iteratorIT_ES8_ = comdat any

$_ZSt10_ConstructISt6vectorIiSaIiEEJS2_EEvPT_DpOT0_ = comdat any

$_ZNKSt13move_iteratorIPSt6vectorIiSaIiEEEdeEv = comdat any

$_ZNSt13move_iteratorIPSt6vectorIiSaIiEEEppEv = comdat any

$_ZSteqIPSt6vectorIiSaIiEEEbRKSt13move_iteratorIT_ES8_ = comdat any

$_ZNKSt13move_iteratorIPSt6vectorIiSaIiEEE4baseEv = comdat any

$_ZSt7forwardISt6vectorIiSaIiEEEOT_RNSt16remove_referenceIS3_E4typeE = comdat any

$_ZNSt6vectorIiSaIiEEC2EOS1_ = comdat any

$_ZSt4moveIRSt6vectorIiSaIiEEEONSt16remove_referenceIT_E4typeEOS5_ = comdat any

$_ZNSt12_Vector_baseIiSaIiEEC2EOS1_ = comdat any

$_ZSt4moveIRSaIiEEONSt16remove_referenceIT_E4typeEOS3_ = comdat any

$_ZNSt12_Vector_baseIiSaIiEE12_Vector_implC2EOS0_ = comdat any

$_ZNSt12_Vector_baseIiSaIiEE12_Vector_impl12_M_swap_dataERS2_ = comdat any

$_ZNSaIiEC2ERKS_ = comdat any

$_ZN9__gnu_cxx13new_allocatorIiEC2ERKS1_ = comdat any

$_ZSt4swapIPiENSt9enable_ifIXsr6__and_ISt6__not_ISt15__is_tuple_likeIT_EESt21is_move_constructibleIS4_ESt18is_move_assignableIS4_EEE5valueEvE4typeERS4_SD_ = comdat any

$_ZSt4moveIRPiEONSt16remove_referenceIT_E4typeEOS3_ = comdat any

$_ZNSt13move_iteratorIPSt6vectorIiSaIiEEEC2ES3_ = comdat any

$_ZN9__gnu_cxx13new_allocatorISt6vectorIiSaIiEEE7destroyIS3_EEvPT_ = comdat any

$_ZNSt16allocator_traitsISaIiEE9constructIiJRiEEEvRS0_PT_DpOT0_ = comdat any

$_ZSt7forwardIRiEOT_RNSt16remove_referenceIS1_E4typeE = comdat any

$_ZNSt6vectorIiSaIiEE17_M_realloc_insertIJRiEEEvN9__gnu_cxx17__normal_iteratorIPiS1_EEDpOT_ = comdat any

$_ZN9__gnu_cxx13new_allocatorIiE9constructIiJRiEEEvPT_DpOT0_ = comdat any

$_ZNKSt6vectorIiSaIiEE12_M_check_lenEmPKc = comdat any

$_ZN9__gnu_cxxmiIPiSt6vectorIiSaIiEEEENS_17__normal_iteratorIT_T0_E15difference_typeERKS8_SB_ = comdat any

$_ZNSt12_Vector_baseIiSaIiEE11_M_allocateEm = comdat any

$_ZSt34__uninitialized_move_if_noexcept_aIPiS0_SaIiEET0_T_S3_S2_RT1_ = comdat any

$_ZNK9__gnu_cxx17__normal_iteratorIPiSt6vectorIiSaIiEEE4baseEv = comdat any

$_ZNSt16allocator_traitsISaIiEE7destroyIiEEvRS0_PT_ = comdat any

$_ZNKSt6vectorIiSaIiEE8max_sizeEv = comdat any

$_ZNKSt6vectorIiSaIiEE4sizeEv = comdat any

$_ZNSt16allocator_traitsISaIiEE8max_sizeERKS0_ = comdat any

$_ZNKSt12_Vector_baseIiSaIiEE19_M_get_Tp_allocatorEv = comdat any

$_ZNK9__gnu_cxx13new_allocatorIiE8max_sizeEv = comdat any

$_ZNSt16allocator_traitsISaIiEE8allocateERS0_m = comdat any

$_ZN9__gnu_cxx13new_allocatorIiE8allocateEmPKv = comdat any

$_ZSt22__uninitialized_copy_aISt13move_iteratorIPiES1_iET0_T_S4_S3_RSaIT1_E = comdat any

$_ZSt32__make_move_if_noexcept_iteratorIiSt13move_iteratorIPiEET0_PT_ = comdat any

$_ZSt18uninitialized_copyISt13move_iteratorIPiES1_ET0_T_S4_S3_ = comdat any

$_ZNSt20__uninitialized_copyILb1EE13__uninit_copyISt13move_iteratorIPiES3_EET0_T_S6_S5_ = comdat any

$_ZSt4copyISt13move_iteratorIPiES1_ET0_T_S4_S3_ = comdat any

$_ZSt14__copy_move_a2ILb1EPiS0_ET1_T0_S2_S1_ = comdat any

$_ZSt12__miter_baseIPiEDTcl12__miter_basecldtfp_4baseEEESt13move_iteratorIT_E = comdat any

$_ZSt13__copy_move_aILb1EPiS0_ET1_T0_S2_S1_ = comdat any

$_ZNSt11__copy_moveILb1ELb1ESt26random_access_iterator_tagE8__copy_mIiEEPT_PKS3_S6_S4_ = comdat any

$_ZSt12__miter_baseIPiET_S1_ = comdat any

$_ZNKSt13move_iteratorIPiE4baseEv = comdat any

$_ZNSt13move_iteratorIPiEC2ES0_ = comdat any

$_ZN9__gnu_cxx13new_allocatorIiE7destroyIiEEvPT_ = comdat any

$_ZNSaIN11AhoCorasickILi26ELi97EE4NodeEEC2Ev = comdat any

$_ZNSt6vectorIN11AhoCorasickILi26ELi97EE4NodeESaIS2_EEC2EmRKS3_ = comdat any

$_ZNSaIN11AhoCorasickILi26ELi97EE4NodeEED2Ev = comdat any

$_ZN9__gnu_cxx13new_allocatorIN11AhoCorasickILi26ELi97EE4NodeEEC2Ev = comdat any

$_ZNSt12_Vector_baseIN11AhoCorasickILi26ELi97EE4NodeESaIS2_EEC2EmRKS3_ = comdat any

$_ZNSt6vectorIN11AhoCorasickILi26ELi97EE4NodeESaIS2_EE21_M_default_initializeEm = comdat any

$_ZNSt12_Vector_baseIN11AhoCorasickILi26ELi97EE4NodeESaIS2_EE12_Vector_implC2ERKS3_ = comdat any

$_ZNSt12_Vector_baseIN11AhoCorasickILi26ELi97EE4NodeESaIS2_EE17_M_create_storageEm = comdat any

$_ZNSaIN11AhoCorasickILi26ELi97EE4NodeEEC2ERKS2_ = comdat any

$_ZN9__gnu_cxx13new_allocatorIN11AhoCorasickILi26ELi97EE4NodeEEC2ERKS4_ = comdat any

$_ZNSt12_Vector_baseIN11AhoCorasickILi26ELi97EE4NodeESaIS2_EE11_M_allocateEm = comdat any

$_ZNSt16allocator_traitsISaIN11AhoCorasickILi26ELi97EE4NodeEEE8allocateERS3_m = comdat any

$_ZN9__gnu_cxx13new_allocatorIN11AhoCorasickILi26ELi97EE4NodeEE8allocateEmPKv = comdat any

$_ZNK9__gnu_cxx13new_allocatorIN11AhoCorasickILi26ELi97EE4NodeEE8max_sizeEv = comdat any

$_ZSt27__uninitialized_default_n_aIPN11AhoCorasickILi26ELi97EE4NodeEmS2_ET_S4_T0_RSaIT1_E = comdat any

$_ZSt25__uninitialized_default_nIPN11AhoCorasickILi26ELi97EE4NodeEmET_S4_T0_ = comdat any

$_ZNSt27__uninitialized_default_n_1ILb1EE18__uninit_default_nIPN11AhoCorasickILi26ELi97EE4NodeEmEET_S6_T0_ = comdat any

$_ZSt6fill_nIPN11AhoCorasickILi26ELi97EE4NodeEmS2_ET_S4_T0_RKT1_ = comdat any

$_ZSt10__fill_n_aIPN11AhoCorasickILi26ELi97EE4NodeEmS2_EN9__gnu_cxx11__enable_ifIXntsr11__is_scalarIT1_EE7__valueET_E6__typeES7_T0_RKS6_ = comdat any

$_ZSt12__niter_baseIPN11AhoCorasickILi26ELi97EE4NodeEET_S4_ = comdat any

$_ZNSt5arrayIiLm26EEixEm = comdat any

$_ZNSt6vectorIN11AhoCorasickILi26ELi97EE4NodeESaIS2_EE12emplace_backIJEEEvDpOT_ = comdat any

$_ZNSt14__array_traitsIiLm26EE6_S_refERA26_Kim = comdat any

$_ZNSt16allocator_traitsISaIN11AhoCorasickILi26ELi97EE4NodeEEE9constructIS2_JEEEvRS3_PT_DpOT0_ = comdat any

$_ZNSt6vectorIN11AhoCorasickILi26ELi97EE4NodeESaIS2_EE17_M_realloc_insertIJEEEvN9__gnu_cxx17__normal_iteratorIPS2_S4_EEDpOT_ = comdat any

$_ZNSt6vectorIN11AhoCorasickILi26ELi97EE4NodeESaIS2_EE3endEv = comdat any

$_ZN9__gnu_cxx13new_allocatorIN11AhoCorasickILi26ELi97EE4NodeEE9constructIS3_JEEEvPT_DpOT0_ = comdat any

$_ZNKSt6vectorIN11AhoCorasickILi26ELi97EE4NodeESaIS2_EE12_M_check_lenEmPKc = comdat any

$_ZN9__gnu_cxxmiIPN11AhoCorasickILi26ELi97EE4NodeESt6vectorIS3_SaIS3_EEEENS_17__normal_iteratorIT_T0_E15difference_typeERKSB_SE_ = comdat any

$_ZNSt6vectorIN11AhoCorasickILi26ELi97EE4NodeESaIS2_EE5beginEv = comdat any

$_ZSt34__uninitialized_move_if_noexcept_aIPN11AhoCorasickILi26ELi97EE4NodeES3_SaIS2_EET0_T_S6_S5_RT1_ = comdat any

$_ZNK9__gnu_cxx17__normal_iteratorIPN11AhoCorasickILi26ELi97EE4NodeESt6vectorIS3_SaIS3_EEE4baseEv = comdat any

$_ZNSt16allocator_traitsISaIN11AhoCorasickILi26ELi97EE4NodeEEE7destroyIS2_EEvRS3_PT_ = comdat any

$_ZNKSt6vectorIN11AhoCorasickILi26ELi97EE4NodeESaIS2_EE8max_sizeEv = comdat any

$_ZNSt16allocator_traitsISaIN11AhoCorasickILi26ELi97EE4NodeEEE8max_sizeERKS3_ = comdat any

$_ZNKSt12_Vector_baseIN11AhoCorasickILi26ELi97EE4NodeESaIS2_EE19_M_get_Tp_allocatorEv = comdat any

$_ZN9__gnu_cxx17__normal_iteratorIPN11AhoCorasickILi26ELi97EE4NodeESt6vectorIS3_SaIS3_EEEC2ERKS4_ = comdat any

$_ZSt22__uninitialized_copy_aISt13move_iteratorIPN11AhoCorasickILi26ELi97EE4NodeEES4_S3_ET0_T_S7_S6_RSaIT1_E = comdat any

$_ZSt32__make_move_if_noexcept_iteratorIN11AhoCorasickILi26ELi97EE4NodeESt13move_iteratorIPS2_EET0_PT_ = comdat any

$_ZSt18uninitialized_copyISt13move_iteratorIPN11AhoCorasickILi26ELi97EE4NodeEES4_ET0_T_S7_S6_ = comdat any

$_ZNSt20__uninitialized_copyILb1EE13__uninit_copyISt13move_iteratorIPN11AhoCorasickILi26ELi97EE4NodeEES6_EET0_T_S9_S8_ = comdat any

$_ZSt4copyISt13move_iteratorIPN11AhoCorasickILi26ELi97EE4NodeEES4_ET0_T_S7_S6_ = comdat any

$_ZSt14__copy_move_a2ILb1EPN11AhoCorasickILi26ELi97EE4NodeES3_ET1_T0_S5_S4_ = comdat any

$_ZSt12__miter_baseIPN11AhoCorasickILi26ELi97EE4NodeEEDTcl12__miter_basecldtfp_4baseEEESt13move_iteratorIT_E = comdat any

$_ZSt13__copy_move_aILb1EPN11AhoCorasickILi26ELi97EE4NodeES3_ET1_T0_S5_S4_ = comdat any

$_ZNSt11__copy_moveILb1ELb1ESt26random_access_iterator_tagE8__copy_mIN11AhoCorasickILi26ELi97EE4NodeEEEPT_PKS6_S9_S7_ = comdat any

$_ZSt12__miter_baseIPN11AhoCorasickILi26ELi97EE4NodeEET_S4_ = comdat any

$_ZNKSt13move_iteratorIPN11AhoCorasickILi26ELi97EE4NodeEE4baseEv = comdat any

$_ZNSt13move_iteratorIPN11AhoCorasickILi26ELi97EE4NodeEEC2ES3_ = comdat any

$_ZN9__gnu_cxx13new_allocatorIN11AhoCorasickILi26ELi97EE4NodeEE7destroyIS3_EEvPT_ = comdat any

$_ZNSt6vectorIiSaIiEE5clearEv = comdat any

$_ZNSt6vectorIiSaIiEE7reserveEm = comdat any

$_ZNSt6vectorIiSaIiEE12emplace_backIJiEEEvDpOT_ = comdat any

$_ZNSt6vectorIiSaIiEEixEm = comdat any

$_ZNSt6vectorIiSaIiEE15_M_erase_at_endEPi = comdat any

$_ZNKSt6vectorIiSaIiEE8capacityEv = comdat any

$_ZNSt6vectorIiSaIiEE20_M_allocate_and_copyISt13move_iteratorIPiEEES4_mT_S6_ = comdat any

$_ZNSt16allocator_traitsISaIiEE9constructIiJiEEEvRS0_PT_DpOT0_ = comdat any

$_ZSt7forwardIiEOT_RNSt16remove_referenceIS0_E4typeE = comdat any

$_ZNSt6vectorIiSaIiEE17_M_realloc_insertIJiEEEvN9__gnu_cxx17__normal_iteratorIPiS1_EEDpOT_ = comdat any

$_ZN9__gnu_cxx13new_allocatorIiE9constructIiJiEEEvPT_DpOT0_ = comdat any

$_ZN9__gnu_cxx17__normal_iteratorIPiSt6vectorIiSaIiEEEC2ERKS1_ = comdat any

$_ZNK9__gnu_cxx17__normal_iteratorIPcNSt7__cxx1112basic_stringIcSt11char_traitsIcESaIcEEEE4baseEv = comdat any

@_ZStL8__ioinit = internal global %"class.std::ios_base::Init" zeroinitializer, align 1
@__dso_handle = external hidden global i8
@dp = global [32 x [501 x [601 x [2 x %struct.modint]]]] zeroinitializer, align 16
@to = global [601 x [501 x i32]] zeroinitializer, align 16
@to2 = global [601 x [501 x i32]] zeroinitializer, align 16
@dp0 = global [601 x i32] zeroinitializer, align 16
@_ZSt3cin = external global %"class.std::basic_istream", align 8
@_ZSt4cout = external global %"class.std::basic_ostream", align 8
@.str = private unnamed_addr constant [2 x i8] c"\0A\00", align 1
@_ZStL19piecewise_construct = internal constant %"struct.std::piecewise_construct_t" undef, align 1
@.str.2 = private unnamed_addr constant [26 x i8] c"vector::_M_realloc_insert\00", align 1
@.str.3 = private unnamed_addr constant [16 x i8] c"vector::reserve\00", align 1
@llvm.global_ctors = appending global [1 x { i32, void ()*, i8* }] [{ i32, void ()*, i8* } { i32 65535, void ()* @_GLOBAL__sub_I_s180058997.cpp, i8* null }]

; Function Attrs: noinline uwtable
define internal void @__cxx_global_var_init() #0 section ".text.startup" {
  call void @_ZNSt8ios_base4InitC1Ev(%"class.std::ios_base::Init"* @_ZStL8__ioinit)
  %1 = call i32 @__cxa_atexit(void (i8*)* bitcast (void (%"class.std::ios_base::Init"*)* @_ZNSt8ios_base4InitD1Ev to void (i8*)*), i8* getelementptr inbounds (%"class.std::ios_base::Init", %"class.std::ios_base::Init"* @_ZStL8__ioinit, i32 0, i32 0), i8* @__dso_handle) #3
  ret void
}

declare void @_ZNSt8ios_base4InitC1Ev(%"class.std::ios_base::Init"*) unnamed_addr #1

; Function Attrs: nounwind
declare void @_ZNSt8ios_base4InitD1Ev(%"class.std::ios_base::Init"*) unnamed_addr #2

; Function Attrs: nounwind
declare i32 @__cxa_atexit(void (i8*)*, i8*, i8*) #3

; Function Attrs: noinline uwtable
define internal void @__cxx_global_var_init.1() #0 section ".text.startup" {
  br label %1

1:                                                ; preds = %1, %0
  %2 = phi %struct.modint* [ getelementptr inbounds ([32 x [501 x [601 x [2 x %struct.modint]]]], [32 x [501 x [601 x [2 x %struct.modint]]]]* @dp, i32 0, i32 0, i32 0, i32 0, i32 0), %0 ], [ %3, %1 ]
  call void @_ZN6modintILj1000000007EEC2Ev(%struct.modint* %2)
  %3 = getelementptr inbounds %struct.modint, %struct.modint* %2, i64 1
  %4 = icmp eq %struct.modint* %3, getelementptr inbounds ([32 x [501 x [601 x [2 x %struct.modint]]]], [32 x [501 x [601 x [2 x %struct.modint]]]]* @dp, i64 1, i64 0, i64 0, i64 0, i64 0)
  br i1 %4, label %5, label %1

5:                                                ; preds = %1
  ret void
}

; Function Attrs: noinline nounwind uwtable
define linkonce_odr void @_ZN6modintILj1000000007EEC2Ev(%struct.modint* %0) unnamed_addr #4 comdat align 2 {
  %2 = getelementptr inbounds %struct.modint, %struct.modint* %0, i32 0, i32 0
  store i32 0, i32* %2, align 4
  ret void
}

; Function Attrs: noinline uwtable
define void @_Z5solveiii(i32 %0, i32 %1, i32 %2) #0 personality i8* bitcast (i32 (...)* @__gxx_personality_v0 to i8*) {
  %4 = alloca %"class.std::vector", align 8
  %5 = alloca %"class.std::vector.3", align 8
  %6 = alloca i32, align 4
  %7 = alloca %"class.std::vector", align 8
  %8 = alloca %"class.std::allocator", align 1
  %9 = alloca %"class.std::map", align 8
  %10 = alloca %"class.std::__cxx11::basic_string", align 8
  %11 = alloca %"class.std::__cxx11::basic_string", align 8
  %12 = alloca %class.AhoCorasick, align 8
  %13 = alloca %"class.__gnu_cxx::__normal_iterator", align 8
  %14 = alloca %"class.__gnu_cxx::__normal_iterator", align 8
  %15 = alloca %"class.__gnu_cxx::__normal_iterator.21", align 8
  %16 = alloca %"class.__gnu_cxx::__normal_iterator.21", align 8
  %17 = alloca %struct.modint, align 4
  %18 = alloca %"class.__gnu_cxx::__normal_iterator", align 8
  %19 = alloca %"class.__gnu_cxx::__normal_iterator", align 8
  %20 = alloca %struct.modint, align 4
  %21 = alloca %struct.modint, align 4
  %22 = alloca %struct.modint, align 4
  call void @_ZNSt6vectorINSt7__cxx1112basic_stringIcSt11char_traitsIcESaIcEEESaIS5_EEC2Ev(%"class.std::vector"* %4) #3
  call void @_ZNSt6vectorIS_IiSaIiEESaIS1_EEC2Ev(%"class.std::vector.3"* %5) #3
  store i32 0, i32* %6, align 4
  invoke void @_ZSt4fillIPiiEvT_S1_RKT0_(i32* getelementptr inbounds ([601 x i32], [601 x i32]* @dp0, i32 0, i32 0), i32* getelementptr inbounds ([601 x i32], [601 x i32]* @dp0, i64 1, i64 0), i32* dereferenceable(4) %6)
          to label %23 unwind label %42

23:                                               ; preds = %3
  %24 = sext i32 %2 to i64
  call void @_ZNSaINSt7__cxx1112basic_stringIcSt11char_traitsIcESaIcEEEEC2Ev(%"class.std::allocator"* %8) #3
  invoke void @_ZNSt6vectorINSt7__cxx1112basic_stringIcSt11char_traitsIcESaIcEEESaIS5_EEC2EmRKS6_(%"class.std::vector"* %7, i64 %24, %"class.std::allocator"* dereferenceable(1) %8)
          to label %25 unwind label %46

25:                                               ; preds = %23
  call void @_ZNSaINSt7__cxx1112basic_stringIcSt11char_traitsIcESaIcEEEED2Ev(%"class.std::allocator"* %8) #3
  call void @_ZNSt3mapINSt7__cxx1112basic_stringIcSt11char_traitsIcESaIcEEEiSt4lessIS5_ESaISt4pairIKS5_iEEEC2Ev(%"class.std::map"* %9) #3
  br label %26

26:                                               ; preds = %73, %25
  %.09 = phi i32 [ 0, %25 ], [ %74, %73 ]
  %.06 = phi i32 [ 0, %25 ], [ %.28, %73 ]
  %27 = icmp slt i32 %.09, %0
  br i1 %27, label %28, label %75

28:                                               ; preds = %26
  call void @_ZNSt7__cxx1112basic_stringIcSt11char_traitsIcESaIcEEC1Ev(%"class.std::__cxx11::basic_string"* %10) #3
  call void @_ZNSt7__cxx1112basic_stringIcSt11char_traitsIcESaIcEEC1Ev(%"class.std::__cxx11::basic_string"* %11) #3
  %29 = invoke dereferenceable(280) %"class.std::basic_istream"* @_ZStrsIcSt11char_traitsIcESaIcEERSt13basic_istreamIT_T0_ES7_RNSt7__cxx1112basic_stringIS4_S5_T1_EE(%"class.std::basic_istream"* dereferenceable(280) @_ZSt3cin, %"class.std::__cxx11::basic_string"* dereferenceable(32) %10)
          to label %30 unwind label %50

30:                                               ; preds = %28
  %31 = invoke dereferenceable(280) %"class.std::basic_istream"* @_ZStrsIcSt11char_traitsIcESaIcEERSt13basic_istreamIT_T0_ES7_RNSt7__cxx1112basic_stringIS4_S5_T1_EE(%"class.std::basic_istream"* dereferenceable(280) %29, %"class.std::__cxx11::basic_string"* dereferenceable(32) %11)
          to label %32 unwind label %50

32:                                               ; preds = %30
  %33 = invoke i64 @_ZNKSt3mapINSt7__cxx1112basic_stringIcSt11char_traitsIcESaIcEEEiSt4lessIS5_ESaISt4pairIKS5_iEEE5countERS9_(%"class.std::map"* %9, %"class.std::__cxx11::basic_string"* dereferenceable(32) %10)
          to label %34 unwind label %50

34:                                               ; preds = %32
  %35 = icmp ne i64 %33, 0
  br i1 %35, label %54, label %36

36:                                               ; preds = %34
  %37 = add nsw i32 %.06, 1
  %38 = invoke dereferenceable(4) i32* @_ZNSt3mapINSt7__cxx1112basic_stringIcSt11char_traitsIcESaIcEEEiSt4lessIS5_ESaISt4pairIKS5_iEEEixERS9_(%"class.std::map"* %9, %"class.std::__cxx11::basic_string"* dereferenceable(32) %10)
          to label %39 unwind label %50

39:                                               ; preds = %36
  store i32 %.06, i32* %38, align 4
  invoke void @_ZNSt6vectorINSt7__cxx1112basic_stringIcSt11char_traitsIcESaIcEEESaIS5_EE12emplace_backIJRS5_EEEvDpOT_(%"class.std::vector"* %4, %"class.std::__cxx11::basic_string"* dereferenceable(32) %10)
          to label %40 unwind label %50

40:                                               ; preds = %39
  invoke void @_ZNSt6vectorIS_IiSaIiEESaIS1_EE12emplace_backIJEEEvDpOT_(%"class.std::vector.3"* %5)
          to label %41 unwind label %50

41:                                               ; preds = %40
  br label %54

42:                                               ; preds = %3
  %43 = landingpad { i8*, i32 }
          cleanup
  %44 = extractvalue { i8*, i32 } %43, 0
  %45 = extractvalue { i8*, i32 } %43, 1
  br label %437

46:                                               ; preds = %23
  %47 = landingpad { i8*, i32 }
          cleanup
  %48 = extractvalue { i8*, i32 } %47, 0
  %49 = extractvalue { i8*, i32 } %47, 1
  call void @_ZNSaINSt7__cxx1112basic_stringIcSt11char_traitsIcESaIcEEEED2Ev(%"class.std::allocator"* %8) #3
  br label %437

50:                                               ; preds = %71, %66, %64, %62, %61, %58, %54, %40, %39, %36, %32, %30, %28
  %51 = landingpad { i8*, i32 }
          cleanup
  %52 = extractvalue { i8*, i32 } %51, 0
  %53 = extractvalue { i8*, i32 } %51, 1
  call void @_ZNSt7__cxx1112basic_stringIcSt11char_traitsIcESaIcEED1Ev(%"class.std::__cxx11::basic_string"* %11) #3
  call void @_ZNSt7__cxx1112basic_stringIcSt11char_traitsIcESaIcEED1Ev(%"class.std::__cxx11::basic_string"* %10) #3
  br label %222

54:                                               ; preds = %41, %34
  %.17 = phi i32 [ %.06, %34 ], [ %37, %41 ]
  %55 = invoke i64 @_ZNKSt3mapINSt7__cxx1112basic_stringIcSt11char_traitsIcESaIcEEEiSt4lessIS5_ESaISt4pairIKS5_iEEE5countERS9_(%"class.std::map"* %9, %"class.std::__cxx11::basic_string"* dereferenceable(32) %11)
          to label %56 unwind label %50

56:                                               ; preds = %54
  %57 = icmp ne i64 %55, 0
  br i1 %57, label %64, label %58

58:                                               ; preds = %56
  %59 = add nsw i32 %.17, 1
  %60 = invoke dereferenceable(4) i32* @_ZNSt3mapINSt7__cxx1112basic_stringIcSt11char_traitsIcESaIcEEEiSt4lessIS5_ESaISt4pairIKS5_iEEEixERS9_(%"class.std::map"* %9, %"class.std::__cxx11::basic_string"* dereferenceable(32) %11)
          to label %61 unwind label %50

61:                                               ; preds = %58
  store i32 %.17, i32* %60, align 4
  invoke void @_ZNSt6vectorINSt7__cxx1112basic_stringIcSt11char_traitsIcESaIcEEESaIS5_EE12emplace_backIJRS5_EEEvDpOT_(%"class.std::vector"* %4, %"class.std::__cxx11::basic_string"* dereferenceable(32) %11)
          to label %62 unwind label %50

62:                                               ; preds = %61
  invoke void @_ZNSt6vectorIS_IiSaIiEESaIS1_EE12emplace_backIJEEEvDpOT_(%"class.std::vector.3"* %5)
          to label %63 unwind label %50

63:                                               ; preds = %62
  br label %64

64:                                               ; preds = %63, %56
  %.28 = phi i32 [ %.17, %56 ], [ %59, %63 ]
  %65 = invoke dereferenceable(4) i32* @_ZNSt3mapINSt7__cxx1112basic_stringIcSt11char_traitsIcESaIcEEEiSt4lessIS5_ESaISt4pairIKS5_iEEEixERS9_(%"class.std::map"* %9, %"class.std::__cxx11::basic_string"* dereferenceable(32) %10)
          to label %66 unwind label %50

66:                                               ; preds = %64
  %67 = load i32, i32* %65, align 4
  %68 = sext i32 %67 to i64
  %69 = call dereferenceable(24) %"class.std::vector.8"* @_ZNSt6vectorIS_IiSaIiEESaIS1_EEixEm(%"class.std::vector.3"* %5, i64 %68) #3
  %70 = invoke dereferenceable(4) i32* @_ZNSt3mapINSt7__cxx1112basic_stringIcSt11char_traitsIcESaIcEEEiSt4lessIS5_ESaISt4pairIKS5_iEEEixERS9_(%"class.std::map"* %9, %"class.std::__cxx11::basic_string"* dereferenceable(32) %11)
          to label %71 unwind label %50

71:                                               ; preds = %66
  invoke void @_ZNSt6vectorIiSaIiEE12emplace_backIJRiEEEvDpOT_(%"class.std::vector.8"* %69, i32* dereferenceable(4) %70)
          to label %72 unwind label %50

72:                                               ; preds = %71
  call void @_ZNSt7__cxx1112basic_stringIcSt11char_traitsIcESaIcEED1Ev(%"class.std::__cxx11::basic_string"* %11) #3
  call void @_ZNSt7__cxx1112basic_stringIcSt11char_traitsIcESaIcEED1Ev(%"class.std::__cxx11::basic_string"* %10) #3
  br label %73

73:                                               ; preds = %72
  %74 = add nsw i32 %.09, 1
  br label %26

75:                                               ; preds = %26
  %76 = call i64 @_ZNKSt6vectorINSt7__cxx1112basic_stringIcSt11char_traitsIcESaIcEEESaIS5_EE4sizeEv(%"class.std::vector"* %4) #3
  %77 = trunc i64 %76 to i32
  invoke void @_ZN11AhoCorasickILi26ELi97EEC2Ev(%class.AhoCorasick* %12)
          to label %78 unwind label %96

78:                                               ; preds = %75
  br label %79

79:                                               ; preds = %94, %78
  %.010 = phi i32 [ 0, %78 ], [ %95, %94 ]
  %80 = icmp slt i32 %.010, %2
  br i1 %80, label %81, label %104

81:                                               ; preds = %79
  %82 = sext i32 %.010 to i64
  %83 = call dereferenceable(32) %"class.std::__cxx11::basic_string"* @_ZNSt6vectorINSt7__cxx1112basic_stringIcSt11char_traitsIcESaIcEEESaIS5_EEixEm(%"class.std::vector"* %7, i64 %82) #3
  %84 = invoke dereferenceable(280) %"class.std::basic_istream"* @_ZStrsIcSt11char_traitsIcESaIcEERSt13basic_istreamIT_T0_ES7_RNSt7__cxx1112basic_stringIS4_S5_T1_EE(%"class.std::basic_istream"* dereferenceable(280) @_ZSt3cin, %"class.std::__cxx11::basic_string"* dereferenceable(32) %83)
          to label %85 unwind label %100

85:                                               ; preds = %81
  %86 = sext i32 %.010 to i64
  %87 = call dereferenceable(32) %"class.std::__cxx11::basic_string"* @_ZNSt6vectorINSt7__cxx1112basic_stringIcSt11char_traitsIcESaIcEEESaIS5_EEixEm(%"class.std::vector"* %7, i64 %86) #3
  %88 = invoke i32 @_ZN11AhoCorasickILi26ELi97EE3addERNSt7__cxx1112basic_stringIcSt11char_traitsIcESaIcEEEi(%class.AhoCorasick* %12, %"class.std::__cxx11::basic_string"* dereferenceable(32) %87, i32 0)
          to label %89 unwind label %100

89:                                               ; preds = %85
  %90 = sext i32 %88 to i64
  %91 = getelementptr inbounds [601 x i32], [601 x i32]* @dp0, i64 0, i64 %90
  %92 = load i32, i32* %91, align 4
  %93 = add nsw i32 %92, 1
  store i32 %93, i32* %91, align 4
  br label %94

94:                                               ; preds = %89
  %95 = add nsw i32 %.010, 1
  br label %79

96:                                               ; preds = %75
  %97 = landingpad { i8*, i32 }
          cleanup
  %98 = extractvalue { i8*, i32 } %97, 0
  %99 = extractvalue { i8*, i32 } %97, 1
  br label %222

100:                                              ; preds = %161, %104, %85, %81
  %101 = landingpad { i8*, i32 }
          cleanup
  %102 = extractvalue { i8*, i32 } %101, 0
  %103 = extractvalue { i8*, i32 } %101, 1
  call void @_ZN11AhoCorasickILi26ELi97EED2Ev(%class.AhoCorasick* %12) #3
  br label %222

104:                                              ; preds = %79
  invoke void @_ZN11AhoCorasickILi26ELi97EE5buildEv(%class.AhoCorasick* %12)
          to label %105 unwind label %100

105:                                              ; preds = %104
  %106 = getelementptr inbounds %class.AhoCorasick, %class.AhoCorasick* %12, i32 0, i32 1
  %107 = call i32* @_ZNSt6vectorIiSaIiEE5beginEv(%"class.std::vector.8"* %106) #3
  %108 = getelementptr inbounds %"class.__gnu_cxx::__normal_iterator", %"class.__gnu_cxx::__normal_iterator"* %13, i32 0, i32 0
  store i32* %107, i32** %108, align 8
  %109 = call i32* @_ZNSt6vectorIiSaIiEE3endEv(%"class.std::vector.8"* %106) #3
  %110 = getelementptr inbounds %"class.__gnu_cxx::__normal_iterator", %"class.__gnu_cxx::__normal_iterator"* %14, i32 0, i32 0
  store i32* %109, i32** %110, align 8
  br label %111

111:                                              ; preds = %133, %105
  %112 = call zeroext i1 @_ZN9__gnu_cxxneIPiSt6vectorIiSaIiEEEEbRKNS_17__normal_iteratorIT_T0_EESA_(%"class.__gnu_cxx::__normal_iterator"* dereferenceable(8) %13, %"class.__gnu_cxx::__normal_iterator"* dereferenceable(8) %14) #3
  br i1 %112, label %113, label %135

113:                                              ; preds = %111
  %114 = call dereferenceable(4) i32* @_ZNK9__gnu_cxx17__normal_iteratorIPiSt6vectorIiSaIiEEEdeEv(%"class.__gnu_cxx::__normal_iterator"* %13) #3
  %115 = load i32, i32* %114, align 4
  %116 = icmp ne i32 %115, 0
  br i1 %116, label %117, label %132

117:                                              ; preds = %113
  %118 = getelementptr inbounds %class.AhoCorasick, %class.AhoCorasick* %12, i32 0, i32 0
  %119 = load i32, i32* %114, align 4
  %120 = sext i32 %119 to i64
  %121 = call dereferenceable(108) %"struct.AhoCorasick<26, 97>::Node"* @_ZNSt6vectorIN11AhoCorasickILi26ELi97EE4NodeESaIS2_EEixEm(%"class.std::vector.16"* %118, i64 %120) #3
  %122 = getelementptr inbounds %"struct.AhoCorasick<26, 97>::Node", %"struct.AhoCorasick<26, 97>::Node"* %121, i32 0, i32 1
  %123 = load i32, i32* %122, align 4
  %124 = sext i32 %123 to i64
  %125 = getelementptr inbounds [601 x i32], [601 x i32]* @dp0, i64 0, i64 %124
  %126 = load i32, i32* %125, align 4
  %127 = load i32, i32* %114, align 4
  %128 = sext i32 %127 to i64
  %129 = getelementptr inbounds [601 x i32], [601 x i32]* @dp0, i64 0, i64 %128
  %130 = load i32, i32* %129, align 4
  %131 = add nsw i32 %130, %126
  store i32 %131, i32* %129, align 4
  br label %132

132:                                              ; preds = %117, %113
  br label %133

133:                                              ; preds = %132
  %134 = call dereferenceable(8) %"class.__gnu_cxx::__normal_iterator"* @_ZN9__gnu_cxx17__normal_iteratorIPiSt6vectorIiSaIiEEEppEv(%"class.__gnu_cxx::__normal_iterator"* %13) #3
  br label %111

135:                                              ; preds = %111
  %136 = getelementptr inbounds %class.AhoCorasick, %class.AhoCorasick* %12, i32 0, i32 0
  %137 = call i64 @_ZNKSt6vectorIN11AhoCorasickILi26ELi97EE4NodeESaIS2_EE4sizeEv(%"class.std::vector.16"* %136) #3
  %138 = trunc i64 %137 to i32
  br label %139

139:                                              ; preds = %195, %135
  %.013 = phi i32 [ 0, %135 ], [ %196, %195 ]
  %140 = icmp slt i32 %.013, %138
  br i1 %140, label %141, label %197

141:                                              ; preds = %139
  br label %142

142:                                              ; preds = %192, %141
  %.014 = phi i32 [ 0, %141 ], [ %193, %192 ]
  %143 = icmp slt i32 %.014, %77
  br i1 %143, label %144, label %194

144:                                              ; preds = %142
  %145 = sext i32 %.013 to i64
  %146 = getelementptr inbounds [601 x [501 x i32]], [601 x [501 x i32]]* @to, i64 0, i64 %145
  %147 = sext i32 %.014 to i64
  %148 = getelementptr inbounds [501 x i32], [501 x i32]* %146, i64 0, i64 %147
  store i32 %.013, i32* %148, align 4
  %149 = sext i32 %.013 to i64
  %150 = getelementptr inbounds [601 x [501 x i32]], [601 x [501 x i32]]* @to2, i64 0, i64 %149
  %151 = sext i32 %.014 to i64
  %152 = getelementptr inbounds [501 x i32], [501 x i32]* %150, i64 0, i64 %151
  store i32 0, i32* %152, align 4
  %153 = sext i32 %.014 to i64
  %154 = call dereferenceable(32) %"class.std::__cxx11::basic_string"* @_ZNSt6vectorINSt7__cxx1112basic_stringIcSt11char_traitsIcESaIcEEESaIS5_EEixEm(%"class.std::vector"* %4, i64 %153) #3
  %155 = call i8* @_ZNSt7__cxx1112basic_stringIcSt11char_traitsIcESaIcEE5beginEv(%"class.std::__cxx11::basic_string"* %154) #3
  %156 = getelementptr inbounds %"class.__gnu_cxx::__normal_iterator.21", %"class.__gnu_cxx::__normal_iterator.21"* %15, i32 0, i32 0
  store i8* %155, i8** %156, align 8
  %157 = call i8* @_ZNSt7__cxx1112basic_stringIcSt11char_traitsIcESaIcEE3endEv(%"class.std::__cxx11::basic_string"* %154) #3
  %158 = getelementptr inbounds %"class.__gnu_cxx::__normal_iterator.21", %"class.__gnu_cxx::__normal_iterator.21"* %16, i32 0, i32 0
  store i8* %157, i8** %158, align 8
  br label %159

159:                                              ; preds = %189, %144
  %160 = call zeroext i1 @_ZN9__gnu_cxxneIPcNSt7__cxx1112basic_stringIcSt11char_traitsIcESaIcEEEEEbRKNS_17__normal_iteratorIT_T0_EESD_(%"class.__gnu_cxx::__normal_iterator.21"* dereferenceable(8) %15, %"class.__gnu_cxx::__normal_iterator.21"* dereferenceable(8) %16) #3
  br i1 %160, label %161, label %191

161:                                              ; preds = %159
  %162 = call dereferenceable(1) i8* @_ZNK9__gnu_cxx17__normal_iteratorIPcNSt7__cxx1112basic_stringIcSt11char_traitsIcESaIcEEEEdeEv(%"class.__gnu_cxx::__normal_iterator.21"* %15) #3
  %163 = sext i32 %.013 to i64
  %164 = getelementptr inbounds [601 x [501 x i32]], [601 x [501 x i32]]* @to, i64 0, i64 %163
  %165 = sext i32 %.014 to i64
  %166 = getelementptr inbounds [501 x i32], [501 x i32]* %164, i64 0, i64 %165
  %167 = load i32, i32* %166, align 4
  %168 = load i8, i8* %162, align 1
  %169 = invoke i32 @_ZN11AhoCorasickILi26ELi97EE4nextEic(%class.AhoCorasick* %12, i32 %167, i8 signext %168)
          to label %170 unwind label %100

170:                                              ; preds = %161
  %171 = sext i32 %.013 to i64
  %172 = getelementptr inbounds [601 x [501 x i32]], [601 x [501 x i32]]* @to, i64 0, i64 %171
  %173 = sext i32 %.014 to i64
  %174 = getelementptr inbounds [501 x i32], [501 x i32]* %172, i64 0, i64 %173
  store i32 %169, i32* %174, align 4
  %175 = sext i32 %.013 to i64
  %176 = getelementptr inbounds [601 x [501 x i32]], [601 x [501 x i32]]* @to, i64 0, i64 %175
  %177 = sext i32 %.014 to i64
  %178 = getelementptr inbounds [501 x i32], [501 x i32]* %176, i64 0, i64 %177
  %179 = load i32, i32* %178, align 4
  %180 = sext i32 %179 to i64
  %181 = getelementptr inbounds [601 x i32], [601 x i32]* @dp0, i64 0, i64 %180
  %182 = load i32, i32* %181, align 4
  %183 = sext i32 %.013 to i64
  %184 = getelementptr inbounds [601 x [501 x i32]], [601 x [501 x i32]]* @to2, i64 0, i64 %183
  %185 = sext i32 %.014 to i64
  %186 = getelementptr inbounds [501 x i32], [501 x i32]* %184, i64 0, i64 %185
  %187 = load i32, i32* %186, align 4
  %188 = add nsw i32 %187, %182
  store i32 %188, i32* %186, align 4
  br label %189

189:                                              ; preds = %170
  %190 = call dereferenceable(8) %"class.__gnu_cxx::__normal_iterator.21"* @_ZN9__gnu_cxx17__normal_iteratorIPcNSt7__cxx1112basic_stringIcSt11char_traitsIcESaIcEEEEppEv(%"class.__gnu_cxx::__normal_iterator.21"* %15) #3
  br label %159

191:                                              ; preds = %159
  br label %192

192:                                              ; preds = %191
  %193 = add nsw i32 %.014, 1
  br label %142

194:                                              ; preds = %142
  br label %195

195:                                              ; preds = %194
  %196 = add nsw i32 %.013, 1
  br label %139

197:                                              ; preds = %139
  call void @_ZN11AhoCorasickILi26ELi97EED2Ev(%class.AhoCorasick* %12) #3
  call void @_ZNSt3mapINSt7__cxx1112basic_stringIcSt11char_traitsIcESaIcEEEiSt4lessIS5_ESaISt4pairIKS5_iEEED2Ev(%"class.std::map"* %9) #3
  br label %198

198:                                              ; preds = %234, %197
  %.017 = phi i32 [ 0, %197 ], [ %235, %234 ]
  %199 = icmp slt i32 %.017, 32
  br i1 %199, label %200, label %236

200:                                              ; preds = %198
  br label %201

201:                                              ; preds = %231, %200
  %.018 = phi i32 [ 0, %200 ], [ %232, %231 ]
  %202 = icmp slt i32 %.018, %77
  br i1 %202, label %203, label %233

203:                                              ; preds = %201
  br label %204

204:                                              ; preds = %228, %203
  %.019 = phi i32 [ 0, %203 ], [ %229, %228 ]
  %205 = icmp slt i32 %.019, %138
  br i1 %205, label %206, label %230

206:                                              ; preds = %204
  br label %207

207:                                              ; preds = %220, %206
  %.020 = phi i32 [ 0, %206 ], [ %221, %220 ]
  %208 = icmp slt i32 %.020, 2
  br i1 %208, label %209, label %227

209:                                              ; preds = %207
  %210 = sext i32 %.017 to i64
  %211 = getelementptr inbounds [32 x [501 x [601 x [2 x %struct.modint]]]], [32 x [501 x [601 x [2 x %struct.modint]]]]* @dp, i64 0, i64 %210
  %212 = sext i32 %.018 to i64
  %213 = getelementptr inbounds [501 x [601 x [2 x %struct.modint]]], [501 x [601 x [2 x %struct.modint]]]* %211, i64 0, i64 %212
  %214 = sext i32 %.019 to i64
  %215 = getelementptr inbounds [601 x [2 x %struct.modint]], [601 x [2 x %struct.modint]]* %213, i64 0, i64 %214
  %216 = sext i32 %.020 to i64
  %217 = getelementptr inbounds [2 x %struct.modint], [2 x %struct.modint]* %215, i64 0, i64 %216
  %218 = invoke dereferenceable(4) %struct.modint* @_ZN6modintILj1000000007EEaSIiEERS0_T_(%struct.modint* %217, i32 0)
          to label %219 unwind label %223

219:                                              ; preds = %209
  br label %220

220:                                              ; preds = %219
  %221 = add nsw i32 %.020, 1
  br label %207

222:                                              ; preds = %100, %96, %50
  %.03 = phi i32 [ %53, %50 ], [ %103, %100 ], [ %99, %96 ]
  %.02 = phi i8* [ %52, %50 ], [ %102, %100 ], [ %98, %96 ]
  call void @_ZNSt3mapINSt7__cxx1112basic_stringIcSt11char_traitsIcESaIcEEEiSt4lessIS5_ESaISt4pairIKS5_iEEED2Ev(%"class.std::map"* %9) #3
  br label %436

223:                                              ; preds = %433, %429, %409, %402, %351, %282, %245, %244, %209
  %224 = landingpad { i8*, i32 }
          cleanup
  %225 = extractvalue { i8*, i32 } %224, 0
  %226 = extractvalue { i8*, i32 } %224, 1
  br label %436

227:                                              ; preds = %207
  br label %228

228:                                              ; preds = %227
  %229 = add nsw i32 %.019, 1
  br label %204

230:                                              ; preds = %204
  br label %231

231:                                              ; preds = %230
  %232 = add nsw i32 %.018, 1
  br label %201

233:                                              ; preds = %201
  br label %234

234:                                              ; preds = %233
  %235 = add nsw i32 %.017, 1
  br label %198

236:                                              ; preds = %198
  br label %237

237:                                              ; preds = %268, %236
  %.021 = phi i32 [ 0, %236 ], [ %269, %268 ]
  %238 = icmp slt i32 %.021, %77
  br i1 %238, label %239, label %270

239:                                              ; preds = %237
  %240 = sext i32 %.021 to i64
  %241 = getelementptr inbounds [501 x i32], [501 x i32]* getelementptr inbounds ([601 x [501 x i32]], [601 x [501 x i32]]* @to2, i64 0, i64 0), i64 0, i64 %240
  %242 = load i32, i32* %241, align 4
  %243 = icmp slt i32 %242, 2
  br i1 %243, label %244, label %267

244:                                              ; preds = %239
  invoke void @_ZN6modintILj1000000007EEC2IiEET_(%struct.modint* %17, i32 1)
          to label %245 unwind label %223

245:                                              ; preds = %244
  %246 = sext i32 %.021 to i64
  %247 = call dereferenceable(32) %"class.std::__cxx11::basic_string"* @_ZNSt6vectorINSt7__cxx1112basic_stringIcSt11char_traitsIcESaIcEEESaIS5_EEixEm(%"class.std::vector"* %4, i64 %246) #3
  %248 = call i64 @_ZNKSt7__cxx1112basic_stringIcSt11char_traitsIcESaIcEE4sizeEv(%"class.std::__cxx11::basic_string"* %247) #3
  %249 = and i64 %248, 31
  %250 = getelementptr inbounds [32 x [501 x [601 x [2 x %struct.modint]]]], [32 x [501 x [601 x [2 x %struct.modint]]]]* @dp, i64 0, i64 %249
  %251 = sext i32 %.021 to i64
  %252 = getelementptr inbounds [501 x [601 x [2 x %struct.modint]]], [501 x [601 x [2 x %struct.modint]]]* %250, i64 0, i64 %251
  %253 = sext i32 %.021 to i64
  %254 = getelementptr inbounds [501 x i32], [501 x i32]* getelementptr inbounds ([601 x [501 x i32]], [601 x [501 x i32]]* @to, i64 0, i64 0), i64 0, i64 %253
  %255 = load i32, i32* %254, align 4
  %256 = sext i32 %255 to i64
  %257 = getelementptr inbounds [601 x [2 x %struct.modint]], [601 x [2 x %struct.modint]]* %252, i64 0, i64 %256
  %258 = sext i32 %.021 to i64
  %259 = getelementptr inbounds [501 x i32], [501 x i32]* getelementptr inbounds ([601 x [501 x i32]], [601 x [501 x i32]]* @to2, i64 0, i64 0), i64 0, i64 %258
  %260 = load i32, i32* %259, align 4
  %261 = sext i32 %260 to i64
  %262 = getelementptr inbounds [2 x %struct.modint], [2 x %struct.modint]* %257, i64 0, i64 %261
  %263 = getelementptr inbounds %struct.modint, %struct.modint* %17, i32 0, i32 0
  %264 = load i32, i32* %263, align 4
  %265 = invoke dereferenceable(4) %struct.modint* @_ZN6modintILj1000000007EEpLES0_(%struct.modint* %262, i32 %264)
          to label %266 unwind label %223

266:                                              ; preds = %245
  br label %267

267:                                              ; preds = %266, %239
  br label %268

268:                                              ; preds = %267
  %269 = add nsw i32 %.021, 1
  br label %237

270:                                              ; preds = %237
  br label %271

271:                                              ; preds = %400, %270
  %.022 = phi i32 [ 1, %270 ], [ %401, %400 ]
  %272 = icmp slt i32 %.022, %1
  br i1 %272, label %273, label %402

273:                                              ; preds = %271
  br label %274

274:                                              ; preds = %301, %273
  %.023 = phi i32 [ 0, %273 ], [ %302, %301 ]
  %275 = icmp slt i32 %.023, %77
  br i1 %275, label %276, label %303

276:                                              ; preds = %274
  br label %277

277:                                              ; preds = %298, %276
  %.024 = phi i32 [ 0, %276 ], [ %299, %298 ]
  %278 = icmp slt i32 %.024, %138
  br i1 %278, label %279, label %300

279:                                              ; preds = %277
  br label %280

280:                                              ; preds = %295, %279
  %.016 = phi i32 [ 0, %279 ], [ %296, %295 ]
  %281 = icmp slt i32 %.016, 2
  br i1 %281, label %282, label %297

282:                                              ; preds = %280
  %283 = add nsw i32 %.022, 22
  %284 = and i32 %283, 31
  %285 = sext i32 %284 to i64
  %286 = getelementptr inbounds [32 x [501 x [601 x [2 x %struct.modint]]]], [32 x [501 x [601 x [2 x %struct.modint]]]]* @dp, i64 0, i64 %285
  %287 = sext i32 %.023 to i64
  %288 = getelementptr inbounds [501 x [601 x [2 x %struct.modint]]], [501 x [601 x [2 x %struct.modint]]]* %286, i64 0, i64 %287
  %289 = sext i32 %.024 to i64
  %290 = getelementptr inbounds [601 x [2 x %struct.modint]], [601 x [2 x %struct.modint]]* %288, i64 0, i64 %289
  %291 = sext i32 %.016 to i64
  %292 = getelementptr inbounds [2 x %struct.modint], [2 x %struct.modint]* %290, i64 0, i64 %291
  %293 = invoke dereferenceable(4) %struct.modint* @_ZN6modintILj1000000007EEaSIiEERS0_T_(%struct.modint* %292, i32 0)
          to label %294 unwind label %223

294:                                              ; preds = %282
  br label %295

295:                                              ; preds = %294
  %296 = add nsw i32 %.016, 1
  br label %280

297:                                              ; preds = %280
  br label %298

298:                                              ; preds = %297
  %299 = add nsw i32 %.024, 1
  br label %277

300:                                              ; preds = %277
  br label %301

301:                                              ; preds = %300
  %302 = add nsw i32 %.023, 1
  br label %274

303:                                              ; preds = %274
  br label %304

304:                                              ; preds = %397, %303
  %.015 = phi i32 [ 0, %303 ], [ %398, %397 ]
  %305 = icmp slt i32 %.015, %77
  br i1 %305, label %306, label %399

306:                                              ; preds = %304
  %307 = sext i32 %.015 to i64
  %308 = call dereferenceable(24) %"class.std::vector.8"* @_ZNSt6vectorIS_IiSaIiEESaIS1_EEixEm(%"class.std::vector.3"* %5, i64 %307) #3
  %309 = call i32* @_ZNSt6vectorIiSaIiEE5beginEv(%"class.std::vector.8"* %308) #3
  %310 = getelementptr inbounds %"class.__gnu_cxx::__normal_iterator", %"class.__gnu_cxx::__normal_iterator"* %18, i32 0, i32 0
  store i32* %309, i32** %310, align 8
  %311 = call i32* @_ZNSt6vectorIiSaIiEE3endEv(%"class.std::vector.8"* %308) #3
  %312 = getelementptr inbounds %"class.__gnu_cxx::__normal_iterator", %"class.__gnu_cxx::__normal_iterator"* %19, i32 0, i32 0
  store i32* %311, i32** %312, align 8
  br label %313

313:                                              ; preds = %394, %306
  %314 = call zeroext i1 @_ZN9__gnu_cxxneIPiSt6vectorIiSaIiEEEEbRKNS_17__normal_iteratorIT_T0_EESA_(%"class.__gnu_cxx::__normal_iterator"* dereferenceable(8) %18, %"class.__gnu_cxx::__normal_iterator"* dereferenceable(8) %19) #3
  br i1 %314, label %315, label %396

315:                                              ; preds = %313
  %316 = call dereferenceable(4) i32* @_ZNK9__gnu_cxx17__normal_iteratorIPiSt6vectorIiSaIiEEEdeEv(%"class.__gnu_cxx::__normal_iterator"* %18) #3
  %317 = sext i32 %.022 to i64
  %318 = load i32, i32* %316, align 4
  %319 = sext i32 %318 to i64
  %320 = call dereferenceable(32) %"class.std::__cxx11::basic_string"* @_ZNSt6vectorINSt7__cxx1112basic_stringIcSt11char_traitsIcESaIcEEESaIS5_EEixEm(%"class.std::vector"* %4, i64 %319) #3
  %321 = call i64 @_ZNKSt7__cxx1112basic_stringIcSt11char_traitsIcESaIcEE4sizeEv(%"class.std::__cxx11::basic_string"* %320) #3
  %322 = add i64 %317, %321
  %323 = sext i32 %1 to i64
  %324 = icmp ugt i64 %322, %323
  br i1 %324, label %325, label %326

325:                                              ; preds = %315
  br label %394

326:                                              ; preds = %315
  %327 = and i32 %.022, 31
  %328 = sext i32 %327 to i64
  %329 = load i32, i32* %316, align 4
  %330 = sext i32 %329 to i64
  %331 = call dereferenceable(32) %"class.std::__cxx11::basic_string"* @_ZNSt6vectorINSt7__cxx1112basic_stringIcSt11char_traitsIcESaIcEEESaIS5_EEixEm(%"class.std::vector"* %4, i64 %330) #3
  %332 = call i64 @_ZNKSt7__cxx1112basic_stringIcSt11char_traitsIcESaIcEE4sizeEv(%"class.std::__cxx11::basic_string"* %331) #3
  %333 = add i64 %328, %332
  %334 = and i64 %333, 31
  %335 = trunc i64 %334 to i32
  br label %336

336:                                              ; preds = %391, %326
  %.012 = phi i32 [ 0, %326 ], [ %392, %391 ]
  %337 = icmp slt i32 %.012, %138
  br i1 %337, label %338, label %393

338:                                              ; preds = %336
  br label %339

339:                                              ; preds = %388, %338
  %.011 = phi i32 [ 0, %338 ], [ %389, %388 ]
  %340 = icmp slt i32 %.011, 2
  br i1 %340, label %341, label %390

341:                                              ; preds = %339
  %342 = sext i32 %.012 to i64
  %343 = getelementptr inbounds [601 x [501 x i32]], [601 x [501 x i32]]* @to2, i64 0, i64 %342
  %344 = load i32, i32* %316, align 4
  %345 = sext i32 %344 to i64
  %346 = getelementptr inbounds [501 x i32], [501 x i32]* %343, i64 0, i64 %345
  %347 = load i32, i32* %346, align 4
  %348 = add nsw i32 %.011, %347
  %349 = icmp sge i32 %348, 2
  br i1 %349, label %350, label %351

350:                                              ; preds = %341
  br label %388

351:                                              ; preds = %341
  %352 = sext i32 %327 to i64
  %353 = getelementptr inbounds [32 x [501 x [601 x [2 x %struct.modint]]]], [32 x [501 x [601 x [2 x %struct.modint]]]]* @dp, i64 0, i64 %352
  %354 = sext i32 %.015 to i64
  %355 = getelementptr inbounds [501 x [601 x [2 x %struct.modint]]], [501 x [601 x [2 x %struct.modint]]]* %353, i64 0, i64 %354
  %356 = sext i32 %.012 to i64
  %357 = getelementptr inbounds [601 x [2 x %struct.modint]], [601 x [2 x %struct.modint]]* %355, i64 0, i64 %356
  %358 = sext i32 %.011 to i64
  %359 = getelementptr inbounds [2 x %struct.modint], [2 x %struct.modint]* %357, i64 0, i64 %358
  %360 = bitcast %struct.modint* %20 to i8*
  %361 = bitcast %struct.modint* %359 to i8*
  call void @llvm.memcpy.p0i8.p0i8.i64(i8* align 4 %360, i8* align 4 %361, i64 4, i1 false)
  %362 = sext i32 %335 to i64
  %363 = getelementptr inbounds [32 x [501 x [601 x [2 x %struct.modint]]]], [32 x [501 x [601 x [2 x %struct.modint]]]]* @dp, i64 0, i64 %362
  %364 = load i32, i32* %316, align 4
  %365 = sext i32 %364 to i64
  %366 = getelementptr inbounds [501 x [601 x [2 x %struct.modint]]], [501 x [601 x [2 x %struct.modint]]]* %363, i64 0, i64 %365
  %367 = sext i32 %.012 to i64
  %368 = getelementptr inbounds [601 x [501 x i32]], [601 x [501 x i32]]* @to, i64 0, i64 %367
  %369 = load i32, i32* %316, align 4
  %370 = sext i32 %369 to i64
  %371 = getelementptr inbounds [501 x i32], [501 x i32]* %368, i64 0, i64 %370
  %372 = load i32, i32* %371, align 4
  %373 = sext i32 %372 to i64
  %374 = getelementptr inbounds [601 x [2 x %struct.modint]], [601 x [2 x %struct.modint]]* %366, i64 0, i64 %373
  %375 = sext i32 %.012 to i64
  %376 = getelementptr inbounds [601 x [501 x i32]], [601 x [501 x i32]]* @to2, i64 0, i64 %375
  %377 = load i32, i32* %316, align 4
  %378 = sext i32 %377 to i64
  %379 = getelementptr inbounds [501 x i32], [501 x i32]* %376, i64 0, i64 %378
  %380 = load i32, i32* %379, align 4
  %381 = add nsw i32 %.011, %380
  %382 = sext i32 %381 to i64
  %383 = getelementptr inbounds [2 x %struct.modint], [2 x %struct.modint]* %374, i64 0, i64 %382
  %384 = getelementptr inbounds %struct.modint, %struct.modint* %20, i32 0, i32 0
  %385 = load i32, i32* %384, align 4
  %386 = invoke dereferenceable(4) %struct.modint* @_ZN6modintILj1000000007EEpLES0_(%struct.modint* %383, i32 %385)
          to label %387 unwind label %223

387:                                              ; preds = %351
  br label %388

388:                                              ; preds = %387, %350
  %389 = add nsw i32 %.011, 1
  br label %339

390:                                              ; preds = %339
  br label %391

391:                                              ; preds = %390
  %392 = add nsw i32 %.012, 1
  br label %336

393:                                              ; preds = %336
  br label %394

394:                                              ; preds = %393, %325
  %395 = call dereferenceable(8) %"class.__gnu_cxx::__normal_iterator"* @_ZN9__gnu_cxx17__normal_iteratorIPiSt6vectorIiSaIiEEEppEv(%"class.__gnu_cxx::__normal_iterator"* %18) #3
  br label %313

396:                                              ; preds = %313
  br label %397

397:                                              ; preds = %396
  %398 = add nsw i32 %.015, 1
  br label %304

399:                                              ; preds = %304
  br label %400

400:                                              ; preds = %399
  %401 = add nsw i32 %.022, 1
  br label %271

402:                                              ; preds = %271
  invoke void @_ZN6modintILj1000000007EEC2IiEET_(%struct.modint* %21, i32 0)
          to label %403 unwind label %223

403:                                              ; preds = %402
  br label %404

404:                                              ; preds = %427, %403
  %.01 = phi i32 [ 0, %403 ], [ %428, %427 ]
  %405 = icmp slt i32 %.01, %77
  br i1 %405, label %406, label %429

406:                                              ; preds = %404
  br label %407

407:                                              ; preds = %424, %406
  %.0 = phi i32 [ 0, %406 ], [ %425, %424 ]
  %408 = icmp slt i32 %.0, %138
  br i1 %408, label %409, label %426

409:                                              ; preds = %407
  %410 = and i32 %1, 31
  %411 = sext i32 %410 to i64
  %412 = getelementptr inbounds [32 x [501 x [601 x [2 x %struct.modint]]]], [32 x [501 x [601 x [2 x %struct.modint]]]]* @dp, i64 0, i64 %411
  %413 = sext i32 %.01 to i64
  %414 = getelementptr inbounds [501 x [601 x [2 x %struct.modint]]], [501 x [601 x [2 x %struct.modint]]]* %412, i64 0, i64 %413
  %415 = sext i32 %.0 to i64
  %416 = getelementptr inbounds [601 x [2 x %struct.modint]], [601 x [2 x %struct.modint]]* %414, i64 0, i64 %415
  %417 = getelementptr inbounds [2 x %struct.modint], [2 x %struct.modint]* %416, i64 0, i64 1
  %418 = bitcast %struct.modint* %22 to i8*
  %419 = bitcast %struct.modint* %417 to i8*
  call void @llvm.memcpy.p0i8.p0i8.i64(i8* align 4 %418, i8* align 4 %419, i64 4, i1 false)
  %420 = getelementptr inbounds %struct.modint, %struct.modint* %22, i32 0, i32 0
  %421 = load i32, i32* %420, align 4
  %422 = invoke dereferenceable(4) %struct.modint* @_ZN6modintILj1000000007EEpLES0_(%struct.modint* %21, i32 %421)
          to label %423 unwind label %223

423:                                              ; preds = %409
  br label %424

424:                                              ; preds = %423
  %425 = add nsw i32 %.0, 1
  br label %407

426:                                              ; preds = %407
  br label %427

427:                                              ; preds = %426
  %428 = add nsw i32 %.01, 1
  br label %404

429:                                              ; preds = %404
  %430 = getelementptr inbounds %struct.modint, %struct.modint* %21, i32 0, i32 0
  %431 = load i32, i32* %430, align 4
  %432 = invoke dereferenceable(272) %"class.std::basic_ostream"* @_ZNSolsEj(%"class.std::basic_ostream"* @_ZSt4cout, i32 %431)
          to label %433 unwind label %223

433:                                              ; preds = %429
  %434 = invoke dereferenceable(272) %"class.std::basic_ostream"* @_ZStlsISt11char_traitsIcEERSt13basic_ostreamIcT_ES5_PKc(%"class.std::basic_ostream"* dereferenceable(272) %432, i8* getelementptr inbounds ([2 x i8], [2 x i8]* @.str, i32 0, i32 0))
          to label %435 unwind label %223

435:                                              ; preds = %433
  call void @_ZNSt6vectorINSt7__cxx1112basic_stringIcSt11char_traitsIcESaIcEEESaIS5_EED2Ev(%"class.std::vector"* %7) #3
  call void @_ZNSt6vectorIS_IiSaIiEESaIS1_EED2Ev(%"class.std::vector.3"* %5) #3
  call void @_ZNSt6vectorINSt7__cxx1112basic_stringIcSt11char_traitsIcESaIcEEESaIS5_EED2Ev(%"class.std::vector"* %4) #3
  ret void

436:                                              ; preds = %223, %222
  %.14 = phi i32 [ %.03, %222 ], [ %226, %223 ]
  %.1 = phi i8* [ %.02, %222 ], [ %225, %223 ]
  call void @_ZNSt6vectorINSt7__cxx1112basic_stringIcSt11char_traitsIcESaIcEEESaIS5_EED2Ev(%"class.std::vector"* %7) #3
  br label %437

437:                                              ; preds = %436, %46, %42
  %.25 = phi i32 [ %.14, %436 ], [ %49, %46 ], [ %45, %42 ]
  %.2 = phi i8* [ %.1, %436 ], [ %48, %46 ], [ %44, %42 ]
  call void @_ZNSt6vectorIS_IiSaIiEESaIS1_EED2Ev(%"class.std::vector.3"* %5) #3
  call void @_ZNSt6vectorINSt7__cxx1112basic_stringIcSt11char_traitsIcESaIcEEESaIS5_EED2Ev(%"class.std::vector"* %4) #3
  br label %438

438:                                              ; preds = %437
  %439 = insertvalue { i8*, i32 } undef, i8* %.2, 0
  %440 = insertvalue { i8*, i32 } %439, i32 %.25, 1
  resume { i8*, i32 } %440
}

; Function Attrs: noinline nounwind uwtable
define linkonce_odr void @_ZNSt6vectorINSt7__cxx1112basic_stringIcSt11char_traitsIcESaIcEEESaIS5_EEC2Ev(%"class.std::vector"* %0) unnamed_addr #4 comdat align 2 personality i8* bitcast (i32 (...)* @__gxx_personality_v0 to i8*) {
  %2 = bitcast %"class.std::vector"* %0 to %"struct.std::_Vector_base"*
  invoke void @_ZNSt12_Vector_baseINSt7__cxx1112basic_stringIcSt11char_traitsIcESaIcEEESaIS5_EEC2Ev(%"struct.std::_Vector_base"* %2)
          to label %3 unwind label %4

3:                                                ; preds = %1
  ret void

4:                                                ; preds = %1
  %5 = landingpad { i8*, i32 }
          catch i8* null
  %6 = extractvalue { i8*, i32 } %5, 0
  call void @__clang_call_terminate(i8* %6) #14
  unreachable
}

; Function Attrs: noinline nounwind uwtable
define linkonce_odr void @_ZNSt6vectorIS_IiSaIiEESaIS1_EEC2Ev(%"class.std::vector.3"* %0) unnamed_addr #4 comdat align 2 personality i8* bitcast (i32 (...)* @__gxx_personality_v0 to i8*) {
  %2 = bitcast %"class.std::vector.3"* %0 to %"struct.std::_Vector_base.4"*
  invoke void @_ZNSt12_Vector_baseISt6vectorIiSaIiEESaIS2_EEC2Ev(%"struct.std::_Vector_base.4"* %2)
          to label %3 unwind label %4

3:                                                ; preds = %1
  ret void

4:                                                ; preds = %1
  %5 = landingpad { i8*, i32 }
          catch i8* null
  %6 = extractvalue { i8*, i32 } %5, 0
  call void @__clang_call_terminate(i8* %6) #14
  unreachable
}

; Function Attrs: noinline uwtable
define linkonce_odr void @_ZSt4fillIPiiEvT_S1_RKT0_(i32* %0, i32* %1, i32* dereferenceable(4) %2) #0 comdat {
  %4 = call i32* @_ZSt12__niter_baseIPiET_S1_(i32* %0)
  %5 = call i32* @_ZSt12__niter_baseIPiET_S1_(i32* %1)
  call void @_ZSt8__fill_aIPiiEN9__gnu_cxx11__enable_ifIXsr11__is_scalarIT0_EE7__valueEvE6__typeET_S6_RKS3_(i32* %4, i32* %5, i32* dereferenceable(4) %2)
  ret void
}

declare i32 @__gxx_personality_v0(...)

; Function Attrs: noinline nounwind uwtable
define linkonce_odr void @_ZNSaINSt7__cxx1112basic_stringIcSt11char_traitsIcESaIcEEEEC2Ev(%"class.std::allocator"* %0) unnamed_addr #4 comdat align 2 {
  %2 = bitcast %"class.std::allocator"* %0 to %"class.__gnu_cxx::new_allocator"*
  call void @_ZN9__gnu_cxx13new_allocatorINSt7__cxx1112basic_stringIcSt11char_traitsIcESaIcEEEEC2Ev(%"class.__gnu_cxx::new_allocator"* %2) #3
  ret void
}

; Function Attrs: noinline uwtable
define linkonce_odr void @_ZNSt6vectorINSt7__cxx1112basic_stringIcSt11char_traitsIcESaIcEEESaIS5_EEC2EmRKS6_(%"class.std::vector"* %0, i64 %1, %"class.std::allocator"* dereferenceable(1) %2) unnamed_addr #0 comdat align 2 personality i8* bitcast (i32 (...)* @__gxx_personality_v0 to i8*) {
  %4 = bitcast %"class.std::vector"* %0 to %"struct.std::_Vector_base"*
  call void @_ZNSt12_Vector_baseINSt7__cxx1112basic_stringIcSt11char_traitsIcESaIcEEESaIS5_EEC2EmRKS6_(%"struct.std::_Vector_base"* %4, i64 %1, %"class.std::allocator"* dereferenceable(1) %2)
  invoke void @_ZNSt6vectorINSt7__cxx1112basic_stringIcSt11char_traitsIcESaIcEEESaIS5_EE21_M_default_initializeEm(%"class.std::vector"* %0, i64 %1)
          to label %5 unwind label %6

5:                                                ; preds = %3
  ret void

6:                                                ; preds = %3
  %7 = landingpad { i8*, i32 }
          cleanup
  %8 = extractvalue { i8*, i32 } %7, 0
  %9 = extractvalue { i8*, i32 } %7, 1
  %10 = bitcast %"class.std::vector"* %0 to %"struct.std::_Vector_base"*
  call void @_ZNSt12_Vector_baseINSt7__cxx1112basic_stringIcSt11char_traitsIcESaIcEEESaIS5_EED2Ev(%"struct.std::_Vector_base"* %10) #3
  br label %11

11:                                               ; preds = %6
  %12 = insertvalue { i8*, i32 } undef, i8* %8, 0
  %13 = insertvalue { i8*, i32 } %12, i32 %9, 1
  resume { i8*, i32 } %13
}

; Function Attrs: noinline nounwind uwtable
define linkonce_odr void @_ZNSaINSt7__cxx1112basic_stringIcSt11char_traitsIcESaIcEEEED2Ev(%"class.std::allocator"* %0) unnamed_addr #4 comdat align 2 {
  %2 = bitcast %"class.std::allocator"* %0 to %"class.__gnu_cxx::new_allocator"*
  call void @_ZN9__gnu_cxx13new_allocatorINSt7__cxx1112basic_stringIcSt11char_traitsIcESaIcEEEED2Ev(%"class.__gnu_cxx::new_allocator"* %2) #3
  ret void
}

; Function Attrs: noinline nounwind uwtable
define linkonce_odr void @_ZNSt3mapINSt7__cxx1112basic_stringIcSt11char_traitsIcESaIcEEEiSt4lessIS5_ESaISt4pairIKS5_iEEEC2Ev(%"class.std::map"* %0) unnamed_addr #4 comdat align 2 {
  %2 = getelementptr inbounds %"class.std::map", %"class.std::map"* %0, i32 0, i32 0
  call void @_ZNSt8_Rb_treeINSt7__cxx1112basic_stringIcSt11char_traitsIcESaIcEEESt4pairIKS5_iESt10_Select1stIS8_ESt4lessIS5_ESaIS8_EEC2Ev(%"class.std::_Rb_tree"* %2) #3
  ret void
}

; Function Attrs: nounwind
declare void @_ZNSt7__cxx1112basic_stringIcSt11char_traitsIcESaIcEEC1Ev(%"class.std::__cxx11::basic_string"*) unnamed_addr #2

declare dereferenceable(280) %"class.std::basic_istream"* @_ZStrsIcSt11char_traitsIcESaIcEERSt13basic_istreamIT_T0_ES7_RNSt7__cxx1112basic_stringIS4_S5_T1_EE(%"class.std::basic_istream"* dereferenceable(280), %"class.std::__cxx11::basic_string"* dereferenceable(32)) #1

; Function Attrs: noinline uwtable
define linkonce_odr i64 @_ZNKSt3mapINSt7__cxx1112basic_stringIcSt11char_traitsIcESaIcEEEiSt4lessIS5_ESaISt4pairIKS5_iEEE5countERS9_(%"class.std::map"* %0, %"class.std::__cxx11::basic_string"* dereferenceable(32) %1) #0 comdat align 2 {
  %3 = alloca %"struct.std::_Rb_tree_const_iterator", align 8
  %4 = alloca %"struct.std::_Rb_tree_const_iterator", align 8
  %5 = getelementptr inbounds %"class.std::map", %"class.std::map"* %0, i32 0, i32 0
  %6 = call %"struct.std::_Rb_tree_node_base"* @_ZNKSt8_Rb_treeINSt7__cxx1112basic_stringIcSt11char_traitsIcESaIcEEESt4pairIKS5_iESt10_Select1stIS8_ESt4lessIS5_ESaIS8_EE4findERS7_(%"class.std::_Rb_tree"* %5, %"class.std::__cxx11::basic_string"* dereferenceable(32) %1)
  %7 = getelementptr inbounds %"struct.std::_Rb_tree_const_iterator", %"struct.std::_Rb_tree_const_iterator"* %3, i32 0, i32 0
  store %"struct.std::_Rb_tree_node_base"* %6, %"struct.std::_Rb_tree_node_base"** %7, align 8
  %8 = getelementptr inbounds %"class.std::map", %"class.std::map"* %0, i32 0, i32 0
  %9 = call %"struct.std::_Rb_tree_node_base"* @_ZNKSt8_Rb_treeINSt7__cxx1112basic_stringIcSt11char_traitsIcESaIcEEESt4pairIKS5_iESt10_Select1stIS8_ESt4lessIS5_ESaIS8_EE3endEv(%"class.std::_Rb_tree"* %8) #3
  %10 = getelementptr inbounds %"struct.std::_Rb_tree_const_iterator", %"struct.std::_Rb_tree_const_iterator"* %4, i32 0, i32 0
  store %"struct.std::_Rb_tree_node_base"* %9, %"struct.std::_Rb_tree_node_base"** %10, align 8
  %11 = call zeroext i1 @_ZNKSt23_Rb_tree_const_iteratorISt4pairIKNSt7__cxx1112basic_stringIcSt11char_traitsIcESaIcEEEiEEeqERKS9_(%"struct.std::_Rb_tree_const_iterator"* %3, %"struct.std::_Rb_tree_const_iterator"* dereferenceable(8) %4) #3
  %12 = zext i1 %11 to i64
  %13 = select i1 %11, i32 0, i32 1
  %14 = sext i32 %13 to i64
  ret i64 %14
}

; Function Attrs: noinline uwtable
define linkonce_odr dereferenceable(4) i32* @_ZNSt3mapINSt7__cxx1112basic_stringIcSt11char_traitsIcESaIcEEEiSt4lessIS5_ESaISt4pairIKS5_iEEEixERS9_(%"class.std::map"* %0, %"class.std::__cxx11::basic_string"* dereferenceable(32) %1) #0 comdat align 2 {
  %3 = alloca %"struct.std::_Rb_tree_iterator", align 8
  %4 = alloca %"struct.std::_Rb_tree_iterator", align 8
  %5 = alloca %"struct.std::less", align 1
  %6 = alloca %"struct.std::_Rb_tree_iterator", align 8
  %7 = alloca %"struct.std::_Rb_tree_const_iterator", align 8
  %8 = alloca %"class.std::tuple", align 8
  %9 = alloca %"class.std::tuple.22", align 1
  %10 = call %"struct.std::_Rb_tree_node_base"* @_ZNSt3mapINSt7__cxx1112basic_stringIcSt11char_traitsIcESaIcEEEiSt4lessIS5_ESaISt4pairIKS5_iEEE11lower_boundERS9_(%"class.std::map"* %0, %"class.std::__cxx11::basic_string"* dereferenceable(32) %1)
  %11 = getelementptr inbounds %"struct.std::_Rb_tree_iterator", %"struct.std::_Rb_tree_iterator"* %3, i32 0, i32 0
  store %"struct.std::_Rb_tree_node_base"* %10, %"struct.std::_Rb_tree_node_base"** %11, align 8
  %12 = call %"struct.std::_Rb_tree_node_base"* @_ZNSt3mapINSt7__cxx1112basic_stringIcSt11char_traitsIcESaIcEEEiSt4lessIS5_ESaISt4pairIKS5_iEEE3endEv(%"class.std::map"* %0) #3
  %13 = getelementptr inbounds %"struct.std::_Rb_tree_iterator", %"struct.std::_Rb_tree_iterator"* %4, i32 0, i32 0
  store %"struct.std::_Rb_tree_node_base"* %12, %"struct.std::_Rb_tree_node_base"** %13, align 8
  %14 = call zeroext i1 @_ZNKSt17_Rb_tree_iteratorISt4pairIKNSt7__cxx1112basic_stringIcSt11char_traitsIcESaIcEEEiEEeqERKS9_(%"struct.std::_Rb_tree_iterator"* %3, %"struct.std::_Rb_tree_iterator"* dereferenceable(8) %4) #3
  br i1 %14, label %19, label %15

15:                                               ; preds = %2
  call void @_ZNKSt3mapINSt7__cxx1112basic_stringIcSt11char_traitsIcESaIcEEEiSt4lessIS5_ESaISt4pairIKS5_iEEE8key_compEv(%"class.std::map"* %0)
  %16 = call dereferenceable(40) %"struct.std::pair"* @_ZNKSt17_Rb_tree_iteratorISt4pairIKNSt7__cxx1112basic_stringIcSt11char_traitsIcESaIcEEEiEEdeEv(%"struct.std::_Rb_tree_iterator"* %3) #3
  %17 = getelementptr inbounds %"struct.std::pair", %"struct.std::pair"* %16, i32 0, i32 0
  %18 = call zeroext i1 @_ZNKSt4lessINSt7__cxx1112basic_stringIcSt11char_traitsIcESaIcEEEEclERKS5_S8_(%"struct.std::less"* %5, %"class.std::__cxx11::basic_string"* dereferenceable(32) %1, %"class.std::__cxx11::basic_string"* dereferenceable(32) %17)
  br label %19

19:                                               ; preds = %15, %2
  %20 = phi i1 [ true, %2 ], [ %18, %15 ]
  br i1 %20, label %21, label %29

21:                                               ; preds = %19
  %22 = getelementptr inbounds %"class.std::map", %"class.std::map"* %0, i32 0, i32 0
  call void @_ZNSt23_Rb_tree_const_iteratorISt4pairIKNSt7__cxx1112basic_stringIcSt11char_traitsIcESaIcEEEiEEC2ERKSt17_Rb_tree_iteratorIS8_E(%"struct.std::_Rb_tree_const_iterator"* %7, %"struct.std::_Rb_tree_iterator"* dereferenceable(8) %3) #3
  call void @_ZNSt5tupleIJRKNSt7__cxx1112basic_stringIcSt11char_traitsIcESaIcEEEEEC2IvLb1EEES7_(%"class.std::tuple"* %8, %"class.std::__cxx11::basic_string"* dereferenceable(32) %1)
  %23 = getelementptr inbounds %"struct.std::_Rb_tree_const_iterator", %"struct.std::_Rb_tree_const_iterator"* %7, i32 0, i32 0
  %24 = load %"struct.std::_Rb_tree_node_base"*, %"struct.std::_Rb_tree_node_base"** %23, align 8
  %25 = call %"struct.std::_Rb_tree_node_base"* @_ZNSt8_Rb_treeINSt7__cxx1112basic_stringIcSt11char_traitsIcESaIcEEESt4pairIKS5_iESt10_Select1stIS8_ESt4lessIS5_ESaIS8_EE22_M_emplace_hint_uniqueIJRKSt21piecewise_construct_tSt5tupleIJRS7_EESJ_IJEEEEESt17_Rb_tree_iteratorIS8_ESt23_Rb_tree_const_iteratorIS8_EDpOT_(%"class.std::_Rb_tree"* %22, %"struct.std::_Rb_tree_node_base"* %24, %"struct.std::piecewise_construct_t"* dereferenceable(1) @_ZStL19piecewise_construct, %"class.std::tuple"* dereferenceable(8) %8, %"class.std::tuple.22"* dereferenceable(1) %9)
  %26 = getelementptr inbounds %"struct.std::_Rb_tree_iterator", %"struct.std::_Rb_tree_iterator"* %6, i32 0, i32 0
  store %"struct.std::_Rb_tree_node_base"* %25, %"struct.std::_Rb_tree_node_base"** %26, align 8
  %27 = bitcast %"struct.std::_Rb_tree_iterator"* %3 to i8*
  %28 = bitcast %"struct.std::_Rb_tree_iterator"* %6 to i8*
  call void @llvm.memcpy.p0i8.p0i8.i64(i8* align 8 %27, i8* align 8 %28, i64 8, i1 false)
  br label %29

29:                                               ; preds = %21, %19
  %30 = call dereferenceable(40) %"struct.std::pair"* @_ZNKSt17_Rb_tree_iteratorISt4pairIKNSt7__cxx1112basic_stringIcSt11char_traitsIcESaIcEEEiEEdeEv(%"struct.std::_Rb_tree_iterator"* %3) #3
  %31 = getelementptr inbounds %"struct.std::pair", %"struct.std::pair"* %30, i32 0, i32 1
  ret i32* %31
}

; Function Attrs: noinline uwtable
define linkonce_odr void @_ZNSt6vectorINSt7__cxx1112basic_stringIcSt11char_traitsIcESaIcEEESaIS5_EE12emplace_backIJRS5_EEEvDpOT_(%"class.std::vector"* %0, %"class.std::__cxx11::basic_string"* dereferenceable(32) %1) #0 comdat align 2 {
  %3 = alloca %"class.__gnu_cxx::__normal_iterator.27", align 8
  %4 = bitcast %"class.std::vector"* %0 to %"struct.std::_Vector_base"*
  %5 = getelementptr inbounds %"struct.std::_Vector_base", %"struct.std::_Vector_base"* %4, i32 0, i32 0
  %6 = getelementptr inbounds %"struct.std::_Vector_base<std::__cxx11::basic_string<char>, std::allocator<std::__cxx11::basic_string<char> > >::_Vector_impl", %"struct.std::_Vector_base<std::__cxx11::basic_string<char>, std::allocator<std::__cxx11::basic_string<char> > >::_Vector_impl"* %5, i32 0, i32 1
  %7 = load %"class.std::__cxx11::basic_string"*, %"class.std::__cxx11::basic_string"** %6, align 8
  %8 = bitcast %"class.std::vector"* %0 to %"struct.std::_Vector_base"*
  %9 = getelementptr inbounds %"struct.std::_Vector_base", %"struct.std::_Vector_base"* %8, i32 0, i32 0
  %10 = getelementptr inbounds %"struct.std::_Vector_base<std::__cxx11::basic_string<char>, std::allocator<std::__cxx11::basic_string<char> > >::_Vector_impl", %"struct.std::_Vector_base<std::__cxx11::basic_string<char>, std::allocator<std::__cxx11::basic_string<char> > >::_Vector_impl"* %9, i32 0, i32 2
  %11 = load %"class.std::__cxx11::basic_string"*, %"class.std::__cxx11::basic_string"** %10, align 8
  %12 = icmp ne %"class.std::__cxx11::basic_string"* %7, %11
  br i1 %12, label %13, label %27

13:                                               ; preds = %2
  %14 = bitcast %"class.std::vector"* %0 to %"struct.std::_Vector_base"*
  %15 = getelementptr inbounds %"struct.std::_Vector_base", %"struct.std::_Vector_base"* %14, i32 0, i32 0
  %16 = bitcast %"struct.std::_Vector_base<std::__cxx11::basic_string<char>, std::allocator<std::__cxx11::basic_string<char> > >::_Vector_impl"* %15 to %"class.std::allocator"*
  %17 = bitcast %"class.std::vector"* %0 to %"struct.std::_Vector_base"*
  %18 = getelementptr inbounds %"struct.std::_Vector_base", %"struct.std::_Vector_base"* %17, i32 0, i32 0
  %19 = getelementptr inbounds %"struct.std::_Vector_base<std::__cxx11::basic_string<char>, std::allocator<std::__cxx11::basic_string<char> > >::_Vector_impl", %"struct.std::_Vector_base<std::__cxx11::basic_string<char>, std::allocator<std::__cxx11::basic_string<char> > >::_Vector_impl"* %18, i32 0, i32 1
  %20 = load %"class.std::__cxx11::basic_string"*, %"class.std::__cxx11::basic_string"** %19, align 8
  %21 = call dereferenceable(32) %"class.std::__cxx11::basic_string"* @_ZSt7forwardIRNSt7__cxx1112basic_stringIcSt11char_traitsIcESaIcEEEEOT_RNSt16remove_referenceIS7_E4typeE(%"class.std::__cxx11::basic_string"* dereferenceable(32) %1) #3
  call void @_ZNSt16allocator_traitsISaINSt7__cxx1112basic_stringIcSt11char_traitsIcESaIcEEEEE9constructIS5_JRS5_EEEvRS6_PT_DpOT0_(%"class.std::allocator"* dereferenceable(1) %16, %"class.std::__cxx11::basic_string"* %20, %"class.std::__cxx11::basic_string"* dereferenceable(32) %21)
  %22 = bitcast %"class.std::vector"* %0 to %"struct.std::_Vector_base"*
  %23 = getelementptr inbounds %"struct.std::_Vector_base", %"struct.std::_Vector_base"* %22, i32 0, i32 0
  %24 = getelementptr inbounds %"struct.std::_Vector_base<std::__cxx11::basic_string<char>, std::allocator<std::__cxx11::basic_string<char> > >::_Vector_impl", %"struct.std::_Vector_base<std::__cxx11::basic_string<char>, std::allocator<std::__cxx11::basic_string<char> > >::_Vector_impl"* %23, i32 0, i32 1
  %25 = load %"class.std::__cxx11::basic_string"*, %"class.std::__cxx11::basic_string"** %24, align 8
  %26 = getelementptr inbounds %"class.std::__cxx11::basic_string", %"class.std::__cxx11::basic_string"* %25, i32 1
  store %"class.std::__cxx11::basic_string"* %26, %"class.std::__cxx11::basic_string"** %24, align 8
  br label %33

27:                                               ; preds = %2
  %28 = call %"class.std::__cxx11::basic_string"* @_ZNSt6vectorINSt7__cxx1112basic_stringIcSt11char_traitsIcESaIcEEESaIS5_EE3endEv(%"class.std::vector"* %0) #3
  %29 = getelementptr inbounds %"class.__gnu_cxx::__normal_iterator.27", %"class.__gnu_cxx::__normal_iterator.27"* %3, i32 0, i32 0
  store %"class.std::__cxx11::basic_string"* %28, %"class.std::__cxx11::basic_string"** %29, align 8
  %30 = call dereferenceable(32) %"class.std::__cxx11::basic_string"* @_ZSt7forwardIRNSt7__cxx1112basic_stringIcSt11char_traitsIcESaIcEEEEOT_RNSt16remove_referenceIS7_E4typeE(%"class.std::__cxx11::basic_string"* dereferenceable(32) %1) #3
  %31 = getelementptr inbounds %"class.__gnu_cxx::__normal_iterator.27", %"class.__gnu_cxx::__normal_iterator.27"* %3, i32 0, i32 0
  %32 = load %"class.std::__cxx11::basic_string"*, %"class.std::__cxx11::basic_string"** %31, align 8
  call void @_ZNSt6vectorINSt7__cxx1112basic_stringIcSt11char_traitsIcESaIcEEESaIS5_EE17_M_realloc_insertIJRS5_EEEvN9__gnu_cxx17__normal_iteratorIPS5_S7_EEDpOT_(%"class.std::vector"* %0, %"class.std::__cxx11::basic_string"* %32, %"class.std::__cxx11::basic_string"* dereferenceable(32) %30)
  br label %33

33:                                               ; preds = %27, %13
  ret void
}

; Function Attrs: noinline uwtable
define linkonce_odr void @_ZNSt6vectorIS_IiSaIiEESaIS1_EE12emplace_backIJEEEvDpOT_(%"class.std::vector.3"* %0) #0 comdat align 2 {
  %2 = alloca %"class.__gnu_cxx::__normal_iterator.28", align 8
  %3 = bitcast %"class.std::vector.3"* %0 to %"struct.std::_Vector_base.4"*
  %4 = getelementptr inbounds %"struct.std::_Vector_base.4", %"struct.std::_Vector_base.4"* %3, i32 0, i32 0
  %5 = getelementptr inbounds %"struct.std::_Vector_base<std::vector<int, std::allocator<int> >, std::allocator<std::vector<int, std::allocator<int> > > >::_Vector_impl", %"struct.std::_Vector_base<std::vector<int, std::allocator<int> >, std::allocator<std::vector<int, std::allocator<int> > > >::_Vector_impl"* %4, i32 0, i32 1
  %6 = load %"class.std::vector.8"*, %"class.std::vector.8"** %5, align 8
  %7 = bitcast %"class.std::vector.3"* %0 to %"struct.std::_Vector_base.4"*
  %8 = getelementptr inbounds %"struct.std::_Vector_base.4", %"struct.std::_Vector_base.4"* %7, i32 0, i32 0
  %9 = getelementptr inbounds %"struct.std::_Vector_base<std::vector<int, std::allocator<int> >, std::allocator<std::vector<int, std::allocator<int> > > >::_Vector_impl", %"struct.std::_Vector_base<std::vector<int, std::allocator<int> >, std::allocator<std::vector<int, std::allocator<int> > > >::_Vector_impl"* %8, i32 0, i32 2
  %10 = load %"class.std::vector.8"*, %"class.std::vector.8"** %9, align 8
  %11 = icmp ne %"class.std::vector.8"* %6, %10
  br i1 %11, label %12, label %25

12:                                               ; preds = %1
  %13 = bitcast %"class.std::vector.3"* %0 to %"struct.std::_Vector_base.4"*
  %14 = getelementptr inbounds %"struct.std::_Vector_base.4", %"struct.std::_Vector_base.4"* %13, i32 0, i32 0
  %15 = bitcast %"struct.std::_Vector_base<std::vector<int, std::allocator<int> >, std::allocator<std::vector<int, std::allocator<int> > > >::_Vector_impl"* %14 to %"class.std::allocator.5"*
  %16 = bitcast %"class.std::vector.3"* %0 to %"struct.std::_Vector_base.4"*
  %17 = getelementptr inbounds %"struct.std::_Vector_base.4", %"struct.std::_Vector_base.4"* %16, i32 0, i32 0
  %18 = getelementptr inbounds %"struct.std::_Vector_base<std::vector<int, std::allocator<int> >, std::allocator<std::vector<int, std::allocator<int> > > >::_Vector_impl", %"struct.std::_Vector_base<std::vector<int, std::allocator<int> >, std::allocator<std::vector<int, std::allocator<int> > > >::_Vector_impl"* %17, i32 0, i32 1
  %19 = load %"class.std::vector.8"*, %"class.std::vector.8"** %18, align 8
  call void @_ZNSt16allocator_traitsISaISt6vectorIiSaIiEEEE9constructIS2_JEEEvRS3_PT_DpOT0_(%"class.std::allocator.5"* dereferenceable(1) %15, %"class.std::vector.8"* %19)
  %20 = bitcast %"class.std::vector.3"* %0 to %"struct.std::_Vector_base.4"*
  %21 = getelementptr inbounds %"struct.std::_Vector_base.4", %"struct.std::_Vector_base.4"* %20, i32 0, i32 0
  %22 = getelementptr inbounds %"struct.std::_Vector_base<std::vector<int, std::allocator<int> >, std::allocator<std::vector<int, std::allocator<int> > > >::_Vector_impl", %"struct.std::_Vector_base<std::vector<int, std::allocator<int> >, std::allocator<std::vector<int, std::allocator<int> > > >::_Vector_impl"* %21, i32 0, i32 1
  %23 = load %"class.std::vector.8"*, %"class.std::vector.8"** %22, align 8
  %24 = getelementptr inbounds %"class.std::vector.8", %"class.std::vector.8"* %23, i32 1
  store %"class.std::vector.8"* %24, %"class.std::vector.8"** %22, align 8
  br label %30

25:                                               ; preds = %1
  %26 = call %"class.std::vector.8"* @_ZNSt6vectorIS_IiSaIiEESaIS1_EE3endEv(%"class.std::vector.3"* %0) #3
  %27 = getelementptr inbounds %"class.__gnu_cxx::__normal_iterator.28", %"class.__gnu_cxx::__normal_iterator.28"* %2, i32 0, i32 0
  store %"class.std::vector.8"* %26, %"class.std::vector.8"** %27, align 8
  %28 = getelementptr inbounds %"class.__gnu_cxx::__normal_iterator.28", %"class.__gnu_cxx::__normal_iterator.28"* %2, i32 0, i32 0
  %29 = load %"class.std::vector.8"*, %"class.std::vector.8"** %28, align 8
  call void @_ZNSt6vectorIS_IiSaIiEESaIS1_EE17_M_realloc_insertIJEEEvN9__gnu_cxx17__normal_iteratorIPS1_S3_EEDpOT_(%"class.std::vector.3"* %0, %"class.std::vector.8"* %29)
  br label %30

30:                                               ; preds = %25, %12
  ret void
}

; Function Attrs: noinline nounwind uwtable
define linkonce_odr dereferenceable(24) %"class.std::vector.8"* @_ZNSt6vectorIS_IiSaIiEESaIS1_EEixEm(%"class.std::vector.3"* %0, i64 %1) #4 comdat align 2 {
  %3 = bitcast %"class.std::vector.3"* %0 to %"struct.std::_Vector_base.4"*
  %4 = getelementptr inbounds %"struct.std::_Vector_base.4", %"struct.std::_Vector_base.4"* %3, i32 0, i32 0
  %5 = getelementptr inbounds %"struct.std::_Vector_base<std::vector<int, std::allocator<int> >, std::allocator<std::vector<int, std::allocator<int> > > >::_Vector_impl", %"struct.std::_Vector_base<std::vector<int, std::allocator<int> >, std::allocator<std::vector<int, std::allocator<int> > > >::_Vector_impl"* %4, i32 0, i32 0
  %6 = load %"class.std::vector.8"*, %"class.std::vector.8"** %5, align 8
  %7 = getelementptr inbounds %"class.std::vector.8", %"class.std::vector.8"* %6, i64 %1
  ret %"class.std::vector.8"* %7
}

; Function Attrs: noinline uwtable
define linkonce_odr void @_ZNSt6vectorIiSaIiEE12emplace_backIJRiEEEvDpOT_(%"class.std::vector.8"* %0, i32* dereferenceable(4) %1) #0 comdat align 2 {
  %3 = alloca %"class.__gnu_cxx::__normal_iterator", align 8
  %4 = bitcast %"class.std::vector.8"* %0 to %"struct.std::_Vector_base.9"*
  %5 = getelementptr inbounds %"struct.std::_Vector_base.9", %"struct.std::_Vector_base.9"* %4, i32 0, i32 0
  %6 = getelementptr inbounds %"struct.std::_Vector_base<int, std::allocator<int> >::_Vector_impl", %"struct.std::_Vector_base<int, std::allocator<int> >::_Vector_impl"* %5, i32 0, i32 1
  %7 = load i32*, i32** %6, align 8
  %8 = bitcast %"class.std::vector.8"* %0 to %"struct.std::_Vector_base.9"*
  %9 = getelementptr inbounds %"struct.std::_Vector_base.9", %"struct.std::_Vector_base.9"* %8, i32 0, i32 0
  %10 = getelementptr inbounds %"struct.std::_Vector_base<int, std::allocator<int> >::_Vector_impl", %"struct.std::_Vector_base<int, std::allocator<int> >::_Vector_impl"* %9, i32 0, i32 2
  %11 = load i32*, i32** %10, align 8
  %12 = icmp ne i32* %7, %11
  br i1 %12, label %13, label %27

13:                                               ; preds = %2
  %14 = bitcast %"class.std::vector.8"* %0 to %"struct.std::_Vector_base.9"*
  %15 = getelementptr inbounds %"struct.std::_Vector_base.9", %"struct.std::_Vector_base.9"* %14, i32 0, i32 0
  %16 = bitcast %"struct.std::_Vector_base<int, std::allocator<int> >::_Vector_impl"* %15 to %"class.std::allocator.10"*
  %17 = bitcast %"class.std::vector.8"* %0 to %"struct.std::_Vector_base.9"*
  %18 = getelementptr inbounds %"struct.std::_Vector_base.9", %"struct.std::_Vector_base.9"* %17, i32 0, i32 0
  %19 = getelementptr inbounds %"struct.std::_Vector_base<int, std::allocator<int> >::_Vector_impl", %"struct.std::_Vector_base<int, std::allocator<int> >::_Vector_impl"* %18, i32 0, i32 1
  %20 = load i32*, i32** %19, align 8
  %21 = call dereferenceable(4) i32* @_ZSt7forwardIRiEOT_RNSt16remove_referenceIS1_E4typeE(i32* dereferenceable(4) %1) #3
  call void @_ZNSt16allocator_traitsISaIiEE9constructIiJRiEEEvRS0_PT_DpOT0_(%"class.std::allocator.10"* dereferenceable(1) %16, i32* %20, i32* dereferenceable(4) %21)
  %22 = bitcast %"class.std::vector.8"* %0 to %"struct.std::_Vector_base.9"*
  %23 = getelementptr inbounds %"struct.std::_Vector_base.9", %"struct.std::_Vector_base.9"* %22, i32 0, i32 0
  %24 = getelementptr inbounds %"struct.std::_Vector_base<int, std::allocator<int> >::_Vector_impl", %"struct.std::_Vector_base<int, std::allocator<int> >::_Vector_impl"* %23, i32 0, i32 1
  %25 = load i32*, i32** %24, align 8
  %26 = getelementptr inbounds i32, i32* %25, i32 1
  store i32* %26, i32** %24, align 8
  br label %33

27:                                               ; preds = %2
  %28 = call i32* @_ZNSt6vectorIiSaIiEE3endEv(%"class.std::vector.8"* %0) #3
  %29 = getelementptr inbounds %"class.__gnu_cxx::__normal_iterator", %"class.__gnu_cxx::__normal_iterator"* %3, i32 0, i32 0
  store i32* %28, i32** %29, align 8
  %30 = call dereferenceable(4) i32* @_ZSt7forwardIRiEOT_RNSt16remove_referenceIS1_E4typeE(i32* dereferenceable(4) %1) #3
  %31 = getelementptr inbounds %"class.__gnu_cxx::__normal_iterator", %"class.__gnu_cxx::__normal_iterator"* %3, i32 0, i32 0
  %32 = load i32*, i32** %31, align 8
  call void @_ZNSt6vectorIiSaIiEE17_M_realloc_insertIJRiEEEvN9__gnu_cxx17__normal_iteratorIPiS1_EEDpOT_(%"class.std::vector.8"* %0, i32* %32, i32* dereferenceable(4) %30)
  br label %33

33:                                               ; preds = %27, %13
  ret void
}

; Function Attrs: nounwind
declare void @_ZNSt7__cxx1112basic_stringIcSt11char_traitsIcESaIcEED1Ev(%"class.std::__cxx11::basic_string"*) unnamed_addr #2

; Function Attrs: noinline nounwind uwtable
define linkonce_odr i64 @_ZNKSt6vectorINSt7__cxx1112basic_stringIcSt11char_traitsIcESaIcEEESaIS5_EE4sizeEv(%"class.std::vector"* %0) #4 comdat align 2 {
  %2 = bitcast %"class.std::vector"* %0 to %"struct.std::_Vector_base"*
  %3 = getelementptr inbounds %"struct.std::_Vector_base", %"struct.std::_Vector_base"* %2, i32 0, i32 0
  %4 = getelementptr inbounds %"struct.std::_Vector_base<std::__cxx11::basic_string<char>, std::allocator<std::__cxx11::basic_string<char> > >::_Vector_impl", %"struct.std::_Vector_base<std::__cxx11::basic_string<char>, std::allocator<std::__cxx11::basic_string<char> > >::_Vector_impl"* %3, i32 0, i32 1
  %5 = load %"class.std::__cxx11::basic_string"*, %"class.std::__cxx11::basic_string"** %4, align 8
  %6 = bitcast %"class.std::vector"* %0 to %"struct.std::_Vector_base"*
  %7 = getelementptr inbounds %"struct.std::_Vector_base", %"struct.std::_Vector_base"* %6, i32 0, i32 0
  %8 = getelementptr inbounds %"struct.std::_Vector_base<std::__cxx11::basic_string<char>, std::allocator<std::__cxx11::basic_string<char> > >::_Vector_impl", %"struct.std::_Vector_base<std::__cxx11::basic_string<char>, std::allocator<std::__cxx11::basic_string<char> > >::_Vector_impl"* %7, i32 0, i32 0
  %9 = load %"class.std::__cxx11::basic_string"*, %"class.std::__cxx11::basic_string"** %8, align 8
  %10 = ptrtoint %"class.std::__cxx11::basic_string"* %5 to i64
  %11 = ptrtoint %"class.std::__cxx11::basic_string"* %9 to i64
  %12 = sub i64 %10, %11
  %13 = sdiv exact i64 %12, 32
  ret i64 %13
}

; Function Attrs: noinline uwtable
define linkonce_odr void @_ZN11AhoCorasickILi26ELi97EEC2Ev(%class.AhoCorasick* %0) unnamed_addr #0 comdat align 2 personality i8* bitcast (i32 (...)* @__gxx_personality_v0 to i8*) {
  %2 = alloca %"class.std::allocator.18", align 1
  %3 = getelementptr inbounds %class.AhoCorasick, %class.AhoCorasick* %0, i32 0, i32 0
  call void @_ZNSaIN11AhoCorasickILi26ELi97EE4NodeEEC2Ev(%"class.std::allocator.18"* %2) #3
  invoke void @_ZNSt6vectorIN11AhoCorasickILi26ELi97EE4NodeESaIS2_EEC2EmRKS3_(%"class.std::vector.16"* %3, i64 1, %"class.std::allocator.18"* dereferenceable(1) %2)
          to label %4 unwind label %6

4:                                                ; preds = %1
  call void @_ZNSaIN11AhoCorasickILi26ELi97EE4NodeEED2Ev(%"class.std::allocator.18"* %2) #3
  %5 = getelementptr inbounds %class.AhoCorasick, %class.AhoCorasick* %0, i32 0, i32 1
  call void @_ZNSt6vectorIiSaIiEEC2Ev(%"class.std::vector.8"* %5) #3
  ret void

6:                                                ; preds = %1
  %7 = landingpad { i8*, i32 }
          cleanup
  %8 = extractvalue { i8*, i32 } %7, 0
  %9 = extractvalue { i8*, i32 } %7, 1
  call void @_ZNSaIN11AhoCorasickILi26ELi97EE4NodeEED2Ev(%"class.std::allocator.18"* %2) #3
  br label %10

10:                                               ; preds = %6
  %11 = insertvalue { i8*, i32 } undef, i8* %8, 0
  %12 = insertvalue { i8*, i32 } %11, i32 %9, 1
  resume { i8*, i32 } %12
}

; Function Attrs: noinline nounwind uwtable
define linkonce_odr dereferenceable(32) %"class.std::__cxx11::basic_string"* @_ZNSt6vectorINSt7__cxx1112basic_stringIcSt11char_traitsIcESaIcEEESaIS5_EEixEm(%"class.std::vector"* %0, i64 %1) #4 comdat align 2 {
  %3 = bitcast %"class.std::vector"* %0 to %"struct.std::_Vector_base"*
  %4 = getelementptr inbounds %"struct.std::_Vector_base", %"struct.std::_Vector_base"* %3, i32 0, i32 0
  %5 = getelementptr inbounds %"struct.std::_Vector_base<std::__cxx11::basic_string<char>, std::allocator<std::__cxx11::basic_string<char> > >::_Vector_impl", %"struct.std::_Vector_base<std::__cxx11::basic_string<char>, std::allocator<std::__cxx11::basic_string<char> > >::_Vector_impl"* %4, i32 0, i32 0
  %6 = load %"class.std::__cxx11::basic_string"*, %"class.std::__cxx11::basic_string"** %5, align 8
  %7 = getelementptr inbounds %"class.std::__cxx11::basic_string", %"class.std::__cxx11::basic_string"* %6, i64 %1
  ret %"class.std::__cxx11::basic_string"* %7
}

; Function Attrs: noinline uwtable
define linkonce_odr i32 @_ZN11AhoCorasickILi26ELi97EE3addERNSt7__cxx1112basic_stringIcSt11char_traitsIcESaIcEEEi(%class.AhoCorasick* %0, %"class.std::__cxx11::basic_string"* dereferenceable(32) %1, i32 %2) #0 comdat align 2 {
  %4 = alloca %"class.__gnu_cxx::__normal_iterator.21", align 8
  %5 = alloca %"class.__gnu_cxx::__normal_iterator.21", align 8
  %6 = call i8* @_ZNSt7__cxx1112basic_stringIcSt11char_traitsIcESaIcEE5beginEv(%"class.std::__cxx11::basic_string"* %1) #3
  %7 = getelementptr inbounds %"class.__gnu_cxx::__normal_iterator.21", %"class.__gnu_cxx::__normal_iterator.21"* %4, i32 0, i32 0
  store i8* %6, i8** %7, align 8
  %8 = call i8* @_ZNSt7__cxx1112basic_stringIcSt11char_traitsIcESaIcEE3endEv(%"class.std::__cxx11::basic_string"* %1) #3
  %9 = getelementptr inbounds %"class.__gnu_cxx::__normal_iterator.21", %"class.__gnu_cxx::__normal_iterator.21"* %5, i32 0, i32 0
  store i8* %8, i8** %9, align 8
  br label %10

10:                                               ; preds = %50, %3
  %.0 = phi i32 [ %2, %3 ], [ %49, %50 ]
  %11 = call zeroext i1 @_ZN9__gnu_cxxneIPcNSt7__cxx1112basic_stringIcSt11char_traitsIcESaIcEEEEEbRKNS_17__normal_iteratorIT_T0_EESD_(%"class.__gnu_cxx::__normal_iterator.21"* dereferenceable(8) %4, %"class.__gnu_cxx::__normal_iterator.21"* dereferenceable(8) %5) #3
  br i1 %11, label %12, label %52

12:                                               ; preds = %10
  %13 = call dereferenceable(1) i8* @_ZNK9__gnu_cxx17__normal_iteratorIPcNSt7__cxx1112basic_stringIcSt11char_traitsIcESaIcEEEEdeEv(%"class.__gnu_cxx::__normal_iterator.21"* %4) #3
  %14 = getelementptr inbounds %class.AhoCorasick, %class.AhoCorasick* %0, i32 0, i32 0
  %15 = sext i32 %.0 to i64
  %16 = call dereferenceable(108) %"struct.AhoCorasick<26, 97>::Node"* @_ZNSt6vectorIN11AhoCorasickILi26ELi97EE4NodeESaIS2_EEixEm(%"class.std::vector.16"* %14, i64 %15) #3
  %17 = getelementptr inbounds %"struct.AhoCorasick<26, 97>::Node", %"struct.AhoCorasick<26, 97>::Node"* %16, i32 0, i32 0
  %18 = load i8, i8* %13, align 1
  %19 = sext i8 %18 to i32
  %20 = sub nsw i32 %19, 97
  %21 = sext i32 %20 to i64
  %22 = call dereferenceable(4) i32* @_ZNSt5arrayIiLm26EEixEm(%"struct.std::array"* %17, i64 %21) #3
  %23 = load i32, i32* %22, align 4
  %24 = icmp ne i32 %23, 0
  br i1 %24, label %39, label %25

25:                                               ; preds = %12
  %26 = getelementptr inbounds %class.AhoCorasick, %class.AhoCorasick* %0, i32 0, i32 0
  %27 = call i64 @_ZNKSt6vectorIN11AhoCorasickILi26ELi97EE4NodeESaIS2_EE4sizeEv(%"class.std::vector.16"* %26) #3
  %28 = trunc i64 %27 to i32
  %29 = getelementptr inbounds %class.AhoCorasick, %class.AhoCorasick* %0, i32 0, i32 0
  %30 = sext i32 %.0 to i64
  %31 = call dereferenceable(108) %"struct.AhoCorasick<26, 97>::Node"* @_ZNSt6vectorIN11AhoCorasickILi26ELi97EE4NodeESaIS2_EEixEm(%"class.std::vector.16"* %29, i64 %30) #3
  %32 = getelementptr inbounds %"struct.AhoCorasick<26, 97>::Node", %"struct.AhoCorasick<26, 97>::Node"* %31, i32 0, i32 0
  %33 = load i8, i8* %13, align 1
  %34 = sext i8 %33 to i32
  %35 = sub nsw i32 %34, 97
  %36 = sext i32 %35 to i64
  %37 = call dereferenceable(4) i32* @_ZNSt5arrayIiLm26EEixEm(%"struct.std::array"* %32, i64 %36) #3
  store i32 %28, i32* %37, align 4
  %38 = getelementptr inbounds %class.AhoCorasick, %class.AhoCorasick* %0, i32 0, i32 0
  call void @_ZNSt6vectorIN11AhoCorasickILi26ELi97EE4NodeESaIS2_EE12emplace_backIJEEEvDpOT_(%"class.std::vector.16"* %38)
  br label %39

39:                                               ; preds = %25, %12
  %40 = getelementptr inbounds %class.AhoCorasick, %class.AhoCorasick* %0, i32 0, i32 0
  %41 = sext i32 %.0 to i64
  %42 = call dereferenceable(108) %"struct.AhoCorasick<26, 97>::Node"* @_ZNSt6vectorIN11AhoCorasickILi26ELi97EE4NodeESaIS2_EEixEm(%"class.std::vector.16"* %40, i64 %41) #3
  %43 = getelementptr inbounds %"struct.AhoCorasick<26, 97>::Node", %"struct.AhoCorasick<26, 97>::Node"* %42, i32 0, i32 0
  %44 = load i8, i8* %13, align 1
  %45 = sext i8 %44 to i32
  %46 = sub nsw i32 %45, 97
  %47 = sext i32 %46 to i64
  %48 = call dereferenceable(4) i32* @_ZNSt5arrayIiLm26EEixEm(%"struct.std::array"* %43, i64 %47) #3
  %49 = load i32, i32* %48, align 4
  br label %50

50:                                               ; preds = %39
  %51 = call dereferenceable(8) %"class.__gnu_cxx::__normal_iterator.21"* @_ZN9__gnu_cxx17__normal_iteratorIPcNSt7__cxx1112basic_stringIcSt11char_traitsIcESaIcEEEEppEv(%"class.__gnu_cxx::__normal_iterator.21"* %4) #3
  br label %10

52:                                               ; preds = %10
  ret i32 %.0
}

; Function Attrs: noinline uwtable
define linkonce_odr void @_ZN11AhoCorasickILi26ELi97EE5buildEv(%class.AhoCorasick* %0) #0 comdat align 2 {
  %2 = alloca i32, align 4
  %3 = alloca i32, align 4
  %4 = getelementptr inbounds %class.AhoCorasick, %class.AhoCorasick* %0, i32 0, i32 0
  %5 = call dereferenceable(108) %"struct.AhoCorasick<26, 97>::Node"* @_ZNSt6vectorIN11AhoCorasickILi26ELi97EE4NodeESaIS2_EEixEm(%"class.std::vector.16"* %4, i64 0) #3
  %6 = getelementptr inbounds %"struct.AhoCorasick<26, 97>::Node", %"struct.AhoCorasick<26, 97>::Node"* %5, i32 0, i32 1
  store i32 -1, i32* %6, align 4
  %7 = getelementptr inbounds %class.AhoCorasick, %class.AhoCorasick* %0, i32 0, i32 1
  call void @_ZNSt6vectorIiSaIiEE5clearEv(%"class.std::vector.8"* %7) #3
  %8 = getelementptr inbounds %class.AhoCorasick, %class.AhoCorasick* %0, i32 0, i32 1
  %9 = getelementptr inbounds %class.AhoCorasick, %class.AhoCorasick* %0, i32 0, i32 0
  %10 = call i64 @_ZNKSt6vectorIN11AhoCorasickILi26ELi97EE4NodeESaIS2_EE4sizeEv(%"class.std::vector.16"* %9) #3
  call void @_ZNSt6vectorIiSaIiEE7reserveEm(%"class.std::vector.8"* %8, i64 %10)
  %11 = getelementptr inbounds %class.AhoCorasick, %class.AhoCorasick* %0, i32 0, i32 1
  store i32 0, i32* %2, align 4
  call void @_ZNSt6vectorIiSaIiEE12emplace_backIJiEEEvDpOT_(%"class.std::vector.8"* %11, i32* dereferenceable(4) %2)
  br label %12

12:                                               ; preds = %108, %1
  %.02 = phi i32 [ 1, %1 ], [ %.1, %108 ]
  %.01 = phi i32 [ 0, %1 ], [ %19, %108 ]
  %13 = icmp slt i32 %.01, %.02
  br i1 %13, label %14, label %109

14:                                               ; preds = %12
  %15 = getelementptr inbounds %class.AhoCorasick, %class.AhoCorasick* %0, i32 0, i32 1
  %16 = sext i32 %.01 to i64
  %17 = call dereferenceable(4) i32* @_ZNSt6vectorIiSaIiEEixEm(%"class.std::vector.8"* %15, i64 %16) #3
  %18 = load i32, i32* %17, align 4
  %19 = add nsw i32 %.01, 1
  br label %20

20:                                               ; preds = %69, %14
  %.03 = phi i32 [ 0, %14 ], [ %70, %69 ]
  %.1 = phi i32 [ %.02, %14 ], [ %.2, %69 ]
  %21 = icmp slt i32 %.03, 26
  br i1 %21, label %22, label %71

22:                                               ; preds = %20
  %23 = getelementptr inbounds %class.AhoCorasick, %class.AhoCorasick* %0, i32 0, i32 0
  %24 = sext i32 %18 to i64
  %25 = call dereferenceable(108) %"struct.AhoCorasick<26, 97>::Node"* @_ZNSt6vectorIN11AhoCorasickILi26ELi97EE4NodeESaIS2_EEixEm(%"class.std::vector.16"* %23, i64 %24) #3
  %26 = getelementptr inbounds %"struct.AhoCorasick<26, 97>::Node", %"struct.AhoCorasick<26, 97>::Node"* %25, i32 0, i32 0
  %27 = sext i32 %.03 to i64
  %28 = call dereferenceable(4) i32* @_ZNSt5arrayIiLm26EEixEm(%"struct.std::array"* %26, i64 %27) #3
  %29 = load i32, i32* %28, align 4
  %30 = icmp ne i32 %29, 0
  br i1 %30, label %32, label %31

31:                                               ; preds = %22
  br label %69

32:                                               ; preds = %22
  %33 = getelementptr inbounds %class.AhoCorasick, %class.AhoCorasick* %0, i32 0, i32 0
  %34 = sext i32 %18 to i64
  %35 = call dereferenceable(108) %"struct.AhoCorasick<26, 97>::Node"* @_ZNSt6vectorIN11AhoCorasickILi26ELi97EE4NodeESaIS2_EEixEm(%"class.std::vector.16"* %33, i64 %34) #3
  %36 = getelementptr inbounds %"struct.AhoCorasick<26, 97>::Node", %"struct.AhoCorasick<26, 97>::Node"* %35, i32 0, i32 0
  %37 = sext i32 %.03 to i64
  %38 = call dereferenceable(4) i32* @_ZNSt5arrayIiLm26EEixEm(%"struct.std::array"* %36, i64 %37) #3
  %39 = load i32, i32* %38, align 4
  store i32 %39, i32* %3, align 4
  %40 = getelementptr inbounds %class.AhoCorasick, %class.AhoCorasick* %0, i32 0, i32 0
  %41 = sext i32 %18 to i64
  %42 = call dereferenceable(108) %"struct.AhoCorasick<26, 97>::Node"* @_ZNSt6vectorIN11AhoCorasickILi26ELi97EE4NodeESaIS2_EEixEm(%"class.std::vector.16"* %40, i64 %41) #3
  %43 = getelementptr inbounds %"struct.AhoCorasick<26, 97>::Node", %"struct.AhoCorasick<26, 97>::Node"* %42, i32 0, i32 1
  %44 = load i32, i32* %43, align 4
  %45 = icmp eq i32 %44, -1
  br i1 %45, label %46, label %47

46:                                               ; preds = %32
  br label %60

47:                                               ; preds = %32
  %48 = getelementptr inbounds %class.AhoCorasick, %class.AhoCorasick* %0, i32 0, i32 0
  %49 = getelementptr inbounds %class.AhoCorasick, %class.AhoCorasick* %0, i32 0, i32 0
  %50 = sext i32 %18 to i64
  %51 = call dereferenceable(108) %"struct.AhoCorasick<26, 97>::Node"* @_ZNSt6vectorIN11AhoCorasickILi26ELi97EE4NodeESaIS2_EEixEm(%"class.std::vector.16"* %49, i64 %50) #3
  %52 = getelementptr inbounds %"struct.AhoCorasick<26, 97>::Node", %"struct.AhoCorasick<26, 97>::Node"* %51, i32 0, i32 1
  %53 = load i32, i32* %52, align 4
  %54 = sext i32 %53 to i64
  %55 = call dereferenceable(108) %"struct.AhoCorasick<26, 97>::Node"* @_ZNSt6vectorIN11AhoCorasickILi26ELi97EE4NodeESaIS2_EEixEm(%"class.std::vector.16"* %48, i64 %54) #3
  %56 = getelementptr inbounds %"struct.AhoCorasick<26, 97>::Node", %"struct.AhoCorasick<26, 97>::Node"* %55, i32 0, i32 0
  %57 = sext i32 %.03 to i64
  %58 = call dereferenceable(4) i32* @_ZNSt5arrayIiLm26EEixEm(%"struct.std::array"* %56, i64 %57) #3
  %59 = load i32, i32* %58, align 4
  br label %60

60:                                               ; preds = %47, %46
  %61 = phi i32 [ 0, %46 ], [ %59, %47 ]
  %62 = getelementptr inbounds %class.AhoCorasick, %class.AhoCorasick* %0, i32 0, i32 0
  %63 = load i32, i32* %3, align 4
  %64 = sext i32 %63 to i64
  %65 = call dereferenceable(108) %"struct.AhoCorasick<26, 97>::Node"* @_ZNSt6vectorIN11AhoCorasickILi26ELi97EE4NodeESaIS2_EEixEm(%"class.std::vector.16"* %62, i64 %64) #3
  %66 = getelementptr inbounds %"struct.AhoCorasick<26, 97>::Node", %"struct.AhoCorasick<26, 97>::Node"* %65, i32 0, i32 1
  store i32 %61, i32* %66, align 4
  %67 = getelementptr inbounds %class.AhoCorasick, %class.AhoCorasick* %0, i32 0, i32 1
  call void @_ZNSt6vectorIiSaIiEE12emplace_backIJRiEEEvDpOT_(%"class.std::vector.8"* %67, i32* dereferenceable(4) %3)
  %68 = add nsw i32 %.1, 1
  br label %69

69:                                               ; preds = %60, %31
  %.2 = phi i32 [ %68, %60 ], [ %.1, %31 ]
  %70 = add nsw i32 %.03, 1
  br label %20

71:                                               ; preds = %20
  %72 = icmp ne i32 %18, 0
  br i1 %72, label %73, label %108

73:                                               ; preds = %71
  br label %74

74:                                               ; preds = %105, %73
  %.0 = phi i32 [ 0, %73 ], [ %106, %105 ]
  %75 = icmp slt i32 %.0, 26
  br i1 %75, label %76, label %107

76:                                               ; preds = %74
  %77 = getelementptr inbounds %class.AhoCorasick, %class.AhoCorasick* %0, i32 0, i32 0
  %78 = sext i32 %18 to i64
  %79 = call dereferenceable(108) %"struct.AhoCorasick<26, 97>::Node"* @_ZNSt6vectorIN11AhoCorasickILi26ELi97EE4NodeESaIS2_EEixEm(%"class.std::vector.16"* %77, i64 %78) #3
  %80 = getelementptr inbounds %"struct.AhoCorasick<26, 97>::Node", %"struct.AhoCorasick<26, 97>::Node"* %79, i32 0, i32 0
  %81 = sext i32 %.0 to i64
  %82 = call dereferenceable(4) i32* @_ZNSt5arrayIiLm26EEixEm(%"struct.std::array"* %80, i64 %81) #3
  %83 = load i32, i32* %82, align 4
  %84 = icmp ne i32 %83, 0
  br i1 %84, label %104, label %85

85:                                               ; preds = %76
  %86 = getelementptr inbounds %class.AhoCorasick, %class.AhoCorasick* %0, i32 0, i32 0
  %87 = getelementptr inbounds %class.AhoCorasick, %class.AhoCorasick* %0, i32 0, i32 0
  %88 = sext i32 %18 to i64
  %89 = call dereferenceable(108) %"struct.AhoCorasick<26, 97>::Node"* @_ZNSt6vectorIN11AhoCorasickILi26ELi97EE4NodeESaIS2_EEixEm(%"class.std::vector.16"* %87, i64 %88) #3
  %90 = getelementptr inbounds %"struct.AhoCorasick<26, 97>::Node", %"struct.AhoCorasick<26, 97>::Node"* %89, i32 0, i32 1
  %91 = load i32, i32* %90, align 4
  %92 = sext i32 %91 to i64
  %93 = call dereferenceable(108) %"struct.AhoCorasick<26, 97>::Node"* @_ZNSt6vectorIN11AhoCorasickILi26ELi97EE4NodeESaIS2_EEixEm(%"class.std::vector.16"* %86, i64 %92) #3
  %94 = getelementptr inbounds %"struct.AhoCorasick<26, 97>::Node", %"struct.AhoCorasick<26, 97>::Node"* %93, i32 0, i32 0
  %95 = sext i32 %.0 to i64
  %96 = call dereferenceable(4) i32* @_ZNSt5arrayIiLm26EEixEm(%"struct.std::array"* %94, i64 %95) #3
  %97 = load i32, i32* %96, align 4
  %98 = getelementptr inbounds %class.AhoCorasick, %class.AhoCorasick* %0, i32 0, i32 0
  %99 = sext i32 %18 to i64
  %100 = call dereferenceable(108) %"struct.AhoCorasick<26, 97>::Node"* @_ZNSt6vectorIN11AhoCorasickILi26ELi97EE4NodeESaIS2_EEixEm(%"class.std::vector.16"* %98, i64 %99) #3
  %101 = getelementptr inbounds %"struct.AhoCorasick<26, 97>::Node", %"struct.AhoCorasick<26, 97>::Node"* %100, i32 0, i32 0
  %102 = sext i32 %.0 to i64
  %103 = call dereferenceable(4) i32* @_ZNSt5arrayIiLm26EEixEm(%"struct.std::array"* %101, i64 %102) #3
  store i32 %97, i32* %103, align 4
  br label %104

104:                                              ; preds = %85, %76
  br label %105

105:                                              ; preds = %104
  %106 = add nsw i32 %.0, 1
  br label %74

107:                                              ; preds = %74
  br label %108

108:                                              ; preds = %107, %71
  br label %12

109:                                              ; preds = %12
  ret void
}

; Function Attrs: noinline nounwind uwtable
define linkonce_odr i32* @_ZNSt6vectorIiSaIiEE5beginEv(%"class.std::vector.8"* %0) #4 comdat align 2 {
  %2 = alloca %"class.__gnu_cxx::__normal_iterator", align 8
  %3 = bitcast %"class.std::vector.8"* %0 to %"struct.std::_Vector_base.9"*
  %4 = getelementptr inbounds %"struct.std::_Vector_base.9", %"struct.std::_Vector_base.9"* %3, i32 0, i32 0
  %5 = getelementptr inbounds %"struct.std::_Vector_base<int, std::allocator<int> >::_Vector_impl", %"struct.std::_Vector_base<int, std::allocator<int> >::_Vector_impl"* %4, i32 0, i32 0
  call void @_ZN9__gnu_cxx17__normal_iteratorIPiSt6vectorIiSaIiEEEC2ERKS1_(%"class.__gnu_cxx::__normal_iterator"* %2, i32** dereferenceable(8) %5) #3
  %6 = getelementptr inbounds %"class.__gnu_cxx::__normal_iterator", %"class.__gnu_cxx::__normal_iterator"* %2, i32 0, i32 0
  %7 = load i32*, i32** %6, align 8
  ret i32* %7
}

; Function Attrs: noinline nounwind uwtable
define linkonce_odr i32* @_ZNSt6vectorIiSaIiEE3endEv(%"class.std::vector.8"* %0) #4 comdat align 2 {
  %2 = alloca %"class.__gnu_cxx::__normal_iterator", align 8
  %3 = bitcast %"class.std::vector.8"* %0 to %"struct.std::_Vector_base.9"*
  %4 = getelementptr inbounds %"struct.std::_Vector_base.9", %"struct.std::_Vector_base.9"* %3, i32 0, i32 0
  %5 = getelementptr inbounds %"struct.std::_Vector_base<int, std::allocator<int> >::_Vector_impl", %"struct.std::_Vector_base<int, std::allocator<int> >::_Vector_impl"* %4, i32 0, i32 1
  call void @_ZN9__gnu_cxx17__normal_iteratorIPiSt6vectorIiSaIiEEEC2ERKS1_(%"class.__gnu_cxx::__normal_iterator"* %2, i32** dereferenceable(8) %5) #3
  %6 = getelementptr inbounds %"class.__gnu_cxx::__normal_iterator", %"class.__gnu_cxx::__normal_iterator"* %2, i32 0, i32 0
  %7 = load i32*, i32** %6, align 8
  ret i32* %7
}

; Function Attrs: noinline nounwind uwtable
define linkonce_odr zeroext i1 @_ZN9__gnu_cxxneIPiSt6vectorIiSaIiEEEEbRKNS_17__normal_iteratorIT_T0_EESA_(%"class.__gnu_cxx::__normal_iterator"* dereferenceable(8) %0, %"class.__gnu_cxx::__normal_iterator"* dereferenceable(8) %1) #4 comdat {
  %3 = call dereferenceable(8) i32** @_ZNK9__gnu_cxx17__normal_iteratorIPiSt6vectorIiSaIiEEE4baseEv(%"class.__gnu_cxx::__normal_iterator"* %0) #3
  %4 = load i32*, i32** %3, align 8
  %5 = call dereferenceable(8) i32** @_ZNK9__gnu_cxx17__normal_iteratorIPiSt6vectorIiSaIiEEE4baseEv(%"class.__gnu_cxx::__normal_iterator"* %1) #3
  %6 = load i32*, i32** %5, align 8
  %7 = icmp ne i32* %4, %6
  ret i1 %7
}

; Function Attrs: noinline nounwind uwtable
define linkonce_odr dereferenceable(4) i32* @_ZNK9__gnu_cxx17__normal_iteratorIPiSt6vectorIiSaIiEEEdeEv(%"class.__gnu_cxx::__normal_iterator"* %0) #4 comdat align 2 {
  %2 = getelementptr inbounds %"class.__gnu_cxx::__normal_iterator", %"class.__gnu_cxx::__normal_iterator"* %0, i32 0, i32 0
  %3 = load i32*, i32** %2, align 8
  ret i32* %3
}

; Function Attrs: noinline nounwind uwtable
define linkonce_odr dereferenceable(108) %"struct.AhoCorasick<26, 97>::Node"* @_ZNSt6vectorIN11AhoCorasickILi26ELi97EE4NodeESaIS2_EEixEm(%"class.std::vector.16"* %0, i64 %1) #4 comdat align 2 {
  %3 = bitcast %"class.std::vector.16"* %0 to %"struct.std::_Vector_base.17"*
  %4 = getelementptr inbounds %"struct.std::_Vector_base.17", %"struct.std::_Vector_base.17"* %3, i32 0, i32 0
  %5 = getelementptr inbounds %"struct.std::_Vector_base<AhoCorasick<26, 97>::Node, std::allocator<AhoCorasick<26, 97>::Node> >::_Vector_impl", %"struct.std::_Vector_base<AhoCorasick<26, 97>::Node, std::allocator<AhoCorasick<26, 97>::Node> >::_Vector_impl"* %4, i32 0, i32 0
  %6 = load %"struct.AhoCorasick<26, 97>::Node"*, %"struct.AhoCorasick<26, 97>::Node"** %5, align 8
  %7 = getelementptr inbounds %"struct.AhoCorasick<26, 97>::Node", %"struct.AhoCorasick<26, 97>::Node"* %6, i64 %1
  ret %"struct.AhoCorasick<26, 97>::Node"* %7
}

; Function Attrs: noinline nounwind uwtable
define linkonce_odr dereferenceable(8) %"class.__gnu_cxx::__normal_iterator"* @_ZN9__gnu_cxx17__normal_iteratorIPiSt6vectorIiSaIiEEEppEv(%"class.__gnu_cxx::__normal_iterator"* %0) #4 comdat align 2 {
  %2 = getelementptr inbounds %"class.__gnu_cxx::__normal_iterator", %"class.__gnu_cxx::__normal_iterator"* %0, i32 0, i32 0
  %3 = load i32*, i32** %2, align 8
  %4 = getelementptr inbounds i32, i32* %3, i32 1
  store i32* %4, i32** %2, align 8
  ret %"class.__gnu_cxx::__normal_iterator"* %0
}

; Function Attrs: noinline nounwind uwtable
define linkonce_odr i64 @_ZNKSt6vectorIN11AhoCorasickILi26ELi97EE4NodeESaIS2_EE4sizeEv(%"class.std::vector.16"* %0) #4 comdat align 2 {
  %2 = bitcast %"class.std::vector.16"* %0 to %"struct.std::_Vector_base.17"*
  %3 = getelementptr inbounds %"struct.std::_Vector_base.17", %"struct.std::_Vector_base.17"* %2, i32 0, i32 0
  %4 = getelementptr inbounds %"struct.std::_Vector_base<AhoCorasick<26, 97>::Node, std::allocator<AhoCorasick<26, 97>::Node> >::_Vector_impl", %"struct.std::_Vector_base<AhoCorasick<26, 97>::Node, std::allocator<AhoCorasick<26, 97>::Node> >::_Vector_impl"* %3, i32 0, i32 1
  %5 = load %"struct.AhoCorasick<26, 97>::Node"*, %"struct.AhoCorasick<26, 97>::Node"** %4, align 8
  %6 = bitcast %"class.std::vector.16"* %0 to %"struct.std::_Vector_base.17"*
  %7 = getelementptr inbounds %"struct.std::_Vector_base.17", %"struct.std::_Vector_base.17"* %6, i32 0, i32 0
  %8 = getelementptr inbounds %"struct.std::_Vector_base<AhoCorasick<26, 97>::Node, std::allocator<AhoCorasick<26, 97>::Node> >::_Vector_impl", %"struct.std::_Vector_base<AhoCorasick<26, 97>::Node, std::allocator<AhoCorasick<26, 97>::Node> >::_Vector_impl"* %7, i32 0, i32 0
  %9 = load %"struct.AhoCorasick<26, 97>::Node"*, %"struct.AhoCorasick<26, 97>::Node"** %8, align 8
  %10 = ptrtoint %"struct.AhoCorasick<26, 97>::Node"* %5 to i64
  %11 = ptrtoint %"struct.AhoCorasick<26, 97>::Node"* %9 to i64
  %12 = sub i64 %10, %11
  %13 = sdiv exact i64 %12, 108
  ret i64 %13
}

; Function Attrs: nounwind
declare i8* @_ZNSt7__cxx1112basic_stringIcSt11char_traitsIcESaIcEE5beginEv(%"class.std::__cxx11::basic_string"*) #2

; Function Attrs: nounwind
declare i8* @_ZNSt7__cxx1112basic_stringIcSt11char_traitsIcESaIcEE3endEv(%"class.std::__cxx11::basic_string"*) #2

; Function Attrs: noinline nounwind uwtable
define linkonce_odr zeroext i1 @_ZN9__gnu_cxxneIPcNSt7__cxx1112basic_stringIcSt11char_traitsIcESaIcEEEEEbRKNS_17__normal_iteratorIT_T0_EESD_(%"class.__gnu_cxx::__normal_iterator.21"* dereferenceable(8) %0, %"class.__gnu_cxx::__normal_iterator.21"* dereferenceable(8) %1) #4 comdat {
  %3 = call dereferenceable(8) i8** @_ZNK9__gnu_cxx17__normal_iteratorIPcNSt7__cxx1112basic_stringIcSt11char_traitsIcESaIcEEEE4baseEv(%"class.__gnu_cxx::__normal_iterator.21"* %0) #3
  %4 = load i8*, i8** %3, align 8
  %5 = call dereferenceable(8) i8** @_ZNK9__gnu_cxx17__normal_iteratorIPcNSt7__cxx1112basic_stringIcSt11char_traitsIcESaIcEEEE4baseEv(%"class.__gnu_cxx::__normal_iterator.21"* %1) #3
  %6 = load i8*, i8** %5, align 8
  %7 = icmp ne i8* %4, %6
  ret i1 %7
}

; Function Attrs: noinline nounwind uwtable
define linkonce_odr dereferenceable(1) i8* @_ZNK9__gnu_cxx17__normal_iteratorIPcNSt7__cxx1112basic_stringIcSt11char_traitsIcESaIcEEEEdeEv(%"class.__gnu_cxx::__normal_iterator.21"* %0) #4 comdat align 2 {
  %2 = getelementptr inbounds %"class.__gnu_cxx::__normal_iterator.21", %"class.__gnu_cxx::__normal_iterator.21"* %0, i32 0, i32 0
  %3 = load i8*, i8** %2, align 8
  ret i8* %3
}

; Function Attrs: noinline nounwind uwtable
define linkonce_odr i32 @_ZN11AhoCorasickILi26ELi97EE4nextEic(%class.AhoCorasick* %0, i32 %1, i8 signext %2) #4 comdat align 2 {
  %4 = getelementptr inbounds %class.AhoCorasick, %class.AhoCorasick* %0, i32 0, i32 0
  %5 = sext i32 %1 to i64
  %6 = call dereferenceable(108) %"struct.AhoCorasick<26, 97>::Node"* @_ZNSt6vectorIN11AhoCorasickILi26ELi97EE4NodeESaIS2_EEixEm(%"class.std::vector.16"* %4, i64 %5) #3
  %7 = getelementptr inbounds %"struct.AhoCorasick<26, 97>::Node", %"struct.AhoCorasick<26, 97>::Node"* %6, i32 0, i32 0
  %8 = sext i8 %2 to i32
  %9 = sub nsw i32 %8, 97
  %10 = sext i32 %9 to i64
  %11 = call dereferenceable(4) i32* @_ZNSt5arrayIiLm26EEixEm(%"struct.std::array"* %7, i64 %10) #3
  %12 = load i32, i32* %11, align 4
  ret i32 %12
}

; Function Attrs: noinline nounwind uwtable
define linkonce_odr dereferenceable(8) %"class.__gnu_cxx::__normal_iterator.21"* @_ZN9__gnu_cxx17__normal_iteratorIPcNSt7__cxx1112basic_stringIcSt11char_traitsIcESaIcEEEEppEv(%"class.__gnu_cxx::__normal_iterator.21"* %0) #4 comdat align 2 {
  %2 = getelementptr inbounds %"class.__gnu_cxx::__normal_iterator.21", %"class.__gnu_cxx::__normal_iterator.21"* %0, i32 0, i32 0
  %3 = load i8*, i8** %2, align 8
  %4 = getelementptr inbounds i8, i8* %3, i32 1
  store i8* %4, i8** %2, align 8
  ret %"class.__gnu_cxx::__normal_iterator.21"* %0
}

; Function Attrs: noinline nounwind uwtable
define linkonce_odr void @_ZN11AhoCorasickILi26ELi97EED2Ev(%class.AhoCorasick* %0) unnamed_addr #4 comdat align 2 {
  %2 = getelementptr inbounds %class.AhoCorasick, %class.AhoCorasick* %0, i32 0, i32 1
  call void @_ZNSt6vectorIiSaIiEED2Ev(%"class.std::vector.8"* %2) #3
  %3 = getelementptr inbounds %class.AhoCorasick, %class.AhoCorasick* %0, i32 0, i32 0
  call void @_ZNSt6vectorIN11AhoCorasickILi26ELi97EE4NodeESaIS2_EED2Ev(%"class.std::vector.16"* %3) #3
  ret void
}

; Function Attrs: noinline nounwind uwtable
define linkonce_odr void @_ZNSt3mapINSt7__cxx1112basic_stringIcSt11char_traitsIcESaIcEEEiSt4lessIS5_ESaISt4pairIKS5_iEEED2Ev(%"class.std::map"* %0) unnamed_addr #4 comdat align 2 {
  %2 = getelementptr inbounds %"class.std::map", %"class.std::map"* %0, i32 0, i32 0
  call void @_ZNSt8_Rb_treeINSt7__cxx1112basic_stringIcSt11char_traitsIcESaIcEEESt4pairIKS5_iESt10_Select1stIS8_ESt4lessIS5_ESaIS8_EED2Ev(%"class.std::_Rb_tree"* %2) #3
  ret void
}

; Function Attrs: noinline nounwind uwtable
define linkonce_odr dereferenceable(4) %struct.modint* @_ZN6modintILj1000000007EEaSIiEERS0_T_(%struct.modint* %0, i32 %1) #4 comdat align 2 {
  %3 = srem i32 %1, 1000000007
  %4 = icmp slt i32 %3, 0
  br i1 %4, label %5, label %7

5:                                                ; preds = %2
  %6 = add nsw i32 %3, 1000000007
  br label %7

7:                                                ; preds = %5, %2
  %.0 = phi i32 [ %6, %5 ], [ %3, %2 ]
  %8 = getelementptr inbounds %struct.modint, %struct.modint* %0, i32 0, i32 0
  store i32 %.0, i32* %8, align 4
  ret %struct.modint* %0
}

; Function Attrs: noinline nounwind uwtable
define linkonce_odr void @_ZN6modintILj1000000007EEC2IiEET_(%struct.modint* %0, i32 %1) unnamed_addr #4 comdat align 2 {
  %3 = srem i32 %1, 1000000007
  %4 = icmp slt i32 %3, 0
  br i1 %4, label %5, label %7

5:                                                ; preds = %2
  %6 = add nsw i32 %3, 1000000007
  br label %7

7:                                                ; preds = %5, %2
  %.0 = phi i32 [ %6, %5 ], [ %3, %2 ]
  %8 = getelementptr inbounds %struct.modint, %struct.modint* %0, i32 0, i32 0
  store i32 %.0, i32* %8, align 4
  ret void
}

; Function Attrs: nounwind
declare i64 @_ZNKSt7__cxx1112basic_stringIcSt11char_traitsIcESaIcEE4sizeEv(%"class.std::__cxx11::basic_string"*) #2

; Function Attrs: noinline nounwind uwtable
define linkonce_odr dereferenceable(4) %struct.modint* @_ZN6modintILj1000000007EEpLES0_(%struct.modint* %0, i32 %1) #4 comdat align 2 {
  %3 = alloca %struct.modint, align 4
  %4 = getelementptr inbounds %struct.modint, %struct.modint* %3, i32 0, i32 0
  store i32 %1, i32* %4, align 4
  %5 = getelementptr inbounds %struct.modint, %struct.modint* %3, i32 0, i32 0
  %6 = load i32, i32* %5, align 4
  %7 = getelementptr inbounds %struct.modint, %struct.modint* %0, i32 0, i32 0
  %8 = load i32, i32* %7, align 4
  %9 = add i32 %8, %6
  store i32 %9, i32* %7, align 4
  %10 = getelementptr inbounds %struct.modint, %struct.modint* %0, i32 0, i32 0
  %11 = load i32, i32* %10, align 4
  %12 = icmp uge i32 %11, 1000000007
  br i1 %12, label %13, label %17

13:                                               ; preds = %2
  %14 = getelementptr inbounds %struct.modint, %struct.modint* %0, i32 0, i32 0
  %15 = load i32, i32* %14, align 4
  %16 = sub i32 %15, 1000000007
  store i32 %16, i32* %14, align 4
  br label %17

17:                                               ; preds = %13, %2
  ret %struct.modint* %0
}

declare dereferenceable(272) %"class.std::basic_ostream"* @_ZStlsISt11char_traitsIcEERSt13basic_ostreamIcT_ES5_PKc(%"class.std::basic_ostream"* dereferenceable(272), i8*) #1

declare dereferenceable(272) %"class.std::basic_ostream"* @_ZNSolsEj(%"class.std::basic_ostream"*, i32) #1

; Function Attrs: noinline nounwind uwtable
define linkonce_odr void @_ZNSt6vectorINSt7__cxx1112basic_stringIcSt11char_traitsIcESaIcEEESaIS5_EED2Ev(%"class.std::vector"* %0) unnamed_addr #4 comdat align 2 personality i8* bitcast (i32 (...)* @__gxx_personality_v0 to i8*) {
  %2 = bitcast %"class.std::vector"* %0 to %"struct.std::_Vector_base"*
  %3 = getelementptr inbounds %"struct.std::_Vector_base", %"struct.std::_Vector_base"* %2, i32 0, i32 0
  %4 = getelementptr inbounds %"struct.std::_Vector_base<std::__cxx11::basic_string<char>, std::allocator<std::__cxx11::basic_string<char> > >::_Vector_impl", %"struct.std::_Vector_base<std::__cxx11::basic_string<char>, std::allocator<std::__cxx11::basic_string<char> > >::_Vector_impl"* %3, i32 0, i32 0
  %5 = load %"class.std::__cxx11::basic_string"*, %"class.std::__cxx11::basic_string"** %4, align 8
  %6 = bitcast %"class.std::vector"* %0 to %"struct.std::_Vector_base"*
  %7 = getelementptr inbounds %"struct.std::_Vector_base", %"struct.std::_Vector_base"* %6, i32 0, i32 0
  %8 = getelementptr inbounds %"struct.std::_Vector_base<std::__cxx11::basic_string<char>, std::allocator<std::__cxx11::basic_string<char> > >::_Vector_impl", %"struct.std::_Vector_base<std::__cxx11::basic_string<char>, std::allocator<std::__cxx11::basic_string<char> > >::_Vector_impl"* %7, i32 0, i32 1
  %9 = load %"class.std::__cxx11::basic_string"*, %"class.std::__cxx11::basic_string"** %8, align 8
  %10 = bitcast %"class.std::vector"* %0 to %"struct.std::_Vector_base"*
  %11 = call dereferenceable(1) %"class.std::allocator"* @_ZNSt12_Vector_baseINSt7__cxx1112basic_stringIcSt11char_traitsIcESaIcEEESaIS5_EE19_M_get_Tp_allocatorEv(%"struct.std::_Vector_base"* %10) #3
  invoke void @_ZSt8_DestroyIPNSt7__cxx1112basic_stringIcSt11char_traitsIcESaIcEEES5_EvT_S7_RSaIT0_E(%"class.std::__cxx11::basic_string"* %5, %"class.std::__cxx11::basic_string"* %9, %"class.std::allocator"* dereferenceable(1) %11)
          to label %12 unwind label %14

12:                                               ; preds = %1
  %13 = bitcast %"class.std::vector"* %0 to %"struct.std::_Vector_base"*
  call void @_ZNSt12_Vector_baseINSt7__cxx1112basic_stringIcSt11char_traitsIcESaIcEEESaIS5_EED2Ev(%"struct.std::_Vector_base"* %13) #3
  ret void

14:                                               ; preds = %1
  %15 = landingpad { i8*, i32 }
          catch i8* null
  %16 = extractvalue { i8*, i32 } %15, 0
  %17 = extractvalue { i8*, i32 } %15, 1
  %18 = bitcast %"class.std::vector"* %0 to %"struct.std::_Vector_base"*
  call void @_ZNSt12_Vector_baseINSt7__cxx1112basic_stringIcSt11char_traitsIcESaIcEEESaIS5_EED2Ev(%"struct.std::_Vector_base"* %18) #3
  br label %19

19:                                               ; preds = %14
  call void @__clang_call_terminate(i8* %16) #14
  unreachable
}

; Function Attrs: noinline nounwind uwtable
define linkonce_odr void @_ZNSt6vectorIS_IiSaIiEESaIS1_EED2Ev(%"class.std::vector.3"* %0) unnamed_addr #4 comdat align 2 personality i8* bitcast (i32 (...)* @__gxx_personality_v0 to i8*) {
  %2 = bitcast %"class.std::vector.3"* %0 to %"struct.std::_Vector_base.4"*
  %3 = getelementptr inbounds %"struct.std::_Vector_base.4", %"struct.std::_Vector_base.4"* %2, i32 0, i32 0
  %4 = getelementptr inbounds %"struct.std::_Vector_base<std::vector<int, std::allocator<int> >, std::allocator<std::vector<int, std::allocator<int> > > >::_Vector_impl", %"struct.std::_Vector_base<std::vector<int, std::allocator<int> >, std::allocator<std::vector<int, std::allocator<int> > > >::_Vector_impl"* %3, i32 0, i32 0
  %5 = load %"class.std::vector.8"*, %"class.std::vector.8"** %4, align 8
  %6 = bitcast %"class.std::vector.3"* %0 to %"struct.std::_Vector_base.4"*
  %7 = getelementptr inbounds %"struct.std::_Vector_base.4", %"struct.std::_Vector_base.4"* %6, i32 0, i32 0
  %8 = getelementptr inbounds %"struct.std::_Vector_base<std::vector<int, std::allocator<int> >, std::allocator<std::vector<int, std::allocator<int> > > >::_Vector_impl", %"struct.std::_Vector_base<std::vector<int, std::allocator<int> >, std::allocator<std::vector<int, std::allocator<int> > > >::_Vector_impl"* %7, i32 0, i32 1
  %9 = load %"class.std::vector.8"*, %"class.std::vector.8"** %8, align 8
  %10 = bitcast %"class.std::vector.3"* %0 to %"struct.std::_Vector_base.4"*
  %11 = call dereferenceable(1) %"class.std::allocator.5"* @_ZNSt12_Vector_baseISt6vectorIiSaIiEESaIS2_EE19_M_get_Tp_allocatorEv(%"struct.std::_Vector_base.4"* %10) #3
  invoke void @_ZSt8_DestroyIPSt6vectorIiSaIiEES2_EvT_S4_RSaIT0_E(%"class.std::vector.8"* %5, %"class.std::vector.8"* %9, %"class.std::allocator.5"* dereferenceable(1) %11)
          to label %12 unwind label %14

12:                                               ; preds = %1
  %13 = bitcast %"class.std::vector.3"* %0 to %"struct.std::_Vector_base.4"*
  call void @_ZNSt12_Vector_baseISt6vectorIiSaIiEESaIS2_EED2Ev(%"struct.std::_Vector_base.4"* %13) #3
  ret void

14:                                               ; preds = %1
  %15 = landingpad { i8*, i32 }
          catch i8* null
  %16 = extractvalue { i8*, i32 } %15, 0
  %17 = extractvalue { i8*, i32 } %15, 1
  %18 = bitcast %"class.std::vector.3"* %0 to %"struct.std::_Vector_base.4"*
  call void @_ZNSt12_Vector_baseISt6vectorIiSaIiEESaIS2_EED2Ev(%"struct.std::_Vector_base.4"* %18) #3
  br label %19

19:                                               ; preds = %14
  call void @__clang_call_terminate(i8* %16) #14
  unreachable
}

; Function Attrs: noinline norecurse uwtable
define i32 @main() #5 {
  %1 = alloca i32, align 4
  %2 = alloca i32, align 4
  %3 = alloca i32, align 4
  br label %4

4:                                                ; preds = %10, %0
  %5 = call dereferenceable(280) %"class.std::basic_istream"* @_ZNSirsERi(%"class.std::basic_istream"* @_ZSt3cin, i32* dereferenceable(4) %1)
  %6 = call dereferenceable(280) %"class.std::basic_istream"* @_ZNSirsERi(%"class.std::basic_istream"* %5, i32* dereferenceable(4) %2)
  %7 = call dereferenceable(280) %"class.std::basic_istream"* @_ZNSirsERi(%"class.std::basic_istream"* %6, i32* dereferenceable(4) %3)
  %8 = load i32, i32* %1, align 4
  %9 = icmp ne i32 %8, 0
  br i1 %9, label %10, label %14

10:                                               ; preds = %4
  %11 = load i32, i32* %1, align 4
  %12 = load i32, i32* %2, align 4
  %13 = load i32, i32* %3, align 4
  call void @_Z5solveiii(i32 %11, i32 %12, i32 %13)
  br label %4

14:                                               ; preds = %4
  ret i32 0
}

declare dereferenceable(280) %"class.std::basic_istream"* @_ZNSirsERi(%"class.std::basic_istream"*, i32* dereferenceable(4)) #1

; Function Attrs: noinline nounwind uwtable
define linkonce_odr void @_ZNSt8_Rb_treeINSt7__cxx1112basic_stringIcSt11char_traitsIcESaIcEEESt4pairIKS5_iESt10_Select1stIS8_ESt4lessIS5_ESaIS8_EEC2Ev(%"class.std::_Rb_tree"* %0) unnamed_addr #4 comdat align 2 {
  %2 = getelementptr inbounds %"class.std::_Rb_tree", %"class.std::_Rb_tree"* %0, i32 0, i32 0
  call void @_ZNSt8_Rb_treeINSt7__cxx1112basic_stringIcSt11char_traitsIcESaIcEEESt4pairIKS5_iESt10_Select1stIS8_ESt4lessIS5_ESaIS8_EE13_Rb_tree_implISC_Lb1EEC2Ev(%"struct.std::_Rb_tree<std::__cxx11::basic_string<char>, std::pair<const std::__cxx11::basic_string<char>, int>, std::_Select1st<std::pair<const std::__cxx11::basic_string<char>, int> >, std::less<std::__cxx11::basic_string<char> >, std::allocator<std::pair<const std::__cxx11::basic_string<char>, int> > >::_Rb_tree_impl"* %2) #3
  ret void
}

; Function Attrs: noinline nounwind uwtable
define linkonce_odr void @_ZNSt8_Rb_treeINSt7__cxx1112basic_stringIcSt11char_traitsIcESaIcEEESt4pairIKS5_iESt10_Select1stIS8_ESt4lessIS5_ESaIS8_EE13_Rb_tree_implISC_Lb1EEC2Ev(%"struct.std::_Rb_tree<std::__cxx11::basic_string<char>, std::pair<const std::__cxx11::basic_string<char>, int>, std::_Select1st<std::pair<const std::__cxx11::basic_string<char>, int> >, std::less<std::__cxx11::basic_string<char> >, std::allocator<std::pair<const std::__cxx11::basic_string<char>, int> > >::_Rb_tree_impl"* %0) unnamed_addr #4 comdat align 2 {
  %2 = bitcast %"struct.std::_Rb_tree<std::__cxx11::basic_string<char>, std::pair<const std::__cxx11::basic_string<char>, int>, std::_Select1st<std::pair<const std::__cxx11::basic_string<char>, int> >, std::less<std::__cxx11::basic_string<char> >, std::allocator<std::pair<const std::__cxx11::basic_string<char>, int> > >::_Rb_tree_impl"* %0 to %"class.std::allocator.13"*
  call void @_ZNSaISt13_Rb_tree_nodeISt4pairIKNSt7__cxx1112basic_stringIcSt11char_traitsIcESaIcEEEiEEEC2Ev(%"class.std::allocator.13"* %2) #3
  %3 = bitcast %"struct.std::_Rb_tree<std::__cxx11::basic_string<char>, std::pair<const std::__cxx11::basic_string<char>, int>, std::_Select1st<std::pair<const std::__cxx11::basic_string<char>, int> >, std::less<std::__cxx11::basic_string<char> >, std::allocator<std::pair<const std::__cxx11::basic_string<char>, int> > >::_Rb_tree_impl"* %0 to %"struct.std::_Rb_tree_key_compare"*
  call void @_ZNSt20_Rb_tree_key_compareISt4lessINSt7__cxx1112basic_stringIcSt11char_traitsIcESaIcEEEEEC2Ev(%"struct.std::_Rb_tree_key_compare"* %3) #3
  %4 = bitcast %"struct.std::_Rb_tree<std::__cxx11::basic_string<char>, std::pair<const std::__cxx11::basic_string<char>, int>, std::_Select1st<std::pair<const std::__cxx11::basic_string<char>, int> >, std::less<std::__cxx11::basic_string<char> >, std::allocator<std::pair<const std::__cxx11::basic_string<char>, int> > >::_Rb_tree_impl"* %0 to i8*
  %5 = getelementptr inbounds i8, i8* %4, i64 8
  %6 = bitcast i8* %5 to %"struct.std::_Rb_tree_header"*
  call void @_ZNSt15_Rb_tree_headerC2Ev(%"struct.std::_Rb_tree_header"* %6) #3
  ret void
}

; Function Attrs: noinline nounwind uwtable
define linkonce_odr void @_ZNSaISt13_Rb_tree_nodeISt4pairIKNSt7__cxx1112basic_stringIcSt11char_traitsIcESaIcEEEiEEEC2Ev(%"class.std::allocator.13"* %0) unnamed_addr #4 comdat align 2 {
  %2 = bitcast %"class.std::allocator.13"* %0 to %"class.__gnu_cxx::new_allocator.14"*
  call void @_ZN9__gnu_cxx13new_allocatorISt13_Rb_tree_nodeISt4pairIKNSt7__cxx1112basic_stringIcSt11char_traitsIcESaIcEEEiEEEC2Ev(%"class.__gnu_cxx::new_allocator.14"* %2) #3
  ret void
}

; Function Attrs: noinline nounwind uwtable
define linkonce_odr void @_ZNSt20_Rb_tree_key_compareISt4lessINSt7__cxx1112basic_stringIcSt11char_traitsIcESaIcEEEEEC2Ev(%"struct.std::_Rb_tree_key_compare"* %0) unnamed_addr #4 comdat align 2 {
  %2 = getelementptr inbounds %"struct.std::_Rb_tree_key_compare", %"struct.std::_Rb_tree_key_compare"* %0, i32 0, i32 0
  ret void
}

; Function Attrs: noinline nounwind uwtable
define linkonce_odr void @_ZNSt15_Rb_tree_headerC2Ev(%"struct.std::_Rb_tree_header"* %0) unnamed_addr #4 comdat align 2 personality i8* bitcast (i32 (...)* @__gxx_personality_v0 to i8*) {
  %2 = getelementptr inbounds %"struct.std::_Rb_tree_header", %"struct.std::_Rb_tree_header"* %0, i32 0, i32 0
  %3 = getelementptr inbounds %"struct.std::_Rb_tree_header", %"struct.std::_Rb_tree_header"* %0, i32 0, i32 0
  %4 = getelementptr inbounds %"struct.std::_Rb_tree_node_base", %"struct.std::_Rb_tree_node_base"* %3, i32 0, i32 0
  store i32 0, i32* %4, align 8
  invoke void @_ZNSt15_Rb_tree_header8_M_resetEv(%"struct.std::_Rb_tree_header"* %0)
          to label %5 unwind label %6

5:                                                ; preds = %1
  ret void

6:                                                ; preds = %1
  %7 = landingpad { i8*, i32 }
          catch i8* null
  %8 = extractvalue { i8*, i32 } %7, 0
  call void @__clang_call_terminate(i8* %8) #14
  unreachable
}

; Function Attrs: noinline nounwind uwtable
define linkonce_odr void @_ZN9__gnu_cxx13new_allocatorISt13_Rb_tree_nodeISt4pairIKNSt7__cxx1112basic_stringIcSt11char_traitsIcESaIcEEEiEEEC2Ev(%"class.__gnu_cxx::new_allocator.14"* %0) unnamed_addr #4 comdat align 2 {
  ret void
}

; Function Attrs: noinline nounwind uwtable
define linkonce_odr void @_ZNSt15_Rb_tree_header8_M_resetEv(%"struct.std::_Rb_tree_header"* %0) #4 comdat align 2 {
  %2 = getelementptr inbounds %"struct.std::_Rb_tree_header", %"struct.std::_Rb_tree_header"* %0, i32 0, i32 0
  %3 = getelementptr inbounds %"struct.std::_Rb_tree_node_base", %"struct.std::_Rb_tree_node_base"* %2, i32 0, i32 1
  store %"struct.std::_Rb_tree_node_base"* null, %"struct.std::_Rb_tree_node_base"** %3, align 8
  %4 = getelementptr inbounds %"struct.std::_Rb_tree_header", %"struct.std::_Rb_tree_header"* %0, i32 0, i32 0
  %5 = getelementptr inbounds %"struct.std::_Rb_tree_header", %"struct.std::_Rb_tree_header"* %0, i32 0, i32 0
  %6 = getelementptr inbounds %"struct.std::_Rb_tree_node_base", %"struct.std::_Rb_tree_node_base"* %5, i32 0, i32 2
  store %"struct.std::_Rb_tree_node_base"* %4, %"struct.std::_Rb_tree_node_base"** %6, align 8
  %7 = getelementptr inbounds %"struct.std::_Rb_tree_header", %"struct.std::_Rb_tree_header"* %0, i32 0, i32 0
  %8 = getelementptr inbounds %"struct.std::_Rb_tree_header", %"struct.std::_Rb_tree_header"* %0, i32 0, i32 0
  %9 = getelementptr inbounds %"struct.std::_Rb_tree_node_base", %"struct.std::_Rb_tree_node_base"* %8, i32 0, i32 3
  store %"struct.std::_Rb_tree_node_base"* %7, %"struct.std::_Rb_tree_node_base"** %9, align 8
  %10 = getelementptr inbounds %"struct.std::_Rb_tree_header", %"struct.std::_Rb_tree_header"* %0, i32 0, i32 1
  store i64 0, i64* %10, align 8
  ret void
}

; Function Attrs: noinline noreturn nounwind
define linkonce_odr hidden void @__clang_call_terminate(i8* %0) #6 comdat {
  %2 = call i8* @__cxa_begin_catch(i8* %0) #3
  call void @_ZSt9terminatev() #14
  unreachable
}

declare i8* @__cxa_begin_catch(i8*)

declare void @_ZSt9terminatev()

; Function Attrs: noinline nounwind uwtable
define linkonce_odr void @_ZNSt6vectorIiSaIiEED2Ev(%"class.std::vector.8"* %0) unnamed_addr #4 comdat align 2 personality i8* bitcast (i32 (...)* @__gxx_personality_v0 to i8*) {
  %2 = bitcast %"class.std::vector.8"* %0 to %"struct.std::_Vector_base.9"*
  %3 = getelementptr inbounds %"struct.std::_Vector_base.9", %"struct.std::_Vector_base.9"* %2, i32 0, i32 0
  %4 = getelementptr inbounds %"struct.std::_Vector_base<int, std::allocator<int> >::_Vector_impl", %"struct.std::_Vector_base<int, std::allocator<int> >::_Vector_impl"* %3, i32 0, i32 0
  %5 = load i32*, i32** %4, align 8
  %6 = bitcast %"class.std::vector.8"* %0 to %"struct.std::_Vector_base.9"*
  %7 = getelementptr inbounds %"struct.std::_Vector_base.9", %"struct.std::_Vector_base.9"* %6, i32 0, i32 0
  %8 = getelementptr inbounds %"struct.std::_Vector_base<int, std::allocator<int> >::_Vector_impl", %"struct.std::_Vector_base<int, std::allocator<int> >::_Vector_impl"* %7, i32 0, i32 1
  %9 = load i32*, i32** %8, align 8
  %10 = bitcast %"class.std::vector.8"* %0 to %"struct.std::_Vector_base.9"*
  %11 = call dereferenceable(1) %"class.std::allocator.10"* @_ZNSt12_Vector_baseIiSaIiEE19_M_get_Tp_allocatorEv(%"struct.std::_Vector_base.9"* %10) #3
  invoke void @_ZSt8_DestroyIPiiEvT_S1_RSaIT0_E(i32* %5, i32* %9, %"class.std::allocator.10"* dereferenceable(1) %11)
          to label %12 unwind label %14

12:                                               ; preds = %1
  %13 = bitcast %"class.std::vector.8"* %0 to %"struct.std::_Vector_base.9"*
  call void @_ZNSt12_Vector_baseIiSaIiEED2Ev(%"struct.std::_Vector_base.9"* %13) #3
  ret void

14:                                               ; preds = %1
  %15 = landingpad { i8*, i32 }
          catch i8* null
  %16 = extractvalue { i8*, i32 } %15, 0
  %17 = extractvalue { i8*, i32 } %15, 1
  %18 = bitcast %"class.std::vector.8"* %0 to %"struct.std::_Vector_base.9"*
  call void @_ZNSt12_Vector_baseIiSaIiEED2Ev(%"struct.std::_Vector_base.9"* %18) #3
  br label %19

19:                                               ; preds = %14
  call void @__clang_call_terminate(i8* %16) #14
  unreachable
}

; Function Attrs: noinline nounwind uwtable
define linkonce_odr void @_ZNSt6vectorIN11AhoCorasickILi26ELi97EE4NodeESaIS2_EED2Ev(%"class.std::vector.16"* %0) unnamed_addr #4 comdat align 2 personality i8* bitcast (i32 (...)* @__gxx_personality_v0 to i8*) {
  %2 = bitcast %"class.std::vector.16"* %0 to %"struct.std::_Vector_base.17"*
  %3 = getelementptr inbounds %"struct.std::_Vector_base.17", %"struct.std::_Vector_base.17"* %2, i32 0, i32 0
  %4 = getelementptr inbounds %"struct.std::_Vector_base<AhoCorasick<26, 97>::Node, std::allocator<AhoCorasick<26, 97>::Node> >::_Vector_impl", %"struct.std::_Vector_base<AhoCorasick<26, 97>::Node, std::allocator<AhoCorasick<26, 97>::Node> >::_Vector_impl"* %3, i32 0, i32 0
  %5 = load %"struct.AhoCorasick<26, 97>::Node"*, %"struct.AhoCorasick<26, 97>::Node"** %4, align 8
  %6 = bitcast %"class.std::vector.16"* %0 to %"struct.std::_Vector_base.17"*
  %7 = getelementptr inbounds %"struct.std::_Vector_base.17", %"struct.std::_Vector_base.17"* %6, i32 0, i32 0
  %8 = getelementptr inbounds %"struct.std::_Vector_base<AhoCorasick<26, 97>::Node, std::allocator<AhoCorasick<26, 97>::Node> >::_Vector_impl", %"struct.std::_Vector_base<AhoCorasick<26, 97>::Node, std::allocator<AhoCorasick<26, 97>::Node> >::_Vector_impl"* %7, i32 0, i32 1
  %9 = load %"struct.AhoCorasick<26, 97>::Node"*, %"struct.AhoCorasick<26, 97>::Node"** %8, align 8
  %10 = bitcast %"class.std::vector.16"* %0 to %"struct.std::_Vector_base.17"*
  %11 = call dereferenceable(1) %"class.std::allocator.18"* @_ZNSt12_Vector_baseIN11AhoCorasickILi26ELi97EE4NodeESaIS2_EE19_M_get_Tp_allocatorEv(%"struct.std::_Vector_base.17"* %10) #3
  invoke void @_ZSt8_DestroyIPN11AhoCorasickILi26ELi97EE4NodeES2_EvT_S4_RSaIT0_E(%"struct.AhoCorasick<26, 97>::Node"* %5, %"struct.AhoCorasick<26, 97>::Node"* %9, %"class.std::allocator.18"* dereferenceable(1) %11)
          to label %12 unwind label %14

12:                                               ; preds = %1
  %13 = bitcast %"class.std::vector.16"* %0 to %"struct.std::_Vector_base.17"*
  call void @_ZNSt12_Vector_baseIN11AhoCorasickILi26ELi97EE4NodeESaIS2_EED2Ev(%"struct.std::_Vector_base.17"* %13) #3
  ret void

14:                                               ; preds = %1
  %15 = landingpad { i8*, i32 }
          catch i8* null
  %16 = extractvalue { i8*, i32 } %15, 0
  %17 = extractvalue { i8*, i32 } %15, 1
  %18 = bitcast %"class.std::vector.16"* %0 to %"struct.std::_Vector_base.17"*
  call void @_ZNSt12_Vector_baseIN11AhoCorasickILi26ELi97EE4NodeESaIS2_EED2Ev(%"struct.std::_Vector_base.17"* %18) #3
  br label %19

19:                                               ; preds = %14
  call void @__clang_call_terminate(i8* %16) #14
  unreachable
}

; Function Attrs: noinline uwtable
define linkonce_odr void @_ZSt8_DestroyIPiiEvT_S1_RSaIT0_E(i32* %0, i32* %1, %"class.std::allocator.10"* dereferenceable(1) %2) #0 comdat {
  call void @_ZSt8_DestroyIPiEvT_S1_(i32* %0, i32* %1)
  ret void
}

; Function Attrs: noinline nounwind uwtable
define linkonce_odr dereferenceable(1) %"class.std::allocator.10"* @_ZNSt12_Vector_baseIiSaIiEE19_M_get_Tp_allocatorEv(%"struct.std::_Vector_base.9"* %0) #4 comdat align 2 {
  %2 = getelementptr inbounds %"struct.std::_Vector_base.9", %"struct.std::_Vector_base.9"* %0, i32 0, i32 0
  %3 = bitcast %"struct.std::_Vector_base<int, std::allocator<int> >::_Vector_impl"* %2 to %"class.std::allocator.10"*
  ret %"class.std::allocator.10"* %3
}

; Function Attrs: noinline nounwind uwtable
define linkonce_odr void @_ZNSt12_Vector_baseIiSaIiEED2Ev(%"struct.std::_Vector_base.9"* %0) unnamed_addr #4 comdat align 2 personality i8* bitcast (i32 (...)* @__gxx_personality_v0 to i8*) {
  %2 = getelementptr inbounds %"struct.std::_Vector_base.9", %"struct.std::_Vector_base.9"* %0, i32 0, i32 0
  %3 = getelementptr inbounds %"struct.std::_Vector_base<int, std::allocator<int> >::_Vector_impl", %"struct.std::_Vector_base<int, std::allocator<int> >::_Vector_impl"* %2, i32 0, i32 0
  %4 = load i32*, i32** %3, align 8
  %5 = getelementptr inbounds %"struct.std::_Vector_base.9", %"struct.std::_Vector_base.9"* %0, i32 0, i32 0
  %6 = getelementptr inbounds %"struct.std::_Vector_base<int, std::allocator<int> >::_Vector_impl", %"struct.std::_Vector_base<int, std::allocator<int> >::_Vector_impl"* %5, i32 0, i32 2
  %7 = load i32*, i32** %6, align 8
  %8 = getelementptr inbounds %"struct.std::_Vector_base.9", %"struct.std::_Vector_base.9"* %0, i32 0, i32 0
  %9 = getelementptr inbounds %"struct.std::_Vector_base<int, std::allocator<int> >::_Vector_impl", %"struct.std::_Vector_base<int, std::allocator<int> >::_Vector_impl"* %8, i32 0, i32 0
  %10 = load i32*, i32** %9, align 8
  %11 = ptrtoint i32* %7 to i64
  %12 = ptrtoint i32* %10 to i64
  %13 = sub i64 %11, %12
  %14 = sdiv exact i64 %13, 4
  invoke void @_ZNSt12_Vector_baseIiSaIiEE13_M_deallocateEPim(%"struct.std::_Vector_base.9"* %0, i32* %4, i64 %14)
          to label %15 unwind label %17

15:                                               ; preds = %1
  %16 = getelementptr inbounds %"struct.std::_Vector_base.9", %"struct.std::_Vector_base.9"* %0, i32 0, i32 0
  call void @_ZNSt12_Vector_baseIiSaIiEE12_Vector_implD2Ev(%"struct.std::_Vector_base<int, std::allocator<int> >::_Vector_impl"* %16) #3
  ret void

17:                                               ; preds = %1
  %18 = landingpad { i8*, i32 }
          catch i8* null
  %19 = extractvalue { i8*, i32 } %18, 0
  %20 = extractvalue { i8*, i32 } %18, 1
  %21 = getelementptr inbounds %"struct.std::_Vector_base.9", %"struct.std::_Vector_base.9"* %0, i32 0, i32 0
  call void @_ZNSt12_Vector_baseIiSaIiEE12_Vector_implD2Ev(%"struct.std::_Vector_base<int, std::allocator<int> >::_Vector_impl"* %21) #3
  br label %22

22:                                               ; preds = %17
  call void @__clang_call_terminate(i8* %19) #14
  unreachable
}

; Function Attrs: noinline uwtable
define linkonce_odr void @_ZSt8_DestroyIPiEvT_S1_(i32* %0, i32* %1) #0 comdat {
  call void @_ZNSt12_Destroy_auxILb1EE9__destroyIPiEEvT_S3_(i32* %0, i32* %1)
  ret void
}

; Function Attrs: noinline nounwind uwtable
define linkonce_odr void @_ZNSt12_Destroy_auxILb1EE9__destroyIPiEEvT_S3_(i32* %0, i32* %1) #4 comdat align 2 {
  ret void
}

; Function Attrs: noinline uwtable
define linkonce_odr void @_ZNSt12_Vector_baseIiSaIiEE13_M_deallocateEPim(%"struct.std::_Vector_base.9"* %0, i32* %1, i64 %2) #0 comdat align 2 {
  %4 = icmp ne i32* %1, null
  br i1 %4, label %5, label %8

5:                                                ; preds = %3
  %6 = getelementptr inbounds %"struct.std::_Vector_base.9", %"struct.std::_Vector_base.9"* %0, i32 0, i32 0
  %7 = bitcast %"struct.std::_Vector_base<int, std::allocator<int> >::_Vector_impl"* %6 to %"class.std::allocator.10"*
  call void @_ZNSt16allocator_traitsISaIiEE10deallocateERS0_Pim(%"class.std::allocator.10"* dereferenceable(1) %7, i32* %1, i64 %2)
  br label %8

8:                                                ; preds = %5, %3
  ret void
}

; Function Attrs: noinline nounwind uwtable
define linkonce_odr void @_ZNSt12_Vector_baseIiSaIiEE12_Vector_implD2Ev(%"struct.std::_Vector_base<int, std::allocator<int> >::_Vector_impl"* %0) unnamed_addr #4 comdat align 2 {
  %2 = bitcast %"struct.std::_Vector_base<int, std::allocator<int> >::_Vector_impl"* %0 to %"class.std::allocator.10"*
  call void @_ZNSaIiED2Ev(%"class.std::allocator.10"* %2) #3
  ret void
}

; Function Attrs: noinline uwtable
define linkonce_odr void @_ZNSt16allocator_traitsISaIiEE10deallocateERS0_Pim(%"class.std::allocator.10"* dereferenceable(1) %0, i32* %1, i64 %2) #0 comdat align 2 {
  %4 = bitcast %"class.std::allocator.10"* %0 to %"class.__gnu_cxx::new_allocator.11"*
  call void @_ZN9__gnu_cxx13new_allocatorIiE10deallocateEPim(%"class.__gnu_cxx::new_allocator.11"* %4, i32* %1, i64 %2)
  ret void
}

; Function Attrs: noinline nounwind uwtable
define linkonce_odr void @_ZN9__gnu_cxx13new_allocatorIiE10deallocateEPim(%"class.__gnu_cxx::new_allocator.11"* %0, i32* %1, i64 %2) #4 comdat align 2 {
  %4 = bitcast i32* %1 to i8*
  call void @_ZdlPv(i8* %4) #3
  ret void
}

; Function Attrs: nobuiltin nounwind
declare void @_ZdlPv(i8*) #7

; Function Attrs: noinline nounwind uwtable
define linkonce_odr void @_ZNSaIiED2Ev(%"class.std::allocator.10"* %0) unnamed_addr #4 comdat align 2 {
  %2 = bitcast %"class.std::allocator.10"* %0 to %"class.__gnu_cxx::new_allocator.11"*
  call void @_ZN9__gnu_cxx13new_allocatorIiED2Ev(%"class.__gnu_cxx::new_allocator.11"* %2) #3
  ret void
}

; Function Attrs: noinline nounwind uwtable
define linkonce_odr void @_ZN9__gnu_cxx13new_allocatorIiED2Ev(%"class.__gnu_cxx::new_allocator.11"* %0) unnamed_addr #4 comdat align 2 {
  ret void
}

; Function Attrs: noinline uwtable
define linkonce_odr void @_ZSt8_DestroyIPN11AhoCorasickILi26ELi97EE4NodeES2_EvT_S4_RSaIT0_E(%"struct.AhoCorasick<26, 97>::Node"* %0, %"struct.AhoCorasick<26, 97>::Node"* %1, %"class.std::allocator.18"* dereferenceable(1) %2) #0 comdat {
  call void @_ZSt8_DestroyIPN11AhoCorasickILi26ELi97EE4NodeEEvT_S4_(%"struct.AhoCorasick<26, 97>::Node"* %0, %"struct.AhoCorasick<26, 97>::Node"* %1)
  ret void
}

; Function Attrs: noinline nounwind uwtable
define linkonce_odr dereferenceable(1) %"class.std::allocator.18"* @_ZNSt12_Vector_baseIN11AhoCorasickILi26ELi97EE4NodeESaIS2_EE19_M_get_Tp_allocatorEv(%"struct.std::_Vector_base.17"* %0) #4 comdat align 2 {
  %2 = getelementptr inbounds %"struct.std::_Vector_base.17", %"struct.std::_Vector_base.17"* %0, i32 0, i32 0
  %3 = bitcast %"struct.std::_Vector_base<AhoCorasick<26, 97>::Node, std::allocator<AhoCorasick<26, 97>::Node> >::_Vector_impl"* %2 to %"class.std::allocator.18"*
  ret %"class.std::allocator.18"* %3
}

; Function Attrs: noinline nounwind uwtable
define linkonce_odr void @_ZNSt12_Vector_baseIN11AhoCorasickILi26ELi97EE4NodeESaIS2_EED2Ev(%"struct.std::_Vector_base.17"* %0) unnamed_addr #4 comdat align 2 personality i8* bitcast (i32 (...)* @__gxx_personality_v0 to i8*) {
  %2 = getelementptr inbounds %"struct.std::_Vector_base.17", %"struct.std::_Vector_base.17"* %0, i32 0, i32 0
  %3 = getelementptr inbounds %"struct.std::_Vector_base<AhoCorasick<26, 97>::Node, std::allocator<AhoCorasick<26, 97>::Node> >::_Vector_impl", %"struct.std::_Vector_base<AhoCorasick<26, 97>::Node, std::allocator<AhoCorasick<26, 97>::Node> >::_Vector_impl"* %2, i32 0, i32 0
  %4 = load %"struct.AhoCorasick<26, 97>::Node"*, %"struct.AhoCorasick<26, 97>::Node"** %3, align 8
  %5 = getelementptr inbounds %"struct.std::_Vector_base.17", %"struct.std::_Vector_base.17"* %0, i32 0, i32 0
  %6 = getelementptr inbounds %"struct.std::_Vector_base<AhoCorasick<26, 97>::Node, std::allocator<AhoCorasick<26, 97>::Node> >::_Vector_impl", %"struct.std::_Vector_base<AhoCorasick<26, 97>::Node, std::allocator<AhoCorasick<26, 97>::Node> >::_Vector_impl"* %5, i32 0, i32 2
  %7 = load %"struct.AhoCorasick<26, 97>::Node"*, %"struct.AhoCorasick<26, 97>::Node"** %6, align 8
  %8 = getelementptr inbounds %"struct.std::_Vector_base.17", %"struct.std::_Vector_base.17"* %0, i32 0, i32 0
  %9 = getelementptr inbounds %"struct.std::_Vector_base<AhoCorasick<26, 97>::Node, std::allocator<AhoCorasick<26, 97>::Node> >::_Vector_impl", %"struct.std::_Vector_base<AhoCorasick<26, 97>::Node, std::allocator<AhoCorasick<26, 97>::Node> >::_Vector_impl"* %8, i32 0, i32 0
  %10 = load %"struct.AhoCorasick<26, 97>::Node"*, %"struct.AhoCorasick<26, 97>::Node"** %9, align 8
  %11 = ptrtoint %"struct.AhoCorasick<26, 97>::Node"* %7 to i64
  %12 = ptrtoint %"struct.AhoCorasick<26, 97>::Node"* %10 to i64
  %13 = sub i64 %11, %12
  %14 = sdiv exact i64 %13, 108
  invoke void @_ZNSt12_Vector_baseIN11AhoCorasickILi26ELi97EE4NodeESaIS2_EE13_M_deallocateEPS2_m(%"struct.std::_Vector_base.17"* %0, %"struct.AhoCorasick<26, 97>::Node"* %4, i64 %14)
          to label %15 unwind label %17

15:                                               ; preds = %1
  %16 = getelementptr inbounds %"struct.std::_Vector_base.17", %"struct.std::_Vector_base.17"* %0, i32 0, i32 0
  call void @_ZNSt12_Vector_baseIN11AhoCorasickILi26ELi97EE4NodeESaIS2_EE12_Vector_implD2Ev(%"struct.std::_Vector_base<AhoCorasick<26, 97>::Node, std::allocator<AhoCorasick<26, 97>::Node> >::_Vector_impl"* %16) #3
  ret void

17:                                               ; preds = %1
  %18 = landingpad { i8*, i32 }
          catch i8* null
  %19 = extractvalue { i8*, i32 } %18, 0
  %20 = extractvalue { i8*, i32 } %18, 1
  %21 = getelementptr inbounds %"struct.std::_Vector_base.17", %"struct.std::_Vector_base.17"* %0, i32 0, i32 0
  call void @_ZNSt12_Vector_baseIN11AhoCorasickILi26ELi97EE4NodeESaIS2_EE12_Vector_implD2Ev(%"struct.std::_Vector_base<AhoCorasick<26, 97>::Node, std::allocator<AhoCorasick<26, 97>::Node> >::_Vector_impl"* %21) #3
  br label %22

22:                                               ; preds = %17
  call void @__clang_call_terminate(i8* %19) #14
  unreachable
}

; Function Attrs: noinline uwtable
define linkonce_odr void @_ZSt8_DestroyIPN11AhoCorasickILi26ELi97EE4NodeEEvT_S4_(%"struct.AhoCorasick<26, 97>::Node"* %0, %"struct.AhoCorasick<26, 97>::Node"* %1) #0 comdat {
  call void @_ZNSt12_Destroy_auxILb1EE9__destroyIPN11AhoCorasickILi26ELi97EE4NodeEEEvT_S6_(%"struct.AhoCorasick<26, 97>::Node"* %0, %"struct.AhoCorasick<26, 97>::Node"* %1)
  ret void
}

; Function Attrs: noinline nounwind uwtable
define linkonce_odr void @_ZNSt12_Destroy_auxILb1EE9__destroyIPN11AhoCorasickILi26ELi97EE4NodeEEEvT_S6_(%"struct.AhoCorasick<26, 97>::Node"* %0, %"struct.AhoCorasick<26, 97>::Node"* %1) #4 comdat align 2 {
  ret void
}

; Function Attrs: noinline uwtable
define linkonce_odr void @_ZNSt12_Vector_baseIN11AhoCorasickILi26ELi97EE4NodeESaIS2_EE13_M_deallocateEPS2_m(%"struct.std::_Vector_base.17"* %0, %"struct.AhoCorasick<26, 97>::Node"* %1, i64 %2) #0 comdat align 2 {
  %4 = icmp ne %"struct.AhoCorasick<26, 97>::Node"* %1, null
  br i1 %4, label %5, label %8

5:                                                ; preds = %3
  %6 = getelementptr inbounds %"struct.std::_Vector_base.17", %"struct.std::_Vector_base.17"* %0, i32 0, i32 0
  %7 = bitcast %"struct.std::_Vector_base<AhoCorasick<26, 97>::Node, std::allocator<AhoCorasick<26, 97>::Node> >::_Vector_impl"* %6 to %"class.std::allocator.18"*
  call void @_ZNSt16allocator_traitsISaIN11AhoCorasickILi26ELi97EE4NodeEEE10deallocateERS3_PS2_m(%"class.std::allocator.18"* dereferenceable(1) %7, %"struct.AhoCorasick<26, 97>::Node"* %1, i64 %2)
  br label %8

8:                                                ; preds = %5, %3
  ret void
}

; Function Attrs: noinline nounwind uwtable
define linkonce_odr void @_ZNSt12_Vector_baseIN11AhoCorasickILi26ELi97EE4NodeESaIS2_EE12_Vector_implD2Ev(%"struct.std::_Vector_base<AhoCorasick<26, 97>::Node, std::allocator<AhoCorasick<26, 97>::Node> >::_Vector_impl"* %0) unnamed_addr #4 comdat align 2 {
  %2 = bitcast %"struct.std::_Vector_base<AhoCorasick<26, 97>::Node, std::allocator<AhoCorasick<26, 97>::Node> >::_Vector_impl"* %0 to %"class.std::allocator.18"*
  call void @_ZNSaIN11AhoCorasickILi26ELi97EE4NodeEED2Ev(%"class.std::allocator.18"* %2) #3
  ret void
}

; Function Attrs: noinline uwtable
define linkonce_odr void @_ZNSt16allocator_traitsISaIN11AhoCorasickILi26ELi97EE4NodeEEE10deallocateERS3_PS2_m(%"class.std::allocator.18"* dereferenceable(1) %0, %"struct.AhoCorasick<26, 97>::Node"* %1, i64 %2) #0 comdat align 2 {
  %4 = bitcast %"class.std::allocator.18"* %0 to %"class.__gnu_cxx::new_allocator.19"*
  call void @_ZN9__gnu_cxx13new_allocatorIN11AhoCorasickILi26ELi97EE4NodeEE10deallocateEPS3_m(%"class.__gnu_cxx::new_allocator.19"* %4, %"struct.AhoCorasick<26, 97>::Node"* %1, i64 %2)
  ret void
}

; Function Attrs: noinline nounwind uwtable
define linkonce_odr void @_ZN9__gnu_cxx13new_allocatorIN11AhoCorasickILi26ELi97EE4NodeEE10deallocateEPS3_m(%"class.__gnu_cxx::new_allocator.19"* %0, %"struct.AhoCorasick<26, 97>::Node"* %1, i64 %2) #4 comdat align 2 {
  %4 = bitcast %"struct.AhoCorasick<26, 97>::Node"* %1 to i8*
  call void @_ZdlPv(i8* %4) #3
  ret void
}

; Function Attrs: noinline nounwind uwtable
define linkonce_odr void @_ZN9__gnu_cxx13new_allocatorIN11AhoCorasickILi26ELi97EE4NodeEED2Ev(%"class.__gnu_cxx::new_allocator.19"* %0) unnamed_addr #4 comdat align 2 {
  ret void
}

; Function Attrs: noinline nounwind uwtable
define linkonce_odr void @_ZNSt8_Rb_treeINSt7__cxx1112basic_stringIcSt11char_traitsIcESaIcEEESt4pairIKS5_iESt10_Select1stIS8_ESt4lessIS5_ESaIS8_EED2Ev(%"class.std::_Rb_tree"* %0) unnamed_addr #4 comdat align 2 personality i8* bitcast (i32 (...)* @__gxx_personality_v0 to i8*) {
  %2 = call %"struct.std::_Rb_tree_node"* @_ZNSt8_Rb_treeINSt7__cxx1112basic_stringIcSt11char_traitsIcESaIcEEESt4pairIKS5_iESt10_Select1stIS8_ESt4lessIS5_ESaIS8_EE8_M_beginEv(%"class.std::_Rb_tree"* %0) #3
  invoke void @_ZNSt8_Rb_treeINSt7__cxx1112basic_stringIcSt11char_traitsIcESaIcEEESt4pairIKS5_iESt10_Select1stIS8_ESt4lessIS5_ESaIS8_EE8_M_eraseEPSt13_Rb_tree_nodeIS8_E(%"class.std::_Rb_tree"* %0, %"struct.std::_Rb_tree_node"* %2)
          to label %3 unwind label %5

3:                                                ; preds = %1
  %4 = getelementptr inbounds %"class.std::_Rb_tree", %"class.std::_Rb_tree"* %0, i32 0, i32 0
  call void @_ZNSt8_Rb_treeINSt7__cxx1112basic_stringIcSt11char_traitsIcESaIcEEESt4pairIKS5_iESt10_Select1stIS8_ESt4lessIS5_ESaIS8_EE13_Rb_tree_implISC_Lb1EED2Ev(%"struct.std::_Rb_tree<std::__cxx11::basic_string<char>, std::pair<const std::__cxx11::basic_string<char>, int>, std::_Select1st<std::pair<const std::__cxx11::basic_string<char>, int> >, std::less<std::__cxx11::basic_string<char> >, std::allocator<std::pair<const std::__cxx11::basic_string<char>, int> > >::_Rb_tree_impl"* %4) #3
  ret void

5:                                                ; preds = %1
  %6 = landingpad { i8*, i32 }
          catch i8* null
  %7 = extractvalue { i8*, i32 } %6, 0
  %8 = extractvalue { i8*, i32 } %6, 1
  %9 = getelementptr inbounds %"class.std::_Rb_tree", %"class.std::_Rb_tree"* %0, i32 0, i32 0
  call void @_ZNSt8_Rb_treeINSt7__cxx1112basic_stringIcSt11char_traitsIcESaIcEEESt4pairIKS5_iESt10_Select1stIS8_ESt4lessIS5_ESaIS8_EE13_Rb_tree_implISC_Lb1EED2Ev(%"struct.std::_Rb_tree<std::__cxx11::basic_string<char>, std::pair<const std::__cxx11::basic_string<char>, int>, std::_Select1st<std::pair<const std::__cxx11::basic_string<char>, int> >, std::less<std::__cxx11::basic_string<char> >, std::allocator<std::pair<const std::__cxx11::basic_string<char>, int> > >::_Rb_tree_impl"* %9) #3
  br label %10

10:                                               ; preds = %5
  call void @__clang_call_terminate(i8* %7) #14
  unreachable
}

; Function Attrs: noinline uwtable
define linkonce_odr void @_ZNSt8_Rb_treeINSt7__cxx1112basic_stringIcSt11char_traitsIcESaIcEEESt4pairIKS5_iESt10_Select1stIS8_ESt4lessIS5_ESaIS8_EE8_M_eraseEPSt13_Rb_tree_nodeIS8_E(%"class.std::_Rb_tree"* %0, %"struct.std::_Rb_tree_node"* %1) #0 comdat align 2 {
  br label %3

3:                                                ; preds = %5, %2
  %.0 = phi %"struct.std::_Rb_tree_node"* [ %1, %2 ], [ %9, %5 ]
  %4 = icmp ne %"struct.std::_Rb_tree_node"* %.0, null
  br i1 %4, label %5, label %10

5:                                                ; preds = %3
  %6 = bitcast %"struct.std::_Rb_tree_node"* %.0 to %"struct.std::_Rb_tree_node_base"*
  %7 = call %"struct.std::_Rb_tree_node"* @_ZNSt8_Rb_treeINSt7__cxx1112basic_stringIcSt11char_traitsIcESaIcEEESt4pairIKS5_iESt10_Select1stIS8_ESt4lessIS5_ESaIS8_EE8_S_rightEPSt18_Rb_tree_node_base(%"struct.std::_Rb_tree_node_base"* %6) #3
  call void @_ZNSt8_Rb_treeINSt7__cxx1112basic_stringIcSt11char_traitsIcESaIcEEESt4pairIKS5_iESt10_Select1stIS8_ESt4lessIS5_ESaIS8_EE8_M_eraseEPSt13_Rb_tree_nodeIS8_E(%"class.std::_Rb_tree"* %0, %"struct.std::_Rb_tree_node"* %7)
  %8 = bitcast %"struct.std::_Rb_tree_node"* %.0 to %"struct.std::_Rb_tree_node_base"*
  %9 = call %"struct.std::_Rb_tree_node"* @_ZNSt8_Rb_treeINSt7__cxx1112basic_stringIcSt11char_traitsIcESaIcEEESt4pairIKS5_iESt10_Select1stIS8_ESt4lessIS5_ESaIS8_EE7_S_leftEPSt18_Rb_tree_node_base(%"struct.std::_Rb_tree_node_base"* %8) #3
  call void @_ZNSt8_Rb_treeINSt7__cxx1112basic_stringIcSt11char_traitsIcESaIcEEESt4pairIKS5_iESt10_Select1stIS8_ESt4lessIS5_ESaIS8_EE12_M_drop_nodeEPSt13_Rb_tree_nodeIS8_E(%"class.std::_Rb_tree"* %0, %"struct.std::_Rb_tree_node"* %.0) #3
  br label %3

10:                                               ; preds = %3
  ret void
}

; Function Attrs: noinline nounwind uwtable
define linkonce_odr %"struct.std::_Rb_tree_node"* @_ZNSt8_Rb_treeINSt7__cxx1112basic_stringIcSt11char_traitsIcESaIcEEESt4pairIKS5_iESt10_Select1stIS8_ESt4lessIS5_ESaIS8_EE8_M_beginEv(%"class.std::_Rb_tree"* %0) #4 comdat align 2 {
  %2 = getelementptr inbounds %"class.std::_Rb_tree", %"class.std::_Rb_tree"* %0, i32 0, i32 0
  %3 = bitcast %"struct.std::_Rb_tree<std::__cxx11::basic_string<char>, std::pair<const std::__cxx11::basic_string<char>, int>, std::_Select1st<std::pair<const std::__cxx11::basic_string<char>, int> >, std::less<std::__cxx11::basic_string<char> >, std::allocator<std::pair<const std::__cxx11::basic_string<char>, int> > >::_Rb_tree_impl"* %2 to i8*
  %4 = getelementptr inbounds i8, i8* %3, i64 8
  %5 = bitcast i8* %4 to %"struct.std::_Rb_tree_header"*
  %6 = getelementptr inbounds %"struct.std::_Rb_tree_header", %"struct.std::_Rb_tree_header"* %5, i32 0, i32 0
  %7 = getelementptr inbounds %"struct.std::_Rb_tree_node_base", %"struct.std::_Rb_tree_node_base"* %6, i32 0, i32 1
  %8 = load %"struct.std::_Rb_tree_node_base"*, %"struct.std::_Rb_tree_node_base"** %7, align 8
  %9 = bitcast %"struct.std::_Rb_tree_node_base"* %8 to %"struct.std::_Rb_tree_node"*
  ret %"struct.std::_Rb_tree_node"* %9
}

; Function Attrs: noinline nounwind uwtable
define linkonce_odr void @_ZNSt8_Rb_treeINSt7__cxx1112basic_stringIcSt11char_traitsIcESaIcEEESt4pairIKS5_iESt10_Select1stIS8_ESt4lessIS5_ESaIS8_EE13_Rb_tree_implISC_Lb1EED2Ev(%"struct.std::_Rb_tree<std::__cxx11::basic_string<char>, std::pair<const std::__cxx11::basic_string<char>, int>, std::_Select1st<std::pair<const std::__cxx11::basic_string<char>, int> >, std::less<std::__cxx11::basic_string<char> >, std::allocator<std::pair<const std::__cxx11::basic_string<char>, int> > >::_Rb_tree_impl"* %0) unnamed_addr #4 comdat align 2 {
  %2 = bitcast %"struct.std::_Rb_tree<std::__cxx11::basic_string<char>, std::pair<const std::__cxx11::basic_string<char>, int>, std::_Select1st<std::pair<const std::__cxx11::basic_string<char>, int> >, std::less<std::__cxx11::basic_string<char> >, std::allocator<std::pair<const std::__cxx11::basic_string<char>, int> > >::_Rb_tree_impl"* %0 to %"class.std::allocator.13"*
  call void @_ZNSaISt13_Rb_tree_nodeISt4pairIKNSt7__cxx1112basic_stringIcSt11char_traitsIcESaIcEEEiEEED2Ev(%"class.std::allocator.13"* %2) #3
  ret void
}

; Function Attrs: noinline nounwind uwtable
define linkonce_odr %"struct.std::_Rb_tree_node"* @_ZNSt8_Rb_treeINSt7__cxx1112basic_stringIcSt11char_traitsIcESaIcEEESt4pairIKS5_iESt10_Select1stIS8_ESt4lessIS5_ESaIS8_EE8_S_rightEPSt18_Rb_tree_node_base(%"struct.std::_Rb_tree_node_base"* %0) #4 comdat align 2 {
  %2 = getelementptr inbounds %"struct.std::_Rb_tree_node_base", %"struct.std::_Rb_tree_node_base"* %0, i32 0, i32 3
  %3 = load %"struct.std::_Rb_tree_node_base"*, %"struct.std::_Rb_tree_node_base"** %2, align 8
  %4 = bitcast %"struct.std::_Rb_tree_node_base"* %3 to %"struct.std::_Rb_tree_node"*
  ret %"struct.std::_Rb_tree_node"* %4
}

; Function Attrs: noinline nounwind uwtable
define linkonce_odr %"struct.std::_Rb_tree_node"* @_ZNSt8_Rb_treeINSt7__cxx1112basic_stringIcSt11char_traitsIcESaIcEEESt4pairIKS5_iESt10_Select1stIS8_ESt4lessIS5_ESaIS8_EE7_S_leftEPSt18_Rb_tree_node_base(%"struct.std::_Rb_tree_node_base"* %0) #4 comdat align 2 {
  %2 = getelementptr inbounds %"struct.std::_Rb_tree_node_base", %"struct.std::_Rb_tree_node_base"* %0, i32 0, i32 2
  %3 = load %"struct.std::_Rb_tree_node_base"*, %"struct.std::_Rb_tree_node_base"** %2, align 8
  %4 = bitcast %"struct.std::_Rb_tree_node_base"* %3 to %"struct.std::_Rb_tree_node"*
  ret %"struct.std::_Rb_tree_node"* %4
}

; Function Attrs: noinline nounwind uwtable
define linkonce_odr void @_ZNSt8_Rb_treeINSt7__cxx1112basic_stringIcSt11char_traitsIcESaIcEEESt4pairIKS5_iESt10_Select1stIS8_ESt4lessIS5_ESaIS8_EE12_M_drop_nodeEPSt13_Rb_tree_nodeIS8_E(%"class.std::_Rb_tree"* %0, %"struct.std::_Rb_tree_node"* %1) #4 comdat align 2 {
  call void @_ZNSt8_Rb_treeINSt7__cxx1112basic_stringIcSt11char_traitsIcESaIcEEESt4pairIKS5_iESt10_Select1stIS8_ESt4lessIS5_ESaIS8_EE15_M_destroy_nodeEPSt13_Rb_tree_nodeIS8_E(%"class.std::_Rb_tree"* %0, %"struct.std::_Rb_tree_node"* %1) #3
  call void @_ZNSt8_Rb_treeINSt7__cxx1112basic_stringIcSt11char_traitsIcESaIcEEESt4pairIKS5_iESt10_Select1stIS8_ESt4lessIS5_ESaIS8_EE11_M_put_nodeEPSt13_Rb_tree_nodeIS8_E(%"class.std::_Rb_tree"* %0, %"struct.std::_Rb_tree_node"* %1) #3
  ret void
}

; Function Attrs: noinline nounwind uwtable
define linkonce_odr void @_ZNSt8_Rb_treeINSt7__cxx1112basic_stringIcSt11char_traitsIcESaIcEEESt4pairIKS5_iESt10_Select1stIS8_ESt4lessIS5_ESaIS8_EE15_M_destroy_nodeEPSt13_Rb_tree_nodeIS8_E(%"class.std::_Rb_tree"* %0, %"struct.std::_Rb_tree_node"* %1) #4 comdat align 2 personality i8* bitcast (i32 (...)* @__gxx_personality_v0 to i8*) {
  %3 = call dereferenceable(1) %"class.std::allocator.13"* @_ZNSt8_Rb_treeINSt7__cxx1112basic_stringIcSt11char_traitsIcESaIcEEESt4pairIKS5_iESt10_Select1stIS8_ESt4lessIS5_ESaIS8_EE21_M_get_Node_allocatorEv(%"class.std::_Rb_tree"* %0) #3
  %4 = invoke %"struct.std::pair"* @_ZNSt13_Rb_tree_nodeISt4pairIKNSt7__cxx1112basic_stringIcSt11char_traitsIcESaIcEEEiEE9_M_valptrEv(%"struct.std::_Rb_tree_node"* %1)
          to label %5 unwind label %7

5:                                                ; preds = %2
  invoke void @_ZNSt16allocator_traitsISaISt13_Rb_tree_nodeISt4pairIKNSt7__cxx1112basic_stringIcSt11char_traitsIcESaIcEEEiEEEE7destroyIS9_EEvRSB_PT_(%"class.std::allocator.13"* dereferenceable(1) %3, %"struct.std::pair"* %4)
          to label %6 unwind label %7

6:                                                ; preds = %5
  ret void

7:                                                ; preds = %5, %2
  %8 = landingpad { i8*, i32 }
          catch i8* null
  %9 = extractvalue { i8*, i32 } %8, 0
  call void @__clang_call_terminate(i8* %9) #14
  unreachable
}

; Function Attrs: noinline nounwind uwtable
define linkonce_odr void @_ZNSt8_Rb_treeINSt7__cxx1112basic_stringIcSt11char_traitsIcESaIcEEESt4pairIKS5_iESt10_Select1stIS8_ESt4lessIS5_ESaIS8_EE11_M_put_nodeEPSt13_Rb_tree_nodeIS8_E(%"class.std::_Rb_tree"* %0, %"struct.std::_Rb_tree_node"* %1) #4 comdat align 2 personality i8* bitcast (i32 (...)* @__gxx_personality_v0 to i8*) {
  %3 = call dereferenceable(1) %"class.std::allocator.13"* @_ZNSt8_Rb_treeINSt7__cxx1112basic_stringIcSt11char_traitsIcESaIcEEESt4pairIKS5_iESt10_Select1stIS8_ESt4lessIS5_ESaIS8_EE21_M_get_Node_allocatorEv(%"class.std::_Rb_tree"* %0) #3
  invoke void @_ZNSt16allocator_traitsISaISt13_Rb_tree_nodeISt4pairIKNSt7__cxx1112basic_stringIcSt11char_traitsIcESaIcEEEiEEEE10deallocateERSB_PSA_m(%"class.std::allocator.13"* dereferenceable(1) %3, %"struct.std::_Rb_tree_node"* %1, i64 1)
          to label %4 unwind label %5

4:                                                ; preds = %2
  ret void

5:                                                ; preds = %2
  %6 = landingpad { i8*, i32 }
          catch i8* null
  %7 = extractvalue { i8*, i32 } %6, 0
  call void @__clang_call_terminate(i8* %7) #14
  unreachable
}

; Function Attrs: noinline uwtable
define linkonce_odr void @_ZNSt16allocator_traitsISaISt13_Rb_tree_nodeISt4pairIKNSt7__cxx1112basic_stringIcSt11char_traitsIcESaIcEEEiEEEE7destroyIS9_EEvRSB_PT_(%"class.std::allocator.13"* dereferenceable(1) %0, %"struct.std::pair"* %1) #0 comdat align 2 {
  %3 = bitcast %"class.std::allocator.13"* %0 to %"class.__gnu_cxx::new_allocator.14"*
  call void @_ZN9__gnu_cxx13new_allocatorISt13_Rb_tree_nodeISt4pairIKNSt7__cxx1112basic_stringIcSt11char_traitsIcESaIcEEEiEEE7destroyISA_EEvPT_(%"class.__gnu_cxx::new_allocator.14"* %3, %"struct.std::pair"* %1)
  ret void
}

; Function Attrs: noinline nounwind uwtable
define linkonce_odr dereferenceable(1) %"class.std::allocator.13"* @_ZNSt8_Rb_treeINSt7__cxx1112basic_stringIcSt11char_traitsIcESaIcEEESt4pairIKS5_iESt10_Select1stIS8_ESt4lessIS5_ESaIS8_EE21_M_get_Node_allocatorEv(%"class.std::_Rb_tree"* %0) #4 comdat align 2 {
  %2 = getelementptr inbounds %"class.std::_Rb_tree", %"class.std::_Rb_tree"* %0, i32 0, i32 0
  %3 = bitcast %"struct.std::_Rb_tree<std::__cxx11::basic_string<char>, std::pair<const std::__cxx11::basic_string<char>, int>, std::_Select1st<std::pair<const std::__cxx11::basic_string<char>, int> >, std::less<std::__cxx11::basic_string<char> >, std::allocator<std::pair<const std::__cxx11::basic_string<char>, int> > >::_Rb_tree_impl"* %2 to %"class.std::allocator.13"*
  ret %"class.std::allocator.13"* %3
}

; Function Attrs: noinline nounwind uwtable
define linkonce_odr %"struct.std::pair"* @_ZNSt13_Rb_tree_nodeISt4pairIKNSt7__cxx1112basic_stringIcSt11char_traitsIcESaIcEEEiEE9_M_valptrEv(%"struct.std::_Rb_tree_node"* %0) #4 comdat align 2 {
  %2 = getelementptr inbounds %"struct.std::_Rb_tree_node", %"struct.std::_Rb_tree_node"* %0, i32 0, i32 1
  %3 = call %"struct.std::pair"* @_ZN9__gnu_cxx16__aligned_membufISt4pairIKNSt7__cxx1112basic_stringIcSt11char_traitsIcESaIcEEEiEE6_M_ptrEv(%"struct.__gnu_cxx::__aligned_membuf"* %2) #3
  ret %"struct.std::pair"* %3
}

; Function Attrs: noinline nounwind uwtable
define linkonce_odr void @_ZN9__gnu_cxx13new_allocatorISt13_Rb_tree_nodeISt4pairIKNSt7__cxx1112basic_stringIcSt11char_traitsIcESaIcEEEiEEE7destroyISA_EEvPT_(%"class.__gnu_cxx::new_allocator.14"* %0, %"struct.std::pair"* %1) #4 comdat align 2 {
  call void @_ZNSt4pairIKNSt7__cxx1112basic_stringIcSt11char_traitsIcESaIcEEEiED2Ev(%"struct.std::pair"* %1) #3
  ret void
}

; Function Attrs: noinline nounwind uwtable
define linkonce_odr void @_ZNSt4pairIKNSt7__cxx1112basic_stringIcSt11char_traitsIcESaIcEEEiED2Ev(%"struct.std::pair"* %0) unnamed_addr #4 comdat align 2 {
  %2 = getelementptr inbounds %"struct.std::pair", %"struct.std::pair"* %0, i32 0, i32 0
  call void @_ZNSt7__cxx1112basic_stringIcSt11char_traitsIcESaIcEED1Ev(%"class.std::__cxx11::basic_string"* %2) #3
  ret void
}

; Function Attrs: noinline nounwind uwtable
define linkonce_odr %"struct.std::pair"* @_ZN9__gnu_cxx16__aligned_membufISt4pairIKNSt7__cxx1112basic_stringIcSt11char_traitsIcESaIcEEEiEE6_M_ptrEv(%"struct.__gnu_cxx::__aligned_membuf"* %0) #4 comdat align 2 {
  %2 = call i8* @_ZN9__gnu_cxx16__aligned_membufISt4pairIKNSt7__cxx1112basic_stringIcSt11char_traitsIcESaIcEEEiEE7_M_addrEv(%"struct.__gnu_cxx::__aligned_membuf"* %0) #3
  %3 = bitcast i8* %2 to %"struct.std::pair"*
  ret %"struct.std::pair"* %3
}

; Function Attrs: noinline nounwind uwtable
define linkonce_odr i8* @_ZN9__gnu_cxx16__aligned_membufISt4pairIKNSt7__cxx1112basic_stringIcSt11char_traitsIcESaIcEEEiEE7_M_addrEv(%"struct.__gnu_cxx::__aligned_membuf"* %0) #4 comdat align 2 {
  %2 = getelementptr inbounds %"struct.__gnu_cxx::__aligned_membuf", %"struct.__gnu_cxx::__aligned_membuf"* %0, i32 0, i32 0
  %3 = bitcast [40 x i8]* %2 to i8*
  ret i8* %3
}

; Function Attrs: noinline uwtable
define linkonce_odr void @_ZNSt16allocator_traitsISaISt13_Rb_tree_nodeISt4pairIKNSt7__cxx1112basic_stringIcSt11char_traitsIcESaIcEEEiEEEE10deallocateERSB_PSA_m(%"class.std::allocator.13"* dereferenceable(1) %0, %"struct.std::_Rb_tree_node"* %1, i64 %2) #0 comdat align 2 {
  %4 = bitcast %"class.std::allocator.13"* %0 to %"class.__gnu_cxx::new_allocator.14"*
  call void @_ZN9__gnu_cxx13new_allocatorISt13_Rb_tree_nodeISt4pairIKNSt7__cxx1112basic_stringIcSt11char_traitsIcESaIcEEEiEEE10deallocateEPSB_m(%"class.__gnu_cxx::new_allocator.14"* %4, %"struct.std::_Rb_tree_node"* %1, i64 %2)
  ret void
}

; Function Attrs: noinline nounwind uwtable
define linkonce_odr void @_ZN9__gnu_cxx13new_allocatorISt13_Rb_tree_nodeISt4pairIKNSt7__cxx1112basic_stringIcSt11char_traitsIcESaIcEEEiEEE10deallocateEPSB_m(%"class.__gnu_cxx::new_allocator.14"* %0, %"struct.std::_Rb_tree_node"* %1, i64 %2) #4 comdat align 2 {
  %4 = bitcast %"struct.std::_Rb_tree_node"* %1 to i8*
  call void @_ZdlPv(i8* %4) #3
  ret void
}

; Function Attrs: noinline nounwind uwtable
define linkonce_odr void @_ZNSaISt13_Rb_tree_nodeISt4pairIKNSt7__cxx1112basic_stringIcSt11char_traitsIcESaIcEEEiEEED2Ev(%"class.std::allocator.13"* %0) unnamed_addr #4 comdat align 2 {
  %2 = bitcast %"class.std::allocator.13"* %0 to %"class.__gnu_cxx::new_allocator.14"*
  call void @_ZN9__gnu_cxx13new_allocatorISt13_Rb_tree_nodeISt4pairIKNSt7__cxx1112basic_stringIcSt11char_traitsIcESaIcEEEiEEED2Ev(%"class.__gnu_cxx::new_allocator.14"* %2) #3
  ret void
}

; Function Attrs: noinline nounwind uwtable
define linkonce_odr void @_ZN9__gnu_cxx13new_allocatorISt13_Rb_tree_nodeISt4pairIKNSt7__cxx1112basic_stringIcSt11char_traitsIcESaIcEEEiEEED2Ev(%"class.__gnu_cxx::new_allocator.14"* %0) unnamed_addr #4 comdat align 2 {
  ret void
}

; Function Attrs: noinline uwtable
define linkonce_odr void @_ZNSt12_Vector_baseINSt7__cxx1112basic_stringIcSt11char_traitsIcESaIcEEESaIS5_EEC2Ev(%"struct.std::_Vector_base"* %0) unnamed_addr #0 comdat align 2 {
  %2 = getelementptr inbounds %"struct.std::_Vector_base", %"struct.std::_Vector_base"* %0, i32 0, i32 0
  call void @_ZNSt12_Vector_baseINSt7__cxx1112basic_stringIcSt11char_traitsIcESaIcEEESaIS5_EE12_Vector_implC2Ev(%"struct.std::_Vector_base<std::__cxx11::basic_string<char>, std::allocator<std::__cxx11::basic_string<char> > >::_Vector_impl"* %2)
  ret void
}

; Function Attrs: noinline nounwind uwtable
define linkonce_odr void @_ZNSt12_Vector_baseINSt7__cxx1112basic_stringIcSt11char_traitsIcESaIcEEESaIS5_EE12_Vector_implC2Ev(%"struct.std::_Vector_base<std::__cxx11::basic_string<char>, std::allocator<std::__cxx11::basic_string<char> > >::_Vector_impl"* %0) unnamed_addr #4 comdat align 2 {
  %2 = bitcast %"struct.std::_Vector_base<std::__cxx11::basic_string<char>, std::allocator<std::__cxx11::basic_string<char> > >::_Vector_impl"* %0 to %"class.std::allocator"*
  call void @_ZNSaINSt7__cxx1112basic_stringIcSt11char_traitsIcESaIcEEEEC2Ev(%"class.std::allocator"* %2) #3
  %3 = getelementptr inbounds %"struct.std::_Vector_base<std::__cxx11::basic_string<char>, std::allocator<std::__cxx11::basic_string<char> > >::_Vector_impl", %"struct.std::_Vector_base<std::__cxx11::basic_string<char>, std::allocator<std::__cxx11::basic_string<char> > >::_Vector_impl"* %0, i32 0, i32 0
  store %"class.std::__cxx11::basic_string"* null, %"class.std::__cxx11::basic_string"** %3, align 8
  %4 = getelementptr inbounds %"struct.std::_Vector_base<std::__cxx11::basic_string<char>, std::allocator<std::__cxx11::basic_string<char> > >::_Vector_impl", %"struct.std::_Vector_base<std::__cxx11::basic_string<char>, std::allocator<std::__cxx11::basic_string<char> > >::_Vector_impl"* %0, i32 0, i32 1
  store %"class.std::__cxx11::basic_string"* null, %"class.std::__cxx11::basic_string"** %4, align 8
  %5 = getelementptr inbounds %"struct.std::_Vector_base<std::__cxx11::basic_string<char>, std::allocator<std::__cxx11::basic_string<char> > >::_Vector_impl", %"struct.std::_Vector_base<std::__cxx11::basic_string<char>, std::allocator<std::__cxx11::basic_string<char> > >::_Vector_impl"* %0, i32 0, i32 2
  store %"class.std::__cxx11::basic_string"* null, %"class.std::__cxx11::basic_string"** %5, align 8
  ret void
}

; Function Attrs: noinline nounwind uwtable
define linkonce_odr void @_ZN9__gnu_cxx13new_allocatorINSt7__cxx1112basic_stringIcSt11char_traitsIcESaIcEEEEC2Ev(%"class.__gnu_cxx::new_allocator"* %0) unnamed_addr #4 comdat align 2 {
  ret void
}

; Function Attrs: noinline uwtable
define linkonce_odr void @_ZSt8_DestroyIPNSt7__cxx1112basic_stringIcSt11char_traitsIcESaIcEEES5_EvT_S7_RSaIT0_E(%"class.std::__cxx11::basic_string"* %0, %"class.std::__cxx11::basic_string"* %1, %"class.std::allocator"* dereferenceable(1) %2) #0 comdat {
  call void @_ZSt8_DestroyIPNSt7__cxx1112basic_stringIcSt11char_traitsIcESaIcEEEEvT_S7_(%"class.std::__cxx11::basic_string"* %0, %"class.std::__cxx11::basic_string"* %1)
  ret void
}

; Function Attrs: noinline nounwind uwtable
define linkonce_odr dereferenceable(1) %"class.std::allocator"* @_ZNSt12_Vector_baseINSt7__cxx1112basic_stringIcSt11char_traitsIcESaIcEEESaIS5_EE19_M_get_Tp_allocatorEv(%"struct.std::_Vector_base"* %0) #4 comdat align 2 {
  %2 = getelementptr inbounds %"struct.std::_Vector_base", %"struct.std::_Vector_base"* %0, i32 0, i32 0
  %3 = bitcast %"struct.std::_Vector_base<std::__cxx11::basic_string<char>, std::allocator<std::__cxx11::basic_string<char> > >::_Vector_impl"* %2 to %"class.std::allocator"*
  ret %"class.std::allocator"* %3
}

; Function Attrs: noinline nounwind uwtable
define linkonce_odr void @_ZNSt12_Vector_baseINSt7__cxx1112basic_stringIcSt11char_traitsIcESaIcEEESaIS5_EED2Ev(%"struct.std::_Vector_base"* %0) unnamed_addr #4 comdat align 2 personality i8* bitcast (i32 (...)* @__gxx_personality_v0 to i8*) {
  %2 = getelementptr inbounds %"struct.std::_Vector_base", %"struct.std::_Vector_base"* %0, i32 0, i32 0
  %3 = getelementptr inbounds %"struct.std::_Vector_base<std::__cxx11::basic_string<char>, std::allocator<std::__cxx11::basic_string<char> > >::_Vector_impl", %"struct.std::_Vector_base<std::__cxx11::basic_string<char>, std::allocator<std::__cxx11::basic_string<char> > >::_Vector_impl"* %2, i32 0, i32 0
  %4 = load %"class.std::__cxx11::basic_string"*, %"class.std::__cxx11::basic_string"** %3, align 8
  %5 = getelementptr inbounds %"struct.std::_Vector_base", %"struct.std::_Vector_base"* %0, i32 0, i32 0
  %6 = getelementptr inbounds %"struct.std::_Vector_base<std::__cxx11::basic_string<char>, std::allocator<std::__cxx11::basic_string<char> > >::_Vector_impl", %"struct.std::_Vector_base<std::__cxx11::basic_string<char>, std::allocator<std::__cxx11::basic_string<char> > >::_Vector_impl"* %5, i32 0, i32 2
  %7 = load %"class.std::__cxx11::basic_string"*, %"class.std::__cxx11::basic_string"** %6, align 8
  %8 = getelementptr inbounds %"struct.std::_Vector_base", %"struct.std::_Vector_base"* %0, i32 0, i32 0
  %9 = getelementptr inbounds %"struct.std::_Vector_base<std::__cxx11::basic_string<char>, std::allocator<std::__cxx11::basic_string<char> > >::_Vector_impl", %"struct.std::_Vector_base<std::__cxx11::basic_string<char>, std::allocator<std::__cxx11::basic_string<char> > >::_Vector_impl"* %8, i32 0, i32 0
  %10 = load %"class.std::__cxx11::basic_string"*, %"class.std::__cxx11::basic_string"** %9, align 8
  %11 = ptrtoint %"class.std::__cxx11::basic_string"* %7 to i64
  %12 = ptrtoint %"class.std::__cxx11::basic_string"* %10 to i64
  %13 = sub i64 %11, %12
  %14 = sdiv exact i64 %13, 32
  invoke void @_ZNSt12_Vector_baseINSt7__cxx1112basic_stringIcSt11char_traitsIcESaIcEEESaIS5_EE13_M_deallocateEPS5_m(%"struct.std::_Vector_base"* %0, %"class.std::__cxx11::basic_string"* %4, i64 %14)
          to label %15 unwind label %17

15:                                               ; preds = %1
  %16 = getelementptr inbounds %"struct.std::_Vector_base", %"struct.std::_Vector_base"* %0, i32 0, i32 0
  call void @_ZNSt12_Vector_baseINSt7__cxx1112basic_stringIcSt11char_traitsIcESaIcEEESaIS5_EE12_Vector_implD2Ev(%"struct.std::_Vector_base<std::__cxx11::basic_string<char>, std::allocator<std::__cxx11::basic_string<char> > >::_Vector_impl"* %16) #3
  ret void

17:                                               ; preds = %1
  %18 = landingpad { i8*, i32 }
          catch i8* null
  %19 = extractvalue { i8*, i32 } %18, 0
  %20 = extractvalue { i8*, i32 } %18, 1
  %21 = getelementptr inbounds %"struct.std::_Vector_base", %"struct.std::_Vector_base"* %0, i32 0, i32 0
  call void @_ZNSt12_Vector_baseINSt7__cxx1112basic_stringIcSt11char_traitsIcESaIcEEESaIS5_EE12_Vector_implD2Ev(%"struct.std::_Vector_base<std::__cxx11::basic_string<char>, std::allocator<std::__cxx11::basic_string<char> > >::_Vector_impl"* %21) #3
  br label %22

22:                                               ; preds = %17
  call void @__clang_call_terminate(i8* %19) #14
  unreachable
}

; Function Attrs: noinline uwtable
define linkonce_odr void @_ZSt8_DestroyIPNSt7__cxx1112basic_stringIcSt11char_traitsIcESaIcEEEEvT_S7_(%"class.std::__cxx11::basic_string"* %0, %"class.std::__cxx11::basic_string"* %1) #0 comdat {
  call void @_ZNSt12_Destroy_auxILb0EE9__destroyIPNSt7__cxx1112basic_stringIcSt11char_traitsIcESaIcEEEEEvT_S9_(%"class.std::__cxx11::basic_string"* %0, %"class.std::__cxx11::basic_string"* %1)
  ret void
}

; Function Attrs: noinline uwtable
define linkonce_odr void @_ZNSt12_Destroy_auxILb0EE9__destroyIPNSt7__cxx1112basic_stringIcSt11char_traitsIcESaIcEEEEEvT_S9_(%"class.std::__cxx11::basic_string"* %0, %"class.std::__cxx11::basic_string"* %1) #0 comdat align 2 {
  br label %3

3:                                                ; preds = %7, %2
  %.0 = phi %"class.std::__cxx11::basic_string"* [ %0, %2 ], [ %8, %7 ]
  %4 = icmp ne %"class.std::__cxx11::basic_string"* %.0, %1
  br i1 %4, label %5, label %9

5:                                                ; preds = %3
  %6 = call %"class.std::__cxx11::basic_string"* @_ZSt11__addressofINSt7__cxx1112basic_stringIcSt11char_traitsIcESaIcEEEEPT_RS6_(%"class.std::__cxx11::basic_string"* dereferenceable(32) %.0) #3
  call void @_ZSt8_DestroyINSt7__cxx1112basic_stringIcSt11char_traitsIcESaIcEEEEvPT_(%"class.std::__cxx11::basic_string"* %6)
  br label %7

7:                                                ; preds = %5
  %8 = getelementptr inbounds %"class.std::__cxx11::basic_string", %"class.std::__cxx11::basic_string"* %.0, i32 1
  br label %3

9:                                                ; preds = %3
  ret void
}

; Function Attrs: noinline nounwind uwtable
define linkonce_odr void @_ZSt8_DestroyINSt7__cxx1112basic_stringIcSt11char_traitsIcESaIcEEEEvPT_(%"class.std::__cxx11::basic_string"* %0) #4 comdat {
  call void @_ZNSt7__cxx1112basic_stringIcSt11char_traitsIcESaIcEED1Ev(%"class.std::__cxx11::basic_string"* %0) #3
  ret void
}

; Function Attrs: noinline nounwind uwtable
define linkonce_odr %"class.std::__cxx11::basic_string"* @_ZSt11__addressofINSt7__cxx1112basic_stringIcSt11char_traitsIcESaIcEEEEPT_RS6_(%"class.std::__cxx11::basic_string"* dereferenceable(32) %0) #4 comdat {
  ret %"class.std::__cxx11::basic_string"* %0
}

; Function Attrs: noinline uwtable
define linkonce_odr void @_ZNSt12_Vector_baseINSt7__cxx1112basic_stringIcSt11char_traitsIcESaIcEEESaIS5_EE13_M_deallocateEPS5_m(%"struct.std::_Vector_base"* %0, %"class.std::__cxx11::basic_string"* %1, i64 %2) #0 comdat align 2 {
  %4 = icmp ne %"class.std::__cxx11::basic_string"* %1, null
  br i1 %4, label %5, label %8

5:                                                ; preds = %3
  %6 = getelementptr inbounds %"struct.std::_Vector_base", %"struct.std::_Vector_base"* %0, i32 0, i32 0
  %7 = bitcast %"struct.std::_Vector_base<std::__cxx11::basic_string<char>, std::allocator<std::__cxx11::basic_string<char> > >::_Vector_impl"* %6 to %"class.std::allocator"*
  call void @_ZNSt16allocator_traitsISaINSt7__cxx1112basic_stringIcSt11char_traitsIcESaIcEEEEE10deallocateERS6_PS5_m(%"class.std::allocator"* dereferenceable(1) %7, %"class.std::__cxx11::basic_string"* %1, i64 %2)
  br label %8

8:                                                ; preds = %5, %3
  ret void
}

; Function Attrs: noinline nounwind uwtable
define linkonce_odr void @_ZNSt12_Vector_baseINSt7__cxx1112basic_stringIcSt11char_traitsIcESaIcEEESaIS5_EE12_Vector_implD2Ev(%"struct.std::_Vector_base<std::__cxx11::basic_string<char>, std::allocator<std::__cxx11::basic_string<char> > >::_Vector_impl"* %0) unnamed_addr #4 comdat align 2 {
  %2 = bitcast %"struct.std::_Vector_base<std::__cxx11::basic_string<char>, std::allocator<std::__cxx11::basic_string<char> > >::_Vector_impl"* %0 to %"class.std::allocator"*
  call void @_ZNSaINSt7__cxx1112basic_stringIcSt11char_traitsIcESaIcEEEED2Ev(%"class.std::allocator"* %2) #3
  ret void
}

; Function Attrs: noinline uwtable
define linkonce_odr void @_ZNSt16allocator_traitsISaINSt7__cxx1112basic_stringIcSt11char_traitsIcESaIcEEEEE10deallocateERS6_PS5_m(%"class.std::allocator"* dereferenceable(1) %0, %"class.std::__cxx11::basic_string"* %1, i64 %2) #0 comdat align 2 {
  %4 = bitcast %"class.std::allocator"* %0 to %"class.__gnu_cxx::new_allocator"*
  call void @_ZN9__gnu_cxx13new_allocatorINSt7__cxx1112basic_stringIcSt11char_traitsIcESaIcEEEE10deallocateEPS6_m(%"class.__gnu_cxx::new_allocator"* %4, %"class.std::__cxx11::basic_string"* %1, i64 %2)
  ret void
}

; Function Attrs: noinline nounwind uwtable
define linkonce_odr void @_ZN9__gnu_cxx13new_allocatorINSt7__cxx1112basic_stringIcSt11char_traitsIcESaIcEEEE10deallocateEPS6_m(%"class.__gnu_cxx::new_allocator"* %0, %"class.std::__cxx11::basic_string"* %1, i64 %2) #4 comdat align 2 {
  %4 = bitcast %"class.std::__cxx11::basic_string"* %1 to i8*
  call void @_ZdlPv(i8* %4) #3
  ret void
}

; Function Attrs: noinline nounwind uwtable
define linkonce_odr void @_ZN9__gnu_cxx13new_allocatorINSt7__cxx1112basic_stringIcSt11char_traitsIcESaIcEEEED2Ev(%"class.__gnu_cxx::new_allocator"* %0) unnamed_addr #4 comdat align 2 {
  ret void
}

; Function Attrs: noinline uwtable
define linkonce_odr void @_ZNSt12_Vector_baseISt6vectorIiSaIiEESaIS2_EEC2Ev(%"struct.std::_Vector_base.4"* %0) unnamed_addr #0 comdat align 2 {
  %2 = getelementptr inbounds %"struct.std::_Vector_base.4", %"struct.std::_Vector_base.4"* %0, i32 0, i32 0
  call void @_ZNSt12_Vector_baseISt6vectorIiSaIiEESaIS2_EE12_Vector_implC2Ev(%"struct.std::_Vector_base<std::vector<int, std::allocator<int> >, std::allocator<std::vector<int, std::allocator<int> > > >::_Vector_impl"* %2)
  ret void
}

; Function Attrs: noinline nounwind uwtable
define linkonce_odr void @_ZNSt12_Vector_baseISt6vectorIiSaIiEESaIS2_EE12_Vector_implC2Ev(%"struct.std::_Vector_base<std::vector<int, std::allocator<int> >, std::allocator<std::vector<int, std::allocator<int> > > >::_Vector_impl"* %0) unnamed_addr #4 comdat align 2 {
  %2 = bitcast %"struct.std::_Vector_base<std::vector<int, std::allocator<int> >, std::allocator<std::vector<int, std::allocator<int> > > >::_Vector_impl"* %0 to %"class.std::allocator.5"*
  call void @_ZNSaISt6vectorIiSaIiEEEC2Ev(%"class.std::allocator.5"* %2) #3
  %3 = getelementptr inbounds %"struct.std::_Vector_base<std::vector<int, std::allocator<int> >, std::allocator<std::vector<int, std::allocator<int> > > >::_Vector_impl", %"struct.std::_Vector_base<std::vector<int, std::allocator<int> >, std::allocator<std::vector<int, std::allocator<int> > > >::_Vector_impl"* %0, i32 0, i32 0
  store %"class.std::vector.8"* null, %"class.std::vector.8"** %3, align 8
  %4 = getelementptr inbounds %"struct.std::_Vector_base<std::vector<int, std::allocator<int> >, std::allocator<std::vector<int, std::allocator<int> > > >::_Vector_impl", %"struct.std::_Vector_base<std::vector<int, std::allocator<int> >, std::allocator<std::vector<int, std::allocator<int> > > >::_Vector_impl"* %0, i32 0, i32 1
  store %"class.std::vector.8"* null, %"class.std::vector.8"** %4, align 8
  %5 = getelementptr inbounds %"struct.std::_Vector_base<std::vector<int, std::allocator<int> >, std::allocator<std::vector<int, std::allocator<int> > > >::_Vector_impl", %"struct.std::_Vector_base<std::vector<int, std::allocator<int> >, std::allocator<std::vector<int, std::allocator<int> > > >::_Vector_impl"* %0, i32 0, i32 2
  store %"class.std::vector.8"* null, %"class.std::vector.8"** %5, align 8
  ret void
}

; Function Attrs: noinline nounwind uwtable
define linkonce_odr void @_ZNSaISt6vectorIiSaIiEEEC2Ev(%"class.std::allocator.5"* %0) unnamed_addr #4 comdat align 2 {
  %2 = bitcast %"class.std::allocator.5"* %0 to %"class.__gnu_cxx::new_allocator.6"*
  call void @_ZN9__gnu_cxx13new_allocatorISt6vectorIiSaIiEEEC2Ev(%"class.__gnu_cxx::new_allocator.6"* %2) #3
  ret void
}

; Function Attrs: noinline nounwind uwtable
define linkonce_odr void @_ZN9__gnu_cxx13new_allocatorISt6vectorIiSaIiEEEC2Ev(%"class.__gnu_cxx::new_allocator.6"* %0) unnamed_addr #4 comdat align 2 {
  ret void
}

; Function Attrs: noinline uwtable
define linkonce_odr void @_ZSt8_DestroyIPSt6vectorIiSaIiEES2_EvT_S4_RSaIT0_E(%"class.std::vector.8"* %0, %"class.std::vector.8"* %1, %"class.std::allocator.5"* dereferenceable(1) %2) #0 comdat {
  call void @_ZSt8_DestroyIPSt6vectorIiSaIiEEEvT_S4_(%"class.std::vector.8"* %0, %"class.std::vector.8"* %1)
  ret void
}

; Function Attrs: noinline nounwind uwtable
define linkonce_odr dereferenceable(1) %"class.std::allocator.5"* @_ZNSt12_Vector_baseISt6vectorIiSaIiEESaIS2_EE19_M_get_Tp_allocatorEv(%"struct.std::_Vector_base.4"* %0) #4 comdat align 2 {
  %2 = getelementptr inbounds %"struct.std::_Vector_base.4", %"struct.std::_Vector_base.4"* %0, i32 0, i32 0
  %3 = bitcast %"struct.std::_Vector_base<std::vector<int, std::allocator<int> >, std::allocator<std::vector<int, std::allocator<int> > > >::_Vector_impl"* %2 to %"class.std::allocator.5"*
  ret %"class.std::allocator.5"* %3
}

; Function Attrs: noinline nounwind uwtable
define linkonce_odr void @_ZNSt12_Vector_baseISt6vectorIiSaIiEESaIS2_EED2Ev(%"struct.std::_Vector_base.4"* %0) unnamed_addr #4 comdat align 2 personality i8* bitcast (i32 (...)* @__gxx_personality_v0 to i8*) {
  %2 = getelementptr inbounds %"struct.std::_Vector_base.4", %"struct.std::_Vector_base.4"* %0, i32 0, i32 0
  %3 = getelementptr inbounds %"struct.std::_Vector_base<std::vector<int, std::allocator<int> >, std::allocator<std::vector<int, std::allocator<int> > > >::_Vector_impl", %"struct.std::_Vector_base<std::vector<int, std::allocator<int> >, std::allocator<std::vector<int, std::allocator<int> > > >::_Vector_impl"* %2, i32 0, i32 0
  %4 = load %"class.std::vector.8"*, %"class.std::vector.8"** %3, align 8
  %5 = getelementptr inbounds %"struct.std::_Vector_base.4", %"struct.std::_Vector_base.4"* %0, i32 0, i32 0
  %6 = getelementptr inbounds %"struct.std::_Vector_base<std::vector<int, std::allocator<int> >, std::allocator<std::vector<int, std::allocator<int> > > >::_Vector_impl", %"struct.std::_Vector_base<std::vector<int, std::allocator<int> >, std::allocator<std::vector<int, std::allocator<int> > > >::_Vector_impl"* %5, i32 0, i32 2
  %7 = load %"class.std::vector.8"*, %"class.std::vector.8"** %6, align 8
  %8 = getelementptr inbounds %"struct.std::_Vector_base.4", %"struct.std::_Vector_base.4"* %0, i32 0, i32 0
  %9 = getelementptr inbounds %"struct.std::_Vector_base<std::vector<int, std::allocator<int> >, std::allocator<std::vector<int, std::allocator<int> > > >::_Vector_impl", %"struct.std::_Vector_base<std::vector<int, std::allocator<int> >, std::allocator<std::vector<int, std::allocator<int> > > >::_Vector_impl"* %8, i32 0, i32 0
  %10 = load %"class.std::vector.8"*, %"class.std::vector.8"** %9, align 8
  %11 = ptrtoint %"class.std::vector.8"* %7 to i64
  %12 = ptrtoint %"class.std::vector.8"* %10 to i64
  %13 = sub i64 %11, %12
  %14 = sdiv exact i64 %13, 24
  invoke void @_ZNSt12_Vector_baseISt6vectorIiSaIiEESaIS2_EE13_M_deallocateEPS2_m(%"struct.std::_Vector_base.4"* %0, %"class.std::vector.8"* %4, i64 %14)
          to label %15 unwind label %17

15:                                               ; preds = %1
  %16 = getelementptr inbounds %"struct.std::_Vector_base.4", %"struct.std::_Vector_base.4"* %0, i32 0, i32 0
  call void @_ZNSt12_Vector_baseISt6vectorIiSaIiEESaIS2_EE12_Vector_implD2Ev(%"struct.std::_Vector_base<std::vector<int, std::allocator<int> >, std::allocator<std::vector<int, std::allocator<int> > > >::_Vector_impl"* %16) #3
  ret void

17:                                               ; preds = %1
  %18 = landingpad { i8*, i32 }
          catch i8* null
  %19 = extractvalue { i8*, i32 } %18, 0
  %20 = extractvalue { i8*, i32 } %18, 1
  %21 = getelementptr inbounds %"struct.std::_Vector_base.4", %"struct.std::_Vector_base.4"* %0, i32 0, i32 0
  call void @_ZNSt12_Vector_baseISt6vectorIiSaIiEESaIS2_EE12_Vector_implD2Ev(%"struct.std::_Vector_base<std::vector<int, std::allocator<int> >, std::allocator<std::vector<int, std::allocator<int> > > >::_Vector_impl"* %21) #3
  br label %22

22:                                               ; preds = %17
  call void @__clang_call_terminate(i8* %19) #14
  unreachable
}

; Function Attrs: noinline uwtable
define linkonce_odr void @_ZSt8_DestroyIPSt6vectorIiSaIiEEEvT_S4_(%"class.std::vector.8"* %0, %"class.std::vector.8"* %1) #0 comdat {
  call void @_ZNSt12_Destroy_auxILb0EE9__destroyIPSt6vectorIiSaIiEEEEvT_S6_(%"class.std::vector.8"* %0, %"class.std::vector.8"* %1)
  ret void
}

; Function Attrs: noinline uwtable
define linkonce_odr void @_ZNSt12_Destroy_auxILb0EE9__destroyIPSt6vectorIiSaIiEEEEvT_S6_(%"class.std::vector.8"* %0, %"class.std::vector.8"* %1) #0 comdat align 2 {
  br label %3

3:                                                ; preds = %7, %2
  %.0 = phi %"class.std::vector.8"* [ %0, %2 ], [ %8, %7 ]
  %4 = icmp ne %"class.std::vector.8"* %.0, %1
  br i1 %4, label %5, label %9

5:                                                ; preds = %3
  %6 = call %"class.std::vector.8"* @_ZSt11__addressofISt6vectorIiSaIiEEEPT_RS3_(%"class.std::vector.8"* dereferenceable(24) %.0) #3
  call void @_ZSt8_DestroyISt6vectorIiSaIiEEEvPT_(%"class.std::vector.8"* %6)
  br label %7

7:                                                ; preds = %5
  %8 = getelementptr inbounds %"class.std::vector.8", %"class.std::vector.8"* %.0, i32 1
  br label %3

9:                                                ; preds = %3
  ret void
}

; Function Attrs: noinline nounwind uwtable
define linkonce_odr void @_ZSt8_DestroyISt6vectorIiSaIiEEEvPT_(%"class.std::vector.8"* %0) #4 comdat {
  call void @_ZNSt6vectorIiSaIiEED2Ev(%"class.std::vector.8"* %0) #3
  ret void
}

; Function Attrs: noinline nounwind uwtable
define linkonce_odr %"class.std::vector.8"* @_ZSt11__addressofISt6vectorIiSaIiEEEPT_RS3_(%"class.std::vector.8"* dereferenceable(24) %0) #4 comdat {
  ret %"class.std::vector.8"* %0
}

; Function Attrs: noinline uwtable
define linkonce_odr void @_ZNSt12_Vector_baseISt6vectorIiSaIiEESaIS2_EE13_M_deallocateEPS2_m(%"struct.std::_Vector_base.4"* %0, %"class.std::vector.8"* %1, i64 %2) #0 comdat align 2 {
  %4 = icmp ne %"class.std::vector.8"* %1, null
  br i1 %4, label %5, label %8

5:                                                ; preds = %3
  %6 = getelementptr inbounds %"struct.std::_Vector_base.4", %"struct.std::_Vector_base.4"* %0, i32 0, i32 0
  %7 = bitcast %"struct.std::_Vector_base<std::vector<int, std::allocator<int> >, std::allocator<std::vector<int, std::allocator<int> > > >::_Vector_impl"* %6 to %"class.std::allocator.5"*
  call void @_ZNSt16allocator_traitsISaISt6vectorIiSaIiEEEE10deallocateERS3_PS2_m(%"class.std::allocator.5"* dereferenceable(1) %7, %"class.std::vector.8"* %1, i64 %2)
  br label %8

8:                                                ; preds = %5, %3
  ret void
}

; Function Attrs: noinline nounwind uwtable
define linkonce_odr void @_ZNSt12_Vector_baseISt6vectorIiSaIiEESaIS2_EE12_Vector_implD2Ev(%"struct.std::_Vector_base<std::vector<int, std::allocator<int> >, std::allocator<std::vector<int, std::allocator<int> > > >::_Vector_impl"* %0) unnamed_addr #4 comdat align 2 {
  %2 = bitcast %"struct.std::_Vector_base<std::vector<int, std::allocator<int> >, std::allocator<std::vector<int, std::allocator<int> > > >::_Vector_impl"* %0 to %"class.std::allocator.5"*
  call void @_ZNSaISt6vectorIiSaIiEEED2Ev(%"class.std::allocator.5"* %2) #3
  ret void
}

; Function Attrs: noinline uwtable
define linkonce_odr void @_ZNSt16allocator_traitsISaISt6vectorIiSaIiEEEE10deallocateERS3_PS2_m(%"class.std::allocator.5"* dereferenceable(1) %0, %"class.std::vector.8"* %1, i64 %2) #0 comdat align 2 {
  %4 = bitcast %"class.std::allocator.5"* %0 to %"class.__gnu_cxx::new_allocator.6"*
  call void @_ZN9__gnu_cxx13new_allocatorISt6vectorIiSaIiEEE10deallocateEPS3_m(%"class.__gnu_cxx::new_allocator.6"* %4, %"class.std::vector.8"* %1, i64 %2)
  ret void
}

; Function Attrs: noinline nounwind uwtable
define linkonce_odr void @_ZN9__gnu_cxx13new_allocatorISt6vectorIiSaIiEEE10deallocateEPS3_m(%"class.__gnu_cxx::new_allocator.6"* %0, %"class.std::vector.8"* %1, i64 %2) #4 comdat align 2 {
  %4 = bitcast %"class.std::vector.8"* %1 to i8*
  call void @_ZdlPv(i8* %4) #3
  ret void
}

; Function Attrs: noinline nounwind uwtable
define linkonce_odr void @_ZNSaISt6vectorIiSaIiEEED2Ev(%"class.std::allocator.5"* %0) unnamed_addr #4 comdat align 2 {
  %2 = bitcast %"class.std::allocator.5"* %0 to %"class.__gnu_cxx::new_allocator.6"*
  call void @_ZN9__gnu_cxx13new_allocatorISt6vectorIiSaIiEEED2Ev(%"class.__gnu_cxx::new_allocator.6"* %2) #3
  ret void
}

; Function Attrs: noinline nounwind uwtable
define linkonce_odr void @_ZN9__gnu_cxx13new_allocatorISt6vectorIiSaIiEEED2Ev(%"class.__gnu_cxx::new_allocator.6"* %0) unnamed_addr #4 comdat align 2 {
  ret void
}

; Function Attrs: noinline nounwind uwtable
define linkonce_odr void @_ZSt8__fill_aIPiiEN9__gnu_cxx11__enable_ifIXsr11__is_scalarIT0_EE7__valueEvE6__typeET_S6_RKS3_(i32* %0, i32* %1, i32* dereferenceable(4) %2) #4 comdat {
  %4 = load i32, i32* %2, align 4
  br label %5

5:                                                ; preds = %8, %3
  %.0 = phi i32* [ %0, %3 ], [ %9, %8 ]
  %6 = icmp ne i32* %.0, %1
  br i1 %6, label %7, label %10

7:                                                ; preds = %5
  store i32 %4, i32* %.0, align 4
  br label %8

8:                                                ; preds = %7
  %9 = getelementptr inbounds i32, i32* %.0, i32 1
  br label %5

10:                                               ; preds = %5
  ret void
}

; Function Attrs: noinline nounwind uwtable
define linkonce_odr i32* @_ZSt12__niter_baseIPiET_S1_(i32* %0) #4 comdat {
  ret i32* %0
}

; Function Attrs: noinline uwtable
define linkonce_odr void @_ZNSt12_Vector_baseINSt7__cxx1112basic_stringIcSt11char_traitsIcESaIcEEESaIS5_EEC2EmRKS6_(%"struct.std::_Vector_base"* %0, i64 %1, %"class.std::allocator"* dereferenceable(1) %2) unnamed_addr #0 comdat align 2 personality i8* bitcast (i32 (...)* @__gxx_personality_v0 to i8*) {
  %4 = getelementptr inbounds %"struct.std::_Vector_base", %"struct.std::_Vector_base"* %0, i32 0, i32 0
  call void @_ZNSt12_Vector_baseINSt7__cxx1112basic_stringIcSt11char_traitsIcESaIcEEESaIS5_EE12_Vector_implC2ERKS6_(%"struct.std::_Vector_base<std::__cxx11::basic_string<char>, std::allocator<std::__cxx11::basic_string<char> > >::_Vector_impl"* %4, %"class.std::allocator"* dereferenceable(1) %2) #3
  invoke void @_ZNSt12_Vector_baseINSt7__cxx1112basic_stringIcSt11char_traitsIcESaIcEEESaIS5_EE17_M_create_storageEm(%"struct.std::_Vector_base"* %0, i64 %1)
          to label %5 unwind label %6

5:                                                ; preds = %3
  ret void

6:                                                ; preds = %3
  %7 = landingpad { i8*, i32 }
          cleanup
  %8 = extractvalue { i8*, i32 } %7, 0
  %9 = extractvalue { i8*, i32 } %7, 1
  call void @_ZNSt12_Vector_baseINSt7__cxx1112basic_stringIcSt11char_traitsIcESaIcEEESaIS5_EE12_Vector_implD2Ev(%"struct.std::_Vector_base<std::__cxx11::basic_string<char>, std::allocator<std::__cxx11::basic_string<char> > >::_Vector_impl"* %4) #3
  br label %10

10:                                               ; preds = %6
  %11 = insertvalue { i8*, i32 } undef, i8* %8, 0
  %12 = insertvalue { i8*, i32 } %11, i32 %9, 1
  resume { i8*, i32 } %12
}

; Function Attrs: noinline uwtable
define linkonce_odr void @_ZNSt6vectorINSt7__cxx1112basic_stringIcSt11char_traitsIcESaIcEEESaIS5_EE21_M_default_initializeEm(%"class.std::vector"* %0, i64 %1) #0 comdat align 2 {
  %3 = bitcast %"class.std::vector"* %0 to %"struct.std::_Vector_base"*
  %4 = getelementptr inbounds %"struct.std::_Vector_base", %"struct.std::_Vector_base"* %3, i32 0, i32 0
  %5 = getelementptr inbounds %"struct.std::_Vector_base<std::__cxx11::basic_string<char>, std::allocator<std::__cxx11::basic_string<char> > >::_Vector_impl", %"struct.std::_Vector_base<std::__cxx11::basic_string<char>, std::allocator<std::__cxx11::basic_string<char> > >::_Vector_impl"* %4, i32 0, i32 0
  %6 = load %"class.std::__cxx11::basic_string"*, %"class.std::__cxx11::basic_string"** %5, align 8
  %7 = bitcast %"class.std::vector"* %0 to %"struct.std::_Vector_base"*
  %8 = call dereferenceable(1) %"class.std::allocator"* @_ZNSt12_Vector_baseINSt7__cxx1112basic_stringIcSt11char_traitsIcESaIcEEESaIS5_EE19_M_get_Tp_allocatorEv(%"struct.std::_Vector_base"* %7) #3
  %9 = call %"class.std::__cxx11::basic_string"* @_ZSt27__uninitialized_default_n_aIPNSt7__cxx1112basic_stringIcSt11char_traitsIcESaIcEEEmS5_ET_S7_T0_RSaIT1_E(%"class.std::__cxx11::basic_string"* %6, i64 %1, %"class.std::allocator"* dereferenceable(1) %8)
  %10 = bitcast %"class.std::vector"* %0 to %"struct.std::_Vector_base"*
  %11 = getelementptr inbounds %"struct.std::_Vector_base", %"struct.std::_Vector_base"* %10, i32 0, i32 0
  %12 = getelementptr inbounds %"struct.std::_Vector_base<std::__cxx11::basic_string<char>, std::allocator<std::__cxx11::basic_string<char> > >::_Vector_impl", %"struct.std::_Vector_base<std::__cxx11::basic_string<char>, std::allocator<std::__cxx11::basic_string<char> > >::_Vector_impl"* %11, i32 0, i32 1
  store %"class.std::__cxx11::basic_string"* %9, %"class.std::__cxx11::basic_string"** %12, align 8
  ret void
}

; Function Attrs: noinline nounwind uwtable
define linkonce_odr void @_ZNSt12_Vector_baseINSt7__cxx1112basic_stringIcSt11char_traitsIcESaIcEEESaIS5_EE12_Vector_implC2ERKS6_(%"struct.std::_Vector_base<std::__cxx11::basic_string<char>, std::allocator<std::__cxx11::basic_string<char> > >::_Vector_impl"* %0, %"class.std::allocator"* dereferenceable(1) %1) unnamed_addr #4 comdat align 2 {
  %3 = bitcast %"struct.std::_Vector_base<std::__cxx11::basic_string<char>, std::allocator<std::__cxx11::basic_string<char> > >::_Vector_impl"* %0 to %"class.std::allocator"*
  call void @_ZNSaINSt7__cxx1112basic_stringIcSt11char_traitsIcESaIcEEEEC2ERKS5_(%"class.std::allocator"* %3, %"class.std::allocator"* dereferenceable(1) %1) #3
  %4 = getelementptr inbounds %"struct.std::_Vector_base<std::__cxx11::basic_string<char>, std::allocator<std::__cxx11::basic_string<char> > >::_Vector_impl", %"struct.std::_Vector_base<std::__cxx11::basic_string<char>, std::allocator<std::__cxx11::basic_string<char> > >::_Vector_impl"* %0, i32 0, i32 0
  store %"class.std::__cxx11::basic_string"* null, %"class.std::__cxx11::basic_string"** %4, align 8
  %5 = getelementptr inbounds %"struct.std::_Vector_base<std::__cxx11::basic_string<char>, std::allocator<std::__cxx11::basic_string<char> > >::_Vector_impl", %"struct.std::_Vector_base<std::__cxx11::basic_string<char>, std::allocator<std::__cxx11::basic_string<char> > >::_Vector_impl"* %0, i32 0, i32 1
  store %"class.std::__cxx11::basic_string"* null, %"class.std::__cxx11::basic_string"** %5, align 8
  %6 = getelementptr inbounds %"struct.std::_Vector_base<std::__cxx11::basic_string<char>, std::allocator<std::__cxx11::basic_string<char> > >::_Vector_impl", %"struct.std::_Vector_base<std::__cxx11::basic_string<char>, std::allocator<std::__cxx11::basic_string<char> > >::_Vector_impl"* %0, i32 0, i32 2
  store %"class.std::__cxx11::basic_string"* null, %"class.std::__cxx11::basic_string"** %6, align 8
  ret void
}

; Function Attrs: noinline uwtable
define linkonce_odr void @_ZNSt12_Vector_baseINSt7__cxx1112basic_stringIcSt11char_traitsIcESaIcEEESaIS5_EE17_M_create_storageEm(%"struct.std::_Vector_base"* %0, i64 %1) #0 comdat align 2 {
  %3 = call %"class.std::__cxx11::basic_string"* @_ZNSt12_Vector_baseINSt7__cxx1112basic_stringIcSt11char_traitsIcESaIcEEESaIS5_EE11_M_allocateEm(%"struct.std::_Vector_base"* %0, i64 %1)
  %4 = getelementptr inbounds %"struct.std::_Vector_base", %"struct.std::_Vector_base"* %0, i32 0, i32 0
  %5 = getelementptr inbounds %"struct.std::_Vector_base<std::__cxx11::basic_string<char>, std::allocator<std::__cxx11::basic_string<char> > >::_Vector_impl", %"struct.std::_Vector_base<std::__cxx11::basic_string<char>, std::allocator<std::__cxx11::basic_string<char> > >::_Vector_impl"* %4, i32 0, i32 0
  store %"class.std::__cxx11::basic_string"* %3, %"class.std::__cxx11::basic_string"** %5, align 8
  %6 = getelementptr inbounds %"struct.std::_Vector_base", %"struct.std::_Vector_base"* %0, i32 0, i32 0
  %7 = getelementptr inbounds %"struct.std::_Vector_base<std::__cxx11::basic_string<char>, std::allocator<std::__cxx11::basic_string<char> > >::_Vector_impl", %"struct.std::_Vector_base<std::__cxx11::basic_string<char>, std::allocator<std::__cxx11::basic_string<char> > >::_Vector_impl"* %6, i32 0, i32 0
  %8 = load %"class.std::__cxx11::basic_string"*, %"class.std::__cxx11::basic_string"** %7, align 8
  %9 = getelementptr inbounds %"struct.std::_Vector_base", %"struct.std::_Vector_base"* %0, i32 0, i32 0
  %10 = getelementptr inbounds %"struct.std::_Vector_base<std::__cxx11::basic_string<char>, std::allocator<std::__cxx11::basic_string<char> > >::_Vector_impl", %"struct.std::_Vector_base<std::__cxx11::basic_string<char>, std::allocator<std::__cxx11::basic_string<char> > >::_Vector_impl"* %9, i32 0, i32 1
  store %"class.std::__cxx11::basic_string"* %8, %"class.std::__cxx11::basic_string"** %10, align 8
  %11 = getelementptr inbounds %"struct.std::_Vector_base", %"struct.std::_Vector_base"* %0, i32 0, i32 0
  %12 = getelementptr inbounds %"struct.std::_Vector_base<std::__cxx11::basic_string<char>, std::allocator<std::__cxx11::basic_string<char> > >::_Vector_impl", %"struct.std::_Vector_base<std::__cxx11::basic_string<char>, std::allocator<std::__cxx11::basic_string<char> > >::_Vector_impl"* %11, i32 0, i32 0
  %13 = load %"class.std::__cxx11::basic_string"*, %"class.std::__cxx11::basic_string"** %12, align 8
  %14 = getelementptr inbounds %"class.std::__cxx11::basic_string", %"class.std::__cxx11::basic_string"* %13, i64 %1
  %15 = getelementptr inbounds %"struct.std::_Vector_base", %"struct.std::_Vector_base"* %0, i32 0, i32 0
  %16 = getelementptr inbounds %"struct.std::_Vector_base<std::__cxx11::basic_string<char>, std::allocator<std::__cxx11::basic_string<char> > >::_Vector_impl", %"struct.std::_Vector_base<std::__cxx11::basic_string<char>, std::allocator<std::__cxx11::basic_string<char> > >::_Vector_impl"* %15, i32 0, i32 2
  store %"class.std::__cxx11::basic_string"* %14, %"class.std::__cxx11::basic_string"** %16, align 8
  ret void
}

; Function Attrs: noinline nounwind uwtable
define linkonce_odr void @_ZNSaINSt7__cxx1112basic_stringIcSt11char_traitsIcESaIcEEEEC2ERKS5_(%"class.std::allocator"* %0, %"class.std::allocator"* dereferenceable(1) %1) unnamed_addr #4 comdat align 2 {
  %3 = bitcast %"class.std::allocator"* %0 to %"class.__gnu_cxx::new_allocator"*
  %4 = bitcast %"class.std::allocator"* %1 to %"class.__gnu_cxx::new_allocator"*
  call void @_ZN9__gnu_cxx13new_allocatorINSt7__cxx1112basic_stringIcSt11char_traitsIcESaIcEEEEC2ERKS7_(%"class.__gnu_cxx::new_allocator"* %3, %"class.__gnu_cxx::new_allocator"* dereferenceable(1) %4) #3
  ret void
}

; Function Attrs: noinline nounwind uwtable
define linkonce_odr void @_ZN9__gnu_cxx13new_allocatorINSt7__cxx1112basic_stringIcSt11char_traitsIcESaIcEEEEC2ERKS7_(%"class.__gnu_cxx::new_allocator"* %0, %"class.__gnu_cxx::new_allocator"* dereferenceable(1) %1) unnamed_addr #4 comdat align 2 {
  ret void
}

; Function Attrs: noinline uwtable
define linkonce_odr %"class.std::__cxx11::basic_string"* @_ZNSt12_Vector_baseINSt7__cxx1112basic_stringIcSt11char_traitsIcESaIcEEESaIS5_EE11_M_allocateEm(%"struct.std::_Vector_base"* %0, i64 %1) #0 comdat align 2 {
  %3 = icmp ne i64 %1, 0
  br i1 %3, label %4, label %8

4:                                                ; preds = %2
  %5 = getelementptr inbounds %"struct.std::_Vector_base", %"struct.std::_Vector_base"* %0, i32 0, i32 0
  %6 = bitcast %"struct.std::_Vector_base<std::__cxx11::basic_string<char>, std::allocator<std::__cxx11::basic_string<char> > >::_Vector_impl"* %5 to %"class.std::allocator"*
  %7 = call %"class.std::__cxx11::basic_string"* @_ZNSt16allocator_traitsISaINSt7__cxx1112basic_stringIcSt11char_traitsIcESaIcEEEEE8allocateERS6_m(%"class.std::allocator"* dereferenceable(1) %6, i64 %1)
  br label %9

8:                                                ; preds = %2
  br label %9

9:                                                ; preds = %8, %4
  %10 = phi %"class.std::__cxx11::basic_string"* [ %7, %4 ], [ null, %8 ]
  ret %"class.std::__cxx11::basic_string"* %10
}

; Function Attrs: noinline uwtable
define linkonce_odr %"class.std::__cxx11::basic_string"* @_ZNSt16allocator_traitsISaINSt7__cxx1112basic_stringIcSt11char_traitsIcESaIcEEEEE8allocateERS6_m(%"class.std::allocator"* dereferenceable(1) %0, i64 %1) #0 comdat align 2 {
  %3 = bitcast %"class.std::allocator"* %0 to %"class.__gnu_cxx::new_allocator"*
  %4 = call %"class.std::__cxx11::basic_string"* @_ZN9__gnu_cxx13new_allocatorINSt7__cxx1112basic_stringIcSt11char_traitsIcESaIcEEEE8allocateEmPKv(%"class.__gnu_cxx::new_allocator"* %3, i64 %1, i8* null)
  ret %"class.std::__cxx11::basic_string"* %4
}

; Function Attrs: noinline uwtable
define linkonce_odr %"class.std::__cxx11::basic_string"* @_ZN9__gnu_cxx13new_allocatorINSt7__cxx1112basic_stringIcSt11char_traitsIcESaIcEEEE8allocateEmPKv(%"class.__gnu_cxx::new_allocator"* %0, i64 %1, i8* %2) #0 comdat align 2 {
  %4 = call i64 @_ZNK9__gnu_cxx13new_allocatorINSt7__cxx1112basic_stringIcSt11char_traitsIcESaIcEEEE8max_sizeEv(%"class.__gnu_cxx::new_allocator"* %0) #3
  %5 = icmp ugt i64 %1, %4
  br i1 %5, label %6, label %7

6:                                                ; preds = %3
  call void @_ZSt17__throw_bad_allocv() #15
  unreachable

7:                                                ; preds = %3
  %8 = mul i64 %1, 32
  %9 = call i8* @_Znwm(i64 %8)
  %10 = bitcast i8* %9 to %"class.std::__cxx11::basic_string"*
  ret %"class.std::__cxx11::basic_string"* %10
}

; Function Attrs: noinline nounwind uwtable
define linkonce_odr i64 @_ZNK9__gnu_cxx13new_allocatorINSt7__cxx1112basic_stringIcSt11char_traitsIcESaIcEEEE8max_sizeEv(%"class.__gnu_cxx::new_allocator"* %0) #4 comdat align 2 {
  ret i64 576460752303423487
}

; Function Attrs: noreturn
declare void @_ZSt17__throw_bad_allocv() #8

; Function Attrs: nobuiltin
declare noalias i8* @_Znwm(i64) #9

; Function Attrs: noinline uwtable
define linkonce_odr %"class.std::__cxx11::basic_string"* @_ZSt27__uninitialized_default_n_aIPNSt7__cxx1112basic_stringIcSt11char_traitsIcESaIcEEEmS5_ET_S7_T0_RSaIT1_E(%"class.std::__cxx11::basic_string"* %0, i64 %1, %"class.std::allocator"* dereferenceable(1) %2) #0 comdat {
  %4 = call %"class.std::__cxx11::basic_string"* @_ZSt25__uninitialized_default_nIPNSt7__cxx1112basic_stringIcSt11char_traitsIcESaIcEEEmET_S7_T0_(%"class.std::__cxx11::basic_string"* %0, i64 %1)
  ret %"class.std::__cxx11::basic_string"* %4
}

; Function Attrs: noinline uwtable
define linkonce_odr %"class.std::__cxx11::basic_string"* @_ZSt25__uninitialized_default_nIPNSt7__cxx1112basic_stringIcSt11char_traitsIcESaIcEEEmET_S7_T0_(%"class.std::__cxx11::basic_string"* %0, i64 %1) #0 comdat {
  %3 = call %"class.std::__cxx11::basic_string"* @_ZNSt27__uninitialized_default_n_1ILb0EE18__uninit_default_nIPNSt7__cxx1112basic_stringIcSt11char_traitsIcESaIcEEEmEET_S9_T0_(%"class.std::__cxx11::basic_string"* %0, i64 %1)
  ret %"class.std::__cxx11::basic_string"* %3
}

; Function Attrs: noinline uwtable
define linkonce_odr %"class.std::__cxx11::basic_string"* @_ZNSt27__uninitialized_default_n_1ILb0EE18__uninit_default_nIPNSt7__cxx1112basic_stringIcSt11char_traitsIcESaIcEEEmEET_S9_T0_(%"class.std::__cxx11::basic_string"* %0, i64 %1) #0 comdat align 2 personality i8* bitcast (i32 (...)* @__gxx_personality_v0 to i8*) {
  br label %3

3:                                                ; preds = %8, %2
  %.01 = phi %"class.std::__cxx11::basic_string"* [ %0, %2 ], [ %10, %8 ]
  %.0 = phi i64 [ %1, %2 ], [ %9, %8 ]
  %4 = icmp ugt i64 %.0, 0
  br i1 %4, label %5, label %18

5:                                                ; preds = %3
  %6 = call %"class.std::__cxx11::basic_string"* @_ZSt11__addressofINSt7__cxx1112basic_stringIcSt11char_traitsIcESaIcEEEEPT_RS6_(%"class.std::__cxx11::basic_string"* dereferenceable(32) %.01) #3
  invoke void @_ZSt10_ConstructINSt7__cxx1112basic_stringIcSt11char_traitsIcESaIcEEEJEEvPT_DpOT0_(%"class.std::__cxx11::basic_string"* %6)
          to label %7 unwind label %11

7:                                                ; preds = %5
  br label %8

8:                                                ; preds = %7
  %9 = add i64 %.0, -1
  %10 = getelementptr inbounds %"class.std::__cxx11::basic_string", %"class.std::__cxx11::basic_string"* %.01, i32 1
  br label %3

11:                                               ; preds = %5
  %12 = landingpad { i8*, i32 }
          catch i8* null
  %13 = extractvalue { i8*, i32 } %12, 0
  %14 = extractvalue { i8*, i32 } %12, 1
  br label %15

15:                                               ; preds = %11
  %16 = call i8* @__cxa_begin_catch(i8* %13) #3
  invoke void @_ZSt8_DestroyIPNSt7__cxx1112basic_stringIcSt11char_traitsIcESaIcEEEEvT_S7_(%"class.std::__cxx11::basic_string"* %0, %"class.std::__cxx11::basic_string"* %.01)
          to label %17 unwind label %19

17:                                               ; preds = %15
  invoke void @__cxa_rethrow() #15
          to label %31 unwind label %19

18:                                               ; preds = %3
  ret %"class.std::__cxx11::basic_string"* %.01

19:                                               ; preds = %17, %15
  %20 = landingpad { i8*, i32 }
          cleanup
  %21 = extractvalue { i8*, i32 } %20, 0
  %22 = extractvalue { i8*, i32 } %20, 1
  invoke void @__cxa_end_catch()
          to label %23 unwind label %28

23:                                               ; preds = %19
  br label %25

24:                                               ; No predecessors!
  call void @llvm.trap()
  unreachable

25:                                               ; preds = %23
  %26 = insertvalue { i8*, i32 } undef, i8* %21, 0
  %27 = insertvalue { i8*, i32 } %26, i32 %22, 1
  resume { i8*, i32 } %27

28:                                               ; preds = %19
  %29 = landingpad { i8*, i32 }
          catch i8* null
  %30 = extractvalue { i8*, i32 } %29, 0
  call void @__clang_call_terminate(i8* %30) #14
  unreachable

31:                                               ; preds = %17
  unreachable
}

; Function Attrs: noinline nounwind uwtable
define linkonce_odr void @_ZSt10_ConstructINSt7__cxx1112basic_stringIcSt11char_traitsIcESaIcEEEJEEvPT_DpOT0_(%"class.std::__cxx11::basic_string"* %0) #4 comdat {
  %2 = bitcast %"class.std::__cxx11::basic_string"* %0 to i8*
  %3 = bitcast i8* %2 to %"class.std::__cxx11::basic_string"*
  call void @_ZNSt7__cxx1112basic_stringIcSt11char_traitsIcESaIcEEC1Ev(%"class.std::__cxx11::basic_string"* %3) #3
  ret void
}

declare void @__cxa_rethrow()

declare void @__cxa_end_catch()

; Function Attrs: cold noreturn nounwind
declare void @llvm.trap() #10

; Function Attrs: noinline uwtable
define linkonce_odr %"struct.std::_Rb_tree_node_base"* @_ZNKSt8_Rb_treeINSt7__cxx1112basic_stringIcSt11char_traitsIcESaIcEEESt4pairIKS5_iESt10_Select1stIS8_ESt4lessIS5_ESaIS8_EE4findERS7_(%"class.std::_Rb_tree"* %0, %"class.std::__cxx11::basic_string"* dereferenceable(32) %1) #0 comdat align 2 {
  %3 = alloca %"struct.std::_Rb_tree_const_iterator", align 8
  %4 = alloca %"struct.std::_Rb_tree_const_iterator", align 8
  %5 = alloca %"struct.std::_Rb_tree_const_iterator", align 8
  %6 = call %"struct.std::_Rb_tree_node"* @_ZNKSt8_Rb_treeINSt7__cxx1112basic_stringIcSt11char_traitsIcESaIcEEESt4pairIKS5_iESt10_Select1stIS8_ESt4lessIS5_ESaIS8_EE8_M_beginEv(%"class.std::_Rb_tree"* %0) #3
  %7 = call %"struct.std::_Rb_tree_node_base"* @_ZNKSt8_Rb_treeINSt7__cxx1112basic_stringIcSt11char_traitsIcESaIcEEESt4pairIKS5_iESt10_Select1stIS8_ESt4lessIS5_ESaIS8_EE6_M_endEv(%"class.std::_Rb_tree"* %0) #3
  %8 = call %"struct.std::_Rb_tree_node_base"* @_ZNKSt8_Rb_treeINSt7__cxx1112basic_stringIcSt11char_traitsIcESaIcEEESt4pairIKS5_iESt10_Select1stIS8_ESt4lessIS5_ESaIS8_EE14_M_lower_boundEPKSt13_Rb_tree_nodeIS8_EPKSt18_Rb_tree_node_baseRS7_(%"class.std::_Rb_tree"* %0, %"struct.std::_Rb_tree_node"* %6, %"struct.std::_Rb_tree_node_base"* %7, %"class.std::__cxx11::basic_string"* dereferenceable(32) %1)
  %9 = getelementptr inbounds %"struct.std::_Rb_tree_const_iterator", %"struct.std::_Rb_tree_const_iterator"* %4, i32 0, i32 0
  store %"struct.std::_Rb_tree_node_base"* %8, %"struct.std::_Rb_tree_node_base"** %9, align 8
  %10 = call %"struct.std::_Rb_tree_node_base"* @_ZNKSt8_Rb_treeINSt7__cxx1112basic_stringIcSt11char_traitsIcESaIcEEESt4pairIKS5_iESt10_Select1stIS8_ESt4lessIS5_ESaIS8_EE3endEv(%"class.std::_Rb_tree"* %0) #3
  %11 = getelementptr inbounds %"struct.std::_Rb_tree_const_iterator", %"struct.std::_Rb_tree_const_iterator"* %5, i32 0, i32 0
  store %"struct.std::_Rb_tree_node_base"* %10, %"struct.std::_Rb_tree_node_base"** %11, align 8
  %12 = call zeroext i1 @_ZNKSt23_Rb_tree_const_iteratorISt4pairIKNSt7__cxx1112basic_stringIcSt11char_traitsIcESaIcEEEiEEeqERKS9_(%"struct.std::_Rb_tree_const_iterator"* %4, %"struct.std::_Rb_tree_const_iterator"* dereferenceable(8) %5) #3
  br i1 %12, label %21, label %13

13:                                               ; preds = %2
  %14 = getelementptr inbounds %"class.std::_Rb_tree", %"class.std::_Rb_tree"* %0, i32 0, i32 0
  %15 = bitcast %"struct.std::_Rb_tree<std::__cxx11::basic_string<char>, std::pair<const std::__cxx11::basic_string<char>, int>, std::_Select1st<std::pair<const std::__cxx11::basic_string<char>, int> >, std::less<std::__cxx11::basic_string<char> >, std::allocator<std::pair<const std::__cxx11::basic_string<char>, int> > >::_Rb_tree_impl"* %14 to %"struct.std::_Rb_tree_key_compare"*
  %16 = getelementptr inbounds %"struct.std::_Rb_tree_key_compare", %"struct.std::_Rb_tree_key_compare"* %15, i32 0, i32 0
  %17 = getelementptr inbounds %"struct.std::_Rb_tree_const_iterator", %"struct.std::_Rb_tree_const_iterator"* %4, i32 0, i32 0
  %18 = load %"struct.std::_Rb_tree_node_base"*, %"struct.std::_Rb_tree_node_base"** %17, align 8
  %19 = call dereferenceable(32) %"class.std::__cxx11::basic_string"* @_ZNSt8_Rb_treeINSt7__cxx1112basic_stringIcSt11char_traitsIcESaIcEEESt4pairIKS5_iESt10_Select1stIS8_ESt4lessIS5_ESaIS8_EE6_S_keyEPKSt18_Rb_tree_node_base(%"struct.std::_Rb_tree_node_base"* %18)
  %20 = call zeroext i1 @_ZNKSt4lessINSt7__cxx1112basic_stringIcSt11char_traitsIcESaIcEEEEclERKS5_S8_(%"struct.std::less"* %16, %"class.std::__cxx11::basic_string"* dereferenceable(32) %1, %"class.std::__cxx11::basic_string"* dereferenceable(32) %19)
  br i1 %20, label %21, label %24

21:                                               ; preds = %13, %2
  %22 = call %"struct.std::_Rb_tree_node_base"* @_ZNKSt8_Rb_treeINSt7__cxx1112basic_stringIcSt11char_traitsIcESaIcEEESt4pairIKS5_iESt10_Select1stIS8_ESt4lessIS5_ESaIS8_EE3endEv(%"class.std::_Rb_tree"* %0) #3
  %23 = getelementptr inbounds %"struct.std::_Rb_tree_const_iterator", %"struct.std::_Rb_tree_const_iterator"* %3, i32 0, i32 0
  store %"struct.std::_Rb_tree_node_base"* %22, %"struct.std::_Rb_tree_node_base"** %23, align 8
  br label %27

24:                                               ; preds = %13
  %25 = bitcast %"struct.std::_Rb_tree_const_iterator"* %3 to i8*
  %26 = bitcast %"struct.std::_Rb_tree_const_iterator"* %4 to i8*
  call void @llvm.memcpy.p0i8.p0i8.i64(i8* align 8 %25, i8* align 8 %26, i64 8, i1 false)
  br label %27

27:                                               ; preds = %24, %21
  %28 = getelementptr inbounds %"struct.std::_Rb_tree_const_iterator", %"struct.std::_Rb_tree_const_iterator"* %3, i32 0, i32 0
  %29 = load %"struct.std::_Rb_tree_node_base"*, %"struct.std::_Rb_tree_node_base"** %28, align 8
  ret %"struct.std::_Rb_tree_node_base"* %29
}

; Function Attrs: noinline nounwind uwtable
define linkonce_odr zeroext i1 @_ZNKSt23_Rb_tree_const_iteratorISt4pairIKNSt7__cxx1112basic_stringIcSt11char_traitsIcESaIcEEEiEEeqERKS9_(%"struct.std::_Rb_tree_const_iterator"* %0, %"struct.std::_Rb_tree_const_iterator"* dereferenceable(8) %1) #4 comdat align 2 {
  %3 = getelementptr inbounds %"struct.std::_Rb_tree_const_iterator", %"struct.std::_Rb_tree_const_iterator"* %0, i32 0, i32 0
  %4 = load %"struct.std::_Rb_tree_node_base"*, %"struct.std::_Rb_tree_node_base"** %3, align 8
  %5 = getelementptr inbounds %"struct.std::_Rb_tree_const_iterator", %"struct.std::_Rb_tree_const_iterator"* %1, i32 0, i32 0
  %6 = load %"struct.std::_Rb_tree_node_base"*, %"struct.std::_Rb_tree_node_base"** %5, align 8
  %7 = icmp eq %"struct.std::_Rb_tree_node_base"* %4, %6
  ret i1 %7
}

; Function Attrs: noinline nounwind uwtable
define linkonce_odr %"struct.std::_Rb_tree_node_base"* @_ZNKSt8_Rb_treeINSt7__cxx1112basic_stringIcSt11char_traitsIcESaIcEEESt4pairIKS5_iESt10_Select1stIS8_ESt4lessIS5_ESaIS8_EE3endEv(%"class.std::_Rb_tree"* %0) #4 comdat align 2 {
  %2 = alloca %"struct.std::_Rb_tree_const_iterator", align 8
  %3 = getelementptr inbounds %"class.std::_Rb_tree", %"class.std::_Rb_tree"* %0, i32 0, i32 0
  %4 = bitcast %"struct.std::_Rb_tree<std::__cxx11::basic_string<char>, std::pair<const std::__cxx11::basic_string<char>, int>, std::_Select1st<std::pair<const std::__cxx11::basic_string<char>, int> >, std::less<std::__cxx11::basic_string<char> >, std::allocator<std::pair<const std::__cxx11::basic_string<char>, int> > >::_Rb_tree_impl"* %3 to i8*
  %5 = getelementptr inbounds i8, i8* %4, i64 8
  %6 = bitcast i8* %5 to %"struct.std::_Rb_tree_header"*
  %7 = getelementptr inbounds %"struct.std::_Rb_tree_header", %"struct.std::_Rb_tree_header"* %6, i32 0, i32 0
  call void @_ZNSt23_Rb_tree_const_iteratorISt4pairIKNSt7__cxx1112basic_stringIcSt11char_traitsIcESaIcEEEiEEC2EPKSt18_Rb_tree_node_base(%"struct.std::_Rb_tree_const_iterator"* %2, %"struct.std::_Rb_tree_node_base"* %7) #3
  %8 = getelementptr inbounds %"struct.std::_Rb_tree_const_iterator", %"struct.std::_Rb_tree_const_iterator"* %2, i32 0, i32 0
  %9 = load %"struct.std::_Rb_tree_node_base"*, %"struct.std::_Rb_tree_node_base"** %8, align 8
  ret %"struct.std::_Rb_tree_node_base"* %9
}

; Function Attrs: noinline uwtable
define linkonce_odr %"struct.std::_Rb_tree_node_base"* @_ZNKSt8_Rb_treeINSt7__cxx1112basic_stringIcSt11char_traitsIcESaIcEEESt4pairIKS5_iESt10_Select1stIS8_ESt4lessIS5_ESaIS8_EE14_M_lower_boundEPKSt13_Rb_tree_nodeIS8_EPKSt18_Rb_tree_node_baseRS7_(%"class.std::_Rb_tree"* %0, %"struct.std::_Rb_tree_node"* %1, %"struct.std::_Rb_tree_node_base"* %2, %"class.std::__cxx11::basic_string"* dereferenceable(32) %3) #0 comdat align 2 {
  %5 = alloca %"struct.std::_Rb_tree_const_iterator", align 8
  br label %6

6:                                                ; preds = %21, %4
  %.01 = phi %"struct.std::_Rb_tree_node"* [ %1, %4 ], [ %.12, %21 ]
  %.0 = phi %"struct.std::_Rb_tree_node_base"* [ %2, %4 ], [ %.1, %21 ]
  %7 = icmp ne %"struct.std::_Rb_tree_node"* %.01, null
  br i1 %7, label %8, label %22

8:                                                ; preds = %6
  %9 = getelementptr inbounds %"class.std::_Rb_tree", %"class.std::_Rb_tree"* %0, i32 0, i32 0
  %10 = bitcast %"struct.std::_Rb_tree<std::__cxx11::basic_string<char>, std::pair<const std::__cxx11::basic_string<char>, int>, std::_Select1st<std::pair<const std::__cxx11::basic_string<char>, int> >, std::less<std::__cxx11::basic_string<char> >, std::allocator<std::pair<const std::__cxx11::basic_string<char>, int> > >::_Rb_tree_impl"* %9 to %"struct.std::_Rb_tree_key_compare"*
  %11 = getelementptr inbounds %"struct.std::_Rb_tree_key_compare", %"struct.std::_Rb_tree_key_compare"* %10, i32 0, i32 0
  %12 = call dereferenceable(32) %"class.std::__cxx11::basic_string"* @_ZNSt8_Rb_treeINSt7__cxx1112basic_stringIcSt11char_traitsIcESaIcEEESt4pairIKS5_iESt10_Select1stIS8_ESt4lessIS5_ESaIS8_EE6_S_keyEPKSt13_Rb_tree_nodeIS8_E(%"struct.std::_Rb_tree_node"* %.01)
  %13 = call zeroext i1 @_ZNKSt4lessINSt7__cxx1112basic_stringIcSt11char_traitsIcESaIcEEEEclERKS5_S8_(%"struct.std::less"* %11, %"class.std::__cxx11::basic_string"* dereferenceable(32) %12, %"class.std::__cxx11::basic_string"* dereferenceable(32) %3)
  br i1 %13, label %18, label %14

14:                                               ; preds = %8
  %15 = bitcast %"struct.std::_Rb_tree_node"* %.01 to %"struct.std::_Rb_tree_node_base"*
  %16 = bitcast %"struct.std::_Rb_tree_node"* %.01 to %"struct.std::_Rb_tree_node_base"*
  %17 = call %"struct.std::_Rb_tree_node"* @_ZNSt8_Rb_treeINSt7__cxx1112basic_stringIcSt11char_traitsIcESaIcEEESt4pairIKS5_iESt10_Select1stIS8_ESt4lessIS5_ESaIS8_EE7_S_leftEPKSt18_Rb_tree_node_base(%"struct.std::_Rb_tree_node_base"* %16) #3
  br label %21

18:                                               ; preds = %8
  %19 = bitcast %"struct.std::_Rb_tree_node"* %.01 to %"struct.std::_Rb_tree_node_base"*
  %20 = call %"struct.std::_Rb_tree_node"* @_ZNSt8_Rb_treeINSt7__cxx1112basic_stringIcSt11char_traitsIcESaIcEEESt4pairIKS5_iESt10_Select1stIS8_ESt4lessIS5_ESaIS8_EE8_S_rightEPKSt18_Rb_tree_node_base(%"struct.std::_Rb_tree_node_base"* %19) #3
  br label %21

21:                                               ; preds = %18, %14
  %.12 = phi %"struct.std::_Rb_tree_node"* [ %20, %18 ], [ %17, %14 ]
  %.1 = phi %"struct.std::_Rb_tree_node_base"* [ %.0, %18 ], [ %15, %14 ]
  br label %6

22:                                               ; preds = %6
  call void @_ZNSt23_Rb_tree_const_iteratorISt4pairIKNSt7__cxx1112basic_stringIcSt11char_traitsIcESaIcEEEiEEC2EPKSt18_Rb_tree_node_base(%"struct.std::_Rb_tree_const_iterator"* %5, %"struct.std::_Rb_tree_node_base"* %.0) #3
  %23 = getelementptr inbounds %"struct.std::_Rb_tree_const_iterator", %"struct.std::_Rb_tree_const_iterator"* %5, i32 0, i32 0
  %24 = load %"struct.std::_Rb_tree_node_base"*, %"struct.std::_Rb_tree_node_base"** %23, align 8
  ret %"struct.std::_Rb_tree_node_base"* %24
}

; Function Attrs: noinline nounwind uwtable
define linkonce_odr %"struct.std::_Rb_tree_node"* @_ZNKSt8_Rb_treeINSt7__cxx1112basic_stringIcSt11char_traitsIcESaIcEEESt4pairIKS5_iESt10_Select1stIS8_ESt4lessIS5_ESaIS8_EE8_M_beginEv(%"class.std::_Rb_tree"* %0) #4 comdat align 2 {
  %2 = getelementptr inbounds %"class.std::_Rb_tree", %"class.std::_Rb_tree"* %0, i32 0, i32 0
  %3 = bitcast %"struct.std::_Rb_tree<std::__cxx11::basic_string<char>, std::pair<const std::__cxx11::basic_string<char>, int>, std::_Select1st<std::pair<const std::__cxx11::basic_string<char>, int> >, std::less<std::__cxx11::basic_string<char> >, std::allocator<std::pair<const std::__cxx11::basic_string<char>, int> > >::_Rb_tree_impl"* %2 to i8*
  %4 = getelementptr inbounds i8, i8* %3, i64 8
  %5 = bitcast i8* %4 to %"struct.std::_Rb_tree_header"*
  %6 = getelementptr inbounds %"struct.std::_Rb_tree_header", %"struct.std::_Rb_tree_header"* %5, i32 0, i32 0
  %7 = getelementptr inbounds %"struct.std::_Rb_tree_node_base", %"struct.std::_Rb_tree_node_base"* %6, i32 0, i32 1
  %8 = load %"struct.std::_Rb_tree_node_base"*, %"struct.std::_Rb_tree_node_base"** %7, align 8
  %9 = bitcast %"struct.std::_Rb_tree_node_base"* %8 to %"struct.std::_Rb_tree_node"*
  ret %"struct.std::_Rb_tree_node"* %9
}

; Function Attrs: noinline nounwind uwtable
define linkonce_odr %"struct.std::_Rb_tree_node_base"* @_ZNKSt8_Rb_treeINSt7__cxx1112basic_stringIcSt11char_traitsIcESaIcEEESt4pairIKS5_iESt10_Select1stIS8_ESt4lessIS5_ESaIS8_EE6_M_endEv(%"class.std::_Rb_tree"* %0) #4 comdat align 2 {
  %2 = getelementptr inbounds %"class.std::_Rb_tree", %"class.std::_Rb_tree"* %0, i32 0, i32 0
  %3 = bitcast %"struct.std::_Rb_tree<std::__cxx11::basic_string<char>, std::pair<const std::__cxx11::basic_string<char>, int>, std::_Select1st<std::pair<const std::__cxx11::basic_string<char>, int> >, std::less<std::__cxx11::basic_string<char> >, std::allocator<std::pair<const std::__cxx11::basic_string<char>, int> > >::_Rb_tree_impl"* %2 to i8*
  %4 = getelementptr inbounds i8, i8* %3, i64 8
  %5 = bitcast i8* %4 to %"struct.std::_Rb_tree_header"*
  %6 = getelementptr inbounds %"struct.std::_Rb_tree_header", %"struct.std::_Rb_tree_header"* %5, i32 0, i32 0
  ret %"struct.std::_Rb_tree_node_base"* %6
}

; Function Attrs: noinline nounwind uwtable
define linkonce_odr zeroext i1 @_ZNKSt4lessINSt7__cxx1112basic_stringIcSt11char_traitsIcESaIcEEEEclERKS5_S8_(%"struct.std::less"* %0, %"class.std::__cxx11::basic_string"* dereferenceable(32) %1, %"class.std::__cxx11::basic_string"* dereferenceable(32) %2) #4 comdat align 2 {
  %4 = call zeroext i1 @_ZStltIcSt11char_traitsIcESaIcEEbRKNSt7__cxx1112basic_stringIT_T0_T1_EESA_(%"class.std::__cxx11::basic_string"* dereferenceable(32) %1, %"class.std::__cxx11::basic_string"* dereferenceable(32) %2) #3
  ret i1 %4
}

; Function Attrs: noinline uwtable
define linkonce_odr dereferenceable(32) %"class.std::__cxx11::basic_string"* @_ZNSt8_Rb_treeINSt7__cxx1112basic_stringIcSt11char_traitsIcESaIcEEESt4pairIKS5_iESt10_Select1stIS8_ESt4lessIS5_ESaIS8_EE6_S_keyEPKSt18_Rb_tree_node_base(%"struct.std::_Rb_tree_node_base"* %0) #0 comdat align 2 {
  %2 = bitcast %"struct.std::_Rb_tree_node_base"* %0 to %"struct.std::_Rb_tree_node"*
