; ModuleID = '/home/pedro/tcc/exDataset/codenet/data/selection/p01798/s772989955.ll'
source_filename = "/home/pedro/tcc/exDataset/codenet/data/selection/p01798/s772989955.cpp"
target datalayout = "e-m:e-i64:64-f80:128-n8:16:32:64-S128"
target triple = "x86_64-pc-linux-gnu"

%"struct.std::complex" = type { { double, double } }
%"class.std::vector" = type { %"struct.std::_Vector_base" }
%"struct.std::_Vector_base" = type { %"struct.std::_Vector_base<std::pair<double, double>, std::allocator<std::pair<double, double> > >::_Vector_impl" }
%"struct.std::_Vector_base<std::pair<double, double>, std::allocator<std::pair<double, double> > >::_Vector_impl" = type { %"struct.std::pair"*, %"struct.std::pair"*, %"struct.std::pair"* }
%"struct.std::pair" = type { double, double }
%"class.__gnu_cxx::__normal_iterator" = type { %"struct.std::pair"* }
%"class.std::allocator" = type { i8 }
%"class.std::__pair_base" = type { i8 }
%"class.__gnu_cxx::new_allocator" = type { i8 }
%"class.std::move_iterator" = type { %"struct.std::pair"* }
%"struct.__gnu_cxx::__ops::_Iter_less_iter" = type { i8 }
%"struct.__gnu_cxx::__ops::_Iter_less_val" = type { i8 }
%"struct.__gnu_cxx::__ops::_Val_less_iter" = type { i8 }

$_ZSt3maxIdERKT_S2_S2_ = comdat any

$_ZSt3expIdESt7complexIT_ERKS2_ = comdat any

$_ZStmlIdESt7complexIT_ERKS1_RKS2_ = comdat any

$_ZStmiIdESt7complexIT_ERKS2_S4_ = comdat any

$_ZNSt7complexIdEpLIdEERS0_RKS_IT_E = comdat any

$_ZStmlIdESt7complexIT_ERKS2_S4_ = comdat any

$_ZSt4swapISt7complexIdEENSt9enable_ifIXsr6__and_ISt6__not_ISt15__is_tuple_likeIT_EESt21is_move_constructibleIS5_ESt18is_move_assignableIS5_EEE5valueEvE4typeERS5_SE_ = comdat any

$_ZSt3minIdERKT_S2_S2_ = comdat any

$_ZSt3minIiERKT_S2_S2_ = comdat any

$_ZSt3maxIiERKT_S2_S2_ = comdat any

$_ZNSt7complexIdEC2Edd = comdat any

$_ZStdvIdESt7complexIT_ERKS2_RKS1_ = comdat any

$_ZNKSt7complexIdE4realB5cxx11Ev = comdat any

$_ZSt4swapIdENSt9enable_ifIXsr6__and_ISt6__not_ISt15__is_tuple_likeIT_EESt21is_move_constructibleIS3_ESt18is_move_assignableIS3_EEE5valueEvE4typeERS3_SC_ = comdat any

$_ZSt4swapIiENSt9enable_ifIXsr6__and_ISt6__not_ISt15__is_tuple_likeIT_EESt21is_move_constructibleIS3_ESt18is_move_assignableIS3_EEE5valueEvE4typeERS3_SC_ = comdat any

$_ZNSt6vectorISt4pairIddESaIS1_EEC2Ev = comdat any

$_ZNSt6vectorISt4pairIddESaIS1_EE9push_backEOS1_ = comdat any

$_ZSt9make_pairIRdS0_ESt4pairINSt17__decay_and_stripIT_E6__typeENS2_IT0_E6__typeEEOS3_OS6_ = comdat any

$_ZSt4sortIN9__gnu_cxx17__normal_iteratorIPSt4pairIddESt6vectorIS3_SaIS3_EEEEEvT_S9_ = comdat any

$_ZNSt6vectorISt4pairIddESaIS1_EE5beginEv = comdat any

$_ZNSt6vectorISt4pairIddESaIS1_EE3endEv = comdat any

$_ZSt9make_pairIdRdESt4pairINSt17__decay_and_stripIT_E6__typeENS2_IT0_E6__typeEEOS3_OS6_ = comdat any

$_ZSt4sortIPdEvT_S1_ = comdat any

$_ZNSt6vectorISt4pairIddESaIS1_EEixEm = comdat any

$_ZNKSt6vectorISt4pairIddESaIS1_EE4sizeEv = comdat any

$_ZSt11lower_boundIPddET_S1_S1_RKT0_ = comdat any

$_ZNSt6vectorISt4pairIddESaIS1_EED2Ev = comdat any

$_ZSt7forwardIRdEOT_RNSt16remove_referenceIS1_E4typeE = comdat any

$_ZNSt4pairIddEC2IRdS2_Lb1EEEOT_OT0_ = comdat any

$_ZSt7forwardIdEOT_RNSt16remove_referenceIS0_E4typeE = comdat any

$_ZNSt4pairIddEC2IdRdLb1EEEOT_OT0_ = comdat any

$_ZNSt7complexIdEmLEd = comdat any

$_ZSt13__complex_expCd = comdat any

$_ZNKSt7complexIdE5__repEv = comdat any

$_ZNSt7complexIdEC2ECd = comdat any

$_ZNSt7complexIdEmIIdEERS0_RKS_IT_E = comdat any

$_ZNKSt7complexIdE4imagB5cxx11Ev = comdat any

$_ZNSt7complexIdEmLIdEERS0_RKS_IT_E = comdat any

$_ZSt4moveIRSt7complexIdEEONSt16remove_referenceIT_E4typeEOS4_ = comdat any

$_ZNSt7complexIdEdVEd = comdat any

$_ZSt4moveIRdEONSt16remove_referenceIT_E4typeEOS2_ = comdat any

$_ZSt4moveIRiEONSt16remove_referenceIT_E4typeEOS2_ = comdat any

$_ZNSt12_Vector_baseISt4pairIddESaIS1_EEC2Ev = comdat any

$__clang_call_terminate = comdat any

$_ZNSt12_Vector_baseISt4pairIddESaIS1_EE12_Vector_implC2Ev = comdat any

$_ZNSaISt4pairIddEEC2Ev = comdat any

$_ZN9__gnu_cxx13new_allocatorISt4pairIddEEC2Ev = comdat any

$_ZSt8_DestroyIPSt4pairIddES1_EvT_S3_RSaIT0_E = comdat any

$_ZNSt12_Vector_baseISt4pairIddESaIS1_EE19_M_get_Tp_allocatorEv = comdat any

$_ZNSt12_Vector_baseISt4pairIddESaIS1_EED2Ev = comdat any

$_ZSt8_DestroyIPSt4pairIddEEvT_S3_ = comdat any

$_ZNSt12_Destroy_auxILb1EE9__destroyIPSt4pairIddEEEvT_S5_ = comdat any

$_ZNSt12_Vector_baseISt4pairIddESaIS1_EE13_M_deallocateEPS1_m = comdat any

$_ZNSt12_Vector_baseISt4pairIddESaIS1_EE12_Vector_implD2Ev = comdat any

$_ZNSt16allocator_traitsISaISt4pairIddEEE10deallocateERS2_PS1_m = comdat any

$_ZN9__gnu_cxx13new_allocatorISt4pairIddEE10deallocateEPS2_m = comdat any

$_ZNSaISt4pairIddEED2Ev = comdat any

$_ZN9__gnu_cxx13new_allocatorISt4pairIddEED2Ev = comdat any

$_ZNSt6vectorISt4pairIddESaIS1_EE12emplace_backIJS1_EEEvDpOT_ = comdat any

$_ZSt4moveIRSt4pairIddEEONSt16remove_referenceIT_E4typeEOS4_ = comdat any

$_ZNSt16allocator_traitsISaISt4pairIddEEE9constructIS1_JS1_EEEvRS2_PT_DpOT0_ = comdat any

$_ZSt7forwardISt4pairIddEEOT_RNSt16remove_referenceIS2_E4typeE = comdat any

$_ZNSt6vectorISt4pairIddESaIS1_EE17_M_realloc_insertIJS1_EEEvN9__gnu_cxx17__normal_iteratorIPS1_S3_EEDpOT_ = comdat any

$_ZN9__gnu_cxx13new_allocatorISt4pairIddEE9constructIS2_JS2_EEEvPT_DpOT0_ = comdat any

$_ZNKSt6vectorISt4pairIddESaIS1_EE12_M_check_lenEmPKc = comdat any

$_ZN9__gnu_cxxmiIPSt4pairIddESt6vectorIS2_SaIS2_EEEENS_17__normal_iteratorIT_T0_E15difference_typeERKSA_SD_ = comdat any

$_ZNSt12_Vector_baseISt4pairIddESaIS1_EE11_M_allocateEm = comdat any

$_ZSt34__uninitialized_move_if_noexcept_aIPSt4pairIddES2_SaIS1_EET0_T_S5_S4_RT1_ = comdat any

$_ZNK9__gnu_cxx17__normal_iteratorIPSt4pairIddESt6vectorIS2_SaIS2_EEE4baseEv = comdat any

$_ZNSt16allocator_traitsISaISt4pairIddEEE7destroyIS1_EEvRS2_PT_ = comdat any

$_ZNKSt6vectorISt4pairIddESaIS1_EE8max_sizeEv = comdat any

$_ZSt3maxImERKT_S2_S2_ = comdat any

$_ZNSt16allocator_traitsISaISt4pairIddEEE8max_sizeERKS2_ = comdat any

$_ZNKSt12_Vector_baseISt4pairIddESaIS1_EE19_M_get_Tp_allocatorEv = comdat any

$_ZNK9__gnu_cxx13new_allocatorISt4pairIddEE8max_sizeEv = comdat any

$_ZNSt16allocator_traitsISaISt4pairIddEEE8allocateERS2_m = comdat any

$_ZN9__gnu_cxx13new_allocatorISt4pairIddEE8allocateEmPKv = comdat any

$_ZSt22__uninitialized_copy_aISt13move_iteratorIPSt4pairIddEES3_S2_ET0_T_S6_S5_RSaIT1_E = comdat any

$_ZSt32__make_move_if_noexcept_iteratorISt4pairIddESt13move_iteratorIPS1_EET0_PT_ = comdat any

$_ZSt18uninitialized_copyISt13move_iteratorIPSt4pairIddEES3_ET0_T_S6_S5_ = comdat any

$_ZNSt20__uninitialized_copyILb0EE13__uninit_copyISt13move_iteratorIPSt4pairIddEES5_EET0_T_S8_S7_ = comdat any

$_ZStneIPSt4pairIddEEbRKSt13move_iteratorIT_ES7_ = comdat any

$_ZSt10_ConstructISt4pairIddEJS1_EEvPT_DpOT0_ = comdat any

$_ZSt11__addressofISt4pairIddEEPT_RS2_ = comdat any

$_ZNKSt13move_iteratorIPSt4pairIddEEdeEv = comdat any

$_ZNSt13move_iteratorIPSt4pairIddEEppEv = comdat any

$_ZSteqIPSt4pairIddEEbRKSt13move_iteratorIT_ES7_ = comdat any

$_ZNKSt13move_iteratorIPSt4pairIddEE4baseEv = comdat any

$_ZNSt13move_iteratorIPSt4pairIddEEC2ES2_ = comdat any

$_ZN9__gnu_cxx13new_allocatorISt4pairIddEE7destroyIS2_EEvPT_ = comdat any

$_ZN9__gnu_cxx17__normal_iteratorIPSt4pairIddESt6vectorIS2_SaIS2_EEEC2ERKS3_ = comdat any

$_ZSt6__sortIN9__gnu_cxx17__normal_iteratorIPSt4pairIddESt6vectorIS3_SaIS3_EEEENS0_5__ops15_Iter_less_iterEEvT_SB_T0_ = comdat any

$_ZN9__gnu_cxx5__ops16__iter_less_iterEv = comdat any

$_ZN9__gnu_cxxneIPSt4pairIddESt6vectorIS2_SaIS2_EEEEbRKNS_17__normal_iteratorIT_T0_EESC_ = comdat any

$_ZSt16__introsort_loopIN9__gnu_cxx17__normal_iteratorIPSt4pairIddESt6vectorIS3_SaIS3_EEEElNS0_5__ops15_Iter_less_iterEEvT_SB_T0_T1_ = comdat any

$_ZSt4__lgl = comdat any

$_ZSt22__final_insertion_sortIN9__gnu_cxx17__normal_iteratorIPSt4pairIddESt6vectorIS3_SaIS3_EEEENS0_5__ops15_Iter_less_iterEEvT_SB_T0_ = comdat any

$_ZSt14__partial_sortIN9__gnu_cxx17__normal_iteratorIPSt4pairIddESt6vectorIS3_SaIS3_EEEENS0_5__ops15_Iter_less_iterEEvT_SB_SB_T0_ = comdat any

$_ZSt27__unguarded_partition_pivotIN9__gnu_cxx17__normal_iteratorIPSt4pairIddESt6vectorIS3_SaIS3_EEEENS0_5__ops15_Iter_less_iterEET_SB_SB_T0_ = comdat any

$_ZSt13__heap_selectIN9__gnu_cxx17__normal_iteratorIPSt4pairIddESt6vectorIS3_SaIS3_EEEENS0_5__ops15_Iter_less_iterEEvT_SB_SB_T0_ = comdat any

$_ZSt11__sort_heapIN9__gnu_cxx17__normal_iteratorIPSt4pairIddESt6vectorIS3_SaIS3_EEEENS0_5__ops15_Iter_less_iterEEvT_SB_RT0_ = comdat any

$_ZSt11__make_heapIN9__gnu_cxx17__normal_iteratorIPSt4pairIddESt6vectorIS3_SaIS3_EEEENS0_5__ops15_Iter_less_iterEEvT_SB_RT0_ = comdat any

$_ZN9__gnu_cxxltIPSt4pairIddESt6vectorIS2_SaIS2_EEEEbRKNS_17__normal_iteratorIT_T0_EESC_ = comdat any

$_ZNK9__gnu_cxx5__ops15_Iter_less_iterclINS_17__normal_iteratorIPSt4pairIddESt6vectorIS5_SaIS5_EEEESA_EEbT_T0_ = comdat any

$_ZSt10__pop_heapIN9__gnu_cxx17__normal_iteratorIPSt4pairIddESt6vectorIS3_SaIS3_EEEENS0_5__ops15_Iter_less_iterEEvT_SB_SB_RT0_ = comdat any

$_ZN9__gnu_cxx17__normal_iteratorIPSt4pairIddESt6vectorIS2_SaIS2_EEEppEv = comdat any

$_ZNK9__gnu_cxx17__normal_iteratorIPSt4pairIddESt6vectorIS2_SaIS2_EEEplEl = comdat any

$_ZNK9__gnu_cxx17__normal_iteratorIPSt4pairIddESt6vectorIS2_SaIS2_EEEdeEv = comdat any

$_ZSt13__adjust_heapIN9__gnu_cxx17__normal_iteratorIPSt4pairIddESt6vectorIS3_SaIS3_EEEElS3_NS0_5__ops15_Iter_less_iterEEvT_T0_SC_T1_T2_ = comdat any

$_ZNSt4pairIddEaSEOS0_ = comdat any

$_ZSt4moveIRN9__gnu_cxx5__ops15_Iter_less_iterEEONSt16remove_referenceIT_E4typeEOS5_ = comdat any

$_ZN9__gnu_cxx5__ops14_Iter_less_valC2ENS0_15_Iter_less_iterE = comdat any

$_ZSt11__push_heapIN9__gnu_cxx17__normal_iteratorIPSt4pairIddESt6vectorIS3_SaIS3_EEEElS3_NS0_5__ops14_Iter_less_valEEvT_T0_SC_T1_RT2_ = comdat any

$_ZNK9__gnu_cxx5__ops14_Iter_less_valclINS_17__normal_iteratorIPSt4pairIddESt6vectorIS5_SaIS5_EEEES5_EEbT_RT0_ = comdat any

$_ZStltIddEbRKSt4pairIT_T0_ES5_ = comdat any

$_ZN9__gnu_cxx17__normal_iteratorIPSt4pairIddESt6vectorIS2_SaIS2_EEEmmEv = comdat any

$_ZSt22__move_median_to_firstIN9__gnu_cxx17__normal_iteratorIPSt4pairIddESt6vectorIS3_SaIS3_EEEENS0_5__ops15_Iter_less_iterEEvT_SB_SB_SB_T0_ = comdat any

$_ZNK9__gnu_cxx17__normal_iteratorIPSt4pairIddESt6vectorIS2_SaIS2_EEEmiEl = comdat any

$_ZSt21__unguarded_partitionIN9__gnu_cxx17__normal_iteratorIPSt4pairIddESt6vectorIS3_SaIS3_EEEENS0_5__ops15_Iter_less_iterEET_SB_SB_SB_T0_ = comdat any

$_ZSt9iter_swapIN9__gnu_cxx17__normal_iteratorIPSt4pairIddESt6vectorIS3_SaIS3_EEEES8_EvT_T0_ = comdat any

$_ZSt4swapIddENSt9enable_ifIXsr6__and_ISt14__is_swappableIT_ES1_IT0_EEE5valueEvE4typeERSt4pairIS2_S4_ESA_ = comdat any

$_ZNSt4pairIddE4swapERS0_ = comdat any

$_ZSt16__insertion_sortIN9__gnu_cxx17__normal_iteratorIPSt4pairIddESt6vectorIS3_SaIS3_EEEENS0_5__ops15_Iter_less_iterEEvT_SB_T0_ = comdat any

$_ZSt26__unguarded_insertion_sortIN9__gnu_cxx17__normal_iteratorIPSt4pairIddESt6vectorIS3_SaIS3_EEEENS0_5__ops15_Iter_less_iterEEvT_SB_T0_ = comdat any

$_ZN9__gnu_cxxeqIPSt4pairIddESt6vectorIS2_SaIS2_EEEEbRKNS_17__normal_iteratorIT_T0_EESC_ = comdat any

$_ZSt13move_backwardIN9__gnu_cxx17__normal_iteratorIPSt4pairIddESt6vectorIS3_SaIS3_EEEES8_ET0_T_SA_S9_ = comdat any

$_ZSt25__unguarded_linear_insertIN9__gnu_cxx17__normal_iteratorIPSt4pairIddESt6vectorIS3_SaIS3_EEEENS0_5__ops14_Val_less_iterEEvT_T0_ = comdat any

$_ZN9__gnu_cxx5__ops15__val_comp_iterENS0_15_Iter_less_iterE = comdat any

$_ZSt23__copy_move_backward_a2ILb1EN9__gnu_cxx17__normal_iteratorIPSt4pairIddESt6vectorIS3_SaIS3_EEEES8_ET1_T0_SA_S9_ = comdat any

$_ZSt12__miter_baseIN9__gnu_cxx17__normal_iteratorIPSt4pairIddESt6vectorIS3_SaIS3_EEEEET_S9_ = comdat any

$_ZSt22__copy_move_backward_aILb1EPSt4pairIddES2_ET1_T0_S4_S3_ = comdat any

$_ZSt12__niter_baseIPSt4pairIddESt6vectorIS1_SaIS1_EEET_N9__gnu_cxx17__normal_iteratorIS6_T0_EE = comdat any

$_ZNSt20__copy_move_backwardILb1ELb0ESt26random_access_iterator_tagE13__copy_move_bIPSt4pairIddES5_EET0_T_S7_S6_ = comdat any

$_ZNK9__gnu_cxx5__ops14_Val_less_iterclISt4pairIddENS_17__normal_iteratorIPS4_St6vectorIS4_SaIS4_EEEEEEbRT_T0_ = comdat any

$_ZSt6__sortIPdN9__gnu_cxx5__ops15_Iter_less_iterEEvT_S4_T0_ = comdat any

$_ZSt16__introsort_loopIPdlN9__gnu_cxx5__ops15_Iter_less_iterEEvT_S4_T0_T1_ = comdat any

$_ZSt22__final_insertion_sortIPdN9__gnu_cxx5__ops15_Iter_less_iterEEvT_S4_T0_ = comdat any

$_ZSt14__partial_sortIPdN9__gnu_cxx5__ops15_Iter_less_iterEEvT_S4_S4_T0_ = comdat any

$_ZSt27__unguarded_partition_pivotIPdN9__gnu_cxx5__ops15_Iter_less_iterEET_S4_S4_T0_ = comdat any

$_ZSt13__heap_selectIPdN9__gnu_cxx5__ops15_Iter_less_iterEEvT_S4_S4_T0_ = comdat any

$_ZSt11__sort_heapIPdN9__gnu_cxx5__ops15_Iter_less_iterEEvT_S4_RT0_ = comdat any

$_ZSt11__make_heapIPdN9__gnu_cxx5__ops15_Iter_less_iterEEvT_S4_RT0_ = comdat any

$_ZNK9__gnu_cxx5__ops15_Iter_less_iterclIPdS3_EEbT_T0_ = comdat any

$_ZSt10__pop_heapIPdN9__gnu_cxx5__ops15_Iter_less_iterEEvT_S4_S4_RT0_ = comdat any

$_ZSt13__adjust_heapIPdldN9__gnu_cxx5__ops15_Iter_less_iterEEvT_T0_S5_T1_T2_ = comdat any

$_ZSt11__push_heapIPdldN9__gnu_cxx5__ops14_Iter_less_valEEvT_T0_S5_T1_RT2_ = comdat any

$_ZNK9__gnu_cxx5__ops14_Iter_less_valclIPddEEbT_RT0_ = comdat any

$_ZSt22__move_median_to_firstIPdN9__gnu_cxx5__ops15_Iter_less_iterEEvT_S4_S4_S4_T0_ = comdat any

$_ZSt21__unguarded_partitionIPdN9__gnu_cxx5__ops15_Iter_less_iterEET_S4_S4_S4_T0_ = comdat any

$_ZSt9iter_swapIPdS0_EvT_T0_ = comdat any

$_ZSt16__insertion_sortIPdN9__gnu_cxx5__ops15_Iter_less_iterEEvT_S4_T0_ = comdat any

$_ZSt26__unguarded_insertion_sortIPdN9__gnu_cxx5__ops15_Iter_less_iterEEvT_S4_T0_ = comdat any

$_ZSt13move_backwardIPdS0_ET0_T_S2_S1_ = comdat any

$_ZSt25__unguarded_linear_insertIPdN9__gnu_cxx5__ops14_Val_less_iterEEvT_T0_ = comdat any

$_ZSt23__copy_move_backward_a2ILb1EPdS0_ET1_T0_S2_S1_ = comdat any

$_ZSt12__miter_baseIPdET_S1_ = comdat any

$_ZSt22__copy_move_backward_aILb1EPdS0_ET1_T0_S2_S1_ = comdat any

$_ZSt12__niter_baseIPdET_S1_ = comdat any

$_ZNSt20__copy_move_backwardILb1ELb1ESt26random_access_iterator_tagE13__copy_move_bIdEEPT_PKS3_S6_S4_ = comdat any

$_ZNK9__gnu_cxx5__ops14_Val_less_iterclIdPdEEbRT_T0_ = comdat any

$_ZSt13__lower_boundIPddN9__gnu_cxx5__ops14_Iter_less_valEET_S4_S4_RKT0_T1_ = comdat any

$_ZN9__gnu_cxx5__ops15__iter_less_valEv = comdat any

$_ZSt8distanceIPdENSt15iterator_traitsIT_E15difference_typeES2_S2_ = comdat any

$_ZSt7advanceIPdlEvRT_T0_ = comdat any

$_ZNK9__gnu_cxx5__ops14_Iter_less_valclIPdKdEEbT_RT0_ = comdat any

$_ZSt10__distanceIPdENSt15iterator_traitsIT_E15difference_typeES2_S2_St26random_access_iterator_tag = comdat any

$_ZSt19__iterator_categoryIPdENSt15iterator_traitsIT_E17iterator_categoryERKS2_ = comdat any

$_ZSt9__advanceIPdlEvRT_T0_St26random_access_iterator_tag = comdat any

@ax = global [110000 x double] zeroinitializer, align 16
@ay = global [110000 x double] zeroinitializer, align 16
@bx = global [110000 x double] zeroinitializer, align 16
@by = global [110000 x double] zeroinitializer, align 16
@cx = global [110000 x double] zeroinitializer, align 16
@cy = global [110000 x double] zeroinitializer, align 16
@EPS = global double 1.000000e-09, align 8
@_ZL2PI = internal global double 0.000000e+00, align 8
@_ZL1I = internal constant %"struct.std::complex" { { double, double } { double 0.000000e+00, double 1.000000e+00 } }, align 8
@Ax = global [110000 x i32] zeroinitializer, align 16
@Ay = global [110000 x i32] zeroinitializer, align 16
@Bx = global [110000 x i32] zeroinitializer, align 16
@By = global [110000 x i32] zeroinitializer, align 16
@Cx = global [110000 x i32] zeroinitializer, align 16
@Cy = global [110000 x i32] zeroinitializer, align 16
@af = global [524400 x %"struct.std::complex"] zeroinitializer, align 16
@bf = global [524400 x %"struct.std::complex"] zeroinitializer, align 16
@cf = global [524400 x %"struct.std::complex"] zeroinitializer, align 16
@cd = global [524400 x i32] zeroinitializer, align 16
@.str = private unnamed_addr constant [7 x i8] c"%d%d%d\00", align 1
@.str.1 = private unnamed_addr constant [5 x i8] c"%d%d\00", align 1
@.str.2 = private unnamed_addr constant [3 x i8] c"0\0A\00", align 1
@.str.3 = private unnamed_addr constant [6 x i8] c"%lld\0A\00", align 1
@.str.4 = private unnamed_addr constant [26 x i8] c"vector::_M_realloc_insert\00", align 1
@llvm.global_ctors = appending global [1 x { i32, void ()*, i8* }] [{ i32, void ()*, i8* } { i32 65535, void ()* @_GLOBAL__sub_I_s772989955.cpp, i8* null }]

; Function Attrs: noinline uwtable
define double @_Z3ABSd(double %0) #0 {
  %2 = alloca double, align 8
  %3 = alloca double, align 8
  store double %0, double* %2, align 8
  %4 = load double, double* %2, align 8
  %5 = fsub double -0.000000e+00, %4
  store double %5, double* %3, align 8
  %6 = call dereferenceable(8) double* @_ZSt3maxIdERKT_S2_S2_(double* dereferenceable(8) %2, double* dereferenceable(8) %3)
  %7 = load double, double* %6, align 8
  ret double %7
}

; Function Attrs: noinline nounwind uwtable
define linkonce_odr dereferenceable(8) double* @_ZSt3maxIdERKT_S2_S2_(double* dereferenceable(8) %0, double* dereferenceable(8) %1) #1 comdat {
  %3 = load double, double* %0, align 8
  %4 = load double, double* %1, align 8
  %5 = fcmp olt double %3, %4
  br i1 %5, label %6, label %7

6:                                                ; preds = %2
  br label %8

7:                                                ; preds = %2
  br label %8

8:                                                ; preds = %7, %6
  %.0 = phi double* [ %1, %6 ], [ %0, %7 ]
  ret double* %.0
}

; Function Attrs: noinline nounwind uwtable
define double @_Z4abs2dd(double %0, double %1) #1 {
  %3 = fmul double %0, %0
  %4 = fmul double %1, %1
  %5 = fadd double %3, %4
  ret double %5
}

; Function Attrs: noinline uwtable
define internal void @__cxx_global_var_init() #0 section ".text.startup" {
  %1 = call double @atan(double 1.000000e+00) #12
  %2 = fmul double 4.000000e+00, %1
  store double %2, double* @_ZL2PI, align 8
  ret void
}

; Function Attrs: nounwind
declare double @atan(double) #2

; Function Attrs: noinline uwtable
define void @_Z3fftidPSt7complexIdE(i32 %0, double %1, %"struct.std::complex"* %2) #0 {
  %4 = alloca %"struct.std::complex", align 8
  %5 = alloca %"struct.std::complex", align 8
  %6 = alloca double, align 8
  %7 = alloca %"struct.std::complex", align 8
  %8 = alloca %"struct.std::complex", align 8
  br label %9

9:                                                ; preds = %66, %3
  %.03 = phi i32 [ %0, %3 ], [ %67, %66 ]
  %.01 = phi double [ %1, %3 ], [ %65, %66 ]
  %10 = icmp sge i32 %.03, 2
  br i1 %10, label %11, label %68

11:                                               ; preds = %9
  %12 = ashr i32 %.03, 1
  br label %13

13:                                               ; preds = %62, %11
  %.05 = phi i32 [ 0, %11 ], [ %63, %62 ]
  %14 = icmp slt i32 %.05, %12
  br i1 %14, label %15, label %64

15:                                               ; preds = %13
  %16 = sitofp i32 %.05 to double
  %17 = fmul double %16, %.01
  store double %17, double* %6, align 8
  %18 = call { double, double } @_ZStmlIdESt7complexIT_ERKS1_RKS2_(double* dereferenceable(8) %6, %"struct.std::complex"* dereferenceable(16) @_ZL1I)
  %19 = getelementptr inbounds %"struct.std::complex", %"struct.std::complex"* %5, i32 0, i32 0
  %20 = getelementptr inbounds { double, double }, { double, double }* %19, i32 0, i32 0
  %21 = extractvalue { double, double } %18, 0
  store double %21, double* %20, align 8
  %22 = getelementptr inbounds { double, double }, { double, double }* %19, i32 0, i32 1
  %23 = extractvalue { double, double } %18, 1
  store double %23, double* %22, align 8
  %24 = call { double, double } @_ZSt3expIdESt7complexIT_ERKS2_(%"struct.std::complex"* dereferenceable(16) %5)
  %25 = getelementptr inbounds %"struct.std::complex", %"struct.std::complex"* %4, i32 0, i32 0
  %26 = getelementptr inbounds { double, double }, { double, double }* %25, i32 0, i32 0
  %27 = extractvalue { double, double } %24, 0
  store double %27, double* %26, align 8
  %28 = getelementptr inbounds { double, double }, { double, double }* %25, i32 0, i32 1
  %29 = extractvalue { double, double } %24, 1
  store double %29, double* %28, align 8
  br label %30

30:                                               ; preds = %59, %15
  %.06 = phi i32 [ %.05, %15 ], [ %60, %59 ]
  %31 = icmp slt i32 %.06, %0
  br i1 %31, label %32, label %61

32:                                               ; preds = %30
  %33 = add nsw i32 %.06, %12
  %34 = sext i32 %.06 to i64
  %35 = getelementptr inbounds %"struct.std::complex", %"struct.std::complex"* %2, i64 %34
  %36 = sext i32 %33 to i64
  %37 = getelementptr inbounds %"struct.std::complex", %"struct.std::complex"* %2, i64 %36
  %38 = call { double, double } @_ZStmiIdESt7complexIT_ERKS2_S4_(%"struct.std::complex"* dereferenceable(16) %35, %"struct.std::complex"* dereferenceable(16) %37)
  %39 = getelementptr inbounds %"struct.std::complex", %"struct.std::complex"* %7, i32 0, i32 0
  %40 = getelementptr inbounds { double, double }, { double, double }* %39, i32 0, i32 0
  %41 = extractvalue { double, double } %38, 0
  store double %41, double* %40, align 8
  %42 = getelementptr inbounds { double, double }, { double, double }* %39, i32 0, i32 1
  %43 = extractvalue { double, double } %38, 1
  store double %43, double* %42, align 8
  %44 = sext i32 %33 to i64
  %45 = getelementptr inbounds %"struct.std::complex", %"struct.std::complex"* %2, i64 %44
  %46 = sext i32 %.06 to i64
  %47 = getelementptr inbounds %"struct.std::complex", %"struct.std::complex"* %2, i64 %46
  %48 = call dereferenceable(16) %"struct.std::complex"* @_ZNSt7complexIdEpLIdEERS0_RKS_IT_E(%"struct.std::complex"* %47, %"struct.std::complex"* dereferenceable(16) %45)
  %49 = call { double, double } @_ZStmlIdESt7complexIT_ERKS2_S4_(%"struct.std::complex"* dereferenceable(16) %4, %"struct.std::complex"* dereferenceable(16) %7)
  %50 = getelementptr inbounds %"struct.std::complex", %"struct.std::complex"* %8, i32 0, i32 0
  %51 = getelementptr inbounds { double, double }, { double, double }* %50, i32 0, i32 0
  %52 = extractvalue { double, double } %49, 0
  store double %52, double* %51, align 8
  %53 = getelementptr inbounds { double, double }, { double, double }* %50, i32 0, i32 1
  %54 = extractvalue { double, double } %49, 1
  store double %54, double* %53, align 8
  %55 = sext i32 %33 to i64
  %56 = getelementptr inbounds %"struct.std::complex", %"struct.std::complex"* %2, i64 %55
  %57 = bitcast %"struct.std::complex"* %56 to i8*
  %58 = bitcast %"struct.std::complex"* %8 to i8*
  call void @llvm.memcpy.p0i8.p0i8.i64(i8* align 8 %57, i8* align 8 %58, i64 16, i1 false)
  br label %59

59:                                               ; preds = %32
  %60 = add nsw i32 %.06, %.03
  br label %30

61:                                               ; preds = %30
  br label %62

62:                                               ; preds = %61
  %63 = add nsw i32 %.05, 1
  br label %13

64:                                               ; preds = %13
  %65 = fmul double %.01, 2.000000e+00
  br label %66

66:                                               ; preds = %64
  %67 = ashr i32 %.03, 1
  br label %9

68:                                               ; preds = %9
  br label %69

69:                                               ; preds = %88, %68
  %.04 = phi i32 [ 0, %68 ], [ %75, %88 ]
  %.02 = phi i32 [ 1, %68 ], [ %89, %88 ]
  %70 = sub nsw i32 %0, 1
  %71 = icmp slt i32 %.02, %70
  br i1 %71, label %72, label %90

72:                                               ; preds = %69
  %73 = ashr i32 %0, 1
  br label %74

74:                                               ; preds = %78, %72
  %.1 = phi i32 [ %.04, %72 ], [ %75, %78 ]
  %.0 = phi i32 [ %73, %72 ], [ %79, %78 ]
  %75 = xor i32 %.1, %.0
  %76 = icmp sgt i32 %.0, %75
  br i1 %76, label %77, label %80

77:                                               ; preds = %74
  br label %78

78:                                               ; preds = %77
  %79 = ashr i32 %.0, 1
  br label %74

80:                                               ; preds = %74
  %81 = icmp slt i32 %.02, %75
  br i1 %81, label %82, label %87

82:                                               ; preds = %80
  %83 = sext i32 %75 to i64
  %84 = getelementptr inbounds %"struct.std::complex", %"struct.std::complex"* %2, i64 %83
  %85 = sext i32 %.02 to i64
  %86 = getelementptr inbounds %"struct.std::complex", %"struct.std::complex"* %2, i64 %85
  call void @_ZSt4swapISt7complexIdEENSt9enable_ifIXsr6__and_ISt6__not_ISt15__is_tuple_likeIT_EESt21is_move_constructibleIS5_ESt18is_move_assignableIS5_EEE5valueEvE4typeERS5_SE_(%"struct.std::complex"* dereferenceable(16) %84, %"struct.std::complex"* dereferenceable(16) %86) #12
  br label %87

87:                                               ; preds = %82, %80
  br label %88

88:                                               ; preds = %87
  %89 = add nsw i32 %.02, 1
  br label %69

90:                                               ; preds = %69
  ret void
}

; Function Attrs: noinline uwtable
define linkonce_odr { double, double } @_ZSt3expIdESt7complexIT_ERKS2_(%"struct.std::complex"* dereferenceable(16) %0) #0 comdat {
  %2 = alloca %"struct.std::complex", align 8
  %3 = alloca { double, double }, align 8
  %4 = alloca { double, double }, align 8
  %5 = call { double, double } @_ZNKSt7complexIdE5__repEv(%"struct.std::complex"* %0)
  %6 = extractvalue { double, double } %5, 0
  %7 = extractvalue { double, double } %5, 1
  %8 = getelementptr inbounds { double, double }, { double, double }* %3, i32 0, i32 0
  %9 = getelementptr inbounds { double, double }, { double, double }* %3, i32 0, i32 1
  store double %6, double* %8, align 8
  store double %7, double* %9, align 8
  %10 = getelementptr inbounds { double, double }, { double, double }* %3, i32 0, i32 0
  %11 = load double, double* %10, align 8
  %12 = getelementptr inbounds { double, double }, { double, double }* %3, i32 0, i32 1
  %13 = load double, double* %12, align 8
  %14 = call { double, double } @_ZSt13__complex_expCd(double %11, double %13)
  %15 = extractvalue { double, double } %14, 0
  %16 = extractvalue { double, double } %14, 1
  %17 = getelementptr inbounds { double, double }, { double, double }* %4, i32 0, i32 0
  %18 = getelementptr inbounds { double, double }, { double, double }* %4, i32 0, i32 1
  store double %15, double* %17, align 8
  store double %16, double* %18, align 8
  %19 = getelementptr inbounds { double, double }, { double, double }* %4, i32 0, i32 0
  %20 = load double, double* %19, align 8
  %21 = getelementptr inbounds { double, double }, { double, double }* %4, i32 0, i32 1
  %22 = load double, double* %21, align 8
  call void @_ZNSt7complexIdEC2ECd(%"struct.std::complex"* %2, double %20, double %22)
  %23 = getelementptr inbounds %"struct.std::complex", %"struct.std::complex"* %2, i32 0, i32 0
  %24 = load { double, double }, { double, double }* %23, align 8
  ret { double, double } %24
}

; Function Attrs: noinline uwtable
define linkonce_odr { double, double } @_ZStmlIdESt7complexIT_ERKS1_RKS2_(double* dereferenceable(8) %0, %"struct.std::complex"* dereferenceable(16) %1) #0 comdat {
  %3 = alloca %"struct.std::complex", align 8
  %4 = bitcast %"struct.std::complex"* %3 to i8*
  %5 = bitcast %"struct.std::complex"* %1 to i8*
  call void @llvm.memcpy.p0i8.p0i8.i64(i8* align 8 %4, i8* align 8 %5, i64 16, i1 false)
  %6 = load double, double* %0, align 8
  %7 = call dereferenceable(16) %"struct.std::complex"* @_ZNSt7complexIdEmLEd(%"struct.std::complex"* %3, double %6)
  %8 = getelementptr inbounds %"struct.std::complex", %"struct.std::complex"* %3, i32 0, i32 0
  %9 = load { double, double }, { double, double }* %8, align 8
  ret { double, double } %9
}

; Function Attrs: noinline uwtable
define linkonce_odr { double, double } @_ZStmiIdESt7complexIT_ERKS2_S4_(%"struct.std::complex"* dereferenceable(16) %0, %"struct.std::complex"* dereferenceable(16) %1) #0 comdat {
  %3 = alloca %"struct.std::complex", align 8
  %4 = bitcast %"struct.std::complex"* %3 to i8*
  %5 = bitcast %"struct.std::complex"* %0 to i8*
  call void @llvm.memcpy.p0i8.p0i8.i64(i8* align 8 %4, i8* align 8 %5, i64 16, i1 false)
  %6 = call dereferenceable(16) %"struct.std::complex"* @_ZNSt7complexIdEmIIdEERS0_RKS_IT_E(%"struct.std::complex"* %3, %"struct.std::complex"* dereferenceable(16) %1)
  %7 = getelementptr inbounds %"struct.std::complex", %"struct.std::complex"* %3, i32 0, i32 0
  %8 = load { double, double }, { double, double }* %7, align 8
  ret { double, double } %8
}

; Function Attrs: noinline nounwind uwtable
define linkonce_odr dereferenceable(16) %"struct.std::complex"* @_ZNSt7complexIdEpLIdEERS0_RKS_IT_E(%"struct.std::complex"* %0, %"struct.std::complex"* dereferenceable(16) %1) #1 comdat align 2 {
  %3 = call double @_ZNKSt7complexIdE4realB5cxx11Ev(%"struct.std::complex"* %1)
  %4 = getelementptr inbounds %"struct.std::complex", %"struct.std::complex"* %0, i32 0, i32 0
  %5 = getelementptr inbounds { double, double }, { double, double }* %4, i32 0, i32 0
  %6 = load double, double* %5, align 8
  %7 = fadd double %6, %3
  store double %7, double* %5, align 8
  %8 = call double @_ZNKSt7complexIdE4imagB5cxx11Ev(%"struct.std::complex"* %1)
  %9 = getelementptr inbounds %"struct.std::complex", %"struct.std::complex"* %0, i32 0, i32 0
  %10 = getelementptr inbounds { double, double }, { double, double }* %9, i32 0, i32 1
  %11 = load double, double* %10, align 8
  %12 = fadd double %11, %8
  store double %12, double* %10, align 8
  ret %"struct.std::complex"* %0
}

; Function Attrs: noinline uwtable
define linkonce_odr { double, double } @_ZStmlIdESt7complexIT_ERKS2_S4_(%"struct.std::complex"* dereferenceable(16) %0, %"struct.std::complex"* dereferenceable(16) %1) #0 comdat {
  %3 = alloca %"struct.std::complex", align 8
  %4 = bitcast %"struct.std::complex"* %3 to i8*
  %5 = bitcast %"struct.std::complex"* %0 to i8*
  call void @llvm.memcpy.p0i8.p0i8.i64(i8* align 8 %4, i8* align 8 %5, i64 16, i1 false)
  %6 = call dereferenceable(16) %"struct.std::complex"* @_ZNSt7complexIdEmLIdEERS0_RKS_IT_E(%"struct.std::complex"* %3, %"struct.std::complex"* dereferenceable(16) %1)
  %7 = getelementptr inbounds %"struct.std::complex", %"struct.std::complex"* %3, i32 0, i32 0
  %8 = load { double, double }, { double, double }* %7, align 8
  ret { double, double } %8
}

; Function Attrs: noinline nounwind uwtable
define linkonce_odr void @_ZSt4swapISt7complexIdEENSt9enable_ifIXsr6__and_ISt6__not_ISt15__is_tuple_likeIT_EESt21is_move_constructibleIS5_ESt18is_move_assignableIS5_EEE5valueEvE4typeERS5_SE_(%"struct.std::complex"* dereferenceable(16) %0, %"struct.std::complex"* dereferenceable(16) %1) #1 comdat {
  %3 = alloca %"struct.std::complex", align 8
  %4 = call dereferenceable(16) %"struct.std::complex"* @_ZSt4moveIRSt7complexIdEEONSt16remove_referenceIT_E4typeEOS4_(%"struct.std::complex"* dereferenceable(16) %0) #12
  %5 = bitcast %"struct.std::complex"* %3 to i8*
  %6 = bitcast %"struct.std::complex"* %4 to i8*
  call void @llvm.memcpy.p0i8.p0i8.i64(i8* align 8 %5, i8* align 8 %6, i64 16, i1 false)
  %7 = call dereferenceable(16) %"struct.std::complex"* @_ZSt4moveIRSt7complexIdEEONSt16remove_referenceIT_E4typeEOS4_(%"struct.std::complex"* dereferenceable(16) %1) #12
  %8 = bitcast %"struct.std::complex"* %0 to i8*
  %9 = bitcast %"struct.std::complex"* %7 to i8*
  call void @llvm.memcpy.p0i8.p0i8.i64(i8* align 8 %8, i8* align 8 %9, i64 16, i1 false)
  %10 = call dereferenceable(16) %"struct.std::complex"* @_ZSt4moveIRSt7complexIdEEONSt16remove_referenceIT_E4typeEOS4_(%"struct.std::complex"* dereferenceable(16) %3) #12
  %11 = bitcast %"struct.std::complex"* %1 to i8*
  %12 = bitcast %"struct.std::complex"* %10 to i8*
  call void @llvm.memcpy.p0i8.p0i8.i64(i8* align 8 %11, i8* align 8 %12, i64 16, i1 false)
  ret void
}

; Function Attrs: noinline norecurse uwtable
define i32 @main() #3 personality i8* bitcast (i32 (...)* @__gxx_personality_v0 to i8*) {
  %1 = alloca i32, align 4
  %2 = alloca i32, align 4
  %3 = alloca i32, align 4
  %4 = alloca double, align 8
  %5 = alloca double, align 8
  %6 = alloca double, align 8
  %7 = alloca double, align 8
  %8 = alloca i32, align 4
  %9 = alloca i32, align 4
  %10 = alloca i32, align 4
  %11 = alloca i32, align 4
  %12 = alloca i32, align 4
  %13 = alloca i32, align 4
  %14 = alloca %"struct.std::complex", align 8
  %15 = alloca %"struct.std::complex", align 8
  %16 = alloca %"struct.std::complex", align 8
  %17 = alloca %"struct.std::complex", align 8
  %18 = alloca double, align 8
  %19 = alloca %"struct.std::complex", align 8
  %20 = alloca %"struct.std::complex", align 8
  %21 = alloca %"struct.std::complex", align 8
  %22 = alloca %"struct.std::complex", align 8
  %23 = alloca double, align 8
  %24 = alloca %"class.std::vector", align 8
  %25 = alloca %"struct.std::pair", align 8
  %26 = alloca %"class.__gnu_cxx::__normal_iterator", align 8
  %27 = alloca %"class.__gnu_cxx::__normal_iterator", align 8
  %28 = alloca %"class.std::vector", align 8
  %29 = alloca %"struct.std::pair", align 8
  %30 = alloca double, align 8
  %31 = alloca %"class.__gnu_cxx::__normal_iterator", align 8
  %32 = alloca %"class.__gnu_cxx::__normal_iterator", align 8
  %33 = alloca double, align 8
  %34 = alloca double, align 8
  %35 = call i32 (i8*, ...) @scanf(i8* getelementptr inbounds ([7 x i8], [7 x i8]* @.str, i32 0, i32 0), i32* %1, i32* %2, i32* %3)
  br label %36

36:                                               ; preds = %45, %0
  %.01 = phi i32 [ 0, %0 ], [ %46, %45 ]
  %37 = load i32, i32* %1, align 4
  %38 = icmp slt i32 %.01, %37
  br i1 %38, label %39, label %47

39:                                               ; preds = %36
  %40 = sext i32 %.01 to i64
  %41 = getelementptr inbounds i32, i32* getelementptr inbounds ([110000 x i32], [110000 x i32]* @Ax, i32 0, i32 0), i64 %40
  %42 = sext i32 %.01 to i64
  %43 = getelementptr inbounds i32, i32* getelementptr inbounds ([110000 x i32], [110000 x i32]* @Ay, i32 0, i32 0), i64 %42
  %44 = call i32 (i8*, ...) @scanf(i8* getelementptr inbounds ([5 x i8], [5 x i8]* @.str.1, i32 0, i32 0), i32* %41, i32* %43)
  br label %45

45:                                               ; preds = %39
  %46 = add nsw i32 %.01, 1
  br label %36

47:                                               ; preds = %36
  br label %48

48:                                               ; preds = %57, %47
  %.02 = phi i32 [ 0, %47 ], [ %58, %57 ]
  %49 = load i32, i32* %2, align 4
  %50 = icmp slt i32 %.02, %49
  br i1 %50, label %51, label %59

51:                                               ; preds = %48
  %52 = sext i32 %.02 to i64
  %53 = getelementptr inbounds i32, i32* getelementptr inbounds ([110000 x i32], [110000 x i32]* @Bx, i32 0, i32 0), i64 %52
  %54 = sext i32 %.02 to i64
  %55 = getelementptr inbounds i32, i32* getelementptr inbounds ([110000 x i32], [110000 x i32]* @By, i32 0, i32 0), i64 %54
  %56 = call i32 (i8*, ...) @scanf(i8* getelementptr inbounds ([5 x i8], [5 x i8]* @.str.1, i32 0, i32 0), i32* %53, i32* %55)
  br label %57

57:                                               ; preds = %51
  %58 = add nsw i32 %.02, 1
  br label %48

59:                                               ; preds = %48
  br label %60

60:                                               ; preds = %69, %59
  %.03 = phi i32 [ 0, %59 ], [ %70, %69 ]
  %61 = load i32, i32* %3, align 4
  %62 = icmp slt i32 %.03, %61
  br i1 %62, label %63, label %71

63:                                               ; preds = %60
  %64 = sext i32 %.03 to i64
  %65 = getelementptr inbounds i32, i32* getelementptr inbounds ([110000 x i32], [110000 x i32]* @Cx, i32 0, i32 0), i64 %64
  %66 = sext i32 %.03 to i64
  %67 = getelementptr inbounds i32, i32* getelementptr inbounds ([110000 x i32], [110000 x i32]* @Cy, i32 0, i32 0), i64 %66
  %68 = call i32 (i8*, ...) @scanf(i8* getelementptr inbounds ([5 x i8], [5 x i8]* @.str.1, i32 0, i32 0), i32* %65, i32* %67)
  br label %69

69:                                               ; preds = %63
  %70 = add nsw i32 %.03, 1
  br label %60

71:                                               ; preds = %60
  br label %72

72:                                               ; preds = %88, %71
  %.04 = phi i32 [ 0, %71 ], [ %89, %88 ]
  %73 = load i32, i32* %1, align 4
  %74 = icmp slt i32 %.04, %73
  br i1 %74, label %75, label %90

75:                                               ; preds = %72
  %76 = sext i32 %.04 to i64
  %77 = getelementptr inbounds [110000 x i32], [110000 x i32]* @Ax, i64 0, i64 %76
  %78 = load i32, i32* %77, align 4
  %79 = sitofp i32 %78 to double
  %80 = sext i32 %.04 to i64
  %81 = getelementptr inbounds [110000 x double], [110000 x double]* @ax, i64 0, i64 %80
  store double %79, double* %81, align 8
  %82 = sext i32 %.04 to i64
  %83 = getelementptr inbounds [110000 x i32], [110000 x i32]* @Ay, i64 0, i64 %82
  %84 = load i32, i32* %83, align 4
  %85 = sitofp i32 %84 to double
  %86 = sext i32 %.04 to i64
  %87 = getelementptr inbounds [110000 x double], [110000 x double]* @ay, i64 0, i64 %86
  store double %85, double* %87, align 8
  br label %88

88:                                               ; preds = %75
  %89 = add nsw i32 %.04, 1
  br label %72

90:                                               ; preds = %72
  br label %91

91:                                               ; preds = %107, %90
  %.05 = phi i32 [ 0, %90 ], [ %108, %107 ]
  %92 = load i32, i32* %2, align 4
  %93 = icmp slt i32 %.05, %92
  br i1 %93, label %94, label %109

94:                                               ; preds = %91
  %95 = sext i32 %.05 to i64
  %96 = getelementptr inbounds [110000 x i32], [110000 x i32]* @Bx, i64 0, i64 %95
  %97 = load i32, i32* %96, align 4
  %98 = sitofp i32 %97 to double
  %99 = sext i32 %.05 to i64
  %100 = getelementptr inbounds [110000 x double], [110000 x double]* @bx, i64 0, i64 %99
  store double %98, double* %100, align 8
  %101 = sext i32 %.05 to i64
  %102 = getelementptr inbounds [110000 x i32], [110000 x i32]* @By, i64 0, i64 %101
  %103 = load i32, i32* %102, align 4
  %104 = sitofp i32 %103 to double
  %105 = sext i32 %.05 to i64
  %106 = getelementptr inbounds [110000 x double], [110000 x double]* @by, i64 0, i64 %105
  store double %104, double* %106, align 8
  br label %107

107:                                              ; preds = %94
  %108 = add nsw i32 %.05, 1
  br label %91

109:                                              ; preds = %91
  br label %110

110:                                              ; preds = %126, %109
  %.06 = phi i32 [ 0, %109 ], [ %127, %126 ]
  %111 = load i32, i32* %3, align 4
  %112 = icmp slt i32 %.06, %111
  br i1 %112, label %113, label %128

113:                                              ; preds = %110
  %114 = sext i32 %.06 to i64
  %115 = getelementptr inbounds [110000 x i32], [110000 x i32]* @Cx, i64 0, i64 %114
  %116 = load i32, i32* %115, align 4
  %117 = sitofp i32 %116 to double
  %118 = sext i32 %.06 to i64
  %119 = getelementptr inbounds [110000 x double], [110000 x double]* @cx, i64 0, i64 %118
  store double %117, double* %119, align 8
  %120 = sext i32 %.06 to i64
  %121 = getelementptr inbounds [110000 x i32], [110000 x i32]* @Cy, i64 0, i64 %120
  %122 = load i32, i32* %121, align 4
  %123 = sitofp i32 %122 to double
  %124 = sext i32 %.06 to i64
  %125 = getelementptr inbounds [110000 x double], [110000 x double]* @cy, i64 0, i64 %124
  store double %123, double* %125, align 8
  br label %126

126:                                              ; preds = %113
  %127 = add nsw i32 %.06, 1
  br label %110

128:                                              ; preds = %110
  br label %129

129:                                              ; preds = %175, %128
  %.010 = phi i32 [ 1, %128 ], [ %176, %175 ]
  %.08 = phi i32 [ 0, %128 ], [ %.19, %175 ]
  %.07 = phi i32 [ 0, %128 ], [ %.1, %175 ]
  %130 = load i32, i32* %3, align 4
  %131 = icmp slt i32 %.010, %130
  br i1 %131, label %132, label %177

132:                                              ; preds = %129
  %133 = sext i32 %.010 to i64
  %134 = getelementptr inbounds [110000 x double], [110000 x double]* @cx, i64 0, i64 %133
  %135 = load double, double* %134, align 8
  %136 = fmul double %135, 1.145140e+05
  %137 = sext i32 %.010 to i64
  %138 = getelementptr inbounds [110000 x double], [110000 x double]* @cy, i64 0, i64 %137
  %139 = load double, double* %138, align 8
  %140 = fmul double %139, 8.100000e+02
  %141 = fadd double %136, %140
  %142 = sext i32 %.07 to i64
  %143 = getelementptr inbounds [110000 x double], [110000 x double]* @cx, i64 0, i64 %142
  %144 = load double, double* %143, align 8
  %145 = fmul double %144, 1.145140e+05
  %146 = sext i32 %.07 to i64
  %147 = getelementptr inbounds [110000 x double], [110000 x double]* @cy, i64 0, i64 %146
  %148 = load double, double* %147, align 8
  %149 = fmul double %148, 8.100000e+02
  %150 = fadd double %145, %149
  %151 = fcmp olt double %141, %150
  br i1 %151, label %152, label %153

152:                                              ; preds = %132
  br label %153

153:                                              ; preds = %152, %132
  %.1 = phi i32 [ %.010, %152 ], [ %.07, %132 ]
  %154 = sext i32 %.010 to i64
  %155 = getelementptr inbounds [110000 x double], [110000 x double]* @cx, i64 0, i64 %154
  %156 = load double, double* %155, align 8
  %157 = fmul double %156, 1.145140e+05
  %158 = sext i32 %.010 to i64
  %159 = getelementptr inbounds [110000 x double], [110000 x double]* @cy, i64 0, i64 %158
  %160 = load double, double* %159, align 8
  %161 = fmul double %160, 8.100000e+02
  %162 = fadd double %157, %161
  %163 = sext i32 %.08 to i64
  %164 = getelementptr inbounds [110000 x double], [110000 x double]* @cx, i64 0, i64 %163
  %165 = load double, double* %164, align 8
  %166 = fmul double %165, 1.145140e+05
  %167 = sext i32 %.08 to i64
  %168 = getelementptr inbounds [110000 x double], [110000 x double]* @cy, i64 0, i64 %167
  %169 = load double, double* %168, align 8
  %170 = fmul double %169, 8.100000e+02
  %171 = fadd double %166, %170
  %172 = fcmp ogt double %162, %171
  br i1 %172, label %173, label %174

173:                                              ; preds = %153
  br label %174

174:                                              ; preds = %173, %153
  %.19 = phi i32 [ %.010, %173 ], [ %.08, %153 ]
  br label %175

175:                                              ; preds = %174
  %176 = add nsw i32 %.010, 1
  br label %129

177:                                              ; preds = %129
  %178 = sext i32 %.07 to i64
  %179 = getelementptr inbounds [110000 x double], [110000 x double]* @cx, i64 0, i64 %178
  %180 = load double, double* %179, align 8
  %181 = sext i32 %.08 to i64
  %182 = getelementptr inbounds [110000 x double], [110000 x double]* @cx, i64 0, i64 %181
  %183 = load double, double* %182, align 8
  %184 = fsub double %180, %183
  %185 = sext i32 %.07 to i64
  %186 = getelementptr inbounds [110000 x double], [110000 x double]* @cx, i64 0, i64 %185
  %187 = load double, double* %186, align 8
  %188 = sext i32 %.08 to i64
  %189 = getelementptr inbounds [110000 x double], [110000 x double]* @cx, i64 0, i64 %188
  %190 = load double, double* %189, align 8
  %191 = fsub double %187, %190
  %192 = fmul double %184, %191
  %193 = sext i32 %.07 to i64
  %194 = getelementptr inbounds [110000 x double], [110000 x double]* @cy, i64 0, i64 %193
  %195 = load double, double* %194, align 8
  %196 = sext i32 %.08 to i64
  %197 = getelementptr inbounds [110000 x double], [110000 x double]* @cy, i64 0, i64 %196
  %198 = load double, double* %197, align 8
  %199 = fsub double %195, %198
  %200 = sext i32 %.07 to i64
  %201 = getelementptr inbounds [110000 x double], [110000 x double]* @cy, i64 0, i64 %200
  %202 = load double, double* %201, align 8
  %203 = sext i32 %.08 to i64
  %204 = getelementptr inbounds [110000 x double], [110000 x double]* @cy, i64 0, i64 %203
  %205 = load double, double* %204, align 8
  %206 = fsub double %202, %205
  %207 = fmul double %199, %206
  %208 = fadd double %192, %207
  %209 = load double, double* @EPS, align 8
  %210 = fcmp olt double %208, %209
  br i1 %210, label %211, label %248

211:                                              ; preds = %177
  br label %212

212:                                              ; preds = %221, %211
  %.011 = phi i32 [ 0, %211 ], [ %222, %221 ]
  %213 = load i32, i32* %1, align 4
  %214 = icmp slt i32 %.011, %213
  br i1 %214, label %215, label %223

215:                                              ; preds = %212
  %216 = load double, double* getelementptr inbounds ([110000 x double], [110000 x double]* @cy, i64 0, i64 0), align 16
  %217 = sext i32 %.011 to i64
  %218 = getelementptr inbounds [110000 x double], [110000 x double]* @ay, i64 0, i64 %217
  %219 = load double, double* %218, align 8
  %220 = fsub double %219, %216
  store double %220, double* %218, align 8
  br label %221

221:                                              ; preds = %215
  %222 = add nsw i32 %.011, 1
  br label %212

223:                                              ; preds = %212
  br label %224

224:                                              ; preds = %233, %223
  %.012 = phi i32 [ 0, %223 ], [ %234, %233 ]
  %225 = load i32, i32* %2, align 4
  %226 = icmp slt i32 %.012, %225
  br i1 %226, label %227, label %235

227:                                              ; preds = %224
  %228 = load double, double* getelementptr inbounds ([110000 x double], [110000 x double]* @cy, i64 0, i64 0), align 16
  %229 = sext i32 %.012 to i64
  %230 = getelementptr inbounds [110000 x double], [110000 x double]* @by, i64 0, i64 %229
  %231 = load double, double* %230, align 8
  %232 = fsub double %231, %228
  store double %232, double* %230, align 8
  br label %233

233:                                              ; preds = %227
  %234 = add nsw i32 %.012, 1
  br label %224

235:                                              ; preds = %224
  br label %236

236:                                              ; preds = %245, %235
  %.013 = phi i32 [ 1, %235 ], [ %246, %245 ]
  %237 = load i32, i32* %3, align 4
  %238 = icmp slt i32 %.013, %237
  br i1 %238, label %239, label %247

239:                                              ; preds = %236
  %240 = load double, double* getelementptr inbounds ([110000 x double], [110000 x double]* @cy, i64 0, i64 0), align 16
  %241 = sext i32 %.013 to i64
  %242 = getelementptr inbounds [110000 x double], [110000 x double]* @cy, i64 0, i64 %241
  %243 = load double, double* %242, align 8
  %244 = fsub double %243, %240
  store double %244, double* %242, align 8
  br label %245

245:                                              ; preds = %239
  %246 = add nsw i32 %.013, 1
  br label %236

247:                                              ; preds = %236
  store double 0.000000e+00, double* getelementptr inbounds ([110000 x double], [110000 x double]* @cy, i64 0, i64 0), align 16
  br label %390

248:                                              ; preds = %177
  %249 = sext i32 %.08 to i64
  %250 = getelementptr inbounds [110000 x double], [110000 x double]* @cy, i64 0, i64 %249
  %251 = load double, double* %250, align 8
  %252 = sext i32 %.07 to i64
  %253 = getelementptr inbounds [110000 x double], [110000 x double]* @cy, i64 0, i64 %252
  %254 = load double, double* %253, align 8
  %255 = fsub double %251, %254
  %256 = sext i32 %.08 to i64
  %257 = getelementptr inbounds [110000 x double], [110000 x double]* @cx, i64 0, i64 %256
  %258 = load double, double* %257, align 8
  %259 = sext i32 %.07 to i64
  %260 = getelementptr inbounds [110000 x double], [110000 x double]* @cx, i64 0, i64 %259
  %261 = load double, double* %260, align 8
  %262 = fsub double %258, %261
  %263 = call double @atan2(double %255, double %262) #12
  br label %264

264:                                              ; preds = %295, %248
  %.015 = phi i32 [ 0, %248 ], [ %296, %295 ]
  %265 = load i32, i32* %1, align 4
  %266 = icmp slt i32 %.015, %265
  br i1 %266, label %267, label %297

267:                                              ; preds = %264
  %268 = sext i32 %.015 to i64
  %269 = getelementptr inbounds [110000 x double], [110000 x double]* @ax, i64 0, i64 %268
  %270 = load double, double* %269, align 8
  %271 = call double @cos(double %263) #12
  %272 = fmul double %270, %271
  %273 = sext i32 %.015 to i64
  %274 = getelementptr inbounds [110000 x double], [110000 x double]* @ay, i64 0, i64 %273
  %275 = load double, double* %274, align 8
  %276 = call double @sin(double %263) #12
  %277 = fmul double %275, %276
  %278 = fadd double %272, %277
  %279 = sext i32 %.015 to i64
  %280 = getelementptr inbounds [110000 x double], [110000 x double]* @ax, i64 0, i64 %279
  %281 = load double, double* %280, align 8
  %282 = fsub double -0.000000e+00, %281
  %283 = call double @sin(double %263) #12
  %284 = fmul double %282, %283
  %285 = sext i32 %.015 to i64
  %286 = getelementptr inbounds [110000 x double], [110000 x double]* @ay, i64 0, i64 %285
  %287 = load double, double* %286, align 8
  %288 = call double @cos(double %263) #12
  %289 = fmul double %287, %288
  %290 = fadd double %284, %289
  %291 = sext i32 %.015 to i64
  %292 = getelementptr inbounds [110000 x double], [110000 x double]* @ax, i64 0, i64 %291
  store double %278, double* %292, align 8
  %293 = sext i32 %.015 to i64
  %294 = getelementptr inbounds [110000 x double], [110000 x double]* @ay, i64 0, i64 %293
  store double %290, double* %294, align 8
  br label %295

295:                                              ; preds = %267
  %296 = add nsw i32 %.015, 1
  br label %264

297:                                              ; preds = %264
  br label %298

298:                                              ; preds = %329, %297
  %.021 = phi i32 [ 0, %297 ], [ %330, %329 ]
  %299 = load i32, i32* %2, align 4
  %300 = icmp slt i32 %.021, %299
  br i1 %300, label %301, label %331

301:                                              ; preds = %298
  %302 = sext i32 %.021 to i64
  %303 = getelementptr inbounds [110000 x double], [110000 x double]* @bx, i64 0, i64 %302
  %304 = load double, double* %303, align 8
  %305 = call double @cos(double %263) #12
  %306 = fmul double %304, %305
  %307 = sext i32 %.021 to i64
  %308 = getelementptr inbounds [110000 x double], [110000 x double]* @by, i64 0, i64 %307
  %309 = load double, double* %308, align 8
  %310 = call double @sin(double %263) #12
  %311 = fmul double %309, %310
  %312 = fadd double %306, %311
  %313 = sext i32 %.021 to i64
  %314 = getelementptr inbounds [110000 x double], [110000 x double]* @bx, i64 0, i64 %313
  %315 = load double, double* %314, align 8
  %316 = fsub double -0.000000e+00, %315
  %317 = call double @sin(double %263) #12
  %318 = fmul double %316, %317
  %319 = sext i32 %.021 to i64
  %320 = getelementptr inbounds [110000 x double], [110000 x double]* @by, i64 0, i64 %319
  %321 = load double, double* %320, align 8
  %322 = call double @cos(double %263) #12
  %323 = fmul double %321, %322
  %324 = fadd double %318, %323
  %325 = sext i32 %.021 to i64
  %326 = getelementptr inbounds [110000 x double], [110000 x double]* @bx, i64 0, i64 %325
  store double %312, double* %326, align 8
  %327 = sext i32 %.021 to i64
  %328 = getelementptr inbounds [110000 x double], [110000 x double]* @by, i64 0, i64 %327
  store double %324, double* %328, align 8
  br label %329

329:                                              ; preds = %301
  %330 = add nsw i32 %.021, 1
  br label %298

331:                                              ; preds = %298
  br label %332

332:                                              ; preds = %363, %331
  %.024 = phi i32 [ 0, %331 ], [ %364, %363 ]
  %333 = load i32, i32* %3, align 4
  %334 = icmp slt i32 %.024, %333
  br i1 %334, label %335, label %365

335:                                              ; preds = %332
  %336 = sext i32 %.024 to i64
  %337 = getelementptr inbounds [110000 x double], [110000 x double]* @cx, i64 0, i64 %336
  %338 = load double, double* %337, align 8
  %339 = call double @cos(double %263) #12
  %340 = fmul double %338, %339
  %341 = sext i32 %.024 to i64
  %342 = getelementptr inbounds [110000 x double], [110000 x double]* @cy, i64 0, i64 %341
  %343 = load double, double* %342, align 8
  %344 = call double @sin(double %263) #12
  %345 = fmul double %343, %344
  %346 = fadd double %340, %345
  %347 = sext i32 %.024 to i64
  %348 = getelementptr inbounds [110000 x double], [110000 x double]* @cx, i64 0, i64 %347
  %349 = load double, double* %348, align 8
  %350 = fsub double -0.000000e+00, %349
  %351 = call double @sin(double %263) #12
  %352 = fmul double %350, %351
  %353 = sext i32 %.024 to i64
  %354 = getelementptr inbounds [110000 x double], [110000 x double]* @cy, i64 0, i64 %353
  %355 = load double, double* %354, align 8
  %356 = call double @cos(double %263) #12
  %357 = fmul double %355, %356
  %358 = fadd double %352, %357
  %359 = sext i32 %.024 to i64
  %360 = getelementptr inbounds [110000 x double], [110000 x double]* @cx, i64 0, i64 %359
  store double %346, double* %360, align 8
  %361 = sext i32 %.024 to i64
  %362 = getelementptr inbounds [110000 x double], [110000 x double]* @cy, i64 0, i64 %361
  store double %358, double* %362, align 8
  br label %363

363:                                              ; preds = %335
  %364 = add nsw i32 %.024, 1
  br label %332

365:                                              ; preds = %332
  br label %366

366:                                              ; preds = %375, %365
  %.027 = phi i32 [ 0, %365 ], [ %376, %375 ]
  %367 = load i32, i32* %1, align 4
  %368 = icmp slt i32 %.027, %367
  br i1 %368, label %369, label %377

369:                                              ; preds = %366
  %370 = load double, double* getelementptr inbounds ([110000 x double], [110000 x double]* @cy, i64 0, i64 0), align 16
  %371 = sext i32 %.027 to i64
  %372 = getelementptr inbounds [110000 x double], [110000 x double]* @ay, i64 0, i64 %371
  %373 = load double, double* %372, align 8
  %374 = fsub double %373, %370
  store double %374, double* %372, align 8
  br label %375

375:                                              ; preds = %369
  %376 = add nsw i32 %.027, 1
  br label %366

377:                                              ; preds = %366
  br label %378

378:                                              ; preds = %387, %377
  %.028 = phi i32 [ 0, %377 ], [ %388, %387 ]
  %379 = load i32, i32* %2, align 4
  %380 = icmp slt i32 %.028, %379
  br i1 %380, label %381, label %389

381:                                              ; preds = %378
  %382 = load double, double* getelementptr inbounds ([110000 x double], [110000 x double]* @cy, i64 0, i64 0), align 16
  %383 = sext i32 %.028 to i64
  %384 = getelementptr inbounds [110000 x double], [110000 x double]* @by, i64 0, i64 %383
  %385 = load double, double* %384, align 8
  %386 = fsub double %385, %382
  store double %386, double* %384, align 8
  br label %387

387:                                              ; preds = %381
  %388 = add nsw i32 %.028, 1
  br label %378

389:                                              ; preds = %378
  br label %390

390:                                              ; preds = %389, %247
  store double 0x41CDCD64FF800000, double* %4, align 8
  store double 0xC1CDCD64FF800000, double* %5, align 8
  store double 0x41CDCD64FF800000, double* %6, align 8
  store double 0xC1CDCD64FF800000, double* %7, align 8
  br label %391

391:                                              ; preds = %403, %390
  %.029 = phi i32 [ 0, %390 ], [ %404, %403 ]
  %392 = load i32, i32* %1, align 4
  %393 = icmp slt i32 %.029, %392
  br i1 %393, label %394, label %405

394:                                              ; preds = %391
  %395 = sext i32 %.029 to i64
  %396 = getelementptr inbounds [110000 x double], [110000 x double]* @ay, i64 0, i64 %395
  %397 = call dereferenceable(8) double* @_ZSt3minIdERKT_S2_S2_(double* dereferenceable(8) %4, double* dereferenceable(8) %396)
  %398 = load double, double* %397, align 8
  store double %398, double* %4, align 8
  %399 = sext i32 %.029 to i64
  %400 = getelementptr inbounds [110000 x double], [110000 x double]* @ay, i64 0, i64 %399
  %401 = call dereferenceable(8) double* @_ZSt3maxIdERKT_S2_S2_(double* dereferenceable(8) %5, double* dereferenceable(8) %400)
  %402 = load double, double* %401, align 8
  store double %402, double* %5, align 8
  br label %403

403:                                              ; preds = %394
  %404 = add nsw i32 %.029, 1
  br label %391

405:                                              ; preds = %391
  br label %406

406:                                              ; preds = %418, %405
  %.030 = phi i32 [ 0, %405 ], [ %419, %418 ]
  %407 = load i32, i32* %2, align 4
  %408 = icmp slt i32 %.030, %407
  br i1 %408, label %409, label %420

409:                                              ; preds = %406
  %410 = sext i32 %.030 to i64
  %411 = getelementptr inbounds [110000 x double], [110000 x double]* @by, i64 0, i64 %410
  %412 = call dereferenceable(8) double* @_ZSt3minIdERKT_S2_S2_(double* dereferenceable(8) %6, double* dereferenceable(8) %411)
  %413 = load double, double* %412, align 8
  store double %413, double* %6, align 8
  %414 = sext i32 %.030 to i64
  %415 = getelementptr inbounds [110000 x double], [110000 x double]* @by, i64 0, i64 %414
  %416 = call dereferenceable(8) double* @_ZSt3maxIdERKT_S2_S2_(double* dereferenceable(8) %7, double* dereferenceable(8) %415)
  %417 = load double, double* %416, align 8
  store double %417, double* %7, align 8
  br label %418

418:                                              ; preds = %409
  %419 = add nsw i32 %.030, 1
  br label %406

420:                                              ; preds = %406
  %421 = load double, double* %5, align 8
  %422 = load double, double* %4, align 8
  %423 = fsub double %421, %422
  %424 = load double, double* @EPS, align 8
  %425 = fcmp olt double %423, %424
  br i1 %425, label %426, label %766

426:                                              ; preds = %420
  %427 = load double, double* %7, align 8
  %428 = load double, double* %6, align 8
  %429 = fsub double %427, %428
  %430 = load double, double* @EPS, align 8
  %431 = fcmp olt double %429, %430
  br i1 %431, label %432, label %766

432:                                              ; preds = %426
  %433 = load double, double* %5, align 8
  %434 = load double, double* %7, align 8
  %435 = fadd double %433, %434
  %436 = call double @_Z3ABSd(double %435)
  %437 = load double, double* @EPS, align 8
  %438 = fcmp ogt double %436, %437
  br i1 %438, label %439, label %441

439:                                              ; preds = %432
  %440 = call i32 (i8*, ...) @printf(i8* getelementptr inbounds ([3 x i8], [3 x i8]* @.str.2, i32 0, i32 0))
  br label %965

441:                                              ; preds = %432
  store i32 999999999, i32* %8, align 4
  store i32 -999999999, i32* %9, align 4
  store i32 999999999, i32* %10, align 4
  store i32 -999999999, i32* %11, align 4
  store i32 999999999, i32* %12, align 4
  store i32 -999999999, i32* %13, align 4
  br label %442

442:                                              ; preds = %454, %441
  %.036 = phi i32 [ 0, %441 ], [ %455, %454 ]
  %443 = load i32, i32* %1, align 4
  %444 = icmp slt i32 %.036, %443
  br i1 %444, label %445, label %456

445:                                              ; preds = %442
  %446 = sext i32 %.036 to i64
  %447 = getelementptr inbounds [110000 x i32], [110000 x i32]* @Ax, i64 0, i64 %446
  %448 = load i32, i32* %447, align 4
  %449 = add nsw i32 %448, 110000
  store i32 %449, i32* %447, align 4
  %450 = sext i32 %.036 to i64
  %451 = getelementptr inbounds [110000 x i32], [110000 x i32]* @Ay, i64 0, i64 %450
  %452 = load i32, i32* %451, align 4
  %453 = add nsw i32 %452, 110000
  store i32 %453, i32* %451, align 4
  br label %454

454:                                              ; preds = %445
  %455 = add nsw i32 %.036, 1
  br label %442

456:                                              ; preds = %442
  br label %457

457:                                              ; preds = %469, %456
  %.037 = phi i32 [ 0, %456 ], [ %470, %469 ]
  %458 = load i32, i32* %2, align 4
  %459 = icmp slt i32 %.037, %458
  br i1 %459, label %460, label %471

460:                                              ; preds = %457
  %461 = sext i32 %.037 to i64
  %462 = getelementptr inbounds [110000 x i32], [110000 x i32]* @Bx, i64 0, i64 %461
  %463 = load i32, i32* %462, align 4
  %464 = add nsw i32 %463, 110000
  store i32 %464, i32* %462, align 4
  %465 = sext i32 %.037 to i64
  %466 = getelementptr inbounds [110000 x i32], [110000 x i32]* @By, i64 0, i64 %465
  %467 = load i32, i32* %466, align 4
  %468 = add nsw i32 %467, 110000
  store i32 %468, i32* %466, align 4
  br label %469

469:                                              ; preds = %460
  %470 = add nsw i32 %.037, 1
  br label %457

471:                                              ; preds = %457
  br label %472

472:                                              ; preds = %484, %471
  %.038 = phi i32 [ 0, %471 ], [ %485, %484 ]
  %473 = load i32, i32* %3, align 4
  %474 = icmp slt i32 %.038, %473
  br i1 %474, label %475, label %486

475:                                              ; preds = %472
  %476 = sext i32 %.038 to i64
  %477 = getelementptr inbounds [110000 x i32], [110000 x i32]* @Cx, i64 0, i64 %476
  %478 = load i32, i32* %477, align 4
  %479 = add nsw i32 %478, 110000
  store i32 %479, i32* %477, align 4
  %480 = sext i32 %.038 to i64
  %481 = getelementptr inbounds [110000 x i32], [110000 x i32]* @Cy, i64 0, i64 %480
  %482 = load i32, i32* %481, align 4
  %483 = add nsw i32 %482, 110000
  store i32 %483, i32* %481, align 4
  br label %484

484:                                              ; preds = %475
  %485 = add nsw i32 %.038, 1
  br label %472

486:                                              ; preds = %472
  br label %487

487:                                              ; preds = %499, %486
  %.039 = phi i32 [ 0, %486 ], [ %500, %499 ]
  %488 = load i32, i32* %1, align 4
  %489 = icmp slt i32 %.039, %488
  br i1 %489, label %490, label %501

490:                                              ; preds = %487
  %491 = sext i32 %.039 to i64
  %492 = getelementptr inbounds [110000 x i32], [110000 x i32]* @Ax, i64 0, i64 %491
  %493 = call dereferenceable(4) i32* @_ZSt3minIiERKT_S2_S2_(i32* dereferenceable(4) %8, i32* dereferenceable(4) %492)
  %494 = load i32, i32* %493, align 4
  store i32 %494, i32* %8, align 4
  %495 = sext i32 %.039 to i64
  %496 = getelementptr inbounds [110000 x i32], [110000 x i32]* @Ax, i64 0, i64 %495
  %497 = call dereferenceable(4) i32* @_ZSt3maxIiERKT_S2_S2_(i32* dereferenceable(4) %9, i32* dereferenceable(4) %496)
  %498 = load i32, i32* %497, align 4
  store i32 %498, i32* %9, align 4
  br label %499

499:                                              ; preds = %490
  %500 = add nsw i32 %.039, 1
  br label %487

501:                                              ; preds = %487
  br label %502

502:                                              ; preds = %514, %501
  %.040 = phi i32 [ 0, %501 ], [ %515, %514 ]
  %503 = load i32, i32* %2, align 4
  %504 = icmp slt i32 %.040, %503
  br i1 %504, label %505, label %516

505:                                              ; preds = %502
  %506 = sext i32 %.040 to i64
  %507 = getelementptr inbounds [110000 x i32], [110000 x i32]* @Bx, i64 0, i64 %506
  %508 = call dereferenceable(4) i32* @_ZSt3minIiERKT_S2_S2_(i32* dereferenceable(4) %10, i32* dereferenceable(4) %507)
  %509 = load i32, i32* %508, align 4
  store i32 %509, i32* %10, align 4
  %510 = sext i32 %.040 to i64
  %511 = getelementptr inbounds [110000 x i32], [110000 x i32]* @Bx, i64 0, i64 %510
  %512 = call dereferenceable(4) i32* @_ZSt3maxIiERKT_S2_S2_(i32* dereferenceable(4) %11, i32* dereferenceable(4) %511)
  %513 = load i32, i32* %512, align 4
  store i32 %513, i32* %11, align 4
  br label %514

514:                                              ; preds = %505
  %515 = add nsw i32 %.040, 1
  br label %502

516:                                              ; preds = %502
  br label %517

517:                                              ; preds = %529, %516
  %.041 = phi i32 [ 0, %516 ], [ %530, %529 ]
  %518 = load i32, i32* %3, align 4
  %519 = icmp slt i32 %.041, %518
  br i1 %519, label %520, label %531

520:                                              ; preds = %517
  %521 = sext i32 %.041 to i64
  %522 = getelementptr inbounds [110000 x i32], [110000 x i32]* @Cx, i64 0, i64 %521
  %523 = call dereferenceable(4) i32* @_ZSt3minIiERKT_S2_S2_(i32* dereferenceable(4) %12, i32* dereferenceable(4) %522)
  %524 = load i32, i32* %523, align 4
  store i32 %524, i32* %12, align 4
  %525 = sext i32 %.041 to i64
  %526 = getelementptr inbounds [110000 x i32], [110000 x i32]* @Cx, i64 0, i64 %525
  %527 = call dereferenceable(4) i32* @_ZSt3maxIiERKT_S2_S2_(i32* dereferenceable(4) %13, i32* dereferenceable(4) %526)
  %528 = load i32, i32* %527, align 4
  store i32 %528, i32* %13, align 4
  br label %529

529:                                              ; preds = %520
  %530 = add nsw i32 %.041, 1
  br label %517

531:                                              ; preds = %517
  %532 = load i32, i32* %8, align 4
  %533 = load i32, i32* %9, align 4
  %534 = icmp ne i32 %532, %533
  br i1 %534, label %543, label %535

535:                                              ; preds = %531
  %536 = load i32, i32* %10, align 4
  %537 = load i32, i32* %11, align 4
  %538 = icmp ne i32 %536, %537
  br i1 %538, label %543, label %539

539:                                              ; preds = %535
  %540 = load i32, i32* %12, align 4
  %541 = load i32, i32* %13, align 4
  %542 = icmp ne i32 %540, %541
  br i1 %542, label %543, label %654

543:                                              ; preds = %539, %535, %531
  br label %544

544:                                              ; preds = %554, %543
  %.042 = phi i32 [ 0, %543 ], [ %555, %554 ]
  %545 = load i32, i32* %1, align 4
  %546 = icmp slt i32 %.042, %545
  br i1 %546, label %547, label %556

547:                                              ; preds = %544
  call void @_ZNSt7complexIdEC2Edd(%"struct.std::complex"* %14, double 1.000000e+00, double 0.000000e+00)
  %548 = sext i32 %.042 to i64
  %549 = getelementptr inbounds [110000 x i32], [110000 x i32]* @Ax, i64 0, i64 %548
  %550 = load i32, i32* %549, align 4
  %551 = sext i32 %550 to i64
  %552 = getelementptr inbounds [524400 x %"struct.std::complex"], [524400 x %"struct.std::complex"]* @af, i64 0, i64 %551
  %553 = call dereferenceable(16) %"struct.std::complex"* @_ZNSt7complexIdEpLIdEERS0_RKS_IT_E(%"struct.std::complex"* %552, %"struct.std::complex"* dereferenceable(16) %14)
  br label %554

554:                                              ; preds = %547
  %555 = add nsw i32 %.042, 1
  br label %544

556:                                              ; preds = %544
  br label %557

557:                                              ; preds = %567, %556
  %.043 = phi i32 [ 0, %556 ], [ %568, %567 ]
  %558 = load i32, i32* %2, align 4
  %559 = icmp slt i32 %.043, %558
  br i1 %559, label %560, label %569

560:                                              ; preds = %557
  call void @_ZNSt7complexIdEC2Edd(%"struct.std::complex"* %15, double 1.000000e+00, double 0.000000e+00)
  %561 = sext i32 %.043 to i64
  %562 = getelementptr inbounds [110000 x i32], [110000 x i32]* @Bx, i64 0, i64 %561
  %563 = load i32, i32* %562, align 4
  %564 = sext i32 %563 to i64
  %565 = getelementptr inbounds [524400 x %"struct.std::complex"], [524400 x %"struct.std::complex"]* @bf, i64 0, i64 %564
  %566 = call dereferenceable(16) %"struct.std::complex"* @_ZNSt7complexIdEpLIdEERS0_RKS_IT_E(%"struct.std::complex"* %565, %"struct.std::complex"* dereferenceable(16) %15)
  br label %567

567:                                              ; preds = %560
  %568 = add nsw i32 %.043, 1
  br label %557

569:                                              ; preds = %557
  br label %570

570:                                              ; preds = %582, %569
  %.044 = phi i32 [ 0, %569 ], [ %583, %582 ]
  %571 = load i32, i32* %3, align 4
  %572 = icmp slt i32 %.044, %571
  br i1 %572, label %573, label %584

573:                                              ; preds = %570
  %574 = sext i32 %.044 to i64
  %575 = getelementptr inbounds [110000 x i32], [110000 x i32]* @Cx, i64 0, i64 %574
  %576 = load i32, i32* %575, align 4
  %577 = mul nsw i32 %576, 2
  %578 = sext i32 %577 to i64
  %579 = getelementptr inbounds [524400 x i32], [524400 x i32]* @cd, i64 0, i64 %578
  %580 = load i32, i32* %579, align 4
  %581 = add nsw i32 %580, 1
  store i32 %581, i32* %579, align 4
  br label %582

582:                                              ; preds = %573
  %583 = add nsw i32 %.044, 1
  br label %570

584:                                              ; preds = %570
  %585 = load double, double* @_ZL2PI, align 8
  %586 = fmul double %585, 2.000000e+00
  %587 = sitofp i32 524288 to double
  %588 = fdiv double %586, %587
  call void @_Z3fftidPSt7complexIdE(i32 524288, double %588, %"struct.std::complex"* getelementptr inbounds ([524400 x %"struct.std::complex"], [524400 x %"struct.std::complex"]* @af, i32 0, i32 0))
  %589 = load double, double* @_ZL2PI, align 8
  %590 = fmul double %589, 2.000000e+00
  %591 = sitofp i32 524288 to double
  %592 = fdiv double %590, %591
  call void @_Z3fftidPSt7complexIdE(i32 524288, double %592, %"struct.std::complex"* getelementptr inbounds ([524400 x %"struct.std::complex"], [524400 x %"struct.std::complex"]* @bf, i32 0, i32 0))
  br label %593

593:                                              ; preds = %610, %584
  %.045 = phi i32 [ 0, %584 ], [ %611, %610 ]
  %594 = icmp slt i32 %.045, 524288
  br i1 %594, label %595, label %612

595:                                              ; preds = %593
  %596 = sext i32 %.045 to i64
  %597 = getelementptr inbounds [524400 x %"struct.std::complex"], [524400 x %"struct.std::complex"]* @af, i64 0, i64 %596
  %598 = sext i32 %.045 to i64
  %599 = getelementptr inbounds [524400 x %"struct.std::complex"], [524400 x %"struct.std::complex"]* @bf, i64 0, i64 %598
  %600 = call { double, double } @_ZStmlIdESt7complexIT_ERKS2_S4_(%"struct.std::complex"* dereferenceable(16) %597, %"struct.std::complex"* dereferenceable(16) %599)
  %601 = getelementptr inbounds %"struct.std::complex", %"struct.std::complex"* %16, i32 0, i32 0
  %602 = getelementptr inbounds { double, double }, { double, double }* %601, i32 0, i32 0
  %603 = extractvalue { double, double } %600, 0
  store double %603, double* %602, align 8
  %604 = getelementptr inbounds { double, double }, { double, double }* %601, i32 0, i32 1
  %605 = extractvalue { double, double } %600, 1
  store double %605, double* %604, align 8
  %606 = sext i32 %.045 to i64
  %607 = getelementptr inbounds [524400 x %"struct.std::complex"], [524400 x %"struct.std::complex"]* @cf, i64 0, i64 %606
  %608 = bitcast %"struct.std::complex"* %607 to i8*
  %609 = bitcast %"struct.std::complex"* %16 to i8*
  call void @llvm.memcpy.p0i8.p0i8.i64(i8* align 8 %608, i8* align 8 %609, i64 16, i1 false)
  br label %610

610:                                              ; preds = %595
  %611 = add nsw i32 %.045, 1
  br label %593

612:                                              ; preds = %593
  %613 = load double, double* @_ZL2PI, align 8
  %614 = fsub double -0.000000e+00, %613
  %615 = fmul double %614, 2.000000e+00
  %616 = sitofp i32 524288 to double
  %617 = fdiv double %615, %616
  call void @_Z3fftidPSt7complexIdE(i32 524288, double %617, %"struct.std::complex"* getelementptr inbounds ([524400 x %"struct.std::complex"], [524400 x %"struct.std::complex"]* @cf, i32 0, i32 0))
  br label %618

618:                                              ; preds = %634, %612
  %.046 = phi i32 [ 0, %612 ], [ %635, %634 ]
  %619 = icmp slt i32 %.046, 524288
  br i1 %619, label %620, label %636

620:                                              ; preds = %618
  %621 = sext i32 %.046 to i64
  %622 = getelementptr inbounds [524400 x %"struct.std::complex"], [524400 x %"struct.std::complex"]* @cf, i64 0, i64 %621
  %623 = sitofp i32 524288 to double
  store double %623, double* %18, align 8
  %624 = call { double, double } @_ZStdvIdESt7complexIT_ERKS2_RKS1_(%"struct.std::complex"* dereferenceable(16) %622, double* dereferenceable(8) %18)
  %625 = getelementptr inbounds %"struct.std::complex", %"struct.std::complex"* %17, i32 0, i32 0
  %626 = getelementptr inbounds { double, double }, { double, double }* %625, i32 0, i32 0
  %627 = extractvalue { double, double } %624, 0
  store double %627, double* %626, align 8
  %628 = getelementptr inbounds { double, double }, { double, double }* %625, i32 0, i32 1
  %629 = extractvalue { double, double } %624, 1
  store double %629, double* %628, align 8
  %630 = sext i32 %.046 to i64
  %631 = getelementptr inbounds [524400 x %"struct.std::complex"], [524400 x %"struct.std::complex"]* @cf, i64 0, i64 %630
  %632 = bitcast %"struct.std::complex"* %631 to i8*
  %633 = bitcast %"struct.std::complex"* %17 to i8*
  call void @llvm.memcpy.p0i8.p0i8.i64(i8* align 8 %632, i8* align 8 %633, i64 16, i1 false)
  br label %634

634:                                              ; preds = %620
  %635 = add nsw i32 %.046, 1
  br label %618

636:                                              ; preds = %618
  br label %637

637:                                              ; preds = %651, %636
  %.047 = phi i32 [ 0, %636 ], [ %652, %651 ]
  %.031 = phi i64 [ 0, %636 ], [ %650, %651 ]
  %638 = icmp slt i32 %.047, 524288
  br i1 %638, label %639, label %653

639:                                              ; preds = %637
  %640 = sext i32 %.047 to i64
  %641 = getelementptr inbounds [524400 x %"struct.std::complex"], [524400 x %"struct.std::complex"]* @cf, i64 0, i64 %640
  %642 = call double @_ZNKSt7complexIdE4realB5cxx11Ev(%"struct.std::complex"* %641)
  %643 = fadd double %642, 5.000000e-01
  %644 = fptosi double %643 to i64
  %645 = sext i32 %.047 to i64
  %646 = getelementptr inbounds [524400 x i32], [524400 x i32]* @cd, i64 0, i64 %645
  %647 = load i32, i32* %646, align 4
  %648 = sext i32 %647 to i64
  %649 = mul nsw i64 %644, %648
  %650 = add nsw i64 %.031, %649
  br label %651

651:                                              ; preds = %639
  %652 = add nsw i32 %.047, 2
  br label %637

653:                                              ; preds = %637
  br label %765

654:                                              ; preds = %539
  br label %655

655:                                              ; preds = %665, %654
  %.048 = phi i32 [ 0, %654 ], [ %666, %665 ]
  %656 = load i32, i32* %1, align 4
  %657 = icmp slt i32 %.048, %656
  br i1 %657, label %658, label %667

658:                                              ; preds = %655
  call void @_ZNSt7complexIdEC2Edd(%"struct.std::complex"* %19, double 1.000000e+00, double 0.000000e+00)
  %659 = sext i32 %.048 to i64
  %660 = getelementptr inbounds [110000 x i32], [110000 x i32]* @Ay, i64 0, i64 %659
  %661 = load i32, i32* %660, align 4
  %662 = sext i32 %661 to i64
  %663 = getelementptr inbounds [524400 x %"struct.std::complex"], [524400 x %"struct.std::complex"]* @af, i64 0, i64 %662
  %664 = call dereferenceable(16) %"struct.std::complex"* @_ZNSt7complexIdEpLIdEERS0_RKS_IT_E(%"struct.std::complex"* %663, %"struct.std::complex"* dereferenceable(16) %19)
  br label %665

665:                                              ; preds = %658
  %666 = add nsw i32 %.048, 1
  br label %655

667:                                              ; preds = %655
  br label %668

668:                                              ; preds = %678, %667
  %.049 = phi i32 [ 0, %667 ], [ %679, %678 ]
  %669 = load i32, i32* %2, align 4
  %670 = icmp slt i32 %.049, %669
  br i1 %670, label %671, label %680

671:                                              ; preds = %668
  call void @_ZNSt7complexIdEC2Edd(%"struct.std::complex"* %20, double 1.000000e+00, double 0.000000e+00)
  %672 = sext i32 %.049 to i64
  %673 = getelementptr inbounds [110000 x i32], [110000 x i32]* @By, i64 0, i64 %672
  %674 = load i32, i32* %673, align 4
  %675 = sext i32 %674 to i64
  %676 = getelementptr inbounds [524400 x %"struct.std::complex"], [524400 x %"struct.std::complex"]* @bf, i64 0, i64 %675
  %677 = call dereferenceable(16) %"struct.std::complex"* @_ZNSt7complexIdEpLIdEERS0_RKS_IT_E(%"struct.std::complex"* %676, %"struct.std::complex"* dereferenceable(16) %20)
  br label %678

678:                                              ; preds = %671
  %679 = add nsw i32 %.049, 1
  br label %668

680:                                              ; preds = %668
  br label %681

681:                                              ; preds = %693, %680
  %.050 = phi i32 [ 0, %680 ], [ %694, %693 ]
  %682 = load i32, i32* %3, align 4
  %683 = icmp slt i32 %.050, %682
  br i1 %683, label %684, label %695

684:                                              ; preds = %681
  %685 = sext i32 %.050 to i64
  %686 = getelementptr inbounds [110000 x i32], [110000 x i32]* @Cy, i64 0, i64 %685
  %687 = load i32, i32* %686, align 4
  %688 = mul nsw i32 %687, 2
  %689 = sext i32 %688 to i64
  %690 = getelementptr inbounds [524400 x i32], [524400 x i32]* @cd, i64 0, i64 %689
  %691 = load i32, i32* %690, align 4
  %692 = add nsw i32 %691, 1
  store i32 %692, i32* %690, align 4
  br label %693

693:                                              ; preds = %684
  %694 = add nsw i32 %.050, 1
  br label %681

695:                                              ; preds = %681
  %696 = load double, double* @_ZL2PI, align 8
  %697 = fmul double %696, 2.000000e+00
  %698 = sitofp i32 524288 to double
  %699 = fdiv double %697, %698
  call void @_Z3fftidPSt7complexIdE(i32 524288, double %699, %"struct.std::complex"* getelementptr inbounds ([524400 x %"struct.std::complex"], [524400 x %"struct.std::complex"]* @af, i32 0, i32 0))
  %700 = load double, double* @_ZL2PI, align 8
  %701 = fmul double %700, 2.000000e+00
  %702 = sitofp i32 524288 to double
  %703 = fdiv double %701, %702
  call void @_Z3fftidPSt7complexIdE(i32 524288, double %703, %"struct.std::complex"* getelementptr inbounds ([524400 x %"struct.std::complex"], [524400 x %"struct.std::complex"]* @bf, i32 0, i32 0))
  br label %704

704:                                              ; preds = %721, %695
  %.051 = phi i32 [ 0, %695 ], [ %722, %721 ]
  %705 = icmp slt i32 %.051, 524288
  br i1 %705, label %706, label %723

706:                                              ; preds = %704
  %707 = sext i32 %.051 to i64
  %708 = getelementptr inbounds [524400 x %"struct.std::complex"], [524400 x %"struct.std::complex"]* @af, i64 0, i64 %707
  %709 = sext i32 %.051 to i64
  %710 = getelementptr inbounds [524400 x %"struct.std::complex"], [524400 x %"struct.std::complex"]* @bf, i64 0, i64 %709
  %711 = call { double, double } @_ZStmlIdESt7complexIT_ERKS2_S4_(%"struct.std::complex"* dereferenceable(16) %708, %"struct.std::complex"* dereferenceable(16) %710)
  %712 = getelementptr inbounds %"struct.std::complex", %"struct.std::complex"* %21, i32 0, i32 0
  %713 = getelementptr inbounds { double, double }, { double, double }* %712, i32 0, i32 0
  %714 = extractvalue { double, double } %711, 0
  store double %714, double* %713, align 8
  %715 = getelementptr inbounds { double, double }, { double, double }* %712, i32 0, i32 1
  %716 = extractvalue { double, double } %711, 1
  store double %716, double* %715, align 8
  %717 = sext i32 %.051 to i64
  %718 = getelementptr inbounds [524400 x %"struct.std::complex"], [524400 x %"struct.std::complex"]* @cf, i64 0, i64 %717
  %719 = bitcast %"struct.std::complex"* %718 to i8*
  %720 = bitcast %"struct.std::complex"* %21 to i8*
  call void @llvm.memcpy.p0i8.p0i8.i64(i8* align 8 %719, i8* align 8 %720, i64 16, i1 false)
  br label %721

721:                                              ; preds = %706
  %722 = add nsw i32 %.051, 1
  br label %704

723:                                              ; preds = %704
  %724 = load double, double* @_ZL2PI, align 8
  %725 = fsub double -0.000000e+00, %724
  %726 = fmul double %725, 2.000000e+00
  %727 = sitofp i32 524288 to double
  %728 = fdiv double %726, %727
  call void @_Z3fftidPSt7complexIdE(i32 524288, double %728, %"struct.std::complex"* getelementptr inbounds ([524400 x %"struct.std::complex"], [524400 x %"struct.std::complex"]* @cf, i32 0, i32 0))
  br label %729

729:                                              ; preds = %745, %723
  %.052 = phi i32 [ 0, %723 ], [ %746, %745 ]
  %730 = icmp slt i32 %.052, 524288
  br i1 %730, label %731, label %747

731:                                              ; preds = %729
  %732 = sext i32 %.052 to i64
  %733 = getelementptr inbounds [524400 x %"struct.std::complex"], [524400 x %"struct.std::complex"]* @cf, i64 0, i64 %732
  %734 = sitofp i32 524288 to double
  store double %734, double* %23, align 8
  %735 = call { double, double } @_ZStdvIdESt7complexIT_ERKS2_RKS1_(%"struct.std::complex"* dereferenceable(16) %733, double* dereferenceable(8) %23)
  %736 = getelementptr inbounds %"struct.std::complex", %"struct.std::complex"* %22, i32 0, i32 0
  %737 = getelementptr inbounds { double, double }, { double, double }* %736, i32 0, i32 0
  %738 = extractvalue { double, double } %735, 0
  store double %738, double* %737, align 8
  %739 = getelementptr inbounds { double, double }, { double, double }* %736, i32 0, i32 1
  %740 = extractvalue { double, double } %735, 1
  store double %740, double* %739, align 8
  %741 = sext i32 %.052 to i64
  %742 = getelementptr inbounds [524400 x %"struct.std::complex"], [524400 x %"struct.std::complex"]* @cf, i64 0, i64 %741
  %743 = bitcast %"struct.std::complex"* %742 to i8*
  %744 = bitcast %"struct.std::complex"* %22 to i8*
  call void @llvm.memcpy.p0i8.p0i8.i64(i8* align 8 %743, i8* align 8 %744, i64 16, i1 false)
  br label %745

745:                                              ; preds = %731
  %746 = add nsw i32 %.052, 1
  br label %729

747:                                              ; preds = %729
  br label %748

748:                                              ; preds = %762, %747
  %.053 = phi i32 [ 0, %747 ], [ %763, %762 ]
  %.132 = phi i64 [ 0, %747 ], [ %761, %762 ]
  %749 = icmp slt i32 %.053, 524288
  br i1 %749, label %750, label %764

750:                                              ; preds = %748
  %751 = sext i32 %.053 to i64
  %752 = getelementptr inbounds [524400 x %"struct.std::complex"], [524400 x %"struct.std::complex"]* @cf, i64 0, i64 %751
  %753 = call double @_ZNKSt7complexIdE4realB5cxx11Ev(%"struct.std::complex"* %752)
  %754 = fadd double %753, 5.000000e-01
  %755 = fptosi double %754 to i64
  %756 = sext i32 %.053 to i64
  %757 = getelementptr inbounds [524400 x i32], [524400 x i32]* @cd, i64 0, i64 %756
  %758 = load i32, i32* %757, align 4
  %759 = sext i32 %758 to i64
  %760 = mul nsw i64 %755, %759
  %761 = add nsw i64 %.132, %760
  br label %762

762:                                              ; preds = %750
  %763 = add nsw i32 %.053, 2
  br label %748

764:                                              ; preds = %748
  br label %765

765:                                              ; preds = %764, %653
  %.233 = phi i64 [ %.031, %653 ], [ %.132, %764 ]
  br label %963

766:                                              ; preds = %426, %420
  %767 = load double, double* %5, align 8
  %768 = load double, double* %4, align 8
  %769 = fsub double %767, %768
  %770 = load double, double* @EPS, align 8
  %771 = fcmp olt double %769, %770
  br i1 %771, label %772, label %789

772:                                              ; preds = %766
  br label %773

773:                                              ; preds = %786, %772
  %.035 = phi i32 [ 0, %772 ], [ %787, %786 ]
  %774 = call dereferenceable(4) i32* @_ZSt3maxIiERKT_S2_S2_(i32* dereferenceable(4) %1, i32* dereferenceable(4) %2)
  %775 = load i32, i32* %774, align 4
  %776 = icmp slt i32 %.035, %775
  br i1 %776, label %777, label %788

777:                                              ; preds = %773
  %778 = sext i32 %.035 to i64
  %779 = getelementptr inbounds [110000 x double], [110000 x double]* @ax, i64 0, i64 %778
  %780 = sext i32 %.035 to i64
  %781 = getelementptr inbounds [110000 x double], [110000 x double]* @bx, i64 0, i64 %780
  call void @_ZSt4swapIdENSt9enable_ifIXsr6__and_ISt6__not_ISt15__is_tuple_likeIT_EESt21is_move_constructibleIS3_ESt18is_move_assignableIS3_EEE5valueEvE4typeERS3_SC_(double* dereferenceable(8) %779, double* dereferenceable(8) %781) #12
  %782 = sext i32 %.035 to i64
  %783 = getelementptr inbounds [110000 x double], [110000 x double]* @ay, i64 0, i64 %782
  %784 = sext i32 %.035 to i64
  %785 = getelementptr inbounds [110000 x double], [110000 x double]* @by, i64 0, i64 %784
  call void @_ZSt4swapIdENSt9enable_ifIXsr6__and_ISt6__not_ISt15__is_tuple_likeIT_EESt21is_move_constructibleIS3_ESt18is_move_assignableIS3_EEE5valueEvE4typeERS3_SC_(double* dereferenceable(8) %783, double* dereferenceable(8) %785) #12
  br label %786

786:                                              ; preds = %777
  %787 = add nsw i32 %.035, 1
  br label %773

788:                                              ; preds = %773
  call void @_ZSt4swapIiENSt9enable_ifIXsr6__and_ISt6__not_ISt15__is_tuple_likeIT_EESt21is_move_constructibleIS3_ESt18is_move_assignableIS3_EEE5valueEvE4typeERS3_SC_(i32* dereferenceable(4) %1, i32* dereferenceable(4) %2) #12
  br label %789

789:                                              ; preds = %788, %766
  call void @_ZNSt6vectorISt4pairIddESaIS1_EEC2Ev(%"class.std::vector"* %24) #12
  br label %790

790:                                              ; preds = %806, %789
  %.026 = phi i32 [ 0, %789 ], [ %807, %806 ]
  %791 = load i32, i32* %2, align 4
  %792 = icmp slt i32 %.026, %791
  br i1 %792, label %793, label %812

793:                                              ; preds = %790
  %794 = sext i32 %.026 to i64
  %795 = getelementptr inbounds [110000 x double], [110000 x double]* @by, i64 0, i64 %794
  %796 = sext i32 %.026 to i64
  %797 = getelementptr inbounds [110000 x double], [110000 x double]* @bx, i64 0, i64 %796
  %798 = invoke { double, double } @_ZSt9make_pairIRdS0_ESt4pairINSt17__decay_and_stripIT_E6__typeENS2_IT0_E6__typeEEOS3_OS6_(double* dereferenceable(8) %795, double* dereferenceable(8) %797)
          to label %799 unwind label %808

799:                                              ; preds = %793
  %800 = bitcast %"struct.std::pair"* %25 to { double, double }*
  %801 = getelementptr inbounds { double, double }, { double, double }* %800, i32 0, i32 0
  %802 = extractvalue { double, double } %798, 0
  store double %802, double* %801, align 8
  %803 = getelementptr inbounds { double, double }, { double, double }* %800, i32 0, i32 1
  %804 = extractvalue { double, double } %798, 1
  store double %804, double* %803, align 8
  invoke void @_ZNSt6vectorISt4pairIddESaIS1_EE9push_backEOS1_(%"class.std::vector"* %24, %"struct.std::pair"* dereferenceable(16) %25)
          to label %805 unwind label %808

805:                                              ; preds = %799
  br label %806

806:                                              ; preds = %805
  %807 = add nsw i32 %.026, 1
  br label %790

808:                                              ; preds = %812, %799, %793
  %809 = landingpad { i8*, i32 }
          cleanup
  %810 = extractvalue { i8*, i32 } %809, 0
  %811 = extractvalue { i8*, i32 } %809, 1
  br label %962

812:                                              ; preds = %790
  %813 = call %"struct.std::pair"* @_ZNSt6vectorISt4pairIddESaIS1_EE5beginEv(%"class.std::vector"* %24) #12
  %814 = getelementptr inbounds %"class.__gnu_cxx::__normal_iterator", %"class.__gnu_cxx::__normal_iterator"* %26, i32 0, i32 0
  store %"struct.std::pair"* %813, %"struct.std::pair"** %814, align 8
  %815 = call %"struct.std::pair"* @_ZNSt6vectorISt4pairIddESaIS1_EE3endEv(%"class.std::vector"* %24) #12
  %816 = getelementptr inbounds %"class.__gnu_cxx::__normal_iterator", %"class.__gnu_cxx::__normal_iterator"* %27, i32 0, i32 0
  store %"struct.std::pair"* %815, %"struct.std::pair"** %816, align 8
  %817 = getelementptr inbounds %"class.__gnu_cxx::__normal_iterator", %"class.__gnu_cxx::__normal_iterator"* %26, i32 0, i32 0
  %818 = load %"struct.std::pair"*, %"struct.std::pair"** %817, align 8
  %819 = getelementptr inbounds %"class.__gnu_cxx::__normal_iterator", %"class.__gnu_cxx::__normal_iterator"* %27, i32 0, i32 0
  %820 = load %"struct.std::pair"*, %"struct.std::pair"** %819, align 8
  invoke void @_ZSt4sortIN9__gnu_cxx17__normal_iteratorIPSt4pairIddESt6vectorIS3_SaIS3_EEEEEvT_S9_(%"struct.std::pair"* %818, %"struct.std::pair"* %820)
          to label %821 unwind label %808

821:                                              ; preds = %812
  call void @_ZNSt6vectorISt4pairIddESaIS1_EEC2Ev(%"class.std::vector"* %28) #12
  br label %822

822:                                              ; preds = %840, %821
  %.022 = phi i32 [ 0, %821 ], [ %841, %840 ]
  %823 = load i32, i32* %1, align 4
  %824 = icmp slt i32 %.022, %823
  br i1 %824, label %825, label %846

825:                                              ; preds = %822
  %826 = sext i32 %.022 to i64
  %827 = getelementptr inbounds [110000 x double], [110000 x double]* @ay, i64 0, i64 %826
  %828 = load double, double* %827, align 8
  %829 = fsub double -0.000000e+00, %828
  store double %829, double* %30, align 8
  %830 = sext i32 %.022 to i64
  %831 = getelementptr inbounds [110000 x double], [110000 x double]* @ax, i64 0, i64 %830
  %832 = invoke { double, double } @_ZSt9make_pairIdRdESt4pairINSt17__decay_and_stripIT_E6__typeENS2_IT0_E6__typeEEOS3_OS6_(double* dereferenceable(8) %30, double* dereferenceable(8) %831)
          to label %833 unwind label %842

833:                                              ; preds = %825
  %834 = bitcast %"struct.std::pair"* %29 to { double, double }*
  %835 = getelementptr inbounds { double, double }, { double, double }* %834, i32 0, i32 0
  %836 = extractvalue { double, double } %832, 0
  store double %836, double* %835, align 8
  %837 = getelementptr inbounds { double, double }, { double, double }* %834, i32 0, i32 1
  %838 = extractvalue { double, double } %832, 1
  store double %838, double* %837, align 8
  invoke void @_ZNSt6vectorISt4pairIddESaIS1_EE9push_backEOS1_(%"class.std::vector"* %28, %"struct.std::pair"* dereferenceable(16) %29)
          to label %839 unwind label %842

839:                                              ; preds = %833
  br label %840

840:                                              ; preds = %839
  %841 = add nsw i32 %.022, 1
  br label %822

842:                                              ; preds = %942, %925, %911, %865, %855, %846, %833, %825
  %843 = landingpad { i8*, i32 }
          cleanup
  %844 = extractvalue { i8*, i32 } %843, 0
  %845 = extractvalue { i8*, i32 } %843, 1
  call void @_ZNSt6vectorISt4pairIddESaIS1_EED2Ev(%"class.std::vector"* %28) #12
  br label %962

846:                                              ; preds = %822
  %847 = call %"struct.std::pair"* @_ZNSt6vectorISt4pairIddESaIS1_EE5beginEv(%"class.std::vector"* %28) #12
  %848 = getelementptr inbounds %"class.__gnu_cxx::__normal_iterator", %"class.__gnu_cxx::__normal_iterator"* %31, i32 0, i32 0
  store %"struct.std::pair"* %847, %"struct.std::pair"** %848, align 8
  %849 = call %"struct.std::pair"* @_ZNSt6vectorISt4pairIddESaIS1_EE3endEv(%"class.std::vector"* %28) #12
  %850 = getelementptr inbounds %"class.__gnu_cxx::__normal_iterator", %"class.__gnu_cxx::__normal_iterator"* %32, i32 0, i32 0
  store %"struct.std::pair"* %849, %"struct.std::pair"** %850, align 8
  %851 = getelementptr inbounds %"class.__gnu_cxx::__normal_iterator", %"class.__gnu_cxx::__normal_iterator"* %31, i32 0, i32 0
  %852 = load %"struct.std::pair"*, %"struct.std::pair"** %851, align 8
  %853 = getelementptr inbounds %"class.__gnu_cxx::__normal_iterator", %"class.__gnu_cxx::__normal_iterator"* %32, i32 0, i32 0
  %854 = load %"struct.std::pair"*, %"struct.std::pair"** %853, align 8
  invoke void @_ZSt4sortIN9__gnu_cxx17__normal_iteratorIPSt4pairIddESt6vectorIS3_SaIS3_EEEEEvT_S9_(%"struct.std::pair"* %852, %"struct.std::pair"* %854)
          to label %855 unwind label %842

855:                                              ; preds = %846
  %856 = load i32, i32* %3, align 4
  %857 = sext i32 %856 to i64
  %858 = getelementptr inbounds double, double* getelementptr inbounds ([110000 x double], [110000 x double]* @cx, i32 0, i32 0), i64 %857
  invoke void @_ZSt4sortIPdEvT_S1_(double* getelementptr inbounds ([110000 x double], [110000 x double]* @cx, i32 0, i32 0), double* %858)
          to label %859 unwind label %842

859:                                              ; preds = %855
  br label %860

860:                                              ; preds = %959, %859
  %.334 = phi i64 [ 0, %859 ], [ %.4, %959 ]
  %.018 = phi i32 [ 0, %859 ], [ %.220, %959 ]
  %.016 = phi i64 [ 0, %859 ], [ %.3, %959 ]
  %.014 = phi i32 [ 0, %859 ], [ %960, %959 ]
  %861 = load i32, i32* %1, align 4
  %862 = icmp slt i32 %.014, %861
  br i1 %862, label %863, label %961

863:                                              ; preds = %860
  %864 = icmp ne i32 %.014, 0
  br i1 %864, label %865, label %892

865:                                              ; preds = %863
  %866 = sext i32 %.014 to i64
  %867 = call dereferenceable(16) %"struct.std::pair"* @_ZNSt6vectorISt4pairIddESaIS1_EEixEm(%"class.std::vector"* %28, i64 %866) #12
  %868 = getelementptr inbounds %"struct.std::pair", %"struct.std::pair"* %867, i32 0, i32 0
  %869 = load double, double* %868, align 8
  %870 = sub nsw i32 %.014, 1
  %871 = sext i32 %870 to i64
  %872 = call dereferenceable(16) %"struct.std::pair"* @_ZNSt6vectorISt4pairIddESaIS1_EEixEm(%"class.std::vector"* %28, i64 %871) #12
  %873 = getelementptr inbounds %"struct.std::pair", %"struct.std::pair"* %872, i32 0, i32 0
  %874 = load double, double* %873, align 8
  %875 = fsub double %869, %874
  %876 = sext i32 %.014 to i64
  %877 = call dereferenceable(16) %"struct.std::pair"* @_ZNSt6vectorISt4pairIddESaIS1_EEixEm(%"class.std::vector"* %28, i64 %876) #12
  %878 = getelementptr inbounds %"struct.std::pair", %"struct.std::pair"* %877, i32 0, i32 1
  %879 = load double, double* %878, align 8
  %880 = sub nsw i32 %.014, 1
  %881 = sext i32 %880 to i64
  %882 = call dereferenceable(16) %"struct.std::pair"* @_ZNSt6vectorISt4pairIddESaIS1_EEixEm(%"class.std::vector"* %28, i64 %881) #12
  %883 = getelementptr inbounds %"struct.std::pair", %"struct.std::pair"* %882, i32 0, i32 1
  %884 = load double, double* %883, align 8
  %885 = fsub double %879, %884
  %886 = invoke double @_Z4abs2dd(double %875, double %885)
          to label %887 unwind label %842

887:                                              ; preds = %865
  %888 = load double, double* @EPS, align 8
  %889 = fcmp olt double %886, %888
  br i1 %889, label %890, label %892

890:                                              ; preds = %887
  %891 = add nsw i64 %.334, %.016
  br label %959

892:                                              ; preds = %887, %863
  br label %893

893:                                              ; preds = %955, %892
  %.119 = phi i32 [ %.018, %892 ], [ %956, %955 ]
  %.117 = phi i64 [ 0, %892 ], [ %.2, %955 ]
  %894 = sext i32 %.119 to i64
  %895 = call i64 @_ZNKSt6vectorISt4pairIddESaIS1_EE4sizeEv(%"class.std::vector"* %24) #12
  %896 = icmp ult i64 %894, %895
  br i1 %896, label %897, label %909

897:                                              ; preds = %893
  %898 = sext i32 %.119 to i64
  %899 = call dereferenceable(16) %"struct.std::pair"* @_ZNSt6vectorISt4pairIddESaIS1_EEixEm(%"class.std::vector"* %24, i64 %898) #12
  %900 = getelementptr inbounds %"struct.std::pair", %"struct.std::pair"* %899, i32 0, i32 0
  %901 = load double, double* %900, align 8
  %902 = sext i32 %.014 to i64
  %903 = call dereferenceable(16) %"struct.std::pair"* @_ZNSt6vectorISt4pairIddESaIS1_EEixEm(%"class.std::vector"* %28, i64 %902) #12
  %904 = getelementptr inbounds %"struct.std::pair", %"struct.std::pair"* %903, i32 0, i32 0
  %905 = load double, double* %904, align 8
  %906 = load double, double* @EPS, align 8
  %907 = fadd double %905, %906
  %908 = fcmp olt double %901, %907
  br label %909

909:                                              ; preds = %897, %893
  %910 = phi i1 [ false, %893 ], [ %908, %897 ]
  br i1 %910, label %911, label %957

911:                                              ; preds = %909
  %912 = sext i32 %.119 to i64
  %913 = call dereferenceable(16) %"struct.std::pair"* @_ZNSt6vectorISt4pairIddESaIS1_EEixEm(%"class.std::vector"* %24, i64 %912) #12
  %914 = getelementptr inbounds %"struct.std::pair", %"struct.std::pair"* %913, i32 0, i32 0
  %915 = load double, double* %914, align 8
  %916 = sext i32 %.014 to i64
  %917 = call dereferenceable(16) %"struct.std::pair"* @_ZNSt6vectorISt4pairIddESaIS1_EEixEm(%"class.std::vector"* %28, i64 %916) #12
  %918 = getelementptr inbounds %"struct.std::pair", %"struct.std::pair"* %917, i32 0, i32 0
  %919 = load double, double* %918, align 8
  %920 = fsub double %915, %919
  %921 = invoke double @_Z3ABSd(double %920)
          to label %922 unwind label %842

922:                                              ; preds = %911
  %923 = load double, double* @EPS, align 8
  %924 = fcmp olt double %921, %923
  br i1 %924, label %925, label %955

925:                                              ; preds = %922
  %926 = sext i32 %.119 to i64
  %927 = call dereferenceable(16) %"struct.std::pair"* @_ZNSt6vectorISt4pairIddESaIS1_EEixEm(%"class.std::vector"* %24, i64 %926) #12
  %928 = getelementptr inbounds %"struct.std::pair", %"struct.std::pair"* %927, i32 0, i32 1
  %929 = load double, double* %928, align 8
  %930 = sext i32 %.014 to i64
  %931 = call dereferenceable(16) %"struct.std::pair"* @_ZNSt6vectorISt4pairIddESaIS1_EEixEm(%"class.std::vector"* %28, i64 %930) #12
  %932 = getelementptr inbounds %"struct.std::pair", %"struct.std::pair"* %931, i32 0, i32 1
  %933 = load double, double* %932, align 8
  %934 = fadd double %929, %933
  %935 = fdiv double %934, 2.000000e+00
  %936 = load i32, i32* %3, align 4
  %937 = sext i32 %936 to i64
  %938 = getelementptr inbounds double, double* getelementptr inbounds ([110000 x double], [110000 x double]* @cx, i32 0, i32 0), i64 %937
  %939 = load double, double* @EPS, align 8
  %940 = fadd double %935, %939
  store double %940, double* %33, align 8
  %941 = invoke double* @_ZSt11lower_boundIPddET_S1_S1_RKT0_(double* getelementptr inbounds ([110000 x double], [110000 x double]* @cx, i32 0, i32 0), double* %938, double* dereferenceable(8) %33)
          to label %942 unwind label %842

942:                                              ; preds = %925
  %943 = load i32, i32* %3, align 4
  %944 = sext i32 %943 to i64
  %945 = getelementptr inbounds double, double* getelementptr inbounds ([110000 x double], [110000 x double]* @cx, i32 0, i32 0), i64 %944
  %946 = load double, double* @EPS, align 8
  %947 = fsub double %935, %946
  store double %947, double* %34, align 8
  %948 = invoke double* @_ZSt11lower_boundIPddET_S1_S1_RKT0_(double* getelementptr inbounds ([110000 x double], [110000 x double]* @cx, i32 0, i32 0), double* %945, double* dereferenceable(8) %34)
          to label %949 unwind label %842

949:                                              ; preds = %942
  %950 = ptrtoint double* %941 to i64
  %951 = ptrtoint double* %948 to i64
  %952 = sub i64 %950, %951
  %953 = sdiv exact i64 %952, 8
  %954 = add nsw i64 %.117, %953
  br label %955

955:                                              ; preds = %949, %922
  %.2 = phi i64 [ %954, %949 ], [ %.117, %922 ]
  %956 = add nsw i32 %.119, 1
  br label %893

957:                                              ; preds = %909
  %958 = add nsw i64 %.334, %.117
  br label %959

959:                                              ; preds = %957, %890
  %.4 = phi i64 [ %891, %890 ], [ %958, %957 ]
  %.220 = phi i32 [ %.018, %890 ], [ %.119, %957 ]
  %.3 = phi i64 [ %.016, %890 ], [ %.117, %957 ]
  %960 = add nsw i32 %.014, 1
  br label %860

961:                                              ; preds = %860
  call void @_ZNSt6vectorISt4pairIddESaIS1_EED2Ev(%"class.std::vector"* %28) #12
  call void @_ZNSt6vectorISt4pairIddESaIS1_EED2Ev(%"class.std::vector"* %24) #12
  br label %963

962:                                              ; preds = %842, %808
  %.025 = phi i8* [ %810, %808 ], [ %844, %842 ]
  %.023 = phi i32 [ %811, %808 ], [ %845, %842 ]
  call void @_ZNSt6vectorISt4pairIddESaIS1_EED2Ev(%"class.std::vector"* %24) #12
  br label %966

963:                                              ; preds = %961, %765
  %.5 = phi i64 [ %.233, %765 ], [ %.334, %961 ]
  %964 = call i32 (i8*, ...) @printf(i8* getelementptr inbounds ([6 x i8], [6 x i8]* @.str.3, i32 0, i32 0), i64 %.5)
  br label %965

965:                                              ; preds = %963, %439
  ret i32 0

966:                                              ; preds = %962
  %967 = insertvalue { i8*, i32 } undef, i8* %.025, 0
  %968 = insertvalue { i8*, i32 } %967, i32 %.023, 1
  resume { i8*, i32 } %968
}

declare i32 @scanf(i8*, ...) #4

; Function Attrs: nounwind
declare double @atan2(double, double) #2

; Function Attrs: nounwind
declare double @cos(double) #2

; Function Attrs: nounwind
declare double @sin(double) #2

; Function Attrs: noinline nounwind uwtable
define linkonce_odr dereferenceable(8) double* @_ZSt3minIdERKT_S2_S2_(double* dereferenceable(8) %0, double* dereferenceable(8) %1) #1 comdat {
  %3 = load double, double* %1, align 8
  %4 = load double, double* %0, align 8
  %5 = fcmp olt double %3, %4
  br i1 %5, label %6, label %7

6:                                                ; preds = %2
  br label %8

7:                                                ; preds = %2
  br label %8

8:                                                ; preds = %7, %6
  %.0 = phi double* [ %1, %6 ], [ %0, %7 ]
  ret double* %.0
}

declare i32 @printf(i8*, ...) #4

; Function Attrs: noinline nounwind uwtable
define linkonce_odr dereferenceable(4) i32* @_ZSt3minIiERKT_S2_S2_(i32* dereferenceable(4) %0, i32* dereferenceable(4) %1) #1 comdat {
  %3 = load i32, i32* %1, align 4
  %4 = load i32, i32* %0, align 4
  %5 = icmp slt i32 %3, %4
  br i1 %5, label %6, label %7

6:                                                ; preds = %2
  br label %8

7:                                                ; preds = %2
  br label %8

8:                                                ; preds = %7, %6
  %.0 = phi i32* [ %1, %6 ], [ %0, %7 ]
  ret i32* %.0
}

; Function Attrs: noinline nounwind uwtable
define linkonce_odr dereferenceable(4) i32* @_ZSt3maxIiERKT_S2_S2_(i32* dereferenceable(4) %0, i32* dereferenceable(4) %1) #1 comdat {
  %3 = load i32, i32* %0, align 4
  %4 = load i32, i32* %1, align 4
  %5 = icmp slt i32 %3, %4
  br i1 %5, label %6, label %7

6:                                                ; preds = %2
  br label %8

7:                                                ; preds = %2
  br label %8

8:                                                ; preds = %7, %6
  %.0 = phi i32* [ %1, %6 ], [ %0, %7 ]
  ret i32* %.0
}

; Function Attrs: noinline nounwind uwtable
define linkonce_odr void @_ZNSt7complexIdEC2Edd(%"struct.std::complex"* %0, double %1, double %2) unnamed_addr #1 comdat align 2 {
  %4 = getelementptr inbounds %"struct.std::complex", %"struct.std::complex"* %0, i32 0, i32 0
  %5 = getelementptr inbounds { double, double }, { double, double }* %4, i32 0, i32 0
  %6 = getelementptr inbounds { double, double }, { double, double }* %4, i32 0, i32 1
  store double %1, double* %5, align 8
  store double %2, double* %6, align 8
  ret void
}

; Function Attrs: noinline uwtable
define linkonce_odr { double, double } @_ZStdvIdESt7complexIT_ERKS2_RKS1_(%"struct.std::complex"* dereferenceable(16) %0, double* dereferenceable(8) %1) #0 comdat {
  %3 = alloca %"struct.std::complex", align 8
  %4 = bitcast %"struct.std::complex"* %3 to i8*
  %5 = bitcast %"struct.std::complex"* %0 to i8*
  call void @llvm.memcpy.p0i8.p0i8.i64(i8* align 8 %4, i8* align 8 %5, i64 16, i1 false)
  %6 = load double, double* %1, align 8
  %7 = call dereferenceable(16) %"struct.std::complex"* @_ZNSt7complexIdEdVEd(%"struct.std::complex"* %3, double %6)
  %8 = getelementptr inbounds %"struct.std::complex", %"struct.std::complex"* %3, i32 0, i32 0
  %9 = load { double, double }, { double, double }* %8, align 8
  ret { double, double } %9
}

; Function Attrs: noinline nounwind uwtable
define linkonce_odr double @_ZNKSt7complexIdE4realB5cxx11Ev(%"struct.std::complex"* %0) #1 comdat align 2 {
  %2 = getelementptr inbounds %"struct.std::complex", %"struct.std::complex"* %0, i32 0, i32 0
  %3 = getelementptr inbounds { double, double }, { double, double }* %2, i32 0, i32 0
  %4 = load double, double* %3, align 8
  ret double %4
}

; Function Attrs: noinline nounwind uwtable
define linkonce_odr void @_ZSt4swapIdENSt9enable_ifIXsr6__and_ISt6__not_ISt15__is_tuple_likeIT_EESt21is_move_constructibleIS3_ESt18is_move_assignableIS3_EEE5valueEvE4typeERS3_SC_(double* dereferenceable(8) %0, double* dereferenceable(8) %1) #1 comdat {
  %3 = alloca double, align 8
  %4 = call dereferenceable(8) double* @_ZSt4moveIRdEONSt16remove_referenceIT_E4typeEOS2_(double* dereferenceable(8) %0) #12
  %5 = load double, double* %4, align 8
  store double %5, double* %3, align 8
  %6 = call dereferenceable(8) double* @_ZSt4moveIRdEONSt16remove_referenceIT_E4typeEOS2_(double* dereferenceable(8) %1) #12
  %7 = load double, double* %6, align 8
  store double %7, double* %0, align 8
  %8 = call dereferenceable(8) double* @_ZSt4moveIRdEONSt16remove_referenceIT_E4typeEOS2_(double* dereferenceable(8) %3) #12
  %9 = load double, double* %8, align 8
  store double %9, double* %1, align 8
  ret void
}

; Function Attrs: noinline nounwind uwtable
define linkonce_odr void @_ZSt4swapIiENSt9enable_ifIXsr6__and_ISt6__not_ISt15__is_tuple_likeIT_EESt21is_move_constructibleIS3_ESt18is_move_assignableIS3_EEE5valueEvE4typeERS3_SC_(i32* dereferenceable(4) %0, i32* dereferenceable(4) %1) #1 comdat {
  %3 = alloca i32, align 4
  %4 = call dereferenceable(4) i32* @_ZSt4moveIRiEONSt16remove_referenceIT_E4typeEOS2_(i32* dereferenceable(4) %0) #12
  %5 = load i32, i32* %4, align 4
  store i32 %5, i32* %3, align 4
  %6 = call dereferenceable(4) i32* @_ZSt4moveIRiEONSt16remove_referenceIT_E4typeEOS2_(i32* dereferenceable(4) %1) #12
  %7 = load i32, i32* %6, align 4
  store i32 %7, i32* %0, align 4
  %8 = call dereferenceable(4) i32* @_ZSt4moveIRiEONSt16remove_referenceIT_E4typeEOS2_(i32* dereferenceable(4) %3) #12
  %9 = load i32, i32* %8, align 4
  store i32 %9, i32* %1, align 4
  ret void
}

; Function Attrs: noinline nounwind uwtable
define linkonce_odr void @_ZNSt6vectorISt4pairIddESaIS1_EEC2Ev(%"class.std::vector"* %0) unnamed_addr #1 comdat align 2 personality i8* bitcast (i32 (...)* @__gxx_personality_v0 to i8*) {
  %2 = bitcast %"class.std::vector"* %0 to %"struct.std::_Vector_base"*
  invoke void @_ZNSt12_Vector_baseISt4pairIddESaIS1_EEC2Ev(%"struct.std::_Vector_base"* %2)
          to label %3 unwind label %4

3:                                                ; preds = %1
  ret void

4:                                                ; preds = %1
  %5 = landingpad { i8*, i32 }
          catch i8* null
  %6 = extractvalue { i8*, i32 } %5, 0
  call void @__clang_call_terminate(i8* %6) #13
  unreachable
}

; Function Attrs: noinline uwtable
define linkonce_odr void @_ZNSt6vectorISt4pairIddESaIS1_EE9push_backEOS1_(%"class.std::vector"* %0, %"struct.std::pair"* dereferenceable(16) %1) #0 comdat align 2 {
  %3 = call dereferenceable(16) %"struct.std::pair"* @_ZSt4moveIRSt4pairIddEEONSt16remove_referenceIT_E4typeEOS4_(%"struct.std::pair"* dereferenceable(16) %1) #12
  call void @_ZNSt6vectorISt4pairIddESaIS1_EE12emplace_backIJS1_EEEvDpOT_(%"class.std::vector"* %0, %"struct.std::pair"* dereferenceable(16) %3)
  ret void
}

; Function Attrs: noinline uwtable
define linkonce_odr { double, double } @_ZSt9make_pairIRdS0_ESt4pairINSt17__decay_and_stripIT_E6__typeENS2_IT0_E6__typeEEOS3_OS6_(double* dereferenceable(8) %0, double* dereferenceable(8) %1) #0 comdat {
  %3 = alloca %"struct.std::pair", align 8
  %4 = call dereferenceable(8) double* @_ZSt7forwardIRdEOT_RNSt16remove_referenceIS1_E4typeE(double* dereferenceable(8) %0) #12
  %5 = call dereferenceable(8) double* @_ZSt7forwardIRdEOT_RNSt16remove_referenceIS1_E4typeE(double* dereferenceable(8) %1) #12
  call void @_ZNSt4pairIddEC2IRdS2_Lb1EEEOT_OT0_(%"struct.std::pair"* %3, double* dereferenceable(8) %4, double* dereferenceable(8) %5)
  %6 = bitcast %"struct.std::pair"* %3 to { double, double }*
  %7 = load { double, double }, { double, double }* %6, align 8
  ret { double, double } %7
}

declare i32 @__gxx_personality_v0(...)

; Function Attrs: noinline uwtable
define linkonce_odr void @_ZSt4sortIN9__gnu_cxx17__normal_iteratorIPSt4pairIddESt6vectorIS3_SaIS3_EEEEEvT_S9_(%"struct.std::pair"* %0, %"struct.std::pair"* %1) #0 comdat {
  %3 = alloca %"class.__gnu_cxx::__normal_iterator", align 8
  %4 = alloca %"class.__gnu_cxx::__normal_iterator", align 8
  %5 = alloca %"class.__gnu_cxx::__normal_iterator", align 8
  %6 = alloca %"class.__gnu_cxx::__normal_iterator", align 8
  %7 = getelementptr inbounds %"class.__gnu_cxx::__normal_iterator", %"class.__gnu_cxx::__normal_iterator"* %3, i32 0, i32 0
  store %"struct.std::pair"* %0, %"struct.std::pair"** %7, align 8
  %8 = getelementptr inbounds %"class.__gnu_cxx::__normal_iterator", %"class.__gnu_cxx::__normal_iterator"* %4, i32 0, i32 0
  store %"struct.std::pair"* %1, %"struct.std::pair"** %8, align 8
  %9 = bitcast %"class.__gnu_cxx::__normal_iterator"* %5 to i8*
  %10 = bitcast %"class.__gnu_cxx::__normal_iterator"* %3 to i8*
  call void @llvm.memcpy.p0i8.p0i8.i64(i8* align 8 %9, i8* align 8 %10, i64 8, i1 false)
  %11 = bitcast %"class.__gnu_cxx::__normal_iterator"* %6 to i8*
  %12 = bitcast %"class.__gnu_cxx::__normal_iterator"* %4 to i8*
  call void @llvm.memcpy.p0i8.p0i8.i64(i8* align 8 %11, i8* align 8 %12, i64 8, i1 false)
  call void @_ZN9__gnu_cxx5__ops16__iter_less_iterEv()
  %13 = getelementptr inbounds %"class.__gnu_cxx::__normal_iterator", %"class.__gnu_cxx::__normal_iterator"* %5, i32 0, i32 0
  %14 = load %"struct.std::pair"*, %"struct.std::pair"** %13, align 8
  %15 = getelementptr inbounds %"class.__gnu_cxx::__normal_iterator", %"class.__gnu_cxx::__normal_iterator"* %6, i32 0, i32 0
  %16 = load %"struct.std::pair"*, %"struct.std::pair"** %15, align 8
  call void @_ZSt6__sortIN9__gnu_cxx17__normal_iteratorIPSt4pairIddESt6vectorIS3_SaIS3_EEEENS0_5__ops15_Iter_less_iterEEvT_SB_T0_(%"struct.std::pair"* %14, %"struct.std::pair"* %16)
  ret void
}

; Function Attrs: noinline nounwind uwtable
define linkonce_odr %"struct.std::pair"* @_ZNSt6vectorISt4pairIddESaIS1_EE5beginEv(%"class.std::vector"* %0) #1 comdat align 2 {
  %2 = alloca %"class.__gnu_cxx::__normal_iterator", align 8
  %3 = bitcast %"class.std::vector"* %0 to %"struct.std::_Vector_base"*
  %4 = getelementptr inbounds %"struct.std::_Vector_base", %"struct.std::_Vector_base"* %3, i32 0, i32 0
  %5 = getelementptr inbounds %"struct.std::_Vector_base<std::pair<double, double>, std::allocator<std::pair<double, double> > >::_Vector_impl", %"struct.std::_Vector_base<std::pair<double, double>, std::allocator<std::pair<double, double> > >::_Vector_impl"* %4, i32 0, i32 0
  call void @_ZN9__gnu_cxx17__normal_iteratorIPSt4pairIddESt6vectorIS2_SaIS2_EEEC2ERKS3_(%"class.__gnu_cxx::__normal_iterator"* %2, %"struct.std::pair"** dereferenceable(8) %5) #12
  %6 = getelementptr inbounds %"class.__gnu_cxx::__normal_iterator", %"class.__gnu_cxx::__normal_iterator"* %2, i32 0, i32 0
  %7 = load %"struct.std::pair"*, %"struct.std::pair"** %6, align 8
  ret %"struct.std::pair"* %7
}

; Function Attrs: noinline nounwind uwtable
define linkonce_odr %"struct.std::pair"* @_ZNSt6vectorISt4pairIddESaIS1_EE3endEv(%"class.std::vector"* %0) #1 comdat align 2 {
  %2 = alloca %"class.__gnu_cxx::__normal_iterator", align 8
  %3 = bitcast %"class.std::vector"* %0 to %"struct.std::_Vector_base"*
  %4 = getelementptr inbounds %"struct.std::_Vector_base", %"struct.std::_Vector_base"* %3, i32 0, i32 0
  %5 = getelementptr inbounds %"struct.std::_Vector_base<std::pair<double, double>, std::allocator<std::pair<double, double> > >::_Vector_impl", %"struct.std::_Vector_base<std::pair<double, double>, std::allocator<std::pair<double, double> > >::_Vector_impl"* %4, i32 0, i32 1
  call void @_ZN9__gnu_cxx17__normal_iteratorIPSt4pairIddESt6vectorIS2_SaIS2_EEEC2ERKS3_(%"class.__gnu_cxx::__normal_iterator"* %2, %"struct.std::pair"** dereferenceable(8) %5) #12
  %6 = getelementptr inbounds %"class.__gnu_cxx::__normal_iterator", %"class.__gnu_cxx::__normal_iterator"* %2, i32 0, i32 0
  %7 = load %"struct.std::pair"*, %"struct.std::pair"** %6, align 8
  ret %"struct.std::pair"* %7
}

; Function Attrs: noinline uwtable
define linkonce_odr { double, double } @_ZSt9make_pairIdRdESt4pairINSt17__decay_and_stripIT_E6__typeENS2_IT0_E6__typeEEOS3_OS6_(double* dereferenceable(8) %0, double* dereferenceable(8) %1) #0 comdat {
  %3 = alloca %"struct.std::pair", align 8
  %4 = call dereferenceable(8) double* @_ZSt7forwardIdEOT_RNSt16remove_referenceIS0_E4typeE(double* dereferenceable(8) %0) #12
  %5 = call dereferenceable(8) double* @_ZSt7forwardIRdEOT_RNSt16remove_referenceIS1_E4typeE(double* dereferenceable(8) %1) #12
  call void @_ZNSt4pairIddEC2IdRdLb1EEEOT_OT0_(%"struct.std::pair"* %3, double* dereferenceable(8) %4, double* dereferenceable(8) %5)
  %6 = bitcast %"struct.std::pair"* %3 to { double, double }*
  %7 = load { double, double }, { double, double }* %6, align 8
  ret { double, double } %7
}

; Function Attrs: noinline uwtable
define linkonce_odr void @_ZSt4sortIPdEvT_S1_(double* %0, double* %1) #0 comdat {
  call void @_ZN9__gnu_cxx5__ops16__iter_less_iterEv()
  call void @_ZSt6__sortIPdN9__gnu_cxx5__ops15_Iter_less_iterEEvT_S4_T0_(double* %0, double* %1)
  ret void
}

; Function Attrs: noinline nounwind uwtable
define linkonce_odr dereferenceable(16) %"struct.std::pair"* @_ZNSt6vectorISt4pairIddESaIS1_EEixEm(%"class.std::vector"* %0, i64 %1) #1 comdat align 2 {
  %3 = bitcast %"class.std::vector"* %0 to %"struct.std::_Vector_base"*
  %4 = getelementptr inbounds %"struct.std::_Vector_base", %"struct.std::_Vector_base"* %3, i32 0, i32 0
  %5 = getelementptr inbounds %"struct.std::_Vector_base<std::pair<double, double>, std::allocator<std::pair<double, double> > >::_Vector_impl", %"struct.std::_Vector_base<std::pair<double, double>, std::allocator<std::pair<double, double> > >::_Vector_impl"* %4, i32 0, i32 0
  %6 = load %"struct.std::pair"*, %"struct.std::pair"** %5, align 8
  %7 = getelementptr inbounds %"struct.std::pair", %"struct.std::pair"* %6, i64 %1
  ret %"struct.std::pair"* %7
}

; Function Attrs: noinline nounwind uwtable
define linkonce_odr i64 @_ZNKSt6vectorISt4pairIddESaIS1_EE4sizeEv(%"class.std::vector"* %0) #1 comdat align 2 {
  %2 = bitcast %"class.std::vector"* %0 to %"struct.std::_Vector_base"*
  %3 = getelementptr inbounds %"struct.std::_Vector_base", %"struct.std::_Vector_base"* %2, i32 0, i32 0
  %4 = getelementptr inbounds %"struct.std::_Vector_base<std::pair<double, double>, std::allocator<std::pair<double, double> > >::_Vector_impl", %"struct.std::_Vector_base<std::pair<double, double>, std::allocator<std::pair<double, double> > >::_Vector_impl"* %3, i32 0, i32 1
  %5 = load %"struct.std::pair"*, %"struct.std::pair"** %4, align 8
  %6 = bitcast %"class.std::vector"* %0 to %"struct.std::_Vector_base"*
  %7 = getelementptr inbounds %"struct.std::_Vector_base", %"struct.std::_Vector_base"* %6, i32 0, i32 0
  %8 = getelementptr inbounds %"struct.std::_Vector_base<std::pair<double, double>, std::allocator<std::pair<double, double> > >::_Vector_impl", %"struct.std::_Vector_base<std::pair<double, double>, std::allocator<std::pair<double, double> > >::_Vector_impl"* %7, i32 0, i32 0
  %9 = load %"struct.std::pair"*, %"struct.std::pair"** %8, align 8
  %10 = ptrtoint %"struct.std::pair"* %5 to i64
  %11 = ptrtoint %"struct.std::pair"* %9 to i64
  %12 = sub i64 %10, %11
  %13 = sdiv exact i64 %12, 16
  ret i64 %13
}

; Function Attrs: noinline uwtable
define linkonce_odr double* @_ZSt11lower_boundIPddET_S1_S1_RKT0_(double* %0, double* %1, double* dereferenceable(8) %2) #0 comdat {
  call void @_ZN9__gnu_cxx5__ops15__iter_less_valEv()
  %4 = call double* @_ZSt13__lower_boundIPddN9__gnu_cxx5__ops14_Iter_less_valEET_S4_S4_RKT0_T1_(double* %0, double* %1, double* dereferenceable(8) %2)
  ret double* %4
}

; Function Attrs: noinline nounwind uwtable
define linkonce_odr void @_ZNSt6vectorISt4pairIddESaIS1_EED2Ev(%"class.std::vector"* %0) unnamed_addr #1 comdat align 2 personality i8* bitcast (i32 (...)* @__gxx_personality_v0 to i8*) {
  %2 = bitcast %"class.std::vector"* %0 to %"struct.std::_Vector_base"*
  %3 = getelementptr inbounds %"struct.std::_Vector_base", %"struct.std::_Vector_base"* %2, i32 0, i32 0
  %4 = getelementptr inbounds %"struct.std::_Vector_base<std::pair<double, double>, std::allocator<std::pair<double, double> > >::_Vector_impl", %"struct.std::_Vector_base<std::pair<double, double>, std::allocator<std::pair<double, double> > >::_Vector_impl"* %3, i32 0, i32 0
  %5 = load %"struct.std::pair"*, %"struct.std::pair"** %4, align 8
  %6 = bitcast %"class.std::vector"* %0 to %"struct.std::_Vector_base"*
  %7 = getelementptr inbounds %"struct.std::_Vector_base", %"struct.std::_Vector_base"* %6, i32 0, i32 0
  %8 = getelementptr inbounds %"struct.std::_Vector_base<std::pair<double, double>, std::allocator<std::pair<double, double> > >::_Vector_impl", %"struct.std::_Vector_base<std::pair<double, double>, std::allocator<std::pair<double, double> > >::_Vector_impl"* %7, i32 0, i32 1
  %9 = load %"struct.std::pair"*, %"struct.std::pair"** %8, align 8
  %10 = bitcast %"class.std::vector"* %0 to %"struct.std::_Vector_base"*
  %11 = call dereferenceable(1) %"class.std::allocator"* @_ZNSt12_Vector_baseISt4pairIddESaIS1_EE19_M_get_Tp_allocatorEv(%"struct.std::_Vector_base"* %10) #12
  invoke void @_ZSt8_DestroyIPSt4pairIddES1_EvT_S3_RSaIT0_E(%"struct.std::pair"* %5, %"struct.std::pair"* %9, %"class.std::allocator"* dereferenceable(1) %11)
          to label %12 unwind label %14

12:                                               ; preds = %1
  %13 = bitcast %"class.std::vector"* %0 to %"struct.std::_Vector_base"*
  call void @_ZNSt12_Vector_baseISt4pairIddESaIS1_EED2Ev(%"struct.std::_Vector_base"* %13) #12
  ret void

14:                                               ; preds = %1
  %15 = landingpad { i8*, i32 }
          catch i8* null
  %16 = extractvalue { i8*, i32 } %15, 0
  %17 = extractvalue { i8*, i32 } %15, 1
  %18 = bitcast %"class.std::vector"* %0 to %"struct.std::_Vector_base"*
  call void @_ZNSt12_Vector_baseISt4pairIddESaIS1_EED2Ev(%"struct.std::_Vector_base"* %18) #12
  br label %19

19:                                               ; preds = %14
  call void @__clang_call_terminate(i8* %16) #13
  unreachable
}

; Function Attrs: noinline nounwind uwtable
define linkonce_odr dereferenceable(8) double* @_ZSt7forwardIRdEOT_RNSt16remove_referenceIS1_E4typeE(double* dereferenceable(8) %0) #1 comdat {
  ret double* %0
}

; Function Attrs: noinline nounwind uwtable
define linkonce_odr void @_ZNSt4pairIddEC2IRdS2_Lb1EEEOT_OT0_(%"struct.std::pair"* %0, double* dereferenceable(8) %1, double* dereferenceable(8) %2) unnamed_addr #1 comdat align 2 {
  %4 = bitcast %"struct.std::pair"* %0 to %"class.std::__pair_base"*
  %5 = getelementptr inbounds %"struct.std::pair", %"struct.std::pair"* %0, i32 0, i32 0
  %6 = call dereferenceable(8) double* @_ZSt7forwardIRdEOT_RNSt16remove_referenceIS1_E4typeE(double* dereferenceable(8) %1) #12
  %7 = load double, double* %6, align 8
  store double %7, double* %5, align 8
  %8 = getelementptr inbounds %"struct.std::pair", %"struct.std::pair"* %0, i32 0, i32 1
  %9 = call dereferenceable(8) double* @_ZSt7forwardIRdEOT_RNSt16remove_referenceIS1_E4typeE(double* dereferenceable(8) %2) #12
  %10 = load double, double* %9, align 8
  store double %10, double* %8, align 8
  ret void
}

; Function Attrs: noinline nounwind uwtable
define linkonce_odr dereferenceable(8) double* @_ZSt7forwardIdEOT_RNSt16remove_referenceIS0_E4typeE(double* dereferenceable(8) %0) #1 comdat {
  ret double* %0
}

; Function Attrs: noinline nounwind uwtable
define linkonce_odr void @_ZNSt4pairIddEC2IdRdLb1EEEOT_OT0_(%"struct.std::pair"* %0, double* dereferenceable(8) %1, double* dereferenceable(8) %2) unnamed_addr #1 comdat align 2 {
  %4 = bitcast %"struct.std::pair"* %0 to %"class.std::__pair_base"*
  %5 = getelementptr inbounds %"struct.std::pair", %"struct.std::pair"* %0, i32 0, i32 0
  %6 = call dereferenceable(8) double* @_ZSt7forwardIdEOT_RNSt16remove_referenceIS0_E4typeE(double* dereferenceable(8) %1) #12
  %7 = load double, double* %6, align 8
  store double %7, double* %5, align 8
  %8 = getelementptr inbounds %"struct.std::pair", %"struct.std::pair"* %0, i32 0, i32 1
  %9 = call dereferenceable(8) double* @_ZSt7forwardIRdEOT_RNSt16remove_referenceIS1_E4typeE(double* dereferenceable(8) %2) #12
  %10 = load double, double* %9, align 8
  store double %10, double* %8, align 8
  ret void
}

; Function Attrs: noinline nounwind uwtable
define linkonce_odr dereferenceable(16) %"struct.std::complex"* @_ZNSt7complexIdEmLEd(%"struct.std::complex"* %0, double %1) #1 comdat align 2 {
  %3 = getelementptr inbounds %"struct.std::complex", %"struct.std::complex"* %0, i32 0, i32 0
  %4 = getelementptr inbounds { double, double }, { double, double }* %3, i32 0, i32 0
  %5 = load double, double* %4, align 8
  %6 = getelementptr inbounds { double, double }, { double, double }* %3, i32 0, i32 1
  %7 = load double, double* %6, align 8
  %8 = fmul double %5, %1
  %9 = fmul double %7, %1
  %10 = getelementptr inbounds { double, double }, { double, double }* %3, i32 0, i32 0
  %11 = getelementptr inbounds { double, double }, { double, double }* %3, i32 0, i32 1
  store double %8, double* %10, align 8
  store double %9, double* %11, align 8
  ret %"struct.std::complex"* %0
}

; Function Attrs: noinline nounwind uwtable
define linkonce_odr { double, double } @_ZSt13__complex_expCd(double %0, double %1) #1 comdat {
  %3 = alloca { double, double }, align 8
  %4 = alloca { double, double }, align 8
  %5 = alloca { double, double }, align 8
  %6 = getelementptr inbounds { double, double }, { double, double }* %4, i32 0, i32 0
  store double %0, double* %6, align 8
  %7 = getelementptr inbounds { double, double }, { double, double }* %4, i32 0, i32 1
  store double %1, double* %7, align 8
  %8 = getelementptr inbounds { double, double }, { double, double }* %4, i32 0, i32 0
  %9 = load double, double* %8, align 8
  %10 = getelementptr inbounds { double, double }, { double, double }* %4, i32 0, i32 1
  %11 = load double, double* %10, align 8
  %12 = getelementptr inbounds { double, double }, { double, double }* %5, i32 0, i32 0
  %13 = getelementptr inbounds { double, double }, { double, double }* %5, i32 0, i32 1
  store double %9, double* %12, align 8
  store double %11, double* %13, align 8
  %14 = getelementptr inbounds { double, double }, { double, double }* %5, i32 0, i32 0
  %15 = load double, double* %14, align 8
  %16 = getelementptr inbounds { double, double }, { double, double }* %5, i32 0, i32 1
  %17 = load double, double* %16, align 8
  %18 = call { double, double } @cexp(double %15, double %17) #12
  %19 = extractvalue { double, double } %18, 0
  %20 = extractvalue { double, double } %18, 1
  %21 = getelementptr inbounds { double, double }, { double, double }* %3, i32 0, i32 0
  %22 = getelementptr inbounds { double, double }, { double, double }* %3, i32 0, i32 1
  store double %19, double* %21, align 8
  store double %20, double* %22, align 8
  %23 = load { double, double }, { double, double }* %3, align 8
  ret { double, double } %23
}

; Function Attrs: noinline nounwind uwtable
define linkonce_odr { double, double } @_ZNKSt7complexIdE5__repEv(%"struct.std::complex"* %0) #1 comdat align 2 {
  %2 = alloca { double, double }, align 8
  %3 = getelementptr inbounds %"struct.std::complex", %"struct.std::complex"* %0, i32 0, i32 0
  %4 = getelementptr inbounds { double, double }, { double, double }* %3, i32 0, i32 0
  %5 = load double, double* %4, align 8
  %6 = getelementptr inbounds { double, double }, { double, double }* %3, i32 0, i32 1
  %7 = load double, double* %6, align 8
  %8 = getelementptr inbounds { double, double }, { double, double }* %2, i32 0, i32 0
  %9 = getelementptr inbounds { double, double }, { double, double }* %2, i32 0, i32 1
  store double %5, double* %8, align 8
  store double %7, double* %9, align 8
  %10 = load { double, double }, { double, double }* %2, align 8
  ret { double, double } %10
}

; Function Attrs: noinline nounwind uwtable
define linkonce_odr void @_ZNSt7complexIdEC2ECd(%"struct.std::complex"* %0, double %1, double %2) unnamed_addr #1 comdat align 2 {
  %4 = alloca { double, double }, align 8
  %5 = getelementptr inbounds { double, double }, { double, double }* %4, i32 0, i32 0
  store double %1, double* %5, align 8
  %6 = getelementptr inbounds { double, double }, { double, double }* %4, i32 0, i32 1
  store double %2, double* %6, align 8
  %7 = getelementptr inbounds %"struct.std::complex", %"struct.std::complex"* %0, i32 0, i32 0
  %8 = getelementptr inbounds { double, double }, { double, double }* %4, i32 0, i32 0
  %9 = load double, double* %8, align 8
  %10 = getelementptr inbounds { double, double }, { double, double }* %4, i32 0, i32 1
  %11 = load double, double* %10, align 8
  %12 = getelementptr inbounds { double, double }, { double, double }* %7, i32 0, i32 0
  %13 = getelementptr inbounds { double, double }, { double, double }* %7, i32 0, i32 1
  store double %9, double* %12, align 8
  store double %11, double* %13, align 8
  ret void
}

; Function Attrs: nounwind
declare { double, double } @cexp(double, double) #2

; Function Attrs: noinline uwtable
define linkonce_odr dereferenceable(16) %"struct.std::complex"* @_ZNSt7complexIdEmIIdEERS0_RKS_IT_E(%"struct.std::complex"* %0, %"struct.std::complex"* dereferenceable(16) %1) #0 comdat align 2 {
  %3 = call double @_ZNKSt7complexIdE4realB5cxx11Ev(%"struct.std::complex"* %1)
  %4 = getelementptr inbounds %"struct.std::complex", %"struct.std::complex"* %0, i32 0, i32 0
  %5 = getelementptr inbounds { double, double }, { double, double }* %4, i32 0, i32 0
  %6 = load double, double* %5, align 8
  %7 = fsub double %6, %3
  store double %7, double* %5, align 8
  %8 = call double @_ZNKSt7complexIdE4imagB5cxx11Ev(%"struct.std::complex"* %1)
  %9 = getelementptr inbounds %"struct.std::complex", %"struct.std::complex"* %0, i32 0, i32 0
  %10 = getelementptr inbounds { double, double }, { double, double }* %9, i32 0, i32 1
  %11 = load double, double* %10, align 8
  %12 = fsub double %11, %8
  store double %12, double* %10, align 8
  ret %"struct.std::complex"* %0
}

; Function Attrs: noinline nounwind uwtable
define linkonce_odr double @_ZNKSt7complexIdE4imagB5cxx11Ev(%"struct.std::complex"* %0) #1 comdat align 2 {
  %2 = getelementptr inbounds %"struct.std::complex", %"struct.std::complex"* %0, i32 0, i32 0
  %3 = getelementptr inbounds { double, double }, { double, double }* %2, i32 0, i32 1
  %4 = load double, double* %3, align 8
  ret double %4
}

; Function Attrs: noinline nounwind uwtable
define linkonce_odr dereferenceable(16) %"struct.std::complex"* @_ZNSt7complexIdEmLIdEERS0_RKS_IT_E(%"struct.std::complex"* %0, %"struct.std::complex"* dereferenceable(16) %1) #1 comdat align 2 {
  %3 = alloca { double, double }, align 8
  %4 = call double @_ZNKSt7complexIdE4realB5cxx11Ev(%"struct.std::complex"* %1)
  %5 = getelementptr inbounds { double, double }, { double, double }* %3, i32 0, i32 0
  store double %4, double* %5, align 8
  %6 = call double @_ZNKSt7complexIdE4imagB5cxx11Ev(%"struct.std::complex"* %1)
  %7 = getelementptr inbounds { double, double }, { double, double }* %3, i32 0, i32 1
  store double %6, double* %7, align 8
  %8 = getelementptr inbounds { double, double }, { double, double }* %3, i32 0, i32 0
  %9 = load double, double* %8, align 8
  %10 = getelementptr inbounds { double, double }, { double, double }* %3, i32 0, i32 1
  %11 = load double, double* %10, align 8
  %12 = getelementptr inbounds %"struct.std::complex", %"struct.std::complex"* %0, i32 0, i32 0
  %13 = getelementptr inbounds { double, double }, { double, double }* %12, i32 0, i32 0
  %14 = load double, double* %13, align 8
  %15 = getelementptr inbounds { double, double }, { double, double }* %12, i32 0, i32 1
  %16 = load double, double* %15, align 8
  %17 = fmul double %14, %9
  %18 = fmul double %16, %11
  %19 = fmul double %14, %11
  %20 = fmul double %16, %9
  %21 = fsub double %17, %18
  %22 = fadd double %19, %20
  %23 = fcmp uno double %21, %21
  br i1 %23, label %24, label %30, !prof !2

24:                                               ; preds = %2
  %25 = fcmp uno double %22, %22
  br i1 %25, label %26, label %30, !prof !2

26:                                               ; preds = %24
  %27 = call { double, double } @__muldc3(double %14, double %16, double %9, double %11) #12
  %28 = extractvalue { double, double } %27, 0
  %29 = extractvalue { double, double } %27, 1
  br label %30

30:                                               ; preds = %26, %24, %2
  %31 = phi double [ %21, %2 ], [ %21, %24 ], [ %28, %26 ]
  %32 = phi double [ %22, %2 ], [ %22, %24 ], [ %29, %26 ]
  %33 = getelementptr inbounds { double, double }, { double, double }* %12, i32 0, i32 0
  %34 = getelementptr inbounds { double, double }, { double, double }* %12, i32 0, i32 1
  store double %31, double* %33, align 8
  store double %32, double* %34, align 8
  ret %"struct.std::complex"* %0
}

declare { double, double } @__muldc3(double, double, double, double)

; Function Attrs: noinline nounwind uwtable
define linkonce_odr dereferenceable(16) %"struct.std::complex"* @_ZSt4moveIRSt7complexIdEEONSt16remove_referenceIT_E4typeEOS4_(%"struct.std::complex"* dereferenceable(16) %0) #1 comdat {
  ret %"struct.std::complex"* %0
}

; Function Attrs: noinline nounwind uwtable
define linkonce_odr dereferenceable(16) %"struct.std::complex"* @_ZNSt7complexIdEdVEd(%"struct.std::complex"* %0, double %1) #1 comdat align 2 {
  %3 = getelementptr inbounds %"struct.std::complex", %"struct.std::complex"* %0, i32 0, i32 0
  %4 = getelementptr inbounds { double, double }, { double, double }* %3, i32 0, i32 0
  %5 = load double, double* %4, align 8
  %6 = getelementptr inbounds { double, double }, { double, double }* %3, i32 0, i32 1
  %7 = load double, double* %6, align 8
  %8 = fdiv double %5, %1
  %9 = fdiv double %7, %1
  %10 = getelementptr inbounds { double, double }, { double, double }* %3, i32 0, i32 0
  %11 = getelementptr inbounds { double, double }, { double, double }* %3, i32 0, i32 1
  store double %8, double* %10, align 8
  store double %9, double* %11, align 8
  ret %"struct.std::complex"* %0
}

; Function Attrs: noinline nounwind uwtable
define linkonce_odr dereferenceable(8) double* @_ZSt4moveIRdEONSt16remove_referenceIT_E4typeEOS2_(double* dereferenceable(8) %0) #1 comdat {
  ret double* %0
}

; Function Attrs: noinline nounwind uwtable
define linkonce_odr dereferenceable(4) i32* @_ZSt4moveIRiEONSt16remove_referenceIT_E4typeEOS2_(i32* dereferenceable(4) %0) #1 comdat {
  ret i32* %0
}

; Function Attrs: noinline uwtable
define linkonce_odr void @_ZNSt12_Vector_baseISt4pairIddESaIS1_EEC2Ev(%"struct.std::_Vector_base"* %0) unnamed_addr #0 comdat align 2 {
  %2 = getelementptr inbounds %"struct.std::_Vector_base", %"struct.std::_Vector_base"* %0, i32 0, i32 0
  call void @_ZNSt12_Vector_baseISt4pairIddESaIS1_EE12_Vector_implC2Ev(%"struct.std::_Vector_base<std::pair<double, double>, std::allocator<std::pair<double, double> > >::_Vector_impl"* %2)
  ret void
}

; Function Attrs: noinline noreturn nounwind
define linkonce_odr hidden void @__clang_call_terminate(i8* %0) #5 comdat {
  %2 = call i8* @__cxa_begin_catch(i8* %0) #12
  call void @_ZSt9terminatev() #13
  unreachable
}

declare i8* @__cxa_begin_catch(i8*)

declare void @_ZSt9terminatev()

; Function Attrs: noinline nounwind uwtable
define linkonce_odr void @_ZNSt12_Vector_baseISt4pairIddESaIS1_EE12_Vector_implC2Ev(%"struct.std::_Vector_base<std::pair<double, double>, std::allocator<std::pair<double, double> > >::_Vector_impl"* %0) unnamed_addr #1 comdat align 2 {
  %2 = bitcast %"struct.std::_Vector_base<std::pair<double, double>, std::allocator<std::pair<double, double> > >::_Vector_impl"* %0 to %"class.std::allocator"*
  call void @_ZNSaISt4pairIddEEC2Ev(%"class.std::allocator"* %2) #12
  %3 = getelementptr inbounds %"struct.std::_Vector_base<std::pair<double, double>, std::allocator<std::pair<double, double> > >::_Vector_impl", %"struct.std::_Vector_base<std::pair<double, double>, std::allocator<std::pair<double, double> > >::_Vector_impl"* %0, i32 0, i32 0
  store %"struct.std::pair"* null, %"struct.std::pair"** %3, align 8
  %4 = getelementptr inbounds %"struct.std::_Vector_base<std::pair<double, double>, std::allocator<std::pair<double, double> > >::_Vector_impl", %"struct.std::_Vector_base<std::pair<double, double>, std::allocator<std::pair<double, double> > >::_Vector_impl"* %0, i32 0, i32 1
  store %"struct.std::pair"* null, %"struct.std::pair"** %4, align 8
  %5 = getelementptr inbounds %"struct.std::_Vector_base<std::pair<double, double>, std::allocator<std::pair<double, double> > >::_Vector_impl", %"struct.std::_Vector_base<std::pair<double, double>, std::allocator<std::pair<double, double> > >::_Vector_impl"* %0, i32 0, i32 2
  store %"struct.std::pair"* null, %"struct.std::pair"** %5, align 8
  ret void
}

; Function Attrs: noinline nounwind uwtable
define linkonce_odr void @_ZNSaISt4pairIddEEC2Ev(%"class.std::allocator"* %0) unnamed_addr #1 comdat align 2 {
  %2 = bitcast %"class.std::allocator"* %0 to %"class.__gnu_cxx::new_allocator"*
  call void @_ZN9__gnu_cxx13new_allocatorISt4pairIddEEC2Ev(%"class.__gnu_cxx::new_allocator"* %2) #12
  ret void
}

; Function Attrs: noinline nounwind uwtable
define linkonce_odr void @_ZN9__gnu_cxx13new_allocatorISt4pairIddEEC2Ev(%"class.__gnu_cxx::new_allocator"* %0) unnamed_addr #1 comdat align 2 {
  ret void
}

; Function Attrs: noinline uwtable
define linkonce_odr void @_ZSt8_DestroyIPSt4pairIddES1_EvT_S3_RSaIT0_E(%"struct.std::pair"* %0, %"struct.std::pair"* %1, %"class.std::allocator"* dereferenceable(1) %2) #0 comdat {
  call void @_ZSt8_DestroyIPSt4pairIddEEvT_S3_(%"struct.std::pair"* %0, %"struct.std::pair"* %1)
  ret void
}

; Function Attrs: noinline nounwind uwtable
define linkonce_odr dereferenceable(1) %"class.std::allocator"* @_ZNSt12_Vector_baseISt4pairIddESaIS1_EE19_M_get_Tp_allocatorEv(%"struct.std::_Vector_base"* %0) #1 comdat align 2 {
  %2 = getelementptr inbounds %"struct.std::_Vector_base", %"struct.std::_Vector_base"* %0, i32 0, i32 0
  %3 = bitcast %"struct.std::_Vector_base<std::pair<double, double>, std::allocator<std::pair<double, double> > >::_Vector_impl"* %2 to %"class.std::allocator"*
  ret %"class.std::allocator"* %3
}

; Function Attrs: noinline nounwind uwtable
define linkonce_odr void @_ZNSt12_Vector_baseISt4pairIddESaIS1_EED2Ev(%"struct.std::_Vector_base"* %0) unnamed_addr #1 comdat align 2 personality i8* bitcast (i32 (...)* @__gxx_personality_v0 to i8*) {
  %2 = getelementptr inbounds %"struct.std::_Vector_base", %"struct.std::_Vector_base"* %0, i32 0, i32 0
  %3 = getelementptr inbounds %"struct.std::_Vector_base<std::pair<double, double>, std::allocator<std::pair<double, double> > >::_Vector_impl", %"struct.std::_Vector_base<std::pair<double, double>, std::allocator<std::pair<double, double> > >::_Vector_impl"* %2, i32 0, i32 0
  %4 = load %"struct.std::pair"*, %"struct.std::pair"** %3, align 8
  %5 = getelementptr inbounds %"struct.std::_Vector_base", %"struct.std::_Vector_base"* %0, i32 0, i32 0
  %6 = getelementptr inbounds %"struct.std::_Vector_base<std::pair<double, double>, std::allocator<std::pair<double, double> > >::_Vector_impl", %"struct.std::_Vector_base<std::pair<double, double>, std::allocator<std::pair<double, double> > >::_Vector_impl"* %5, i32 0, i32 2
  %7 = load %"struct.std::pair"*, %"struct.std::pair"** %6, align 8
  %8 = getelementptr inbounds %"struct.std::_Vector_base", %"struct.std::_Vector_base"* %0, i32 0, i32 0
  %9 = getelementptr inbounds %"struct.std::_Vector_base<std::pair<double, double>, std::allocator<std::pair<double, double> > >::_Vector_impl", %"struct.std::_Vector_base<std::pair<double, double>, std::allocator<std::pair<double, double> > >::_Vector_impl"* %8, i32 0, i32 0
  %10 = load %"struct.std::pair"*, %"struct.std::pair"** %9, align 8
  %11 = ptrtoint %"struct.std::pair"* %7 to i64
  %12 = ptrtoint %"struct.std::pair"* %10 to i64
  %13 = sub i64 %11, %12
  %14 = sdiv exact i64 %13, 16
  invoke void @_ZNSt12_Vector_baseISt4pairIddESaIS1_EE13_M_deallocateEPS1_m(%"struct.std::_Vector_base"* %0, %"struct.std::pair"* %4, i64 %14)
          to label %15 unwind label %17

15:                                               ; preds = %1
  %16 = getelementptr inbounds %"struct.std::_Vector_base", %"struct.std::_Vector_base"* %0, i32 0, i32 0
  call void @_ZNSt12_Vector_baseISt4pairIddESaIS1_EE12_Vector_implD2Ev(%"struct.std::_Vector_base<std::pair<double, double>, std::allocator<std::pair<double, double> > >::_Vector_impl"* %16) #12
  ret void

17:                                               ; preds = %1
  %18 = landingpad { i8*, i32 }
          catch i8* null
  %19 = extractvalue { i8*, i32 } %18, 0
  %20 = extractvalue { i8*, i32 } %18, 1
  %21 = getelementptr inbounds %"struct.std::_Vector_base", %"struct.std::_Vector_base"* %0, i32 0, i32 0
  call void @_ZNSt12_Vector_baseISt4pairIddESaIS1_EE12_Vector_implD2Ev(%"struct.std::_Vector_base<std::pair<double, double>, std::allocator<std::pair<double, double> > >::_Vector_impl"* %21) #12
  br label %22

22:                                               ; preds = %17
  call void @__clang_call_terminate(i8* %19) #13
  unreachable
}

; Function Attrs: noinline uwtable
define linkonce_odr void @_ZSt8_DestroyIPSt4pairIddEEvT_S3_(%"struct.std::pair"* %0, %"struct.std::pair"* %1) #0 comdat {
  call void @_ZNSt12_Destroy_auxILb1EE9__destroyIPSt4pairIddEEEvT_S5_(%"struct.std::pair"* %0, %"struct.std::pair"* %1)
  ret void
}

; Function Attrs: noinline nounwind uwtable
define linkonce_odr void @_ZNSt12_Destroy_auxILb1EE9__destroyIPSt4pairIddEEEvT_S5_(%"struct.std::pair"* %0, %"struct.std::pair"* %1) #1 comdat align 2 {
  ret void
}

; Function Attrs: noinline uwtable
define linkonce_odr void @_ZNSt12_Vector_baseISt4pairIddESaIS1_EE13_M_deallocateEPS1_m(%"struct.std::_Vector_base"* %0, %"struct.std::pair"* %1, i64 %2) #0 comdat align 2 {
  %4 = icmp ne %"struct.std::pair"* %1, null
  br i1 %4, label %5, label %8

5:                                                ; preds = %3
  %6 = getelementptr inbounds %"struct.std::_Vector_base", %"struct.std::_Vector_base"* %0, i32 0, i32 0
  %7 = bitcast %"struct.std::_Vector_base<std::pair<double, double>, std::allocator<std::pair<double, double> > >::_Vector_impl"* %6 to %"class.std::allocator"*
  call void @_ZNSt16allocator_traitsISaISt4pairIddEEE10deallocateERS2_PS1_m(%"class.std::allocator"* dereferenceable(1) %7, %"struct.std::pair"* %1, i64 %2)
  br label %8

8:                                                ; preds = %5, %3
  ret void
}

; Function Attrs: noinline nounwind uwtable
define linkonce_odr void @_ZNSt12_Vector_baseISt4pairIddESaIS1_EE12_Vector_implD2Ev(%"struct.std::_Vector_base<std::pair<double, double>, std::allocator<std::pair<double, double> > >::_Vector_impl"* %0) unnamed_addr #1 comdat align 2 {
  %2 = bitcast %"struct.std::_Vector_base<std::pair<double, double>, std::allocator<std::pair<double, double> > >::_Vector_impl"* %0 to %"class.std::allocator"*
  call void @_ZNSaISt4pairIddEED2Ev(%"class.std::allocator"* %2) #12
  ret void
}

; Function Attrs: noinline uwtable
define linkonce_odr void @_ZNSt16allocator_traitsISaISt4pairIddEEE10deallocateERS2_PS1_m(%"class.std::allocator"* dereferenceable(1) %0, %"struct.std::pair"* %1, i64 %2) #0 comdat align 2 {
  %4 = bitcast %"class.std::allocator"* %0 to %"class.__gnu_cxx::new_allocator"*
  call void @_ZN9__gnu_cxx13new_allocatorISt4pairIddEE10deallocateEPS2_m(%"class.__gnu_cxx::new_allocator"* %4, %"struct.std::pair"* %1, i64 %2)
  ret void
}

; Function Attrs: noinline nounwind uwtable
define linkonce_odr void @_ZN9__gnu_cxx13new_allocatorISt4pairIddEE10deallocateEPS2_m(%"class.__gnu_cxx::new_allocator"* %0, %"struct.std::pair"* %1, i64 %2) #1 comdat align 2 {
  %4 = bitcast %"struct.std::pair"* %1 to i8*
  call void @_ZdlPv(i8* %4) #12
  ret void
}

; Function Attrs: nobuiltin nounwind
declare void @_ZdlPv(i8*) #6

; Function Attrs: noinline nounwind uwtable
define linkonce_odr void @_ZNSaISt4pairIddEED2Ev(%"class.std::allocator"* %0) unnamed_addr #1 comdat align 2 {
  %2 = bitcast %"class.std::allocator"* %0 to %"class.__gnu_cxx::new_allocator"*
  call void @_ZN9__gnu_cxx13new_allocatorISt4pairIddEED2Ev(%"class.__gnu_cxx::new_allocator"* %2) #12
  ret void
}

; Function Attrs: noinline nounwind uwtable
define linkonce_odr void @_ZN9__gnu_cxx13new_allocatorISt4pairIddEED2Ev(%"class.__gnu_cxx::new_allocator"* %0) unnamed_addr #1 comdat align 2 {
  ret void
}

; Function Attrs: noinline uwtable
define linkonce_odr void @_ZNSt6vectorISt4pairIddESaIS1_EE12emplace_backIJS1_EEEvDpOT_(%"class.std::vector"* %0, %"struct.std::pair"* dereferenceable(16) %1) #0 comdat align 2 {
  %3 = alloca %"class.__gnu_cxx::__normal_iterator", align 8
  %4 = bitcast %"class.std::vector"* %0 to %"struct.std::_Vector_base"*
  %5 = getelementptr inbounds %"struct.std::_Vector_base", %"struct.std::_Vector_base"* %4, i32 0, i32 0
  %6 = getelementptr inbounds %"struct.std::_Vector_base<std::pair<double, double>, std::allocator<std::pair<double, double> > >::_Vector_impl", %"struct.std::_Vector_base<std::pair<double, double>, std::allocator<std::pair<double, double> > >::_Vector_impl"* %5, i32 0, i32 1
  %7 = load %"struct.std::pair"*, %"struct.std::pair"** %6, align 8
  %8 = bitcast %"class.std::vector"* %0 to %"struct.std::_Vector_base"*
  %9 = getelementptr inbounds %"struct.std::_Vector_base", %"struct.std::_Vector_base"* %8, i32 0, i32 0
  %10 = getelementptr inbounds %"struct.std::_Vector_base<std::pair<double, double>, std::allocator<std::pair<double, double> > >::_Vector_impl", %"struct.std::_Vector_base<std::pair<double, double>, std::allocator<std::pair<double, double> > >::_Vector_impl"* %9, i32 0, i32 2
  %11 = load %"struct.std::pair"*, %"struct.std::pair"** %10, align 8
  %12 = icmp ne %"struct.std::pair"* %7, %11
  br i1 %12, label %13, label %27

13:                                               ; preds = %2
  %14 = bitcast %"class.std::vector"* %0 to %"struct.std::_Vector_base"*
  %15 = getelementptr inbounds %"struct.std::_Vector_base", %"struct.std::_Vector_base"* %14, i32 0, i32 0
  %16 = bitcast %"struct.std::_Vector_base<std::pair<double, double>, std::allocator<std::pair<double, double> > >::_Vector_impl"* %15 to %"class.std::allocator"*
  %17 = bitcast %"class.std::vector"* %0 to %"struct.std::_Vector_base"*
  %18 = getelementptr inbounds %"struct.std::_Vector_base", %"struct.std::_Vector_base"* %17, i32 0, i32 0
  %19 = getelementptr inbounds %"struct.std::_Vector_base<std::pair<double, double>, std::allocator<std::pair<double, double> > >::_Vector_impl", %"struct.std::_Vector_base<std::pair<double, double>, std::allocator<std::pair<double, double> > >::_Vector_impl"* %18, i32 0, i32 1
  %20 = load %"struct.std::pair"*, %"struct.std::pair"** %19, align 8
  %21 = call dereferenceable(16) %"struct.std::pair"* @_ZSt7forwardISt4pairIddEEOT_RNSt16remove_referenceIS2_E4typeE(%"struct.std::pair"* dereferenceable(16) %1) #12
  call void @_ZNSt16allocator_traitsISaISt4pairIddEEE9constructIS1_JS1_EEEvRS2_PT_DpOT0_(%"class.std::allocator"* dereferenceable(1) %16, %"struct.std::pair"* %20, %"struct.std::pair"* dereferenceable(16) %21)
  %22 = bitcast %"class.std::vector"* %0 to %"struct.std::_Vector_base"*
  %23 = getelementptr inbounds %"struct.std::_Vector_base", %"struct.std::_Vector_base"* %22, i32 0, i32 0
  %24 = getelementptr inbounds %"struct.std::_Vector_base<std::pair<double, double>, std::allocator<std::pair<double, double> > >::_Vector_impl", %"struct.std::_Vector_base<std::pair<double, double>, std::allocator<std::pair<double, double> > >::_Vector_impl"* %23, i32 0, i32 1
  %25 = load %"struct.std::pair"*, %"struct.std::pair"** %24, align 8
  %26 = getelementptr inbounds %"struct.std::pair", %"struct.std::pair"* %25, i32 1
  store %"struct.std::pair"* %26, %"struct.std::pair"** %24, align 8
  br label %33

27:                                               ; preds = %2
  %28 = call %"struct.std::pair"* @_ZNSt6vectorISt4pairIddESaIS1_EE3endEv(%"class.std::vector"* %0) #12
  %29 = getelementptr inbounds %"class.__gnu_cxx::__normal_iterator", %"class.__gnu_cxx::__normal_iterator"* %3, i32 0, i32 0
  store %"struct.std::pair"* %28, %"struct.std::pair"** %29, align 8
  %30 = call dereferenceable(16) %"struct.std::pair"* @_ZSt7forwardISt4pairIddEEOT_RNSt16remove_referenceIS2_E4typeE(%"struct.std::pair"* dereferenceable(16) %1) #12
  %31 = getelementptr inbounds %"class.__gnu_cxx::__normal_iterator", %"class.__gnu_cxx::__normal_iterator"* %3, i32 0, i32 0
  %32 = load %"struct.std::pair"*, %"struct.std::pair"** %31, align 8
  call void @_ZNSt6vectorISt4pairIddESaIS1_EE17_M_realloc_insertIJS1_EEEvN9__gnu_cxx17__normal_iteratorIPS1_S3_EEDpOT_(%"class.std::vector"* %0, %"struct.std::pair"* %32, %"struct.std::pair"* dereferenceable(16) %30)
  br label %33

33:                                               ; preds = %27, %13
  ret void
}

; Function Attrs: noinline nounwind uwtable
define linkonce_odr dereferenceable(16) %"struct.std::pair"* @_ZSt4moveIRSt4pairIddEEONSt16remove_referenceIT_E4typeEOS4_(%"struct.std::pair"* dereferenceable(16) %0) #1 comdat {
  ret %"struct.std::pair"* %0
}

; Function Attrs: noinline uwtable
define linkonce_odr void @_ZNSt16allocator_traitsISaISt4pairIddEEE9constructIS1_JS1_EEEvRS2_PT_DpOT0_(%"class.std::allocator"* dereferenceable(1) %0, %"struct.std::pair"* %1, %"struct.std::pair"* dereferenceable(16) %2) #0 comdat align 2 {
  %4 = bitcast %"class.std::allocator"* %0 to %"class.__gnu_cxx::new_allocator"*
  %5 = call dereferenceable(16) %"struct.std::pair"* @_ZSt7forwardISt4pairIddEEOT_RNSt16remove_referenceIS2_E4typeE(%"struct.std::pair"* dereferenceable(16) %2) #12
  call void @_ZN9__gnu_cxx13new_allocatorISt4pairIddEE9constructIS2_JS2_EEEvPT_DpOT0_(%"class.__gnu_cxx::new_allocator"* %4, %"struct.std::pair"* %1, %"struct.std::pair"* dereferenceable(16) %5)
  ret void
}

; Function Attrs: noinline nounwind uwtable
define linkonce_odr dereferenceable(16) %"struct.std::pair"* @_ZSt7forwardISt4pairIddEEOT_RNSt16remove_referenceIS2_E4typeE(%"struct.std::pair"* dereferenceable(16) %0) #1 comdat {
  ret %"struct.std::pair"* %0
}

; Function Attrs: noinline uwtable
define linkonce_odr void @_ZNSt6vectorISt4pairIddESaIS1_EE17_M_realloc_insertIJS1_EEEvN9__gnu_cxx17__normal_iteratorIPS1_S3_EEDpOT_(%"class.std::vector"* %0, %"struct.std::pair"* %1, %"struct.std::pair"* dereferenceable(16) %2) #0 comdat align 2 personality i8* bitcast (i32 (...)* @__gxx_personality_v0 to i8*) {
  %4 = alloca %"class.__gnu_cxx::__normal_iterator", align 8
  %5 = alloca %"class.__gnu_cxx::__normal_iterator", align 8
  %6 = getelementptr inbounds %"class.__gnu_cxx::__normal_iterator", %"class.__gnu_cxx::__normal_iterator"* %4, i32 0, i32 0
  store %"struct.std::pair"* %1, %"struct.std::pair"** %6, align 8
  %7 = call i64 @_ZNKSt6vectorISt4pairIddESaIS1_EE12_M_check_lenEmPKc(%"class.std::vector"* %0, i64 1, i8* getelementptr inbounds ([26 x i8], [26 x i8]* @.str.4, i32 0, i32 0))
  %8 = bitcast %"class.std::vector"* %0 to %"struct.std::_Vector_base"*
  %9 = getelementptr inbounds %"struct.std::_Vector_base", %"struct.std::_Vector_base"* %8, i32 0, i32 0
  %10 = getelementptr inbounds %"struct.std::_Vector_base<std::pair<double, double>, std::allocator<std::pair<double, double> > >::_Vector_impl", %"struct.std::_Vector_base<std::pair<double, double>, std::allocator<std::pair<double, double> > >::_Vector_impl"* %9, i32 0, i32 0
  %11 = load %"struct.std::pair"*, %"struct.std::pair"** %10, align 8
  %12 = bitcast %"class.std::vector"* %0 to %"struct.std::_Vector_base"*
  %13 = getelementptr inbounds %"struct.std::_Vector_base", %"struct.std::_Vector_base"* %12, i32 0, i32 0
  %14 = getelementptr inbounds %"struct.std::_Vector_base<std::pair<double, double>, std::allocator<std::pair<double, double> > >::_Vector_impl", %"struct.std::_Vector_base<std::pair<double, double>, std::allocator<std::pair<double, double> > >::_Vector_impl"* %13, i32 0, i32 1
  %15 = load %"struct.std::pair"*, %"struct.std::pair"** %14, align 8
  %16 = call %"struct.std::pair"* @_ZNSt6vectorISt4pairIddESaIS1_EE5beginEv(%"class.std::vector"* %0) #12
  %17 = getelementptr inbounds %"class.__gnu_cxx::__normal_iterator", %"class.__gnu_cxx::__normal_iterator"* %5, i32 0, i32 0
  store %"struct.std::pair"* %16, %"struct.std::pair"** %17, align 8
  %18 = call i64 @_ZN9__gnu_cxxmiIPSt4pairIddESt6vectorIS2_SaIS2_EEEENS_17__normal_iteratorIT_T0_E15difference_typeERKSA_SD_(%"class.__gnu_cxx::__normal_iterator"* dereferenceable(8) %4, %"class.__gnu_cxx::__normal_iterator"* dereferenceable(8) %5) #12
  %19 = bitcast %"class.std::vector"* %0 to %"struct.std::_Vector_base"*
  %20 = call %"struct.std::pair"* @_ZNSt12_Vector_baseISt4pairIddESaIS1_EE11_M_allocateEm(%"struct.std::_Vector_base"* %19, i64 %7)
  %21 = bitcast %"class.std::vector"* %0 to %"struct.std::_Vector_base"*
  %22 = getelementptr inbounds %"struct.std::_Vector_base", %"struct.std::_Vector_base"* %21, i32 0, i32 0
  %23 = bitcast %"struct.std::_Vector_base<std::pair<double, double>, std::allocator<std::pair<double, double> > >::_Vector_impl"* %22 to %"class.std::allocator"*
  %24 = getelementptr inbounds %"struct.std::pair", %"struct.std::pair"* %20, i64 %18
  %25 = call dereferenceable(16) %"struct.std::pair"* @_ZSt7forwardISt4pairIddEEOT_RNSt16remove_referenceIS2_E4typeE(%"struct.std::pair"* dereferenceable(16) %2) #12
  invoke void @_ZNSt16allocator_traitsISaISt4pairIddEEE9constructIS1_JS1_EEEvRS2_PT_DpOT0_(%"class.std::allocator"* dereferenceable(1) %23, %"struct.std::pair"* %24, %"struct.std::pair"* dereferenceable(16) %25)
          to label %26 unwind label %40

26:                                               ; preds = %3
  %27 = call dereferenceable(8) %"struct.std::pair"** @_ZNK9__gnu_cxx17__normal_iteratorIPSt4pairIddESt6vectorIS2_SaIS2_EEE4baseEv(%"class.__gnu_cxx::__normal_iterator"* %4) #12
  %28 = load %"struct.std::pair"*, %"struct.std::pair"** %27, align 8
  %29 = bitcast %"class.std::vector"* %0 to %"struct.std::_Vector_base"*
  %30 = call dereferenceable(1) %"class.std::allocator"* @_ZNSt12_Vector_baseISt4pairIddESaIS1_EE19_M_get_Tp_allocatorEv(%"struct.std::_Vector_base"* %29) #12
  %31 = invoke %"struct.std::pair"* @_ZSt34__uninitialized_move_if_noexcept_aIPSt4pairIddES2_SaIS1_EET0_T_S5_S4_RT1_(%"struct.std::pair"* %11, %"struct.std::pair"* %28, %"struct.std::pair"* %20, %"class.std::allocator"* dereferenceable(1) %30)
          to label %32 unwind label %40

32:                                               ; preds = %26
  %33 = getelementptr inbounds %"struct.std::pair", %"struct.std::pair"* %31, i32 1
  %34 = call dereferenceable(8) %"struct.std::pair"** @_ZNK9__gnu_cxx17__normal_iteratorIPSt4pairIddESt6vectorIS2_SaIS2_EEE4baseEv(%"class.__gnu_cxx::__normal_iterator"* %4) #12
  %35 = load %"struct.std::pair"*, %"struct.std::pair"** %34, align 8
  %36 = bitcast %"class.std::vector"* %0 to %"struct.std::_Vector_base"*
  %37 = call dereferenceable(1) %"class.std::allocator"* @_ZNSt12_Vector_baseISt4pairIddESaIS1_EE19_M_get_Tp_allocatorEv(%"struct.std::_Vector_base"* %36) #12
  %38 = invoke %"struct.std::pair"* @_ZSt34__uninitialized_move_if_noexcept_aIPSt4pairIddES2_SaIS1_EET0_T_S5_S4_RT1_(%"struct.std::pair"* %35, %"struct.std::pair"* %15, %"struct.std::pair"* %33, %"class.std::allocator"* dereferenceable(1) %37)
          to label %39 unwind label %40

39:                                               ; preds = %32
  br label %65

40:                                               ; preds = %32, %26, %3
  %.0 = phi %"struct.std::pair"* [ %33, %32 ], [ null, %26 ], [ %20, %3 ]
  %41 = landingpad { i8*, i32 }
          catch i8* null
  %42 = extractvalue { i8*, i32 } %41, 0
  %43 = extractvalue { i8*, i32 } %41, 1
  br label %44

44:                                               ; preds = %40
  %45 = call i8* @__cxa_begin_catch(i8* %42) #12
  %46 = icmp ne %"struct.std::pair"* %.0, null
  br i1 %46, label %57, label %47

47:                                               ; preds = %44
  %48 = bitcast %"class.std::vector"* %0 to %"struct.std::_Vector_base"*
  %49 = getelementptr inbounds %"struct.std::_Vector_base", %"struct.std::_Vector_base"* %48, i32 0, i32 0
  %50 = bitcast %"struct.std::_Vector_base<std::pair<double, double>, std::allocator<std::pair<double, double> > >::_Vector_impl"* %49 to %"class.std::allocator"*
  %51 = getelementptr inbounds %"struct.std::pair", %"struct.std::pair"* %20, i64 %18
  invoke void @_ZNSt16allocator_traitsISaISt4pairIddEEE7destroyIS1_EEvRS2_PT_(%"class.std::allocator"* dereferenceable(1) %50, %"struct.std::pair"* %51)
          to label %52 unwind label %53

52:                                               ; preds = %47
  br label %61

53:                                               ; preds = %63, %61, %57, %47
  %54 = landingpad { i8*, i32 }
          cleanup
  %55 = extractvalue { i8*, i32 } %54, 0
  %56 = extractvalue { i8*, i32 } %54, 1
  invoke void @__cxa_end_catch()
          to label %64 unwind label %90

57:                                               ; preds = %44
  %58 = bitcast %"class.std::vector"* %0 to %"struct.std::_Vector_base"*
  %59 = call dereferenceable(1) %"class.std::allocator"* @_ZNSt12_Vector_baseISt4pairIddESaIS1_EE19_M_get_Tp_allocatorEv(%"struct.std::_Vector_base"* %58) #12
  invoke void @_ZSt8_DestroyIPSt4pairIddES1_EvT_S3_RSaIT0_E(%"struct.std::pair"* %20, %"struct.std::pair"* %.0, %"class.std::allocator"* dereferenceable(1) %59)
          to label %60 unwind label %53

60:                                               ; preds = %57
  br label %61

61:                                               ; preds = %60, %52
  %62 = bitcast %"class.std::vector"* %0 to %"struct.std::_Vector_base"*
  invoke void @_ZNSt12_Vector_baseISt4pairIddESaIS1_EE13_M_deallocateEPS1_m(%"struct.std::_Vector_base"* %62, %"struct.std::pair"* %20, i64 %7)
          to label %63 unwind label %53

63:                                               ; preds = %61
  invoke void @__cxa_rethrow() #14
          to label %93 unwind label %53

64:                                               ; preds = %53
  br label %87

65:                                               ; preds = %39
  %66 = bitcast %"class.std::vector"* %0 to %"struct.std::_Vector_base"*
  %67 = call dereferenceable(1) %"class.std::allocator"* @_ZNSt12_Vector_baseISt4pairIddESaIS1_EE19_M_get_Tp_allocatorEv(%"struct.std::_Vector_base"* %66) #12
  call void @_ZSt8_DestroyIPSt4pairIddES1_EvT_S3_RSaIT0_E(%"struct.std::pair"* %11, %"struct.std::pair"* %15, %"class.std::allocator"* dereferenceable(1) %67)
  %68 = bitcast %"class.std::vector"* %0 to %"struct.std::_Vector_base"*
  %69 = bitcast %"class.std::vector"* %0 to %"struct.std::_Vector_base"*
  %70 = getelementptr inbounds %"struct.std::_Vector_base", %"struct.std::_Vector_base"* %69, i32 0, i32 0
  %71 = getelementptr inbounds %"struct.std::_Vector_base<std::pair<double, double>, std::allocator<std::pair<double, double> > >::_Vector_impl", %"struct.std::_Vector_base<std::pair<double, double>, std::allocator<std::pair<double, double> > >::_Vector_impl"* %70, i32 0, i32 2
  %72 = load %"struct.std::pair"*, %"struct.std::pair"** %71, align 8
  %73 = ptrtoint %"struct.std::pair"* %72 to i64
  %74 = ptrtoint %"struct.std::pair"* %11 to i64
  %75 = sub i64 %73, %74
  %76 = sdiv exact i64 %75, 16
  call void @_ZNSt12_Vector_baseISt4pairIddESaIS1_EE13_M_deallocateEPS1_m(%"struct.std::_Vector_base"* %68, %"struct.std::pair"* %11, i64 %76)
  %77 = bitcast %"class.std::vector"* %0 to %"struct.std::_Vector_base"*
  %78 = getelementptr inbounds %"struct.std::_Vector_base", %"struct.std::_Vector_base"* %77, i32 0, i32 0
  %79 = getelementptr inbounds %"struct.std::_Vector_base<std::pair<double, double>, std::allocator<std::pair<double, double> > >::_Vector_impl", %"struct.std::_Vector_base<std::pair<double, double>, std::allocator<std::pair<double, double> > >::_Vector_impl"* %78, i32 0, i32 0
  store %"struct.std::pair"* %20, %"struct.std::pair"** %79, align 8
  %80 = bitcast %"class.std::vector"* %0 to %"struct.std::_Vector_base"*
  %81 = getelementptr inbounds %"struct.std::_Vector_base", %"struct.std::_Vector_base"* %80, i32 0, i32 0
  %82 = getelementptr inbounds %"struct.std::_Vector_base<std::pair<double, double>, std::allocator<std::pair<double, double> > >::_Vector_impl", %"struct.std::_Vector_base<std::pair<double, double>, std::allocator<std::pair<double, double> > >::_Vector_impl"* %81, i32 0, i32 1
  store %"struct.std::pair"* %38, %"struct.std::pair"** %82, align 8
  %83 = getelementptr inbounds %"struct.std::pair", %"struct.std::pair"* %20, i64 %7
  %84 = bitcast %"class.std::vector"* %0 to %"struct.std::_Vector_base"*
  %85 = getelementptr inbounds %"struct.std::_Vector_base", %"struct.std::_Vector_base"* %84, i32 0, i32 0
  %86 = getelementptr inbounds %"struct.std::_Vector_base<std::pair<double, double>, std::allocator<std::pair<double, double> > >::_Vector_impl", %"struct.std::_Vector_base<std::pair<double, double>, std::allocator<std::pair<double, double> > >::_Vector_impl"* %85, i32 0, i32 2
  store %"struct.std::pair"* %83, %"struct.std::pair"** %86, align 8
  ret void

87:                                               ; preds = %64
  %88 = insertvalue { i8*, i32 } undef, i8* %55, 0
  %89 = insertvalue { i8*, i32 } %88, i32 %56, 1
  resume { i8*, i32 } %89

90:                                               ; preds = %53
  %91 = landingpad { i8*, i32 }
          catch i8* null
  %92 = extractvalue { i8*, i32 } %91, 0
  call void @__clang_call_terminate(i8* %92) #13
  unreachable

93:                                               ; preds = %63
  unreachable
}

; Function Attrs: noinline nounwind uwtable
define linkonce_odr void @_ZN9__gnu_cxx13new_allocatorISt4pairIddEE9constructIS2_JS2_EEEvPT_DpOT0_(%"class.__gnu_cxx::new_allocator"* %0, %"struct.std::pair"* %1, %"struct.std::pair"* dereferenceable(16) %2) #1 comdat align 2 {
  %4 = bitcast %"struct.std::pair"* %1 to i8*
  %5 = bitcast i8* %4 to %"struct.std::pair"*
  %6 = call dereferenceable(16) %"struct.std::pair"* @_ZSt7forwardISt4pairIddEEOT_RNSt16remove_referenceIS2_E4typeE(%"struct.std::pair"* dereferenceable(16) %2) #12
  %7 = bitcast %"struct.std::pair"* %5 to i8*
  %8 = bitcast %"struct.std::pair"* %6 to i8*
  call void @llvm.memcpy.p0i8.p0i8.i64(i8* align 8 %7, i8* align 8 %8, i64 16, i1 false)
  ret void
}

; Function Attrs: noinline uwtable
define linkonce_odr i64 @_ZNKSt6vectorISt4pairIddESaIS1_EE12_M_check_lenEmPKc(%"class.std::vector"* %0, i64 %1, i8* %2) #0 comdat align 2 {
  %4 = alloca i64, align 8
  %5 = alloca i64, align 8
  store i64 %1, i64* %4, align 8
  %6 = call i64 @_ZNKSt6vectorISt4pairIddESaIS1_EE8max_sizeEv(%"class.std::vector"* %0) #12
  %7 = call i64 @_ZNKSt6vectorISt4pairIddESaIS1_EE4sizeEv(%"class.std::vector"* %0) #12
  %8 = sub i64 %6, %7
  %9 = load i64, i64* %4, align 8
  %10 = icmp ult i64 %8, %9
  br i1 %10, label %11, label %12

11:                                               ; preds = %3
  call void @_ZSt20__throw_length_errorPKc(i8* %2) #14
  unreachable

12:                                               ; preds = %3
  %13 = call i64 @_ZNKSt6vectorISt4pairIddESaIS1_EE4sizeEv(%"class.std::vector"* %0) #12
  %14 = call i64 @_ZNKSt6vectorISt4pairIddESaIS1_EE4sizeEv(%"class.std::vector"* %0) #12
  store i64 %14, i64* %5, align 8
  %15 = call dereferenceable(8) i64* @_ZSt3maxImERKT_S2_S2_(i64* dereferenceable(8) %5, i64* dereferenceable(8) %4)
  %16 = load i64, i64* %15, align 8
  %17 = add i64 %13, %16
  %18 = call i64 @_ZNKSt6vectorISt4pairIddESaIS1_EE4sizeEv(%"class.std::vector"* %0) #12
  %19 = icmp ult i64 %17, %18
  br i1 %19, label %23, label %20

20:                                               ; preds = %12
  %21 = call i64 @_ZNKSt6vectorISt4pairIddESaIS1_EE8max_sizeEv(%"class.std::vector"* %0) #12
  %22 = icmp ugt i64 %17, %21
  br i1 %22, label %23, label %25

23:                                               ; preds = %20, %12
  %24 = call i64 @_ZNKSt6vectorISt4pairIddESaIS1_EE8max_sizeEv(%"class.std::vector"* %0) #12
  br label %26

25:                                               ; preds = %20
  br label %26

26:                                               ; preds = %25, %23
  %27 = phi i64 [ %24, %23 ], [ %17, %25 ]
  ret i64 %27
}

; Function Attrs: noinline nounwind uwtable
define linkonce_odr i64 @_ZN9__gnu_cxxmiIPSt4pairIddESt6vectorIS2_SaIS2_EEEENS_17__normal_iteratorIT_T0_E15difference_typeERKSA_SD_(%"class.__gnu_cxx::__normal_iterator"* dereferenceable(8) %0, %"class.__gnu_cxx::__normal_iterator"* dereferenceable(8) %1) #1 comdat {
  %3 = call dereferenceable(8) %"struct.std::pair"** @_ZNK9__gnu_cxx17__normal_iteratorIPSt4pairIddESt6vectorIS2_SaIS2_EEE4baseEv(%"class.__gnu_cxx::__normal_iterator"* %0) #12
  %4 = load %"struct.std::pair"*, %"struct.std::pair"** %3, align 8
  %5 = call dereferenceable(8) %"struct.std::pair"** @_ZNK9__gnu_cxx17__normal_iteratorIPSt4pairIddESt6vectorIS2_SaIS2_EEE4baseEv(%"class.__gnu_cxx::__normal_iterator"* %1) #12
  %6 = load %"struct.std::pair"*, %"struct.std::pair"** %5, align 8
  %7 = ptrtoint %"struct.std::pair"* %4 to i64
  %8 = ptrtoint %"struct.std::pair"* %6 to i64
  %9 = sub i64 %7, %8
  %10 = sdiv exact i64 %9, 16
  ret i64 %10
}

; Function Attrs: noinline uwtable
define linkonce_odr %"struct.std::pair"* @_ZNSt12_Vector_baseISt4pairIddESaIS1_EE11_M_allocateEm(%"struct.std::_Vector_base"* %0, i64 %1) #0 comdat align 2 {
  %3 = icmp ne i64 %1, 0
  br i1 %3, label %4, label %8

4:                                                ; preds = %2
  %5 = getelementptr inbounds %"struct.std::_Vector_base", %"struct.std::_Vector_base"* %0, i32 0, i32 0
  %6 = bitcast %"struct.std::_Vector_base<std::pair<double, double>, std::allocator<std::pair<double, double> > >::_Vector_impl"* %5 to %"class.std::allocator"*
  %7 = call %"struct.std::pair"* @_ZNSt16allocator_traitsISaISt4pairIddEEE8allocateERS2_m(%"class.std::allocator"* dereferenceable(1) %6, i64 %1)
  br label %9

8:                                                ; preds = %2
  br label %9

9:                                                ; preds = %8, %4
  %10 = phi %"struct.std::pair"* [ %7, %4 ], [ null, %8 ]
  ret %"struct.std::pair"* %10
}

; Function Attrs: noinline uwtable
define linkonce_odr %"struct.std::pair"* @_ZSt34__uninitialized_move_if_noexcept_aIPSt4pairIddES2_SaIS1_EET0_T_S5_S4_RT1_(%"struct.std::pair"* %0, %"struct.std::pair"* %1, %"struct.std::pair"* %2, %"class.std::allocator"* dereferenceable(1) %3) #0 comdat {
  %5 = alloca %"class.std::move_iterator", align 8
  %6 = alloca %"class.std::move_iterator", align 8
  %7 = call %"struct.std::pair"* @_ZSt32__make_move_if_noexcept_iteratorISt4pairIddESt13move_iteratorIPS1_EET0_PT_(%"struct.std::pair"* %0)
  %8 = getelementptr inbounds %"class.std::move_iterator", %"class.std::move_iterator"* %5, i32 0, i32 0
  store %"struct.std::pair"* %7, %"struct.std::pair"** %8, align 8
  %9 = call %"struct.std::pair"* @_ZSt32__make_move_if_noexcept_iteratorISt4pairIddESt13move_iteratorIPS1_EET0_PT_(%"struct.std::pair"* %1)
  %10 = getelementptr inbounds %"class.std::move_iterator", %"class.std::move_iterator"* %6, i32 0, i32 0
  store %"struct.std::pair"* %9, %"struct.std::pair"** %10, align 8
  %11 = getelementptr inbounds %"class.std::move_iterator", %"class.std::move_iterator"* %5, i32 0, i32 0
  %12 = load %"struct.std::pair"*, %"struct.std::pair"** %11, align 8
  %13 = getelementptr inbounds %"class.std::move_iterator", %"class.std::move_iterator"* %6, i32 0, i32 0
  %14 = load %"struct.std::pair"*, %"struct.std::pair"** %13, align 8
  %15 = call %"struct.std::pair"* @_ZSt22__uninitialized_copy_aISt13move_iteratorIPSt4pairIddEES3_S2_ET0_T_S6_S5_RSaIT1_E(%"struct.std::pair"* %12, %"struct.std::pair"* %14, %"struct.std::pair"* %2, %"class.std::allocator"* dereferenceable(1) %3)
  ret %"struct.std::pair"* %15
}

; Function Attrs: noinline nounwind uwtable
define linkonce_odr dereferenceable(8) %"struct.std::pair"** @_ZNK9__gnu_cxx17__normal_iteratorIPSt4pairIddESt6vectorIS2_SaIS2_EEE4baseEv(%"class.__gnu_cxx::__normal_iterator"* %0) #1 comdat align 2 {
  %2 = getelementptr inbounds %"class.__gnu_cxx::__normal_iterator", %"class.__gnu_cxx::__normal_iterator"* %0, i32 0, i32 0
  ret %"struct.std::pair"** %2
}

; Function Attrs: noinline uwtable
define linkonce_odr void @_ZNSt16allocator_traitsISaISt4pairIddEEE7destroyIS1_EEvRS2_PT_(%"class.std::allocator"* dereferenceable(1) %0, %"struct.std::pair"* %1) #0 comdat align 2 {
  %3 = bitcast %"class.std::allocator"* %0 to %"class.__gnu_cxx::new_allocator"*
  call void @_ZN9__gnu_cxx13new_allocatorISt4pairIddEE7destroyIS2_EEvPT_(%"class.__gnu_cxx::new_allocator"* %3, %"struct.std::pair"* %1)
  ret void
}

declare void @__cxa_rethrow()

declare void @__cxa_end_catch()

; Function Attrs: noinline nounwind uwtable
define linkonce_odr i64 @_ZNKSt6vectorISt4pairIddESaIS1_EE8max_sizeEv(%"class.std::vector"* %0) #1 comdat align 2 {
  %2 = bitcast %"class.std::vector"* %0 to %"struct.std::_Vector_base"*
  %3 = call dereferenceable(1) %"class.std::allocator"* @_ZNKSt12_Vector_baseISt4pairIddESaIS1_EE19_M_get_Tp_allocatorEv(%"struct.std::_Vector_base"* %2) #12
  %4 = call i64 @_ZNSt16allocator_traitsISaISt4pairIddEEE8max_sizeERKS2_(%"class.std::allocator"* dereferenceable(1) %3) #12
  ret i64 %4
}

; Function Attrs: noreturn
declare void @_ZSt20__throw_length_errorPKc(i8*) #7

; Function Attrs: noinline nounwind uwtable
define linkonce_odr dereferenceable(8) i64* @_ZSt3maxImERKT_S2_S2_(i64* dereferenceable(8) %0, i64* dereferenceable(8) %1) #1 comdat {
  %3 = load i64, i64* %0, align 8
  %4 = load i64, i64* %1, align 8
  %5 = icmp ult i64 %3, %4
  br i1 %5, label %6, label %7

6:                                                ; preds = %2
  br label %8

7:                                                ; preds = %2
  br label %8

8:                                                ; preds = %7, %6
  %.0 = phi i64* [ %1, %6 ], [ %0, %7 ]
  ret i64* %.0
}

; Function Attrs: noinline nounwind uwtable
define linkonce_odr i64 @_ZNSt16allocator_traitsISaISt4pairIddEEE8max_sizeERKS2_(%"class.std::allocator"* dereferenceable(1) %0) #1 comdat align 2 {
  %2 = bitcast %"class.std::allocator"* %0 to %"class.__gnu_cxx::new_allocator"*
  %3 = call i64 @_ZNK9__gnu_cxx13new_allocatorISt4pairIddEE8max_sizeEv(%"class.__gnu_cxx::new_allocator"* %2) #12
  ret i64 %3
}

; Function Attrs: noinline nounwind uwtable
define linkonce_odr dereferenceable(1) %"class.std::allocator"* @_ZNKSt12_Vector_baseISt4pairIddESaIS1_EE19_M_get_Tp_allocatorEv(%"struct.std::_Vector_base"* %0) #1 comdat align 2 {
  %2 = getelementptr inbounds %"struct.std::_Vector_base", %"struct.std::_Vector_base"* %0, i32 0, i32 0
  %3 = bitcast %"struct.std::_Vector_base<std::pair<double, double>, std::allocator<std::pair<double, double> > >::_Vector_impl"* %2 to %"class.std::allocator"*
  ret %"class.std::allocator"* %3
}

; Function Attrs: noinline nounwind uwtable
define linkonce_odr i64 @_ZNK9__gnu_cxx13new_allocatorISt4pairIddEE8max_sizeEv(%"class.__gnu_cxx::new_allocator"* %0) #1 comdat align 2 {
  ret i64 1152921504606846975
}

; Function Attrs: noinline uwtable
define linkonce_odr %"struct.std::pair"* @_ZNSt16allocator_traitsISaISt4pairIddEEE8allocateERS2_m(%"class.std::allocator"* dereferenceable(1) %0, i64 %1) #0 comdat align 2 {
  %3 = bitcast %"class.std::allocator"* %0 to %"class.__gnu_cxx::new_allocator"*
  %4 = call %"struct.std::pair"* @_ZN9__gnu_cxx13new_allocatorISt4pairIddEE8allocateEmPKv(%"class.__gnu_cxx::new_allocator"* %3, i64 %1, i8* null)
  ret %"struct.std::pair"* %4
}

; Function Attrs: noinline uwtable
define linkonce_odr %"struct.std::pair"* @_ZN9__gnu_cxx13new_allocatorISt4pairIddEE8allocateEmPKv(%"class.__gnu_cxx::new_allocator"* %0, i64 %1, i8* %2) #0 comdat align 2 {
  %4 = call i64 @_ZNK9__gnu_cxx13new_allocatorISt4pairIddEE8max_sizeEv(%"class.__gnu_cxx::new_allocator"* %0) #12
  %5 = icmp ugt i64 %1, %4
  br i1 %5, label %6, label %7

6:                                                ; preds = %3
  call void @_ZSt17__throw_bad_allocv() #14
  unreachable

7:                                                ; preds = %3
  %8 = mul i64 %1, 16
  %9 = call i8* @_Znwm(i64 %8)
  %10 = bitcast i8* %9 to %"struct.std::pair"*
  ret %"struct.std::pair"* %10
}

; Function Attrs: noreturn
declare void @_ZSt17__throw_bad_allocv() #7

; Function Attrs: nobuiltin
declare noalias i8* @_Znwm(i64) #8

; Function Attrs: noinline uwtable
define linkonce_odr %"struct.std::pair"* @_ZSt22__uninitialized_copy_aISt13move_iteratorIPSt4pairIddEES3_S2_ET0_T_S6_S5_RSaIT1_E(%"struct.std::pair"* %0, %"struct.std::pair"* %1, %"struct.std::pair"* %2, %"class.std::allocator"* dereferenceable(1) %3) #0 comdat {
  %5 = alloca %"class.std::move_iterator", align 8
  %6 = alloca %"class.std::move_iterator", align 8
  %7 = alloca %"class.std::move_iterator", align 8
  %8 = alloca %"class.std::move_iterator", align 8
  %9 = getelementptr inbounds %"class.std::move_iterator", %"class.std::move_iterator"* %5, i32 0, i32 0
  store %"struct.std::pair"* %0, %"struct.std::pair"** %9, align 8
  %10 = getelementptr inbounds %"class.std::move_iterator", %"class.std::move_iterator"* %6, i32 0, i32 0
  store %"struct.std::pair"* %1, %"struct.std::pair"** %10, align 8
  %11 = bitcast %"class.std::move_iterator"* %7 to i8*
  %12 = bitcast %"class.std::move_iterator"* %5 to i8*
  call void @llvm.memcpy.p0i8.p0i8.i64(i8* align 8 %11, i8* align 8 %12, i64 8, i1 false)
  %13 = bitcast %"class.std::move_iterator"* %8 to i8*
  %14 = bitcast %"class.std::move_iterator"* %6 to i8*
  call void @llvm.memcpy.p0i8.p0i8.i64(i8* align 8 %13, i8* align 8 %14, i64 8, i1 false)
  %15 = getelementptr inbounds %"class.std::move_iterator", %"class.std::move_iterator"* %7, i32 0, i32 0
  %16 = load %"struct.std::pair"*, %"struct.std::pair"** %15, align 8
  %17 = getelementptr inbounds %"class.std::move_iterator", %"class.std::move_iterator"* %8, i32 0, i32 0
  %18 = load %"struct.std::pair"*, %"struct.std::pair"** %17, align 8
  %19 = call %"struct.std::pair"* @_ZSt18uninitialized_copyISt13move_iteratorIPSt4pairIddEES3_ET0_T_S6_S5_(%"struct.std::pair"* %16, %"struct.std::pair"* %18, %"struct.std::pair"* %2)
  ret %"struct.std::pair"* %19
}

; Function Attrs: noinline uwtable
define linkonce_odr %"struct.std::pair"* @_ZSt32__make_move_if_noexcept_iteratorISt4pairIddESt13move_iteratorIPS1_EET0_PT_(%"struct.std::pair"* %0) #0 comdat {
  %2 = alloca %"class.std::move_iterator", align 8
  call void @_ZNSt13move_iteratorIPSt4pairIddEEC2ES2_(%"class.std::move_iterator"* %2, %"struct.std::pair"* %0)
  %3 = getelementptr inbounds %"class.std::move_iterator", %"class.std::move_iterator"* %2, i32 0, i32 0
  %4 = load %"struct.std::pair"*, %"struct.std::pair"** %3, align 8
  ret %"struct.std::pair"* %4
}

; Function Attrs: noinline uwtable
define linkonce_odr %"struct.std::pair"* @_ZSt18uninitialized_copyISt13move_iteratorIPSt4pairIddEES3_ET0_T_S6_S5_(%"struct.std::pair"* %0, %"struct.std::pair"* %1, %"struct.std::pair"* %2) #0 comdat {
  %4 = alloca %"class.std::move_iterator", align 8
  %5 = alloca %"class.std::move_iterator", align 8
  %6 = alloca %"class.std::move_iterator", align 8
  %7 = alloca %"class.std::move_iterator", align 8
  %8 = getelementptr inbounds %"class.std::move_iterator", %"class.std::move_iterator"* %4, i32 0, i32 0
  store %"struct.std::pair"* %0, %"struct.std::pair"** %8, align 8
  %9 = getelementptr inbounds %"class.std::move_iterator", %"class.std::move_iterator"* %5, i32 0, i32 0
  store %"struct.std::pair"* %1, %"struct.std::pair"** %9, align 8
  %10 = bitcast %"class.std::move_iterator"* %6 to i8*
  %11 = bitcast %"class.std::move_iterator"* %4 to i8*
  call void @llvm.memcpy.p0i8.p0i8.i64(i8* align 8 %10, i8* align 8 %11, i64 8, i1 false)
  %12 = bitcast %"class.std::move_iterator"* %7 to i8*
  %13 = bitcast %"class.std::move_iterator"* %5 to i8*
  call void @llvm.memcpy.p0i8.p0i8.i64(i8* align 8 %12, i8* align 8 %13, i64 8, i1 false)
  %14 = getelementptr inbounds %"class.std::move_iterator", %"class.std::move_iterator"* %6, i32 0, i32 0
  %15 = load %"struct.std::pair"*, %"struct.std::pair"** %14, align 8
  %16 = getelementptr inbounds %"class.std::move_iterator", %"class.std::move_iterator"* %7, i32 0, i32 0
  %17 = load %"struct.std::pair"*, %"struct.std::pair"** %16, align 8
  %18 = call %"struct.std::pair"* @_ZNSt20__uninitialized_copyILb0EE13__uninit_copyISt13move_iteratorIPSt4pairIddEES5_EET0_T_S8_S7_(%"struct.std::pair"* %15, %"struct.std::pair"* %17, %"struct.std::pair"* %2)
  ret %"struct.std::pair"* %18
}

; Function Attrs: noinline uwtable
define linkonce_odr %"struct.std::pair"* @_ZNSt20__uninitialized_copyILb0EE13__uninit_copyISt13move_iteratorIPSt4pairIddEES5_EET0_T_S8_S7_(%"struct.std::pair"* %0, %"struct.std::pair"* %1, %"struct.std::pair"* %2) #0 comdat align 2 personality i8* bitcast (i32 (...)* @__gxx_personality_v0 to i8*) {
  %4 = alloca %"class.std::move_iterator", align 8
  %5 = alloca %"class.std::move_iterator", align 8
  %6 = getelementptr inbounds %"class.std::move_iterator", %"class.std::move_iterator"* %4, i32 0, i32 0
  store %"struct.std::pair"* %0, %"struct.std::pair"** %6, align 8
  %7 = getelementptr inbounds %"class.std::move_iterator", %"class.std::move_iterator"* %5, i32 0, i32 0
  store %"struct.std::pair"* %1, %"struct.std::pair"** %7, align 8
  br label %8

8:                                                ; preds = %18, %3
  %.0 = phi %"struct.std::pair"* [ %2, %3 ], [ %19, %18 ]
  %9 = invoke zeroext i1 @_ZStneIPSt4pairIddEEbRKSt13move_iteratorIT_ES7_(%"class.std::move_iterator"* dereferenceable(8) %4, %"class.std::move_iterator"* dereferenceable(8) %5)
          to label %10 unwind label %20

10:                                               ; preds = %8
  br i1 %9, label %11, label %27

11:                                               ; preds = %10
  %12 = call %"struct.std::pair"* @_ZSt11__addressofISt4pairIddEEPT_RS2_(%"struct.std::pair"* dereferenceable(16) %.0) #12
  %13 = invoke dereferenceable(16) %"struct.std::pair"* @_ZNKSt13move_iteratorIPSt4pairIddEEdeEv(%"class.std::move_iterator"* %4)
          to label %14 unwind label %20

14:                                               ; preds = %11
  invoke void @_ZSt10_ConstructISt4pairIddEJS1_EEvPT_DpOT0_(%"struct.std::pair"* %12, %"struct.std::pair"* dereferenceable(16) %13)
          to label %15 unwind label %20

15:                                               ; preds = %14
  br label %16

16:                                               ; preds = %15
  %17 = invoke dereferenceable(8) %"class.std::move_iterator"* @_ZNSt13move_iteratorIPSt4pairIddEEppEv(%"class.std::move_iterator"* %4)
          to label %18 unwind label %20

18:                                               ; preds = %16
  %19 = getelementptr inbounds %"struct.std::pair", %"struct.std::pair"* %.0, i32 1
  br label %8

20:                                               ; preds = %16, %14, %11, %8
  %21 = landingpad { i8*, i32 }
          catch i8* null
  %22 = extractvalue { i8*, i32 } %21, 0
  %23 = extractvalue { i8*, i32 } %21, 1
  br label %24

24:                                               ; preds = %20
  %25 = call i8* @__cxa_begin_catch(i8* %22) #12
  invoke void @_ZSt8_DestroyIPSt4pairIddEEvT_S3_(%"struct.std::pair"* %2, %"struct.std::pair"* %.0)
          to label %26 unwind label %28

26:                                               ; preds = %24
  invoke void @__cxa_rethrow() #14
          to label %40 unwind label %28

27:                                               ; preds = %10
  ret %"struct.std::pair"* %.0

28:                                               ; preds = %26, %24
  %29 = landingpad { i8*, i32 }
          cleanup
  %30 = extractvalue { i8*, i32 } %29, 0
  %31 = extractvalue { i8*, i32 } %29, 1
  invoke void @__cxa_end_catch()
          to label %32 unwind label %37

32:                                               ; preds = %28
  br label %34

33:                                               ; No predecessors!
  call void @llvm.trap()
  unreachable

34:                                               ; preds = %32
  %35 = insertvalue { i8*, i32 } undef, i8* %30, 0
  %36 = insertvalue { i8*, i32 } %35, i32 %31, 1
  resume { i8*, i32 } %36

37:                                               ; preds = %28
  %38 = landingpad { i8*, i32 }
          catch i8* null
  %39 = extractvalue { i8*, i32 } %38, 0
  call void @__clang_call_terminate(i8* %39) #13
  unreachable

40:                                               ; preds = %26
  unreachable
}

; Function Attrs: noinline uwtable
define linkonce_odr zeroext i1 @_ZStneIPSt4pairIddEEbRKSt13move_iteratorIT_ES7_(%"class.std::move_iterator"* dereferenceable(8) %0, %"class.std::move_iterator"* dereferenceable(8) %1) #0 comdat {
  %3 = call zeroext i1 @_ZSteqIPSt4pairIddEEbRKSt13move_iteratorIT_ES7_(%"class.std::move_iterator"* dereferenceable(8) %0, %"class.std::move_iterator"* dereferenceable(8) %1)
  %4 = xor i1 %3, true
  ret i1 %4
}

; Function Attrs: noinline nounwind uwtable
define linkonce_odr void @_ZSt10_ConstructISt4pairIddEJS1_EEvPT_DpOT0_(%"struct.std::pair"* %0, %"struct.std::pair"* dereferenceable(16) %1) #1 comdat {
  %3 = bitcast %"struct.std::pair"* %0 to i8*
  %4 = bitcast i8* %3 to %"struct.std::pair"*
  %5 = call dereferenceable(16) %"struct.std::pair"* @_ZSt7forwardISt4pairIddEEOT_RNSt16remove_referenceIS2_E4typeE(%"struct.std::pair"* dereferenceable(16) %1) #12
  %6 = bitcast %"struct.std::pair"* %4 to i8*
  %7 = bitcast %"struct.std::pair"* %5 to i8*
  call void @llvm.memcpy.p0i8.p0i8.i64(i8* align 8 %6, i8* align 8 %7, i64 16, i1 false)
  ret void
}

; Function Attrs: noinline nounwind uwtable
define linkonce_odr %"struct.std::pair"* @_ZSt11__addressofISt4pairIddEEPT_RS2_(%"struct.std::pair"* dereferenceable(16) %0) #1 comdat {
  ret %"struct.std::pair"* %0
}

; Function Attrs: noinline nounwind uwtable
define linkonce_odr dereferenceable(16) %"struct.std::pair"* @_ZNKSt13move_iteratorIPSt4pairIddEEdeEv(%"class.std::move_iterator"* %0) #1 comdat align 2 {
  %2 = getelementptr inbounds %"class.std::move_iterator", %"class.std::move_iterator"* %0, i32 0, i32 0
  %3 = load %"struct.std::pair"*, %"struct.std::pair"** %2, align 8
  ret %"struct.std::pair"* %3
}

; Function Attrs: noinline nounwind uwtable
define linkonce_odr dereferenceable(8) %"class.std::move_iterator"* @_ZNSt13move_iteratorIPSt4pairIddEEppEv(%"class.std::move_iterator"* %0) #1 comdat align 2 {
  %2 = getelementptr inbounds %"class.std::move_iterator", %"class.std::move_iterator"* %0, i32 0, i32 0
  %3 = load %"struct.std::pair"*, %"struct.std::pair"** %2, align 8
  %4 = getelementptr inbounds %"struct.std::pair", %"struct.std::pair"* %3, i32 1
  store %"struct.std::pair"* %4, %"struct.std::pair"** %2, align 8
  ret %"class.std::move_iterator"* %0
}

; Function Attrs: cold noreturn nounwind
declare void @llvm.trap() #9

; Function Attrs: noinline uwtable
define linkonce_odr zeroext i1 @_ZSteqIPSt4pairIddEEbRKSt13move_iteratorIT_ES7_(%"class.std::move_iterator"* dereferenceable(8) %0, %"class.std::move_iterator"* dereferenceable(8) %1) #0 comdat {
  %3 = call %"struct.std::pair"* @_ZNKSt13move_iteratorIPSt4pairIddEE4baseEv(%"class.std::move_iterator"* %0)
  %4 = call %"struct.std::pair"* @_ZNKSt13move_iteratorIPSt4pairIddEE4baseEv(%"class.std::move_iterator"* %1)
  %5 = icmp eq %"struct.std::pair"* %3, %4
  ret i1 %5
}

; Function Attrs: noinline nounwind uwtable
define linkonce_odr %"struct.std::pair"* @_ZNKSt13move_iteratorIPSt4pairIddEE4baseEv(%"class.std::move_iterator"* %0) #1 comdat align 2 {
  %2 = getelementptr inbounds %"class.std::move_iterator", %"class.std::move_iterator"* %0, i32 0, i32 0
  %3 = load %"struct.std::pair"*, %"struct.std::pair"** %2, align 8
  ret %"struct.std::pair"* %3
}

; Function Attrs: noinline nounwind uwtable
define linkonce_odr void @_ZNSt13move_iteratorIPSt4pairIddEEC2ES2_(%"class.std::move_iterator"* %0, %"struct.std::pair"* %1) unnamed_addr #1 comdat align 2 {
  %3 = getelementptr inbounds %"class.std::move_iterator", %"class.std::move_iterator"* %0, i32 0, i32 0
  store %"struct.std::pair"* %1, %"struct.std::pair"** %3, align 8
  ret void
}

; Function Attrs: noinline nounwind uwtable
define linkonce_odr void @_ZN9__gnu_cxx13new_allocatorISt4pairIddEE7destroyIS2_EEvPT_(%"class.__gnu_cxx::new_allocator"* %0, %"struct.std::pair"* %1) #1 comdat align 2 {
  ret void
}

; Function Attrs: noinline nounwind uwtable
define linkonce_odr void @_ZN9__gnu_cxx17__normal_iteratorIPSt4pairIddESt6vectorIS2_SaIS2_EEEC2ERKS3_(%"class.__gnu_cxx::__normal_iterator"* %0, %"struct.std::pair"** dereferenceable(8) %1) unnamed_addr #1 comdat align 2 {
  %3 = getelementptr inbounds %"class.__gnu_cxx::__normal_iterator", %"class.__gnu_cxx::__normal_iterator"* %0, i32 0, i32 0
  %4 = load %"struct.std::pair"*, %"struct.std::pair"** %1, align 8
  store %"struct.std::pair"* %4, %"struct.std::pair"** %3, align 8
  ret void
}

; Function Attrs: noinline uwtable
define linkonce_odr void @_ZSt6__sortIN9__gnu_cxx17__normal_iteratorIPSt4pairIddESt6vectorIS3_SaIS3_EEEENS0_5__ops15_Iter_less_iterEEvT_SB_T0_(%"struct.std::pair"* %0, %"struct.std::pair"* %1) #0 comdat {
  %3 = alloca %"class.__gnu_cxx::__normal_iterator", align 8
  %4 = alloca %"class.__gnu_cxx::__normal_iterator", align 8
  %5 = alloca %"class.__gnu_cxx::__normal_iterator", align 8
  %6 = alloca %"class.__gnu_cxx::__normal_iterator", align 8
  %7 = alloca %"class.__gnu_cxx::__normal_iterator", align 8
  %8 = alloca %"class.__gnu_cxx::__normal_iterator", align 8
  %9 = getelementptr inbounds %"class.__gnu_cxx::__normal_iterator", %"class.__gnu_cxx::__normal_iterator"* %3, i32 0, i32 0
  store %"struct.std::pair"* %0, %"struct.std::pair"** %9, align 8
  %10 = getelementptr inbounds %"class.__gnu_cxx::__normal_iterator", %"class.__gnu_cxx::__normal_iterator"* %4, i32 0, i32 0
  store %"struct.std::pair"* %1, %"struct.std::pair"** %10, align 8
  %11 = call zeroext i1 @_ZN9__gnu_cxxneIPSt4pairIddESt6vectorIS2_SaIS2_EEEEbRKNS_17__normal_iteratorIT_T0_EESC_(%"class.__gnu_cxx::__normal_iterator"* dereferenceable(8) %3, %"class.__gnu_cxx::__normal_iterator"* dereferenceable(8) %4) #12
  br i1 %11, label %12, label %32

12:                                               ; preds = %2
  %13 = bitcast %"class.__gnu_cxx::__normal_iterator"* %5 to i8*
  %14 = bitcast %"class.__gnu_cxx::__normal_iterator"* %3 to i8*
  call void @llvm.memcpy.p0i8.p0i8.i64(i8* align 8 %13, i8* align 8 %14, i64 8, i1 false)
  %15 = bitcast %"class.__gnu_cxx::__normal_iterator"* %6 to i8*
  %16 = bitcast %"class.__gnu_cxx::__normal_iterator"* %4 to i8*
  call void @llvm.memcpy.p0i8.p0i8.i64(i8* align 8 %15, i8* align 8 %16, i64 8, i1 false)
  %17 = call i64 @_ZN9__gnu_cxxmiIPSt4pairIddESt6vectorIS2_SaIS2_EEEENS_17__normal_iteratorIT_T0_E15difference_typeERKSA_SD_(%"class.__gnu_cxx::__normal_iterator"* dereferenceable(8) %4, %"class.__gnu_cxx::__normal_iterator"* dereferenceable(8) %3) #12
  %18 = call i64 @_ZSt4__lgl(i64 %17)
  %19 = mul nsw i64 %18, 2
  %20 = getelementptr inbounds %"class.__gnu_cxx::__normal_iterator", %"class.__gnu_cxx::__normal_iterator"* %5, i32 0, i32 0
  %21 = load %"struct.std::pair"*, %"struct.std::pair"** %20, align 8
  %22 = getelementptr inbounds %"class.__gnu_cxx::__normal_iterator", %"class.__gnu_cxx::__normal_iterator"* %6, i32 0, i32 0
  %23 = load %"struct.std::pair"*, %"struct.std::pair"** %22, align 8
  call void @_ZSt16__introsort_loopIN9__gnu_cxx17__normal_iteratorIPSt4pairIddESt6vectorIS3_SaIS3_EEEElNS0_5__ops15_Iter_less_iterEEvT_SB_T0_T1_(%"struct.std::pair"* %21, %"struct.std::pair"* %23, i64 %19)
  %24 = bitcast %"class.__gnu_cxx::__normal_iterator"* %7 to i8*
  %25 = bitcast %"class.__gnu_cxx::__normal_iterator"* %3 to i8*
  call void @llvm.memcpy.p0i8.p0i8.i64(i8* align 8 %24, i8* align 8 %25, i64 8, i1 false)
  %26 = bitcast %"class.__gnu_cxx::__normal_iterator"* %8 to i8*
  %27 = bitcast %"class.__gnu_cxx::__normal_iterator"* %4 to i8*
  call void @llvm.memcpy.p0i8.p0i8.i64(i8* align 8 %26, i8* align 8 %27, i64 8, i1 false)
  %28 = getelementptr inbounds %"class.__gnu_cxx::__normal_iterator", %"class.__gnu_cxx::__normal_iterator"* %7, i32 0, i32 0
  %29 = load %"struct.std::pair"*, %"struct.std::pair"** %28, align 8
  %30 = getelementptr inbounds %"class.__gnu_cxx::__normal_iterator", %"class.__gnu_cxx::__normal_iterator"* %8, i32 0, i32 0
  %31 = load %"struct.std::pair"*, %"struct.std::pair"** %30, align 8
  call void @_ZSt22__final_insertion_sortIN9__gnu_cxx17__normal_iteratorIPSt4pairIddESt6vectorIS3_SaIS3_EEEENS0_5__ops15_Iter_less_iterEEvT_SB_T0_(%"struct.std::pair"* %29, %"struct.std::pair"* %31)
  br label %32

32:                                               ; preds = %12, %2
  ret void
}

; Function Attrs: noinline nounwind uwtable
define linkonce_odr void @_ZN9__gnu_cxx5__ops16__iter_less_iterEv() #1 comdat {
  ret void
}

; Function Attrs: noinline nounwind uwtable
define linkonce_odr zeroext i1 @_ZN9__gnu_cxxneIPSt4pairIddESt6vectorIS2_SaIS2_EEEEbRKNS_17__normal_iteratorIT_T0_EESC_(%"class.__gnu_cxx::__normal_iterator"* dereferenceable(8) %0, %"class.__gnu_cxx::__normal_iterator"* dereferenceable(8) %1) #1 comdat {
  %3 = call dereferenceable(8) %"struct.std::pair"** @_ZNK9__gnu_cxx17__normal_iteratorIPSt4pairIddESt6vectorIS2_SaIS2_EEE4baseEv(%"class.__gnu_cxx::__normal_iterator"* %0) #12
  %4 = load %"struct.std::pair"*, %"struct.std::pair"** %3, align 8
  %5 = call dereferenceable(8) %"struct.std::pair"** @_ZNK9__gnu_cxx17__normal_iteratorIPSt4pairIddESt6vectorIS2_SaIS2_EEE4baseEv(%"class.__gnu_cxx::__normal_iterator"* %1) #12
  %6 = load %"struct.std::pair"*, %"struct.std::pair"** %5, align 8
  %7 = icmp ne %"struct.std::pair"* %4, %6
  ret i1 %7
}

; Function Attrs: noinline uwtable
define linkonce_odr void @_ZSt16__introsort_loopIN9__gnu_cxx17__normal_iteratorIPSt4pairIddESt6vectorIS3_SaIS3_EEEElNS0_5__ops15_Iter_less_iterEEvT_SB_T0_T1_(%"struct.std::pair"* %0, %"struct.std::pair"* %1, i64 %2) #0 comdat {
  %4 = alloca %"class.__gnu_cxx::__normal_iterator", align 8
  %5 = alloca %"class.__gnu_cxx::__normal_iterator", align 8
  %6 = alloca %"class.__gnu_cxx::__normal_iterator", align 8
  %7 = alloca %"class.__gnu_cxx::__normal_iterator", align 8
  %8 = alloca %"class.__gnu_cxx::__normal_iterator", align 8
  %9 = alloca %"class.__gnu_cxx::__normal_iterator", align 8
  %10 = alloca %"class.__gnu_cxx::__normal_iterator", align 8
  %11 = alloca %"class.__gnu_cxx::__normal_iterator", align 8
  %12 = alloca %"class.__gnu_cxx::__normal_iterator", align 8
  %13 = alloca %"class.__gnu_cxx::__normal_iterator", align 8
  %14 = getelementptr inbounds %"class.__gnu_cxx::__normal_iterator", %"class.__gnu_cxx::__normal_iterator"* %4, i32 0, i32 0
  store %"struct.std::pair"* %0, %"struct.std::pair"** %14, align 8
  %15 = getelementptr inbounds %"class.__gnu_cxx::__normal_iterator", %"class.__gnu_cxx::__normal_iterator"* %5, i32 0, i32 0
  store %"struct.std::pair"* %1, %"struct.std::pair"** %15, align 8
  br label %16

16:                                               ; preds = %34, %3
  %.0 = phi i64 [ %2, %3 ], [ %35, %34 ]
  %17 = call i64 @_ZN9__gnu_cxxmiIPSt4pairIddESt6vectorIS2_SaIS2_EEEENS_17__normal_iteratorIT_T0_E15difference_typeERKSA_SD_(%"class.__gnu_cxx::__normal_iterator"* dereferenceable(8) %5, %"class.__gnu_cxx::__normal_iterator"* dereferenceable(8) %4) #12
  %18 = icmp sgt i64 %17, 16
  br i1 %18, label %19, label %56

19:                                               ; preds = %16
  %20 = icmp eq i64 %.0, 0
  br i1 %20, label %21, label %34

21:                                               ; preds = %19
  %22 = bitcast %"class.__gnu_cxx::__normal_iterator"* %6 to i8*
  %23 = bitcast %"class.__gnu_cxx::__normal_iterator"* %4 to i8*
  call void @llvm.memcpy.p0i8.p0i8.i64(i8* align 8 %22, i8* align 8 %23, i64 8, i1 false)
  %24 = bitcast %"class.__gnu_cxx::__normal_iterator"* %7 to i8*
  %25 = bitcast %"class.__gnu_cxx::__normal_iterator"* %5 to i8*
  call void @llvm.memcpy.p0i8.p0i8.i64(i8* align 8 %24, i8* align 8 %25, i64 8, i1 false)
  %26 = bitcast %"class.__gnu_cxx::__normal_iterator"* %8 to i8*
  %27 = bitcast %"class.__gnu_cxx::__normal_iterator"* %5 to i8*
  call void @llvm.memcpy.p0i8.p0i8.i64(i8* align 8 %26, i8* align 8 %27, i64 8, i1 false)
  %28 = getelementptr inbounds %"class.__gnu_cxx::__normal_iterator", %"class.__gnu_cxx::__normal_iterator"* %6, i32 0, i32 0
  %29 = load %"struct.std::pair"*, %"struct.std::pair"** %28, align 8
  %30 = getelementptr inbounds %"class.__gnu_cxx::__normal_iterator", %"class.__gnu_cxx::__normal_iterator"* %7, i32 0, i32 0
  %31 = load %"struct.std::pair"*, %"struct.std::pair"** %30, align 8
  %32 = getelementptr inbounds %"class.__gnu_cxx::__normal_iterator", %"class.__gnu_cxx::__normal_iterator"* %8, i32 0, i32 0
  %33 = load %"struct.std::pair"*, %"struct.std::pair"** %32, align 8
  call void @_ZSt14__partial_sortIN9__gnu_cxx17__normal_iteratorIPSt4pairIddESt6vectorIS3_SaIS3_EEEENS0_5__ops15_Iter_less_iterEEvT_SB_SB_T0_(%"struct.std::pair"* %29, %"struct.std::pair"* %31, %"struct.std::pair"* %33)
  br label %56

34:                                               ; preds = %19
  %35 = add nsw i64 %.0, -1
  %36 = bitcast %"class.__gnu_cxx::__normal_iterator"* %10 to i8*
  %37 = bitcast %"class.__gnu_cxx::__normal_iterator"* %4 to i8*
  call void @llvm.memcpy.p0i8.p0i8.i64(i8* align 8 %36, i8* align 8 %37, i64 8, i1 false)
  %38 = bitcast %"class.__gnu_cxx::__normal_iterator"* %11 to i8*
  %39 = bitcast %"class.__gnu_cxx::__normal_iterator"* %5 to i8*
  call void @llvm.memcpy.p0i8.p0i8.i64(i8* align 8 %38, i8* align 8 %39, i64 8, i1 false)
  %40 = getelementptr inbounds %"class.__gnu_cxx::__normal_iterator", %"class.__gnu_cxx::__normal_iterator"* %10, i32 0, i32 0
  %41 = load %"struct.std::pair"*, %"struct.std::pair"** %40, align 8
  %42 = getelementptr inbounds %"class.__gnu_cxx::__normal_iterator", %"class.__gnu_cxx::__normal_iterator"* %11, i32 0, i32 0
  %43 = load %"struct.std::pair"*, %"struct.std::pair"** %42, align 8
  %44 = call %"struct.std::pair"* @_ZSt27__unguarded_partition_pivotIN9__gnu_cxx17__normal_iteratorIPSt4pairIddESt6vectorIS3_SaIS3_EEEENS0_5__ops15_Iter_less_iterEET_SB_SB_T0_(%"struct.std::pair"* %41, %"struct.std::pair"* %43)
  %45 = getelementptr inbounds %"class.__gnu_cxx::__normal_iterator", %"class.__gnu_cxx::__normal_iterator"* %9, i32 0, i32 0
  store %"struct.std::pair"* %44, %"struct.std::pair"** %45, align 8
  %46 = bitcast %"class.__gnu_cxx::__normal_iterator"* %12 to i8*
  %47 = bitcast %"class.__gnu_cxx::__normal_iterator"* %9 to i8*
  call void @llvm.memcpy.p0i8.p0i8.i64(i8* align 8 %46, i8* align 8 %47, i64 8, i1 false)
  %48 = bitcast %"class.__gnu_cxx::__normal_iterator"* %13 to i8*
  %49 = bitcast %"class.__gnu_cxx::__normal_iterator"* %5 to i8*
  call void @llvm.memcpy.p0i8.p0i8.i64(i8* align 8 %48, i8* align 8 %49, i64 8, i1 false)
  %50 = getelementptr inbounds %"class.__gnu_cxx::__normal_iterator", %"class.__gnu_cxx::__normal_iterator"* %12, i32 0, i32 0
  %51 = load %"struct.std::pair"*, %"struct.std::pair"** %50, align 8
  %52 = getelementptr inbounds %"class.__gnu_cxx::__normal_iterator", %"class.__gnu_cxx::__normal_iterator"* %13, i32 0, i32 0
  %53 = load %"struct.std::pair"*, %"struct.std::pair"** %52, align 8
  call void @_ZSt16__introsort_loopIN9__gnu_cxx17__normal_iteratorIPSt4pairIddESt6vectorIS3_SaIS3_EEEElNS0_5__ops15_Iter_less_iterEEvT_SB_T0_T1_(%"struct.std::pair"* %51, %"struct.std::pair"* %53, i64 %35)
  %54 = bitcast %"class.__gnu_cxx::__normal_iterator"* %5 to i8*
  %55 = bitcast %"class.__gnu_cxx::__normal_iterator"* %9 to i8*
  call void @llvm.memcpy.p0i8.p0i8.i64(i8* align 8 %54, i8* align 8 %55, i64 8, i1 false)
  br label %16

56:                                               ; preds = %21, %16
  ret void
}

; Function Attrs: noinline nounwind uwtable
define linkonce_odr i64 @_ZSt4__lgl(i64 %0) #1 comdat {
  %2 = call i64 @llvm.ctlz.i64(i64 %0, i1 true)
  %3 = trunc i64 %2 to i32
  %4 = sub nsw i32 63, %3
  %5 = sext i32 %4 to i64
  ret i64 %5
}

; Function Attrs: noinline uwtable
define linkonce_odr void @_ZSt22__final_insertion_sortIN9__gnu_cxx17__normal_iteratorIPSt4pairIddESt6vectorIS3_SaIS3_EEEENS0_5__ops15_Iter_less_iterEEvT_SB_T0_(%"struct.std::pair"* %0, %"struct.std::pair"* %1) #0 comdat {
  %3 = alloca %"class.__gnu_cxx::__normal_iterator", align 8
  %4 = alloca %"class.__gnu_cxx::__normal_iterator", align 8
  %5 = alloca %"class.__gnu_cxx::__normal_iterator", align 8
  %6 = alloca %"class.__gnu_cxx::__normal_iterator", align 8
  %7 = alloca %"class.__gnu_cxx::__normal_iterator", align 8
  %8 = alloca %"class.__gnu_cxx::__normal_iterator", align 8
  %9 = alloca %"class.__gnu_cxx::__normal_iterator", align 8
  %10 = alloca %"class.__gnu_cxx::__normal_iterator", align 8
  %11 = getelementptr inbounds %"class.__gnu_cxx::__normal_iterator", %"class.__gnu_cxx::__normal_iterator"* %3, i32 0, i32 0
  store %"struct.std::pair"* %0, %"struct.std::pair"** %11, align 8
  %12 = getelementptr inbounds %"class.__gnu_cxx::__normal_iterator", %"class.__gnu_cxx::__normal_iterator"* %4, i32 0, i32 0
  store %"struct.std::pair"* %1, %"struct.std::pair"** %12, align 8
  %13 = call i64 @_ZN9__gnu_cxxmiIPSt4pairIddESt6vectorIS2_SaIS2_EEEENS_17__normal_iteratorIT_T0_E15difference_typeERKSA_SD_(%"class.__gnu_cxx::__normal_iterator"* dereferenceable(8) %4, %"class.__gnu_cxx::__normal_iterator"* dereferenceable(8) %3) #12
  %14 = icmp sgt i64 %13, 16
  br i1 %14, label %15, label %32

15:                                               ; preds = %2
  %16 = bitcast %"class.__gnu_cxx::__normal_iterator"* %5 to i8*
  %17 = bitcast %"class.__gnu_cxx::__normal_iterator"* %3 to i8*
  call void @llvm.memcpy.p0i8.p0i8.i64(i8* align 8 %16, i8* align 8 %17, i64 8, i1 false)
  %18 = call %"struct.std::pair"* @_ZNK9__gnu_cxx17__normal_iteratorIPSt4pairIddESt6vectorIS2_SaIS2_EEEplEl(%"class.__gnu_cxx::__normal_iterator"* %3, i64 16) #12
  %19 = getelementptr inbounds %"class.__gnu_cxx::__normal_iterator", %"class.__gnu_cxx::__normal_iterator"* %6, i32 0, i32 0
  store %"struct.std::pair"* %18, %"struct.std::pair"** %19, align 8
  %20 = getelementptr inbounds %"class.__gnu_cxx::__normal_iterator", %"class.__gnu_cxx::__normal_iterator"* %5, i32 0, i32 0
  %21 = load %"struct.std::pair"*, %"struct.std::pair"** %20, align 8
  %22 = getelementptr inbounds %"class.__gnu_cxx::__normal_iterator", %"class.__gnu_cxx::__normal_iterator"* %6, i32 0, i32 0
  %23 = load %"struct.std::pair"*, %"struct.std::pair"** %22, align 8
  call void @_ZSt16__insertion_sortIN9__gnu_cxx17__normal_iteratorIPSt4pairIddESt6vectorIS3_SaIS3_EEEENS0_5__ops15_Iter_less_iterEEvT_SB_T0_(%"struct.std::pair"* %21, %"struct.std::pair"* %23)
  %24 = call %"struct.std::pair"* @_ZNK9__gnu_cxx17__normal_iteratorIPSt4pairIddESt6vectorIS2_SaIS2_EEEplEl(%"class.__gnu_cxx::__normal_iterator"* %3, i64 16) #12
  %25 = getelementptr inbounds %"class.__gnu_cxx::__normal_iterator", %"class.__gnu_cxx::__normal_iterator"* %7, i32 0, i32 0
  store %"struct.std::pair"* %24, %"struct.std::pair"** %25, align 8
  %26 = bitcast %"class.__gnu_cxx::__normal_iterator"* %8 to i8*
  %27 = bitcast %"class.__gnu_cxx::__normal_iterator"* %4 to i8*
  call void @llvm.memcpy.p0i8.p0i8.i64(i8* align 8 %26, i8* align 8 %27, i64 8, i1 false)
  %28 = getelementptr inbounds %"class.__gnu_cxx::__normal_iterator", %"class.__gnu_cxx::__normal_iterator"* %7, i32 0, i32 0
  %29 = load %"struct.std::pair"*, %"struct.std::pair"** %28, align 8
  %30 = getelementptr inbounds %"class.__gnu_cxx::__normal_iterator", %"class.__gnu_cxx::__normal_iterator"* %8, i32 0, i32 0
  %31 = load %"struct.std::pair"*, %"struct.std::pair"** %30, align 8
  call void @_ZSt26__unguarded_insertion_sortIN9__gnu_cxx17__normal_iteratorIPSt4pairIddESt6vectorIS3_SaIS3_EEEENS0_5__ops15_Iter_less_iterEEvT_SB_T0_(%"struct.std::pair"* %29, %"struct.std::pair"* %31)
  br label %41

32:                                               ; preds = %2
  %33 = bitcast %"class.__gnu_cxx::__normal_iterator"* %9 to i8*
  %34 = bitcast %"class.__gnu_cxx::__normal_iterator"* %3 to i8*
  call void @llvm.memcpy.p0i8.p0i8.i64(i8* align 8 %33, i8* align 8 %34, i64 8, i1 false)
  %35 = bitcast %"class.__gnu_cxx::__normal_iterator"* %10 to i8*
  %36 = bitcast %"class.__gnu_cxx::__normal_iterator"* %4 to i8*
  call void @llvm.memcpy.p0i8.p0i8.i64(i8* align 8 %35, i8* align 8 %36, i64 8, i1 false)
  %37 = getelementptr inbounds %"class.__gnu_cxx::__normal_iterator", %"class.__gnu_cxx::__normal_iterator"* %9, i32 0, i32 0
  %38 = load %"struct.std::pair"*, %"struct.std::pair"** %37, align 8
  %39 = getelementptr inbounds %"class.__gnu_cxx::__normal_iterator", %"class.__gnu_cxx::__normal_iterator"* %10, i32 0, i32 0
  %40 = load %"struct.std::pair"*, %"struct.std::pair"** %39, align 8
  call void @_ZSt16__insertion_sortIN9__gnu_cxx17__normal_iteratorIPSt4pairIddESt6vectorIS3_SaIS3_EEEENS0_5__ops15_Iter_less_iterEEvT_SB_T0_(%"struct.std::pair"* %38, %"struct.std::pair"* %40)
  br label %41

41:                                               ; preds = %32, %15
  ret void
}

; Function Attrs: noinline uwtable
define linkonce_odr void @_ZSt14__partial_sortIN9__gnu_cxx17__normal_iteratorIPSt4pairIddESt6vectorIS3_SaIS3_EEEENS0_5__ops15_Iter_less_iterEEvT_SB_SB_T0_(%"struct.std::pair"* %0, %"struct.std::pair"* %1, %"struct.std::pair"* %2) #0 comdat {
  %4 = alloca %"class.__gnu_cxx::__normal_iterator", align 8
  %5 = alloca %"class.__gnu_cxx::__normal_iterator", align 8
  %6 = alloca %"class.__gnu_cxx::__normal_iterator", align 8
  %7 = alloca %"struct.__gnu_cxx::__ops::_Iter_less_iter", align 1
  %8 = alloca %"class.__gnu_cxx::__normal_iterator", align 8
  %9 = alloca %"class.__gnu_cxx::__normal_iterator", align 8
  %10 = alloca %"class.__gnu_cxx::__normal_iterator", align 8
  %11 = alloca %"class.__gnu_cxx::__normal_iterator", align 8
  %12 = alloca %"class.__gnu_cxx::__normal_iterator", align 8
  %13 = getelementptr inbounds %"class.__gnu_cxx::__normal_iterator", %"class.__gnu_cxx::__normal_iterator"* %4, i32 0, i32 0
  store %"struct.std::pair"* %0, %"struct.std::pair"** %13, align 8
  %14 = getelementptr inbounds %"class.__gnu_cxx::__normal_iterator", %"class.__gnu_cxx::__normal_iterator"* %5, i32 0, i32 0
  store %"struct.std::pair"* %1, %"struct.std::pair"** %14, align 8
  %15 = getelementptr inbounds %"class.__gnu_cxx::__normal_iterator", %"class.__gnu_cxx::__normal_iterator"* %6, i32 0, i32 0
  store %"struct.std::pair"* %2, %"struct.std::pair"** %15, align 8
  %16 = bitcast %"class.__gnu_cxx::__normal_iterator"* %8 to i8*
  %17 = bitcast %"class.__gnu_cxx::__normal_iterator"* %4 to i8*
  call void @llvm.memcpy.p0i8.p0i8.i64(i8* align 8 %16, i8* align 8 %17, i64 8, i1 false)
  %18 = bitcast %"class.__gnu_cxx::__normal_iterator"* %9 to i8*
  %19 = bitcast %"class.__gnu_cxx::__normal_iterator"* %5 to i8*
  call void @llvm.memcpy.p0i8.p0i8.i64(i8* align 8 %18, i8* align 8 %19, i64 8, i1 false)
  %20 = bitcast %"class.__gnu_cxx::__normal_iterator"* %10 to i8*
  %21 = bitcast %"class.__gnu_cxx::__normal_iterator"* %6 to i8*
  call void @llvm.memcpy.p0i8.p0i8.i64(i8* align 8 %20, i8* align 8 %21, i64 8, i1 false)
  %22 = getelementptr inbounds %"class.__gnu_cxx::__normal_iterator", %"class.__gnu_cxx::__normal_iterator"* %8, i32 0, i32 0
  %23 = load %"struct.std::pair"*, %"struct.std::pair"** %22, align 8
  %24 = getelementptr inbounds %"class.__gnu_cxx::__normal_iterator", %"class.__gnu_cxx::__normal_iterator"* %9, i32 0, i32 0
  %25 = load %"struct.std::pair"*, %"struct.std::pair"** %24, align 8
  %26 = getelementptr inbounds %"class.__gnu_cxx::__normal_iterator", %"class.__gnu_cxx::__normal_iterator"* %10, i32 0, i32 0
  %27 = load %"struct.std::pair"*, %"struct.std::pair"** %26, align 8
  call void @_ZSt13__heap_selectIN9__gnu_cxx17__normal_iteratorIPSt4pairIddESt6vectorIS3_SaIS3_EEEENS0_5__ops15_Iter_less_iterEEvT_SB_SB_T0_(%"struct.std::pair"* %23, %"struct.std::pair"* %25, %"struct.std::pair"* %27)
  %28 = bitcast %"class.__gnu_cxx::__normal_iterator"* %11 to i8*
  %29 = bitcast %"class.__gnu_cxx::__normal_iterator"* %4 to i8*
  call void @llvm.memcpy.p0i8.p0i8.i64(i8* align 8 %28, i8* align 8 %29, i64 8, i1 false)
  %30 = bitcast %"class.__gnu_cxx::__normal_iterator"* %12 to i8*
  %31 = bitcast %"class.__gnu_cxx::__normal_iterator"* %5 to i8*
  call void @llvm.memcpy.p0i8.p0i8.i64(i8* align 8 %30, i8* align 8 %31, i64 8, i1 false)
  %32 = getelementptr inbounds %"class.__gnu_cxx::__normal_iterator", %"class.__gnu_cxx::__normal_iterator"* %11, i32 0, i32 0
  %33 = load %"struct.std::pair"*, %"struct.std::pair"** %32, align 8
  %34 = getelementptr inbounds %"class.__gnu_cxx::__normal_iterator", %"class.__gnu_cxx::__normal_iterator"* %12, i32 0, i32 0
  %35 = load %"struct.std::pair"*, %"struct.std::pair"** %34, align 8
  call void @_ZSt11__sort_heapIN9__gnu_cxx17__normal_iteratorIPSt4pairIddESt6vectorIS3_SaIS3_EEEENS0_5__ops15_Iter_less_iterEEvT_SB_RT0_(%"struct.std::pair"* %33, %"struct.std::pair"* %35, %"struct.__gnu_cxx::__ops::_Iter_less_iter"* dereferenceable(1) %7)
  ret void
}

; Function Attrs: noinline uwtable
define linkonce_odr %"struct.std::pair"* @_ZSt27__unguarded_partition_pivotIN9__gnu_cxx17__normal_iteratorIPSt4pairIddESt6vectorIS3_SaIS3_EEEENS0_5__ops15_Iter_less_iterEET_SB_SB_T0_(%"struct.std::pair"* %0, %"struct.std::pair"* %1) #0 comdat {
  %3 = alloca %"class.__gnu_cxx::__normal_iterator", align 8
  %4 = alloca %"class.__gnu_cxx::__normal_iterator", align 8
  %5 = alloca %"class.__gnu_cxx::__normal_iterator", align 8
  %6 = alloca %"class.__gnu_cxx::__normal_iterator", align 8
  %7 = alloca %"class.__gnu_cxx::__normal_iterator", align 8
  %8 = alloca %"class.__gnu_cxx::__normal_iterator", align 8
  %9 = alloca %"class.__gnu_cxx::__normal_iterator", align 8
  %10 = alloca %"class.__gnu_cxx::__normal_iterator", align 8
  %11 = alloca %"class.__gnu_cxx::__normal_iterator", align 8
  %12 = alloca %"class.__gnu_cxx::__normal_iterator", align 8
  %13 = alloca %"class.__gnu_cxx::__normal_iterator", align 8
  %14 = getelementptr inbounds %"class.__gnu_cxx::__normal_iterator", %"class.__gnu_cxx::__normal_iterator"* %4, i32 0, i32 0
  store %"struct.std::pair"* %0, %"struct.std::pair"** %14, align 8
  %15 = getelementptr inbounds %"class.__gnu_cxx::__normal_iterator", %"class.__gnu_cxx::__normal_iterator"* %5, i32 0, i32 0
  store %"struct.std::pair"* %1, %"struct.std::pair"** %15, align 8
  %16 = call i64 @_ZN9__gnu_cxxmiIPSt4pairIddESt6vectorIS2_SaIS2_EEEENS_17__normal_iteratorIT_T0_E15difference_typeERKSA_SD_(%"class.__gnu_cxx::__normal_iterator"* dereferenceable(8) %5, %"class.__gnu_cxx::__normal_iterator"* dereferenceable(8) %4) #12
  %17 = sdiv i64 %16, 2
  %18 = call %"struct.std::pair"* @_ZNK9__gnu_cxx17__normal_iteratorIPSt4pairIddESt6vectorIS2_SaIS2_EEEplEl(%"class.__gnu_cxx::__normal_iterator"* %4, i64 %17) #12
  %19 = getelementptr inbounds %"class.__gnu_cxx::__normal_iterator", %"class.__gnu_cxx::__normal_iterator"* %6, i32 0, i32 0
  store %"struct.std::pair"* %18, %"struct.std::pair"** %19, align 8
  %20 = bitcast %"class.__gnu_cxx::__normal_iterator"* %7 to i8*
  %21 = bitcast %"class.__gnu_cxx::__normal_iterator"* %4 to i8*
  call void @llvm.memcpy.p0i8.p0i8.i64(i8* align 8 %20, i8* align 8 %21, i64 8, i1 false)
  %22 = call %"struct.std::pair"* @_ZNK9__gnu_cxx17__normal_iteratorIPSt4pairIddESt6vectorIS2_SaIS2_EEEplEl(%"class.__gnu_cxx::__normal_iterator"* %4, i64 1) #12
  %23 = getelementptr inbounds %"class.__gnu_cxx::__normal_iterator", %"class.__gnu_cxx::__normal_iterator"* %8, i32 0, i32 0
  store %"struct.std::pair"* %22, %"struct.std::pair"** %23, align 8
  %24 = bitcast %"class.__gnu_cxx::__normal_iterator"* %9 to i8*
  %25 = bitcast %"class.__gnu_cxx::__normal_iterator"* %6 to i8*
  call void @llvm.memcpy.p0i8.p0i8.i64(i8* align 8 %24, i8* align 8 %25, i64 8, i1 false)
  %26 = call %"struct.std::pair"* @_ZNK9__gnu_cxx17__normal_iteratorIPSt4pairIddESt6vectorIS2_SaIS2_EEEmiEl(%"class.__gnu_cxx::__normal_iterator"* %5, i64 1) #12
  %27 = getelementptr inbounds %"class.__gnu_cxx::__normal_iterator", %"class.__gnu_cxx::__normal_iterator"* %10, i32 0, i32 0
  store %"struct.std::pair"* %26, %"struct.std::pair"** %27, align 8
  %28 = getelementptr inbounds %"class.__gnu_cxx::__normal_iterator", %"class.__gnu_cxx::__normal_iterator"* %7, i32 0, i32 0
  %29 = load %"struct.std::pair"*, %"struct.std::pair"** %28, align 8
  %30 = getelementptr inbounds %"class.__gnu_cxx::__normal_iterator", %"class.__gnu_cxx::__normal_iterator"* %8, i32 0, i32 0
  %31 = load %"struct.std::pair"*, %"struct.std::pair"** %30, align 8
  %32 = getelementptr inbounds %"class.__gnu_cxx::__normal_iterator", %"class.__gnu_cxx::__normal_iterator"* %9, i32 0, i32 0
  %33 = load %"struct.std::pair"*, %"struct.std::pair"** %32, align 8
  %34 = getelementptr inbounds %"class.__gnu_cxx::__normal_iterator", %"class.__gnu_cxx::__normal_iterator"* %10, i32 0, i32 0
  %35 = load %"struct.std::pair"*, %"struct.std::pair"** %34, align 8
  call void @_ZSt22__move_median_to_firstIN9__gnu_cxx17__normal_iteratorIPSt4pairIddESt6vectorIS3_SaIS3_EEEENS0_5__ops15_Iter_less_iterEEvT_SB_SB_SB_T0_(%"struct.std::pair"* %29, %"struct.std::pair"* %31, %"struct.std::pair"* %33, %"struct.std::pair"* %35)
  %36 = call %"struct.std::pair"* @_ZNK9__gnu_cxx17__normal_iteratorIPSt4pairIddESt6vectorIS2_SaIS2_EEEplEl(%"class.__gnu_cxx::__normal_iterator"* %4, i64 1) #12
  %37 = getelementptr inbounds %"class.__gnu_cxx::__normal_iterator", %"class.__gnu_cxx::__normal_iterator"* %11, i32 0, i32 0
  store %"struct.std::pair"* %36, %"struct.std::pair"** %37, align 8
  %38 = bitcast %"class.__gnu_cxx::__normal_iterator"* %12 to i8*
  %39 = bitcast %"class.__gnu_cxx::__normal_iterator"* %5 to i8*
  call void @llvm.memcpy.p0i8.p0i8.i64(i8* align 8 %38, i8* align 8 %39, i64 8, i1 false)
  %40 = bitcast %"class.__gnu_cxx::__normal_iterator"* %13 to i8*
  %41 = bitcast %"class.__gnu_cxx::__normal_iterator"* %4 to i8*
  call void @llvm.memcpy.p0i8.p0i8.i64(i8* align 8 %40, i8* align 8 %41, i64 8, i1 false)
  %42 = getelementptr inbounds %"class.__gnu_cxx::__normal_iterator", %"class.__gnu_cxx::__normal_iterator"* %11, i32 0, i32 0
  %43 = load %"struct.std::pair"*, %"struct.std::pair"** %42, align 8
  %44 = getelementptr inbounds %"class.__gnu_cxx::__normal_iterator", %"class.__gnu_cxx::__normal_iterator"* %12, i32 0, i32 0
  %45 = load %"struct.std::pair"*, %"struct.std::pair"** %44, align 8
  %46 = getelementptr inbounds %"class.__gnu_cxx::__normal_iterator", %"class.__gnu_cxx::__normal_iterator"* %13, i32 0, i32 0
  %47 = load %"struct.std::pair"*, %"struct.std::pair"** %46, align 8
  %48 = call %"struct.std::pair"* @_ZSt21__unguarded_partitionIN9__gnu_cxx17__normal_iteratorIPSt4pairIddESt6vectorIS3_SaIS3_EEEENS0_5__ops15_Iter_less_iterEET_SB_SB_SB_T0_(%"struct.std::pair"* %43, %"struct.std::pair"* %45, %"struct.std::pair"* %47)
  %49 = getelementptr inbounds %"class.__gnu_cxx::__normal_iterator", %"class.__gnu_cxx::__normal_iterator"* %3, i32 0, i32 0
  store %"struct.std::pair"* %48, %"struct.std::pair"** %49, align 8
  %50 = getelementptr inbounds %"class.__gnu_cxx::__normal_iterator", %"class.__gnu_cxx::__normal_iterator"* %3, i32 0, i32 0
  %51 = load %"struct.std::pair"*, %"struct.std::pair"** %50, align 8
  ret %"struct.std::pair"* %51
}

; Function Attrs: noinline uwtable
define linkonce_odr void @_ZSt13__heap_selectIN9__gnu_cxx17__normal_iteratorIPSt4pairIddESt6vectorIS3_SaIS3_EEEENS0_5__ops15_Iter_less_iterEEvT_SB_SB_T0_(%"struct.std::pair"* %0, %"struct.std::pair"* %1, %"struct.std::pair"* %2) #0 comdat {
  %4 = alloca %"class.__gnu_cxx::__normal_iterator", align 8
  %5 = alloca %"class.__gnu_cxx::__normal_iterator", align 8
  %6 = alloca %"class.__gnu_cxx::__normal_iterator", align 8
  %7 = alloca %"struct.__gnu_cxx::__ops::_Iter_less_iter", align 1
  %8 = alloca %"class.__gnu_cxx::__normal_iterator", align 8
  %9 = alloca %"class.__gnu_cxx::__normal_iterator", align 8
  %10 = alloca %"class.__gnu_cxx::__normal_iterator", align 8
  %11 = alloca %"class.__gnu_cxx::__normal_iterator", align 8
  %12 = alloca %"class.__gnu_cxx::__normal_iterator", align 8
  %13 = alloca %"class.__gnu_cxx::__normal_iterator", align 8
  %14 = alloca %"class.__gnu_cxx::__normal_iterator", align 8
  %15 = alloca %"class.__gnu_cxx::__normal_iterator", align 8
  %16 = getelementptr inbounds %"class.__gnu_cxx::__normal_iterator", %"class.__gnu_cxx::__normal_iterator"* %4, i32 0, i32 0
  store %"struct.std::pair"* %0, %"struct.std::pair"** %16, align 8
  %17 = getelementptr inbounds %"class.__gnu_cxx::__normal_iterator", %"class.__gnu_cxx::__normal_iterator"* %5, i32 0, i32 0
  store %"struct.std::pair"* %1, %"struct.std::pair"** %17, align 8
  %18 = getelementptr inbounds %"class.__gnu_cxx::__normal_iterator", %"class.__gnu_cxx::__normal_iterator"* %6, i32 0, i32 0
  store %"struct.std::pair"* %2, %"struct.std::pair"** %18, align 8
  %19 = bitcast %"class.__gnu_cxx::__normal_iterator"* %8 to i8*
  %20 = bitcast %"class.__gnu_cxx::__normal_iterator"* %4 to i8*
  call void @llvm.memcpy.p0i8.p0i8.i64(i8* align 8 %19, i8* align 8 %20, i64 8, i1 false)
  %21 = bitcast %"class.__gnu_cxx::__normal_iterator"* %9 to i8*
  %22 = bitcast %"class.__gnu_cxx::__normal_iterator"* %5 to i8*
  call void @llvm.memcpy.p0i8.p0i8.i64(i8* align 8 %21, i8* align 8 %22, i64 8, i1 false)
  %23 = getelementptr inbounds %"class.__gnu_cxx::__normal_iterator", %"class.__gnu_cxx::__normal_iterator"* %8, i32 0, i32 0
  %24 = load %"struct.std::pair"*, %"struct.std::pair"** %23, align 8
  %25 = getelementptr inbounds %"class.__gnu_cxx::__normal_iterator", %"class.__gnu_cxx::__normal_iterator"* %9, i32 0, i32 0
  %26 = load %"struct.std::pair"*, %"struct.std::pair"** %25, align 8
  call void @_ZSt11__make_heapIN9__gnu_cxx17__normal_iteratorIPSt4pairIddESt6vectorIS3_SaIS3_EEEENS0_5__ops15_Iter_less_iterEEvT_SB_RT0_(%"struct.std::pair"* %24, %"struct.std::pair"* %26, %"struct.__gnu_cxx::__ops::_Iter_less_iter"* dereferenceable(1) %7)
  %27 = bitcast %"class.__gnu_cxx::__normal_iterator"* %10 to i8*
  %28 = bitcast %"class.__gnu_cxx::__normal_iterator"* %5 to i8*
  call void @llvm.memcpy.p0i8.p0i8.i64(i8* align 8 %27, i8* align 8 %28, i64 8, i1 false)
  br label %29

29:                                               ; preds = %55, %3
  %30 = call zeroext i1 @_ZN9__gnu_cxxltIPSt4pairIddESt6vectorIS2_SaIS2_EEEEbRKNS_17__normal_iteratorIT_T0_EESC_(%"class.__gnu_cxx::__normal_iterator"* dereferenceable(8) %10, %"class.__gnu_cxx::__normal_iterator"* dereferenceable(8) %6) #12
  br i1 %30, label %31, label %57

31:                                               ; preds = %29
  %32 = bitcast %"class.__gnu_cxx::__normal_iterator"* %11 to i8*
  %33 = bitcast %"class.__gnu_cxx::__normal_iterator"* %10 to i8*
  call void @llvm.memcpy.p0i8.p0i8.i64(i8* align 8 %32, i8* align 8 %33, i64 8, i1 false)
  %34 = bitcast %"class.__gnu_cxx::__normal_iterator"* %12 to i8*
  %35 = bitcast %"class.__gnu_cxx::__normal_iterator"* %4 to i8*
  call void @llvm.memcpy.p0i8.p0i8.i64(i8* align 8 %34, i8* align 8 %35, i64 8, i1 false)
  %36 = getelementptr inbounds %"class.__gnu_cxx::__normal_iterator", %"class.__gnu_cxx::__normal_iterator"* %11, i32 0, i32 0
  %37 = load %"struct.std::pair"*, %"struct.std::pair"** %36, align 8
  %38 = getelementptr inbounds %"class.__gnu_cxx::__normal_iterator", %"class.__gnu_cxx::__normal_iterator"* %12, i32 0, i32 0
  %39 = load %"struct.std::pair"*, %"struct.std::pair"** %38, align 8
  %40 = call zeroext i1 @_ZNK9__gnu_cxx5__ops15_Iter_less_iterclINS_17__normal_iteratorIPSt4pairIddESt6vectorIS5_SaIS5_EEEESA_EEbT_T0_(%"struct.__gnu_cxx::__ops::_Iter_less_iter"* %7, %"struct.std::pair"* %37, %"struct.std::pair"* %39)
  br i1 %40, label %41, label %54

41:                                               ; preds = %31
  %42 = bitcast %"class.__gnu_cxx::__normal_iterator"* %13 to i8*
  %43 = bitcast %"class.__gnu_cxx::__normal_iterator"* %4 to i8*
  call void @llvm.memcpy.p0i8.p0i8.i64(i8* align 8 %42, i8* align 8 %43, i64 8, i1 false)
  %44 = bitcast %"class.__gnu_cxx::__normal_iterator"* %14 to i8*
  %45 = bitcast %"class.__gnu_cxx::__normal_iterator"* %5 to i8*
  call void @llvm.memcpy.p0i8.p0i8.i64(i8* align 8 %44, i8* align 8 %45, i64 8, i1 false)
  %46 = bitcast %"class.__gnu_cxx::__normal_iterator"* %15 to i8*
  %47 = bitcast %"class.__gnu_cxx::__normal_iterator"* %10 to i8*
  call void @llvm.memcpy.p0i8.p0i8.i64(i8* align 8 %46, i8* align 8 %47, i64 8, i1 false)
  %48 = getelementptr inbounds %"class.__gnu_cxx::__normal_iterator", %"class.__gnu_cxx::__normal_iterator"* %13, i32 0, i32 0
  %49 = load %"struct.std::pair"*, %"struct.std::pair"** %48, align 8
  %50 = getelementptr inbounds %"class.__gnu_cxx::__normal_iterator", %"class.__gnu_cxx::__normal_iterator"* %14, i32 0, i32 0
  %51 = load %"struct.std::pair"*, %"struct.std::pair"** %50, align 8
  %52 = getelementptr inbounds %"class.__gnu_cxx::__normal_iterator", %"class.__gnu_cxx::__normal_iterator"* %15, i32 0, i32 0
  %53 = load %"struct.std::pair"*, %"struct.std::pair"** %52, align 8
  call void @_ZSt10__pop_heapIN9__gnu_cxx17__normal_iteratorIPSt4pairIddESt6vectorIS3_SaIS3_EEEENS0_5__ops15_Iter_less_iterEEvT_SB_SB_RT0_(%"struct.std::pair"* %49, %"struct.std::pair"* %51, %"struct.std::pair"* %53, %"struct.__gnu_cxx::__ops::_Iter_less_iter"* dereferenceable(1) %7)
  br label %54

54:                                               ; preds = %41, %31
  br label %55

55:                                               ; preds = %54
  %56 = call dereferenceable(8) %"class.__gnu_cxx::__normal_iterator"* @_ZN9__gnu_cxx17__normal_iteratorIPSt4pairIddESt6vectorIS2_SaIS2_EEEppEv(%"class.__gnu_cxx::__normal_iterator"* %10) #12
  br label %29

57:                                               ; preds = %29
  ret void
}

; Function Attrs: noinline uwtable
define linkonce_odr void @_ZSt11__sort_heapIN9__gnu_cxx17__normal_iteratorIPSt4pairIddESt6vectorIS3_SaIS3_EEEENS0_5__ops15_Iter_less_iterEEvT_SB_RT0_(%"struct.std::pair"* %0, %"struct.std::pair"* %1, %"struct.__gnu_cxx::__ops::_Iter_less_iter"* dereferenceable(1) %2) #0 comdat {
  %4 = alloca %"class.__gnu_cxx::__normal_iterator", align 8
  %5 = alloca %"class.__gnu_cxx::__normal_iterator", align 8
  %6 = alloca %"class.__gnu_cxx::__normal_iterator", align 8
  %7 = alloca %"class.__gnu_cxx::__normal_iterator", align 8
  %8 = alloca %"class.__gnu_cxx::__normal_iterator", align 8
  %9 = getelementptr inbounds %"class.__gnu_cxx::__normal_iterator", %"class.__gnu_cxx::__normal_iterator"* %4, i32 0, i32 0
  store %"struct.std::pair"* %0, %"struct.std::pair"** %9, align 8
  %10 = getelementptr inbounds %"class.__gnu_cxx::__normal_iterator", %"class.__gnu_cxx::__normal_iterator"* %5, i32 0, i32 0
  store %"struct.std::pair"* %1, %"struct.std::pair"** %10, align 8
  br label %11

11:                                               ; preds = %14, %3
  %12 = call i64 @_ZN9__gnu_cxxmiIPSt4pairIddESt6vectorIS2_SaIS2_EEEENS_17__normal_iteratorIT_T0_E15difference_typeERKSA_SD_(%"class.__gnu_cxx::__normal_iterator"* dereferenceable(8) %5, %"class.__gnu_cxx::__normal_iterator"* dereferenceable(8) %4) #12
  %13 = icmp sgt i64 %12, 1
  br i1 %13, label %14, label %28

14:                                               ; preds = %11
  %15 = call dereferenceable(8) %"class.__gnu_cxx::__normal_iterator"* @_ZN9__gnu_cxx17__normal_iteratorIPSt4pairIddESt6vectorIS2_SaIS2_EEEmmEv(%"class.__gnu_cxx::__normal_iterator"* %5) #12
  %16 = bitcast %"class.__gnu_cxx::__normal_iterator"* %6 to i8*
  %17 = bitcast %"class.__gnu_cxx::__normal_iterator"* %4 to i8*
  call void @llvm.memcpy.p0i8.p0i8.i64(i8* align 8 %16, i8* align 8 %17, i64 8, i1 false)
  %18 = bitcast %"class.__gnu_cxx::__normal_iterator"* %7 to i8*
  %19 = bitcast %"class.__gnu_cxx::__normal_iterator"* %5 to i8*
  call void @llvm.memcpy.p0i8.p0i8.i64(i8* align 8 %18, i8* align 8 %19, i64 8, i1 false)
  %20 = bitcast %"class.__gnu_cxx::__normal_iterator"* %8 to i8*
  %21 = bitcast %"class.__gnu_cxx::__normal_iterator"* %5 to i8*
  call void @llvm.memcpy.p0i8.p0i8.i64(i8* align 8 %20, i8* align 8 %21, i64 8, i1 false)
  %22 = getelementptr inbounds %"class.__gnu_cxx::__normal_iterator", %"class.__gnu_cxx::__normal_iterator"* %6, i32 0, i32 0
  %23 = load %"struct.std::pair"*, %"struct.std::pair"** %22, align 8
  %24 = getelementptr inbounds %"class.__gnu_cxx::__normal_iterator", %"class.__gnu_cxx::__normal_iterator"* %7, i32 0, i32 0
  %25 = load %"struct.std::pair"*, %"struct.std::pair"** %24, align 8
  %26 = getelementptr inbounds %"class.__gnu_cxx::__normal_iterator", %"class.__gnu_cxx::__normal_iterator"* %8, i32 0, i32 0
  %27 = load %"struct.std::pair"*, %"struct.std::pair"** %26, align 8
  call void @_ZSt10__pop_heapIN9__gnu_cxx17__normal_iteratorIPSt4pairIddESt6vectorIS3_SaIS3_EEEENS0_5__ops15_Iter_less_iterEEvT_SB_SB_RT0_(%"struct.std::pair"* %23, %"struct.std::pair"* %25, %"struct.std::pair"* %27, %"struct.__gnu_cxx::__ops::_Iter_less_iter"* dereferenceable(1) %2)
  br label %11

28:                                               ; preds = %11
  ret void
}

; Function Attrs: noinline uwtable
define linkonce_odr void @_ZSt11__make_heapIN9__gnu_cxx17__normal_iteratorIPSt4pairIddESt6vectorIS3_SaIS3_EEEENS0_5__ops15_Iter_less_iterEEvT_SB_RT0_(%"struct.std::pair"* %0, %"struct.std::pair"* %1, %"struct.__gnu_cxx::__ops::_Iter_less_iter"* dereferenceable(1) %2) #0 comdat {
  %4 = alloca %"class.__gnu_cxx::__normal_iterator", align 8
  %5 = alloca %"class.__gnu_cxx::__normal_iterator", align 8
  %6 = alloca %"struct.std::pair", align 8
  %7 = alloca %"class.__gnu_cxx::__normal_iterator", align 8
  %8 = alloca %"class.__gnu_cxx::__normal_iterator", align 8
  %9 = alloca %"struct.std::pair", align 8
  %10 = getelementptr inbounds %"class.__gnu_cxx::__normal_iterator", %"class.__gnu_cxx::__normal_iterator"* %4, i32 0, i32 0
  store %"struct.std::pair"* %0, %"struct.std::pair"** %10, align 8
  %11 = getelementptr inbounds %"class.__gnu_cxx::__normal_iterator", %"class.__gnu_cxx::__normal_iterator"* %5, i32 0, i32 0
  store %"struct.std::pair"* %1, %"struct.std::pair"** %11, align 8
  %12 = call i64 @_ZN9__gnu_cxxmiIPSt4pairIddESt6vectorIS2_SaIS2_EEEENS_17__normal_iteratorIT_T0_E15difference_typeERKSA_SD_(%"class.__gnu_cxx::__normal_iterator"* dereferenceable(8) %5, %"class.__gnu_cxx::__normal_iterator"* dereferenceable(8) %4) #12
  %13 = icmp slt i64 %12, 2
  br i1 %13, label %14, label %15

14:                                               ; preds = %3
  br label %42

15:                                               ; preds = %3
  %16 = call i64 @_ZN9__gnu_cxxmiIPSt4pairIddESt6vectorIS2_SaIS2_EEEENS_17__normal_iteratorIT_T0_E15difference_typeERKSA_SD_(%"class.__gnu_cxx::__normal_iterator"* dereferenceable(8) %5, %"class.__gnu_cxx::__normal_iterator"* dereferenceable(8) %4) #12
  %17 = sub nsw i64 %16, 2
  %18 = sdiv i64 %17, 2
  br label %19

19:                                               ; preds = %40, %15
  %.0 = phi i64 [ %18, %15 ], [ %41, %40 ]
  %20 = call %"struct.std::pair"* @_ZNK9__gnu_cxx17__normal_iteratorIPSt4pairIddESt6vectorIS2_SaIS2_EEEplEl(%"class.__gnu_cxx::__normal_iterator"* %4, i64 %.0) #12
  %21 = getelementptr inbounds %"class.__gnu_cxx::__normal_iterator", %"class.__gnu_cxx::__normal_iterator"* %7, i32 0, i32 0
  store %"struct.std::pair"* %20, %"struct.std::pair"** %21, align 8
  %22 = call dereferenceable(16) %"struct.std::pair"* @_ZNK9__gnu_cxx17__normal_iteratorIPSt4pairIddESt6vectorIS2_SaIS2_EEEdeEv(%"class.__gnu_cxx::__normal_iterator"* %7) #12
  %23 = call dereferenceable(16) %"struct.std::pair"* @_ZSt4moveIRSt4pairIddEEONSt16remove_referenceIT_E4typeEOS4_(%"struct.std::pair"* dereferenceable(16) %22) #12
  %24 = bitcast %"struct.std::pair"* %6 to i8*
  %25 = bitcast %"struct.std::pair"* %23 to i8*
  call void @llvm.memcpy.p0i8.p0i8.i64(i8* align 8 %24, i8* align 8 %25, i64 16, i1 false)
  %26 = bitcast %"class.__gnu_cxx::__normal_iterator"* %8 to i8*
  %27 = bitcast %"class.__gnu_cxx::__normal_iterator"* %4 to i8*
  call void @llvm.memcpy.p0i8.p0i8.i64(i8* align 8 %26, i8* align 8 %27, i64 8, i1 false)
  %28 = call dereferenceable(16) %"struct.std::pair"* @_ZSt4moveIRSt4pairIddEEONSt16remove_referenceIT_E4typeEOS4_(%"struct.std::pair"* dereferenceable(16) %6) #12
  %29 = bitcast %"struct.std::pair"* %9 to i8*
  %30 = bitcast %"struct.std::pair"* %28 to i8*
  call void @llvm.memcpy.p0i8.p0i8.i64(i8* align 8 %29, i8* align 8 %30, i64 16, i1 false)
  %31 = getelementptr inbounds %"class.__gnu_cxx::__normal_iterator", %"class.__gnu_cxx::__normal_iterator"* %8, i32 0, i32 0
  %32 = load %"struct.std::pair"*, %"struct.std::pair"** %31, align 8
  %33 = bitcast %"struct.std::pair"* %9 to { double, double }*
  %34 = getelementptr inbounds { double, double }, { double, double }* %33, i32 0, i32 0
  %35 = load double, double* %34, align 8
  %36 = getelementptr inbounds { double, double }, { double, double }* %33, i32 0, i32 1
  %37 = load double, double* %36, align 8
  call void @_ZSt13__adjust_heapIN9__gnu_cxx17__normal_iteratorIPSt4pairIddESt6vectorIS3_SaIS3_EEEElS3_NS0_5__ops15_Iter_less_iterEEvT_T0_SC_T1_T2_(%"struct.std::pair"* %32, i64 %.0, i64 %16, double %35, double %37)
  %38 = icmp eq i64 %.0, 0
  br i1 %38, label %39, label %40

39:                                               ; preds = %19
  br label %42

40:                                               ; preds = %19
  %41 = add nsw i64 %.0, -1
  br label %19

42:                                               ; preds = %39, %14
  ret void
}

; Function Attrs: noinline nounwind uwtable
define linkonce_odr zeroext i1 @_ZN9__gnu_cxxltIPSt4pairIddESt6vectorIS2_SaIS2_EEEEbRKNS_17__normal_iteratorIT_T0_EESC_(%"class.__gnu_cxx::__normal_iterator"* dereferenceable(8) %0, %"class.__gnu_cxx::__normal_iterator"* dereferenceable(8) %1) #1 comdat {
  %3 = call dereferenceable(8) %"struct.std::pair"** @_ZNK9__gnu_cxx17__normal_iteratorIPSt4pairIddESt6vectorIS2_SaIS2_EEE4baseEv(%"class.__gnu_cxx::__normal_iterator"* %0) #12
  %4 = load %"struct.std::pair"*, %"struct.std::pair"** %3, align 8
  %5 = call dereferenceable(8) %"struct.std::pair"** @_ZNK9__gnu_cxx17__normal_iteratorIPSt4pairIddESt6vectorIS2_SaIS2_EEE4baseEv(%"class.__gnu_cxx::__normal_iterator"* %1) #12
  %6 = load %"struct.std::pair"*, %"struct.std::pair"** %5, align 8
  %7 = icmp ult %"struct.std::pair"* %4, %6
  ret i1 %7
}

; Function Attrs: noinline nounwind uwtable
define linkonce_odr zeroext i1 @_ZNK9__gnu_cxx5__ops15_Iter_less_iterclINS_17__normal_iteratorIPSt4pairIddESt6vectorIS5_SaIS5_EEEESA_EEbT_T0_(%"struct.__gnu_cxx::__ops::_Iter_less_iter"* %0, %"struct.std::pair"* %1, %"struct.std::pair"* %2) #1 comdat align 2 {
  %4 = alloca %"class.__gnu_cxx::__normal_iterator", align 8
  %5 = alloca %"class.__gnu_cxx::__normal_iterator", align 8
  %6 = getelementptr inbounds %"class.__gnu_cxx::__normal_iterator", %"class.__gnu_cxx::__normal_iterator"* %4, i32 0, i32 0
  store %"struct.std::pair"* %1, %"struct.std::pair"** %6, align 8
  %7 = getelementptr inbounds %"class.__gnu_cxx::__normal_iterator", %"class.__gnu_cxx::__normal_iterator"* %5, i32 0, i32 0
  store %"struct.std::pair"* %2, %"struct.std::pair"** %7, align 8
  %8 = call dereferenceable(16) %"struct.std::pair"* @_ZNK9__gnu_cxx17__normal_iteratorIPSt4pairIddESt6vectorIS2_SaIS2_EEEdeEv(%"class.__gnu_cxx::__normal_iterator"* %4) #12
  %9 = call dereferenceable(16) %"struct.std::pair"* @_ZNK9__gnu_cxx17__normal_iteratorIPSt4pairIddESt6vectorIS2_SaIS2_EEEdeEv(%"class.__gnu_cxx::__normal_iterator"* %5) #12
  %10 = call zeroext i1 @_ZStltIddEbRKSt4pairIT_T0_ES5_(%"struct.std::pair"* dereferenceable(16) %8, %"struct.std::pair"* dereferenceable(16) %9)
  ret i1 %10
}

; Function Attrs: noinline uwtable
define linkonce_odr void @_ZSt10__pop_heapIN9__gnu_cxx17__normal_iteratorIPSt4pairIddESt6vectorIS3_SaIS3_EEEENS0_5__ops15_Iter_less_iterEEvT_SB_SB_RT0_(%"struct.std::pair"* %0, %"struct.std::pair"* %1, %"struct.std::pair"* %2, %"struct.__gnu_cxx::__ops::_Iter_less_iter"* dereferenceable(1) %3) #0 comdat {
  %5 = alloca %"class.__gnu_cxx::__normal_iterator", align 8
  %6 = alloca %"class.__gnu_cxx::__normal_iterator", align 8
  %7 = alloca %"class.__gnu_cxx::__normal_iterator", align 8
  %8 = alloca %"struct.std::pair", align 8
  %9 = alloca %"class.__gnu_cxx::__normal_iterator", align 8
  %10 = alloca %"struct.std::pair", align 8
  %11 = getelementptr inbounds %"class.__gnu_cxx::__normal_iterator", %"class.__gnu_cxx::__normal_iterator"* %5, i32 0, i32 0
  store %"struct.std::pair"* %0, %"struct.std::pair"** %11, align 8
  %12 = getelementptr inbounds %"class.__gnu_cxx::__normal_iterator", %"class.__gnu_cxx::__normal_iterator"* %6, i32 0, i32 0
  store %"struct.std::pair"* %1, %"struct.std::pair"** %12, align 8
  %13 = getelementptr inbounds %"class.__gnu_cxx::__normal_iterator", %"class.__gnu_cxx::__normal_iterator"* %7, i32 0, i32 0
  store %"struct.std::pair"* %2, %"struct.std::pair"** %13, align 8
  %14 = call dereferenceable(16) %"struct.std::pair"* @_ZNK9__gnu_cxx17__normal_iteratorIPSt4pairIddESt6vectorIS2_SaIS2_EEEdeEv(%"class.__gnu_cxx::__normal_iterator"* %7) #12
  %15 = call dereferenceable(16) %"struct.std::pair"* @_ZSt4moveIRSt4pairIddEEONSt16remove_referenceIT_E4typeEOS4_(%"struct.std::pair"* dereferenceable(16) %14) #12
  %16 = bitcast %"struct.std::pair"* %8 to i8*
  %17 = bitcast %"struct.std::pair"* %15 to i8*
  call void @llvm.memcpy.p0i8.p0i8.i64(i8* align 8 %16, i8* align 8 %17, i64 16, i1 false)
  %18 = call dereferenceable(16) %"struct.std::pair"* @_ZNK9__gnu_cxx17__normal_iteratorIPSt4pairIddESt6vectorIS2_SaIS2_EEEdeEv(%"class.__gnu_cxx::__normal_iterator"* %5) #12
  %19 = call dereferenceable(16) %"struct.std::pair"* @_ZSt4moveIRSt4pairIddEEONSt16remove_referenceIT_E4typeEOS4_(%"struct.std::pair"* dereferenceable(16) %18) #12
  %20 = call dereferenceable(16) %"struct.std::pair"* @_ZNK9__gnu_cxx17__normal_iteratorIPSt4pairIddESt6vectorIS2_SaIS2_EEEdeEv(%"class.__gnu_cxx::__normal_iterator"* %7) #12
  %21 = call dereferenceable(16) %"struct.std::pair"* @_ZNSt4pairIddEaSEOS0_(%"struct.std::pair"* %20, %"struct.std::pair"* dereferenceable(16) %19) #12
  %22 = bitcast %"class.__gnu_cxx::__normal_iterator"* %9 to i8*
  %23 = bitcast %"class.__gnu_cxx::__normal_iterator"* %5 to i8*
  call void @llvm.memcpy.p0i8.p0i8.i64(i8* align 8 %22, i8* align 8 %23, i64 8, i1 false)
  %24 = call i64 @_ZN9__gnu_cxxmiIPSt4pairIddESt6vectorIS2_SaIS2_EEEENS_17__normal_iteratorIT_T0_E15difference_typeERKSA_SD_(%"class.__gnu_cxx::__normal_iterator"* dereferenceable(8) %6, %"class.__gnu_cxx::__normal_iterator"* dereferenceable(8) %5) #12
  %25 = call dereferenceable(16) %"struct.std::pair"* @_ZSt4moveIRSt4pairIddEEONSt16remove_referenceIT_E4typeEOS4_(%"struct.std::pair"* dereferenceable(16) %8) #12
  %26 = bitcast %"struct.std::pair"* %10 to i8*
  %27 = bitcast %"struct.std::pair"* %25 to i8*
  call void @llvm.memcpy.p0i8.p0i8.i64(i8* align 8 %26, i8* align 8 %27, i64 16, i1 false)
  %28 = getelementptr inbounds %"class.__gnu_cxx::__normal_iterator", %"class.__gnu_cxx::__normal_iterator"* %9, i32 0, i32 0
  %29 = load %"struct.std::pair"*, %"struct.std::pair"** %28, align 8
  %30 = bitcast %"struct.std::pair"* %10 to { double, double }*
  %31 = getelementptr inbounds { double, double }, { double, double }* %30, i32 0, i32 0
  %32 = load double, double* %31, align 8
  %33 = getelementptr inbounds { double, double }, { double, double }* %30, i32 0, i32 1
  %34 = load double, double* %33, align 8
  call void @_ZSt13__adjust_heapIN9__gnu_cxx17__normal_iteratorIPSt4pairIddESt6vectorIS3_SaIS3_EEEElS3_NS0_5__ops15_Iter_less_iterEEvT_T0_SC_T1_T2_(%"struct.std::pair"* %29, i64 0, i64 %24, double %32, double %34)
  ret void
}

; Function Attrs: noinline nounwind uwtable
define linkonce_odr dereferenceable(8) %"class.__gnu_cxx::__normal_iterator"* @_ZN9__gnu_cxx17__normal_iteratorIPSt4pairIddESt6vectorIS2_SaIS2_EEEppEv(%"class.__gnu_cxx::__normal_iterator"* %0) #1 comdat align 2 {
  %2 = getelementptr inbounds %"class.__gnu_cxx::__normal_iterator", %"class.__gnu_cxx::__normal_iterator"* %0, i32 0, i32 0
  %3 = load %"struct.std::pair"*, %"struct.std::pair"** %2, align 8
  %4 = getelementptr inbounds %"struct.std::pair", %"struct.std::pair"* %3, i32 1
  store %"struct.std::pair"* %4, %"struct.std::pair"** %2, align 8
  ret %"class.__gnu_cxx::__normal_iterator"* %0
}

; Function Attrs: noinline nounwind uwtable
define linkonce_odr %"struct.std::pair"* @_ZNK9__gnu_cxx17__normal_iteratorIPSt4pairIddESt6vectorIS2_SaIS2_EEEplEl(%"class.__gnu_cxx::__normal_iterator"* %0, i64 %1) #1 comdat align 2 {
  %3 = alloca %"class.__gnu_cxx::__normal_iterator", align 8
  %4 = alloca %"struct.std::pair"*, align 8
  %5 = getelementptr inbounds %"class.__gnu_cxx::__normal_iterator", %"class.__gnu_cxx::__normal_iterator"* %0, i32 0, i32 0
  %6 = load %"struct.std::pair"*, %"struct.std::pair"** %5, align 8
  %7 = getelementptr inbounds %"struct.std::pair", %"struct.std::pair"* %6, i64 %1
  store %"struct.std::pair"* %7, %"struct.std::pair"** %4, align 8
  call void @_ZN9__gnu_cxx17__normal_iteratorIPSt4pairIddESt6vectorIS2_SaIS2_EEEC2ERKS3_(%"class.__gnu_cxx::__normal_iterator"* %3, %"struct.std::pair"** dereferenceable(8) %4) #12
  %8 = getelementptr inbounds %"class.__gnu_cxx::__normal_iterator", %"class.__gnu_cxx::__normal_iterator"* %3, i32 0, i32 0
  %9 = load %"struct.std::pair"*, %"struct.std::pair"** %8, align 8
  ret %"struct.std::pair"* %9
}

; Function Attrs: noinline nounwind uwtable
define linkonce_odr dereferenceable(16) %"struct.std::pair"* @_ZNK9__gnu_cxx17__normal_iteratorIPSt4pairIddESt6vectorIS2_SaIS2_EEEdeEv(%"class.__gnu_cxx::__normal_iterator"* %0) #1 comdat align 2 {
  %2 = getelementptr inbounds %"class.__gnu_cxx::__normal_iterator", %"class.__gnu_cxx::__normal_iterator"* %0, i32 0, i32 0
  %3 = load %"struct.std::pair"*, %"struct.std::pair"** %2, align 8
  ret %"struct.std::pair"* %3
}

; Function Attrs: noinline uwtable
define linkonce_odr void @_ZSt13__adjust_heapIN9__gnu_cxx17__normal_iteratorIPSt4pairIddESt6vectorIS3_SaIS3_EEEElS3_NS0_5__ops15_Iter_less_iterEEvT_T0_SC_T1_T2_(%"struct.std::pair"* %0, i64 %1, i64 %2, double %3, double %4) #0 comdat {
  %6 = alloca %"class.__gnu_cxx::__normal_iterator", align 8
  %7 = alloca %"struct.std::pair", align 8
  %8 = alloca %"struct.__gnu_cxx::__ops::_Iter_less_iter", align 1
  %9 = alloca %"class.__gnu_cxx::__normal_iterator", align 8
  %10 = alloca %"class.__gnu_cxx::__normal_iterator", align 8
  %11 = alloca %"class.__gnu_cxx::__normal_iterator", align 8
  %12 = alloca %"class.__gnu_cxx::__normal_iterator", align 8
  %13 = alloca %"class.__gnu_cxx::__normal_iterator", align 8
  %14 = alloca %"class.__gnu_cxx::__normal_iterator", align 8
  %15 = alloca %"struct.__gnu_cxx::__ops::_Iter_less_val", align 1
  %16 = alloca %"class.__gnu_cxx::__normal_iterator", align 8
  %17 = alloca %"struct.std::pair", align 8
  %18 = getelementptr inbounds %"class.__gnu_cxx::__normal_iterator", %"class.__gnu_cxx::__normal_iterator"* %6, i32 0, i32 0
  store %"struct.std::pair"* %0, %"struct.std::pair"** %18, align 8
  %19 = bitcast %"struct.std::pair"* %7 to { double, double }*
  %20 = getelementptr inbounds { double, double }, { double, double }* %19, i32 0, i32 0
  store double %3, double* %20, align 8
  %21 = getelementptr inbounds { double, double }, { double, double }* %19, i32 0, i32 1
  store double %4, double* %21, align 8
  br label %22

22:                                               ; preds = %41, %5
  %.01 = phi i64 [ %1, %5 ], [ %.12, %41 ]
  %.0 = phi i64 [ %1, %5 ], [ %.12, %41 ]
  %23 = sub nsw i64 %2, 1
  %24 = sdiv i64 %23, 2
  %25 = icmp slt i64 %.01, %24
  br i1 %25, label %26, label %50

26:                                               ; preds = %22
  %27 = add nsw i64 %.01, 1
  %28 = mul nsw i64 2, %27
  %29 = call %"struct.std::pair"* @_ZNK9__gnu_cxx17__normal_iteratorIPSt4pairIddESt6vectorIS2_SaIS2_EEEplEl(%"class.__gnu_cxx::__normal_iterator"* %6, i64 %28) #12
  %30 = getelementptr inbounds %"class.__gnu_cxx::__normal_iterator", %"class.__gnu_cxx::__normal_iterator"* %9, i32 0, i32 0
  store %"struct.std::pair"* %29, %"struct.std::pair"** %30, align 8
  %31 = sub nsw i64 %28, 1
  %32 = call %"struct.std::pair"* @_ZNK9__gnu_cxx17__normal_iteratorIPSt4pairIddESt6vectorIS2_SaIS2_EEEplEl(%"class.__gnu_cxx::__normal_iterator"* %6, i64 %31) #12
  %33 = getelementptr inbounds %"class.__gnu_cxx::__normal_iterator", %"class.__gnu_cxx::__normal_iterator"* %10, i32 0, i32 0
  store %"struct.std::pair"* %32, %"struct.std::pair"** %33, align 8
  %34 = getelementptr inbounds %"class.__gnu_cxx::__normal_iterator", %"class.__gnu_cxx::__normal_iterator"* %9, i32 0, i32 0
  %35 = load %"struct.std::pair"*, %"struct.std::pair"** %34, align 8
  %36 = getelementptr inbounds %"class.__gnu_cxx::__normal_iterator", %"class.__gnu_cxx::__normal_iterator"* %10, i32 0, i32 0
  %37 = load %"struct.std::pair"*, %"struct.std::pair"** %36, align 8
  %38 = call zeroext i1 @_ZNK9__gnu_cxx5__ops15_Iter_less_iterclINS_17__normal_iteratorIPSt4pairIddESt6vectorIS5_SaIS5_EEEESA_EEbT_T0_(%"struct.__gnu_cxx::__ops::_Iter_less_iter"* %8, %"struct.std::pair"* %35, %"struct.std::pair"* %37)
  br i1 %38, label %39, label %41

39:                                               ; preds = %26
  %40 = add nsw i64 %28, -1
  br label %41

41:                                               ; preds = %39, %26
  %.12 = phi i64 [ %40, %39 ], [ %28, %26 ]
  %42 = call %"struct.std::pair"* @_ZNK9__gnu_cxx17__normal_iteratorIPSt4pairIddESt6vectorIS2_SaIS2_EEEplEl(%"class.__gnu_cxx::__normal_iterator"* %6, i64 %.12) #12
  %43 = getelementptr inbounds %"class.__gnu_cxx::__normal_iterator", %"class.__gnu_cxx::__normal_iterator"* %11, i32 0, i32 0
  store %"struct.std::pair"* %42, %"struct.std::pair"** %43, align 8
  %44 = call dereferenceable(16) %"struct.std::pair"* @_ZNK9__gnu_cxx17__normal_iteratorIPSt4pairIddESt6vectorIS2_SaIS2_EEEdeEv(%"class.__gnu_cxx::__normal_iterator"* %11) #12
  %45 = call dereferenceable(16) %"struct.std::pair"* @_ZSt4moveIRSt4pairIddEEONSt16remove_referenceIT_E4typeEOS4_(%"struct.std::pair"* dereferenceable(16) %44) #12
  %46 = call %"struct.std::pair"* @_ZNK9__gnu_cxx17__normal_iteratorIPSt4pairIddESt6vectorIS2_SaIS2_EEEplEl(%"class.__gnu_cxx::__normal_iterator"* %6, i64 %.0) #12
  %47 = getelementptr inbounds %"class.__gnu_cxx::__normal_iterator", %"class.__gnu_cxx::__normal_iterator"* %12, i32 0, i32 0
  store %"struct.std::pair"* %46, %"struct.std::pair"** %47, align 8
  %48 = call dereferenceable(16) %"struct.std::pair"* @_ZNK9__gnu_cxx17__normal_iteratorIPSt4pairIddESt6vectorIS2_SaIS2_EEEdeEv(%"class.__gnu_cxx::__normal_iterator"* %12) #12
  %49 = call dereferenceable(16) %"struct.std::pair"* @_ZNSt4pairIddEaSEOS0_(%"struct.std::pair"* %48, %"struct.std::pair"* dereferenceable(16) %45) #12
  br label %22

50:                                               ; preds = %22
  %51 = and i64 %2, 1
  %52 = icmp eq i64 %51, 0
  br i1 %52, label %53, label %70

53:                                               ; preds = %50
  %54 = sub nsw i64 %2, 2
  %55 = sdiv i64 %54, 2
  %56 = icmp eq i64 %.01, %55
  br i1 %56, label %57, label %70

57:                                               ; preds = %53
  %58 = add nsw i64 %.01, 1
  %59 = mul nsw i64 2, %58
  %60 = sub nsw i64 %59, 1
  %61 = call %"struct.std::pair"* @_ZNK9__gnu_cxx17__normal_iteratorIPSt4pairIddESt6vectorIS2_SaIS2_EEEplEl(%"class.__gnu_cxx::__normal_iterator"* %6, i64 %60) #12
  %62 = getelementptr inbounds %"class.__gnu_cxx::__normal_iterator", %"class.__gnu_cxx::__normal_iterator"* %13, i32 0, i32 0
  store %"struct.std::pair"* %61, %"struct.std::pair"** %62, align 8
  %63 = call dereferenceable(16) %"struct.std::pair"* @_ZNK9__gnu_cxx17__normal_iteratorIPSt4pairIddESt6vectorIS2_SaIS2_EEEdeEv(%"class.__gnu_cxx::__normal_iterator"* %13) #12
  %64 = call dereferenceable(16) %"struct.std::pair"* @_ZSt4moveIRSt4pairIddEEONSt16remove_referenceIT_E4typeEOS4_(%"struct.std::pair"* dereferenceable(16) %63) #12
  %65 = call %"struct.std::pair"* @_ZNK9__gnu_cxx17__normal_iteratorIPSt4pairIddESt6vectorIS2_SaIS2_EEEplEl(%"class.__gnu_cxx::__normal_iterator"* %6, i64 %.0) #12
  %66 = getelementptr inbounds %"class.__gnu_cxx::__normal_iterator", %"class.__gnu_cxx::__normal_iterator"* %14, i32 0, i32 0
  store %"struct.std::pair"* %65, %"struct.std::pair"** %66, align 8
  %67 = call dereferenceable(16) %"struct.std::pair"* @_ZNK9__gnu_cxx17__normal_iteratorIPSt4pairIddESt6vectorIS2_SaIS2_EEEdeEv(%"class.__gnu_cxx::__normal_iterator"* %14) #12
  %68 = call dereferenceable(16) %"struct.std::pair"* @_ZNSt4pairIddEaSEOS0_(%"struct.std::pair"* %67, %"struct.std::pair"* dereferenceable(16) %64) #12
  %69 = sub nsw i64 %59, 1
  br label %70

70:                                               ; preds = %57, %53, %50
  %.1 = phi i64 [ %69, %57 ], [ %.0, %53 ], [ %.0, %50 ]
  %71 = call dereferenceable(1) %"struct.__gnu_cxx::__ops::_Iter_less_iter"* @_ZSt4moveIRN9__gnu_cxx5__ops15_Iter_less_iterEEONSt16remove_referenceIT_E4typeEOS5_(%"struct.__gnu_cxx::__ops::_Iter_less_iter"* dereferenceable(1) %8) #12
  call void @_ZN9__gnu_cxx5__ops14_Iter_less_valC2ENS0_15_Iter_less_iterE(%"struct.__gnu_cxx::__ops::_Iter_less_val"* %15)
  %72 = bitcast %"class.__gnu_cxx::__normal_iterator"* %16 to i8*
  %73 = bitcast %"class.__gnu_cxx::__normal_iterator"* %6 to i8*
  call void @llvm.memcpy.p0i8.p0i8.i64(i8* align 8 %72, i8* align 8 %73, i64 8, i1 false)
  %74 = call dereferenceable(16) %"struct.std::pair"* @_ZSt4moveIRSt4pairIddEEONSt16remove_referenceIT_E4typeEOS4_(%"struct.std::pair"* dereferenceable(16) %7) #12
  %75 = bitcast %"struct.std::pair"* %17 to i8*
  %76 = bitcast %"struct.std::pair"* %74 to i8*
  call void @llvm.memcpy.p0i8.p0i8.i64(i8* align 8 %75, i8* align 8 %76, i64 16, i1 false)
  %77 = getelementptr inbounds %"class.__gnu_cxx::__normal_iterator", %"class.__gnu_cxx::__normal_iterator"* %16, i32 0, i32 0
  %78 = load %"struct.std::pair"*, %"struct.std::pair"** %77, align 8
  %79 = bitcast %"struct.std::pair"* %17 to { double, double }*
  %80 = getelementptr inbounds { double, double }, { double, double }* %79, i32 0, i32 0
  %81 = load double, double* %80, align 8
  %82 = getelementptr inbounds { double, double }, { double, double }* %79, i32 0, i32 1
  %83 = load double, double* %82, align 8
  call void @_ZSt11__push_heapIN9__gnu_cxx17__normal_iteratorIPSt4pairIddESt6vectorIS3_SaIS3_EEEElS3_NS0_5__ops14_Iter_less_valEEvT_T0_SC_T1_RT2_(%"struct.std::pair"* %78, i64 %.1, i64 %1, double %81, double %83, %"struct.__gnu_cxx::__ops::_Iter_less_val"* dereferenceable(1) %15)
  ret void
}

; Function Attrs: noinline nounwind uwtable
define linkonce_odr dereferenceable(16) %"struct.std::pair"* @_ZNSt4pairIddEaSEOS0_(%"struct.std::pair"* %0, %"struct.std::pair"* dereferenceable(16) %1) #1 comdat align 2 {
  %3 = getelementptr inbounds %"struct.std::pair", %"struct.std::pair"* %1, i32 0, i32 0
  %4 = call dereferenceable(8) double* @_ZSt7forwardIdEOT_RNSt16remove_referenceIS0_E4typeE(double* dereferenceable(8) %3) #12
  %5 = load double, double* %4, align 8
  %6 = getelementptr inbounds %"struct.std::pair", %"struct.std::pair"* %0, i32 0, i32 0
  store double %5, double* %6, align 8
  %7 = getelementptr inbounds %"struct.std::pair", %"struct.std::pair"* %1, i32 0, i32 1
  %8 = call dereferenceable(8) double* @_ZSt7forwardIdEOT_RNSt16remove_referenceIS0_E4typeE(double* dereferenceable(8) %7) #12
  %9 = load double, double* %8, align 8
  %10 = getelementptr inbounds %"struct.std::pair", %"struct.std::pair"* %0, i32 0, i32 1
  store double %9, double* %10, align 8
  ret %"struct.std::pair"* %0
}

; Function Attrs: noinline nounwind uwtable
define linkonce_odr dereferenceable(1) %"struct.__gnu_cxx::__ops::_Iter_less_iter"* @_ZSt4moveIRN9__gnu_cxx5__ops15_Iter_less_iterEEONSt16remove_referenceIT_E4typeEOS5_(%"struct.__gnu_cxx::__ops::_Iter_less_iter"* dereferenceable(1) %0) #1 comdat {
  ret %"struct.__gnu_cxx::__ops::_Iter_less_iter"* %0
}

; Function Attrs: noinline nounwind uwtable
define linkonce_odr void @_ZN9__gnu_cxx5__ops14_Iter_less_valC2ENS0_15_Iter_less_iterE(%"struct.__gnu_cxx::__ops::_Iter_less_val"* %0) unnamed_addr #1 comdat align 2 {
  ret void
}

; Function Attrs: noinline uwtable
define linkonce_odr void @_ZSt11__push_heapIN9__gnu_cxx17__normal_iteratorIPSt4pairIddESt6vectorIS3_SaIS3_EEEElS3_NS0_5__ops14_Iter_less_valEEvT_T0_SC_T1_RT2_(%"struct.std::pair"* %0, i64 %1, i64 %2, double %3, double %4, %"struct.__gnu_cxx::__ops::_Iter_less_val"* dereferenceable(1) %5) #0 comdat {
  %7 = alloca %"class.__gnu_cxx::__normal_iterator", align 8
  %8 = alloca %"struct.std::pair", align 8
  %9 = alloca %"class.__gnu_cxx::__normal_iterator", align 8
  %10 = alloca %"class.__gnu_cxx::__normal_iterator", align 8
  %11 = alloca %"class.__gnu_cxx::__normal_iterator", align 8
  %12 = alloca %"class.__gnu_cxx::__normal_iterator", align 8
  %13 = getelementptr inbounds %"class.__gnu_cxx::__normal_iterator", %"class.__gnu_cxx::__normal_iterator"* %7, i32 0, i32 0
  store %"struct.std::pair"* %0, %"struct.std::pair"** %13, align 8
  %14 = bitcast %"struct.std::pair"* %8 to { double, double }*
  %15 = getelementptr inbounds { double, double }, { double, double }* %14, i32 0, i32 0
  store double %3, double* %15, align 8
  %16 = getelementptr inbounds { double, double }, { double, double }* %14, i32 0, i32 1
  store double %4, double* %16, align 8
  %17 = sub nsw i64 %1, 1
  %18 = sdiv i64 %17, 2
  br label %19

19:                                               ; preds = %29, %6
  %.01 = phi i64 [ %18, %6 ], [ %39, %29 ]
  %.0 = phi i64 [ %1, %6 ], [ %.01, %29 ]
  %20 = icmp sgt i64 %.0, %2
  br i1 %20, label %21, label %27

21:                                               ; preds = %19
  %22 = call %"struct.std::pair"* @_ZNK9__gnu_cxx17__normal_iteratorIPSt4pairIddESt6vectorIS2_SaIS2_EEEplEl(%"class.__gnu_cxx::__normal_iterator"* %7, i64 %.01) #12
  %23 = getelementptr inbounds %"class.__gnu_cxx::__normal_iterator", %"class.__gnu_cxx::__normal_iterator"* %9, i32 0, i32 0
  store %"struct.std::pair"* %22, %"struct.std::pair"** %23, align 8
  %24 = getelementptr inbounds %"class.__gnu_cxx::__normal_iterator", %"class.__gnu_cxx::__normal_iterator"* %9, i32 0, i32 0
  %25 = load %"struct.std::pair"*, %"struct.std::pair"** %24, align 8
  %26 = call zeroext i1 @_ZNK9__gnu_cxx5__ops14_Iter_less_valclINS_17__normal_iteratorIPSt4pairIddESt6vectorIS5_SaIS5_EEEES5_EEbT_RT0_(%"struct.__gnu_cxx::__ops::_Iter_less_val"* %5, %"struct.std::pair"* %25, %"struct.std::pair"* dereferenceable(16) %8)
  br label %27

27:                                               ; preds = %21, %19
  %28 = phi i1 [ false, %19 ], [ %26, %21 ]
  br i1 %28, label %29, label %40

29:                                               ; preds = %27
  %30 = call %"struct.std::pair"* @_ZNK9__gnu_cxx17__normal_iteratorIPSt4pairIddESt6vectorIS2_SaIS2_EEEplEl(%"class.__gnu_cxx::__normal_iterator"* %7, i64 %.01) #12
  %31 = getelementptr inbounds %"class.__gnu_cxx::__normal_iterator", %"class.__gnu_cxx::__normal_iterator"* %10, i32 0, i32 0
  store %"struct.std::pair"* %30, %"struct.std::pair"** %31, align 8
  %32 = call dereferenceable(16) %"struct.std::pair"* @_ZNK9__gnu_cxx17__normal_iteratorIPSt4pairIddESt6vectorIS2_SaIS2_EEEdeEv(%"class.__gnu_cxx::__normal_iterator"* %10) #12
  %33 = call dereferenceable(16) %"struct.std::pair"* @_ZSt4moveIRSt4pairIddEEONSt16remove_referenceIT_E4typeEOS4_(%"struct.std::pair"* dereferenceable(16) %32) #12
  %34 = call %"struct.std::pair"* @_ZNK9__gnu_cxx17__normal_iteratorIPSt4pairIddESt6vectorIS2_SaIS2_EEEplEl(%"class.__gnu_cxx::__normal_iterator"* %7, i64 %.0) #12
  %35 = getelementptr inbounds %"class.__gnu_cxx::__normal_iterator", %"class.__gnu_cxx::__normal_iterator"* %11, i32 0, i32 0
  store %"struct.std::pair"* %34, %"struct.std::pair"** %35, align 8
  %36 = call dereferenceable(16) %"struct.std::pair"* @_ZNK9__gnu_cxx17__normal_iteratorIPSt4pairIddESt6vectorIS2_SaIS2_EEEdeEv(%"class.__gnu_cxx::__normal_iterator"* %11) #12
  %37 = call dereferenceable(16) %"struct.std::pair"* @_ZNSt4pairIddEaSEOS0_(%"struct.std::pair"* %36, %"struct.std::pair"* dereferenceable(16) %33) #12
  %38 = sub nsw i64 %.01, 1
  %39 = sdiv i64 %38, 2
  br label %19

40:                                               ; preds = %27
  %41 = call dereferenceable(16) %"struct.std::pair"* @_ZSt4moveIRSt4pairIddEEONSt16remove_referenceIT_E4typeEOS4_(%"struct.std::pair"* dereferenceable(16) %8) #12
  %42 = call %"struct.std::pair"* @_ZNK9__gnu_cxx17__normal_iteratorIPSt4pairIddESt6vectorIS2_SaIS2_EEEplEl(%"class.__gnu_cxx::__normal_iterator"* %7, i64 %.0) #12
  %43 = getelementptr inbounds %"class.__gnu_cxx::__normal_iterator", %"class.__gnu_cxx::__normal_iterator"* %12, i32 0, i32 0
  store %"struct.std::pair"* %42, %"struct.std::pair"** %43, align 8
  %44 = call dereferenceable(16) %"struct.std::pair"* @_ZNK9__gnu_cxx17__normal_iteratorIPSt4pairIddESt6vectorIS2_SaIS2_EEEdeEv(%"class.__gnu_cxx::__normal_iterator"* %12) #12
  %45 = call dereferenceable(16) %"struct.std::pair"* @_ZNSt4pairIddEaSEOS0_(%"struct.std::pair"* %44, %"struct.std::pair"* dereferenceable(16) %41) #12
  ret void
}

; Function Attrs: noinline uwtable
define linkonce_odr zeroext i1 @_ZNK9__gnu_cxx5__ops14_Iter_less_valclINS_17__normal_iteratorIPSt4pairIddESt6vectorIS5_SaIS5_EEEES5_EEbT_RT0_(%"struct.__gnu_cxx::__ops::_Iter_less_val"* %0, %"struct.std::pair"* %1, %"struct.std::pair"* dereferenceable(16) %2) #0 comdat align 2 {
  %4 = alloca %"class.__gnu_cxx::__normal_iterator", align 8
  %5 = getelementptr inbounds %"class.__gnu_cxx::__normal_iterator", %"class.__gnu_cxx::__normal_iterator"* %4, i32 0, i32 0
  store %"struct.std::pair"* %1, %"struct.std::pair"** %5, align 8
  %6 = call dereferenceable(16) %"struct.std::pair"* @_ZNK9__gnu_cxx17__normal_iteratorIPSt4pairIddESt6vectorIS2_SaIS2_EEEdeEv(%"class.__gnu_cxx::__normal_iterator"* %4) #12
  %7 = call zeroext i1 @_ZStltIddEbRKSt4pairIT_T0_ES5_(%"struct.std::pair"* dereferenceable(16) %6, %"struct.std::pair"* dereferenceable(16) %2)
  ret i1 %7
}

; Function Attrs: noinline nounwind uwtable
define linkonce_odr zeroext i1 @_ZStltIddEbRKSt4pairIT_T0_ES5_(%"struct.std::pair"* dereferenceable(16) %0, %"struct.std::pair"* dereferenceable(16) %1) #1 comdat {
  %3 = getelementptr inbounds %"struct.std::pair", %"struct.std::pair"* %0, i32 0, i32 0
  %4 = load double, double* %3, align 8
  %5 = getelementptr inbounds %"struct.std::pair", %"struct.std::pair"* %1, i32 0, i32 0
  %6 = load double, double* %5, align 8
  %7 = fcmp olt double %4, %6
  br i1 %7, label %22, label %8

8:                                                ; preds = %2
  %9 = getelementptr inbounds %"struct.std::pair", %"struct.std::pair"* %1, i32 0, i32 0
  %10 = load double, double* %9, align 8
  %11 = getelementptr inbounds %"struct.std::pair", %"struct.std::pair"* %0, i32 0, i32 0
  %12 = load double, double* %11, align 8
  %13 = fcmp olt double %10, %12
  br i1 %13, label %20, label %14

14:                                               ; preds = %8
  %15 = getelementptr inbounds %"struct.std::pair", %"struct.std::pair"* %0, i32 0, i32 1
  %16 = load double, double* %15, align 8
  %17 = getelementptr inbounds %"struct.std::pair", %"struct.std::pair"* %1, i32 0, i32 1
  %18 = load double, double* %17, align 8
  %19 = fcmp olt double %16, %18
  br label %20

20:                                               ; preds = %14, %8
  %21 = phi i1 [ false, %8 ], [ %19, %14 ]
  br label %22

22:                                               ; preds = %20, %2
  %23 = phi i1 [ true, %2 ], [ %21, %20 ]
  ret i1 %23
}

; Function Attrs: noinline nounwind uwtable
