; ModuleID = '/home/pedro/tcc/exDataset/codenet/data/selection/p01723/s668461618.ll'
source_filename = "/home/pedro/tcc/exDataset/codenet/data/selection/p01723/s668461618.cpp"
target datalayout = "e-m:e-i64:64-f80:128-n8:16:32:64-S128"
target triple = "x86_64-pc-linux-gnu"

%"class.std::ios_base::Init" = type { i8 }
%"class.std::vector" = type { %"struct.std::_Vector_base" }
%"struct.std::_Vector_base" = type { %"struct.std::_Vector_base<long long, std::allocator<long long> >::_Vector_impl" }
%"struct.std::_Vector_base<long long, std::allocator<long long> >::_Vector_impl" = type { i64*, i64*, i64* }
%"class.std::basic_istream" = type { i32 (...)**, i64, %"class.std::basic_ios" }
%"class.std::basic_ios" = type { %"class.std::ios_base", %"class.std::basic_ostream"*, i8, i8, %"class.std::basic_streambuf"*, %"class.std::ctype"*, %"class.std::num_put"*, %"class.std::num_get"* }
%"class.std::ios_base" = type { i32 (...)**, i64, i64, i32, i32, i32, %"struct.std::ios_base::_Callback_list"*, %"struct.std::ios_base::_Words", [8 x %"struct.std::ios_base::_Words"], i32, %"struct.std::ios_base::_Words"*, %"class.std::locale" }
%"struct.std::ios_base::_Callback_list" = type { %"struct.std::ios_base::_Callback_list"*, void (i32, %"class.std::ios_base"*, i32)*, i32, i32 }
%"struct.std::ios_base::_Words" = type { i8*, i64 }
%"class.std::locale" = type { %"class.std::locale::_Impl"* }
%"class.std::locale::_Impl" = type { i32, %"class.std::locale::facet"**, i64, %"class.std::locale::facet"**, i8** }
%"class.std::locale::facet" = type <{ i32 (...)**, i32, [4 x i8] }>
%"class.std::basic_ostream" = type { i32 (...)**, %"class.std::basic_ios" }
%"class.std::basic_streambuf" = type { i32 (...)**, i8*, i8*, i8*, i8*, i8*, i8*, %"class.std::locale" }
%"class.std::ctype" = type <{ %"class.std::locale::facet.base", [4 x i8], %struct.__locale_struct*, i8, [7 x i8], i32*, i32*, i16*, i8, [256 x i8], [256 x i8], i8, [6 x i8] }>
%"class.std::locale::facet.base" = type <{ i32 (...)**, i32 }>
%struct.__locale_struct = type { [13 x %struct.__locale_data*], i16*, i32*, i32*, [13 x i8*] }
%struct.__locale_data = type opaque
%"class.std::num_put" = type { %"class.std::locale::facet.base", [4 x i8] }
%"class.std::num_get" = type { %"class.std::locale::facet.base", [4 x i8] }
%"class.std::allocator" = type { i8 }
%"class.__gnu_cxx::__normal_iterator" = type { i64* }
%"class.__gnu_cxx::__normal_iterator.0" = type { i64* }
%"struct.std::_Setprecision" = type { i32 }
%"class.__gnu_cxx::new_allocator" = type { i8 }
%"class.std::move_iterator" = type { i64* }

$_ZNSt6vectorIxSaIxEEC2Ev = comdat any

$_ZNSt6vectorIxSaIxEED2Ev = comdat any

$_ZNKSt6vectorIxSaIxEE5emptyEv = comdat any

$_ZNSt6vectorIxSaIxEE5beginEv = comdat any

$_ZNSt6vectorIxSaIxEE3endEv = comdat any

$_ZN9__gnu_cxxneIPxSt6vectorIxSaIxEEEEbRKNS_17__normal_iteratorIT_T0_EESA_ = comdat any

$_ZNK9__gnu_cxx17__normal_iteratorIPxSt6vectorIxSaIxEEEdeEv = comdat any

$_ZN9__gnu_cxx17__normal_iteratorIPxSt6vectorIxSaIxEEEppEv = comdat any

$_ZNSt6vectorIxSaIxEEixEm = comdat any

$_ZSt4swapIPxENSt9enable_ifIXsr6__and_ISt6__not_ISt15__is_tuple_likeIT_EESt21is_move_constructibleIS4_ESt18is_move_assignableIS4_EEE5valueEvE4typeERS4_SD_ = comdat any

$_ZSt5fixedRSt8ios_base = comdat any

$_ZSt12setprecisioni = comdat any

$_ZNSt6vectorIxSaIxEE9push_backERKx = comdat any

$_ZNSt8ios_base4setfESt13_Ios_FmtflagsS0_ = comdat any

$_ZStaNRSt13_Ios_FmtflagsS_ = comdat any

$_ZStcoSt13_Ios_Fmtflags = comdat any

$_ZStoRRSt13_Ios_FmtflagsS_ = comdat any

$_ZStanSt13_Ios_FmtflagsS_ = comdat any

$_ZStorSt13_Ios_FmtflagsS_ = comdat any

$_ZNSt12_Vector_baseIxSaIxEEC2Ev = comdat any

$__clang_call_terminate = comdat any

$_ZNSt12_Vector_baseIxSaIxEE12_Vector_implC2Ev = comdat any

$_ZNSaIxEC2Ev = comdat any

$_ZN9__gnu_cxx13new_allocatorIxEC2Ev = comdat any

$_ZSt8_DestroyIPxxEvT_S1_RSaIT0_E = comdat any

$_ZNSt12_Vector_baseIxSaIxEE19_M_get_Tp_allocatorEv = comdat any

$_ZNSt12_Vector_baseIxSaIxEED2Ev = comdat any

$_ZSt8_DestroyIPxEvT_S1_ = comdat any

$_ZNSt12_Destroy_auxILb1EE9__destroyIPxEEvT_S3_ = comdat any

$_ZNSt12_Vector_baseIxSaIxEE13_M_deallocateEPxm = comdat any

$_ZNSt12_Vector_baseIxSaIxEE12_Vector_implD2Ev = comdat any

$_ZNSt16allocator_traitsISaIxEE10deallocateERS0_Pxm = comdat any

$_ZN9__gnu_cxx13new_allocatorIxE10deallocateEPxm = comdat any

$_ZNSaIxED2Ev = comdat any

$_ZN9__gnu_cxx13new_allocatorIxED2Ev = comdat any

$_ZN9__gnu_cxxeqIPKxSt6vectorIxSaIxEEEEbRKNS_17__normal_iteratorIT_T0_EESB_ = comdat any

$_ZNKSt6vectorIxSaIxEE5beginEv = comdat any

$_ZNKSt6vectorIxSaIxEE3endEv = comdat any

$_ZNK9__gnu_cxx17__normal_iteratorIPKxSt6vectorIxSaIxEEE4baseEv = comdat any

$_ZN9__gnu_cxx17__normal_iteratorIPKxSt6vectorIxSaIxEEEC2ERKS2_ = comdat any

$_ZN9__gnu_cxx17__normal_iteratorIPxSt6vectorIxSaIxEEEC2ERKS1_ = comdat any

$_ZNK9__gnu_cxx17__normal_iteratorIPxSt6vectorIxSaIxEEE4baseEv = comdat any

$_ZSt4moveIRPxEONSt16remove_referenceIT_E4typeEOS3_ = comdat any

$_ZNSt16allocator_traitsISaIxEE9constructIxJRKxEEEvRS0_PT_DpOT0_ = comdat any

$_ZNSt6vectorIxSaIxEE17_M_realloc_insertIJRKxEEEvN9__gnu_cxx17__normal_iteratorIPxS1_EEDpOT_ = comdat any

$_ZN9__gnu_cxx13new_allocatorIxE9constructIxJRKxEEEvPT_DpOT0_ = comdat any

$_ZSt7forwardIRKxEOT_RNSt16remove_referenceIS2_E4typeE = comdat any

$_ZNKSt6vectorIxSaIxEE12_M_check_lenEmPKc = comdat any

$_ZN9__gnu_cxxmiIPxSt6vectorIxSaIxEEEENS_17__normal_iteratorIT_T0_E15difference_typeERKS8_SB_ = comdat any

$_ZNSt12_Vector_baseIxSaIxEE11_M_allocateEm = comdat any

$_ZSt34__uninitialized_move_if_noexcept_aIPxS0_SaIxEET0_T_S3_S2_RT1_ = comdat any

$_ZNSt16allocator_traitsISaIxEE7destroyIxEEvRS0_PT_ = comdat any

$_ZNKSt6vectorIxSaIxEE8max_sizeEv = comdat any

$_ZNKSt6vectorIxSaIxEE4sizeEv = comdat any

$_ZSt3maxImERKT_S2_S2_ = comdat any

$_ZNSt16allocator_traitsISaIxEE8max_sizeERKS0_ = comdat any

$_ZNKSt12_Vector_baseIxSaIxEE19_M_get_Tp_allocatorEv = comdat any

$_ZNK9__gnu_cxx13new_allocatorIxE8max_sizeEv = comdat any

$_ZNSt16allocator_traitsISaIxEE8allocateERS0_m = comdat any

$_ZN9__gnu_cxx13new_allocatorIxE8allocateEmPKv = comdat any

$_ZSt22__uninitialized_copy_aISt13move_iteratorIPxES1_xET0_T_S4_S3_RSaIT1_E = comdat any

$_ZSt32__make_move_if_noexcept_iteratorIxSt13move_iteratorIPxEET0_PT_ = comdat any

$_ZSt18uninitialized_copyISt13move_iteratorIPxES1_ET0_T_S4_S3_ = comdat any

$_ZNSt20__uninitialized_copyILb1EE13__uninit_copyISt13move_iteratorIPxES3_EET0_T_S6_S5_ = comdat any

$_ZSt4copyISt13move_iteratorIPxES1_ET0_T_S4_S3_ = comdat any

$_ZSt14__copy_move_a2ILb1EPxS0_ET1_T0_S2_S1_ = comdat any

$_ZSt12__miter_baseIPxEDTcl12__miter_basecldtfp_4baseEEESt13move_iteratorIT_E = comdat any

$_ZSt13__copy_move_aILb1EPxS0_ET1_T0_S2_S1_ = comdat any

$_ZSt12__niter_baseIPxET_S1_ = comdat any

$_ZNSt11__copy_moveILb1ELb1ESt26random_access_iterator_tagE8__copy_mIxEEPT_PKS3_S6_S4_ = comdat any

$_ZSt12__miter_baseIPxET_S1_ = comdat any

$_ZNKSt13move_iteratorIPxE4baseEv = comdat any

$_ZNSt13move_iteratorIPxEC2ES0_ = comdat any

$_ZN9__gnu_cxx13new_allocatorIxE7destroyIxEEvPT_ = comdat any

@_ZStL8__ioinit = internal global %"class.std::ios_base::Init" zeroinitializer, align 1
@__dso_handle = external hidden global i8
@N = global i64 0, align 8
@graph = global [222 x %"class.std::vector"] zeroinitializer, align 16
@indeg = global [222 x i64] zeroinitializer, align 16
@dp = global [222 x [222 x i64]] zeroinitializer, align 16
@dp2 = global [222 x [222 x [222 x i64]]] zeroinitializer, align 16
@sz = global [222 x i64] zeroinitializer, align 16
@dp3 = global [2 x [222 x i64]] zeroinitializer, align 16
@_ZSt3cin = external global %"class.std::basic_istream", align 8
@_ZSt4cout = external global %"class.std::basic_ostream", align 8
@.str = private unnamed_addr constant [26 x i8] c"vector::_M_realloc_insert\00", align 1
@llvm.global_ctors = appending global [1 x { i32, void ()*, i8* }] [{ i32, void ()*, i8* } { i32 65535, void ()* @_GLOBAL__sub_I_s668461618.cpp, i8* null }]

; Function Attrs: noinline uwtable
define internal void @__cxx_global_var_init() #0 section ".text.startup" {
  call void @_ZNSt8ios_base4InitC1Ev(%"class.std::ios_base::Init"* @_ZStL8__ioinit)
  %1 = call i32 @__cxa_atexit(void (i8*)* bitcast (void (%"class.std::ios_base::Init"*)* @_ZNSt8ios_base4InitD1Ev to void (i8*)*), i8* getelementptr inbounds (%"class.std::ios_base::Init", %"class.std::ios_base::Init"* @_ZStL8__ioinit, i32 0, i32 0), i8* @__dso_handle) #3
  ret void
}

declare void @_ZNSt8ios_base4InitC1Ev(%"class.std::ios_base::Init"*) unnamed_addr #1

; Function Attrs: nounwind
declare void @_ZNSt8ios_base4InitD1Ev(%"class.std::ios_base::Init"*) unnamed_addr #2

; Function Attrs: nounwind
declare i32 @__cxa_atexit(void (i8*)*, i8*, i8*) #3

; Function Attrs: noinline uwtable
define internal void @__cxx_global_var_init.1() #0 section ".text.startup" {
  br label %1

1:                                                ; preds = %1, %0
  %2 = phi %"class.std::vector"* [ getelementptr inbounds ([222 x %"class.std::vector"], [222 x %"class.std::vector"]* @graph, i32 0, i32 0), %0 ], [ %3, %1 ]
  call void @_ZNSt6vectorIxSaIxEEC2Ev(%"class.std::vector"* %2) #3
  %3 = getelementptr inbounds %"class.std::vector", %"class.std::vector"* %2, i64 1
  %4 = icmp eq %"class.std::vector"* %3, getelementptr inbounds ([222 x %"class.std::vector"], [222 x %"class.std::vector"]* @graph, i64 1, i64 0)
  br i1 %4, label %5, label %1

5:                                                ; preds = %1
  %6 = call i32 @__cxa_atexit(void (i8*)* @__cxx_global_array_dtor, i8* null, i8* @__dso_handle) #3
  ret void
}

; Function Attrs: noinline nounwind uwtable
define linkonce_odr void @_ZNSt6vectorIxSaIxEEC2Ev(%"class.std::vector"* %0) unnamed_addr #4 comdat align 2 personality i8* bitcast (i32 (...)* @__gxx_personality_v0 to i8*) {
  %2 = bitcast %"class.std::vector"* %0 to %"struct.std::_Vector_base"*
  invoke void @_ZNSt12_Vector_baseIxSaIxEEC2Ev(%"struct.std::_Vector_base"* %2)
          to label %3 unwind label %4

3:                                                ; preds = %1
  ret void

4:                                                ; preds = %1
  %5 = landingpad { i8*, i32 }
          catch i8* null
  %6 = extractvalue { i8*, i32 } %5, 0
  call void @__clang_call_terminate(i8* %6) #12
  unreachable
}

; Function Attrs: noinline uwtable
define internal void @__cxx_global_array_dtor(i8* %0) #0 section ".text.startup" {
  br label %2

2:                                                ; preds = %2, %1
  %3 = phi %"class.std::vector"* [ getelementptr inbounds ([222 x %"class.std::vector"], [222 x %"class.std::vector"]* @graph, i64 1, i64 0), %1 ], [ %4, %2 ]
  %4 = getelementptr inbounds %"class.std::vector", %"class.std::vector"* %3, i64 -1
  call void @_ZNSt6vectorIxSaIxEED2Ev(%"class.std::vector"* %4) #3
  %5 = icmp eq %"class.std::vector"* %4, getelementptr inbounds ([222 x %"class.std::vector"], [222 x %"class.std::vector"]* @graph, i32 0, i32 0)
  br i1 %5, label %6, label %2

6:                                                ; preds = %2
  ret void
}

; Function Attrs: noinline nounwind uwtable
define linkonce_odr void @_ZNSt6vectorIxSaIxEED2Ev(%"class.std::vector"* %0) unnamed_addr #4 comdat align 2 personality i8* bitcast (i32 (...)* @__gxx_personality_v0 to i8*) {
  %2 = bitcast %"class.std::vector"* %0 to %"struct.std::_Vector_base"*
  %3 = getelementptr inbounds %"struct.std::_Vector_base", %"struct.std::_Vector_base"* %2, i32 0, i32 0
  %4 = getelementptr inbounds %"struct.std::_Vector_base<long long, std::allocator<long long> >::_Vector_impl", %"struct.std::_Vector_base<long long, std::allocator<long long> >::_Vector_impl"* %3, i32 0, i32 0
  %5 = load i64*, i64** %4, align 8
  %6 = bitcast %"class.std::vector"* %0 to %"struct.std::_Vector_base"*
  %7 = getelementptr inbounds %"struct.std::_Vector_base", %"struct.std::_Vector_base"* %6, i32 0, i32 0
  %8 = getelementptr inbounds %"struct.std::_Vector_base<long long, std::allocator<long long> >::_Vector_impl", %"struct.std::_Vector_base<long long, std::allocator<long long> >::_Vector_impl"* %7, i32 0, i32 1
  %9 = load i64*, i64** %8, align 8
  %10 = bitcast %"class.std::vector"* %0 to %"struct.std::_Vector_base"*
  %11 = call dereferenceable(1) %"class.std::allocator"* @_ZNSt12_Vector_baseIxSaIxEE19_M_get_Tp_allocatorEv(%"struct.std::_Vector_base"* %10) #3
  invoke void @_ZSt8_DestroyIPxxEvT_S1_RSaIT0_E(i64* %5, i64* %9, %"class.std::allocator"* dereferenceable(1) %11)
          to label %12 unwind label %14

12:                                               ; preds = %1
  %13 = bitcast %"class.std::vector"* %0 to %"struct.std::_Vector_base"*
  call void @_ZNSt12_Vector_baseIxSaIxEED2Ev(%"struct.std::_Vector_base"* %13) #3
  ret void

14:                                               ; preds = %1
  %15 = landingpad { i8*, i32 }
          catch i8* null
  %16 = extractvalue { i8*, i32 } %15, 0
  %17 = extractvalue { i8*, i32 } %15, 1
  %18 = bitcast %"class.std::vector"* %0 to %"struct.std::_Vector_base"*
  call void @_ZNSt12_Vector_baseIxSaIxEED2Ev(%"struct.std::_Vector_base"* %18) #3
  br label %19

19:                                               ; preds = %14
  call void @__clang_call_terminate(i8* %16) #12
  unreachable
}

; Function Attrs: noinline uwtable
define i64 @_Z3dfsx(i64 %0) #0 {
  %2 = alloca %"class.__gnu_cxx::__normal_iterator", align 8
  %3 = alloca %"class.__gnu_cxx::__normal_iterator", align 8
  %4 = alloca i64*, align 8
  %5 = alloca i64*, align 8
  %6 = alloca %"class.__gnu_cxx::__normal_iterator", align 8
  %7 = alloca %"class.__gnu_cxx::__normal_iterator", align 8
  %8 = getelementptr inbounds [222 x i64], [222 x i64]* @sz, i64 0, i64 %0
  store i64 1, i64* %8, align 8
  %9 = getelementptr inbounds [222 x %"class.std::vector"], [222 x %"class.std::vector"]* @graph, i64 0, i64 %0
  %10 = call zeroext i1 @_ZNKSt6vectorIxSaIxEE5emptyEv(%"class.std::vector"* %9) #3
  br i1 %10, label %11, label %16

11:                                               ; preds = %1
  %12 = getelementptr inbounds [222 x [222 x i64]], [222 x [222 x i64]]* @dp, i64 0, i64 %0
  %13 = getelementptr inbounds [222 x i64], [222 x i64]* %12, i64 0, i64 1
  store i64 1, i64* %13, align 8
  %14 = getelementptr inbounds [222 x i64], [222 x i64]* @sz, i64 0, i64 %0
  %15 = load i64, i64* %14, align 8
  br label %138

16:                                               ; preds = %1
  %17 = getelementptr inbounds [222 x %"class.std::vector"], [222 x %"class.std::vector"]* @graph, i64 0, i64 %0
  %18 = call i64* @_ZNSt6vectorIxSaIxEE5beginEv(%"class.std::vector"* %17) #3
  %19 = getelementptr inbounds %"class.__gnu_cxx::__normal_iterator", %"class.__gnu_cxx::__normal_iterator"* %2, i32 0, i32 0
  store i64* %18, i64** %19, align 8
  %20 = call i64* @_ZNSt6vectorIxSaIxEE3endEv(%"class.std::vector"* %17) #3
  %21 = getelementptr inbounds %"class.__gnu_cxx::__normal_iterator", %"class.__gnu_cxx::__normal_iterator"* %3, i32 0, i32 0
  store i64* %20, i64** %21, align 8
  br label %22

22:                                               ; preds = %31, %16
  %23 = call zeroext i1 @_ZN9__gnu_cxxneIPxSt6vectorIxSaIxEEEEbRKNS_17__normal_iteratorIT_T0_EESA_(%"class.__gnu_cxx::__normal_iterator"* dereferenceable(8) %2, %"class.__gnu_cxx::__normal_iterator"* dereferenceable(8) %3) #3
  br i1 %23, label %24, label %33

24:                                               ; preds = %22
  %25 = call dereferenceable(8) i64* @_ZNK9__gnu_cxx17__normal_iteratorIPxSt6vectorIxSaIxEEEdeEv(%"class.__gnu_cxx::__normal_iterator"* %2) #3
  %26 = load i64, i64* %25, align 8
  %27 = call i64 @_Z3dfsx(i64 %26)
  %28 = getelementptr inbounds [222 x i64], [222 x i64]* @sz, i64 0, i64 %0
  %29 = load i64, i64* %28, align 8
  %30 = add nsw i64 %29, %27
  store i64 %30, i64* %28, align 8
  br label %31

31:                                               ; preds = %24
  %32 = call dereferenceable(8) %"class.__gnu_cxx::__normal_iterator"* @_ZN9__gnu_cxx17__normal_iteratorIPxSt6vectorIxSaIxEEEppEv(%"class.__gnu_cxx::__normal_iterator"* %2) #3
  br label %22

33:                                               ; preds = %22
  call void @llvm.memset.p0i8.i64(i8* align 16 bitcast ([2 x [222 x i64]]* @dp3 to i8*), i8 0, i64 3552, i1 false)
  store i64* getelementptr inbounds ([2 x [222 x i64]], [2 x [222 x i64]]* @dp3, i64 0, i64 0, i32 0), i64** %4, align 8
  store i64* getelementptr inbounds ([2 x [222 x i64]], [2 x [222 x i64]]* @dp3, i64 0, i64 1, i32 0), i64** %5, align 8
  %34 = getelementptr inbounds [222 x %"class.std::vector"], [222 x %"class.std::vector"]* @graph, i64 0, i64 %0
  %35 = call dereferenceable(8) i64* @_ZNSt6vectorIxSaIxEEixEm(%"class.std::vector"* %34, i64 0) #3
  %36 = load i64, i64* %35, align 8
  br label %37

37:                                               ; preds = %49, %33
  %.05 = phi i64 [ 0, %33 ], [ %50, %49 ]
  %38 = getelementptr inbounds [222 x i64], [222 x i64]* @sz, i64 0, i64 %36
  %39 = load i64, i64* %38, align 8
  %40 = add nsw i64 %39, 1
  %41 = icmp slt i64 %.05, %40
  br i1 %41, label %42, label %51

42:                                               ; preds = %37
  %43 = getelementptr inbounds [222 x [222 x i64]], [222 x [222 x i64]]* @dp, i64 0, i64 %36
  %44 = getelementptr inbounds [222 x i64], [222 x i64]* %43, i64 0, i64 %.05
  %45 = load i64, i64* %44, align 8
  %46 = srem i64 %45, 1000000007
  %47 = load i64*, i64** %4, align 8
  %48 = getelementptr inbounds i64, i64* %47, i64 %.05
  store i64 %46, i64* %48, align 8
  br label %49

49:                                               ; preds = %42
  %50 = add nsw i64 %.05, 1
  br label %37

51:                                               ; preds = %37
  %52 = getelementptr inbounds [222 x %"class.std::vector"], [222 x %"class.std::vector"]* @graph, i64 0, i64 %0
  %53 = call i64* @_ZNSt6vectorIxSaIxEE5beginEv(%"class.std::vector"* %52) #3
  %54 = getelementptr inbounds %"class.__gnu_cxx::__normal_iterator", %"class.__gnu_cxx::__normal_iterator"* %6, i32 0, i32 0
  store i64* %53, i64** %54, align 8
  %55 = call i64* @_ZNSt6vectorIxSaIxEE3endEv(%"class.std::vector"* %52) #3
  %56 = getelementptr inbounds %"class.__gnu_cxx::__normal_iterator", %"class.__gnu_cxx::__normal_iterator"* %7, i32 0, i32 0
  store i64* %55, i64** %56, align 8
  br label %57

57:                                               ; preds = %119, %51
  %58 = call zeroext i1 @_ZN9__gnu_cxxneIPxSt6vectorIxSaIxEEEEbRKNS_17__normal_iteratorIT_T0_EESA_(%"class.__gnu_cxx::__normal_iterator"* dereferenceable(8) %6, %"class.__gnu_cxx::__normal_iterator"* dereferenceable(8) %7) #3
  br i1 %58, label %59, label %121

59:                                               ; preds = %57
  %60 = call dereferenceable(8) i64* @_ZNK9__gnu_cxx17__normal_iteratorIPxSt6vectorIxSaIxEEEdeEv(%"class.__gnu_cxx::__normal_iterator"* %6) #3
  %61 = load i64, i64* %60, align 8
  %62 = icmp eq i64 %61, %36
  br i1 %62, label %63, label %64

63:                                               ; preds = %59
  br label %119

64:                                               ; preds = %59
  br label %65

65:                                               ; preds = %70, %64
  %.06 = phi i64 [ 0, %64 ], [ %71, %70 ]
  %66 = icmp slt i64 %.06, 222
  br i1 %66, label %67, label %72

67:                                               ; preds = %65
  %68 = load i64*, i64** %5, align 8
  %69 = getelementptr inbounds i64, i64* %68, i64 %.06
  store i64 0, i64* %69, align 8
  br label %70

70:                                               ; preds = %67
  %71 = add nsw i64 %.06, 1
  br label %65

72:                                               ; preds = %65
  br label %73

73:                                               ; preds = %116, %72
  %.04 = phi i64 [ 0, %72 ], [ %117, %116 ]
  %74 = getelementptr inbounds [222 x i64], [222 x i64]* @sz, i64 0, i64 %0
  %75 = load i64, i64* %74, align 8
  %76 = icmp slt i64 %.04, %75
  br i1 %76, label %77, label %118

77:                                               ; preds = %73
  br label %78

78:                                               ; preds = %113, %77
  %.03 = phi i64 [ 0, %77 ], [ %114, %113 ]
  %79 = getelementptr inbounds [222 x i64], [222 x i64]* @sz, i64 0, i64 %0
  %80 = load i64, i64* %79, align 8
  %81 = icmp slt i64 %.03, %80
  br i1 %81, label %82, label %115

82:                                               ; preds = %78
  br label %83

83:                                               ; preds = %110, %82
  %.02 = phi i64 [ 0, %82 ], [ %111, %110 ]
  %84 = getelementptr inbounds [222 x i64], [222 x i64]* @sz, i64 0, i64 %61
  %85 = load i64, i64* %84, align 8
  %86 = add nsw i64 %85, 1
  %87 = icmp slt i64 %.02, %86
  br i1 %87, label %88, label %112

88:                                               ; preds = %83
  %89 = load i64*, i64** %4, align 8
  %90 = getelementptr inbounds i64, i64* %89, i64 %.03
  %91 = load i64, i64* %90, align 8
  %92 = srem i64 %91, 1000000007
  %93 = getelementptr inbounds [222 x [222 x i64]], [222 x [222 x i64]]* @dp, i64 0, i64 %61
  %94 = getelementptr inbounds [222 x i64], [222 x i64]* %93, i64 0, i64 %.02
  %95 = load i64, i64* %94, align 8
  %96 = mul nsw i64 %92, %95
  %97 = srem i64 %96, 1000000007
  %98 = getelementptr inbounds [222 x [222 x [222 x i64]]], [222 x [222 x [222 x i64]]]* @dp2, i64 0, i64 %.03
  %99 = getelementptr inbounds [222 x [222 x i64]], [222 x [222 x i64]]* %98, i64 0, i64 %.02
  %100 = getelementptr inbounds [222 x i64], [222 x i64]* %99, i64 0, i64 %.04
  %101 = load i64, i64* %100, align 8
  %102 = mul nsw i64 %97, %101
  %103 = srem i64 %102, 1000000007
  %104 = load i64*, i64** %5, align 8
  %105 = getelementptr inbounds i64, i64* %104, i64 %.04
  %106 = load i64, i64* %105, align 8
  %107 = add nsw i64 %106, %103
  store i64 %107, i64* %105, align 8
  %108 = load i64, i64* %105, align 8
  %109 = srem i64 %108, 1000000007
  store i64 %109, i64* %105, align 8
  br label %110

110:                                              ; preds = %88
  %111 = add nsw i64 %.02, 1
  br label %83

112:                                              ; preds = %83
  br label %113

113:                                              ; preds = %112
  %114 = add nsw i64 %.03, 1
  br label %78

115:                                              ; preds = %78
  br label %116

116:                                              ; preds = %115
  %117 = add nsw i64 %.04, 1
  br label %73

118:                                              ; preds = %73
  call void @_ZSt4swapIPxENSt9enable_ifIXsr6__and_ISt6__not_ISt15__is_tuple_likeIT_EESt21is_move_constructibleIS4_ESt18is_move_assignableIS4_EEE5valueEvE4typeERS4_SD_(i64** dereferenceable(8) %5, i64** dereferenceable(8) %4) #3
  br label %119

119:                                              ; preds = %118, %63
  %120 = call dereferenceable(8) %"class.__gnu_cxx::__normal_iterator"* @_ZN9__gnu_cxx17__normal_iteratorIPxSt6vectorIxSaIxEEEppEv(%"class.__gnu_cxx::__normal_iterator"* %6) #3
  br label %57

121:                                              ; preds = %57
  br label %122

122:                                              ; preds = %133, %121
  %.01 = phi i64 [ 0, %121 ], [ %134, %133 ]
  %123 = getelementptr inbounds [222 x i64], [222 x i64]* @sz, i64 0, i64 %0
  %124 = load i64, i64* %123, align 8
  %125 = icmp slt i64 %.01, %124
  br i1 %125, label %126, label %135

126:                                              ; preds = %122
  %127 = load i64*, i64** %4, align 8
  %128 = getelementptr inbounds i64, i64* %127, i64 %.01
  %129 = load i64, i64* %128, align 8
  %130 = getelementptr inbounds [222 x [222 x i64]], [222 x [222 x i64]]* @dp, i64 0, i64 %0
  %131 = add nsw i64 %.01, 1
  %132 = getelementptr inbounds [222 x i64], [222 x i64]* %130, i64 0, i64 %131
  store i64 %129, i64* %132, align 8
  br label %133

133:                                              ; preds = %126
  %134 = add nsw i64 %.01, 1
  br label %122

135:                                              ; preds = %122
  %136 = getelementptr inbounds [222 x i64], [222 x i64]* @sz, i64 0, i64 %0
  %137 = load i64, i64* %136, align 8
  br label %138

138:                                              ; preds = %135, %11
  %.0 = phi i64 [ %15, %11 ], [ %137, %135 ]
  ret i64 %.0
}

; Function Attrs: noinline nounwind uwtable
define linkonce_odr zeroext i1 @_ZNKSt6vectorIxSaIxEE5emptyEv(%"class.std::vector"* %0) #4 comdat align 2 {
  %2 = alloca %"class.__gnu_cxx::__normal_iterator.0", align 8
  %3 = alloca %"class.__gnu_cxx::__normal_iterator.0", align 8
  %4 = call i64* @_ZNKSt6vectorIxSaIxEE5beginEv(%"class.std::vector"* %0) #3
  %5 = getelementptr inbounds %"class.__gnu_cxx::__normal_iterator.0", %"class.__gnu_cxx::__normal_iterator.0"* %2, i32 0, i32 0
  store i64* %4, i64** %5, align 8
  %6 = call i64* @_ZNKSt6vectorIxSaIxEE3endEv(%"class.std::vector"* %0) #3
  %7 = getelementptr inbounds %"class.__gnu_cxx::__normal_iterator.0", %"class.__gnu_cxx::__normal_iterator.0"* %3, i32 0, i32 0
  store i64* %6, i64** %7, align 8
  %8 = call zeroext i1 @_ZN9__gnu_cxxeqIPKxSt6vectorIxSaIxEEEEbRKNS_17__normal_iteratorIT_T0_EESB_(%"class.__gnu_cxx::__normal_iterator.0"* dereferenceable(8) %2, %"class.__gnu_cxx::__normal_iterator.0"* dereferenceable(8) %3) #3
  ret i1 %8
}

; Function Attrs: noinline nounwind uwtable
define linkonce_odr i64* @_ZNSt6vectorIxSaIxEE5beginEv(%"class.std::vector"* %0) #4 comdat align 2 {
  %2 = alloca %"class.__gnu_cxx::__normal_iterator", align 8
  %3 = bitcast %"class.std::vector"* %0 to %"struct.std::_Vector_base"*
  %4 = getelementptr inbounds %"struct.std::_Vector_base", %"struct.std::_Vector_base"* %3, i32 0, i32 0
  %5 = getelementptr inbounds %"struct.std::_Vector_base<long long, std::allocator<long long> >::_Vector_impl", %"struct.std::_Vector_base<long long, std::allocator<long long> >::_Vector_impl"* %4, i32 0, i32 0
  call void @_ZN9__gnu_cxx17__normal_iteratorIPxSt6vectorIxSaIxEEEC2ERKS1_(%"class.__gnu_cxx::__normal_iterator"* %2, i64** dereferenceable(8) %5) #3
  %6 = getelementptr inbounds %"class.__gnu_cxx::__normal_iterator", %"class.__gnu_cxx::__normal_iterator"* %2, i32 0, i32 0
  %7 = load i64*, i64** %6, align 8
  ret i64* %7
}

; Function Attrs: noinline nounwind uwtable
define linkonce_odr i64* @_ZNSt6vectorIxSaIxEE3endEv(%"class.std::vector"* %0) #4 comdat align 2 {
  %2 = alloca %"class.__gnu_cxx::__normal_iterator", align 8
  %3 = bitcast %"class.std::vector"* %0 to %"struct.std::_Vector_base"*
  %4 = getelementptr inbounds %"struct.std::_Vector_base", %"struct.std::_Vector_base"* %3, i32 0, i32 0
  %5 = getelementptr inbounds %"struct.std::_Vector_base<long long, std::allocator<long long> >::_Vector_impl", %"struct.std::_Vector_base<long long, std::allocator<long long> >::_Vector_impl"* %4, i32 0, i32 1
  call void @_ZN9__gnu_cxx17__normal_iteratorIPxSt6vectorIxSaIxEEEC2ERKS1_(%"class.__gnu_cxx::__normal_iterator"* %2, i64** dereferenceable(8) %5) #3
  %6 = getelementptr inbounds %"class.__gnu_cxx::__normal_iterator", %"class.__gnu_cxx::__normal_iterator"* %2, i32 0, i32 0
  %7 = load i64*, i64** %6, align 8
  ret i64* %7
}

; Function Attrs: noinline nounwind uwtable
define linkonce_odr zeroext i1 @_ZN9__gnu_cxxneIPxSt6vectorIxSaIxEEEEbRKNS_17__normal_iteratorIT_T0_EESA_(%"class.__gnu_cxx::__normal_iterator"* dereferenceable(8) %0, %"class.__gnu_cxx::__normal_iterator"* dereferenceable(8) %1) #4 comdat {
  %3 = call dereferenceable(8) i64** @_ZNK9__gnu_cxx17__normal_iteratorIPxSt6vectorIxSaIxEEE4baseEv(%"class.__gnu_cxx::__normal_iterator"* %0) #3
  %4 = load i64*, i64** %3, align 8
  %5 = call dereferenceable(8) i64** @_ZNK9__gnu_cxx17__normal_iteratorIPxSt6vectorIxSaIxEEE4baseEv(%"class.__gnu_cxx::__normal_iterator"* %1) #3
  %6 = load i64*, i64** %5, align 8
  %7 = icmp ne i64* %4, %6
  ret i1 %7
}

; Function Attrs: noinline nounwind uwtable
define linkonce_odr dereferenceable(8) i64* @_ZNK9__gnu_cxx17__normal_iteratorIPxSt6vectorIxSaIxEEEdeEv(%"class.__gnu_cxx::__normal_iterator"* %0) #4 comdat align 2 {
  %2 = getelementptr inbounds %"class.__gnu_cxx::__normal_iterator", %"class.__gnu_cxx::__normal_iterator"* %0, i32 0, i32 0
  %3 = load i64*, i64** %2, align 8
  ret i64* %3
}

; Function Attrs: noinline nounwind uwtable
define linkonce_odr dereferenceable(8) %"class.__gnu_cxx::__normal_iterator"* @_ZN9__gnu_cxx17__normal_iteratorIPxSt6vectorIxSaIxEEEppEv(%"class.__gnu_cxx::__normal_iterator"* %0) #4 comdat align 2 {
  %2 = getelementptr inbounds %"class.__gnu_cxx::__normal_iterator", %"class.__gnu_cxx::__normal_iterator"* %0, i32 0, i32 0
  %3 = load i64*, i64** %2, align 8
  %4 = getelementptr inbounds i64, i64* %3, i32 1
  store i64* %4, i64** %2, align 8
  ret %"class.__gnu_cxx::__normal_iterator"* %0
}

; Function Attrs: noinline nounwind uwtable
define linkonce_odr dereferenceable(8) i64* @_ZNSt6vectorIxSaIxEEixEm(%"class.std::vector"* %0, i64 %1) #4 comdat align 2 {
  %3 = bitcast %"class.std::vector"* %0 to %"struct.std::_Vector_base"*
  %4 = getelementptr inbounds %"struct.std::_Vector_base", %"struct.std::_Vector_base"* %3, i32 0, i32 0
  %5 = getelementptr inbounds %"struct.std::_Vector_base<long long, std::allocator<long long> >::_Vector_impl", %"struct.std::_Vector_base<long long, std::allocator<long long> >::_Vector_impl"* %4, i32 0, i32 0
  %6 = load i64*, i64** %5, align 8
  %7 = getelementptr inbounds i64, i64* %6, i64 %1
  ret i64* %7
}

; Function Attrs: noinline nounwind uwtable
define linkonce_odr void @_ZSt4swapIPxENSt9enable_ifIXsr6__and_ISt6__not_ISt15__is_tuple_likeIT_EESt21is_move_constructibleIS4_ESt18is_move_assignableIS4_EEE5valueEvE4typeERS4_SD_(i64** dereferenceable(8) %0, i64** dereferenceable(8) %1) #4 comdat {
  %3 = alloca i64*, align 8
  %4 = call dereferenceable(8) i64** @_ZSt4moveIRPxEONSt16remove_referenceIT_E4typeEOS3_(i64** dereferenceable(8) %0) #3
  %5 = load i64*, i64** %4, align 8
  store i64* %5, i64** %3, align 8
  %6 = call dereferenceable(8) i64** @_ZSt4moveIRPxEONSt16remove_referenceIT_E4typeEOS3_(i64** dereferenceable(8) %1) #3
  %7 = load i64*, i64** %6, align 8
  store i64* %7, i64** %0, align 8
  %8 = call dereferenceable(8) i64** @_ZSt4moveIRPxEONSt16remove_referenceIT_E4typeEOS3_(i64** dereferenceable(8) %3) #3
  %9 = load i64*, i64** %8, align 8
  store i64* %9, i64** %1, align 8
  ret void
}

; Function Attrs: noinline norecurse uwtable
define i32 @main() #5 {
  %1 = alloca %"struct.std::_Setprecision", align 4
  %2 = alloca i64, align 8
  %3 = alloca i64, align 8
  %4 = load i8*, i8** bitcast (%"class.std::basic_istream"* @_ZSt3cin to i8**), align 8
  %5 = getelementptr i8, i8* %4, i64 -24
  %6 = bitcast i8* %5 to i64*
  %7 = load i64, i64* %6, align 8
  %8 = getelementptr inbounds i8, i8* bitcast (%"class.std::basic_istream"* @_ZSt3cin to i8*), i64 %7
  %9 = bitcast i8* %8 to %"class.std::basic_ios"*
  %10 = call %"class.std::basic_ostream"* @_ZNSt9basic_iosIcSt11char_traitsIcEE3tieEPSo(%"class.std::basic_ios"* %9, %"class.std::basic_ostream"* null)
  %11 = call zeroext i1 @_ZNSt8ios_base15sync_with_stdioEb(i1 zeroext false)
  %12 = call dereferenceable(272) %"class.std::basic_ostream"* @_ZNSolsEPFRSt8ios_baseS0_E(%"class.std::basic_ostream"* @_ZSt4cout, %"class.std::ios_base"* (%"class.std::ios_base"*)* @_ZSt5fixedRSt8ios_base)
  %13 = call i32 @_ZSt12setprecisioni(i32 12)
  %14 = getelementptr inbounds %"struct.std::_Setprecision", %"struct.std::_Setprecision"* %1, i32 0, i32 0
  store i32 %13, i32* %14, align 4
  %15 = getelementptr inbounds %"struct.std::_Setprecision", %"struct.std::_Setprecision"* %1, i32 0, i32 0
  %16 = load i32, i32* %15, align 4
  %17 = call dereferenceable(272) %"class.std::basic_ostream"* @_ZStlsIcSt11char_traitsIcEERSt13basic_ostreamIT_T0_ES6_St13_Setprecision(%"class.std::basic_ostream"* dereferenceable(272) %12, i32 %16)
  call void @llvm.memset.p0i8.i64(i8* align 16 bitcast ([222 x [222 x [222 x i64]]]* @dp2 to i8*), i8 0, i64 87528384, i1 false)
  store i64 1, i64* getelementptr inbounds ([222 x [222 x [222 x i64]]], [222 x [222 x [222 x i64]]]* @dp2, i64 0, i64 0, i64 0, i64 0), align 16
  br label %18

18:                                               ; preds = %73, %0
  %.01 = phi i64 [ 0, %0 ], [ %74, %73 ]
  %19 = icmp slt i64 %.01, 201
  br i1 %19, label %20, label %75

20:                                               ; preds = %18
  br label %21

21:                                               ; preds = %70, %20
  %.02 = phi i64 [ 0, %20 ], [ %71, %70 ]
  %22 = icmp slt i64 %.02, 201
  br i1 %22, label %23, label %72

23:                                               ; preds = %21
  br label %24

24:                                               ; preds = %67, %23
  %.03 = phi i64 [ 0, %23 ], [ %68, %67 ]
  %25 = icmp slt i64 %.03, 201
  br i1 %25, label %26, label %69

26:                                               ; preds = %24
  %27 = getelementptr inbounds [222 x [222 x [222 x i64]]], [222 x [222 x [222 x i64]]]* @dp2, i64 0, i64 %.01
  %28 = getelementptr inbounds [222 x [222 x i64]], [222 x [222 x i64]]* %27, i64 0, i64 %.02
  %29 = getelementptr inbounds [222 x i64], [222 x i64]* %28, i64 0, i64 %.03
  %30 = load i64, i64* %29, align 8
  %31 = add nsw i64 %.01, 1
  %32 = getelementptr inbounds [222 x [222 x [222 x i64]]], [222 x [222 x [222 x i64]]]* @dp2, i64 0, i64 %31
  %33 = getelementptr inbounds [222 x [222 x i64]], [222 x [222 x i64]]* %32, i64 0, i64 %.02
  %34 = add nsw i64 %.03, 1
  %35 = getelementptr inbounds [222 x i64], [222 x i64]* %33, i64 0, i64 %34
  %36 = load i64, i64* %35, align 8
  %37 = add nsw i64 %36, %30
  store i64 %37, i64* %35, align 8
  %38 = load i64, i64* %35, align 8
  %39 = srem i64 %38, 1000000007
  store i64 %39, i64* %35, align 8
  %40 = getelementptr inbounds [222 x [222 x [222 x i64]]], [222 x [222 x [222 x i64]]]* @dp2, i64 0, i64 %.01
  %41 = getelementptr inbounds [222 x [222 x i64]], [222 x [222 x i64]]* %40, i64 0, i64 %.02
  %42 = getelementptr inbounds [222 x i64], [222 x i64]* %41, i64 0, i64 %.03
  %43 = load i64, i64* %42, align 8
  %44 = getelementptr inbounds [222 x [222 x [222 x i64]]], [222 x [222 x [222 x i64]]]* @dp2, i64 0, i64 %.01
  %45 = add nsw i64 %.02, 1
  %46 = getelementptr inbounds [222 x [222 x i64]], [222 x [222 x i64]]* %44, i64 0, i64 %45
  %47 = add nsw i64 %.03, 1
  %48 = getelementptr inbounds [222 x i64], [222 x i64]* %46, i64 0, i64 %47
  %49 = load i64, i64* %48, align 8
  %50 = add nsw i64 %49, %43
  store i64 %50, i64* %48, align 8
  %51 = load i64, i64* %48, align 8
  %52 = srem i64 %51, 1000000007
  store i64 %52, i64* %48, align 8
  %53 = getelementptr inbounds [222 x [222 x [222 x i64]]], [222 x [222 x [222 x i64]]]* @dp2, i64 0, i64 %.01
  %54 = getelementptr inbounds [222 x [222 x i64]], [222 x [222 x i64]]* %53, i64 0, i64 %.02
  %55 = getelementptr inbounds [222 x i64], [222 x i64]* %54, i64 0, i64 %.03
  %56 = load i64, i64* %55, align 8
  %57 = add nsw i64 %.01, 1
  %58 = getelementptr inbounds [222 x [222 x [222 x i64]]], [222 x [222 x [222 x i64]]]* @dp2, i64 0, i64 %57
  %59 = add nsw i64 %.02, 1
  %60 = getelementptr inbounds [222 x [222 x i64]], [222 x [222 x i64]]* %58, i64 0, i64 %59
  %61 = add nsw i64 %.03, 1
  %62 = getelementptr inbounds [222 x i64], [222 x i64]* %60, i64 0, i64 %61
  %63 = load i64, i64* %62, align 8
  %64 = add nsw i64 %63, %56
  store i64 %64, i64* %62, align 8
  %65 = load i64, i64* %62, align 8
  %66 = srem i64 %65, 1000000007
  store i64 %66, i64* %62, align 8
  br label %67

67:                                               ; preds = %26
  %68 = add nsw i64 %.03, 1
  br label %24

69:                                               ; preds = %24
  br label %70

70:                                               ; preds = %69
  %71 = add nsw i64 %.02, 1
  br label %21

72:                                               ; preds = %21
  br label %73

73:                                               ; preds = %72
  %74 = add nsw i64 %.01, 1
  br label %18

75:                                               ; preds = %18
  call void @llvm.memset.p0i8.i64(i8* align 16 bitcast ([222 x i64]* @indeg to i8*), i8 0, i64 1776, i1 false)
  %76 = call dereferenceable(280) %"class.std::basic_istream"* @_ZNSirsERx(%"class.std::basic_istream"* @_ZSt3cin, i64* dereferenceable(8) @N)
  br label %77

77:                                               ; preds = %90, %75
  %.04 = phi i64 [ 0, %75 ], [ %91, %90 ]
  %78 = load i64, i64* @N, align 8
  %79 = sub nsw i64 %78, 1
  %80 = icmp slt i64 %.04, %79
  br i1 %80, label %81, label %92

81:                                               ; preds = %77
  %82 = call dereferenceable(280) %"class.std::basic_istream"* @_ZNSirsERx(%"class.std::basic_istream"* @_ZSt3cin, i64* dereferenceable(8) %2)
  %83 = call dereferenceable(280) %"class.std::basic_istream"* @_ZNSirsERx(%"class.std::basic_istream"* %82, i64* dereferenceable(8) %3)
  %84 = load i64, i64* %2, align 8
  %85 = getelementptr inbounds [222 x %"class.std::vector"], [222 x %"class.std::vector"]* @graph, i64 0, i64 %84
  call void @_ZNSt6vectorIxSaIxEE9push_backERKx(%"class.std::vector"* %85, i64* dereferenceable(8) %3)
  %86 = load i64, i64* %3, align 8
  %87 = getelementptr inbounds [222 x i64], [222 x i64]* @indeg, i64 0, i64 %86
  %88 = load i64, i64* %87, align 8
  %89 = add nsw i64 %88, 1
  store i64 %89, i64* %87, align 8
  br label %90

90:                                               ; preds = %81
  %91 = add nsw i64 %.04, 1
  br label %77

92:                                               ; preds = %77
  br label %93

93:                                               ; preds = %102, %92
  %.06 = phi i64 [ 0, %92 ], [ %103, %102 ]
  %.05 = phi i64 [ -1, %92 ], [ %.1, %102 ]
  %94 = load i64, i64* @N, align 8
  %95 = icmp slt i64 %.06, %94
  br i1 %95, label %96, label %104

96:                                               ; preds = %93
  %97 = getelementptr inbounds [222 x i64], [222 x i64]* @indeg, i64 0, i64 %.06
  %98 = load i64, i64* %97, align 8
  %99 = icmp ne i64 %98, 0
  br i1 %99, label %101, label %100

100:                                              ; preds = %96
  br label %101

101:                                              ; preds = %100, %96
  %.1 = phi i64 [ %.05, %96 ], [ %.06, %100 ]
  br label %102

102:                                              ; preds = %101
  %103 = add nsw i64 %.06, 1
  br label %93

104:                                              ; preds = %93
  call void @llvm.memset.p0i8.i64(i8* align 16 bitcast ([222 x [222 x i64]]* @dp to i8*), i8 0, i64 394272, i1 false)
  call void @llvm.memset.p0i8.i64(i8* align 16 bitcast ([222 x i64]* @sz to i8*), i8 0, i64 1776, i1 false)
  %105 = call i64 @_Z3dfsx(i64 %.05)
  br label %106

106:                                              ; preds = %116, %104
  %.07 = phi i64 [ 0, %104 ], [ %115, %116 ]
  %.0 = phi i64 [ 0, %104 ], [ %117, %116 ]
  %107 = load i64, i64* @N, align 8
  %108 = add nsw i64 %107, 1
  %109 = icmp slt i64 %.0, %108
  br i1 %109, label %110, label %118

110:                                              ; preds = %106
  %111 = getelementptr inbounds [222 x [222 x i64]], [222 x [222 x i64]]* @dp, i64 0, i64 %.05
  %112 = getelementptr inbounds [222 x i64], [222 x i64]* %111, i64 0, i64 %.0
  %113 = load i64, i64* %112, align 8
  %114 = add nsw i64 %.07, %113
  %115 = srem i64 %114, 1000000007
  br label %116

116:                                              ; preds = %110
  %117 = add nsw i64 %.0, 1
  br label %106

118:                                              ; preds = %106
  %119 = call dereferenceable(272) %"class.std::basic_ostream"* @_ZNSolsEx(%"class.std::basic_ostream"* @_ZSt4cout, i64 %.07)
  %120 = call dereferenceable(272) %"class.std::basic_ostream"* @_ZNSolsEPFRSoS_E(%"class.std::basic_ostream"* %119, %"class.std::basic_ostream"* (%"class.std::basic_ostream"*)* @_ZSt4endlIcSt11char_traitsIcEERSt13basic_ostreamIT_T0_ES6_)
  ret i32 0
}

declare %"class.std::basic_ostream"* @_ZNSt9basic_iosIcSt11char_traitsIcEE3tieEPSo(%"class.std::basic_ios"*, %"class.std::basic_ostream"*) #1

declare zeroext i1 @_ZNSt8ios_base15sync_with_stdioEb(i1 zeroext) #1

declare dereferenceable(272) %"class.std::basic_ostream"* @_ZStlsIcSt11char_traitsIcEERSt13basic_ostreamIT_T0_ES6_St13_Setprecision(%"class.std::basic_ostream"* dereferenceable(272), i32) #1

declare dereferenceable(272) %"class.std::basic_ostream"* @_ZNSolsEPFRSt8ios_baseS0_E(%"class.std::basic_ostream"*, %"class.std::ios_base"* (%"class.std::ios_base"*)*) #1

; Function Attrs: noinline uwtable
define linkonce_odr dereferenceable(216) %"class.std::ios_base"* @_ZSt5fixedRSt8ios_base(%"class.std::ios_base"* dereferenceable(216) %0) #0 comdat {
  %2 = call i32 @_ZNSt8ios_base4setfESt13_Ios_FmtflagsS0_(%"class.std::ios_base"* %0, i32 4, i32 260)
  ret %"class.std::ios_base"* %0
}

; Function Attrs: noinline nounwind uwtable
define linkonce_odr i32 @_ZSt12setprecisioni(i32 %0) #4 comdat {
  %2 = alloca %"struct.std::_Setprecision", align 4
  %3 = getelementptr inbounds %"struct.std::_Setprecision", %"struct.std::_Setprecision"* %2, i32 0, i32 0
  store i32 %0, i32* %3, align 4
  %4 = getelementptr inbounds %"struct.std::_Setprecision", %"struct.std::_Setprecision"* %2, i32 0, i32 0
  %5 = load i32, i32* %4, align 4
  ret i32 %5
}

declare dereferenceable(280) %"class.std::basic_istream"* @_ZNSirsERx(%"class.std::basic_istream"*, i64* dereferenceable(8)) #1

; Function Attrs: noinline uwtable
define linkonce_odr void @_ZNSt6vectorIxSaIxEE9push_backERKx(%"class.std::vector"* %0, i64* dereferenceable(8) %1) #0 comdat align 2 {
  %3 = alloca %"class.__gnu_cxx::__normal_iterator", align 8
  %4 = bitcast %"class.std::vector"* %0 to %"struct.std::_Vector_base"*
  %5 = getelementptr inbounds %"struct.std::_Vector_base", %"struct.std::_Vector_base"* %4, i32 0, i32 0
  %6 = getelementptr inbounds %"struct.std::_Vector_base<long long, std::allocator<long long> >::_Vector_impl", %"struct.std::_Vector_base<long long, std::allocator<long long> >::_Vector_impl"* %5, i32 0, i32 1
  %7 = load i64*, i64** %6, align 8
  %8 = bitcast %"class.std::vector"* %0 to %"struct.std::_Vector_base"*
  %9 = getelementptr inbounds %"struct.std::_Vector_base", %"struct.std::_Vector_base"* %8, i32 0, i32 0
  %10 = getelementptr inbounds %"struct.std::_Vector_base<long long, std::allocator<long long> >::_Vector_impl", %"struct.std::_Vector_base<long long, std::allocator<long long> >::_Vector_impl"* %9, i32 0, i32 2
  %11 = load i64*, i64** %10, align 8
  %12 = icmp ne i64* %7, %11
  br i1 %12, label %13, label %26

13:                                               ; preds = %2
  %14 = bitcast %"class.std::vector"* %0 to %"struct.std::_Vector_base"*
  %15 = getelementptr inbounds %"struct.std::_Vector_base", %"struct.std::_Vector_base"* %14, i32 0, i32 0
  %16 = bitcast %"struct.std::_Vector_base<long long, std::allocator<long long> >::_Vector_impl"* %15 to %"class.std::allocator"*
  %17 = bitcast %"class.std::vector"* %0 to %"struct.std::_Vector_base"*
  %18 = getelementptr inbounds %"struct.std::_Vector_base", %"struct.std::_Vector_base"* %17, i32 0, i32 0
  %19 = getelementptr inbounds %"struct.std::_Vector_base<long long, std::allocator<long long> >::_Vector_impl", %"struct.std::_Vector_base<long long, std::allocator<long long> >::_Vector_impl"* %18, i32 0, i32 1
  %20 = load i64*, i64** %19, align 8
  call void @_ZNSt16allocator_traitsISaIxEE9constructIxJRKxEEEvRS0_PT_DpOT0_(%"class.std::allocator"* dereferenceable(1) %16, i64* %20, i64* dereferenceable(8) %1)
  %21 = bitcast %"class.std::vector"* %0 to %"struct.std::_Vector_base"*
  %22 = getelementptr inbounds %"struct.std::_Vector_base", %"struct.std::_Vector_base"* %21, i32 0, i32 0
  %23 = getelementptr inbounds %"struct.std::_Vector_base<long long, std::allocator<long long> >::_Vector_impl", %"struct.std::_Vector_base<long long, std::allocator<long long> >::_Vector_impl"* %22, i32 0, i32 1
  %24 = load i64*, i64** %23, align 8
  %25 = getelementptr inbounds i64, i64* %24, i32 1
  store i64* %25, i64** %23, align 8
  br label %31

26:                                               ; preds = %2
  %27 = call i64* @_ZNSt6vectorIxSaIxEE3endEv(%"class.std::vector"* %0) #3
  %28 = getelementptr inbounds %"class.__gnu_cxx::__normal_iterator", %"class.__gnu_cxx::__normal_iterator"* %3, i32 0, i32 0
  store i64* %27, i64** %28, align 8
  %29 = getelementptr inbounds %"class.__gnu_cxx::__normal_iterator", %"class.__gnu_cxx::__normal_iterator"* %3, i32 0, i32 0
  %30 = load i64*, i64** %29, align 8
  call void @_ZNSt6vectorIxSaIxEE17_M_realloc_insertIJRKxEEEvN9__gnu_cxx17__normal_iteratorIPxS1_EEDpOT_(%"class.std::vector"* %0, i64* %30, i64* dereferenceable(8) %1)
  br label %31

31:                                               ; preds = %26, %13
  ret void
}

declare dereferenceable(272) %"class.std::basic_ostream"* @_ZNSolsEx(%"class.std::basic_ostream"*, i64) #1

declare dereferenceable(272) %"class.std::basic_ostream"* @_ZNSolsEPFRSoS_E(%"class.std::basic_ostream"*, %"class.std::basic_ostream"* (%"class.std::basic_ostream"*)*) #1

declare dereferenceable(272) %"class.std::basic_ostream"* @_ZSt4endlIcSt11char_traitsIcEERSt13basic_ostreamIT_T0_ES6_(%"class.std::basic_ostream"* dereferenceable(272)) #1

; Function Attrs: noinline uwtable
define linkonce_odr i32 @_ZNSt8ios_base4setfESt13_Ios_FmtflagsS0_(%"class.std::ios_base"* %0, i32 %1, i32 %2) #0 comdat align 2 {
  %4 = getelementptr inbounds %"class.std::ios_base", %"class.std::ios_base"* %0, i32 0, i32 3
  %5 = load i32, i32* %4, align 8
  %6 = call i32 @_ZStcoSt13_Ios_Fmtflags(i32 %2)
  %7 = getelementptr inbounds %"class.std::ios_base", %"class.std::ios_base"* %0, i32 0, i32 3
  %8 = call dereferenceable(4) i32* @_ZStaNRSt13_Ios_FmtflagsS_(i32* dereferenceable(4) %7, i32 %6)
  %9 = call i32 @_ZStanSt13_Ios_FmtflagsS_(i32 %1, i32 %2)
  %10 = getelementptr inbounds %"class.std::ios_base", %"class.std::ios_base"* %0, i32 0, i32 3
  %11 = call dereferenceable(4) i32* @_ZStoRRSt13_Ios_FmtflagsS_(i32* dereferenceable(4) %10, i32 %9)
  ret i32 %5
}

; Function Attrs: noinline uwtable
define linkonce_odr dereferenceable(4) i32* @_ZStaNRSt13_Ios_FmtflagsS_(i32* dereferenceable(4) %0, i32 %1) #0 comdat {
  %3 = load i32, i32* %0, align 4
  %4 = call i32 @_ZStanSt13_Ios_FmtflagsS_(i32 %3, i32 %1)
  store i32 %4, i32* %0, align 4
  ret i32* %0
}

; Function Attrs: noinline nounwind uwtable
define linkonce_odr i32 @_ZStcoSt13_Ios_Fmtflags(i32 %0) #4 comdat {
  %2 = xor i32 %0, -1
  ret i32 %2
}

; Function Attrs: noinline uwtable
define linkonce_odr dereferenceable(4) i32* @_ZStoRRSt13_Ios_FmtflagsS_(i32* dereferenceable(4) %0, i32 %1) #0 comdat {
  %3 = load i32, i32* %0, align 4
  %4 = call i32 @_ZStorSt13_Ios_FmtflagsS_(i32 %3, i32 %1)
  store i32 %4, i32* %0, align 4
  ret i32* %0
}

; Function Attrs: noinline nounwind uwtable
define linkonce_odr i32 @_ZStanSt13_Ios_FmtflagsS_(i32 %0, i32 %1) #4 comdat {
  %3 = and i32 %0, %1
  ret i32 %3
}

; Function Attrs: noinline nounwind uwtable
define linkonce_odr i32 @_ZStorSt13_Ios_FmtflagsS_(i32 %0, i32 %1) #4 comdat {
  %3 = or i32 %0, %1
  ret i32 %3
}

; Function Attrs: noinline uwtable
define linkonce_odr void @_ZNSt12_Vector_baseIxSaIxEEC2Ev(%"struct.std::_Vector_base"* %0) unnamed_addr #0 comdat align 2 {
  %2 = getelementptr inbounds %"struct.std::_Vector_base", %"struct.std::_Vector_base"* %0, i32 0, i32 0
  call void @_ZNSt12_Vector_baseIxSaIxEE12_Vector_implC2Ev(%"struct.std::_Vector_base<long long, std::allocator<long long> >::_Vector_impl"* %2)
  ret void
}

declare i32 @__gxx_personality_v0(...)

; Function Attrs: noinline noreturn nounwind
define linkonce_odr hidden void @__clang_call_terminate(i8* %0) #6 comdat {
  %2 = call i8* @__cxa_begin_catch(i8* %0) #3
  call void @_ZSt9terminatev() #12
  unreachable
}

declare i8* @__cxa_begin_catch(i8*)

declare void @_ZSt9terminatev()

; Function Attrs: noinline nounwind uwtable
define linkonce_odr void @_ZNSt12_Vector_baseIxSaIxEE12_Vector_implC2Ev(%"struct.std::_Vector_base<long long, std::allocator<long long> >::_Vector_impl"* %0) unnamed_addr #4 comdat align 2 {
  %2 = bitcast %"struct.std::_Vector_base<long long, std::allocator<long long> >::_Vector_impl"* %0 to %"class.std::allocator"*
  call void @_ZNSaIxEC2Ev(%"class.std::allocator"* %2) #3
  %3 = getelementptr inbounds %"struct.std::_Vector_base<long long, std::allocator<long long> >::_Vector_impl", %"struct.std::_Vector_base<long long, std::allocator<long long> >::_Vector_impl"* %0, i32 0, i32 0
  store i64* null, i64** %3, align 8
  %4 = getelementptr inbounds %"struct.std::_Vector_base<long long, std::allocator<long long> >::_Vector_impl", %"struct.std::_Vector_base<long long, std::allocator<long long> >::_Vector_impl"* %0, i32 0, i32 1
  store i64* null, i64** %4, align 8
  %5 = getelementptr inbounds %"struct.std::_Vector_base<long long, std::allocator<long long> >::_Vector_impl", %"struct.std::_Vector_base<long long, std::allocator<long long> >::_Vector_impl"* %0, i32 0, i32 2
  store i64* null, i64** %5, align 8
  ret void
}

; Function Attrs: noinline nounwind uwtable
define linkonce_odr void @_ZNSaIxEC2Ev(%"class.std::allocator"* %0) unnamed_addr #4 comdat align 2 {
  %2 = bitcast %"class.std::allocator"* %0 to %"class.__gnu_cxx::new_allocator"*
  call void @_ZN9__gnu_cxx13new_allocatorIxEC2Ev(%"class.__gnu_cxx::new_allocator"* %2) #3
  ret void
}

; Function Attrs: noinline nounwind uwtable
define linkonce_odr void @_ZN9__gnu_cxx13new_allocatorIxEC2Ev(%"class.__gnu_cxx::new_allocator"* %0) unnamed_addr #4 comdat align 2 {
  ret void
}

; Function Attrs: noinline uwtable
define linkonce_odr void @_ZSt8_DestroyIPxxEvT_S1_RSaIT0_E(i64* %0, i64* %1, %"class.std::allocator"* dereferenceable(1) %2) #0 comdat {
  call void @_ZSt8_DestroyIPxEvT_S1_(i64* %0, i64* %1)
  ret void
}

; Function Attrs: noinline nounwind uwtable
define linkonce_odr dereferenceable(1) %"class.std::allocator"* @_ZNSt12_Vector_baseIxSaIxEE19_M_get_Tp_allocatorEv(%"struct.std::_Vector_base"* %0) #4 comdat align 2 {
  %2 = getelementptr inbounds %"struct.std::_Vector_base", %"struct.std::_Vector_base"* %0, i32 0, i32 0
  %3 = bitcast %"struct.std::_Vector_base<long long, std::allocator<long long> >::_Vector_impl"* %2 to %"class.std::allocator"*
  ret %"class.std::allocator"* %3
}

; Function Attrs: noinline nounwind uwtable
define linkonce_odr void @_ZNSt12_Vector_baseIxSaIxEED2Ev(%"struct.std::_Vector_base"* %0) unnamed_addr #4 comdat align 2 personality i8* bitcast (i32 (...)* @__gxx_personality_v0 to i8*) {
  %2 = getelementptr inbounds %"struct.std::_Vector_base", %"struct.std::_Vector_base"* %0, i32 0, i32 0
  %3 = getelementptr inbounds %"struct.std::_Vector_base<long long, std::allocator<long long> >::_Vector_impl", %"struct.std::_Vector_base<long long, std::allocator<long long> >::_Vector_impl"* %2, i32 0, i32 0
  %4 = load i64*, i64** %3, align 8
  %5 = getelementptr inbounds %"struct.std::_Vector_base", %"struct.std::_Vector_base"* %0, i32 0, i32 0
  %6 = getelementptr inbounds %"struct.std::_Vector_base<long long, std::allocator<long long> >::_Vector_impl", %"struct.std::_Vector_base<long long, std::allocator<long long> >::_Vector_impl"* %5, i32 0, i32 2
  %7 = load i64*, i64** %6, align 8
  %8 = getelementptr inbounds %"struct.std::_Vector_base", %"struct.std::_Vector_base"* %0, i32 0, i32 0
  %9 = getelementptr inbounds %"struct.std::_Vector_base<long long, std::allocator<long long> >::_Vector_impl", %"struct.std::_Vector_base<long long, std::allocator<long long> >::_Vector_impl"* %8, i32 0, i32 0
  %10 = load i64*, i64** %9, align 8
  %11 = ptrtoint i64* %7 to i64
  %12 = ptrtoint i64* %10 to i64
  %13 = sub i64 %11, %12
  %14 = sdiv exact i64 %13, 8
  invoke void @_ZNSt12_Vector_baseIxSaIxEE13_M_deallocateEPxm(%"struct.std::_Vector_base"* %0, i64* %4, i64 %14)
          to label %15 unwind label %17

15:                                               ; preds = %1
  %16 = getelementptr inbounds %"struct.std::_Vector_base", %"struct.std::_Vector_base"* %0, i32 0, i32 0
  call void @_ZNSt12_Vector_baseIxSaIxEE12_Vector_implD2Ev(%"struct.std::_Vector_base<long long, std::allocator<long long> >::_Vector_impl"* %16) #3
  ret void

17:                                               ; preds = %1
  %18 = landingpad { i8*, i32 }
          catch i8* null
  %19 = extractvalue { i8*, i32 } %18, 0
  %20 = extractvalue { i8*, i32 } %18, 1
  %21 = getelementptr inbounds %"struct.std::_Vector_base", %"struct.std::_Vector_base"* %0, i32 0, i32 0
  call void @_ZNSt12_Vector_baseIxSaIxEE12_Vector_implD2Ev(%"struct.std::_Vector_base<long long, std::allocator<long long> >::_Vector_impl"* %21) #3
  br label %22

22:                                               ; preds = %17
  call void @__clang_call_terminate(i8* %19) #12
  unreachable
}

; Function Attrs: noinline uwtable
define linkonce_odr void @_ZSt8_DestroyIPxEvT_S1_(i64* %0, i64* %1) #0 comdat {
  call void @_ZNSt12_Destroy_auxILb1EE9__destroyIPxEEvT_S3_(i64* %0, i64* %1)
  ret void
}

; Function Attrs: noinline nounwind uwtable
define linkonce_odr void @_ZNSt12_Destroy_auxILb1EE9__destroyIPxEEvT_S3_(i64* %0, i64* %1) #4 comdat align 2 {
  ret void
}

; Function Attrs: noinline uwtable
define linkonce_odr void @_ZNSt12_Vector_baseIxSaIxEE13_M_deallocateEPxm(%"struct.std::_Vector_base"* %0, i64* %1, i64 %2) #0 comdat align 2 {
  %4 = icmp ne i64* %1, null
  br i1 %4, label %5, label %8

5:                                                ; preds = %3
  %6 = getelementptr inbounds %"struct.std::_Vector_base", %"struct.std::_Vector_base"* %0, i32 0, i32 0
  %7 = bitcast %"struct.std::_Vector_base<long long, std::allocator<long long> >::_Vector_impl"* %6 to %"class.std::allocator"*
  call void @_ZNSt16allocator_traitsISaIxEE10deallocateERS0_Pxm(%"class.std::allocator"* dereferenceable(1) %7, i64* %1, i64 %2)
  br label %8

8:                                                ; preds = %5, %3
  ret void
}

; Function Attrs: noinline nounwind uwtable
define linkonce_odr void @_ZNSt12_Vector_baseIxSaIxEE12_Vector_implD2Ev(%"struct.std::_Vector_base<long long, std::allocator<long long> >::_Vector_impl"* %0) unnamed_addr #4 comdat align 2 {
  %2 = bitcast %"struct.std::_Vector_base<long long, std::allocator<long long> >::_Vector_impl"* %0 to %"class.std::allocator"*
  call void @_ZNSaIxED2Ev(%"class.std::allocator"* %2) #3
  ret void
}

; Function Attrs: noinline uwtable
define linkonce_odr void @_ZNSt16allocator_traitsISaIxEE10deallocateERS0_Pxm(%"class.std::allocator"* dereferenceable(1) %0, i64* %1, i64 %2) #0 comdat align 2 {
  %4 = bitcast %"class.std::allocator"* %0 to %"class.__gnu_cxx::new_allocator"*
  call void @_ZN9__gnu_cxx13new_allocatorIxE10deallocateEPxm(%"class.__gnu_cxx::new_allocator"* %4, i64* %1, i64 %2)
  ret void
}

; Function Attrs: noinline nounwind uwtable
define linkonce_odr void @_ZN9__gnu_cxx13new_allocatorIxE10deallocateEPxm(%"class.__gnu_cxx::new_allocator"* %0, i64* %1, i64 %2) #4 comdat align 2 {
  %4 = bitcast i64* %1 to i8*
  call void @_ZdlPv(i8* %4) #3
  ret void
}

; Function Attrs: nobuiltin nounwind
declare void @_ZdlPv(i8*) #7

; Function Attrs: noinline nounwind uwtable
define linkonce_odr void @_ZNSaIxED2Ev(%"class.std::allocator"* %0) unnamed_addr #4 comdat align 2 {
  %2 = bitcast %"class.std::allocator"* %0 to %"class.__gnu_cxx::new_allocator"*
  call void @_ZN9__gnu_cxx13new_allocatorIxED2Ev(%"class.__gnu_cxx::new_allocator"* %2) #3
  ret void
}

; Function Attrs: noinline nounwind uwtable
define linkonce_odr void @_ZN9__gnu_cxx13new_allocatorIxED2Ev(%"class.__gnu_cxx::new_allocator"* %0) unnamed_addr #4 comdat align 2 {
  ret void
}

; Function Attrs: noinline nounwind uwtable
define linkonce_odr zeroext i1 @_ZN9__gnu_cxxeqIPKxSt6vectorIxSaIxEEEEbRKNS_17__normal_iteratorIT_T0_EESB_(%"class.__gnu_cxx::__normal_iterator.0"* dereferenceable(8) %0, %"class.__gnu_cxx::__normal_iterator.0"* dereferenceable(8) %1) #4 comdat {
  %3 = call dereferenceable(8) i64** @_ZNK9__gnu_cxx17__normal_iteratorIPKxSt6vectorIxSaIxEEE4baseEv(%"class.__gnu_cxx::__normal_iterator.0"* %0) #3
  %4 = load i64*, i64** %3, align 8
  %5 = call dereferenceable(8) i64** @_ZNK9__gnu_cxx17__normal_iteratorIPKxSt6vectorIxSaIxEEE4baseEv(%"class.__gnu_cxx::__normal_iterator.0"* %1) #3
  %6 = load i64*, i64** %5, align 8
  %7 = icmp eq i64* %4, %6
  ret i1 %7
}

; Function Attrs: noinline nounwind uwtable
define linkonce_odr i64* @_ZNKSt6vectorIxSaIxEE5beginEv(%"class.std::vector"* %0) #4 comdat align 2 {
  %2 = alloca %"class.__gnu_cxx::__normal_iterator.0", align 8
  %3 = alloca i64*, align 8
  %4 = bitcast %"class.std::vector"* %0 to %"struct.std::_Vector_base"*
  %5 = getelementptr inbounds %"struct.std::_Vector_base", %"struct.std::_Vector_base"* %4, i32 0, i32 0
  %6 = getelementptr inbounds %"struct.std::_Vector_base<long long, std::allocator<long long> >::_Vector_impl", %"struct.std::_Vector_base<long long, std::allocator<long long> >::_Vector_impl"* %5, i32 0, i32 0
  %7 = load i64*, i64** %6, align 8
  store i64* %7, i64** %3, align 8
  call void @_ZN9__gnu_cxx17__normal_iteratorIPKxSt6vectorIxSaIxEEEC2ERKS2_(%"class.__gnu_cxx::__normal_iterator.0"* %2, i64** dereferenceable(8) %3) #3
  %8 = getelementptr inbounds %"class.__gnu_cxx::__normal_iterator.0", %"class.__gnu_cxx::__normal_iterator.0"* %2, i32 0, i32 0
  %9 = load i64*, i64** %8, align 8
  ret i64* %9
}

; Function Attrs: noinline nounwind uwtable
define linkonce_odr i64* @_ZNKSt6vectorIxSaIxEE3endEv(%"class.std::vector"* %0) #4 comdat align 2 {
  %2 = alloca %"class.__gnu_cxx::__normal_iterator.0", align 8
  %3 = alloca i64*, align 8
  %4 = bitcast %"class.std::vector"* %0 to %"struct.std::_Vector_base"*
  %5 = getelementptr inbounds %"struct.std::_Vector_base", %"struct.std::_Vector_base"* %4, i32 0, i32 0
  %6 = getelementptr inbounds %"struct.std::_Vector_base<long long, std::allocator<long long> >::_Vector_impl", %"struct.std::_Vector_base<long long, std::allocator<long long> >::_Vector_impl"* %5, i32 0, i32 1
  %7 = load i64*, i64** %6, align 8
  store i64* %7, i64** %3, align 8
  call void @_ZN9__gnu_cxx17__normal_iteratorIPKxSt6vectorIxSaIxEEEC2ERKS2_(%"class.__gnu_cxx::__normal_iterator.0"* %2, i64** dereferenceable(8) %3) #3
  %8 = getelementptr inbounds %"class.__gnu_cxx::__normal_iterator.0", %"class.__gnu_cxx::__normal_iterator.0"* %2, i32 0, i32 0
  %9 = load i64*, i64** %8, align 8
  ret i64* %9
}

; Function Attrs: noinline nounwind uwtable
define linkonce_odr dereferenceable(8) i64** @_ZNK9__gnu_cxx17__normal_iteratorIPKxSt6vectorIxSaIxEEE4baseEv(%"class.__gnu_cxx::__normal_iterator.0"* %0) #4 comdat align 2 {
  %2 = getelementptr inbounds %"class.__gnu_cxx::__normal_iterator.0", %"class.__gnu_cxx::__normal_iterator.0"* %0, i32 0, i32 0
  ret i64** %2
}

; Function Attrs: noinline nounwind uwtable
define linkonce_odr void @_ZN9__gnu_cxx17__normal_iteratorIPKxSt6vectorIxSaIxEEEC2ERKS2_(%"class.__gnu_cxx::__normal_iterator.0"* %0, i64** dereferenceable(8) %1) unnamed_addr #4 comdat align 2 {
  %3 = getelementptr inbounds %"class.__gnu_cxx::__normal_iterator.0", %"class.__gnu_cxx::__normal_iterator.0"* %0, i32 0, i32 0
  %4 = load i64*, i64** %1, align 8
  store i64* %4, i64** %3, align 8
  ret void
}

; Function Attrs: noinline nounwind uwtable
define linkonce_odr void @_ZN9__gnu_cxx17__normal_iteratorIPxSt6vectorIxSaIxEEEC2ERKS1_(%"class.__gnu_cxx::__normal_iterator"* %0, i64** dereferenceable(8) %1) unnamed_addr #4 comdat align 2 {
  %3 = getelementptr inbounds %"class.__gnu_cxx::__normal_iterator", %"class.__gnu_cxx::__normal_iterator"* %0, i32 0, i32 0
  %4 = load i64*, i64** %1, align 8
  store i64* %4, i64** %3, align 8
  ret void
}

; Function Attrs: noinline nounwind uwtable
define linkonce_odr dereferenceable(8) i64** @_ZNK9__gnu_cxx17__normal_iteratorIPxSt6vectorIxSaIxEEE4baseEv(%"class.__gnu_cxx::__normal_iterator"* %0) #4 comdat align 2 {
  %2 = getelementptr inbounds %"class.__gnu_cxx::__normal_iterator", %"class.__gnu_cxx::__normal_iterator"* %0, i32 0, i32 0
  ret i64** %2
}

; Function Attrs: noinline nounwind uwtable
define linkonce_odr dereferenceable(8) i64** @_ZSt4moveIRPxEONSt16remove_referenceIT_E4typeEOS3_(i64** dereferenceable(8) %0) #4 comdat {
  ret i64** %0
}

; Function Attrs: noinline uwtable
define linkonce_odr void @_ZNSt16allocator_traitsISaIxEE9constructIxJRKxEEEvRS0_PT_DpOT0_(%"class.std::allocator"* dereferenceable(1) %0, i64* %1, i64* dereferenceable(8) %2) #0 comdat align 2 {
  %4 = bitcast %"class.std::allocator"* %0 to %"class.__gnu_cxx::new_allocator"*
  %5 = call dereferenceable(8) i64* @_ZSt7forwardIRKxEOT_RNSt16remove_referenceIS2_E4typeE(i64* dereferenceable(8) %2) #3
  call void @_ZN9__gnu_cxx13new_allocatorIxE9constructIxJRKxEEEvPT_DpOT0_(%"class.__gnu_cxx::new_allocator"* %4, i64* %1, i64* dereferenceable(8) %5)
  ret void
}

; Function Attrs: noinline uwtable
define linkonce_odr void @_ZNSt6vectorIxSaIxEE17_M_realloc_insertIJRKxEEEvN9__gnu_cxx17__normal_iteratorIPxS1_EEDpOT_(%"class.std::vector"* %0, i64* %1, i64* dereferenceable(8) %2) #0 comdat align 2 personality i8* bitcast (i32 (...)* @__gxx_personality_v0 to i8*) {
  %4 = alloca %"class.__gnu_cxx::__normal_iterator", align 8
  %5 = alloca %"class.__gnu_cxx::__normal_iterator", align 8
  %6 = getelementptr inbounds %"class.__gnu_cxx::__normal_iterator", %"class.__gnu_cxx::__normal_iterator"* %4, i32 0, i32 0
  store i64* %1, i64** %6, align 8
  %7 = call i64 @_ZNKSt6vectorIxSaIxEE12_M_check_lenEmPKc(%"class.std::vector"* %0, i64 1, i8* getelementptr inbounds ([26 x i8], [26 x i8]* @.str, i32 0, i32 0))
  %8 = bitcast %"class.std::vector"* %0 to %"struct.std::_Vector_base"*
  %9 = getelementptr inbounds %"struct.std::_Vector_base", %"struct.std::_Vector_base"* %8, i32 0, i32 0
  %10 = getelementptr inbounds %"struct.std::_Vector_base<long long, std::allocator<long long> >::_Vector_impl", %"struct.std::_Vector_base<long long, std::allocator<long long> >::_Vector_impl"* %9, i32 0, i32 0
  %11 = load i64*, i64** %10, align 8
  %12 = bitcast %"class.std::vector"* %0 to %"struct.std::_Vector_base"*
  %13 = getelementptr inbounds %"struct.std::_Vector_base", %"struct.std::_Vector_base"* %12, i32 0, i32 0
  %14 = getelementptr inbounds %"struct.std::_Vector_base<long long, std::allocator<long long> >::_Vector_impl", %"struct.std::_Vector_base<long long, std::allocator<long long> >::_Vector_impl"* %13, i32 0, i32 1
  %15 = load i64*, i64** %14, align 8
  %16 = call i64* @_ZNSt6vectorIxSaIxEE5beginEv(%"class.std::vector"* %0) #3
  %17 = getelementptr inbounds %"class.__gnu_cxx::__normal_iterator", %"class.__gnu_cxx::__normal_iterator"* %5, i32 0, i32 0
  store i64* %16, i64** %17, align 8
  %18 = call i64 @_ZN9__gnu_cxxmiIPxSt6vectorIxSaIxEEEENS_17__normal_iteratorIT_T0_E15difference_typeERKS8_SB_(%"class.__gnu_cxx::__normal_iterator"* dereferenceable(8) %4, %"class.__gnu_cxx::__normal_iterator"* dereferenceable(8) %5) #3
  %19 = bitcast %"class.std::vector"* %0 to %"struct.std::_Vector_base"*
  %20 = call i64* @_ZNSt12_Vector_baseIxSaIxEE11_M_allocateEm(%"struct.std::_Vector_base"* %19, i64 %7)
  %21 = bitcast %"class.std::vector"* %0 to %"struct.std::_Vector_base"*
  %22 = getelementptr inbounds %"struct.std::_Vector_base", %"struct.std::_Vector_base"* %21, i32 0, i32 0
  %23 = bitcast %"struct.std::_Vector_base<long long, std::allocator<long long> >::_Vector_impl"* %22 to %"class.std::allocator"*
  %24 = getelementptr inbounds i64, i64* %20, i64 %18
  %25 = call dereferenceable(8) i64* @_ZSt7forwardIRKxEOT_RNSt16remove_referenceIS2_E4typeE(i64* dereferenceable(8) %2) #3
  invoke void @_ZNSt16allocator_traitsISaIxEE9constructIxJRKxEEEvRS0_PT_DpOT0_(%"class.std::allocator"* dereferenceable(1) %23, i64* %24, i64* dereferenceable(8) %25)
          to label %26 unwind label %40

26:                                               ; preds = %3
  %27 = call dereferenceable(8) i64** @_ZNK9__gnu_cxx17__normal_iteratorIPxSt6vectorIxSaIxEEE4baseEv(%"class.__gnu_cxx::__normal_iterator"* %4) #3
  %28 = load i64*, i64** %27, align 8
  %29 = bitcast %"class.std::vector"* %0 to %"struct.std::_Vector_base"*
  %30 = call dereferenceable(1) %"class.std::allocator"* @_ZNSt12_Vector_baseIxSaIxEE19_M_get_Tp_allocatorEv(%"struct.std::_Vector_base"* %29) #3
  %31 = invoke i64* @_ZSt34__uninitialized_move_if_noexcept_aIPxS0_SaIxEET0_T_S3_S2_RT1_(i64* %11, i64* %28, i64* %20, %"class.std::allocator"* dereferenceable(1) %30)
          to label %32 unwind label %40

32:                                               ; preds = %26
  %33 = getelementptr inbounds i64, i64* %31, i32 1
  %34 = call dereferenceable(8) i64** @_ZNK9__gnu_cxx17__normal_iteratorIPxSt6vectorIxSaIxEEE4baseEv(%"class.__gnu_cxx::__normal_iterator"* %4) #3
  %35 = load i64*, i64** %34, align 8
  %36 = bitcast %"class.std::vector"* %0 to %"struct.std::_Vector_base"*
  %37 = call dereferenceable(1) %"class.std::allocator"* @_ZNSt12_Vector_baseIxSaIxEE19_M_get_Tp_allocatorEv(%"struct.std::_Vector_base"* %36) #3
  %38 = invoke i64* @_ZSt34__uninitialized_move_if_noexcept_aIPxS0_SaIxEET0_T_S3_S2_RT1_(i64* %35, i64* %15, i64* %33, %"class.std::allocator"* dereferenceable(1) %37)
          to label %39 unwind label %40

39:                                               ; preds = %32
  br label %65

40:                                               ; preds = %32, %26, %3
  %.0 = phi i64* [ %33, %32 ], [ null, %26 ], [ %20, %3 ]
  %41 = landingpad { i8*, i32 }
          catch i8* null
  %42 = extractvalue { i8*, i32 } %41, 0
  %43 = extractvalue { i8*, i32 } %41, 1
  br label %44

44:                                               ; preds = %40
  %45 = call i8* @__cxa_begin_catch(i8* %42) #3
  %46 = icmp ne i64* %.0, null
  br i1 %46, label %57, label %47

47:                                               ; preds = %44
  %48 = bitcast %"class.std::vector"* %0 to %"struct.std::_Vector_base"*
  %49 = getelementptr inbounds %"struct.std::_Vector_base", %"struct.std::_Vector_base"* %48, i32 0, i32 0
  %50 = bitcast %"struct.std::_Vector_base<long long, std::allocator<long long> >::_Vector_impl"* %49 to %"class.std::allocator"*
  %51 = getelementptr inbounds i64, i64* %20, i64 %18
  invoke void @_ZNSt16allocator_traitsISaIxEE7destroyIxEEvRS0_PT_(%"class.std::allocator"* dereferenceable(1) %50, i64* %51)
          to label %52 unwind label %53

52:                                               ; preds = %47
  br label %61

53:                                               ; preds = %63, %61, %57, %47
  %54 = landingpad { i8*, i32 }
          cleanup
  %55 = extractvalue { i8*, i32 } %54, 0
  %56 = extractvalue { i8*, i32 } %54, 1
  invoke void @__cxa_end_catch()
          to label %64 unwind label %90

57:                                               ; preds = %44
  %58 = bitcast %"class.std::vector"* %0 to %"struct.std::_Vector_base"*
  %59 = call dereferenceable(1) %"class.std::allocator"* @_ZNSt12_Vector_baseIxSaIxEE19_M_get_Tp_allocatorEv(%"struct.std::_Vector_base"* %58) #3
  invoke void @_ZSt8_DestroyIPxxEvT_S1_RSaIT0_E(i64* %20, i64* %.0, %"class.std::allocator"* dereferenceable(1) %59)
          to label %60 unwind label %53

60:                                               ; preds = %57
  br label %61

61:                                               ; preds = %60, %52
  %62 = bitcast %"class.std::vector"* %0 to %"struct.std::_Vector_base"*
  invoke void @_ZNSt12_Vector_baseIxSaIxEE13_M_deallocateEPxm(%"struct.std::_Vector_base"* %62, i64* %20, i64 %7)
          to label %63 unwind label %53

63:                                               ; preds = %61
  invoke void @__cxa_rethrow() #13
          to label %93 unwind label %53

64:                                               ; preds = %53
  br label %87

65:                                               ; preds = %39
  %66 = bitcast %"class.std::vector"* %0 to %"struct.std::_Vector_base"*
  %67 = call dereferenceable(1) %"class.std::allocator"* @_ZNSt12_Vector_baseIxSaIxEE19_M_get_Tp_allocatorEv(%"struct.std::_Vector_base"* %66) #3
  call void @_ZSt8_DestroyIPxxEvT_S1_RSaIT0_E(i64* %11, i64* %15, %"class.std::allocator"* dereferenceable(1) %67)
  %68 = bitcast %"class.std::vector"* %0 to %"struct.std::_Vector_base"*
  %69 = bitcast %"class.std::vector"* %0 to %"struct.std::_Vector_base"*
  %70 = getelementptr inbounds %"struct.std::_Vector_base", %"struct.std::_Vector_base"* %69, i32 0, i32 0
  %71 = getelementptr inbounds %"struct.std::_Vector_base<long long, std::allocator<long long> >::_Vector_impl", %"struct.std::_Vector_base<long long, std::allocator<long long> >::_Vector_impl"* %70, i32 0, i32 2
  %72 = load i64*, i64** %71, align 8
  %73 = ptrtoint i64* %72 to i64
  %74 = ptrtoint i64* %11 to i64
  %75 = sub i64 %73, %74
  %76 = sdiv exact i64 %75, 8
  call void @_ZNSt12_Vector_baseIxSaIxEE13_M_deallocateEPxm(%"struct.std::_Vector_base"* %68, i64* %11, i64 %76)
  %77 = bitcast %"class.std::vector"* %0 to %"struct.std::_Vector_base"*
  %78 = getelementptr inbounds %"struct.std::_Vector_base", %"struct.std::_Vector_base"* %77, i32 0, i32 0
  %79 = getelementptr inbounds %"struct.std::_Vector_base<long long, std::allocator<long long> >::_Vector_impl", %"struct.std::_Vector_base<long long, std::allocator<long long> >::_Vector_impl"* %78, i32 0, i32 0
  store i64* %20, i64** %79, align 8
  %80 = bitcast %"class.std::vector"* %0 to %"struct.std::_Vector_base"*
  %81 = getelementptr inbounds %"struct.std::_Vector_base", %"struct.std::_Vector_base"* %80, i32 0, i32 0
  %82 = getelementptr inbounds %"struct.std::_Vector_base<long long, std::allocator<long long> >::_Vector_impl", %"struct.std::_Vector_base<long long, std::allocator<long long> >::_Vector_impl"* %81, i32 0, i32 1
  store i64* %38, i64** %82, align 8
  %83 = getelementptr inbounds i64, i64* %20, i64 %7
  %84 = bitcast %"class.std::vector"* %0 to %"struct.std::_Vector_base"*
  %85 = getelementptr inbounds %"struct.std::_Vector_base", %"struct.std::_Vector_base"* %84, i32 0, i32 0
  %86 = getelementptr inbounds %"struct.std::_Vector_base<long long, std::allocator<long long> >::_Vector_impl", %"struct.std::_Vector_base<long long, std::allocator<long long> >::_Vector_impl"* %85, i32 0, i32 2
  store i64* %83, i64** %86, align 8
  ret void

87:                                               ; preds = %64
  %88 = insertvalue { i8*, i32 } undef, i8* %55, 0
  %89 = insertvalue { i8*, i32 } %88, i32 %56, 1
  resume { i8*, i32 } %89

90:                                               ; preds = %53
  %91 = landingpad { i8*, i32 }
          catch i8* null
  %92 = extractvalue { i8*, i32 } %91, 0
  call void @__clang_call_terminate(i8* %92) #12
  unreachable

93:                                               ; preds = %63
  unreachable
}

; Function Attrs: noinline nounwind uwtable
define linkonce_odr void @_ZN9__gnu_cxx13new_allocatorIxE9constructIxJRKxEEEvPT_DpOT0_(%"class.__gnu_cxx::new_allocator"* %0, i64* %1, i64* dereferenceable(8) %2) #4 comdat align 2 {
  %4 = bitcast i64* %1 to i8*
  %5 = bitcast i8* %4 to i64*
  %6 = call dereferenceable(8) i64* @_ZSt7forwardIRKxEOT_RNSt16remove_referenceIS2_E4typeE(i64* dereferenceable(8) %2) #3
  %7 = load i64, i64* %6, align 8
  store i64 %7, i64* %5, align 8
  ret void
}

; Function Attrs: noinline nounwind uwtable
define linkonce_odr dereferenceable(8) i64* @_ZSt7forwardIRKxEOT_RNSt16remove_referenceIS2_E4typeE(i64* dereferenceable(8) %0) #4 comdat {
  ret i64* %0
}

; Function Attrs: noinline uwtable
define linkonce_odr i64 @_ZNKSt6vectorIxSaIxEE12_M_check_lenEmPKc(%"class.std::vector"* %0, i64 %1, i8* %2) #0 comdat align 2 {
  %4 = alloca i64, align 8
  %5 = alloca i64, align 8
  store i64 %1, i64* %4, align 8
  %6 = call i64 @_ZNKSt6vectorIxSaIxEE8max_sizeEv(%"class.std::vector"* %0) #3
  %7 = call i64 @_ZNKSt6vectorIxSaIxEE4sizeEv(%"class.std::vector"* %0) #3
  %8 = sub i64 %6, %7
  %9 = load i64, i64* %4, align 8
  %10 = icmp ult i64 %8, %9
  br i1 %10, label %11, label %12

11:                                               ; preds = %3
  call void @_ZSt20__throw_length_errorPKc(i8* %2) #13
  unreachable

12:                                               ; preds = %3
  %13 = call i64 @_ZNKSt6vectorIxSaIxEE4sizeEv(%"class.std::vector"* %0) #3
  %14 = call i64 @_ZNKSt6vectorIxSaIxEE4sizeEv(%"class.std::vector"* %0) #3
  store i64 %14, i64* %5, align 8
  %15 = call dereferenceable(8) i64* @_ZSt3maxImERKT_S2_S2_(i64* dereferenceable(8) %5, i64* dereferenceable(8) %4)
  %16 = load i64, i64* %15, align 8
  %17 = add i64 %13, %16
  %18 = call i64 @_ZNKSt6vectorIxSaIxEE4sizeEv(%"class.std::vector"* %0) #3
  %19 = icmp ult i64 %17, %18
  br i1 %19, label %23, label %20

20:                                               ; preds = %12
  %21 = call i64 @_ZNKSt6vectorIxSaIxEE8max_sizeEv(%"class.std::vector"* %0) #3
  %22 = icmp ugt i64 %17, %21
  br i1 %22, label %23, label %25

23:                                               ; preds = %20, %12
  %24 = call i64 @_ZNKSt6vectorIxSaIxEE8max_sizeEv(%"class.std::vector"* %0) #3
  br label %26

25:                                               ; preds = %20
  br label %26

26:                                               ; preds = %25, %23
  %27 = phi i64 [ %24, %23 ], [ %17, %25 ]
  ret i64 %27
}

; Function Attrs: noinline nounwind uwtable
define linkonce_odr i64 @_ZN9__gnu_cxxmiIPxSt6vectorIxSaIxEEEENS_17__normal_iteratorIT_T0_E15difference_typeERKS8_SB_(%"class.__gnu_cxx::__normal_iterator"* dereferenceable(8) %0, %"class.__gnu_cxx::__normal_iterator"* dereferenceable(8) %1) #4 comdat {
  %3 = call dereferenceable(8) i64** @_ZNK9__gnu_cxx17__normal_iteratorIPxSt6vectorIxSaIxEEE4baseEv(%"class.__gnu_cxx::__normal_iterator"* %0) #3
  %4 = load i64*, i64** %3, align 8
  %5 = call dereferenceable(8) i64** @_ZNK9__gnu_cxx17__normal_iteratorIPxSt6vectorIxSaIxEEE4baseEv(%"class.__gnu_cxx::__normal_iterator"* %1) #3
  %6 = load i64*, i64** %5, align 8
  %7 = ptrtoint i64* %4 to i64
  %8 = ptrtoint i64* %6 to i64
  %9 = sub i64 %7, %8
  %10 = sdiv exact i64 %9, 8
  ret i64 %10
}

; Function Attrs: noinline uwtable
define linkonce_odr i64* @_ZNSt12_Vector_baseIxSaIxEE11_M_allocateEm(%"struct.std::_Vector_base"* %0, i64 %1) #0 comdat align 2 {
  %3 = icmp ne i64 %1, 0
  br i1 %3, label %4, label %8

4:                                                ; preds = %2
  %5 = getelementptr inbounds %"struct.std::_Vector_base", %"struct.std::_Vector_base"* %0, i32 0, i32 0
  %6 = bitcast %"struct.std::_Vector_base<long long, std::allocator<long long> >::_Vector_impl"* %5 to %"class.std::allocator"*
  %7 = call i64* @_ZNSt16allocator_traitsISaIxEE8allocateERS0_m(%"class.std::allocator"* dereferenceable(1) %6, i64 %1)
  br label %9

8:                                                ; preds = %2
  br label %9

9:                                                ; preds = %8, %4
  %10 = phi i64* [ %7, %4 ], [ null, %8 ]
  ret i64* %10
}

; Function Attrs: noinline uwtable
define linkonce_odr i64* @_ZSt34__uninitialized_move_if_noexcept_aIPxS0_SaIxEET0_T_S3_S2_RT1_(i64* %0, i64* %1, i64* %2, %"class.std::allocator"* dereferenceable(1) %3) #0 comdat {
  %5 = alloca %"class.std::move_iterator", align 8
  %6 = alloca %"class.std::move_iterator", align 8
  %7 = call i64* @_ZSt32__make_move_if_noexcept_iteratorIxSt13move_iteratorIPxEET0_PT_(i64* %0)
  %8 = getelementptr inbounds %"class.std::move_iterator", %"class.std::move_iterator"* %5, i32 0, i32 0
  store i64* %7, i64** %8, align 8
  %9 = call i64* @_ZSt32__make_move_if_noexcept_iteratorIxSt13move_iteratorIPxEET0_PT_(i64* %1)
  %10 = getelementptr inbounds %"class.std::move_iterator", %"class.std::move_iterator"* %6, i32 0, i32 0
  store i64* %9, i64** %10, align 8
  %11 = getelementptr inbounds %"class.std::move_iterator", %"class.std::move_iterator"* %5, i32 0, i32 0
  %12 = load i64*, i64** %11, align 8
  %13 = getelementptr inbounds %"class.std::move_iterator", %"class.std::move_iterator"* %6, i32 0, i32 0
  %14 = load i64*, i64** %13, align 8
  %15 = call i64* @_ZSt22__uninitialized_copy_aISt13move_iteratorIPxES1_xET0_T_S4_S3_RSaIT1_E(i64* %12, i64* %14, i64* %2, %"class.std::allocator"* dereferenceable(1) %3)
  ret i64* %15
}

; Function Attrs: noinline uwtable
define linkonce_odr void @_ZNSt16allocator_traitsISaIxEE7destroyIxEEvRS0_PT_(%"class.std::allocator"* dereferenceable(1) %0, i64* %1) #0 comdat align 2 {
  %3 = bitcast %"class.std::allocator"* %0 to %"class.__gnu_cxx::new_allocator"*
  call void @_ZN9__gnu_cxx13new_allocatorIxE7destroyIxEEvPT_(%"class.__gnu_cxx::new_allocator"* %3, i64* %1)
  ret void
}

declare void @__cxa_rethrow()

declare void @__cxa_end_catch()

; Function Attrs: noinline nounwind uwtable
define linkonce_odr i64 @_ZNKSt6vectorIxSaIxEE8max_sizeEv(%"class.std::vector"* %0) #4 comdat align 2 {
  %2 = bitcast %"class.std::vector"* %0 to %"struct.std::_Vector_base"*
  %3 = call dereferenceable(1) %"class.std::allocator"* @_ZNKSt12_Vector_baseIxSaIxEE19_M_get_Tp_allocatorEv(%"struct.std::_Vector_base"* %2) #3
  %4 = call i64 @_ZNSt16allocator_traitsISaIxEE8max_sizeERKS0_(%"class.std::allocator"* dereferenceable(1) %3) #3
  ret i64 %4
}

; Function Attrs: noinline nounwind uwtable
define linkonce_odr i64 @_ZNKSt6vectorIxSaIxEE4sizeEv(%"class.std::vector"* %0) #4 comdat align 2 {
  %2 = bitcast %"class.std::vector"* %0 to %"struct.std::_Vector_base"*
  %3 = getelementptr inbounds %"struct.std::_Vector_base", %"struct.std::_Vector_base"* %2, i32 0, i32 0
  %4 = getelementptr inbounds %"struct.std::_Vector_base<long long, std::allocator<long long> >::_Vector_impl", %"struct.std::_Vector_base<long long, std::allocator<long long> >::_Vector_impl"* %3, i32 0, i32 1
  %5 = load i64*, i64** %4, align 8
  %6 = bitcast %"class.std::vector"* %0 to %"struct.std::_Vector_base"*
  %7 = getelementptr inbounds %"struct.std::_Vector_base", %"struct.std::_Vector_base"* %6, i32 0, i32 0
  %8 = getelementptr inbounds %"struct.std::_Vector_base<long long, std::allocator<long long> >::_Vector_impl", %"struct.std::_Vector_base<long long, std::allocator<long long> >::_Vector_impl"* %7, i32 0, i32 0
  %9 = load i64*, i64** %8, align 8
  %10 = ptrtoint i64* %5 to i64
  %11 = ptrtoint i64* %9 to i64
  %12 = sub i64 %10, %11
  %13 = sdiv exact i64 %12, 8
  ret i64 %13
}

; Function Attrs: noreturn
declare void @_ZSt20__throw_length_errorPKc(i8*) #8

; Function Attrs: noinline nounwind uwtable
define linkonce_odr dereferenceable(8) i64* @_ZSt3maxImERKT_S2_S2_(i64* dereferenceable(8) %0, i64* dereferenceable(8) %1) #4 comdat {
  %3 = load i64, i64* %0, align 8
  %4 = load i64, i64* %1, align 8
  %5 = icmp ult i64 %3, %4
  br i1 %5, label %6, label %7

6:                                                ; preds = %2
  br label %8

7:                                                ; preds = %2
  br label %8

8:                                                ; preds = %7, %6
  %.0 = phi i64* [ %1, %6 ], [ %0, %7 ]
  ret i64* %.0
}

; Function Attrs: noinline nounwind uwtable
define linkonce_odr i64 @_ZNSt16allocator_traitsISaIxEE8max_sizeERKS0_(%"class.std::allocator"* dereferenceable(1) %0) #4 comdat align 2 {
  %2 = bitcast %"class.std::allocator"* %0 to %"class.__gnu_cxx::new_allocator"*
  %3 = call i64 @_ZNK9__gnu_cxx13new_allocatorIxE8max_sizeEv(%"class.__gnu_cxx::new_allocator"* %2) #3
  ret i64 %3
}

; Function Attrs: noinline nounwind uwtable
define linkonce_odr dereferenceable(1) %"class.std::allocator"* @_ZNKSt12_Vector_baseIxSaIxEE19_M_get_Tp_allocatorEv(%"struct.std::_Vector_base"* %0) #4 comdat align 2 {
  %2 = getelementptr inbounds %"struct.std::_Vector_base", %"struct.std::_Vector_base"* %0, i32 0, i32 0
  %3 = bitcast %"struct.std::_Vector_base<long long, std::allocator<long long> >::_Vector_impl"* %2 to %"class.std::allocator"*
  ret %"class.std::allocator"* %3
}

; Function Attrs: noinline nounwind uwtable
define linkonce_odr i64 @_ZNK9__gnu_cxx13new_allocatorIxE8max_sizeEv(%"class.__gnu_cxx::new_allocator"* %0) #4 comdat align 2 {
  ret i64 2305843009213693951
}

; Function Attrs: noinline uwtable
define linkonce_odr i64* @_ZNSt16allocator_traitsISaIxEE8allocateERS0_m(%"class.std::allocator"* dereferenceable(1) %0, i64 %1) #0 comdat align 2 {
  %3 = bitcast %"class.std::allocator"* %0 to %"class.__gnu_cxx::new_allocator"*
  %4 = call i64* @_ZN9__gnu_cxx13new_allocatorIxE8allocateEmPKv(%"class.__gnu_cxx::new_allocator"* %3, i64 %1, i8* null)
  ret i64* %4
}

; Function Attrs: noinline uwtable
define linkonce_odr i64* @_ZN9__gnu_cxx13new_allocatorIxE8allocateEmPKv(%"class.__gnu_cxx::new_allocator"* %0, i64 %1, i8* %2) #0 comdat align 2 {
  %4 = call i64 @_ZNK9__gnu_cxx13new_allocatorIxE8max_sizeEv(%"class.__gnu_cxx::new_allocator"* %0) #3
  %5 = icmp ugt i64 %1, %4
  br i1 %5, label %6, label %7

6:                                                ; preds = %3
  call void @_ZSt17__throw_bad_allocv() #13
  unreachable

7:                                                ; preds = %3
  %8 = mul i64 %1, 8
  %9 = call i8* @_Znwm(i64 %8)
  %10 = bitcast i8* %9 to i64*
  ret i64* %10
}

; Function Attrs: noreturn
declare void @_ZSt17__throw_bad_allocv() #8

; Function Attrs: nobuiltin
declare noalias i8* @_Znwm(i64) #9

; Function Attrs: noinline uwtable
define linkonce_odr i64* @_ZSt22__uninitialized_copy_aISt13move_iteratorIPxES1_xET0_T_S4_S3_RSaIT1_E(i64* %0, i64* %1, i64* %2, %"class.std::allocator"* dereferenceable(1) %3) #0 comdat {
  %5 = alloca %"class.std::move_iterator", align 8
  %6 = alloca %"class.std::move_iterator", align 8
  %7 = alloca %"class.std::move_iterator", align 8
  %8 = alloca %"class.std::move_iterator", align 8
  %9 = getelementptr inbounds %"class.std::move_iterator", %"class.std::move_iterator"* %5, i32 0, i32 0
  store i64* %0, i64** %9, align 8
  %10 = getelementptr inbounds %"class.std::move_iterator", %"class.std::move_iterator"* %6, i32 0, i32 0
  store i64* %1, i64** %10, align 8
  %11 = bitcast %"class.std::move_iterator"* %7 to i8*
  %12 = bitcast %"class.std::move_iterator"* %5 to i8*
  call void @llvm.memcpy.p0i8.p0i8.i64(i8* align 8 %11, i8* align 8 %12, i64 8, i1 false)
  %13 = bitcast %"class.std::move_iterator"* %8 to i8*
  %14 = bitcast %"class.std::move_iterator"* %6 to i8*
  call void @llvm.memcpy.p0i8.p0i8.i64(i8* align 8 %13, i8* align 8 %14, i64 8, i1 false)
  %15 = getelementptr inbounds %"class.std::move_iterator", %"class.std::move_iterator"* %7, i32 0, i32 0
  %16 = load i64*, i64** %15, align 8
  %17 = getelementptr inbounds %"class.std::move_iterator", %"class.std::move_iterator"* %8, i32 0, i32 0
  %18 = load i64*, i64** %17, align 8
  %19 = call i64* @_ZSt18uninitialized_copyISt13move_iteratorIPxES1_ET0_T_S4_S3_(i64* %16, i64* %18, i64* %2)
  ret i64* %19
}

; Function Attrs: noinline uwtable
define linkonce_odr i64* @_ZSt32__make_move_if_noexcept_iteratorIxSt13move_iteratorIPxEET0_PT_(i64* %0) #0 comdat {
  %2 = alloca %"class.std::move_iterator", align 8
  call void @_ZNSt13move_iteratorIPxEC2ES0_(%"class.std::move_iterator"* %2, i64* %0)
  %3 = getelementptr inbounds %"class.std::move_iterator", %"class.std::move_iterator"* %2, i32 0, i32 0
  %4 = load i64*, i64** %3, align 8
  ret i64* %4
}

; Function Attrs: noinline uwtable
define linkonce_odr i64* @_ZSt18uninitialized_copyISt13move_iteratorIPxES1_ET0_T_S4_S3_(i64* %0, i64* %1, i64* %2) #0 comdat {
  %4 = alloca %"class.std::move_iterator", align 8
  %5 = alloca %"class.std::move_iterator", align 8
  %6 = alloca %"class.std::move_iterator", align 8
  %7 = alloca %"class.std::move_iterator", align 8
  %8 = getelementptr inbounds %"class.std::move_iterator", %"class.std::move_iterator"* %4, i32 0, i32 0
  store i64* %0, i64** %8, align 8
  %9 = getelementptr inbounds %"class.std::move_iterator", %"class.std::move_iterator"* %5, i32 0, i32 0
  store i64* %1, i64** %9, align 8
  %10 = bitcast %"class.std::move_iterator"* %6 to i8*
  %11 = bitcast %"class.std::move_iterator"* %4 to i8*
  call void @llvm.memcpy.p0i8.p0i8.i64(i8* align 8 %10, i8* align 8 %11, i64 8, i1 false)
  %12 = bitcast %"class.std::move_iterator"* %7 to i8*
  %13 = bitcast %"class.std::move_iterator"* %5 to i8*
  call void @llvm.memcpy.p0i8.p0i8.i64(i8* align 8 %12, i8* align 8 %13, i64 8, i1 false)
  %14 = getelementptr inbounds %"class.std::move_iterator", %"class.std::move_iterator"* %6, i32 0, i32 0
  %15 = load i64*, i64** %14, align 8
  %16 = getelementptr inbounds %"class.std::move_iterator", %"class.std::move_iterator"* %7, i32 0, i32 0
  %17 = load i64*, i64** %16, align 8
  %18 = call i64* @_ZNSt20__uninitialized_copyILb1EE13__uninit_copyISt13move_iteratorIPxES3_EET0_T_S6_S5_(i64* %15, i64* %17, i64* %2)
  ret i64* %18
}

; Function Attrs: noinline uwtable
define linkonce_odr i64* @_ZNSt20__uninitialized_copyILb1EE13__uninit_copyISt13move_iteratorIPxES3_EET0_T_S6_S5_(i64* %0, i64* %1, i64* %2) #0 comdat align 2 {
  %4 = alloca %"class.std::move_iterator", align 8
  %5 = alloca %"class.std::move_iterator", align 8
  %6 = alloca %"class.std::move_iterator", align 8
  %7 = alloca %"class.std::move_iterator", align 8
  %8 = getelementptr inbounds %"class.std::move_iterator", %"class.std::move_iterator"* %4, i32 0, i32 0
  store i64* %0, i64** %8, align 8
  %9 = getelementptr inbounds %"class.std::move_iterator", %"class.std::move_iterator"* %5, i32 0, i32 0
  store i64* %1, i64** %9, align 8
  %10 = bitcast %"class.std::move_iterator"* %6 to i8*
  %11 = bitcast %"class.std::move_iterator"* %4 to i8*
  call void @llvm.memcpy.p0i8.p0i8.i64(i8* align 8 %10, i8* align 8 %11, i64 8, i1 false)
  %12 = bitcast %"class.std::move_iterator"* %7 to i8*
  %13 = bitcast %"class.std::move_iterator"* %5 to i8*
  call void @llvm.memcpy.p0i8.p0i8.i64(i8* align 8 %12, i8* align 8 %13, i64 8, i1 false)
  %14 = getelementptr inbounds %"class.std::move_iterator", %"class.std::move_iterator"* %6, i32 0, i32 0
  %15 = load i64*, i64** %14, align 8
  %16 = getelementptr inbounds %"class.std::move_iterator", %"class.std::move_iterator"* %7, i32 0, i32 0
  %17 = load i64*, i64** %16, align 8
  %18 = call i64* @_ZSt4copyISt13move_iteratorIPxES1_ET0_T_S4_S3_(i64* %15, i64* %17, i64* %2)
  ret i64* %18
}

; Function Attrs: noinline uwtable
define linkonce_odr i64* @_ZSt4copyISt13move_iteratorIPxES1_ET0_T_S4_S3_(i64* %0, i64* %1, i64* %2) #0 comdat {
  %4 = alloca %"class.std::move_iterator", align 8
  %5 = alloca %"class.std::move_iterator", align 8
  %6 = alloca %"class.std::move_iterator", align 8
  %7 = alloca %"class.std::move_iterator", align 8
  %8 = getelementptr inbounds %"class.std::move_iterator", %"class.std::move_iterator"* %4, i32 0, i32 0
  store i64* %0, i64** %8, align 8
  %9 = getelementptr inbounds %"class.std::move_iterator", %"class.std::move_iterator"* %5, i32 0, i32 0
  store i64* %1, i64** %9, align 8
  %10 = bitcast %"class.std::move_iterator"* %6 to i8*
  %11 = bitcast %"class.std::move_iterator"* %4 to i8*
  call void @llvm.memcpy.p0i8.p0i8.i64(i8* align 8 %10, i8* align 8 %11, i64 8, i1 false)
  %12 = getelementptr inbounds %"class.std::move_iterator", %"class.std::move_iterator"* %6, i32 0, i32 0
  %13 = load i64*, i64** %12, align 8
  %14 = call i64* @_ZSt12__miter_baseIPxEDTcl12__miter_basecldtfp_4baseEEESt13move_iteratorIT_E(i64* %13)
  %15 = bitcast %"class.std::move_iterator"* %7 to i8*
  %16 = bitcast %"class.std::move_iterator"* %5 to i8*
  call void @llvm.memcpy.p0i8.p0i8.i64(i8* align 8 %15, i8* align 8 %16, i64 8, i1 false)
  %17 = getelementptr inbounds %"class.std::move_iterator", %"class.std::move_iterator"* %7, i32 0, i32 0
  %18 = load i64*, i64** %17, align 8
  %19 = call i64* @_ZSt12__miter_baseIPxEDTcl12__miter_basecldtfp_4baseEEESt13move_iteratorIT_E(i64* %18)
  %20 = call i64* @_ZSt14__copy_move_a2ILb1EPxS0_ET1_T0_S2_S1_(i64* %14, i64* %19, i64* %2)
  ret i64* %20
}

; Function Attrs: noinline uwtable
define linkonce_odr i64* @_ZSt14__copy_move_a2ILb1EPxS0_ET1_T0_S2_S1_(i64* %0, i64* %1, i64* %2) #0 comdat {
  %4 = call i64* @_ZSt12__niter_baseIPxET_S1_(i64* %0)
  %5 = call i64* @_ZSt12__niter_baseIPxET_S1_(i64* %1)
  %6 = call i64* @_ZSt12__niter_baseIPxET_S1_(i64* %2)
  %7 = call i64* @_ZSt13__copy_move_aILb1EPxS0_ET1_T0_S2_S1_(i64* %4, i64* %5, i64* %6)
  ret i64* %7
}

; Function Attrs: noinline uwtable
define linkonce_odr i64* @_ZSt12__miter_baseIPxEDTcl12__miter_basecldtfp_4baseEEESt13move_iteratorIT_E(i64* %0) #0 comdat {
  %2 = alloca %"class.std::move_iterator", align 8
  %3 = getelementptr inbounds %"class.std::move_iterator", %"class.std::move_iterator"* %2, i32 0, i32 0
  store i64* %0, i64** %3, align 8
  %4 = call i64* @_ZNKSt13move_iteratorIPxE4baseEv(%"class.std::move_iterator"* %2)
  %5 = call i64* @_ZSt12__miter_baseIPxET_S1_(i64* %4)
  ret i64* %5
}

; Function Attrs: noinline uwtable
define linkonce_odr i64* @_ZSt13__copy_move_aILb1EPxS0_ET1_T0_S2_S1_(i64* %0, i64* %1, i64* %2) #0 comdat {
  %4 = call i64* @_ZNSt11__copy_moveILb1ELb1ESt26random_access_iterator_tagE8__copy_mIxEEPT_PKS3_S6_S4_(i64* %0, i64* %1, i64* %2)
  ret i64* %4
}

; Function Attrs: noinline nounwind uwtable
define linkonce_odr i64* @_ZSt12__niter_baseIPxET_S1_(i64* %0) #4 comdat {
  ret i64* %0
}

; Function Attrs: noinline nounwind uwtable
define linkonce_odr i64* @_ZNSt11__copy_moveILb1ELb1ESt26random_access_iterator_tagE8__copy_mIxEEPT_PKS3_S6_S4_(i64* %0, i64* %1, i64* %2) #4 comdat align 2 {
  %4 = ptrtoint i64* %1 to i64
  %5 = ptrtoint i64* %0 to i64
  %6 = sub i64 %4, %5
  %7 = sdiv exact i64 %6, 8
  %8 = icmp ne i64 %7, 0
  br i1 %8, label %9, label %13

9:                                                ; preds = %3
  %10 = bitcast i64* %2 to i8*
  %11 = bitcast i64* %0 to i8*
  %12 = mul i64 8, %7
  call void @llvm.memmove.p0i8.p0i8.i64(i8* align 8 %10, i8* align 8 %11, i64 %12, i1 false)
  br label %13

13:                                               ; preds = %9, %3
  %14 = getelementptr inbounds i64, i64* %2, i64 %7
  ret i64* %14
}

; Function Attrs: noinline nounwind uwtable
define linkonce_odr i64* @_ZSt12__miter_baseIPxET_S1_(i64* %0) #4 comdat {
  ret i64* %0
}

; Function Attrs: noinline nounwind uwtable
define linkonce_odr i64* @_ZNKSt13move_iteratorIPxE4baseEv(%"class.std::move_iterator"* %0) #4 comdat align 2 {
  %2 = getelementptr inbounds %"class.std::move_iterator", %"class.std::move_iterator"* %0, i32 0, i32 0
  %3 = load i64*, i64** %2, align 8
  ret i64* %3
}

; Function Attrs: noinline nounwind uwtable
define linkonce_odr void @_ZNSt13move_iteratorIPxEC2ES0_(%"class.std::move_iterator"* %0, i64* %1) unnamed_addr #4 comdat align 2 {
  %3 = getelementptr inbounds %"class.std::move_iterator", %"class.std::move_iterator"* %0, i32 0, i32 0
  store i64* %1, i64** %3, align 8
  ret void
}

; Function Attrs: noinline nounwind uwtable
define linkonce_odr void @_ZN9__gnu_cxx13new_allocatorIxE7destroyIxEEvPT_(%"class.__gnu_cxx::new_allocator"* %0, i64* %1) #4 comdat align 2 {
  ret void
}

; Function Attrs: noinline uwtable
define internal void @_GLOBAL__sub_I_s668461618.cpp() #0 section ".text.startup" {
  call void @__cxx_global_var_init()
  call void @__cxx_global_var_init.1()
  ret void
}

; Function Attrs: argmemonly nocallback nofree nounwind willreturn writeonly
declare void @llvm.memset.p0i8.i64(i8* nocapture writeonly, i8, i64, i1 immarg) #10

; Function Attrs: argmemonly nocallback nofree nounwind willreturn
declare void @llvm.memcpy.p0i8.p0i8.i64(i8* noalias nocapture writeonly, i8* noalias nocapture readonly, i64, i1 immarg) #11

; Function Attrs: argmemonly nocallback nofree nounwind willreturn
declare void @llvm.memmove.p0i8.p0i8.i64(i8* nocapture writeonly, i8* nocapture readonly, i64, i1 immarg) #11

attributes #0 = { noinline uwtable "correctly-rounded-divide-sqrt-fp-math"="false" "disable-tail-calls"="false" "less-precise-fpmad"="false" "no-frame-pointer-elim"="true" "no-frame-pointer-elim-non-leaf" "no-infs-fp-math"="false" "no-jump-tables"="false" "no-nans-fp-math"="false" "no-signed-zeros-fp-math"="false" "no-trapping-math"="false" "stack-protector-buffer-size"="8" "target-cpu"="x86-64" "target-features"="+fxsr,+mmx,+sse,+sse2,+x87" "unsafe-fp-math"="false" "use-soft-float"="false" }
attributes #1 = { "correctly-rounded-divide-sqrt-fp-math"="false" "disable-tail-calls"="false" "less-precise-fpmad"="false" "no-frame-pointer-elim"="true" "no-frame-pointer-elim-non-leaf" "no-infs-fp-math"="false" "no-nans-fp-math"="false" "no-signed-zeros-fp-math"="false" "no-trapping-math"="false" "stack-protector-buffer-size"="8" "target-cpu"="x86-64" "target-features"="+fxsr,+mmx,+sse,+sse2,+x87" "unsafe-fp-math"="false" "use-soft-float"="false" }
attributes #2 = { nounwind "correctly-rounded-divide-sqrt-fp-math"="false" "disable-tail-calls"="false" "less-precise-fpmad"="false" "no-frame-pointer-elim"="true" "no-frame-pointer-elim-non-leaf" "no-infs-fp-math"="false" "no-nans-fp-math"="false" "no-signed-zeros-fp-math"="false" "no-trapping-math"="false" "stack-protector-buffer-size"="8" "target-cpu"="x86-64" "target-features"="+fxsr,+mmx,+sse,+sse2,+x87" "unsafe-fp-math"="false" "use-soft-float"="false" }
attributes #3 = { nounwind }
attributes #4 = { noinline nounwind uwtable "correctly-rounded-divide-sqrt-fp-math"="false" "disable-tail-calls"="false" "less-precise-fpmad"="false" "no-frame-pointer-elim"="true" "no-frame-pointer-elim-non-leaf" "no-infs-fp-math"="false" "no-jump-tables"="false" "no-nans-fp-math"="false" "no-signed-zeros-fp-math"="false" "no-trapping-math"="false" "stack-protector-buffer-size"="8" "target-cpu"="x86-64" "target-features"="+fxsr,+mmx,+sse,+sse2,+x87" "unsafe-fp-math"="false" "use-soft-float"="false" }
attributes #5 = { noinline norecurse uwtable "correctly-rounded-divide-sqrt-fp-math"="false" "disable-tail-calls"="false" "less-precise-fpmad"="false" "no-frame-pointer-elim"="true" "no-frame-pointer-elim-non-leaf" "no-infs-fp-math"="false" "no-jump-tables"="false" "no-nans-fp-math"="false" "no-signed-zeros-fp-math"="false" "no-trapping-math"="false" "stack-protector-buffer-size"="8" "target-cpu"="x86-64" "target-features"="+fxsr,+mmx,+sse,+sse2,+x87" "unsafe-fp-math"="false" "use-soft-float"="false" }
attributes #6 = { noinline noreturn nounwind }
attributes #7 = { nobuiltin nounwind "correctly-rounded-divide-sqrt-fp-math"="false" "disable-tail-calls"="false" "less-precise-fpmad"="false" "no-frame-pointer-elim"="true" "no-frame-pointer-elim-non-leaf" "no-infs-fp-math"="false" "no-nans-fp-math"="false" "no-signed-zeros-fp-math"="false" "no-trapping-math"="false" "stack-protector-buffer-size"="8" "target-cpu"="x86-64" "target-features"="+fxsr,+mmx,+sse,+sse2,+x87" "unsafe-fp-math"="false" "use-soft-float"="false" }
attributes #8 = { noreturn "correctly-rounded-divide-sqrt-fp-math"="false" "disable-tail-calls"="false" "less-precise-fpmad"="false" "no-frame-pointer-elim"="true" "no-frame-pointer-elim-non-leaf" "no-infs-fp-math"="false" "no-nans-fp-math"="false" "no-signed-zeros-fp-math"="false" "no-trapping-math"="false" "stack-protector-buffer-size"="8" "target-cpu"="x86-64" "target-features"="+fxsr,+mmx,+sse,+sse2,+x87" "unsafe-fp-math"="false" "use-soft-float"="false" }
attributes #9 = { nobuiltin "correctly-rounded-divide-sqrt-fp-math"="false" "disable-tail-calls"="false" "less-precise-fpmad"="false" "no-frame-pointer-elim"="true" "no-frame-pointer-elim-non-leaf" "no-infs-fp-math"="false" "no-nans-fp-math"="false" "no-signed-zeros-fp-math"="false" "no-trapping-math"="false" "stack-protector-buffer-size"="8" "target-cpu"="x86-64" "target-features"="+fxsr,+mmx,+sse,+sse2,+x87" "unsafe-fp-math"="false" "use-soft-float"="false" }
attributes #10 = { argmemonly nocallback nofree nounwind willreturn writeonly }
attributes #11 = { argmemonly nocallback nofree nounwind willreturn }
attributes #12 = { noreturn nounwind }
attributes #13 = { noreturn }

!llvm.module.flags = !{!0}
!llvm.ident = !{!1}

!0 = !{i32 1, !"wchar_size", i32 4}
!1 = !{!"clang version 6.0.0-1ubuntu2 (tags/RELEASE_600/final)"}
