; ModuleID = '/home/pedro/tcc/exDataset/codenet/data/selection2/p01834/s944971323.ll'
source_filename = "/home/pedro/tcc/exDataset/codenet/data/selection2/p01834/s944971323.cpp"
target datalayout = "e-m:e-i64:64-f80:128-n8:16:32:64-S128"
target triple = "x86_64-pc-linux-gnu"

%"class.std::vector" = type { %"struct.std::_Vector_base" }
%"struct.std::_Vector_base" = type { %"struct.std::_Vector_base<point, std::allocator<point> >::_Vector_impl" }
%"struct.std::_Vector_base<point, std::allocator<point> >::_Vector_impl" = type { %struct.point*, %struct.point*, %struct.point* }
%struct.point = type { i32, i32, i32 }
%"class.std::map" = type { %"class.std::_Rb_tree" }
%"class.std::_Rb_tree" = type { %"struct.std::_Rb_tree<point, std::pair<const point, int>, std::_Select1st<std::pair<const point, int> >, std::less<point>, std::allocator<std::pair<const point, int> > >::_Rb_tree_impl" }
%"struct.std::_Rb_tree<point, std::pair<const point, int>, std::_Select1st<std::pair<const point, int> >, std::less<point>, std::allocator<std::pair<const point, int> > >::_Rb_tree_impl" = type { %"struct.std::_Rb_tree_key_compare", %"struct.std::_Rb_tree_header" }
%"struct.std::_Rb_tree_key_compare" = type { %"struct.std::less" }
%"struct.std::less" = type { i8 }
%"struct.std::_Rb_tree_header" = type { %"struct.std::_Rb_tree_node_base", i64 }
%"struct.std::_Rb_tree_node_base" = type { i32, %"struct.std::_Rb_tree_node_base"*, %"struct.std::_Rb_tree_node_base"*, %"struct.std::_Rb_tree_node_base"* }
%"class.std::set" = type { %"class.std::_Rb_tree.3" }
%"class.std::_Rb_tree.3" = type { %"struct.std::_Rb_tree<point, point, std::_Identity<point>, std::less<point>, std::allocator<point> >::_Rb_tree_impl" }
%"struct.std::_Rb_tree<point, point, std::_Identity<point>, std::less<point>, std::allocator<point> >::_Rb_tree_impl" = type { %"struct.std::_Rb_tree_key_compare", %"struct.std::_Rb_tree_header" }
%"struct.std::piecewise_construct_t" = type { i8 }
%"class.std::allocator" = type { i8 }
%"class.__gnu_cxx::__normal_iterator" = type { %struct.point* }
%"struct.std::_Rb_tree_iterator" = type { %"struct.std::_Rb_tree_node_base"* }
%"struct.std::_Rb_tree_const_iterator.12" = type { %"struct.std::_Rb_tree_node_base"* }
%"class.std::tuple" = type { %"struct.std::_Tuple_impl" }
%"struct.std::_Tuple_impl" = type { %"struct.std::_Head_base" }
%"struct.std::_Head_base" = type { %struct.point* }
%"class.std::tuple.13" = type { i8 }
%"struct.std::pair.7" = type { %struct.point, i32 }
%"struct.std::pair" = type <{ %"struct.std::_Rb_tree_const_iterator", i8, [7 x i8] }>
%"struct.std::_Rb_tree_const_iterator" = type { %"struct.std::_Rb_tree_node_base"* }
%"struct.std::pair.18" = type <{ %"struct.std::_Rb_tree_iterator.21", i8, [7 x i8] }>
%"struct.std::_Rb_tree_iterator.21" = type { %"struct.std::_Rb_tree_node_base"* }
%"struct.std::_Rb_tree_node.10" = type <{ %"struct.std::_Rb_tree_node_base", %"struct.__gnu_cxx::__aligned_membuf.11", [4 x i8] }>
%"struct.__gnu_cxx::__aligned_membuf.11" = type { [12 x i8] }
%"struct.std::_Rb_tree_node" = type { %"struct.std::_Rb_tree_node_base", %"struct.__gnu_cxx::__aligned_membuf" }
%"struct.__gnu_cxx::__aligned_membuf" = type { [16 x i8] }
%"class.std::allocator.0" = type { i8 }
%"class.__gnu_cxx::new_allocator.1" = type { i8 }
%"class.std::allocator.4" = type { i8 }
%"class.__gnu_cxx::new_allocator.5" = type { i8 }
%"class.__gnu_cxx::new_allocator" = type { i8 }
%"class.std::move_iterator" = type { %struct.point* }
%"struct.std::pair.14" = type { %"struct.std::_Rb_tree_node_base"*, %"struct.std::_Rb_tree_node_base"* }
%"struct.std::_Select1st" = type { i8 }
%"class.std::__pair_base.8" = type { i8 }
%"class.std::__pair_base.15" = type { i8 }
%"struct.std::_Identity" = type { i8 }
%"struct.std::_Rb_tree<point, point, std::_Identity<point>, std::less<point>, std::allocator<point> >::_Alloc_node" = type { %"class.std::_Rb_tree.3"* }
%"class.std::__pair_base" = type { i8 }
%"class.std::__pair_base.19" = type { i8 }
%"struct.std::pair.24" = type { %"struct.std::_Rb_tree_iterator", %"struct.std::_Rb_tree_iterator" }
%"class.std::__pair_base.25" = type { i8 }

$_ZNSt6vectorI5pointSaIS0_EEC2Ev = comdat any

$_ZNSt6vectorI5pointSaIS0_EED2Ev = comdat any

$_ZNSt3mapI5pointiSt4lessIS0_ESaISt4pairIKS0_iEEEC2Ev = comdat any

$_ZNSt3mapI5pointiSt4lessIS0_ESaISt4pairIKS0_iEEED2Ev = comdat any

$_ZNSt3setI5pointSt4lessIS0_ESaIS0_EEC2Ev = comdat any

$_ZNSt3setI5pointSt4lessIS0_ESaIS0_EED2Ev = comdat any

$_ZNSt6vectorI5pointSaIS0_EE9push_backERKS0_ = comdat any

$_ZNSt3mapI5pointiSt4lessIS0_ESaISt4pairIKS0_iEEEixERS4_ = comdat any

$_ZN5pointC2Eiii = comdat any

$_ZNKSt3mapI5pointiSt4lessIS0_ESaISt4pairIKS0_iEEE5countERS4_ = comdat any

$_ZNSt3setI5pointSt4lessIS0_ESaIS0_EE6insertEOS0_ = comdat any

$_ZNKSt3setI5pointSt4lessIS0_ESaIS0_EE5beginEv = comdat any

$_ZNKSt3setI5pointSt4lessIS0_ESaIS0_EE3endEv = comdat any

$_ZNKSt23_Rb_tree_const_iteratorI5pointEneERKS1_ = comdat any

$_ZNKSt23_Rb_tree_const_iteratorI5pointEdeEv = comdat any

$_ZNSt3mapI5pointiSt4lessIS0_ESaISt4pairIKS0_iEEE5eraseERS4_ = comdat any

$_ZNSt23_Rb_tree_const_iteratorI5pointEppEv = comdat any

$_ZNSt3mapI5pointiSt4lessIS0_ESaISt4pairIKS0_iEEE5beginEv = comdat any

$_ZNSt3mapI5pointiSt4lessIS0_ESaISt4pairIKS0_iEEE3endEv = comdat any

$_ZNKSt17_Rb_tree_iteratorISt4pairIK5pointiEEneERKS4_ = comdat any

$_ZNKSt17_Rb_tree_iteratorISt4pairIK5pointiEEdeEv = comdat any

$_ZNSt17_Rb_tree_iteratorISt4pairIK5pointiEEppEv = comdat any

$_ZNSt6vectorI5pointSaIS0_EE5beginEv = comdat any

$_ZNSt6vectorI5pointSaIS0_EE3endEv = comdat any

$_ZN9__gnu_cxxneIP5pointSt6vectorIS1_SaIS1_EEEEbRKNS_17__normal_iteratorIT_T0_EESB_ = comdat any

$_ZNK9__gnu_cxx17__normal_iteratorIP5pointSt6vectorIS1_SaIS1_EEEdeEv = comdat any

$_ZNSt6vectorI5pointSaIS0_EE5clearEv = comdat any

$_ZN9__gnu_cxx17__normal_iteratorIP5pointSt6vectorIS1_SaIS1_EEEppEv = comdat any

$_ZNSt8_Rb_treeI5pointSt4pairIKS0_iESt10_Select1stIS3_ESt4lessIS0_ESaIS3_EEC2Ev = comdat any

$_ZNSt8_Rb_treeI5pointSt4pairIKS0_iESt10_Select1stIS3_ESt4lessIS0_ESaIS3_EE13_Rb_tree_implIS7_Lb1EEC2Ev = comdat any

$_ZNSaISt13_Rb_tree_nodeISt4pairIK5pointiEEEC2Ev = comdat any

$_ZNSt20_Rb_tree_key_compareISt4lessI5pointEEC2Ev = comdat any

$_ZNSt15_Rb_tree_headerC2Ev = comdat any

$_ZN9__gnu_cxx13new_allocatorISt13_Rb_tree_nodeISt4pairIK5pointiEEEC2Ev = comdat any

$_ZNSt15_Rb_tree_header8_M_resetEv = comdat any

$__clang_call_terminate = comdat any

$_ZNSt8_Rb_treeI5pointSt4pairIKS0_iESt10_Select1stIS3_ESt4lessIS0_ESaIS3_EED2Ev = comdat any

$_ZNSt8_Rb_treeI5pointSt4pairIKS0_iESt10_Select1stIS3_ESt4lessIS0_ESaIS3_EE8_M_eraseEPSt13_Rb_tree_nodeIS3_E = comdat any

$_ZNSt8_Rb_treeI5pointSt4pairIKS0_iESt10_Select1stIS3_ESt4lessIS0_ESaIS3_EE8_M_beginEv = comdat any

$_ZNSt8_Rb_treeI5pointSt4pairIKS0_iESt10_Select1stIS3_ESt4lessIS0_ESaIS3_EE13_Rb_tree_implIS7_Lb1EED2Ev = comdat any

$_ZNSt8_Rb_treeI5pointSt4pairIKS0_iESt10_Select1stIS3_ESt4lessIS0_ESaIS3_EE8_S_rightEPSt18_Rb_tree_node_base = comdat any

$_ZNSt8_Rb_treeI5pointSt4pairIKS0_iESt10_Select1stIS3_ESt4lessIS0_ESaIS3_EE7_S_leftEPSt18_Rb_tree_node_base = comdat any

$_ZNSt8_Rb_treeI5pointSt4pairIKS0_iESt10_Select1stIS3_ESt4lessIS0_ESaIS3_EE12_M_drop_nodeEPSt13_Rb_tree_nodeIS3_E = comdat any

$_ZNSt8_Rb_treeI5pointSt4pairIKS0_iESt10_Select1stIS3_ESt4lessIS0_ESaIS3_EE15_M_destroy_nodeEPSt13_Rb_tree_nodeIS3_E = comdat any

$_ZNSt8_Rb_treeI5pointSt4pairIKS0_iESt10_Select1stIS3_ESt4lessIS0_ESaIS3_EE11_M_put_nodeEPSt13_Rb_tree_nodeIS3_E = comdat any

$_ZNSt16allocator_traitsISaISt13_Rb_tree_nodeISt4pairIK5pointiEEEE7destroyIS4_EEvRS6_PT_ = comdat any

$_ZNSt8_Rb_treeI5pointSt4pairIKS0_iESt10_Select1stIS3_ESt4lessIS0_ESaIS3_EE21_M_get_Node_allocatorEv = comdat any

$_ZNSt13_Rb_tree_nodeISt4pairIK5pointiEE9_M_valptrEv = comdat any

$_ZN9__gnu_cxx13new_allocatorISt13_Rb_tree_nodeISt4pairIK5pointiEEE7destroyIS5_EEvPT_ = comdat any

$_ZN9__gnu_cxx16__aligned_membufISt4pairIK5pointiEE6_M_ptrEv = comdat any

$_ZN9__gnu_cxx16__aligned_membufISt4pairIK5pointiEE7_M_addrEv = comdat any

$_ZNSt16allocator_traitsISaISt13_Rb_tree_nodeISt4pairIK5pointiEEEE10deallocateERS6_PS5_m = comdat any

$_ZN9__gnu_cxx13new_allocatorISt13_Rb_tree_nodeISt4pairIK5pointiEEE10deallocateEPS6_m = comdat any

$_ZNSaISt13_Rb_tree_nodeISt4pairIK5pointiEEED2Ev = comdat any

$_ZN9__gnu_cxx13new_allocatorISt13_Rb_tree_nodeISt4pairIK5pointiEEED2Ev = comdat any

$_ZNSt8_Rb_treeI5pointS0_St9_IdentityIS0_ESt4lessIS0_ESaIS0_EEC2Ev = comdat any

$_ZNSt8_Rb_treeI5pointS0_St9_IdentityIS0_ESt4lessIS0_ESaIS0_EE13_Rb_tree_implIS4_Lb1EEC2Ev = comdat any

$_ZNSaISt13_Rb_tree_nodeI5pointEEC2Ev = comdat any

$_ZN9__gnu_cxx13new_allocatorISt13_Rb_tree_nodeI5pointEEC2Ev = comdat any

$_ZNSt8_Rb_treeI5pointS0_St9_IdentityIS0_ESt4lessIS0_ESaIS0_EED2Ev = comdat any

$_ZNSt8_Rb_treeI5pointS0_St9_IdentityIS0_ESt4lessIS0_ESaIS0_EE8_M_eraseEPSt13_Rb_tree_nodeIS0_E = comdat any

$_ZNSt8_Rb_treeI5pointS0_St9_IdentityIS0_ESt4lessIS0_ESaIS0_EE8_M_beginEv = comdat any

$_ZNSt8_Rb_treeI5pointS0_St9_IdentityIS0_ESt4lessIS0_ESaIS0_EE13_Rb_tree_implIS4_Lb1EED2Ev = comdat any

$_ZNSt8_Rb_treeI5pointS0_St9_IdentityIS0_ESt4lessIS0_ESaIS0_EE8_S_rightEPSt18_Rb_tree_node_base = comdat any

$_ZNSt8_Rb_treeI5pointS0_St9_IdentityIS0_ESt4lessIS0_ESaIS0_EE7_S_leftEPSt18_Rb_tree_node_base = comdat any

$_ZNSt8_Rb_treeI5pointS0_St9_IdentityIS0_ESt4lessIS0_ESaIS0_EE12_M_drop_nodeEPSt13_Rb_tree_nodeIS0_E = comdat any

$_ZNSt8_Rb_treeI5pointS0_St9_IdentityIS0_ESt4lessIS0_ESaIS0_EE15_M_destroy_nodeEPSt13_Rb_tree_nodeIS0_E = comdat any

$_ZNSt8_Rb_treeI5pointS0_St9_IdentityIS0_ESt4lessIS0_ESaIS0_EE11_M_put_nodeEPSt13_Rb_tree_nodeIS0_E = comdat any

$_ZNSt16allocator_traitsISaISt13_Rb_tree_nodeI5pointEEE7destroyIS1_EEvRS3_PT_ = comdat any

$_ZNSt8_Rb_treeI5pointS0_St9_IdentityIS0_ESt4lessIS0_ESaIS0_EE21_M_get_Node_allocatorEv = comdat any

$_ZNSt13_Rb_tree_nodeI5pointE9_M_valptrEv = comdat any

$_ZN9__gnu_cxx13new_allocatorISt13_Rb_tree_nodeI5pointEE7destroyIS2_EEvPT_ = comdat any

$_ZN9__gnu_cxx16__aligned_membufI5pointE6_M_ptrEv = comdat any

$_ZN9__gnu_cxx16__aligned_membufI5pointE7_M_addrEv = comdat any

$_ZNSt16allocator_traitsISaISt13_Rb_tree_nodeI5pointEEE10deallocateERS3_PS2_m = comdat any

$_ZN9__gnu_cxx13new_allocatorISt13_Rb_tree_nodeI5pointEE10deallocateEPS3_m = comdat any

$_ZNSaISt13_Rb_tree_nodeI5pointEED2Ev = comdat any

$_ZN9__gnu_cxx13new_allocatorISt13_Rb_tree_nodeI5pointEED2Ev = comdat any

$_ZNSt12_Vector_baseI5pointSaIS0_EEC2Ev = comdat any

$_ZNSt12_Vector_baseI5pointSaIS0_EE12_Vector_implC2Ev = comdat any

$_ZNSaI5pointEC2Ev = comdat any

$_ZN9__gnu_cxx13new_allocatorI5pointEC2Ev = comdat any

$_ZSt8_DestroyIP5pointS0_EvT_S2_RSaIT0_E = comdat any

$_ZNSt12_Vector_baseI5pointSaIS0_EE19_M_get_Tp_allocatorEv = comdat any

$_ZNSt12_Vector_baseI5pointSaIS0_EED2Ev = comdat any

$_ZSt8_DestroyIP5pointEvT_S2_ = comdat any

$_ZNSt12_Destroy_auxILb1EE9__destroyIP5pointEEvT_S4_ = comdat any

$_ZNSt12_Vector_baseI5pointSaIS0_EE13_M_deallocateEPS0_m = comdat any

$_ZNSt12_Vector_baseI5pointSaIS0_EE12_Vector_implD2Ev = comdat any

$_ZNSt16allocator_traitsISaI5pointEE10deallocateERS1_PS0_m = comdat any

$_ZN9__gnu_cxx13new_allocatorI5pointE10deallocateEPS1_m = comdat any

$_ZNSaI5pointED2Ev = comdat any

$_ZN9__gnu_cxx13new_allocatorI5pointED2Ev = comdat any

$_ZNSt16allocator_traitsISaI5pointEE9constructIS0_JRKS0_EEEvRS1_PT_DpOT0_ = comdat any

$_ZNSt6vectorI5pointSaIS0_EE17_M_realloc_insertIJRKS0_EEEvN9__gnu_cxx17__normal_iteratorIPS0_S2_EEDpOT_ = comdat any

$_ZN9__gnu_cxx13new_allocatorI5pointE9constructIS1_JRKS1_EEEvPT_DpOT0_ = comdat any

$_ZSt7forwardIRK5pointEOT_RNSt16remove_referenceIS3_E4typeE = comdat any

$_ZNKSt6vectorI5pointSaIS0_EE12_M_check_lenEmPKc = comdat any

$_ZN9__gnu_cxxmiIP5pointSt6vectorIS1_SaIS1_EEEENS_17__normal_iteratorIT_T0_E15difference_typeERKS9_SC_ = comdat any

$_ZNSt12_Vector_baseI5pointSaIS0_EE11_M_allocateEm = comdat any

$_ZSt34__uninitialized_move_if_noexcept_aIP5pointS1_SaIS0_EET0_T_S4_S3_RT1_ = comdat any

$_ZNK9__gnu_cxx17__normal_iteratorIP5pointSt6vectorIS1_SaIS1_EEE4baseEv = comdat any

$_ZNSt16allocator_traitsISaI5pointEE7destroyIS0_EEvRS1_PT_ = comdat any

$_ZNKSt6vectorI5pointSaIS0_EE8max_sizeEv = comdat any

$_ZNKSt6vectorI5pointSaIS0_EE4sizeEv = comdat any

$_ZSt3maxImERKT_S2_S2_ = comdat any

$_ZNSt16allocator_traitsISaI5pointEE8max_sizeERKS1_ = comdat any

$_ZNKSt12_Vector_baseI5pointSaIS0_EE19_M_get_Tp_allocatorEv = comdat any

$_ZNK9__gnu_cxx13new_allocatorI5pointE8max_sizeEv = comdat any

$_ZNSt16allocator_traitsISaI5pointEE8allocateERS1_m = comdat any

$_ZN9__gnu_cxx13new_allocatorI5pointE8allocateEmPKv = comdat any

$_ZSt22__uninitialized_copy_aISt13move_iteratorIP5pointES2_S1_ET0_T_S5_S4_RSaIT1_E = comdat any

$_ZSt32__make_move_if_noexcept_iteratorI5pointSt13move_iteratorIPS0_EET0_PT_ = comdat any

$_ZSt18uninitialized_copyISt13move_iteratorIP5pointES2_ET0_T_S5_S4_ = comdat any

$_ZNSt20__uninitialized_copyILb0EE13__uninit_copyISt13move_iteratorIP5pointES4_EET0_T_S7_S6_ = comdat any

$_ZStneIP5pointEbRKSt13move_iteratorIT_ES6_ = comdat any

$_ZSt10_ConstructI5pointJS0_EEvPT_DpOT0_ = comdat any

$_ZSt11__addressofI5pointEPT_RS1_ = comdat any

$_ZNKSt13move_iteratorIP5pointEdeEv = comdat any

$_ZNSt13move_iteratorIP5pointEppEv = comdat any

$_ZSteqIP5pointEbRKSt13move_iteratorIT_ES6_ = comdat any

$_ZNKSt13move_iteratorIP5pointE4baseEv = comdat any

$_ZSt7forwardI5pointEOT_RNSt16remove_referenceIS1_E4typeE = comdat any

$_ZNSt13move_iteratorIP5pointEC2ES1_ = comdat any

$_ZN9__gnu_cxx13new_allocatorI5pointE7destroyIS1_EEvPT_ = comdat any

$_ZNSt3mapI5pointiSt4lessIS0_ESaISt4pairIKS0_iEEE11lower_boundERS4_ = comdat any

$_ZNKSt17_Rb_tree_iteratorISt4pairIK5pointiEEeqERKS4_ = comdat any

$_ZNKSt3mapI5pointiSt4lessIS0_ESaISt4pairIKS0_iEEE8key_compEv = comdat any

$_ZNKSt4lessI5pointEclERKS0_S3_ = comdat any

$_ZNSt8_Rb_treeI5pointSt4pairIKS0_iESt10_Select1stIS3_ESt4lessIS0_ESaIS3_EE22_M_emplace_hint_uniqueIJRKSt21piecewise_construct_tSt5tupleIJRS2_EESE_IJEEEEESt17_Rb_tree_iteratorIS3_ESt23_Rb_tree_const_iteratorIS3_EDpOT_ = comdat any

$_ZNSt23_Rb_tree_const_iteratorISt4pairIK5pointiEEC2ERKSt17_Rb_tree_iteratorIS3_E = comdat any

$_ZNSt5tupleIJRK5pointEEC2IvLb1EEES2_ = comdat any

$_ZNSt8_Rb_treeI5pointSt4pairIKS0_iESt10_Select1stIS3_ESt4lessIS0_ESaIS3_EE11lower_boundERS2_ = comdat any

$_ZNSt8_Rb_treeI5pointSt4pairIKS0_iESt10_Select1stIS3_ESt4lessIS0_ESaIS3_EE14_M_lower_boundEPSt13_Rb_tree_nodeIS3_EPSt18_Rb_tree_node_baseRS2_ = comdat any

$_ZNSt8_Rb_treeI5pointSt4pairIKS0_iESt10_Select1stIS3_ESt4lessIS0_ESaIS3_EE6_M_endEv = comdat any

$_ZNSt8_Rb_treeI5pointSt4pairIKS0_iESt10_Select1stIS3_ESt4lessIS0_ESaIS3_EE6_S_keyEPKSt13_Rb_tree_nodeIS3_E = comdat any

$_ZNSt17_Rb_tree_iteratorISt4pairIK5pointiEEC2EPSt18_Rb_tree_node_base = comdat any

$_ZNKSt10_Select1stISt4pairIK5pointiEEclERKS3_ = comdat any

$_ZNKSt13_Rb_tree_nodeISt4pairIK5pointiEE9_M_valptrEv = comdat any

$_ZNK9__gnu_cxx16__aligned_membufISt4pairIK5pointiEE6_M_ptrEv = comdat any

$_ZNK9__gnu_cxx16__aligned_membufISt4pairIK5pointiEE7_M_addrEv = comdat any

$_ZNKSt8_Rb_treeI5pointSt4pairIKS0_iESt10_Select1stIS3_ESt4lessIS0_ESaIS3_EE8key_compEv = comdat any

$_ZNSt8_Rb_treeI5pointSt4pairIKS0_iESt10_Select1stIS3_ESt4lessIS0_ESaIS3_EE14_M_create_nodeIJRKSt21piecewise_construct_tSt5tupleIJRS2_EESE_IJEEEEEPSt13_Rb_tree_nodeIS3_EDpOT_ = comdat any

$_ZSt7forwardIRKSt21piecewise_construct_tEOT_RNSt16remove_referenceIS3_E4typeE = comdat any

$_ZSt7forwardISt5tupleIJRK5pointEEEOT_RNSt16remove_referenceIS5_E4typeE = comdat any

$_ZSt7forwardISt5tupleIJEEEOT_RNSt16remove_referenceIS2_E4typeE = comdat any

$_ZNSt8_Rb_treeI5pointSt4pairIKS0_iESt10_Select1stIS3_ESt4lessIS0_ESaIS3_EE29_M_get_insert_hint_unique_posESt23_Rb_tree_const_iteratorIS3_ERS2_ = comdat any

$_ZNSt8_Rb_treeI5pointSt4pairIKS0_iESt10_Select1stIS3_ESt4lessIS0_ESaIS3_EE14_M_insert_nodeEPSt18_Rb_tree_node_baseSB_PSt13_Rb_tree_nodeIS3_E = comdat any

$_ZNSt8_Rb_treeI5pointSt4pairIKS0_iESt10_Select1stIS3_ESt4lessIS0_ESaIS3_EE11_M_get_nodeEv = comdat any

$_ZNSt8_Rb_treeI5pointSt4pairIKS0_iESt10_Select1stIS3_ESt4lessIS0_ESaIS3_EE17_M_construct_nodeIJRKSt21piecewise_construct_tSt5tupleIJRS2_EESE_IJEEEEEvPSt13_Rb_tree_nodeIS3_EDpOT_ = comdat any

$_ZNSt16allocator_traitsISaISt13_Rb_tree_nodeISt4pairIK5pointiEEEE8allocateERS6_m = comdat any

$_ZN9__gnu_cxx13new_allocatorISt13_Rb_tree_nodeISt4pairIK5pointiEEE8allocateEmPKv = comdat any

$_ZNK9__gnu_cxx13new_allocatorISt13_Rb_tree_nodeISt4pairIK5pointiEEE8max_sizeEv = comdat any

$_ZNSt16allocator_traitsISaISt13_Rb_tree_nodeISt4pairIK5pointiEEEE9constructIS4_JRKSt21piecewise_construct_tSt5tupleIJRS3_EESC_IJEEEEEvRS6_PT_DpOT0_ = comdat any

$_ZN9__gnu_cxx13new_allocatorISt13_Rb_tree_nodeISt4pairIK5pointiEEE9constructIS5_JRKSt21piecewise_construct_tSt5tupleIJRS4_EESC_IJEEEEEvPT_DpOT0_ = comdat any

$_ZNSt5tupleIJRK5pointEEC2EOS3_ = comdat any

$_ZNSt4pairIK5pointiEC2IJRS1_EJEEESt21piecewise_construct_tSt5tupleIJDpT_EES6_IJDpT0_EE = comdat any

$_ZNSt11_Tuple_implILm0EJRK5pointEEC2EOS3_ = comdat any

$_ZNSt11_Tuple_implILm0EJRK5pointEE7_M_headERS3_ = comdat any

$_ZNSt10_Head_baseILm0ERK5pointLb0EEC2ES2_ = comdat any

$_ZNSt10_Head_baseILm0ERK5pointLb0EE7_M_headERS3_ = comdat any

$_ZNSt4pairIK5pointiEC2IJRS1_EJLm0EEJEJEEERSt5tupleIJDpT_EERS5_IJDpT1_EESt12_Index_tupleIJXspT0_EEESE_IJXspT2_EEE = comdat any

$_ZSt3getILm0EJRK5pointEERNSt13tuple_elementIXT_ESt5tupleIJDpT0_EEE4typeERS7_ = comdat any

$_ZSt12__get_helperILm0ERK5pointJEERT0_RSt11_Tuple_implIXT_EJS3_DpT1_EE = comdat any

$_ZNKSt23_Rb_tree_const_iteratorISt4pairIK5pointiEE13_M_const_castEv = comdat any

$_ZNKSt8_Rb_treeI5pointSt4pairIKS0_iESt10_Select1stIS3_ESt4lessIS0_ESaIS3_EE4sizeEv = comdat any

$_ZNSt8_Rb_treeI5pointSt4pairIKS0_iESt10_Select1stIS3_ESt4lessIS0_ESaIS3_EE6_S_keyEPKSt18_Rb_tree_node_base = comdat any

$_ZNSt8_Rb_treeI5pointSt4pairIKS0_iESt10_Select1stIS3_ESt4lessIS0_ESaIS3_EE12_M_rightmostEv = comdat any

$_ZNSt4pairIPSt18_Rb_tree_node_baseS1_EC2IRS1_Lb1EEERKS1_OT_ = comdat any

$_ZNSt8_Rb_treeI5pointSt4pairIKS0_iESt10_Select1stIS3_ESt4lessIS0_ESaIS3_EE24_M_get_insert_unique_posERS2_ = comdat any

$_ZNSt8_Rb_treeI5pointSt4pairIKS0_iESt10_Select1stIS3_ESt4lessIS0_ESaIS3_EE11_M_leftmostEv = comdat any

$_ZNSt4pairIPSt18_Rb_tree_node_baseS1_EC2IRS1_S4_Lb1EEEOT_OT0_ = comdat any

$_ZNSt17_Rb_tree_iteratorISt4pairIK5pointiEEmmEv = comdat any

$_ZNSt4pairIPSt18_Rb_tree_node_baseS1_EC2IRS1_Lb1EEEOT_RKS1_ = comdat any

$_ZSt7forwardIRPSt18_Rb_tree_node_baseEOT_RNSt16remove_referenceIS3_E4typeE = comdat any

$_ZNSt8_Rb_treeI5pointSt4pairIKS0_iESt10_Select1stIS3_ESt4lessIS0_ESaIS3_EE5beginEv = comdat any

$_ZNSt4pairIPSt18_Rb_tree_node_baseS1_EC2IRPSt13_Rb_tree_nodeIS_IK5pointiEERS1_Lb1EEEOT_OT0_ = comdat any

$_ZSt7forwardIRPSt13_Rb_tree_nodeISt4pairIK5pointiEEEOT_RNSt16remove_referenceIS8_E4typeE = comdat any

$_ZNSt11_Tuple_implILm0EJRK5pointEEC2ES2_ = comdat any

$_ZNKSt8_Rb_treeI5pointSt4pairIKS0_iESt10_Select1stIS3_ESt4lessIS0_ESaIS3_EE4findERS2_ = comdat any

$_ZNKSt23_Rb_tree_const_iteratorISt4pairIK5pointiEEeqERKS4_ = comdat any

$_ZNKSt8_Rb_treeI5pointSt4pairIKS0_iESt10_Select1stIS3_ESt4lessIS0_ESaIS3_EE3endEv = comdat any

$_ZNKSt8_Rb_treeI5pointSt4pairIKS0_iESt10_Select1stIS3_ESt4lessIS0_ESaIS3_EE14_M_lower_boundEPKSt13_Rb_tree_nodeIS3_EPKSt18_Rb_tree_node_baseRS2_ = comdat any

$_ZNKSt8_Rb_treeI5pointSt4pairIKS0_iESt10_Select1stIS3_ESt4lessIS0_ESaIS3_EE8_M_beginEv = comdat any

$_ZNKSt8_Rb_treeI5pointSt4pairIKS0_iESt10_Select1stIS3_ESt4lessIS0_ESaIS3_EE6_M_endEv = comdat any

$_ZNSt8_Rb_treeI5pointSt4pairIKS0_iESt10_Select1stIS3_ESt4lessIS0_ESaIS3_EE7_S_leftEPKSt18_Rb_tree_node_base = comdat any

$_ZNSt8_Rb_treeI5pointSt4pairIKS0_iESt10_Select1stIS3_ESt4lessIS0_ESaIS3_EE8_S_rightEPKSt18_Rb_tree_node_base = comdat any

$_ZNSt23_Rb_tree_const_iteratorISt4pairIK5pointiEEC2EPKSt18_Rb_tree_node_base = comdat any

$_ZNSt8_Rb_treeI5pointS0_St9_IdentityIS0_ESt4lessIS0_ESaIS0_EE16_M_insert_uniqueIS0_EESt4pairISt17_Rb_tree_iteratorIS0_EbEOT_ = comdat any

$_ZSt4moveIR5pointEONSt16remove_referenceIT_E4typeEOS3_ = comdat any

$_ZNSt4pairISt23_Rb_tree_const_iteratorI5pointEbEC2IRSt17_Rb_tree_iteratorIS1_ERbLb1EEEOT_OT0_ = comdat any

$_ZNSt8_Rb_treeI5pointS0_St9_IdentityIS0_ESt4lessIS0_ESaIS0_EE24_M_get_insert_unique_posERKS0_ = comdat any

$_ZNKSt9_IdentityI5pointEclERS0_ = comdat any

$_ZNSt8_Rb_treeI5pointS0_St9_IdentityIS0_ESt4lessIS0_ESaIS0_EE11_Alloc_nodeC2ERS6_ = comdat any

$_ZNSt8_Rb_treeI5pointS0_St9_IdentityIS0_ESt4lessIS0_ESaIS0_EE10_M_insert_IS0_NS6_11_Alloc_nodeEEESt17_Rb_tree_iteratorIS0_EPSt18_Rb_tree_node_baseSC_OT_RT0_ = comdat any

$_ZNSt4pairISt17_Rb_tree_iteratorI5pointEbEC2IS2_bLb1EEEOT_OT0_ = comdat any

$_ZNSt17_Rb_tree_iteratorI5pointEC2EPSt18_Rb_tree_node_base = comdat any

$_ZNSt8_Rb_treeI5pointS0_St9_IdentityIS0_ESt4lessIS0_ESaIS0_EE6_M_endEv = comdat any

$_ZNSt8_Rb_treeI5pointS0_St9_IdentityIS0_ESt4lessIS0_ESaIS0_EE6_S_keyEPKSt13_Rb_tree_nodeIS0_E = comdat any

$_ZNKSt17_Rb_tree_iteratorI5pointEeqERKS1_ = comdat any

$_ZNSt8_Rb_treeI5pointS0_St9_IdentityIS0_ESt4lessIS0_ESaIS0_EE5beginEv = comdat any

$_ZNSt4pairIPSt18_Rb_tree_node_baseS1_EC2IRPSt13_Rb_tree_nodeI5pointERS1_Lb1EEEOT_OT0_ = comdat any

$_ZNSt17_Rb_tree_iteratorI5pointEmmEv = comdat any

$_ZNSt8_Rb_treeI5pointS0_St9_IdentityIS0_ESt4lessIS0_ESaIS0_EE6_S_keyEPKSt18_Rb_tree_node_base = comdat any

$_ZNKSt9_IdentityI5pointEclERKS0_ = comdat any

$_ZNKSt13_Rb_tree_nodeI5pointE9_M_valptrEv = comdat any

$_ZNK9__gnu_cxx16__aligned_membufI5pointE6_M_ptrEv = comdat any

$_ZNK9__gnu_cxx16__aligned_membufI5pointE7_M_addrEv = comdat any

$_ZSt7forwardIRPSt13_Rb_tree_nodeI5pointEEOT_RNSt16remove_referenceIS5_E4typeE = comdat any

$_ZNKSt8_Rb_treeI5pointS0_St9_IdentityIS0_ESt4lessIS0_ESaIS0_EE11_Alloc_nodeclIS0_EEPSt13_Rb_tree_nodeIS0_EOT_ = comdat any

$_ZNSt8_Rb_treeI5pointS0_St9_IdentityIS0_ESt4lessIS0_ESaIS0_EE14_M_create_nodeIJS0_EEEPSt13_Rb_tree_nodeIS0_EDpOT_ = comdat any

$_ZNSt8_Rb_treeI5pointS0_St9_IdentityIS0_ESt4lessIS0_ESaIS0_EE11_M_get_nodeEv = comdat any

$_ZNSt8_Rb_treeI5pointS0_St9_IdentityIS0_ESt4lessIS0_ESaIS0_EE17_M_construct_nodeIJS0_EEEvPSt13_Rb_tree_nodeIS0_EDpOT_ = comdat any

$_ZNSt16allocator_traitsISaISt13_Rb_tree_nodeI5pointEEE8allocateERS3_m = comdat any

$_ZN9__gnu_cxx13new_allocatorISt13_Rb_tree_nodeI5pointEE8allocateEmPKv = comdat any

$_ZNK9__gnu_cxx13new_allocatorISt13_Rb_tree_nodeI5pointEE8max_sizeEv = comdat any

$_ZNSt16allocator_traitsISaISt13_Rb_tree_nodeI5pointEEE9constructIS1_JS1_EEEvRS3_PT_DpOT0_ = comdat any

$_ZN9__gnu_cxx13new_allocatorISt13_Rb_tree_nodeI5pointEE9constructIS2_JS2_EEEvPT_DpOT0_ = comdat any

$_ZSt7forwardISt17_Rb_tree_iteratorI5pointEEOT_RNSt16remove_referenceIS3_E4typeE = comdat any

$_ZSt7forwardIbEOT_RNSt16remove_referenceIS0_E4typeE = comdat any

$_ZSt7forwardIRSt17_Rb_tree_iteratorI5pointEEOT_RNSt16remove_referenceIS4_E4typeE = comdat any

$_ZNSt23_Rb_tree_const_iteratorI5pointEC2ERKSt17_Rb_tree_iteratorIS0_E = comdat any

$_ZSt7forwardIRbEOT_RNSt16remove_referenceIS1_E4typeE = comdat any

$_ZNKSt8_Rb_treeI5pointS0_St9_IdentityIS0_ESt4lessIS0_ESaIS0_EE5beginEv = comdat any

$_ZNSt23_Rb_tree_const_iteratorI5pointEC2EPKSt18_Rb_tree_node_base = comdat any

$_ZNKSt8_Rb_treeI5pointS0_St9_IdentityIS0_ESt4lessIS0_ESaIS0_EE3endEv = comdat any

$_ZNSt8_Rb_treeI5pointSt4pairIKS0_iESt10_Select1stIS3_ESt4lessIS0_ESaIS3_EE5eraseERS2_ = comdat any

$_ZNSt8_Rb_treeI5pointSt4pairIKS0_iESt10_Select1stIS3_ESt4lessIS0_ESaIS3_EE11equal_rangeERS2_ = comdat any

$_ZNSt8_Rb_treeI5pointSt4pairIKS0_iESt10_Select1stIS3_ESt4lessIS0_ESaIS3_EE12_M_erase_auxESt23_Rb_tree_const_iteratorIS3_ESB_ = comdat any

$_ZNSt8_Rb_treeI5pointSt4pairIKS0_iESt10_Select1stIS3_ESt4lessIS0_ESaIS3_EE14_M_upper_boundEPSt13_Rb_tree_nodeIS3_EPSt18_Rb_tree_node_baseRS2_ = comdat any

$_ZNSt4pairISt17_Rb_tree_iteratorIS_IK5pointiEES4_EC2IS4_S4_Lb1EEEOT_OT0_ = comdat any

$_ZSt7forwardISt17_Rb_tree_iteratorISt4pairIK5pointiEEEOT_RNSt16remove_referenceIS6_E4typeE = comdat any

$_ZNSt8_Rb_treeI5pointSt4pairIKS0_iESt10_Select1stIS3_ESt4lessIS0_ESaIS3_EE3endEv = comdat any

$_ZNSt8_Rb_treeI5pointSt4pairIKS0_iESt10_Select1stIS3_ESt4lessIS0_ESaIS3_EE5clearEv = comdat any

$_ZNKSt23_Rb_tree_const_iteratorISt4pairIK5pointiEEneERKS4_ = comdat any

$_ZNSt8_Rb_treeI5pointSt4pairIKS0_iESt10_Select1stIS3_ESt4lessIS0_ESaIS3_EE12_M_erase_auxESt23_Rb_tree_const_iteratorIS3_E = comdat any

$_ZNSt23_Rb_tree_const_iteratorISt4pairIK5pointiEEppEi = comdat any

$_ZN9__gnu_cxx17__normal_iteratorIP5pointSt6vectorIS1_SaIS1_EEEC2ERKS2_ = comdat any

$_ZNSt6vectorI5pointSaIS0_EE15_M_erase_at_endEPS0_ = comdat any

@.str = private unnamed_addr constant [5 x i8] c"b>=0\00", align 1
@.str.1 = private unnamed_addr constant [72 x i8] c"/home/pedro/tcc/exDataset/codenet/data/selection2/p01834/s944971323.cpp\00", align 1
@__PRETTY_FUNCTION__._Z6powmodxx = private unnamed_addr constant [18 x i8] c"ll powmod(ll, ll)\00", align 1
@vs = global %"class.std::vector" zeroinitializer, align 8
@__dso_handle = external hidden global i8
@a = global i32 0, align 4
@b = global i32 0, align 4
@c = global i32 0, align 4
@n = global i32 0, align 4
@x = global i32 0, align 4
@y = global i32 0, align 4
@z = global i32 0, align 4
@pt = global %"class.std::map" zeroinitializer, align 8
@del = global %"class.std::set" zeroinitializer, align 8
@.str.4 = private unnamed_addr constant [9 x i8] c"%d%d%d%d\00", align 1
@.str.5 = private unnamed_addr constant [7 x i8] c"%d%d%d\00", align 1
@.str.6 = private unnamed_addr constant [4 x i8] c"%d\0A\00", align 1
@.str.7 = private unnamed_addr constant [26 x i8] c"vector::_M_realloc_insert\00", align 1
@_ZStL19piecewise_construct = internal constant %"struct.std::piecewise_construct_t" undef, align 1
@llvm.global_ctors = appending global [1 x { i32, void ()*, i8* }] [{ i32, void ()*, i8* } { i32 65535, void ()* @_GLOBAL__sub_I_s944971323.cpp, i8* null }]

; Function Attrs: noinline nounwind uwtable
define i64 @_Z6powmodxx(i64 %0, i64 %1) #0 {
  %3 = srem i64 %0, 1000000007
  %4 = icmp sge i64 %1, 0
  br i1 %4, label %5, label %6

5:                                                ; preds = %2
  br label %8

6:                                                ; preds = %2
  call void @__assert_fail(i8* getelementptr inbounds ([5 x i8], [5 x i8]* @.str, i32 0, i32 0), i8* getelementptr inbounds ([72 x i8], [72 x i8]* @.str.1, i32 0, i32 0), i32 23, i8* getelementptr inbounds ([18 x i8], [18 x i8]* @__PRETTY_FUNCTION__._Z6powmodxx, i32 0, i32 0)) #15
  unreachable

7:                                                ; No predecessors!
  br label %8

8:                                                ; preds = %7, %5
  br label %9

9:                                                ; preds = %20, %8
  %.02 = phi i64 [ 1, %8 ], [ %.1, %20 ]
  %.01 = phi i64 [ %1, %8 ], [ %21, %20 ]
  %.0 = phi i64 [ %3, %8 ], [ %19, %20 ]
  %10 = icmp ne i64 %.01, 0
  br i1 %10, label %11, label %22

11:                                               ; preds = %9
  %12 = and i64 %.01, 1
  %13 = icmp ne i64 %12, 0
  br i1 %13, label %14, label %17

14:                                               ; preds = %11
  %15 = mul nsw i64 %.02, %.0
  %16 = srem i64 %15, 1000000007
  br label %17

17:                                               ; preds = %14, %11
  %.1 = phi i64 [ %16, %14 ], [ %.02, %11 ]
  %18 = mul nsw i64 %.0, %.0
  %19 = srem i64 %18, 1000000007
  br label %20

20:                                               ; preds = %17
  %21 = ashr i64 %.01, 1
  br label %9

22:                                               ; preds = %9
  ret i64 %.02
}

; Function Attrs: noreturn nounwind
declare void @__assert_fail(i8*, i8*, i32, i8*) #1

; Function Attrs: noinline uwtable
define internal void @__cxx_global_var_init() #2 section ".text.startup" {
  call void @_ZNSt6vectorI5pointSaIS0_EEC2Ev(%"class.std::vector"* @vs) #3
  %1 = call i32 @__cxa_atexit(void (i8*)* bitcast (void (%"class.std::vector"*)* @_ZNSt6vectorI5pointSaIS0_EED2Ev to void (i8*)*), i8* bitcast (%"class.std::vector"* @vs to i8*), i8* @__dso_handle) #3
  ret void
}

; Function Attrs: noinline nounwind uwtable
define linkonce_odr void @_ZNSt6vectorI5pointSaIS0_EEC2Ev(%"class.std::vector"* %0) unnamed_addr #0 comdat align 2 personality i8* bitcast (i32 (...)* @__gxx_personality_v0 to i8*) {
  %2 = bitcast %"class.std::vector"* %0 to %"struct.std::_Vector_base"*
  invoke void @_ZNSt12_Vector_baseI5pointSaIS0_EEC2Ev(%"struct.std::_Vector_base"* %2)
          to label %3 unwind label %4

3:                                                ; preds = %1
  ret void

4:                                                ; preds = %1
  %5 = landingpad { i8*, i32 }
          catch i8* null
  %6 = extractvalue { i8*, i32 } %5, 0
  call void @__clang_call_terminate(i8* %6) #15
  unreachable
}

; Function Attrs: noinline nounwind uwtable
define linkonce_odr void @_ZNSt6vectorI5pointSaIS0_EED2Ev(%"class.std::vector"* %0) unnamed_addr #0 comdat align 2 personality i8* bitcast (i32 (...)* @__gxx_personality_v0 to i8*) {
  %2 = bitcast %"class.std::vector"* %0 to %"struct.std::_Vector_base"*
  %3 = getelementptr inbounds %"struct.std::_Vector_base", %"struct.std::_Vector_base"* %2, i32 0, i32 0
  %4 = getelementptr inbounds %"struct.std::_Vector_base<point, std::allocator<point> >::_Vector_impl", %"struct.std::_Vector_base<point, std::allocator<point> >::_Vector_impl"* %3, i32 0, i32 0
  %5 = load %struct.point*, %struct.point** %4, align 8
  %6 = bitcast %"class.std::vector"* %0 to %"struct.std::_Vector_base"*
  %7 = getelementptr inbounds %"struct.std::_Vector_base", %"struct.std::_Vector_base"* %6, i32 0, i32 0
  %8 = getelementptr inbounds %"struct.std::_Vector_base<point, std::allocator<point> >::_Vector_impl", %"struct.std::_Vector_base<point, std::allocator<point> >::_Vector_impl"* %7, i32 0, i32 1
  %9 = load %struct.point*, %struct.point** %8, align 8
  %10 = bitcast %"class.std::vector"* %0 to %"struct.std::_Vector_base"*
  %11 = call dereferenceable(1) %"class.std::allocator"* @_ZNSt12_Vector_baseI5pointSaIS0_EE19_M_get_Tp_allocatorEv(%"struct.std::_Vector_base"* %10) #3
  invoke void @_ZSt8_DestroyIP5pointS0_EvT_S2_RSaIT0_E(%struct.point* %5, %struct.point* %9, %"class.std::allocator"* dereferenceable(1) %11)
          to label %12 unwind label %14

12:                                               ; preds = %1
  %13 = bitcast %"class.std::vector"* %0 to %"struct.std::_Vector_base"*
  call void @_ZNSt12_Vector_baseI5pointSaIS0_EED2Ev(%"struct.std::_Vector_base"* %13) #3
  ret void

14:                                               ; preds = %1
  %15 = landingpad { i8*, i32 }
          catch i8* null
  %16 = extractvalue { i8*, i32 } %15, 0
  %17 = extractvalue { i8*, i32 } %15, 1
  %18 = bitcast %"class.std::vector"* %0 to %"struct.std::_Vector_base"*
  call void @_ZNSt12_Vector_baseI5pointSaIS0_EED2Ev(%"struct.std::_Vector_base"* %18) #3
  br label %19

19:                                               ; preds = %14
  call void @__clang_call_terminate(i8* %16) #15
  unreachable
}

; Function Attrs: nounwind
declare i32 @__cxa_atexit(void (i8*)*, i8*, i8*) #3

; Function Attrs: noinline uwtable
define internal void @__cxx_global_var_init.2() #2 section ".text.startup" {
  call void @_ZNSt3mapI5pointiSt4lessIS0_ESaISt4pairIKS0_iEEEC2Ev(%"class.std::map"* @pt) #3
  %1 = call i32 @__cxa_atexit(void (i8*)* bitcast (void (%"class.std::map"*)* @_ZNSt3mapI5pointiSt4lessIS0_ESaISt4pairIKS0_iEEED2Ev to void (i8*)*), i8* getelementptr inbounds (%"class.std::map", %"class.std::map"* @pt, i32 0, i32 0, i32 0, i32 0, i32 0, i32 0), i8* @__dso_handle) #3
  ret void
}

; Function Attrs: noinline nounwind uwtable
define linkonce_odr void @_ZNSt3mapI5pointiSt4lessIS0_ESaISt4pairIKS0_iEEEC2Ev(%"class.std::map"* %0) unnamed_addr #0 comdat align 2 {
  %2 = getelementptr inbounds %"class.std::map", %"class.std::map"* %0, i32 0, i32 0
  call void @_ZNSt8_Rb_treeI5pointSt4pairIKS0_iESt10_Select1stIS3_ESt4lessIS0_ESaIS3_EEC2Ev(%"class.std::_Rb_tree"* %2) #3
  ret void
}

; Function Attrs: noinline nounwind uwtable
define linkonce_odr void @_ZNSt3mapI5pointiSt4lessIS0_ESaISt4pairIKS0_iEEED2Ev(%"class.std::map"* %0) unnamed_addr #0 comdat align 2 {
  %2 = getelementptr inbounds %"class.std::map", %"class.std::map"* %0, i32 0, i32 0
  call void @_ZNSt8_Rb_treeI5pointSt4pairIKS0_iESt10_Select1stIS3_ESt4lessIS0_ESaIS3_EED2Ev(%"class.std::_Rb_tree"* %2) #3
  ret void
}

; Function Attrs: noinline uwtable
define internal void @__cxx_global_var_init.3() #2 section ".text.startup" {
  call void @_ZNSt3setI5pointSt4lessIS0_ESaIS0_EEC2Ev(%"class.std::set"* @del) #3
  %1 = call i32 @__cxa_atexit(void (i8*)* bitcast (void (%"class.std::set"*)* @_ZNSt3setI5pointSt4lessIS0_ESaIS0_EED2Ev to void (i8*)*), i8* getelementptr inbounds (%"class.std::set", %"class.std::set"* @del, i32 0, i32 0, i32 0, i32 0, i32 0, i32 0), i8* @__dso_handle) #3
  ret void
}

; Function Attrs: noinline nounwind uwtable
define linkonce_odr void @_ZNSt3setI5pointSt4lessIS0_ESaIS0_EEC2Ev(%"class.std::set"* %0) unnamed_addr #0 comdat align 2 {
  %2 = getelementptr inbounds %"class.std::set", %"class.std::set"* %0, i32 0, i32 0
  call void @_ZNSt8_Rb_treeI5pointS0_St9_IdentityIS0_ESt4lessIS0_ESaIS0_EEC2Ev(%"class.std::_Rb_tree.3"* %2) #3
  ret void
}

; Function Attrs: noinline nounwind uwtable
define linkonce_odr void @_ZNSt3setI5pointSt4lessIS0_ESaIS0_EED2Ev(%"class.std::set"* %0) unnamed_addr #0 comdat align 2 {
  %2 = getelementptr inbounds %"class.std::set", %"class.std::set"* %0, i32 0, i32 0
  call void @_ZNSt8_Rb_treeI5pointS0_St9_IdentityIS0_ESt4lessIS0_ESaIS0_EED2Ev(%"class.std::_Rb_tree.3"* %2) #3
  ret void
}

; Function Attrs: noinline nounwind uwtable
define zeroext i1 @_ZltRK5pointS1_(%struct.point* dereferenceable(12) %0, %struct.point* dereferenceable(12) %1) #0 {
  %3 = getelementptr inbounds %struct.point, %struct.point* %0, i32 0, i32 0
  %4 = load i32, i32* %3, align 4
  %5 = getelementptr inbounds %struct.point, %struct.point* %1, i32 0, i32 0
  %6 = load i32, i32* %5, align 4
  %7 = icmp slt i32 %4, %6
  br i1 %7, label %40, label %8

8:                                                ; preds = %2
  %9 = getelementptr inbounds %struct.point, %struct.point* %0, i32 0, i32 0
  %10 = load i32, i32* %9, align 4
  %11 = getelementptr inbounds %struct.point, %struct.point* %1, i32 0, i32 0
  %12 = load i32, i32* %11, align 4
  %13 = icmp eq i32 %10, %12
  br i1 %13, label %14, label %20

14:                                               ; preds = %8
  %15 = getelementptr inbounds %struct.point, %struct.point* %0, i32 0, i32 1
  %16 = load i32, i32* %15, align 4
  %17 = getelementptr inbounds %struct.point, %struct.point* %1, i32 0, i32 1
  %18 = load i32, i32* %17, align 4
  %19 = icmp slt i32 %16, %18
  br i1 %19, label %40, label %20

20:                                               ; preds = %14, %8
  %21 = getelementptr inbounds %struct.point, %struct.point* %0, i32 0, i32 0
  %22 = load i32, i32* %21, align 4
  %23 = getelementptr inbounds %struct.point, %struct.point* %1, i32 0, i32 0
  %24 = load i32, i32* %23, align 4
  %25 = icmp eq i32 %22, %24
  br i1 %25, label %26, label %38

26:                                               ; preds = %20
  %27 = getelementptr inbounds %struct.point, %struct.point* %0, i32 0, i32 1
  %28 = load i32, i32* %27, align 4
  %29 = getelementptr inbounds %struct.point, %struct.point* %1, i32 0, i32 1
  %30 = load i32, i32* %29, align 4
  %31 = icmp eq i32 %28, %30
  br i1 %31, label %32, label %38

32:                                               ; preds = %26
  %33 = getelementptr inbounds %struct.point, %struct.point* %0, i32 0, i32 2
  %34 = load i32, i32* %33, align 4
  %35 = getelementptr inbounds %struct.point, %struct.point* %1, i32 0, i32 2
  %36 = load i32, i32* %35, align 4
  %37 = icmp slt i32 %34, %36
  br label %38

38:                                               ; preds = %32, %26, %20
  %39 = phi i1 [ false, %26 ], [ false, %20 ], [ %37, %32 ]
  br label %40

40:                                               ; preds = %38, %14, %2
  %41 = phi i1 [ true, %14 ], [ true, %2 ], [ %39, %38 ]
  ret i1 %41
}

; Function Attrs: noinline nounwind uwtable
define zeroext i1 @_Z5valid5point(i64 %0, i32 %1) #0 {
  %3 = alloca %struct.point, align 4
  %4 = alloca { i64, i32 }, align 4
  %5 = getelementptr inbounds { i64, i32 }, { i64, i32 }* %4, i32 0, i32 0
  store i64 %0, i64* %5, align 4
  %6 = getelementptr inbounds { i64, i32 }, { i64, i32 }* %4, i32 0, i32 1
  store i32 %1, i32* %6, align 4
  %7 = bitcast %struct.point* %3 to i8*
  %8 = bitcast { i64, i32 }* %4 to i8*
  call void @llvm.memcpy.p0i8.p0i8.i64(i8* align 4 %7, i8* align 4 %8, i64 12, i1 false)
  %9 = getelementptr inbounds %struct.point, %struct.point* %3, i32 0, i32 0
  %10 = load i32, i32* %9, align 4
  %11 = icmp sge i32 %10, 0
  br i1 %11, label %12, label %35

12:                                               ; preds = %2
  %13 = getelementptr inbounds %struct.point, %struct.point* %3, i32 0, i32 0
  %14 = load i32, i32* %13, align 4
  %15 = load i32, i32* @a, align 4
  %16 = icmp slt i32 %14, %15
  br i1 %16, label %17, label %35

17:                                               ; preds = %12
  %18 = getelementptr inbounds %struct.point, %struct.point* %3, i32 0, i32 1
  %19 = load i32, i32* %18, align 4
  %20 = icmp sge i32 %19, 0
  br i1 %20, label %21, label %35

21:                                               ; preds = %17
  %22 = getelementptr inbounds %struct.point, %struct.point* %3, i32 0, i32 1
  %23 = load i32, i32* %22, align 4
  %24 = load i32, i32* @b, align 4
  %25 = icmp slt i32 %23, %24
  br i1 %25, label %26, label %35

26:                                               ; preds = %21
  %27 = getelementptr inbounds %struct.point, %struct.point* %3, i32 0, i32 2
  %28 = load i32, i32* %27, align 4
  %29 = icmp sge i32 %28, 0
  br i1 %29, label %30, label %35

30:                                               ; preds = %26
  %31 = getelementptr inbounds %struct.point, %struct.point* %3, i32 0, i32 2
  %32 = load i32, i32* %31, align 4
  %33 = load i32, i32* @c, align 4
  %34 = icmp slt i32 %32, %33
  br label %35

35:                                               ; preds = %30, %26, %21, %17, %12, %2
  %36 = phi i1 [ false, %26 ], [ false, %21 ], [ false, %17 ], [ false, %12 ], [ false, %2 ], [ %34, %30 ]
  ret i1 %36
}

; Function Attrs: noinline uwtable
define void @_Z3dfs5point(i64 %0, i32 %1) #2 {
  %3 = alloca %struct.point, align 4
  %4 = alloca { i64, i32 }, align 4
  %5 = alloca %struct.point, align 4
  %6 = alloca %struct.point, align 4
  %7 = alloca { i64, i32 }, align 4
  %8 = getelementptr inbounds { i64, i32 }, { i64, i32 }* %4, i32 0, i32 0
  store i64 %0, i64* %8, align 4
  %9 = getelementptr inbounds { i64, i32 }, { i64, i32 }* %4, i32 0, i32 1
  store i32 %1, i32* %9, align 4
  %10 = bitcast %struct.point* %3 to i8*
  %11 = bitcast { i64, i32 }* %4 to i8*
  call void @llvm.memcpy.p0i8.p0i8.i64(i8* align 4 %10, i8* align 4 %11, i64 12, i1 false)
  call void @_ZNSt6vectorI5pointSaIS0_EE9push_backERKS0_(%"class.std::vector"* @vs, %struct.point* dereferenceable(12) %3)
  %12 = call dereferenceable(4) i32* @_ZNSt3mapI5pointiSt4lessIS0_ESaISt4pairIKS0_iEEEixERS4_(%"class.std::map"* @pt, %struct.point* dereferenceable(12) %3)
  store i32 1, i32* %12, align 4
  br label %13

13:                                               ; preds = %53, %2
  %.0 = phi i32 [ -1, %2 ], [ %54, %53 ]
  %14 = icmp slt i32 %.0, 2
  br i1 %14, label %15, label %55

15:                                               ; preds = %13
  br label %16

16:                                               ; preds = %50, %15
  %.01 = phi i32 [ -1, %15 ], [ %51, %50 ]
  %17 = icmp slt i32 %.01, 2
  br i1 %17, label %18, label %52

18:                                               ; preds = %16
  br label %19

19:                                               ; preds = %47, %18
  %.02 = phi i32 [ -1, %18 ], [ %48, %47 ]
  %20 = icmp slt i32 %.02, 2
  br i1 %20, label %21, label %49

21:                                               ; preds = %19
  %22 = getelementptr inbounds %struct.point, %struct.point* %3, i32 0, i32 0
  %23 = load i32, i32* %22, align 4
  %24 = add nsw i32 %23, %.0
  %25 = getelementptr inbounds %struct.point, %struct.point* %3, i32 0, i32 1
  %26 = load i32, i32* %25, align 4
  %27 = add nsw i32 %26, %.01
  %28 = getelementptr inbounds %struct.point, %struct.point* %3, i32 0, i32 2
  %29 = load i32, i32* %28, align 4
  %30 = add nsw i32 %29, %.02
  call void @_ZN5pointC2Eiii(%struct.point* %5, i32 %24, i32 %27, i32 %30)
  %31 = call i64 @_ZNKSt3mapI5pointiSt4lessIS0_ESaISt4pairIKS0_iEEE5countERS4_(%"class.std::map"* @pt, %struct.point* dereferenceable(12) %5)
  %32 = icmp ne i64 %31, 0
  br i1 %32, label %33, label %46

33:                                               ; preds = %21
  %34 = call dereferenceable(4) i32* @_ZNSt3mapI5pointiSt4lessIS0_ESaISt4pairIKS0_iEEEixERS4_(%"class.std::map"* @pt, %struct.point* dereferenceable(12) %5)
  %35 = load i32, i32* %34, align 4
  %36 = icmp eq i32 %35, 0
  br i1 %36, label %37, label %46

37:                                               ; preds = %33
  %38 = bitcast %struct.point* %6 to i8*
  %39 = bitcast %struct.point* %5 to i8*
  call void @llvm.memcpy.p0i8.p0i8.i64(i8* align 4 %38, i8* align 4 %39, i64 12, i1 false)
  %40 = bitcast { i64, i32 }* %7 to i8*
  %41 = bitcast %struct.point* %6 to i8*
  call void @llvm.memcpy.p0i8.p0i8.i64(i8* align 4 %40, i8* align 4 %41, i64 12, i1 false)
  %42 = getelementptr inbounds { i64, i32 }, { i64, i32 }* %7, i32 0, i32 0
  %43 = load i64, i64* %42, align 4
  %44 = getelementptr inbounds { i64, i32 }, { i64, i32 }* %7, i32 0, i32 1
  %45 = load i32, i32* %44, align 4
  call void @_Z3dfs5point(i64 %43, i32 %45)
  br label %46

46:                                               ; preds = %37, %33, %21
  br label %47

47:                                               ; preds = %46
  %48 = add nsw i32 %.02, 1
  br label %19

49:                                               ; preds = %19
  br label %50

50:                                               ; preds = %49
  %51 = add nsw i32 %.01, 1
  br label %16

52:                                               ; preds = %16
  br label %53

53:                                               ; preds = %52
  %54 = add nsw i32 %.0, 1
  br label %13

55:                                               ; preds = %13
  ret void
}

; Function Attrs: noinline uwtable
define linkonce_odr void @_ZNSt6vectorI5pointSaIS0_EE9push_backERKS0_(%"class.std::vector"* %0, %struct.point* dereferenceable(12) %1) #2 comdat align 2 {
  %3 = alloca %"class.__gnu_cxx::__normal_iterator", align 8
  %4 = bitcast %"class.std::vector"* %0 to %"struct.std::_Vector_base"*
  %5 = getelementptr inbounds %"struct.std::_Vector_base", %"struct.std::_Vector_base"* %4, i32 0, i32 0
  %6 = getelementptr inbounds %"struct.std::_Vector_base<point, std::allocator<point> >::_Vector_impl", %"struct.std::_Vector_base<point, std::allocator<point> >::_Vector_impl"* %5, i32 0, i32 1
  %7 = load %struct.point*, %struct.point** %6, align 8
  %8 = bitcast %"class.std::vector"* %0 to %"struct.std::_Vector_base"*
  %9 = getelementptr inbounds %"struct.std::_Vector_base", %"struct.std::_Vector_base"* %8, i32 0, i32 0
  %10 = getelementptr inbounds %"struct.std::_Vector_base<point, std::allocator<point> >::_Vector_impl", %"struct.std::_Vector_base<point, std::allocator<point> >::_Vector_impl"* %9, i32 0, i32 2
  %11 = load %struct.point*, %struct.point** %10, align 8
  %12 = icmp ne %struct.point* %7, %11
  br i1 %12, label %13, label %26

13:                                               ; preds = %2
  %14 = bitcast %"class.std::vector"* %0 to %"struct.std::_Vector_base"*
  %15 = getelementptr inbounds %"struct.std::_Vector_base", %"struct.std::_Vector_base"* %14, i32 0, i32 0
  %16 = bitcast %"struct.std::_Vector_base<point, std::allocator<point> >::_Vector_impl"* %15 to %"class.std::allocator"*
  %17 = bitcast %"class.std::vector"* %0 to %"struct.std::_Vector_base"*
  %18 = getelementptr inbounds %"struct.std::_Vector_base", %"struct.std::_Vector_base"* %17, i32 0, i32 0
  %19 = getelementptr inbounds %"struct.std::_Vector_base<point, std::allocator<point> >::_Vector_impl", %"struct.std::_Vector_base<point, std::allocator<point> >::_Vector_impl"* %18, i32 0, i32 1
  %20 = load %struct.point*, %struct.point** %19, align 8
  call void @_ZNSt16allocator_traitsISaI5pointEE9constructIS0_JRKS0_EEEvRS1_PT_DpOT0_(%"class.std::allocator"* dereferenceable(1) %16, %struct.point* %20, %struct.point* dereferenceable(12) %1)
  %21 = bitcast %"class.std::vector"* %0 to %"struct.std::_Vector_base"*
  %22 = getelementptr inbounds %"struct.std::_Vector_base", %"struct.std::_Vector_base"* %21, i32 0, i32 0
  %23 = getelementptr inbounds %"struct.std::_Vector_base<point, std::allocator<point> >::_Vector_impl", %"struct.std::_Vector_base<point, std::allocator<point> >::_Vector_impl"* %22, i32 0, i32 1
  %24 = load %struct.point*, %struct.point** %23, align 8
  %25 = getelementptr inbounds %struct.point, %struct.point* %24, i32 1
  store %struct.point* %25, %struct.point** %23, align 8
  br label %31

26:                                               ; preds = %2
  %27 = call %struct.point* @_ZNSt6vectorI5pointSaIS0_EE3endEv(%"class.std::vector"* %0) #3
  %28 = getelementptr inbounds %"class.__gnu_cxx::__normal_iterator", %"class.__gnu_cxx::__normal_iterator"* %3, i32 0, i32 0
  store %struct.point* %27, %struct.point** %28, align 8
  %29 = getelementptr inbounds %"class.__gnu_cxx::__normal_iterator", %"class.__gnu_cxx::__normal_iterator"* %3, i32 0, i32 0
  %30 = load %struct.point*, %struct.point** %29, align 8
  call void @_ZNSt6vectorI5pointSaIS0_EE17_M_realloc_insertIJRKS0_EEEvN9__gnu_cxx17__normal_iteratorIPS0_S2_EEDpOT_(%"class.std::vector"* %0, %struct.point* %30, %struct.point* dereferenceable(12) %1)
  br label %31

31:                                               ; preds = %26, %13
  ret void
}

; Function Attrs: noinline uwtable
define linkonce_odr dereferenceable(4) i32* @_ZNSt3mapI5pointiSt4lessIS0_ESaISt4pairIKS0_iEEEixERS4_(%"class.std::map"* %0, %struct.point* dereferenceable(12) %1) #2 comdat align 2 {
  %3 = alloca %"struct.std::_Rb_tree_iterator", align 8
  %4 = alloca %"struct.std::_Rb_tree_iterator", align 8
  %5 = alloca %"struct.std::less", align 1
  %6 = alloca %"struct.std::_Rb_tree_iterator", align 8
  %7 = alloca %"struct.std::_Rb_tree_const_iterator.12", align 8
  %8 = alloca %"class.std::tuple", align 8
  %9 = alloca %"class.std::tuple.13", align 1
  %10 = call %"struct.std::_Rb_tree_node_base"* @_ZNSt3mapI5pointiSt4lessIS0_ESaISt4pairIKS0_iEEE11lower_boundERS4_(%"class.std::map"* %0, %struct.point* dereferenceable(12) %1)
  %11 = getelementptr inbounds %"struct.std::_Rb_tree_iterator", %"struct.std::_Rb_tree_iterator"* %3, i32 0, i32 0
  store %"struct.std::_Rb_tree_node_base"* %10, %"struct.std::_Rb_tree_node_base"** %11, align 8
  %12 = call %"struct.std::_Rb_tree_node_base"* @_ZNSt3mapI5pointiSt4lessIS0_ESaISt4pairIKS0_iEEE3endEv(%"class.std::map"* %0) #3
  %13 = getelementptr inbounds %"struct.std::_Rb_tree_iterator", %"struct.std::_Rb_tree_iterator"* %4, i32 0, i32 0
  store %"struct.std::_Rb_tree_node_base"* %12, %"struct.std::_Rb_tree_node_base"** %13, align 8
  %14 = call zeroext i1 @_ZNKSt17_Rb_tree_iteratorISt4pairIK5pointiEEeqERKS4_(%"struct.std::_Rb_tree_iterator"* %3, %"struct.std::_Rb_tree_iterator"* dereferenceable(8) %4) #3
  br i1 %14, label %19, label %15

15:                                               ; preds = %2
  call void @_ZNKSt3mapI5pointiSt4lessIS0_ESaISt4pairIKS0_iEEE8key_compEv(%"class.std::map"* %0)
  %16 = call dereferenceable(16) %"struct.std::pair.7"* @_ZNKSt17_Rb_tree_iteratorISt4pairIK5pointiEEdeEv(%"struct.std::_Rb_tree_iterator"* %3) #3
  %17 = getelementptr inbounds %"struct.std::pair.7", %"struct.std::pair.7"* %16, i32 0, i32 0
  %18 = call zeroext i1 @_ZNKSt4lessI5pointEclERKS0_S3_(%"struct.std::less"* %5, %struct.point* dereferenceable(12) %1, %struct.point* dereferenceable(12) %17)
  br label %19

19:                                               ; preds = %15, %2
  %20 = phi i1 [ true, %2 ], [ %18, %15 ]
  br i1 %20, label %21, label %29

21:                                               ; preds = %19
  %22 = getelementptr inbounds %"class.std::map", %"class.std::map"* %0, i32 0, i32 0
  call void @_ZNSt23_Rb_tree_const_iteratorISt4pairIK5pointiEEC2ERKSt17_Rb_tree_iteratorIS3_E(%"struct.std::_Rb_tree_const_iterator.12"* %7, %"struct.std::_Rb_tree_iterator"* dereferenceable(8) %3) #3
  call void @_ZNSt5tupleIJRK5pointEEC2IvLb1EEES2_(%"class.std::tuple"* %8, %struct.point* dereferenceable(12) %1)
  %23 = getelementptr inbounds %"struct.std::_Rb_tree_const_iterator.12", %"struct.std::_Rb_tree_const_iterator.12"* %7, i32 0, i32 0
  %24 = load %"struct.std::_Rb_tree_node_base"*, %"struct.std::_Rb_tree_node_base"** %23, align 8
  %25 = call %"struct.std::_Rb_tree_node_base"* @_ZNSt8_Rb_treeI5pointSt4pairIKS0_iESt10_Select1stIS3_ESt4lessIS0_ESaIS3_EE22_M_emplace_hint_uniqueIJRKSt21piecewise_construct_tSt5tupleIJRS2_EESE_IJEEEEESt17_Rb_tree_iteratorIS3_ESt23_Rb_tree_const_iteratorIS3_EDpOT_(%"class.std::_Rb_tree"* %22, %"struct.std::_Rb_tree_node_base"* %24, %"struct.std::piecewise_construct_t"* dereferenceable(1) @_ZStL19piecewise_construct, %"class.std::tuple"* dereferenceable(8) %8, %"class.std::tuple.13"* dereferenceable(1) %9)
  %26 = getelementptr inbounds %"struct.std::_Rb_tree_iterator", %"struct.std::_Rb_tree_iterator"* %6, i32 0, i32 0
  store %"struct.std::_Rb_tree_node_base"* %25, %"struct.std::_Rb_tree_node_base"** %26, align 8
  %27 = bitcast %"struct.std::_Rb_tree_iterator"* %3 to i8*
  %28 = bitcast %"struct.std::_Rb_tree_iterator"* %6 to i8*
  call void @llvm.memcpy.p0i8.p0i8.i64(i8* align 8 %27, i8* align 8 %28, i64 8, i1 false)
  br label %29

29:                                               ; preds = %21, %19
  %30 = call dereferenceable(16) %"struct.std::pair.7"* @_ZNKSt17_Rb_tree_iteratorISt4pairIK5pointiEEdeEv(%"struct.std::_Rb_tree_iterator"* %3) #3
  %31 = getelementptr inbounds %"struct.std::pair.7", %"struct.std::pair.7"* %30, i32 0, i32 1
  ret i32* %31
}

; Function Attrs: noinline nounwind uwtable
define linkonce_odr void @_ZN5pointC2Eiii(%struct.point* %0, i32 %1, i32 %2, i32 %3) unnamed_addr #0 comdat align 2 {
  %5 = getelementptr inbounds %struct.point, %struct.point* %0, i32 0, i32 0
  store i32 %1, i32* %5, align 4
  %6 = getelementptr inbounds %struct.point, %struct.point* %0, i32 0, i32 1
  store i32 %2, i32* %6, align 4
  %7 = getelementptr inbounds %struct.point, %struct.point* %0, i32 0, i32 2
  store i32 %3, i32* %7, align 4
  ret void
}

; Function Attrs: noinline uwtable
define linkonce_odr i64 @_ZNKSt3mapI5pointiSt4lessIS0_ESaISt4pairIKS0_iEEE5countERS4_(%"class.std::map"* %0, %struct.point* dereferenceable(12) %1) #2 comdat align 2 {
  %3 = alloca %"struct.std::_Rb_tree_const_iterator.12", align 8
  %4 = alloca %"struct.std::_Rb_tree_const_iterator.12", align 8
  %5 = getelementptr inbounds %"class.std::map", %"class.std::map"* %0, i32 0, i32 0
  %6 = call %"struct.std::_Rb_tree_node_base"* @_ZNKSt8_Rb_treeI5pointSt4pairIKS0_iESt10_Select1stIS3_ESt4lessIS0_ESaIS3_EE4findERS2_(%"class.std::_Rb_tree"* %5, %struct.point* dereferenceable(12) %1)
  %7 = getelementptr inbounds %"struct.std::_Rb_tree_const_iterator.12", %"struct.std::_Rb_tree_const_iterator.12"* %3, i32 0, i32 0
  store %"struct.std::_Rb_tree_node_base"* %6, %"struct.std::_Rb_tree_node_base"** %7, align 8
  %8 = getelementptr inbounds %"class.std::map", %"class.std::map"* %0, i32 0, i32 0
  %9 = call %"struct.std::_Rb_tree_node_base"* @_ZNKSt8_Rb_treeI5pointSt4pairIKS0_iESt10_Select1stIS3_ESt4lessIS0_ESaIS3_EE3endEv(%"class.std::_Rb_tree"* %8) #3
  %10 = getelementptr inbounds %"struct.std::_Rb_tree_const_iterator.12", %"struct.std::_Rb_tree_const_iterator.12"* %4, i32 0, i32 0
  store %"struct.std::_Rb_tree_node_base"* %9, %"struct.std::_Rb_tree_node_base"** %10, align 8
  %11 = call zeroext i1 @_ZNKSt23_Rb_tree_const_iteratorISt4pairIK5pointiEEeqERKS4_(%"struct.std::_Rb_tree_const_iterator.12"* %3, %"struct.std::_Rb_tree_const_iterator.12"* dereferenceable(8) %4) #3
  %12 = zext i1 %11 to i64
  %13 = select i1 %11, i32 0, i32 1
  %14 = sext i32 %13 to i64
  ret i64 %14
}

; Function Attrs: noinline uwtable
define void @_Z4dfs25point(i64 %0, i32 %1) #2 {
  %3 = alloca %struct.point, align 4
  %4 = alloca { i64, i32 }, align 4
  %5 = alloca %struct.point, align 4
  %6 = alloca %struct.point, align 4
  %7 = alloca { i64, i32 }, align 4
  %8 = getelementptr inbounds { i64, i32 }, { i64, i32 }* %4, i32 0, i32 0
  store i64 %0, i64* %8, align 4
  %9 = getelementptr inbounds { i64, i32 }, { i64, i32 }* %4, i32 0, i32 1
  store i32 %1, i32* %9, align 4
  %10 = bitcast %struct.point* %3 to i8*
  %11 = bitcast { i64, i32 }* %4 to i8*
  call void @llvm.memcpy.p0i8.p0i8.i64(i8* align 4 %10, i8* align 4 %11, i64 12, i1 false)
  %12 = call dereferenceable(4) i32* @_ZNSt3mapI5pointiSt4lessIS0_ESaISt4pairIKS0_iEEEixERS4_(%"class.std::map"* @pt, %struct.point* dereferenceable(12) %3)
  store i32 2, i32* %12, align 4
  br label %13

13:                                               ; preds = %61, %2
  %.0 = phi i32 [ -1, %2 ], [ %62, %61 ]
  %14 = icmp slt i32 %.0, 2
  br i1 %14, label %15, label %63

15:                                               ; preds = %13
  br label %16

16:                                               ; preds = %58, %15
  %.01 = phi i32 [ -1, %15 ], [ %59, %58 ]
  %17 = icmp slt i32 %.01, 2
  br i1 %17, label %18, label %60

18:                                               ; preds = %16
  br label %19

19:                                               ; preds = %55, %18
  %.02 = phi i32 [ -1, %18 ], [ %56, %55 ]
  %20 = icmp slt i32 %.02, 2
  br i1 %20, label %21, label %57

21:                                               ; preds = %19
  %22 = call i32 @abs(i32 %.0) #16
  %23 = call i32 @abs(i32 %.01) #16
  %24 = add nsw i32 %22, %23
  %25 = call i32 @abs(i32 %.02) #16
  %26 = add nsw i32 %24, %25
  %27 = icmp eq i32 %26, 1
  br i1 %27, label %28, label %54

28:                                               ; preds = %21
  %29 = getelementptr inbounds %struct.point, %struct.point* %3, i32 0, i32 0
  %30 = load i32, i32* %29, align 4
  %31 = add nsw i32 %30, %.0
  %32 = getelementptr inbounds %struct.point, %struct.point* %3, i32 0, i32 1
  %33 = load i32, i32* %32, align 4
  %34 = add nsw i32 %33, %.01
  %35 = getelementptr inbounds %struct.point, %struct.point* %3, i32 0, i32 2
  %36 = load i32, i32* %35, align 4
  %37 = add nsw i32 %36, %.02
  call void @_ZN5pointC2Eiii(%struct.point* %5, i32 %31, i32 %34, i32 %37)
  %38 = call i64 @_ZNKSt3mapI5pointiSt4lessIS0_ESaISt4pairIKS0_iEEE5countERS4_(%"class.std::map"* @pt, %struct.point* dereferenceable(12) %5)
  %39 = icmp ne i64 %38, 0
  br i1 %39, label %40, label %53

40:                                               ; preds = %28
  %41 = call dereferenceable(4) i32* @_ZNSt3mapI5pointiSt4lessIS0_ESaISt4pairIKS0_iEEEixERS4_(%"class.std::map"* @pt, %struct.point* dereferenceable(12) %5)
  %42 = load i32, i32* %41, align 4
  %43 = icmp eq i32 %42, 1
  br i1 %43, label %44, label %53

44:                                               ; preds = %40
  %45 = bitcast %struct.point* %6 to i8*
  %46 = bitcast %struct.point* %5 to i8*
  call void @llvm.memcpy.p0i8.p0i8.i64(i8* align 4 %45, i8* align 4 %46, i64 12, i1 false)
  %47 = bitcast { i64, i32 }* %7 to i8*
  %48 = bitcast %struct.point* %6 to i8*
  call void @llvm.memcpy.p0i8.p0i8.i64(i8* align 4 %47, i8* align 4 %48, i64 12, i1 false)
  %49 = getelementptr inbounds { i64, i32 }, { i64, i32 }* %7, i32 0, i32 0
  %50 = load i64, i64* %49, align 4
  %51 = getelementptr inbounds { i64, i32 }, { i64, i32 }* %7, i32 0, i32 1
  %52 = load i32, i32* %51, align 4
  call void @_Z4dfs25point(i64 %50, i32 %52)
  br label %53

53:                                               ; preds = %44, %40, %28
  br label %54

54:                                               ; preds = %53, %21
  br label %55

55:                                               ; preds = %54
  %56 = add nsw i32 %.02, 1
  br label %19

57:                                               ; preds = %19
  br label %58

58:                                               ; preds = %57
  %59 = add nsw i32 %.01, 1
  br label %16

60:                                               ; preds = %16
  br label %61

61:                                               ; preds = %60
  %62 = add nsw i32 %.0, 1
  br label %13

63:                                               ; preds = %13
  ret void
}

; Function Attrs: nounwind readnone
declare i32 @abs(i32) #4

; Function Attrs: noinline norecurse uwtable
define i32 @main() #5 personality i8* bitcast (i32 (...)* @__gxx_personality_v0 to i8*) {
  %1 = alloca %struct.point, align 4
  %2 = alloca %"struct.std::pair", align 8
  %3 = alloca %struct.point, align 4
  %4 = alloca %struct.point, align 4
  %5 = alloca { i64, i32 }, align 4
  %6 = alloca %"struct.std::_Rb_tree_const_iterator", align 8
  %7 = alloca %"struct.std::_Rb_tree_const_iterator", align 8
  %8 = alloca %struct.point, align 4
  %9 = alloca %"class.std::vector", align 8
  %10 = alloca %"struct.std::_Rb_tree_iterator", align 8
  %11 = alloca %"struct.std::_Rb_tree_iterator", align 8
  %12 = alloca %"struct.std::pair.7", align 4
  %13 = alloca %"class.__gnu_cxx::__normal_iterator", align 8
  %14 = alloca %"class.__gnu_cxx::__normal_iterator", align 8
  %15 = alloca %struct.point, align 4
  %16 = alloca %struct.point, align 4
  %17 = alloca { i64, i32 }, align 4
  %18 = alloca %"class.__gnu_cxx::__normal_iterator", align 8
  %19 = alloca %"class.__gnu_cxx::__normal_iterator", align 8
  %20 = alloca %struct.point, align 4
  %21 = alloca %struct.point, align 4
  %22 = alloca { i64, i32 }, align 4
  %23 = call i32 (i8*, ...) @scanf(i8* getelementptr inbounds ([9 x i8], [9 x i8]* @.str.4, i32 0, i32 0), i32* @a, i32* @b, i32* @c, i32* @n)
  br label %24

24:                                               ; preds = %74, %0
  %.01 = phi i32 [ 0, %0 ], [ %75, %74 ]
  %25 = load i32, i32* @n, align 4
  %26 = icmp slt i32 %.01, %25
  br i1 %26, label %27, label %76

27:                                               ; preds = %24
  %28 = call i32 (i8*, ...) @scanf(i8* getelementptr inbounds ([7 x i8], [7 x i8]* @.str.5, i32 0, i32 0), i32* @x, i32* @y, i32* @z)
  %29 = load i32, i32* @x, align 4
  %30 = load i32, i32* @y, align 4
  %31 = load i32, i32* @z, align 4
  call void @_ZN5pointC2Eiii(%struct.point* %1, i32 %29, i32 %30, i32 %31)
  %32 = call { %"struct.std::_Rb_tree_node_base"*, i8 } @_ZNSt3setI5pointSt4lessIS0_ESaIS0_EE6insertEOS0_(%"class.std::set"* @del, %struct.point* dereferenceable(12) %1)
  %33 = bitcast %"struct.std::pair"* %2 to { %"struct.std::_Rb_tree_node_base"*, i8 }*
  %34 = getelementptr inbounds { %"struct.std::_Rb_tree_node_base"*, i8 }, { %"struct.std::_Rb_tree_node_base"*, i8 }* %33, i32 0, i32 0
  %35 = extractvalue { %"struct.std::_Rb_tree_node_base"*, i8 } %32, 0
  store %"struct.std::_Rb_tree_node_base"* %35, %"struct.std::_Rb_tree_node_base"** %34, align 8
  %36 = getelementptr inbounds { %"struct.std::_Rb_tree_node_base"*, i8 }, { %"struct.std::_Rb_tree_node_base"*, i8 }* %33, i32 0, i32 1
  %37 = extractvalue { %"struct.std::_Rb_tree_node_base"*, i8 } %32, 1
  store i8 %37, i8* %36, align 8
  br label %38

38:                                               ; preds = %71, %27
  %.02 = phi i32 [ -1, %27 ], [ %72, %71 ]
  %39 = icmp slt i32 %.02, 2
  br i1 %39, label %40, label %73

40:                                               ; preds = %38
  br label %41

41:                                               ; preds = %68, %40
  %.03 = phi i32 [ -1, %40 ], [ %69, %68 ]
  %42 = icmp slt i32 %.03, 2
  br i1 %42, label %43, label %70

43:                                               ; preds = %41
  br label %44

44:                                               ; preds = %65, %43
  %.04 = phi i32 [ -1, %43 ], [ %66, %65 ]
  %45 = icmp slt i32 %.04, 2
  br i1 %45, label %46, label %67

46:                                               ; preds = %44
  %47 = load i32, i32* @x, align 4
  %48 = add nsw i32 %47, %.02
  %49 = load i32, i32* @y, align 4
  %50 = add nsw i32 %49, %.03
  %51 = load i32, i32* @z, align 4
  %52 = add nsw i32 %51, %.04
  call void @_ZN5pointC2Eiii(%struct.point* %3, i32 %48, i32 %50, i32 %52)
  %53 = bitcast %struct.point* %4 to i8*
  %54 = bitcast %struct.point* %3 to i8*
  call void @llvm.memcpy.p0i8.p0i8.i64(i8* align 4 %53, i8* align 4 %54, i64 12, i1 false)
  %55 = bitcast { i64, i32 }* %5 to i8*
  %56 = bitcast %struct.point* %4 to i8*
  call void @llvm.memcpy.p0i8.p0i8.i64(i8* align 4 %55, i8* align 4 %56, i64 12, i1 false)
  %57 = getelementptr inbounds { i64, i32 }, { i64, i32 }* %5, i32 0, i32 0
  %58 = load i64, i64* %57, align 4
  %59 = getelementptr inbounds { i64, i32 }, { i64, i32 }* %5, i32 0, i32 1
  %60 = load i32, i32* %59, align 4
  %61 = call zeroext i1 @_Z5valid5point(i64 %58, i32 %60)
  br i1 %61, label %62, label %64

62:                                               ; preds = %46
  %63 = call dereferenceable(4) i32* @_ZNSt3mapI5pointiSt4lessIS0_ESaISt4pairIKS0_iEEEixERS4_(%"class.std::map"* @pt, %struct.point* dereferenceable(12) %3)
  store i32 0, i32* %63, align 4
  br label %64

64:                                               ; preds = %62, %46
  br label %65

65:                                               ; preds = %64
  %66 = add nsw i32 %.04, 1
  br label %44

67:                                               ; preds = %44
  br label %68

68:                                               ; preds = %67
  %69 = add nsw i32 %.03, 1
  br label %41

70:                                               ; preds = %41
  br label %71

71:                                               ; preds = %70
  %72 = add nsw i32 %.02, 1
  br label %38

73:                                               ; preds = %38
  br label %74

74:                                               ; preds = %73
  %75 = add nsw i32 %.01, 1
  br label %24

76:                                               ; preds = %24
  %77 = call %"struct.std::_Rb_tree_node_base"* @_ZNKSt3setI5pointSt4lessIS0_ESaIS0_EE5beginEv(%"class.std::set"* @del) #3
  %78 = getelementptr inbounds %"struct.std::_Rb_tree_const_iterator", %"struct.std::_Rb_tree_const_iterator"* %6, i32 0, i32 0
  store %"struct.std::_Rb_tree_node_base"* %77, %"struct.std::_Rb_tree_node_base"** %78, align 8
  %79 = call %"struct.std::_Rb_tree_node_base"* @_ZNKSt3setI5pointSt4lessIS0_ESaIS0_EE3endEv(%"class.std::set"* @del) #3
  %80 = getelementptr inbounds %"struct.std::_Rb_tree_const_iterator", %"struct.std::_Rb_tree_const_iterator"* %7, i32 0, i32 0
  store %"struct.std::_Rb_tree_node_base"* %79, %"struct.std::_Rb_tree_node_base"** %80, align 8
  br label %81

81:                                               ; preds = %88, %76
  %82 = call zeroext i1 @_ZNKSt23_Rb_tree_const_iteratorI5pointEneERKS1_(%"struct.std::_Rb_tree_const_iterator"* %6, %"struct.std::_Rb_tree_const_iterator"* dereferenceable(8) %7) #3
  br i1 %82, label %83, label %90

83:                                               ; preds = %81
  %84 = call dereferenceable(12) %struct.point* @_ZNKSt23_Rb_tree_const_iteratorI5pointEdeEv(%"struct.std::_Rb_tree_const_iterator"* %6) #3
  %85 = bitcast %struct.point* %8 to i8*
  %86 = bitcast %struct.point* %84 to i8*
  call void @llvm.memcpy.p0i8.p0i8.i64(i8* align 4 %85, i8* align 4 %86, i64 12, i1 false)
  %87 = call i64 @_ZNSt3mapI5pointiSt4lessIS0_ESaISt4pairIKS0_iEEE5eraseERS4_(%"class.std::map"* @pt, %struct.point* dereferenceable(12) %8)
  br label %88

88:                                               ; preds = %83
  %89 = call dereferenceable(8) %"struct.std::_Rb_tree_const_iterator"* @_ZNSt23_Rb_tree_const_iteratorI5pointEppEv(%"struct.std::_Rb_tree_const_iterator"* %6) #3
  br label %81

90:                                               ; preds = %81
  call void @_ZNSt6vectorI5pointSaIS0_EEC2Ev(%"class.std::vector"* %9) #3
  %91 = call %"struct.std::_Rb_tree_node_base"* @_ZNSt3mapI5pointiSt4lessIS0_ESaISt4pairIKS0_iEEE5beginEv(%"class.std::map"* @pt) #3
  %92 = getelementptr inbounds %"struct.std::_Rb_tree_iterator", %"struct.std::_Rb_tree_iterator"* %10, i32 0, i32 0
  store %"struct.std::_Rb_tree_node_base"* %91, %"struct.std::_Rb_tree_node_base"** %92, align 8
  %93 = call %"struct.std::_Rb_tree_node_base"* @_ZNSt3mapI5pointiSt4lessIS0_ESaISt4pairIKS0_iEEE3endEv(%"class.std::map"* @pt) #3
  %94 = getelementptr inbounds %"struct.std::_Rb_tree_iterator", %"struct.std::_Rb_tree_iterator"* %11, i32 0, i32 0
  store %"struct.std::_Rb_tree_node_base"* %93, %"struct.std::_Rb_tree_node_base"** %94, align 8
  br label %95

95:                                               ; preds = %103, %90
  %96 = call zeroext i1 @_ZNKSt17_Rb_tree_iteratorISt4pairIK5pointiEEneERKS4_(%"struct.std::_Rb_tree_iterator"* %10, %"struct.std::_Rb_tree_iterator"* dereferenceable(8) %11) #3
  br i1 %96, label %97, label %109

97:                                               ; preds = %95
  %98 = call dereferenceable(16) %"struct.std::pair.7"* @_ZNKSt17_Rb_tree_iteratorISt4pairIK5pointiEEdeEv(%"struct.std::_Rb_tree_iterator"* %10) #3
  %99 = bitcast %"struct.std::pair.7"* %12 to i8*
  %100 = bitcast %"struct.std::pair.7"* %98 to i8*
  call void @llvm.memcpy.p0i8.p0i8.i64(i8* align 4 %99, i8* align 4 %100, i64 16, i1 false)
  %101 = getelementptr inbounds %"struct.std::pair.7", %"struct.std::pair.7"* %12, i32 0, i32 0
  invoke void @_ZNSt6vectorI5pointSaIS0_EE9push_backERKS0_(%"class.std::vector"* %9, %struct.point* dereferenceable(12) %101)
          to label %102 unwind label %105

102:                                              ; preds = %97
  br label %103

103:                                              ; preds = %102
  %104 = call dereferenceable(8) %"struct.std::_Rb_tree_iterator"* @_ZNSt17_Rb_tree_iteratorISt4pairIK5pointiEEppEv(%"struct.std::_Rb_tree_iterator"* %10) #3
  br label %95

105:                                              ; preds = %167, %149, %141, %124, %116, %97
  %106 = landingpad { i8*, i32 }
          cleanup
  %107 = extractvalue { i8*, i32 } %106, 0
  %108 = extractvalue { i8*, i32 } %106, 1
  call void @_ZNSt6vectorI5pointSaIS0_EED2Ev(%"class.std::vector"* %9) #3
  br label %170

109:                                              ; preds = %95
  %110 = call %struct.point* @_ZNSt6vectorI5pointSaIS0_EE5beginEv(%"class.std::vector"* %9) #3
  %111 = getelementptr inbounds %"class.__gnu_cxx::__normal_iterator", %"class.__gnu_cxx::__normal_iterator"* %13, i32 0, i32 0
  store %struct.point* %110, %struct.point** %111, align 8
  %112 = call %struct.point* @_ZNSt6vectorI5pointSaIS0_EE3endEv(%"class.std::vector"* %9) #3
  %113 = getelementptr inbounds %"class.__gnu_cxx::__normal_iterator", %"class.__gnu_cxx::__normal_iterator"* %14, i32 0, i32 0
  store %struct.point* %112, %struct.point** %113, align 8
  br label %114

114:                                              ; preds = %165, %109
  %.0 = phi i32 [ 1, %109 ], [ %.3, %165 ]
  %115 = call zeroext i1 @_ZN9__gnu_cxxneIP5pointSt6vectorIS1_SaIS1_EEEEbRKNS_17__normal_iteratorIT_T0_EESB_(%"class.__gnu_cxx::__normal_iterator"* dereferenceable(8) %13, %"class.__gnu_cxx::__normal_iterator"* dereferenceable(8) %14) #3
  br i1 %115, label %116, label %167

116:                                              ; preds = %114
  %117 = call dereferenceable(12) %struct.point* @_ZNK9__gnu_cxx17__normal_iteratorIP5pointSt6vectorIS1_SaIS1_EEEdeEv(%"class.__gnu_cxx::__normal_iterator"* %13) #3
  %118 = bitcast %struct.point* %15 to i8*
  %119 = bitcast %struct.point* %117 to i8*
  call void @llvm.memcpy.p0i8.p0i8.i64(i8* align 4 %118, i8* align 4 %119, i64 12, i1 false)
  %120 = invoke dereferenceable(4) i32* @_ZNSt3mapI5pointiSt4lessIS0_ESaISt4pairIKS0_iEEEixERS4_(%"class.std::map"* @pt, %struct.point* dereferenceable(12) %15)
          to label %121 unwind label %105

121:                                              ; preds = %116
  %122 = load i32, i32* %120, align 4
  %123 = icmp eq i32 %122, 0
  br i1 %123, label %124, label %164

124:                                              ; preds = %121
  call void @_ZNSt6vectorI5pointSaIS0_EE5clearEv(%"class.std::vector"* @vs) #3
  %125 = bitcast %struct.point* %16 to i8*
  %126 = bitcast %struct.point* %15 to i8*
  call void @llvm.memcpy.p0i8.p0i8.i64(i8* align 4 %125, i8* align 4 %126, i64 12, i1 false)
  %127 = bitcast { i64, i32 }* %17 to i8*
  %128 = bitcast %struct.point* %16 to i8*
  call void @llvm.memcpy.p0i8.p0i8.i64(i8* align 4 %127, i8* align 4 %128, i64 12, i1 false)
  %129 = getelementptr inbounds { i64, i32 }, { i64, i32 }* %17, i32 0, i32 0
  %130 = load i64, i64* %129, align 4
  %131 = getelementptr inbounds { i64, i32 }, { i64, i32 }* %17, i32 0, i32 1
  %132 = load i32, i32* %131, align 4
  invoke void @_Z3dfs5point(i64 %130, i32 %132)
          to label %133 unwind label %105

133:                                              ; preds = %124
  %134 = add nsw i32 %.0, -1
  %135 = call %struct.point* @_ZNSt6vectorI5pointSaIS0_EE5beginEv(%"class.std::vector"* @vs) #3
  %136 = getelementptr inbounds %"class.__gnu_cxx::__normal_iterator", %"class.__gnu_cxx::__normal_iterator"* %18, i32 0, i32 0
  store %struct.point* %135, %struct.point** %136, align 8
  %137 = call %struct.point* @_ZNSt6vectorI5pointSaIS0_EE3endEv(%"class.std::vector"* @vs) #3
  %138 = getelementptr inbounds %"class.__gnu_cxx::__normal_iterator", %"class.__gnu_cxx::__normal_iterator"* %19, i32 0, i32 0
  store %struct.point* %137, %struct.point** %138, align 8
  br label %139

139:                                              ; preds = %161, %133
  %.1 = phi i32 [ %134, %133 ], [ %.2, %161 ]
  %140 = call zeroext i1 @_ZN9__gnu_cxxneIP5pointSt6vectorIS1_SaIS1_EEEEbRKNS_17__normal_iteratorIT_T0_EESB_(%"class.__gnu_cxx::__normal_iterator"* dereferenceable(8) %18, %"class.__gnu_cxx::__normal_iterator"* dereferenceable(8) %19) #3
  br i1 %140, label %141, label %163

141:                                              ; preds = %139
  %142 = call dereferenceable(12) %struct.point* @_ZNK9__gnu_cxx17__normal_iteratorIP5pointSt6vectorIS1_SaIS1_EEEdeEv(%"class.__gnu_cxx::__normal_iterator"* %18) #3
  %143 = bitcast %struct.point* %20 to i8*
  %144 = bitcast %struct.point* %142 to i8*
  call void @llvm.memcpy.p0i8.p0i8.i64(i8* align 4 %143, i8* align 4 %144, i64 12, i1 false)
  %145 = invoke dereferenceable(4) i32* @_ZNSt3mapI5pointiSt4lessIS0_ESaISt4pairIKS0_iEEEixERS4_(%"class.std::map"* @pt, %struct.point* dereferenceable(12) %20)
          to label %146 unwind label %105

146:                                              ; preds = %141
  %147 = load i32, i32* %145, align 4
  %148 = icmp eq i32 %147, 1
  br i1 %148, label %149, label %160

149:                                              ; preds = %146
  %150 = bitcast %struct.point* %21 to i8*
  %151 = bitcast %struct.point* %15 to i8*
  call void @llvm.memcpy.p0i8.p0i8.i64(i8* align 4 %150, i8* align 4 %151, i64 12, i1 false)
  %152 = bitcast { i64, i32 }* %22 to i8*
  %153 = bitcast %struct.point* %21 to i8*
  call void @llvm.memcpy.p0i8.p0i8.i64(i8* align 4 %152, i8* align 4 %153, i64 12, i1 false)
  %154 = getelementptr inbounds { i64, i32 }, { i64, i32 }* %22, i32 0, i32 0
  %155 = load i64, i64* %154, align 4
  %156 = getelementptr inbounds { i64, i32 }, { i64, i32 }* %22, i32 0, i32 1
  %157 = load i32, i32* %156, align 4
  invoke void @_Z4dfs25point(i64 %155, i32 %157)
          to label %158 unwind label %105

158:                                              ; preds = %149
  %159 = add nsw i32 %.1, 1
  br label %160

160:                                              ; preds = %158, %146
  %.2 = phi i32 [ %159, %158 ], [ %.1, %146 ]
  br label %161

161:                                              ; preds = %160
  %162 = call dereferenceable(8) %"class.__gnu_cxx::__normal_iterator"* @_ZN9__gnu_cxx17__normal_iteratorIP5pointSt6vectorIS1_SaIS1_EEEppEv(%"class.__gnu_cxx::__normal_iterator"* %18) #3
  br label %139

163:                                              ; preds = %139
  br label %164

164:                                              ; preds = %163, %121
  %.3 = phi i32 [ %.1, %163 ], [ %.0, %121 ]
  br label %165

165:                                              ; preds = %164
  %166 = call dereferenceable(8) %"class.__gnu_cxx::__normal_iterator"* @_ZN9__gnu_cxx17__normal_iteratorIP5pointSt6vectorIS1_SaIS1_EEEppEv(%"class.__gnu_cxx::__normal_iterator"* %13) #3
  br label %114

167:                                              ; preds = %114
  %168 = invoke i32 (i8*, ...) @printf(i8* getelementptr inbounds ([4 x i8], [4 x i8]* @.str.6, i32 0, i32 0), i32 %.0)
          to label %169 unwind label %105

169:                                              ; preds = %167
  call void @_ZNSt6vectorI5pointSaIS0_EED2Ev(%"class.std::vector"* %9) #3
  ret i32 0

170:                                              ; preds = %105
  %171 = insertvalue { i8*, i32 } undef, i8* %107, 0
  %172 = insertvalue { i8*, i32 } %171, i32 %108, 1
  resume { i8*, i32 } %172
}

declare i32 @scanf(i8*, ...) #6

; Function Attrs: noinline uwtable
define linkonce_odr { %"struct.std::_Rb_tree_node_base"*, i8 } @_ZNSt3setI5pointSt4lessIS0_ESaIS0_EE6insertEOS0_(%"class.std::set"* %0, %struct.point* dereferenceable(12) %1) #2 comdat align 2 {
  %3 = alloca %"struct.std::pair", align 8
  %4 = alloca %"struct.std::pair.18", align 8
  %5 = getelementptr inbounds %"class.std::set", %"class.std::set"* %0, i32 0, i32 0
  %6 = call dereferenceable(12) %struct.point* @_ZSt4moveIR5pointEONSt16remove_referenceIT_E4typeEOS3_(%struct.point* dereferenceable(12) %1) #3
  %7 = call { %"struct.std::_Rb_tree_node_base"*, i8 } @_ZNSt8_Rb_treeI5pointS0_St9_IdentityIS0_ESt4lessIS0_ESaIS0_EE16_M_insert_uniqueIS0_EESt4pairISt17_Rb_tree_iteratorIS0_EbEOT_(%"class.std::_Rb_tree.3"* %5, %struct.point* dereferenceable(12) %6)
  %8 = bitcast %"struct.std::pair.18"* %4 to { %"struct.std::_Rb_tree_node_base"*, i8 }*
  %9 = getelementptr inbounds { %"struct.std::_Rb_tree_node_base"*, i8 }, { %"struct.std::_Rb_tree_node_base"*, i8 }* %8, i32 0, i32 0
  %10 = extractvalue { %"struct.std::_Rb_tree_node_base"*, i8 } %7, 0
  store %"struct.std::_Rb_tree_node_base"* %10, %"struct.std::_Rb_tree_node_base"** %9, align 8
  %11 = getelementptr inbounds { %"struct.std::_Rb_tree_node_base"*, i8 }, { %"struct.std::_Rb_tree_node_base"*, i8 }* %8, i32 0, i32 1
  %12 = extractvalue { %"struct.std::_Rb_tree_node_base"*, i8 } %7, 1
  store i8 %12, i8* %11, align 8
  %13 = getelementptr inbounds %"struct.std::pair.18", %"struct.std::pair.18"* %4, i32 0, i32 0
  %14 = getelementptr inbounds %"struct.std::pair.18", %"struct.std::pair.18"* %4, i32 0, i32 1
  call void @_ZNSt4pairISt23_Rb_tree_const_iteratorI5pointEbEC2IRSt17_Rb_tree_iteratorIS1_ERbLb1EEEOT_OT0_(%"struct.std::pair"* %3, %"struct.std::_Rb_tree_iterator.21"* dereferenceable(8) %13, i8* dereferenceable(1) %14)
  %15 = bitcast %"struct.std::pair"* %3 to { %"struct.std::_Rb_tree_node_base"*, i8 }*
  %16 = load { %"struct.std::_Rb_tree_node_base"*, i8 }, { %"struct.std::_Rb_tree_node_base"*, i8 }* %15, align 8
  ret { %"struct.std::_Rb_tree_node_base"*, i8 } %16
}

; Function Attrs: noinline nounwind uwtable
define linkonce_odr %"struct.std::_Rb_tree_node_base"* @_ZNKSt3setI5pointSt4lessIS0_ESaIS0_EE5beginEv(%"class.std::set"* %0) #0 comdat align 2 {
  %2 = alloca %"struct.std::_Rb_tree_const_iterator", align 8
  %3 = getelementptr inbounds %"class.std::set", %"class.std::set"* %0, i32 0, i32 0
  %4 = call %"struct.std::_Rb_tree_node_base"* @_ZNKSt8_Rb_treeI5pointS0_St9_IdentityIS0_ESt4lessIS0_ESaIS0_EE5beginEv(%"class.std::_Rb_tree.3"* %3) #3
  %5 = getelementptr inbounds %"struct.std::_Rb_tree_const_iterator", %"struct.std::_Rb_tree_const_iterator"* %2, i32 0, i32 0
  store %"struct.std::_Rb_tree_node_base"* %4, %"struct.std::_Rb_tree_node_base"** %5, align 8
  %6 = getelementptr inbounds %"struct.std::_Rb_tree_const_iterator", %"struct.std::_Rb_tree_const_iterator"* %2, i32 0, i32 0
  %7 = load %"struct.std::_Rb_tree_node_base"*, %"struct.std::_Rb_tree_node_base"** %6, align 8
  ret %"struct.std::_Rb_tree_node_base"* %7
}

; Function Attrs: noinline nounwind uwtable
define linkonce_odr %"struct.std::_Rb_tree_node_base"* @_ZNKSt3setI5pointSt4lessIS0_ESaIS0_EE3endEv(%"class.std::set"* %0) #0 comdat align 2 {
  %2 = alloca %"struct.std::_Rb_tree_const_iterator", align 8
  %3 = getelementptr inbounds %"class.std::set", %"class.std::set"* %0, i32 0, i32 0
  %4 = call %"struct.std::_Rb_tree_node_base"* @_ZNKSt8_Rb_treeI5pointS0_St9_IdentityIS0_ESt4lessIS0_ESaIS0_EE3endEv(%"class.std::_Rb_tree.3"* %3) #3
  %5 = getelementptr inbounds %"struct.std::_Rb_tree_const_iterator", %"struct.std::_Rb_tree_const_iterator"* %2, i32 0, i32 0
  store %"struct.std::_Rb_tree_node_base"* %4, %"struct.std::_Rb_tree_node_base"** %5, align 8
  %6 = getelementptr inbounds %"struct.std::_Rb_tree_const_iterator", %"struct.std::_Rb_tree_const_iterator"* %2, i32 0, i32 0
  %7 = load %"struct.std::_Rb_tree_node_base"*, %"struct.std::_Rb_tree_node_base"** %6, align 8
  ret %"struct.std::_Rb_tree_node_base"* %7
}

; Function Attrs: noinline nounwind uwtable
define linkonce_odr zeroext i1 @_ZNKSt23_Rb_tree_const_iteratorI5pointEneERKS1_(%"struct.std::_Rb_tree_const_iterator"* %0, %"struct.std::_Rb_tree_const_iterator"* dereferenceable(8) %1) #0 comdat align 2 {
  %3 = getelementptr inbounds %"struct.std::_Rb_tree_const_iterator", %"struct.std::_Rb_tree_const_iterator"* %0, i32 0, i32 0
  %4 = load %"struct.std::_Rb_tree_node_base"*, %"struct.std::_Rb_tree_node_base"** %3, align 8
  %5 = getelementptr inbounds %"struct.std::_Rb_tree_const_iterator", %"struct.std::_Rb_tree_const_iterator"* %1, i32 0, i32 0
  %6 = load %"struct.std::_Rb_tree_node_base"*, %"struct.std::_Rb_tree_node_base"** %5, align 8
  %7 = icmp ne %"struct.std::_Rb_tree_node_base"* %4, %6
  ret i1 %7
}

; Function Attrs: noinline nounwind uwtable
define linkonce_odr dereferenceable(12) %struct.point* @_ZNKSt23_Rb_tree_const_iteratorI5pointEdeEv(%"struct.std::_Rb_tree_const_iterator"* %0) #0 comdat align 2 personality i8* bitcast (i32 (...)* @__gxx_personality_v0 to i8*) {
  %2 = getelementptr inbounds %"struct.std::_Rb_tree_const_iterator", %"struct.std::_Rb_tree_const_iterator"* %0, i32 0, i32 0
  %3 = load %"struct.std::_Rb_tree_node_base"*, %"struct.std::_Rb_tree_node_base"** %2, align 8
  %4 = bitcast %"struct.std::_Rb_tree_node_base"* %3 to %"struct.std::_Rb_tree_node.10"*
  %5 = invoke %struct.point* @_ZNKSt13_Rb_tree_nodeI5pointE9_M_valptrEv(%"struct.std::_Rb_tree_node.10"* %4)
          to label %6 unwind label %7

6:                                                ; preds = %1
  ret %struct.point* %5

7:                                                ; preds = %1
  %8 = landingpad { i8*, i32 }
          catch i8* null
  %9 = extractvalue { i8*, i32 } %8, 0
  call void @__clang_call_terminate(i8* %9) #15
  unreachable
}

; Function Attrs: noinline uwtable
define linkonce_odr i64 @_ZNSt3mapI5pointiSt4lessIS0_ESaISt4pairIKS0_iEEE5eraseERS4_(%"class.std::map"* %0, %struct.point* dereferenceable(12) %1) #2 comdat align 2 {
  %3 = getelementptr inbounds %"class.std::map", %"class.std::map"* %0, i32 0, i32 0
  %4 = call i64 @_ZNSt8_Rb_treeI5pointSt4pairIKS0_iESt10_Select1stIS3_ESt4lessIS0_ESaIS3_EE5eraseERS2_(%"class.std::_Rb_tree"* %3, %struct.point* dereferenceable(12) %1)
  ret i64 %4
}

; Function Attrs: noinline nounwind uwtable
define linkonce_odr dereferenceable(8) %"struct.std::_Rb_tree_const_iterator"* @_ZNSt23_Rb_tree_const_iteratorI5pointEppEv(%"struct.std::_Rb_tree_const_iterator"* %0) #0 comdat align 2 {
  %2 = getelementptr inbounds %"struct.std::_Rb_tree_const_iterator", %"struct.std::_Rb_tree_const_iterator"* %0, i32 0, i32 0
  %3 = load %"struct.std::_Rb_tree_node_base"*, %"struct.std::_Rb_tree_node_base"** %2, align 8
  %4 = call %"struct.std::_Rb_tree_node_base"* @_ZSt18_Rb_tree_incrementPKSt18_Rb_tree_node_base(%"struct.std::_Rb_tree_node_base"* %3) #17
  %5 = getelementptr inbounds %"struct.std::_Rb_tree_const_iterator", %"struct.std::_Rb_tree_const_iterator"* %0, i32 0, i32 0
  store %"struct.std::_Rb_tree_node_base"* %4, %"struct.std::_Rb_tree_node_base"** %5, align 8
  ret %"struct.std::_Rb_tree_const_iterator"* %0
}

; Function Attrs: noinline nounwind uwtable
define linkonce_odr %"struct.std::_Rb_tree_node_base"* @_ZNSt3mapI5pointiSt4lessIS0_ESaISt4pairIKS0_iEEE5beginEv(%"class.std::map"* %0) #0 comdat align 2 {
  %2 = alloca %"struct.std::_Rb_tree_iterator", align 8
  %3 = getelementptr inbounds %"class.std::map", %"class.std::map"* %0, i32 0, i32 0
  %4 = call %"struct.std::_Rb_tree_node_base"* @_ZNSt8_Rb_treeI5pointSt4pairIKS0_iESt10_Select1stIS3_ESt4lessIS0_ESaIS3_EE5beginEv(%"class.std::_Rb_tree"* %3) #3
  %5 = getelementptr inbounds %"struct.std::_Rb_tree_iterator", %"struct.std::_Rb_tree_iterator"* %2, i32 0, i32 0
  store %"struct.std::_Rb_tree_node_base"* %4, %"struct.std::_Rb_tree_node_base"** %5, align 8
  %6 = getelementptr inbounds %"struct.std::_Rb_tree_iterator", %"struct.std::_Rb_tree_iterator"* %2, i32 0, i32 0
  %7 = load %"struct.std::_Rb_tree_node_base"*, %"struct.std::_Rb_tree_node_base"** %6, align 8
  ret %"struct.std::_Rb_tree_node_base"* %7
}

; Function Attrs: noinline nounwind uwtable
define linkonce_odr %"struct.std::_Rb_tree_node_base"* @_ZNSt3mapI5pointiSt4lessIS0_ESaISt4pairIKS0_iEEE3endEv(%"class.std::map"* %0) #0 comdat align 2 {
  %2 = alloca %"struct.std::_Rb_tree_iterator", align 8
  %3 = getelementptr inbounds %"class.std::map", %"class.std::map"* %0, i32 0, i32 0
  %4 = call %"struct.std::_Rb_tree_node_base"* @_ZNSt8_Rb_treeI5pointSt4pairIKS0_iESt10_Select1stIS3_ESt4lessIS0_ESaIS3_EE3endEv(%"class.std::_Rb_tree"* %3) #3
  %5 = getelementptr inbounds %"struct.std::_Rb_tree_iterator", %"struct.std::_Rb_tree_iterator"* %2, i32 0, i32 0
  store %"struct.std::_Rb_tree_node_base"* %4, %"struct.std::_Rb_tree_node_base"** %5, align 8
  %6 = getelementptr inbounds %"struct.std::_Rb_tree_iterator", %"struct.std::_Rb_tree_iterator"* %2, i32 0, i32 0
  %7 = load %"struct.std::_Rb_tree_node_base"*, %"struct.std::_Rb_tree_node_base"** %6, align 8
  ret %"struct.std::_Rb_tree_node_base"* %7
}

; Function Attrs: noinline nounwind uwtable
define linkonce_odr zeroext i1 @_ZNKSt17_Rb_tree_iteratorISt4pairIK5pointiEEneERKS4_(%"struct.std::_Rb_tree_iterator"* %0, %"struct.std::_Rb_tree_iterator"* dereferenceable(8) %1) #0 comdat align 2 {
  %3 = getelementptr inbounds %"struct.std::_Rb_tree_iterator", %"struct.std::_Rb_tree_iterator"* %0, i32 0, i32 0
  %4 = load %"struct.std::_Rb_tree_node_base"*, %"struct.std::_Rb_tree_node_base"** %3, align 8
  %5 = getelementptr inbounds %"struct.std::_Rb_tree_iterator", %"struct.std::_Rb_tree_iterator"* %1, i32 0, i32 0
  %6 = load %"struct.std::_Rb_tree_node_base"*, %"struct.std::_Rb_tree_node_base"** %5, align 8
  %7 = icmp ne %"struct.std::_Rb_tree_node_base"* %4, %6
  ret i1 %7
}

; Function Attrs: noinline nounwind uwtable
define linkonce_odr dereferenceable(16) %"struct.std::pair.7"* @_ZNKSt17_Rb_tree_iteratorISt4pairIK5pointiEEdeEv(%"struct.std::_Rb_tree_iterator"* %0) #0 comdat align 2 personality i8* bitcast (i32 (...)* @__gxx_personality_v0 to i8*) {
  %2 = getelementptr inbounds %"struct.std::_Rb_tree_iterator", %"struct.std::_Rb_tree_iterator"* %0, i32 0, i32 0
  %3 = load %"struct.std::_Rb_tree_node_base"*, %"struct.std::_Rb_tree_node_base"** %2, align 8
  %4 = bitcast %"struct.std::_Rb_tree_node_base"* %3 to %"struct.std::_Rb_tree_node"*
  %5 = invoke %"struct.std::pair.7"* @_ZNSt13_Rb_tree_nodeISt4pairIK5pointiEE9_M_valptrEv(%"struct.std::_Rb_tree_node"* %4)
          to label %6 unwind label %7

6:                                                ; preds = %1
  ret %"struct.std::pair.7"* %5

7:                                                ; preds = %1
  %8 = landingpad { i8*, i32 }
          catch i8* null
  %9 = extractvalue { i8*, i32 } %8, 0
  call void @__clang_call_terminate(i8* %9) #15
  unreachable
}

declare i32 @__gxx_personality_v0(...)

; Function Attrs: noinline nounwind uwtable
define linkonce_odr dereferenceable(8) %"struct.std::_Rb_tree_iterator"* @_ZNSt17_Rb_tree_iteratorISt4pairIK5pointiEEppEv(%"struct.std::_Rb_tree_iterator"* %0) #0 comdat align 2 {
  %2 = getelementptr inbounds %"struct.std::_Rb_tree_iterator", %"struct.std::_Rb_tree_iterator"* %0, i32 0, i32 0
  %3 = load %"struct.std::_Rb_tree_node_base"*, %"struct.std::_Rb_tree_node_base"** %2, align 8
  %4 = call %"struct.std::_Rb_tree_node_base"* @_ZSt18_Rb_tree_incrementPSt18_Rb_tree_node_base(%"struct.std::_Rb_tree_node_base"* %3) #17
  %5 = getelementptr inbounds %"struct.std::_Rb_tree_iterator", %"struct.std::_Rb_tree_iterator"* %0, i32 0, i32 0
  store %"struct.std::_Rb_tree_node_base"* %4, %"struct.std::_Rb_tree_node_base"** %5, align 8
  ret %"struct.std::_Rb_tree_iterator"* %0
}

; Function Attrs: noinline nounwind uwtable
define linkonce_odr %struct.point* @_ZNSt6vectorI5pointSaIS0_EE5beginEv(%"class.std::vector"* %0) #0 comdat align 2 {
  %2 = alloca %"class.__gnu_cxx::__normal_iterator", align 8
  %3 = bitcast %"class.std::vector"* %0 to %"struct.std::_Vector_base"*
  %4 = getelementptr inbounds %"struct.std::_Vector_base", %"struct.std::_Vector_base"* %3, i32 0, i32 0
  %5 = getelementptr inbounds %"struct.std::_Vector_base<point, std::allocator<point> >::_Vector_impl", %"struct.std::_Vector_base<point, std::allocator<point> >::_Vector_impl"* %4, i32 0, i32 0
  call void @_ZN9__gnu_cxx17__normal_iteratorIP5pointSt6vectorIS1_SaIS1_EEEC2ERKS2_(%"class.__gnu_cxx::__normal_iterator"* %2, %struct.point** dereferenceable(8) %5) #3
  %6 = getelementptr inbounds %"class.__gnu_cxx::__normal_iterator", %"class.__gnu_cxx::__normal_iterator"* %2, i32 0, i32 0
  %7 = load %struct.point*, %struct.point** %6, align 8
  ret %struct.point* %7
}

; Function Attrs: noinline nounwind uwtable
define linkonce_odr %struct.point* @_ZNSt6vectorI5pointSaIS0_EE3endEv(%"class.std::vector"* %0) #0 comdat align 2 {
  %2 = alloca %"class.__gnu_cxx::__normal_iterator", align 8
  %3 = bitcast %"class.std::vector"* %0 to %"struct.std::_Vector_base"*
  %4 = getelementptr inbounds %"struct.std::_Vector_base", %"struct.std::_Vector_base"* %3, i32 0, i32 0
  %5 = getelementptr inbounds %"struct.std::_Vector_base<point, std::allocator<point> >::_Vector_impl", %"struct.std::_Vector_base<point, std::allocator<point> >::_Vector_impl"* %4, i32 0, i32 1
  call void @_ZN9__gnu_cxx17__normal_iteratorIP5pointSt6vectorIS1_SaIS1_EEEC2ERKS2_(%"class.__gnu_cxx::__normal_iterator"* %2, %struct.point** dereferenceable(8) %5) #3
  %6 = getelementptr inbounds %"class.__gnu_cxx::__normal_iterator", %"class.__gnu_cxx::__normal_iterator"* %2, i32 0, i32 0
  %7 = load %struct.point*, %struct.point** %6, align 8
  ret %struct.point* %7
}

; Function Attrs: noinline nounwind uwtable
define linkonce_odr zeroext i1 @_ZN9__gnu_cxxneIP5pointSt6vectorIS1_SaIS1_EEEEbRKNS_17__normal_iteratorIT_T0_EESB_(%"class.__gnu_cxx::__normal_iterator"* dereferenceable(8) %0, %"class.__gnu_cxx::__normal_iterator"* dereferenceable(8) %1) #0 comdat {
  %3 = call dereferenceable(8) %struct.point** @_ZNK9__gnu_cxx17__normal_iteratorIP5pointSt6vectorIS1_SaIS1_EEE4baseEv(%"class.__gnu_cxx::__normal_iterator"* %0) #3
  %4 = load %struct.point*, %struct.point** %3, align 8
  %5 = call dereferenceable(8) %struct.point** @_ZNK9__gnu_cxx17__normal_iteratorIP5pointSt6vectorIS1_SaIS1_EEE4baseEv(%"class.__gnu_cxx::__normal_iterator"* %1) #3
  %6 = load %struct.point*, %struct.point** %5, align 8
  %7 = icmp ne %struct.point* %4, %6
  ret i1 %7
}

; Function Attrs: noinline nounwind uwtable
define linkonce_odr dereferenceable(12) %struct.point* @_ZNK9__gnu_cxx17__normal_iteratorIP5pointSt6vectorIS1_SaIS1_EEEdeEv(%"class.__gnu_cxx::__normal_iterator"* %0) #0 comdat align 2 {
  %2 = getelementptr inbounds %"class.__gnu_cxx::__normal_iterator", %"class.__gnu_cxx::__normal_iterator"* %0, i32 0, i32 0
  %3 = load %struct.point*, %struct.point** %2, align 8
  ret %struct.point* %3
}

; Function Attrs: noinline nounwind uwtable
define linkonce_odr void @_ZNSt6vectorI5pointSaIS0_EE5clearEv(%"class.std::vector"* %0) #0 comdat align 2 {
  %2 = bitcast %"class.std::vector"* %0 to %"struct.std::_Vector_base"*
  %3 = getelementptr inbounds %"struct.std::_Vector_base", %"struct.std::_Vector_base"* %2, i32 0, i32 0
  %4 = getelementptr inbounds %"struct.std::_Vector_base<point, std::allocator<point> >::_Vector_impl", %"struct.std::_Vector_base<point, std::allocator<point> >::_Vector_impl"* %3, i32 0, i32 0
  %5 = load %struct.point*, %struct.point** %4, align 8
  call void @_ZNSt6vectorI5pointSaIS0_EE15_M_erase_at_endEPS0_(%"class.std::vector"* %0, %struct.point* %5) #3
  ret void
}

; Function Attrs: noinline nounwind uwtable
define linkonce_odr dereferenceable(8) %"class.__gnu_cxx::__normal_iterator"* @_ZN9__gnu_cxx17__normal_iteratorIP5pointSt6vectorIS1_SaIS1_EEEppEv(%"class.__gnu_cxx::__normal_iterator"* %0) #0 comdat align 2 {
  %2 = getelementptr inbounds %"class.__gnu_cxx::__normal_iterator", %"class.__gnu_cxx::__normal_iterator"* %0, i32 0, i32 0
  %3 = load %struct.point*, %struct.point** %2, align 8
  %4 = getelementptr inbounds %struct.point, %struct.point* %3, i32 1
  store %struct.point* %4, %struct.point** %2, align 8
  ret %"class.__gnu_cxx::__normal_iterator"* %0
}

declare i32 @printf(i8*, ...) #6

; Function Attrs: noinline nounwind uwtable
define linkonce_odr void @_ZNSt8_Rb_treeI5pointSt4pairIKS0_iESt10_Select1stIS3_ESt4lessIS0_ESaIS3_EEC2Ev(%"class.std::_Rb_tree"* %0) unnamed_addr #0 comdat align 2 {
  %2 = getelementptr inbounds %"class.std::_Rb_tree", %"class.std::_Rb_tree"* %0, i32 0, i32 0
  call void @_ZNSt8_Rb_treeI5pointSt4pairIKS0_iESt10_Select1stIS3_ESt4lessIS0_ESaIS3_EE13_Rb_tree_implIS7_Lb1EEC2Ev(%"struct.std::_Rb_tree<point, std::pair<const point, int>, std::_Select1st<std::pair<const point, int> >, std::less<point>, std::allocator<std::pair<const point, int> > >::_Rb_tree_impl"* %2) #3
  ret void
}

; Function Attrs: noinline nounwind uwtable
define linkonce_odr void @_ZNSt8_Rb_treeI5pointSt4pairIKS0_iESt10_Select1stIS3_ESt4lessIS0_ESaIS3_EE13_Rb_tree_implIS7_Lb1EEC2Ev(%"struct.std::_Rb_tree<point, std::pair<const point, int>, std::_Select1st<std::pair<const point, int> >, std::less<point>, std::allocator<std::pair<const point, int> > >::_Rb_tree_impl"* %0) unnamed_addr #0 comdat align 2 {
  %2 = bitcast %"struct.std::_Rb_tree<point, std::pair<const point, int>, std::_Select1st<std::pair<const point, int> >, std::less<point>, std::allocator<std::pair<const point, int> > >::_Rb_tree_impl"* %0 to %"class.std::allocator.0"*
  call void @_ZNSaISt13_Rb_tree_nodeISt4pairIK5pointiEEEC2Ev(%"class.std::allocator.0"* %2) #3
  %3 = bitcast %"struct.std::_Rb_tree<point, std::pair<const point, int>, std::_Select1st<std::pair<const point, int> >, std::less<point>, std::allocator<std::pair<const point, int> > >::_Rb_tree_impl"* %0 to %"struct.std::_Rb_tree_key_compare"*
  call void @_ZNSt20_Rb_tree_key_compareISt4lessI5pointEEC2Ev(%"struct.std::_Rb_tree_key_compare"* %3) #3
  %4 = bitcast %"struct.std::_Rb_tree<point, std::pair<const point, int>, std::_Select1st<std::pair<const point, int> >, std::less<point>, std::allocator<std::pair<const point, int> > >::_Rb_tree_impl"* %0 to i8*
  %5 = getelementptr inbounds i8, i8* %4, i64 8
  %6 = bitcast i8* %5 to %"struct.std::_Rb_tree_header"*
  call void @_ZNSt15_Rb_tree_headerC2Ev(%"struct.std::_Rb_tree_header"* %6) #3
  ret void
}

; Function Attrs: noinline nounwind uwtable
define linkonce_odr void @_ZNSaISt13_Rb_tree_nodeISt4pairIK5pointiEEEC2Ev(%"class.std::allocator.0"* %0) unnamed_addr #0 comdat align 2 {
  %2 = bitcast %"class.std::allocator.0"* %0 to %"class.__gnu_cxx::new_allocator.1"*
  call void @_ZN9__gnu_cxx13new_allocatorISt13_Rb_tree_nodeISt4pairIK5pointiEEEC2Ev(%"class.__gnu_cxx::new_allocator.1"* %2) #3
  ret void
}

; Function Attrs: noinline nounwind uwtable
define linkonce_odr void @_ZNSt20_Rb_tree_key_compareISt4lessI5pointEEC2Ev(%"struct.std::_Rb_tree_key_compare"* %0) unnamed_addr #0 comdat align 2 {
  %2 = getelementptr inbounds %"struct.std::_Rb_tree_key_compare", %"struct.std::_Rb_tree_key_compare"* %0, i32 0, i32 0
  ret void
}

; Function Attrs: noinline nounwind uwtable
define linkonce_odr void @_ZNSt15_Rb_tree_headerC2Ev(%"struct.std::_Rb_tree_header"* %0) unnamed_addr #0 comdat align 2 personality i8* bitcast (i32 (...)* @__gxx_personality_v0 to i8*) {
  %2 = getelementptr inbounds %"struct.std::_Rb_tree_header", %"struct.std::_Rb_tree_header"* %0, i32 0, i32 0
  %3 = getelementptr inbounds %"struct.std::_Rb_tree_header", %"struct.std::_Rb_tree_header"* %0, i32 0, i32 0
  %4 = getelementptr inbounds %"struct.std::_Rb_tree_node_base", %"struct.std::_Rb_tree_node_base"* %3, i32 0, i32 0
  store i32 0, i32* %4, align 8
  invoke void @_ZNSt15_Rb_tree_header8_M_resetEv(%"struct.std::_Rb_tree_header"* %0)
          to label %5 unwind label %6

5:                                                ; preds = %1
  ret void

6:                                                ; preds = %1
  %7 = landingpad { i8*, i32 }
          catch i8* null
  %8 = extractvalue { i8*, i32 } %7, 0
  call void @__clang_call_terminate(i8* %8) #15
  unreachable
}

; Function Attrs: noinline nounwind uwtable
define linkonce_odr void @_ZN9__gnu_cxx13new_allocatorISt13_Rb_tree_nodeISt4pairIK5pointiEEEC2Ev(%"class.__gnu_cxx::new_allocator.1"* %0) unnamed_addr #0 comdat align 2 {
  ret void
}

; Function Attrs: noinline nounwind uwtable
define linkonce_odr void @_ZNSt15_Rb_tree_header8_M_resetEv(%"struct.std::_Rb_tree_header"* %0) #0 comdat align 2 {
  %2 = getelementptr inbounds %"struct.std::_Rb_tree_header", %"struct.std::_Rb_tree_header"* %0, i32 0, i32 0
  %3 = getelementptr inbounds %"struct.std::_Rb_tree_node_base", %"struct.std::_Rb_tree_node_base"* %2, i32 0, i32 1
  store %"struct.std::_Rb_tree_node_base"* null, %"struct.std::_Rb_tree_node_base"** %3, align 8
  %4 = getelementptr inbounds %"struct.std::_Rb_tree_header", %"struct.std::_Rb_tree_header"* %0, i32 0, i32 0
  %5 = getelementptr inbounds %"struct.std::_Rb_tree_header", %"struct.std::_Rb_tree_header"* %0, i32 0, i32 0
  %6 = getelementptr inbounds %"struct.std::_Rb_tree_node_base", %"struct.std::_Rb_tree_node_base"* %5, i32 0, i32 2
  store %"struct.std::_Rb_tree_node_base"* %4, %"struct.std::_Rb_tree_node_base"** %6, align 8
  %7 = getelementptr inbounds %"struct.std::_Rb_tree_header", %"struct.std::_Rb_tree_header"* %0, i32 0, i32 0
  %8 = getelementptr inbounds %"struct.std::_Rb_tree_header", %"struct.std::_Rb_tree_header"* %0, i32 0, i32 0
  %9 = getelementptr inbounds %"struct.std::_Rb_tree_node_base", %"struct.std::_Rb_tree_node_base"* %8, i32 0, i32 3
  store %"struct.std::_Rb_tree_node_base"* %7, %"struct.std::_Rb_tree_node_base"** %9, align 8
  %10 = getelementptr inbounds %"struct.std::_Rb_tree_header", %"struct.std::_Rb_tree_header"* %0, i32 0, i32 1
  store i64 0, i64* %10, align 8
  ret void
}

; Function Attrs: noinline noreturn nounwind
define linkonce_odr hidden void @__clang_call_terminate(i8* %0) #7 comdat {
  %2 = call i8* @__cxa_begin_catch(i8* %0) #3
  call void @_ZSt9terminatev() #15
  unreachable
}

declare i8* @__cxa_begin_catch(i8*)

declare void @_ZSt9terminatev()

; Function Attrs: noinline nounwind uwtable
define linkonce_odr void @_ZNSt8_Rb_treeI5pointSt4pairIKS0_iESt10_Select1stIS3_ESt4lessIS0_ESaIS3_EED2Ev(%"class.std::_Rb_tree"* %0) unnamed_addr #0 comdat align 2 personality i8* bitcast (i32 (...)* @__gxx_personality_v0 to i8*) {
  %2 = call %"struct.std::_Rb_tree_node"* @_ZNSt8_Rb_treeI5pointSt4pairIKS0_iESt10_Select1stIS3_ESt4lessIS0_ESaIS3_EE8_M_beginEv(%"class.std::_Rb_tree"* %0) #3
  invoke void @_ZNSt8_Rb_treeI5pointSt4pairIKS0_iESt10_Select1stIS3_ESt4lessIS0_ESaIS3_EE8_M_eraseEPSt13_Rb_tree_nodeIS3_E(%"class.std::_Rb_tree"* %0, %"struct.std::_Rb_tree_node"* %2)
          to label %3 unwind label %5

3:                                                ; preds = %1
  %4 = getelementptr inbounds %"class.std::_Rb_tree", %"class.std::_Rb_tree"* %0, i32 0, i32 0
  call void @_ZNSt8_Rb_treeI5pointSt4pairIKS0_iESt10_Select1stIS3_ESt4lessIS0_ESaIS3_EE13_Rb_tree_implIS7_Lb1EED2Ev(%"struct.std::_Rb_tree<point, std::pair<const point, int>, std::_Select1st<std::pair<const point, int> >, std::less<point>, std::allocator<std::pair<const point, int> > >::_Rb_tree_impl"* %4) #3
  ret void

5:                                                ; preds = %1
  %6 = landingpad { i8*, i32 }
          catch i8* null
  %7 = extractvalue { i8*, i32 } %6, 0
  %8 = extractvalue { i8*, i32 } %6, 1
  %9 = getelementptr inbounds %"class.std::_Rb_tree", %"class.std::_Rb_tree"* %0, i32 0, i32 0
  call void @_ZNSt8_Rb_treeI5pointSt4pairIKS0_iESt10_Select1stIS3_ESt4lessIS0_ESaIS3_EE13_Rb_tree_implIS7_Lb1EED2Ev(%"struct.std::_Rb_tree<point, std::pair<const point, int>, std::_Select1st<std::pair<const point, int> >, std::less<point>, std::allocator<std::pair<const point, int> > >::_Rb_tree_impl"* %9) #3
  br label %10

10:                                               ; preds = %5
  call void @__clang_call_terminate(i8* %7) #15
  unreachable
}

; Function Attrs: noinline uwtable
define linkonce_odr void @_ZNSt8_Rb_treeI5pointSt4pairIKS0_iESt10_Select1stIS3_ESt4lessIS0_ESaIS3_EE8_M_eraseEPSt13_Rb_tree_nodeIS3_E(%"class.std::_Rb_tree"* %0, %"struct.std::_Rb_tree_node"* %1) #2 comdat align 2 {
  br label %3

3:                                                ; preds = %5, %2
  %.0 = phi %"struct.std::_Rb_tree_node"* [ %1, %2 ], [ %9, %5 ]
  %4 = icmp ne %"struct.std::_Rb_tree_node"* %.0, null
  br i1 %4, label %5, label %10

5:                                                ; preds = %3
  %6 = bitcast %"struct.std::_Rb_tree_node"* %.0 to %"struct.std::_Rb_tree_node_base"*
  %7 = call %"struct.std::_Rb_tree_node"* @_ZNSt8_Rb_treeI5pointSt4pairIKS0_iESt10_Select1stIS3_ESt4lessIS0_ESaIS3_EE8_S_rightEPSt18_Rb_tree_node_base(%"struct.std::_Rb_tree_node_base"* %6) #3
  call void @_ZNSt8_Rb_treeI5pointSt4pairIKS0_iESt10_Select1stIS3_ESt4lessIS0_ESaIS3_EE8_M_eraseEPSt13_Rb_tree_nodeIS3_E(%"class.std::_Rb_tree"* %0, %"struct.std::_Rb_tree_node"* %7)
  %8 = bitcast %"struct.std::_Rb_tree_node"* %.0 to %"struct.std::_Rb_tree_node_base"*
  %9 = call %"struct.std::_Rb_tree_node"* @_ZNSt8_Rb_treeI5pointSt4pairIKS0_iESt10_Select1stIS3_ESt4lessIS0_ESaIS3_EE7_S_leftEPSt18_Rb_tree_node_base(%"struct.std::_Rb_tree_node_base"* %8) #3
  call void @_ZNSt8_Rb_treeI5pointSt4pairIKS0_iESt10_Select1stIS3_ESt4lessIS0_ESaIS3_EE12_M_drop_nodeEPSt13_Rb_tree_nodeIS3_E(%"class.std::_Rb_tree"* %0, %"struct.std::_Rb_tree_node"* %.0) #3
  br label %3

10:                                               ; preds = %3
  ret void
}

; Function Attrs: noinline nounwind uwtable
define linkonce_odr %"struct.std::_Rb_tree_node"* @_ZNSt8_Rb_treeI5pointSt4pairIKS0_iESt10_Select1stIS3_ESt4lessIS0_ESaIS3_EE8_M_beginEv(%"class.std::_Rb_tree"* %0) #0 comdat align 2 {
  %2 = getelementptr inbounds %"class.std::_Rb_tree", %"class.std::_Rb_tree"* %0, i32 0, i32 0
  %3 = bitcast %"struct.std::_Rb_tree<point, std::pair<const point, int>, std::_Select1st<std::pair<const point, int> >, std::less<point>, std::allocator<std::pair<const point, int> > >::_Rb_tree_impl"* %2 to i8*
  %4 = getelementptr inbounds i8, i8* %3, i64 8
  %5 = bitcast i8* %4 to %"struct.std::_Rb_tree_header"*
  %6 = getelementptr inbounds %"struct.std::_Rb_tree_header", %"struct.std::_Rb_tree_header"* %5, i32 0, i32 0
  %7 = getelementptr inbounds %"struct.std::_Rb_tree_node_base", %"struct.std::_Rb_tree_node_base"* %6, i32 0, i32 1
  %8 = load %"struct.std::_Rb_tree_node_base"*, %"struct.std::_Rb_tree_node_base"** %7, align 8
  %9 = bitcast %"struct.std::_Rb_tree_node_base"* %8 to %"struct.std::_Rb_tree_node"*
  ret %"struct.std::_Rb_tree_node"* %9
}

; Function Attrs: noinline nounwind uwtable
define linkonce_odr void @_ZNSt8_Rb_treeI5pointSt4pairIKS0_iESt10_Select1stIS3_ESt4lessIS0_ESaIS3_EE13_Rb_tree_implIS7_Lb1EED2Ev(%"struct.std::_Rb_tree<point, std::pair<const point, int>, std::_Select1st<std::pair<const point, int> >, std::less<point>, std::allocator<std::pair<const point, int> > >::_Rb_tree_impl"* %0) unnamed_addr #0 comdat align 2 {
  %2 = bitcast %"struct.std::_Rb_tree<point, std::pair<const point, int>, std::_Select1st<std::pair<const point, int> >, std::less<point>, std::allocator<std::pair<const point, int> > >::_Rb_tree_impl"* %0 to %"class.std::allocator.0"*
  call void @_ZNSaISt13_Rb_tree_nodeISt4pairIK5pointiEEED2Ev(%"class.std::allocator.0"* %2) #3
  ret void
}

; Function Attrs: noinline nounwind uwtable
define linkonce_odr %"struct.std::_Rb_tree_node"* @_ZNSt8_Rb_treeI5pointSt4pairIKS0_iESt10_Select1stIS3_ESt4lessIS0_ESaIS3_EE8_S_rightEPSt18_Rb_tree_node_base(%"struct.std::_Rb_tree_node_base"* %0) #0 comdat align 2 {
  %2 = getelementptr inbounds %"struct.std::_Rb_tree_node_base", %"struct.std::_Rb_tree_node_base"* %0, i32 0, i32 3
  %3 = load %"struct.std::_Rb_tree_node_base"*, %"struct.std::_Rb_tree_node_base"** %2, align 8
  %4 = bitcast %"struct.std::_Rb_tree_node_base"* %3 to %"struct.std::_Rb_tree_node"*
  ret %"struct.std::_Rb_tree_node"* %4
}

; Function Attrs: noinline nounwind uwtable
define linkonce_odr %"struct.std::_Rb_tree_node"* @_ZNSt8_Rb_treeI5pointSt4pairIKS0_iESt10_Select1stIS3_ESt4lessIS0_ESaIS3_EE7_S_leftEPSt18_Rb_tree_node_base(%"struct.std::_Rb_tree_node_base"* %0) #0 comdat align 2 {
  %2 = getelementptr inbounds %"struct.std::_Rb_tree_node_base", %"struct.std::_Rb_tree_node_base"* %0, i32 0, i32 2
  %3 = load %"struct.std::_Rb_tree_node_base"*, %"struct.std::_Rb_tree_node_base"** %2, align 8
  %4 = bitcast %"struct.std::_Rb_tree_node_base"* %3 to %"struct.std::_Rb_tree_node"*
  ret %"struct.std::_Rb_tree_node"* %4
}

; Function Attrs: noinline nounwind uwtable
define linkonce_odr void @_ZNSt8_Rb_treeI5pointSt4pairIKS0_iESt10_Select1stIS3_ESt4lessIS0_ESaIS3_EE12_M_drop_nodeEPSt13_Rb_tree_nodeIS3_E(%"class.std::_Rb_tree"* %0, %"struct.std::_Rb_tree_node"* %1) #0 comdat align 2 {
  call void @_ZNSt8_Rb_treeI5pointSt4pairIKS0_iESt10_Select1stIS3_ESt4lessIS0_ESaIS3_EE15_M_destroy_nodeEPSt13_Rb_tree_nodeIS3_E(%"class.std::_Rb_tree"* %0, %"struct.std::_Rb_tree_node"* %1) #3
  call void @_ZNSt8_Rb_treeI5pointSt4pairIKS0_iESt10_Select1stIS3_ESt4lessIS0_ESaIS3_EE11_M_put_nodeEPSt13_Rb_tree_nodeIS3_E(%"class.std::_Rb_tree"* %0, %"struct.std::_Rb_tree_node"* %1) #3
  ret void
}

; Function Attrs: noinline nounwind uwtable
define linkonce_odr void @_ZNSt8_Rb_treeI5pointSt4pairIKS0_iESt10_Select1stIS3_ESt4lessIS0_ESaIS3_EE15_M_destroy_nodeEPSt13_Rb_tree_nodeIS3_E(%"class.std::_Rb_tree"* %0, %"struct.std::_Rb_tree_node"* %1) #0 comdat align 2 personality i8* bitcast (i32 (...)* @__gxx_personality_v0 to i8*) {
  %3 = call dereferenceable(1) %"class.std::allocator.0"* @_ZNSt8_Rb_treeI5pointSt4pairIKS0_iESt10_Select1stIS3_ESt4lessIS0_ESaIS3_EE21_M_get_Node_allocatorEv(%"class.std::_Rb_tree"* %0) #3
  %4 = invoke %"struct.std::pair.7"* @_ZNSt13_Rb_tree_nodeISt4pairIK5pointiEE9_M_valptrEv(%"struct.std::_Rb_tree_node"* %1)
          to label %5 unwind label %7

5:                                                ; preds = %2
  invoke void @_ZNSt16allocator_traitsISaISt13_Rb_tree_nodeISt4pairIK5pointiEEEE7destroyIS4_EEvRS6_PT_(%"class.std::allocator.0"* dereferenceable(1) %3, %"struct.std::pair.7"* %4)
          to label %6 unwind label %7

6:                                                ; preds = %5
  ret void

7:                                                ; preds = %5, %2
  %8 = landingpad { i8*, i32 }
          catch i8* null
  %9 = extractvalue { i8*, i32 } %8, 0
  call void @__clang_call_terminate(i8* %9) #15
  unreachable
}

; Function Attrs: noinline nounwind uwtable
define linkonce_odr void @_ZNSt8_Rb_treeI5pointSt4pairIKS0_iESt10_Select1stIS3_ESt4lessIS0_ESaIS3_EE11_M_put_nodeEPSt13_Rb_tree_nodeIS3_E(%"class.std::_Rb_tree"* %0, %"struct.std::_Rb_tree_node"* %1) #0 comdat align 2 personality i8* bitcast (i32 (...)* @__gxx_personality_v0 to i8*) {
  %3 = call dereferenceable(1) %"class.std::allocator.0"* @_ZNSt8_Rb_treeI5pointSt4pairIKS0_iESt10_Select1stIS3_ESt4lessIS0_ESaIS3_EE21_M_get_Node_allocatorEv(%"class.std::_Rb_tree"* %0) #3
  invoke void @_ZNSt16allocator_traitsISaISt13_Rb_tree_nodeISt4pairIK5pointiEEEE10deallocateERS6_PS5_m(%"class.std::allocator.0"* dereferenceable(1) %3, %"struct.std::_Rb_tree_node"* %1, i64 1)
          to label %4 unwind label %5

4:                                                ; preds = %2
  ret void

5:                                                ; preds = %2
  %6 = landingpad { i8*, i32 }
          catch i8* null
  %7 = extractvalue { i8*, i32 } %6, 0
  call void @__clang_call_terminate(i8* %7) #15
  unreachable
}

; Function Attrs: noinline uwtable
define linkonce_odr void @_ZNSt16allocator_traitsISaISt13_Rb_tree_nodeISt4pairIK5pointiEEEE7destroyIS4_EEvRS6_PT_(%"class.std::allocator.0"* dereferenceable(1) %0, %"struct.std::pair.7"* %1) #2 comdat align 2 {
  %3 = bitcast %"class.std::allocator.0"* %0 to %"class.__gnu_cxx::new_allocator.1"*
  call void @_ZN9__gnu_cxx13new_allocatorISt13_Rb_tree_nodeISt4pairIK5pointiEEE7destroyIS5_EEvPT_(%"class.__gnu_cxx::new_allocator.1"* %3, %"struct.std::pair.7"* %1)
  ret void
}

; Function Attrs: noinline nounwind uwtable
define linkonce_odr dereferenceable(1) %"class.std::allocator.0"* @_ZNSt8_Rb_treeI5pointSt4pairIKS0_iESt10_Select1stIS3_ESt4lessIS0_ESaIS3_EE21_M_get_Node_allocatorEv(%"class.std::_Rb_tree"* %0) #0 comdat align 2 {
  %2 = getelementptr inbounds %"class.std::_Rb_tree", %"class.std::_Rb_tree"* %0, i32 0, i32 0
  %3 = bitcast %"struct.std::_Rb_tree<point, std::pair<const point, int>, std::_Select1st<std::pair<const point, int> >, std::less<point>, std::allocator<std::pair<const point, int> > >::_Rb_tree_impl"* %2 to %"class.std::allocator.0"*
  ret %"class.std::allocator.0"* %3
}

; Function Attrs: noinline nounwind uwtable
define linkonce_odr %"struct.std::pair.7"* @_ZNSt13_Rb_tree_nodeISt4pairIK5pointiEE9_M_valptrEv(%"struct.std::_Rb_tree_node"* %0) #0 comdat align 2 {
  %2 = getelementptr inbounds %"struct.std::_Rb_tree_node", %"struct.std::_Rb_tree_node"* %0, i32 0, i32 1
  %3 = call %"struct.std::pair.7"* @_ZN9__gnu_cxx16__aligned_membufISt4pairIK5pointiEE6_M_ptrEv(%"struct.__gnu_cxx::__aligned_membuf"* %2) #3
  ret %"struct.std::pair.7"* %3
}

; Function Attrs: noinline nounwind uwtable
define linkonce_odr void @_ZN9__gnu_cxx13new_allocatorISt13_Rb_tree_nodeISt4pairIK5pointiEEE7destroyIS5_EEvPT_(%"class.__gnu_cxx::new_allocator.1"* %0, %"struct.std::pair.7"* %1) #0 comdat align 2 {
  ret void
}

; Function Attrs: noinline nounwind uwtable
define linkonce_odr %"struct.std::pair.7"* @_ZN9__gnu_cxx16__aligned_membufISt4pairIK5pointiEE6_M_ptrEv(%"struct.__gnu_cxx::__aligned_membuf"* %0) #0 comdat align 2 {
  %2 = call i8* @_ZN9__gnu_cxx16__aligned_membufISt4pairIK5pointiEE7_M_addrEv(%"struct.__gnu_cxx::__aligned_membuf"* %0) #3
  %3 = bitcast i8* %2 to %"struct.std::pair.7"*
  ret %"struct.std::pair.7"* %3
}

; Function Attrs: noinline nounwind uwtable
define linkonce_odr i8* @_ZN9__gnu_cxx16__aligned_membufISt4pairIK5pointiEE7_M_addrEv(%"struct.__gnu_cxx::__aligned_membuf"* %0) #0 comdat align 2 {
  %2 = getelementptr inbounds %"struct.__gnu_cxx::__aligned_membuf", %"struct.__gnu_cxx::__aligned_membuf"* %0, i32 0, i32 0
  %3 = bitcast [16 x i8]* %2 to i8*
  ret i8* %3
}

; Function Attrs: noinline uwtable
define linkonce_odr void @_ZNSt16allocator_traitsISaISt13_Rb_tree_nodeISt4pairIK5pointiEEEE10deallocateERS6_PS5_m(%"class.std::allocator.0"* dereferenceable(1) %0, %"struct.std::_Rb_tree_node"* %1, i64 %2) #2 comdat align 2 {
  %4 = bitcast %"class.std::allocator.0"* %0 to %"class.__gnu_cxx::new_allocator.1"*
  call void @_ZN9__gnu_cxx13new_allocatorISt13_Rb_tree_nodeISt4pairIK5pointiEEE10deallocateEPS6_m(%"class.__gnu_cxx::new_allocator.1"* %4, %"struct.std::_Rb_tree_node"* %1, i64 %2)
  ret void
}

; Function Attrs: noinline nounwind uwtable
define linkonce_odr void @_ZN9__gnu_cxx13new_allocatorISt13_Rb_tree_nodeISt4pairIK5pointiEEE10deallocateEPS6_m(%"class.__gnu_cxx::new_allocator.1"* %0, %"struct.std::_Rb_tree_node"* %1, i64 %2) #0 comdat align 2 {
  %4 = bitcast %"struct.std::_Rb_tree_node"* %1 to i8*
  call void @_ZdlPv(i8* %4) #3
  ret void
}

; Function Attrs: nobuiltin nounwind
declare void @_ZdlPv(i8*) #8

; Function Attrs: noinline nounwind uwtable
define linkonce_odr void @_ZNSaISt13_Rb_tree_nodeISt4pairIK5pointiEEED2Ev(%"class.std::allocator.0"* %0) unnamed_addr #0 comdat align 2 {
  %2 = bitcast %"class.std::allocator.0"* %0 to %"class.__gnu_cxx::new_allocator.1"*
  call void @_ZN9__gnu_cxx13new_allocatorISt13_Rb_tree_nodeISt4pairIK5pointiEEED2Ev(%"class.__gnu_cxx::new_allocator.1"* %2) #3
  ret void
}

; Function Attrs: noinline nounwind uwtable
define linkonce_odr void @_ZN9__gnu_cxx13new_allocatorISt13_Rb_tree_nodeISt4pairIK5pointiEEED2Ev(%"class.__gnu_cxx::new_allocator.1"* %0) unnamed_addr #0 comdat align 2 {
  ret void
}

; Function Attrs: noinline nounwind uwtable
define linkonce_odr void @_ZNSt8_Rb_treeI5pointS0_St9_IdentityIS0_ESt4lessIS0_ESaIS0_EEC2Ev(%"class.std::_Rb_tree.3"* %0) unnamed_addr #0 comdat align 2 {
  %2 = getelementptr inbounds %"class.std::_Rb_tree.3", %"class.std::_Rb_tree.3"* %0, i32 0, i32 0
  call void @_ZNSt8_Rb_treeI5pointS0_St9_IdentityIS0_ESt4lessIS0_ESaIS0_EE13_Rb_tree_implIS4_Lb1EEC2Ev(%"struct.std::_Rb_tree<point, point, std::_Identity<point>, std::less<point>, std::allocator<point> >::_Rb_tree_impl"* %2) #3
  ret void
}

; Function Attrs: noinline nounwind uwtable
define linkonce_odr void @_ZNSt8_Rb_treeI5pointS0_St9_IdentityIS0_ESt4lessIS0_ESaIS0_EE13_Rb_tree_implIS4_Lb1EEC2Ev(%"struct.std::_Rb_tree<point, point, std::_Identity<point>, std::less<point>, std::allocator<point> >::_Rb_tree_impl"* %0) unnamed_addr #0 comdat align 2 {
  %2 = bitcast %"struct.std::_Rb_tree<point, point, std::_Identity<point>, std::less<point>, std::allocator<point> >::_Rb_tree_impl"* %0 to %"class.std::allocator.4"*
  call void @_ZNSaISt13_Rb_tree_nodeI5pointEEC2Ev(%"class.std::allocator.4"* %2) #3
  %3 = bitcast %"struct.std::_Rb_tree<point, point, std::_Identity<point>, std::less<point>, std::allocator<point> >::_Rb_tree_impl"* %0 to %"struct.std::_Rb_tree_key_compare"*
  call void @_ZNSt20_Rb_tree_key_compareISt4lessI5pointEEC2Ev(%"struct.std::_Rb_tree_key_compare"* %3) #3
  %4 = bitcast %"struct.std::_Rb_tree<point, point, std::_Identity<point>, std::less<point>, std::allocator<point> >::_Rb_tree_impl"* %0 to i8*
  %5 = getelementptr inbounds i8, i8* %4, i64 8
  %6 = bitcast i8* %5 to %"struct.std::_Rb_tree_header"*
  call void @_ZNSt15_Rb_tree_headerC2Ev(%"struct.std::_Rb_tree_header"* %6) #3
  ret void
}

; Function Attrs: noinline nounwind uwtable
define linkonce_odr void @_ZNSaISt13_Rb_tree_nodeI5pointEEC2Ev(%"class.std::allocator.4"* %0) unnamed_addr #0 comdat align 2 {
  %2 = bitcast %"class.std::allocator.4"* %0 to %"class.__gnu_cxx::new_allocator.5"*
  call void @_ZN9__gnu_cxx13new_allocatorISt13_Rb_tree_nodeI5pointEEC2Ev(%"class.__gnu_cxx::new_allocator.5"* %2) #3
  ret void
}

; Function Attrs: noinline nounwind uwtable
define linkonce_odr void @_ZN9__gnu_cxx13new_allocatorISt13_Rb_tree_nodeI5pointEEC2Ev(%"class.__gnu_cxx::new_allocator.5"* %0) unnamed_addr #0 comdat align 2 {
  ret void
}

; Function Attrs: noinline nounwind uwtable
define linkonce_odr void @_ZNSt8_Rb_treeI5pointS0_St9_IdentityIS0_ESt4lessIS0_ESaIS0_EED2Ev(%"class.std::_Rb_tree.3"* %0) unnamed_addr #0 comdat align 2 personality i8* bitcast (i32 (...)* @__gxx_personality_v0 to i8*) {
  %2 = call %"struct.std::_Rb_tree_node.10"* @_ZNSt8_Rb_treeI5pointS0_St9_IdentityIS0_ESt4lessIS0_ESaIS0_EE8_M_beginEv(%"class.std::_Rb_tree.3"* %0) #3
  invoke void @_ZNSt8_Rb_treeI5pointS0_St9_IdentityIS0_ESt4lessIS0_ESaIS0_EE8_M_eraseEPSt13_Rb_tree_nodeIS0_E(%"class.std::_Rb_tree.3"* %0, %"struct.std::_Rb_tree_node.10"* %2)
          to label %3 unwind label %5

3:                                                ; preds = %1
  %4 = getelementptr inbounds %"class.std::_Rb_tree.3", %"class.std::_Rb_tree.3"* %0, i32 0, i32 0
  call void @_ZNSt8_Rb_treeI5pointS0_St9_IdentityIS0_ESt4lessIS0_ESaIS0_EE13_Rb_tree_implIS4_Lb1EED2Ev(%"struct.std::_Rb_tree<point, point, std::_Identity<point>, std::less<point>, std::allocator<point> >::_Rb_tree_impl"* %4) #3
  ret void

5:                                                ; preds = %1
  %6 = landingpad { i8*, i32 }
          catch i8* null
  %7 = extractvalue { i8*, i32 } %6, 0
  %8 = extractvalue { i8*, i32 } %6, 1
  %9 = getelementptr inbounds %"class.std::_Rb_tree.3", %"class.std::_Rb_tree.3"* %0, i32 0, i32 0
  call void @_ZNSt8_Rb_treeI5pointS0_St9_IdentityIS0_ESt4lessIS0_ESaIS0_EE13_Rb_tree_implIS4_Lb1EED2Ev(%"struct.std::_Rb_tree<point, point, std::_Identity<point>, std::less<point>, std::allocator<point> >::_Rb_tree_impl"* %9) #3
  br label %10

10:                                               ; preds = %5
  call void @__clang_call_terminate(i8* %7) #15
  unreachable
}

; Function Attrs: noinline uwtable
define linkonce_odr void @_ZNSt8_Rb_treeI5pointS0_St9_IdentityIS0_ESt4lessIS0_ESaIS0_EE8_M_eraseEPSt13_Rb_tree_nodeIS0_E(%"class.std::_Rb_tree.3"* %0, %"struct.std::_Rb_tree_node.10"* %1) #2 comdat align 2 {
  br label %3

3:                                                ; preds = %5, %2
  %.0 = phi %"struct.std::_Rb_tree_node.10"* [ %1, %2 ], [ %9, %5 ]
  %4 = icmp ne %"struct.std::_Rb_tree_node.10"* %.0, null
  br i1 %4, label %5, label %10

5:                                                ; preds = %3
  %6 = bitcast %"struct.std::_Rb_tree_node.10"* %.0 to %"struct.std::_Rb_tree_node_base"*
  %7 = call %"struct.std::_Rb_tree_node.10"* @_ZNSt8_Rb_treeI5pointS0_St9_IdentityIS0_ESt4lessIS0_ESaIS0_EE8_S_rightEPSt18_Rb_tree_node_base(%"struct.std::_Rb_tree_node_base"* %6) #3
  call void @_ZNSt8_Rb_treeI5pointS0_St9_IdentityIS0_ESt4lessIS0_ESaIS0_EE8_M_eraseEPSt13_Rb_tree_nodeIS0_E(%"class.std::_Rb_tree.3"* %0, %"struct.std::_Rb_tree_node.10"* %7)
  %8 = bitcast %"struct.std::_Rb_tree_node.10"* %.0 to %"struct.std::_Rb_tree_node_base"*
  %9 = call %"struct.std::_Rb_tree_node.10"* @_ZNSt8_Rb_treeI5pointS0_St9_IdentityIS0_ESt4lessIS0_ESaIS0_EE7_S_leftEPSt18_Rb_tree_node_base(%"struct.std::_Rb_tree_node_base"* %8) #3
  call void @_ZNSt8_Rb_treeI5pointS0_St9_IdentityIS0_ESt4lessIS0_ESaIS0_EE12_M_drop_nodeEPSt13_Rb_tree_nodeIS0_E(%"class.std::_Rb_tree.3"* %0, %"struct.std::_Rb_tree_node.10"* %.0) #3
  br label %3

10:                                               ; preds = %3
  ret void
}

; Function Attrs: noinline nounwind uwtable
define linkonce_odr %"struct.std::_Rb_tree_node.10"* @_ZNSt8_Rb_treeI5pointS0_St9_IdentityIS0_ESt4lessIS0_ESaIS0_EE8_M_beginEv(%"class.std::_Rb_tree.3"* %0) #0 comdat align 2 {
  %2 = getelementptr inbounds %"class.std::_Rb_tree.3", %"class.std::_Rb_tree.3"* %0, i32 0, i32 0
  %3 = bitcast %"struct.std::_Rb_tree<point, point, std::_Identity<point>, std::less<point>, std::allocator<point> >::_Rb_tree_impl"* %2 to i8*
  %4 = getelementptr inbounds i8, i8* %3, i64 8
  %5 = bitcast i8* %4 to %"struct.std::_Rb_tree_header"*
  %6 = getelementptr inbounds %"struct.std::_Rb_tree_header", %"struct.std::_Rb_tree_header"* %5, i32 0, i32 0
  %7 = getelementptr inbounds %"struct.std::_Rb_tree_node_base", %"struct.std::_Rb_tree_node_base"* %6, i32 0, i32 1
  %8 = load %"struct.std::_Rb_tree_node_base"*, %"struct.std::_Rb_tree_node_base"** %7, align 8
  %9 = bitcast %"struct.std::_Rb_tree_node_base"* %8 to %"struct.std::_Rb_tree_node.10"*
  ret %"struct.std::_Rb_tree_node.10"* %9
}

; Function Attrs: noinline nounwind uwtable
define linkonce_odr void @_ZNSt8_Rb_treeI5pointS0_St9_IdentityIS0_ESt4lessIS0_ESaIS0_EE13_Rb_tree_implIS4_Lb1EED2Ev(%"struct.std::_Rb_tree<point, point, std::_Identity<point>, std::less<point>, std::allocator<point> >::_Rb_tree_impl"* %0) unnamed_addr #0 comdat align 2 {
  %2 = bitcast %"struct.std::_Rb_tree<point, point, std::_Identity<point>, std::less<point>, std::allocator<point> >::_Rb_tree_impl"* %0 to %"class.std::allocator.4"*
  call void @_ZNSaISt13_Rb_tree_nodeI5pointEED2Ev(%"class.std::allocator.4"* %2) #3
  ret void
}

; Function Attrs: noinline nounwind uwtable
define linkonce_odr %"struct.std::_Rb_tree_node.10"* @_ZNSt8_Rb_treeI5pointS0_St9_IdentityIS0_ESt4lessIS0_ESaIS0_EE8_S_rightEPSt18_Rb_tree_node_base(%"struct.std::_Rb_tree_node_base"* %0) #0 comdat align 2 {
  %2 = getelementptr inbounds %"struct.std::_Rb_tree_node_base", %"struct.std::_Rb_tree_node_base"* %0, i32 0, i32 3
  %3 = load %"struct.std::_Rb_tree_node_base"*, %"struct.std::_Rb_tree_node_base"** %2, align 8
  %4 = bitcast %"struct.std::_Rb_tree_node_base"* %3 to %"struct.std::_Rb_tree_node.10"*
  ret %"struct.std::_Rb_tree_node.10"* %4
}

; Function Attrs: noinline nounwind uwtable
define linkonce_odr %"struct.std::_Rb_tree_node.10"* @_ZNSt8_Rb_treeI5pointS0_St9_IdentityIS0_ESt4lessIS0_ESaIS0_EE7_S_leftEPSt18_Rb_tree_node_base(%"struct.std::_Rb_tree_node_base"* %0) #0 comdat align 2 {
  %2 = getelementptr inbounds %"struct.std::_Rb_tree_node_base", %"struct.std::_Rb_tree_node_base"* %0, i32 0, i32 2
  %3 = load %"struct.std::_Rb_tree_node_base"*, %"struct.std::_Rb_tree_node_base"** %2, align 8
  %4 = bitcast %"struct.std::_Rb_tree_node_base"* %3 to %"struct.std::_Rb_tree_node.10"*
  ret %"struct.std::_Rb_tree_node.10"* %4
}

; Function Attrs: noinline nounwind uwtable
define linkonce_odr void @_ZNSt8_Rb_treeI5pointS0_St9_IdentityIS0_ESt4lessIS0_ESaIS0_EE12_M_drop_nodeEPSt13_Rb_tree_nodeIS0_E(%"class.std::_Rb_tree.3"* %0, %"struct.std::_Rb_tree_node.10"* %1) #0 comdat align 2 {
  call void @_ZNSt8_Rb_treeI5pointS0_St9_IdentityIS0_ESt4lessIS0_ESaIS0_EE15_M_destroy_nodeEPSt13_Rb_tree_nodeIS0_E(%"class.std::_Rb_tree.3"* %0, %"struct.std::_Rb_tree_node.10"* %1) #3
  call void @_ZNSt8_Rb_treeI5pointS0_St9_IdentityIS0_ESt4lessIS0_ESaIS0_EE11_M_put_nodeEPSt13_Rb_tree_nodeIS0_E(%"class.std::_Rb_tree.3"* %0, %"struct.std::_Rb_tree_node.10"* %1) #3
  ret void
}

; Function Attrs: noinline nounwind uwtable
define linkonce_odr void @_ZNSt8_Rb_treeI5pointS0_St9_IdentityIS0_ESt4lessIS0_ESaIS0_EE15_M_destroy_nodeEPSt13_Rb_tree_nodeIS0_E(%"class.std::_Rb_tree.3"* %0, %"struct.std::_Rb_tree_node.10"* %1) #0 comdat align 2 personality i8* bitcast (i32 (...)* @__gxx_personality_v0 to i8*) {
  %3 = call dereferenceable(1) %"class.std::allocator.4"* @_ZNSt8_Rb_treeI5pointS0_St9_IdentityIS0_ESt4lessIS0_ESaIS0_EE21_M_get_Node_allocatorEv(%"class.std::_Rb_tree.3"* %0) #3
  %4 = invoke %struct.point* @_ZNSt13_Rb_tree_nodeI5pointE9_M_valptrEv(%"struct.std::_Rb_tree_node.10"* %1)
          to label %5 unwind label %7

5:                                                ; preds = %2
  invoke void @_ZNSt16allocator_traitsISaISt13_Rb_tree_nodeI5pointEEE7destroyIS1_EEvRS3_PT_(%"class.std::allocator.4"* dereferenceable(1) %3, %struct.point* %4)
          to label %6 unwind label %7

6:                                                ; preds = %5
  ret void

7:                                                ; preds = %5, %2
  %8 = landingpad { i8*, i32 }
          catch i8* null
  %9 = extractvalue { i8*, i32 } %8, 0
  call void @__clang_call_terminate(i8* %9) #15
  unreachable
}

; Function Attrs: noinline nounwind uwtable
define linkonce_odr void @_ZNSt8_Rb_treeI5pointS0_St9_IdentityIS0_ESt4lessIS0_ESaIS0_EE11_M_put_nodeEPSt13_Rb_tree_nodeIS0_E(%"class.std::_Rb_tree.3"* %0, %"struct.std::_Rb_tree_node.10"* %1) #0 comdat align 2 personality i8* bitcast (i32 (...)* @__gxx_personality_v0 to i8*) {
  %3 = call dereferenceable(1) %"class.std::allocator.4"* @_ZNSt8_Rb_treeI5pointS0_St9_IdentityIS0_ESt4lessIS0_ESaIS0_EE21_M_get_Node_allocatorEv(%"class.std::_Rb_tree.3"* %0) #3
  invoke void @_ZNSt16allocator_traitsISaISt13_Rb_tree_nodeI5pointEEE10deallocateERS3_PS2_m(%"class.std::allocator.4"* dereferenceable(1) %3, %"struct.std::_Rb_tree_node.10"* %1, i64 1)
          to label %4 unwind label %5

4:                                                ; preds = %2
  ret void

5:                                                ; preds = %2
  %6 = landingpad { i8*, i32 }
          catch i8* null
  %7 = extractvalue { i8*, i32 } %6, 0
  call void @__clang_call_terminate(i8* %7) #15
  unreachable
}

; Function Attrs: noinline uwtable
define linkonce_odr void @_ZNSt16allocator_traitsISaISt13_Rb_tree_nodeI5pointEEE7destroyIS1_EEvRS3_PT_(%"class.std::allocator.4"* dereferenceable(1) %0, %struct.point* %1) #2 comdat align 2 {
  %3 = bitcast %"class.std::allocator.4"* %0 to %"class.__gnu_cxx::new_allocator.5"*
  call void @_ZN9__gnu_cxx13new_allocatorISt13_Rb_tree_nodeI5pointEE7destroyIS2_EEvPT_(%"class.__gnu_cxx::new_allocator.5"* %3, %struct.point* %1)
  ret void
}

; Function Attrs: noinline nounwind uwtable
define linkonce_odr dereferenceable(1) %"class.std::allocator.4"* @_ZNSt8_Rb_treeI5pointS0_St9_IdentityIS0_ESt4lessIS0_ESaIS0_EE21_M_get_Node_allocatorEv(%"class.std::_Rb_tree.3"* %0) #0 comdat align 2 {
  %2 = getelementptr inbounds %"class.std::_Rb_tree.3", %"class.std::_Rb_tree.3"* %0, i32 0, i32 0
  %3 = bitcast %"struct.std::_Rb_tree<point, point, std::_Identity<point>, std::less<point>, std::allocator<point> >::_Rb_tree_impl"* %2 to %"class.std::allocator.4"*
  ret %"class.std::allocator.4"* %3
}

; Function Attrs: noinline nounwind uwtable
define linkonce_odr %struct.point* @_ZNSt13_Rb_tree_nodeI5pointE9_M_valptrEv(%"struct.std::_Rb_tree_node.10"* %0) #0 comdat align 2 {
  %2 = getelementptr inbounds %"struct.std::_Rb_tree_node.10", %"struct.std::_Rb_tree_node.10"* %0, i32 0, i32 1
  %3 = call %struct.point* @_ZN9__gnu_cxx16__aligned_membufI5pointE6_M_ptrEv(%"struct.__gnu_cxx::__aligned_membuf.11"* %2) #3
  ret %struct.point* %3
}

; Function Attrs: noinline nounwind uwtable
define linkonce_odr void @_ZN9__gnu_cxx13new_allocatorISt13_Rb_tree_nodeI5pointEE7destroyIS2_EEvPT_(%"class.__gnu_cxx::new_allocator.5"* %0, %struct.point* %1) #0 comdat align 2 {
  ret void
}

; Function Attrs: noinline nounwind uwtable
define linkonce_odr %struct.point* @_ZN9__gnu_cxx16__aligned_membufI5pointE6_M_ptrEv(%"struct.__gnu_cxx::__aligned_membuf.11"* %0) #0 comdat align 2 {
  %2 = call i8* @_ZN9__gnu_cxx16__aligned_membufI5pointE7_M_addrEv(%"struct.__gnu_cxx::__aligned_membuf.11"* %0) #3
  %3 = bitcast i8* %2 to %struct.point*
  ret %struct.point* %3
}

; Function Attrs: noinline nounwind uwtable
define linkonce_odr i8* @_ZN9__gnu_cxx16__aligned_membufI5pointE7_M_addrEv(%"struct.__gnu_cxx::__aligned_membuf.11"* %0) #0 comdat align 2 {
  %2 = getelementptr inbounds %"struct.__gnu_cxx::__aligned_membuf.11", %"struct.__gnu_cxx::__aligned_membuf.11"* %0, i32 0, i32 0
  %3 = bitcast [12 x i8]* %2 to i8*
  ret i8* %3
}

; Function Attrs: noinline uwtable
define linkonce_odr void @_ZNSt16allocator_traitsISaISt13_Rb_tree_nodeI5pointEEE10deallocateERS3_PS2_m(%"class.std::allocator.4"* dereferenceable(1) %0, %"struct.std::_Rb_tree_node.10"* %1, i64 %2) #2 comdat align 2 {
  %4 = bitcast %"class.std::allocator.4"* %0 to %"class.__gnu_cxx::new_allocator.5"*
  call void @_ZN9__gnu_cxx13new_allocatorISt13_Rb_tree_nodeI5pointEE10deallocateEPS3_m(%"class.__gnu_cxx::new_allocator.5"* %4, %"struct.std::_Rb_tree_node.10"* %1, i64 %2)
  ret void
}

; Function Attrs: noinline nounwind uwtable
define linkonce_odr void @_ZN9__gnu_cxx13new_allocatorISt13_Rb_tree_nodeI5pointEE10deallocateEPS3_m(%"class.__gnu_cxx::new_allocator.5"* %0, %"struct.std::_Rb_tree_node.10"* %1, i64 %2) #0 comdat align 2 {
  %4 = bitcast %"struct.std::_Rb_tree_node.10"* %1 to i8*
  call void @_ZdlPv(i8* %4) #3
  ret void
}

; Function Attrs: noinline nounwind uwtable
define linkonce_odr void @_ZNSaISt13_Rb_tree_nodeI5pointEED2Ev(%"class.std::allocator.4"* %0) unnamed_addr #0 comdat align 2 {
  %2 = bitcast %"class.std::allocator.4"* %0 to %"class.__gnu_cxx::new_allocator.5"*
  call void @_ZN9__gnu_cxx13new_allocatorISt13_Rb_tree_nodeI5pointEED2Ev(%"class.__gnu_cxx::new_allocator.5"* %2) #3
  ret void
}

; Function Attrs: noinline nounwind uwtable
define linkonce_odr void @_ZN9__gnu_cxx13new_allocatorISt13_Rb_tree_nodeI5pointEED2Ev(%"class.__gnu_cxx::new_allocator.5"* %0) unnamed_addr #0 comdat align 2 {
  ret void
}

; Function Attrs: noinline uwtable
define linkonce_odr void @_ZNSt12_Vector_baseI5pointSaIS0_EEC2Ev(%"struct.std::_Vector_base"* %0) unnamed_addr #2 comdat align 2 {
  %2 = getelementptr inbounds %"struct.std::_Vector_base", %"struct.std::_Vector_base"* %0, i32 0, i32 0
  call void @_ZNSt12_Vector_baseI5pointSaIS0_EE12_Vector_implC2Ev(%"struct.std::_Vector_base<point, std::allocator<point> >::_Vector_impl"* %2)
  ret void
}

; Function Attrs: noinline nounwind uwtable
define linkonce_odr void @_ZNSt12_Vector_baseI5pointSaIS0_EE12_Vector_implC2Ev(%"struct.std::_Vector_base<point, std::allocator<point> >::_Vector_impl"* %0) unnamed_addr #0 comdat align 2 {
  %2 = bitcast %"struct.std::_Vector_base<point, std::allocator<point> >::_Vector_impl"* %0 to %"class.std::allocator"*
  call void @_ZNSaI5pointEC2Ev(%"class.std::allocator"* %2) #3
  %3 = getelementptr inbounds %"struct.std::_Vector_base<point, std::allocator<point> >::_Vector_impl", %"struct.std::_Vector_base<point, std::allocator<point> >::_Vector_impl"* %0, i32 0, i32 0
  store %struct.point* null, %struct.point** %3, align 8
  %4 = getelementptr inbounds %"struct.std::_Vector_base<point, std::allocator<point> >::_Vector_impl", %"struct.std::_Vector_base<point, std::allocator<point> >::_Vector_impl"* %0, i32 0, i32 1
  store %struct.point* null, %struct.point** %4, align 8
  %5 = getelementptr inbounds %"struct.std::_Vector_base<point, std::allocator<point> >::_Vector_impl", %"struct.std::_Vector_base<point, std::allocator<point> >::_Vector_impl"* %0, i32 0, i32 2
  store %struct.point* null, %struct.point** %5, align 8
  ret void
}

; Function Attrs: noinline nounwind uwtable
define linkonce_odr void @_ZNSaI5pointEC2Ev(%"class.std::allocator"* %0) unnamed_addr #0 comdat align 2 {
  %2 = bitcast %"class.std::allocator"* %0 to %"class.__gnu_cxx::new_allocator"*
  call void @_ZN9__gnu_cxx13new_allocatorI5pointEC2Ev(%"class.__gnu_cxx::new_allocator"* %2) #3
  ret void
}

; Function Attrs: noinline nounwind uwtable
define linkonce_odr void @_ZN9__gnu_cxx13new_allocatorI5pointEC2Ev(%"class.__gnu_cxx::new_allocator"* %0) unnamed_addr #0 comdat align 2 {
  ret void
}

; Function Attrs: noinline uwtable
define linkonce_odr void @_ZSt8_DestroyIP5pointS0_EvT_S2_RSaIT0_E(%struct.point* %0, %struct.point* %1, %"class.std::allocator"* dereferenceable(1) %2) #2 comdat {
  call void @_ZSt8_DestroyIP5pointEvT_S2_(%struct.point* %0, %struct.point* %1)
  ret void
}

; Function Attrs: noinline nounwind uwtable
define linkonce_odr dereferenceable(1) %"class.std::allocator"* @_ZNSt12_Vector_baseI5pointSaIS0_EE19_M_get_Tp_allocatorEv(%"struct.std::_Vector_base"* %0) #0 comdat align 2 {
  %2 = getelementptr inbounds %"struct.std::_Vector_base", %"struct.std::_Vector_base"* %0, i32 0, i32 0
  %3 = bitcast %"struct.std::_Vector_base<point, std::allocator<point> >::_Vector_impl"* %2 to %"class.std::allocator"*
  ret %"class.std::allocator"* %3
}

; Function Attrs: noinline nounwind uwtable
define linkonce_odr void @_ZNSt12_Vector_baseI5pointSaIS0_EED2Ev(%"struct.std::_Vector_base"* %0) unnamed_addr #0 comdat align 2 personality i8* bitcast (i32 (...)* @__gxx_personality_v0 to i8*) {
  %2 = getelementptr inbounds %"struct.std::_Vector_base", %"struct.std::_Vector_base"* %0, i32 0, i32 0
  %3 = getelementptr inbounds %"struct.std::_Vector_base<point, std::allocator<point> >::_Vector_impl", %"struct.std::_Vector_base<point, std::allocator<point> >::_Vector_impl"* %2, i32 0, i32 0
  %4 = load %struct.point*, %struct.point** %3, align 8
  %5 = getelementptr inbounds %"struct.std::_Vector_base", %"struct.std::_Vector_base"* %0, i32 0, i32 0
  %6 = getelementptr inbounds %"struct.std::_Vector_base<point, std::allocator<point> >::_Vector_impl", %"struct.std::_Vector_base<point, std::allocator<point> >::_Vector_impl"* %5, i32 0, i32 2
  %7 = load %struct.point*, %struct.point** %6, align 8
  %8 = getelementptr inbounds %"struct.std::_Vector_base", %"struct.std::_Vector_base"* %0, i32 0, i32 0
  %9 = getelementptr inbounds %"struct.std::_Vector_base<point, std::allocator<point> >::_Vector_impl", %"struct.std::_Vector_base<point, std::allocator<point> >::_Vector_impl"* %8, i32 0, i32 0
  %10 = load %struct.point*, %struct.point** %9, align 8
  %11 = ptrtoint %struct.point* %7 to i64
  %12 = ptrtoint %struct.point* %10 to i64
  %13 = sub i64 %11, %12
  %14 = sdiv exact i64 %13, 12
  invoke void @_ZNSt12_Vector_baseI5pointSaIS0_EE13_M_deallocateEPS0_m(%"struct.std::_Vector_base"* %0, %struct.point* %4, i64 %14)
          to label %15 unwind label %17

15:                                               ; preds = %1
  %16 = getelementptr inbounds %"struct.std::_Vector_base", %"struct.std::_Vector_base"* %0, i32 0, i32 0
  call void @_ZNSt12_Vector_baseI5pointSaIS0_EE12_Vector_implD2Ev(%"struct.std::_Vector_base<point, std::allocator<point> >::_Vector_impl"* %16) #3
  ret void

17:                                               ; preds = %1
  %18 = landingpad { i8*, i32 }
          catch i8* null
  %19 = extractvalue { i8*, i32 } %18, 0
  %20 = extractvalue { i8*, i32 } %18, 1
  %21 = getelementptr inbounds %"struct.std::_Vector_base", %"struct.std::_Vector_base"* %0, i32 0, i32 0
  call void @_ZNSt12_Vector_baseI5pointSaIS0_EE12_Vector_implD2Ev(%"struct.std::_Vector_base<point, std::allocator<point> >::_Vector_impl"* %21) #3
  br label %22

22:                                               ; preds = %17
  call void @__clang_call_terminate(i8* %19) #15
  unreachable
}

; Function Attrs: noinline uwtable
define linkonce_odr void @_ZSt8_DestroyIP5pointEvT_S2_(%struct.point* %0, %struct.point* %1) #2 comdat {
  call void @_ZNSt12_Destroy_auxILb1EE9__destroyIP5pointEEvT_S4_(%struct.point* %0, %struct.point* %1)
  ret void
}

; Function Attrs: noinline nounwind uwtable
define linkonce_odr void @_ZNSt12_Destroy_auxILb1EE9__destroyIP5pointEEvT_S4_(%struct.point* %0, %struct.point* %1) #0 comdat align 2 {
  ret void
}

; Function Attrs: noinline uwtable
define linkonce_odr void @_ZNSt12_Vector_baseI5pointSaIS0_EE13_M_deallocateEPS0_m(%"struct.std::_Vector_base"* %0, %struct.point* %1, i64 %2) #2 comdat align 2 {
  %4 = icmp ne %struct.point* %1, null
  br i1 %4, label %5, label %8

5:                                                ; preds = %3
  %6 = getelementptr inbounds %"struct.std::_Vector_base", %"struct.std::_Vector_base"* %0, i32 0, i32 0
  %7 = bitcast %"struct.std::_Vector_base<point, std::allocator<point> >::_Vector_impl"* %6 to %"class.std::allocator"*
  call void @_ZNSt16allocator_traitsISaI5pointEE10deallocateERS1_PS0_m(%"class.std::allocator"* dereferenceable(1) %7, %struct.point* %1, i64 %2)
  br label %8

8:                                                ; preds = %5, %3
  ret void
}

; Function Attrs: noinline nounwind uwtable
define linkonce_odr void @_ZNSt12_Vector_baseI5pointSaIS0_EE12_Vector_implD2Ev(%"struct.std::_Vector_base<point, std::allocator<point> >::_Vector_impl"* %0) unnamed_addr #0 comdat align 2 {
  %2 = bitcast %"struct.std::_Vector_base<point, std::allocator<point> >::_Vector_impl"* %0 to %"class.std::allocator"*
  call void @_ZNSaI5pointED2Ev(%"class.std::allocator"* %2) #3
  ret void
}

; Function Attrs: noinline uwtable
define linkonce_odr void @_ZNSt16allocator_traitsISaI5pointEE10deallocateERS1_PS0_m(%"class.std::allocator"* dereferenceable(1) %0, %struct.point* %1, i64 %2) #2 comdat align 2 {
  %4 = bitcast %"class.std::allocator"* %0 to %"class.__gnu_cxx::new_allocator"*
  call void @_ZN9__gnu_cxx13new_allocatorI5pointE10deallocateEPS1_m(%"class.__gnu_cxx::new_allocator"* %4, %struct.point* %1, i64 %2)
  ret void
}

; Function Attrs: noinline nounwind uwtable
define linkonce_odr void @_ZN9__gnu_cxx13new_allocatorI5pointE10deallocateEPS1_m(%"class.__gnu_cxx::new_allocator"* %0, %struct.point* %1, i64 %2) #0 comdat align 2 {
  %4 = bitcast %struct.point* %1 to i8*
  call void @_ZdlPv(i8* %4) #3
  ret void
}

; Function Attrs: noinline nounwind uwtable
define linkonce_odr void @_ZNSaI5pointED2Ev(%"class.std::allocator"* %0) unnamed_addr #0 comdat align 2 {
  %2 = bitcast %"class.std::allocator"* %0 to %"class.__gnu_cxx::new_allocator"*
  call void @_ZN9__gnu_cxx13new_allocatorI5pointED2Ev(%"class.__gnu_cxx::new_allocator"* %2) #3
  ret void
}

; Function Attrs: noinline nounwind uwtable
define linkonce_odr void @_ZN9__gnu_cxx13new_allocatorI5pointED2Ev(%"class.__gnu_cxx::new_allocator"* %0) unnamed_addr #0 comdat align 2 {
  ret void
}

; Function Attrs: noinline uwtable
define linkonce_odr void @_ZNSt16allocator_traitsISaI5pointEE9constructIS0_JRKS0_EEEvRS1_PT_DpOT0_(%"class.std::allocator"* dereferenceable(1) %0, %struct.point* %1, %struct.point* dereferenceable(12) %2) #2 comdat align 2 {
  %4 = bitcast %"class.std::allocator"* %0 to %"class.__gnu_cxx::new_allocator"*
  %5 = call dereferenceable(12) %struct.point* @_ZSt7forwardIRK5pointEOT_RNSt16remove_referenceIS3_E4typeE(%struct.point* dereferenceable(12) %2) #3
  call void @_ZN9__gnu_cxx13new_allocatorI5pointE9constructIS1_JRKS1_EEEvPT_DpOT0_(%"class.__gnu_cxx::new_allocator"* %4, %struct.point* %1, %struct.point* dereferenceable(12) %5)
  ret void
}

; Function Attrs: noinline uwtable
define linkonce_odr void @_ZNSt6vectorI5pointSaIS0_EE17_M_realloc_insertIJRKS0_EEEvN9__gnu_cxx17__normal_iteratorIPS0_S2_EEDpOT_(%"class.std::vector"* %0, %struct.point* %1, %struct.point* dereferenceable(12) %2) #2 comdat align 2 personality i8* bitcast (i32 (...)* @__gxx_personality_v0 to i8*) {
  %4 = alloca %"class.__gnu_cxx::__normal_iterator", align 8
  %5 = alloca %"class.__gnu_cxx::__normal_iterator", align 8
  %6 = getelementptr inbounds %"class.__gnu_cxx::__normal_iterator", %"class.__gnu_cxx::__normal_iterator"* %4, i32 0, i32 0
  store %struct.point* %1, %struct.point** %6, align 8
  %7 = call i64 @_ZNKSt6vectorI5pointSaIS0_EE12_M_check_lenEmPKc(%"class.std::vector"* %0, i64 1, i8* getelementptr inbounds ([26 x i8], [26 x i8]* @.str.7, i32 0, i32 0))
  %8 = bitcast %"class.std::vector"* %0 to %"struct.std::_Vector_base"*
  %9 = getelementptr inbounds %"struct.std::_Vector_base", %"struct.std::_Vector_base"* %8, i32 0, i32 0
  %10 = getelementptr inbounds %"struct.std::_Vector_base<point, std::allocator<point> >::_Vector_impl", %"struct.std::_Vector_base<point, std::allocator<point> >::_Vector_impl"* %9, i32 0, i32 0
  %11 = load %struct.point*, %struct.point** %10, align 8
  %12 = bitcast %"class.std::vector"* %0 to %"struct.std::_Vector_base"*
  %13 = getelementptr inbounds %"struct.std::_Vector_base", %"struct.std::_Vector_base"* %12, i32 0, i32 0
  %14 = getelementptr inbounds %"struct.std::_Vector_base<point, std::allocator<point> >::_Vector_impl", %"struct.std::_Vector_base<point, std::allocator<point> >::_Vector_impl"* %13, i32 0, i32 1
  %15 = load %struct.point*, %struct.point** %14, align 8
  %16 = call %struct.point* @_ZNSt6vectorI5pointSaIS0_EE5beginEv(%"class.std::vector"* %0) #3
  %17 = getelementptr inbounds %"class.__gnu_cxx::__normal_iterator", %"class.__gnu_cxx::__normal_iterator"* %5, i32 0, i32 0
  store %struct.point* %16, %struct.point** %17, align 8
  %18 = call i64 @_ZN9__gnu_cxxmiIP5pointSt6vectorIS1_SaIS1_EEEENS_17__normal_iteratorIT_T0_E15difference_typeERKS9_SC_(%"class.__gnu_cxx::__normal_iterator"* dereferenceable(8) %4, %"class.__gnu_cxx::__normal_iterator"* dereferenceable(8) %5) #3
  %19 = bitcast %"class.std::vector"* %0 to %"struct.std::_Vector_base"*
  %20 = call %struct.point* @_ZNSt12_Vector_baseI5pointSaIS0_EE11_M_allocateEm(%"struct.std::_Vector_base"* %19, i64 %7)
  %21 = bitcast %"class.std::vector"* %0 to %"struct.std::_Vector_base"*
  %22 = getelementptr inbounds %"struct.std::_Vector_base", %"struct.std::_Vector_base"* %21, i32 0, i32 0
  %23 = bitcast %"struct.std::_Vector_base<point, std::allocator<point> >::_Vector_impl"* %22 to %"class.std::allocator"*
  %24 = getelementptr inbounds %struct.point, %struct.point* %20, i64 %18
  %25 = call dereferenceable(12) %struct.point* @_ZSt7forwardIRK5pointEOT_RNSt16remove_referenceIS3_E4typeE(%struct.point* dereferenceable(12) %2) #3
  invoke void @_ZNSt16allocator_traitsISaI5pointEE9constructIS0_JRKS0_EEEvRS1_PT_DpOT0_(%"class.std::allocator"* dereferenceable(1) %23, %struct.point* %24, %struct.point* dereferenceable(12) %25)
          to label %26 unwind label %40

26:                                               ; preds = %3
  %27 = call dereferenceable(8) %struct.point** @_ZNK9__gnu_cxx17__normal_iteratorIP5pointSt6vectorIS1_SaIS1_EEE4baseEv(%"class.__gnu_cxx::__normal_iterator"* %4) #3
  %28 = load %struct.point*, %struct.point** %27, align 8
  %29 = bitcast %"class.std::vector"* %0 to %"struct.std::_Vector_base"*
  %30 = call dereferenceable(1) %"class.std::allocator"* @_ZNSt12_Vector_baseI5pointSaIS0_EE19_M_get_Tp_allocatorEv(%"struct.std::_Vector_base"* %29) #3
  %31 = invoke %struct.point* @_ZSt34__uninitialized_move_if_noexcept_aIP5pointS1_SaIS0_EET0_T_S4_S3_RT1_(%struct.point* %11, %struct.point* %28, %struct.point* %20, %"class.std::allocator"* dereferenceable(1) %30)
          to label %32 unwind label %40

32:                                               ; preds = %26
  %33 = getelementptr inbounds %struct.point, %struct.point* %31, i32 1
  %34 = call dereferenceable(8) %struct.point** @_ZNK9__gnu_cxx17__normal_iteratorIP5pointSt6vectorIS1_SaIS1_EEE4baseEv(%"class.__gnu_cxx::__normal_iterator"* %4) #3
  %35 = load %struct.point*, %struct.point** %34, align 8
  %36 = bitcast %"class.std::vector"* %0 to %"struct.std::_Vector_base"*
  %37 = call dereferenceable(1) %"class.std::allocator"* @_ZNSt12_Vector_baseI5pointSaIS0_EE19_M_get_Tp_allocatorEv(%"struct.std::_Vector_base"* %36) #3
  %38 = invoke %struct.point* @_ZSt34__uninitialized_move_if_noexcept_aIP5pointS1_SaIS0_EET0_T_S4_S3_RT1_(%struct.point* %35, %struct.point* %15, %struct.point* %33, %"class.std::allocator"* dereferenceable(1) %37)
          to label %39 unwind label %40

39:                                               ; preds = %32
  br label %65

40:                                               ; preds = %32, %26, %3
  %.0 = phi %struct.point* [ %33, %32 ], [ null, %26 ], [ %20, %3 ]
  %41 = landingpad { i8*, i32 }
          catch i8* null
  %42 = extractvalue { i8*, i32 } %41, 0
  %43 = extractvalue { i8*, i32 } %41, 1
  br label %44

44:                                               ; preds = %40
  %45 = call i8* @__cxa_begin_catch(i8* %42) #3
  %46 = icmp ne %struct.point* %.0, null
  br i1 %46, label %57, label %47

47:                                               ; preds = %44
  %48 = bitcast %"class.std::vector"* %0 to %"struct.std::_Vector_base"*
  %49 = getelementptr inbounds %"struct.std::_Vector_base", %"struct.std::_Vector_base"* %48, i32 0, i32 0
  %50 = bitcast %"struct.std::_Vector_base<point, std::allocator<point> >::_Vector_impl"* %49 to %"class.std::allocator"*
  %51 = getelementptr inbounds %struct.point, %struct.point* %20, i64 %18
  invoke void @_ZNSt16allocator_traitsISaI5pointEE7destroyIS0_EEvRS1_PT_(%"class.std::allocator"* dereferenceable(1) %50, %struct.point* %51)
          to label %52 unwind label %53

52:                                               ; preds = %47
  br label %61

53:                                               ; preds = %63, %61, %57, %47
  %54 = landingpad { i8*, i32 }
          cleanup
  %55 = extractvalue { i8*, i32 } %54, 0
  %56 = extractvalue { i8*, i32 } %54, 1
  invoke void @__cxa_end_catch()
          to label %64 unwind label %90

57:                                               ; preds = %44
  %58 = bitcast %"class.std::vector"* %0 to %"struct.std::_Vector_base"*
  %59 = call dereferenceable(1) %"class.std::allocator"* @_ZNSt12_Vector_baseI5pointSaIS0_EE19_M_get_Tp_allocatorEv(%"struct.std::_Vector_base"* %58) #3
  invoke void @_ZSt8_DestroyIP5pointS0_EvT_S2_RSaIT0_E(%struct.point* %20, %struct.point* %.0, %"class.std::allocator"* dereferenceable(1) %59)
          to label %60 unwind label %53

60:                                               ; preds = %57
  br label %61

61:                                               ; preds = %60, %52
  %62 = bitcast %"class.std::vector"* %0 to %"struct.std::_Vector_base"*
  invoke void @_ZNSt12_Vector_baseI5pointSaIS0_EE13_M_deallocateEPS0_m(%"struct.std::_Vector_base"* %62, %struct.point* %20, i64 %7)
          to label %63 unwind label %53

63:                                               ; preds = %61
  invoke void @__cxa_rethrow() #18
          to label %93 unwind label %53

64:                                               ; preds = %53
  br label %87

65:                                               ; preds = %39
  %66 = bitcast %"class.std::vector"* %0 to %"struct.std::_Vector_base"*
  %67 = call dereferenceable(1) %"class.std::allocator"* @_ZNSt12_Vector_baseI5pointSaIS0_EE19_M_get_Tp_allocatorEv(%"struct.std::_Vector_base"* %66) #3
  call void @_ZSt8_DestroyIP5pointS0_EvT_S2_RSaIT0_E(%struct.point* %11, %struct.point* %15, %"class.std::allocator"* dereferenceable(1) %67)
  %68 = bitcast %"class.std::vector"* %0 to %"struct.std::_Vector_base"*
  %69 = bitcast %"class.std::vector"* %0 to %"struct.std::_Vector_base"*
  %70 = getelementptr inbounds %"struct.std::_Vector_base", %"struct.std::_Vector_base"* %69, i32 0, i32 0
  %71 = getelementptr inbounds %"struct.std::_Vector_base<point, std::allocator<point> >::_Vector_impl", %"struct.std::_Vector_base<point, std::allocator<point> >::_Vector_impl"* %70, i32 0, i32 2
  %72 = load %struct.point*, %struct.point** %71, align 8
  %73 = ptrtoint %struct.point* %72 to i64
  %74 = ptrtoint %struct.point* %11 to i64
  %75 = sub i64 %73, %74
  %76 = sdiv exact i64 %75, 12
  call void @_ZNSt12_Vector_baseI5pointSaIS0_EE13_M_deallocateEPS0_m(%"struct.std::_Vector_base"* %68, %struct.point* %11, i64 %76)
  %77 = bitcast %"class.std::vector"* %0 to %"struct.std::_Vector_base"*
  %78 = getelementptr inbounds %"struct.std::_Vector_base", %"struct.std::_Vector_base"* %77, i32 0, i32 0
  %79 = getelementptr inbounds %"struct.std::_Vector_base<point, std::allocator<point> >::_Vector_impl", %"struct.std::_Vector_base<point, std::allocator<point> >::_Vector_impl"* %78, i32 0, i32 0
  store %struct.point* %20, %struct.point** %79, align 8
  %80 = bitcast %"class.std::vector"* %0 to %"struct.std::_Vector_base"*
  %81 = getelementptr inbounds %"struct.std::_Vector_base", %"struct.std::_Vector_base"* %80, i32 0, i32 0
  %82 = getelementptr inbounds %"struct.std::_Vector_base<point, std::allocator<point> >::_Vector_impl", %"struct.std::_Vector_base<point, std::allocator<point> >::_Vector_impl"* %81, i32 0, i32 1
  store %struct.point* %38, %struct.point** %82, align 8
  %83 = getelementptr inbounds %struct.point, %struct.point* %20, i64 %7
  %84 = bitcast %"class.std::vector"* %0 to %"struct.std::_Vector_base"*
  %85 = getelementptr inbounds %"struct.std::_Vector_base", %"struct.std::_Vector_base"* %84, i32 0, i32 0
  %86 = getelementptr inbounds %"struct.std::_Vector_base<point, std::allocator<point> >::_Vector_impl", %"struct.std::_Vector_base<point, std::allocator<point> >::_Vector_impl"* %85, i32 0, i32 2
  store %struct.point* %83, %struct.point** %86, align 8
  ret void

87:                                               ; preds = %64
  %88 = insertvalue { i8*, i32 } undef, i8* %55, 0
  %89 = insertvalue { i8*, i32 } %88, i32 %56, 1
  resume { i8*, i32 } %89

90:                                               ; preds = %53
  %91 = landingpad { i8*, i32 }
          catch i8* null
  %92 = extractvalue { i8*, i32 } %91, 0
  call void @__clang_call_terminate(i8* %92) #15
  unreachable

93:                                               ; preds = %63
  unreachable
}

; Function Attrs: noinline nounwind uwtable
define linkonce_odr void @_ZN9__gnu_cxx13new_allocatorI5pointE9constructIS1_JRKS1_EEEvPT_DpOT0_(%"class.__gnu_cxx::new_allocator"* %0, %struct.point* %1, %struct.point* dereferenceable(12) %2) #0 comdat align 2 {
  %4 = bitcast %struct.point* %1 to i8*
  %5 = bitcast i8* %4 to %struct.point*
  %6 = call dereferenceable(12) %struct.point* @_ZSt7forwardIRK5pointEOT_RNSt16remove_referenceIS3_E4typeE(%struct.point* dereferenceable(12) %2) #3
  %7 = bitcast %struct.point* %5 to i8*
  %8 = bitcast %struct.point* %6 to i8*
  call void @llvm.memcpy.p0i8.p0i8.i64(i8* align 4 %7, i8* align 4 %8, i64 12, i1 false)
  ret void
}

; Function Attrs: noinline nounwind uwtable
define linkonce_odr dereferenceable(12) %struct.point* @_ZSt7forwardIRK5pointEOT_RNSt16remove_referenceIS3_E4typeE(%struct.point* dereferenceable(12) %0) #0 comdat {
  ret %struct.point* %0
}

; Function Attrs: noinline uwtable
define linkonce_odr i64 @_ZNKSt6vectorI5pointSaIS0_EE12_M_check_lenEmPKc(%"class.std::vector"* %0, i64 %1, i8* %2) #2 comdat align 2 {
  %4 = alloca i64, align 8
  %5 = alloca i64, align 8
  store i64 %1, i64* %4, align 8
  %6 = call i64 @_ZNKSt6vectorI5pointSaIS0_EE8max_sizeEv(%"class.std::vector"* %0) #3
  %7 = call i64 @_ZNKSt6vectorI5pointSaIS0_EE4sizeEv(%"class.std::vector"* %0) #3
  %8 = sub i64 %6, %7
  %9 = load i64, i64* %4, align 8
  %10 = icmp ult i64 %8, %9
  br i1 %10, label %11, label %12

11:                                               ; preds = %3
  call void @_ZSt20__throw_length_errorPKc(i8* %2) #18
  unreachable

12:                                               ; preds = %3
  %13 = call i64 @_ZNKSt6vectorI5pointSaIS0_EE4sizeEv(%"class.std::vector"* %0) #3
  %14 = call i64 @_ZNKSt6vectorI5pointSaIS0_EE4sizeEv(%"class.std::vector"* %0) #3
  store i64 %14, i64* %5, align 8
  %15 = call dereferenceable(8) i64* @_ZSt3maxImERKT_S2_S2_(i64* dereferenceable(8) %5, i64* dereferenceable(8) %4)
  %16 = load i64, i64* %15, align 8
  %17 = add i64 %13, %16
  %18 = call i64 @_ZNKSt6vectorI5pointSaIS0_EE4sizeEv(%"class.std::vector"* %0) #3
  %19 = icmp ult i64 %17, %18
  br i1 %19, label %23, label %20

20:                                               ; preds = %12
  %21 = call i64 @_ZNKSt6vectorI5pointSaIS0_EE8max_sizeEv(%"class.std::vector"* %0) #3
  %22 = icmp ugt i64 %17, %21
  br i1 %22, label %23, label %25

23:                                               ; preds = %20, %12
  %24 = call i64 @_ZNKSt6vectorI5pointSaIS0_EE8max_sizeEv(%"class.std::vector"* %0) #3
  br label %26

25:                                               ; preds = %20
  br label %26

26:                                               ; preds = %25, %23
  %27 = phi i64 [ %24, %23 ], [ %17, %25 ]
  ret i64 %27
}

; Function Attrs: noinline nounwind uwtable
define linkonce_odr i64 @_ZN9__gnu_cxxmiIP5pointSt6vectorIS1_SaIS1_EEEENS_17__normal_iteratorIT_T0_E15difference_typeERKS9_SC_(%"class.__gnu_cxx::__normal_iterator"* dereferenceable(8) %0, %"class.__gnu_cxx::__normal_iterator"* dereferenceable(8) %1) #0 comdat {
  %3 = call dereferenceable(8) %struct.point** @_ZNK9__gnu_cxx17__normal_iteratorIP5pointSt6vectorIS1_SaIS1_EEE4baseEv(%"class.__gnu_cxx::__normal_iterator"* %0) #3
  %4 = load %struct.point*, %struct.point** %3, align 8
  %5 = call dereferenceable(8) %struct.point** @_ZNK9__gnu_cxx17__normal_iteratorIP5pointSt6vectorIS1_SaIS1_EEE4baseEv(%"class.__gnu_cxx::__normal_iterator"* %1) #3
  %6 = load %struct.point*, %struct.point** %5, align 8
  %7 = ptrtoint %struct.point* %4 to i64
  %8 = ptrtoint %struct.point* %6 to i64
  %9 = sub i64 %7, %8
  %10 = sdiv exact i64 %9, 12
  ret i64 %10
}

; Function Attrs: noinline uwtable
define linkonce_odr %struct.point* @_ZNSt12_Vector_baseI5pointSaIS0_EE11_M_allocateEm(%"struct.std::_Vector_base"* %0, i64 %1) #2 comdat align 2 {
  %3 = icmp ne i64 %1, 0
  br i1 %3, label %4, label %8

4:                                                ; preds = %2
  %5 = getelementptr inbounds %"struct.std::_Vector_base", %"struct.std::_Vector_base"* %0, i32 0, i32 0
  %6 = bitcast %"struct.std::_Vector_base<point, std::allocator<point> >::_Vector_impl"* %5 to %"class.std::allocator"*
  %7 = call %struct.point* @_ZNSt16allocator_traitsISaI5pointEE8allocateERS1_m(%"class.std::allocator"* dereferenceable(1) %6, i64 %1)
  br label %9

8:                                                ; preds = %2
  br label %9

9:                                                ; preds = %8, %4
  %10 = phi %struct.point* [ %7, %4 ], [ null, %8 ]
  ret %struct.point* %10
}

; Function Attrs: noinline uwtable
define linkonce_odr %struct.point* @_ZSt34__uninitialized_move_if_noexcept_aIP5pointS1_SaIS0_EET0_T_S4_S3_RT1_(%struct.point* %0, %struct.point* %1, %struct.point* %2, %"class.std::allocator"* dereferenceable(1) %3) #2 comdat {
  %5 = alloca %"class.std::move_iterator", align 8
  %6 = alloca %"class.std::move_iterator", align 8
  %7 = call %struct.point* @_ZSt32__make_move_if_noexcept_iteratorI5pointSt13move_iteratorIPS0_EET0_PT_(%struct.point* %0)
  %8 = getelementptr inbounds %"class.std::move_iterator", %"class.std::move_iterator"* %5, i32 0, i32 0
  store %struct.point* %7, %struct.point** %8, align 8
  %9 = call %struct.point* @_ZSt32__make_move_if_noexcept_iteratorI5pointSt13move_iteratorIPS0_EET0_PT_(%struct.point* %1)
  %10 = getelementptr inbounds %"class.std::move_iterator", %"class.std::move_iterator"* %6, i32 0, i32 0
  store %struct.point* %9, %struct.point** %10, align 8
  %11 = getelementptr inbounds %"class.std::move_iterator", %"class.std::move_iterator"* %5, i32 0, i32 0
  %12 = load %struct.point*, %struct.point** %11, align 8
  %13 = getelementptr inbounds %"class.std::move_iterator", %"class.std::move_iterator"* %6, i32 0, i32 0
  %14 = load %struct.point*, %struct.point** %13, align 8
  %15 = call %struct.point* @_ZSt22__uninitialized_copy_aISt13move_iteratorIP5pointES2_S1_ET0_T_S5_S4_RSaIT1_E(%struct.point* %12, %struct.point* %14, %struct.point* %2, %"class.std::allocator"* dereferenceable(1) %3)
  ret %struct.point* %15
}

; Function Attrs: noinline nounwind uwtable
define linkonce_odr dereferenceable(8) %struct.point** @_ZNK9__gnu_cxx17__normal_iteratorIP5pointSt6vectorIS1_SaIS1_EEE4baseEv(%"class.__gnu_cxx::__normal_iterator"* %0) #0 comdat align 2 {
  %2 = getelementptr inbounds %"class.__gnu_cxx::__normal_iterator", %"class.__gnu_cxx::__normal_iterator"* %0, i32 0, i32 0
  ret %struct.point** %2
}

; Function Attrs: noinline uwtable
define linkonce_odr void @_ZNSt16allocator_traitsISaI5pointEE7destroyIS0_EEvRS1_PT_(%"class.std::allocator"* dereferenceable(1) %0, %struct.point* %1) #2 comdat align 2 {
  %3 = bitcast %"class.std::allocator"* %0 to %"class.__gnu_cxx::new_allocator"*
  call void @_ZN9__gnu_cxx13new_allocatorI5pointE7destroyIS1_EEvPT_(%"class.__gnu_cxx::new_allocator"* %3, %struct.point* %1)
  ret void
}

declare void @__cxa_rethrow()

declare void @__cxa_end_catch()

; Function Attrs: noinline nounwind uwtable
define linkonce_odr i64 @_ZNKSt6vectorI5pointSaIS0_EE8max_sizeEv(%"class.std::vector"* %0) #0 comdat align 2 {
  %2 = bitcast %"class.std::vector"* %0 to %"struct.std::_Vector_base"*
  %3 = call dereferenceable(1) %"class.std::allocator"* @_ZNKSt12_Vector_baseI5pointSaIS0_EE19_M_get_Tp_allocatorEv(%"struct.std::_Vector_base"* %2) #3
  %4 = call i64 @_ZNSt16allocator_traitsISaI5pointEE8max_sizeERKS1_(%"class.std::allocator"* dereferenceable(1) %3) #3
  ret i64 %4
}

; Function Attrs: noinline nounwind uwtable
define linkonce_odr i64 @_ZNKSt6vectorI5pointSaIS0_EE4sizeEv(%"class.std::vector"* %0) #0 comdat align 2 {
  %2 = bitcast %"class.std::vector"* %0 to %"struct.std::_Vector_base"*
  %3 = getelementptr inbounds %"struct.std::_Vector_base", %"struct.std::_Vector_base"* %2, i32 0, i32 0
  %4 = getelementptr inbounds %"struct.std::_Vector_base<point, std::allocator<point> >::_Vector_impl", %"struct.std::_Vector_base<point, std::allocator<point> >::_Vector_impl"* %3, i32 0, i32 1
  %5 = load %struct.point*, %struct.point** %4, align 8
  %6 = bitcast %"class.std::vector"* %0 to %"struct.std::_Vector_base"*
  %7 = getelementptr inbounds %"struct.std::_Vector_base", %"struct.std::_Vector_base"* %6, i32 0, i32 0
  %8 = getelementptr inbounds %"struct.std::_Vector_base<point, std::allocator<point> >::_Vector_impl", %"struct.std::_Vector_base<point, std::allocator<point> >::_Vector_impl"* %7, i32 0, i32 0
  %9 = load %struct.point*, %struct.point** %8, align 8
  %10 = ptrtoint %struct.point* %5 to i64
  %11 = ptrtoint %struct.point* %9 to i64
  %12 = sub i64 %10, %11
  %13 = sdiv exact i64 %12, 12
  ret i64 %13
}

; Function Attrs: noreturn
declare void @_ZSt20__throw_length_errorPKc(i8*) #9

; Function Attrs: noinline nounwind uwtable
define linkonce_odr dereferenceable(8) i64* @_ZSt3maxImERKT_S2_S2_(i64* dereferenceable(8) %0, i64* dereferenceable(8) %1) #0 comdat {
  %3 = load i64, i64* %0, align 8
  %4 = load i64, i64* %1, align 8
  %5 = icmp ult i64 %3, %4
  br i1 %5, label %6, label %7

6:                                                ; preds = %2
  br label %8

7:                                                ; preds = %2
  br label %8

8:                                                ; preds = %7, %6
  %.0 = phi i64* [ %1, %6 ], [ %0, %7 ]
  ret i64* %.0
}

; Function Attrs: noinline nounwind uwtable
define linkonce_odr i64 @_ZNSt16allocator_traitsISaI5pointEE8max_sizeERKS1_(%"class.std::allocator"* dereferenceable(1) %0) #0 comdat align 2 {
  %2 = bitcast %"class.std::allocator"* %0 to %"class.__gnu_cxx::new_allocator"*
  %3 = call i64 @_ZNK9__gnu_cxx13new_allocatorI5pointE8max_sizeEv(%"class.__gnu_cxx::new_allocator"* %2) #3
  ret i64 %3
}

; Function Attrs: noinline nounwind uwtable
define linkonce_odr dereferenceable(1) %"class.std::allocator"* @_ZNKSt12_Vector_baseI5pointSaIS0_EE19_M_get_Tp_allocatorEv(%"struct.std::_Vector_base"* %0) #0 comdat align 2 {
  %2 = getelementptr inbounds %"struct.std::_Vector_base", %"struct.std::_Vector_base"* %0, i32 0, i32 0
  %3 = bitcast %"struct.std::_Vector_base<point, std::allocator<point> >::_Vector_impl"* %2 to %"class.std::allocator"*
  ret %"class.std::allocator"* %3
}

; Function Attrs: noinline nounwind uwtable
define linkonce_odr i64 @_ZNK9__gnu_cxx13new_allocatorI5pointE8max_sizeEv(%"class.__gnu_cxx::new_allocator"* %0) #0 comdat align 2 {
  ret i64 1537228672809129301
}

; Function Attrs: noinline uwtable
define linkonce_odr %struct.point* @_ZNSt16allocator_traitsISaI5pointEE8allocateERS1_m(%"class.std::allocator"* dereferenceable(1) %0, i64 %1) #2 comdat align 2 {
  %3 = bitcast %"class.std::allocator"* %0 to %"class.__gnu_cxx::new_allocator"*
  %4 = call %struct.point* @_ZN9__gnu_cxx13new_allocatorI5pointE8allocateEmPKv(%"class.__gnu_cxx::new_allocator"* %3, i64 %1, i8* null)
  ret %struct.point* %4
}

; Function Attrs: noinline uwtable
define linkonce_odr %struct.point* @_ZN9__gnu_cxx13new_allocatorI5pointE8allocateEmPKv(%"class.__gnu_cxx::new_allocator"* %0, i64 %1, i8* %2) #2 comdat align 2 {
  %4 = call i64 @_ZNK9__gnu_cxx13new_allocatorI5pointE8max_sizeEv(%"class.__gnu_cxx::new_allocator"* %0) #3
  %5 = icmp ugt i64 %1, %4
  br i1 %5, label %6, label %7

6:                                                ; preds = %3
  call void @_ZSt17__throw_bad_allocv() #18
  unreachable

7:                                                ; preds = %3
  %8 = mul i64 %1, 12
  %9 = call i8* @_Znwm(i64 %8)
  %10 = bitcast i8* %9 to %struct.point*
  ret %struct.point* %10
}

; Function Attrs: noreturn
declare void @_ZSt17__throw_bad_allocv() #9

; Function Attrs: nobuiltin
declare noalias i8* @_Znwm(i64) #10

; Function Attrs: noinline uwtable
define linkonce_odr %struct.point* @_ZSt22__uninitialized_copy_aISt13move_iteratorIP5pointES2_S1_ET0_T_S5_S4_RSaIT1_E(%struct.point* %0, %struct.point* %1, %struct.point* %2, %"class.std::allocator"* dereferenceable(1) %3) #2 comdat {
  %5 = alloca %"class.std::move_iterator", align 8
  %6 = alloca %"class.std::move_iterator", align 8
  %7 = alloca %"class.std::move_iterator", align 8
  %8 = alloca %"class.std::move_iterator", align 8
  %9 = getelementptr inbounds %"class.std::move_iterator", %"class.std::move_iterator"* %5, i32 0, i32 0
  store %struct.point* %0, %struct.point** %9, align 8
  %10 = getelementptr inbounds %"class.std::move_iterator", %"class.std::move_iterator"* %6, i32 0, i32 0
  store %struct.point* %1, %struct.point** %10, align 8
  %11 = bitcast %"class.std::move_iterator"* %7 to i8*
  %12 = bitcast %"class.std::move_iterator"* %5 to i8*
  call void @llvm.memcpy.p0i8.p0i8.i64(i8* align 8 %11, i8* align 8 %12, i64 8, i1 false)
  %13 = bitcast %"class.std::move_iterator"* %8 to i8*
  %14 = bitcast %"class.std::move_iterator"* %6 to i8*
  call void @llvm.memcpy.p0i8.p0i8.i64(i8* align 8 %13, i8* align 8 %14, i64 8, i1 false)
  %15 = getelementptr inbounds %"class.std::move_iterator", %"class.std::move_iterator"* %7, i32 0, i32 0
  %16 = load %struct.point*, %struct.point** %15, align 8
  %17 = getelementptr inbounds %"class.std::move_iterator", %"class.std::move_iterator"* %8, i32 0, i32 0
  %18 = load %struct.point*, %struct.point** %17, align 8
  %19 = call %struct.point* @_ZSt18uninitialized_copyISt13move_iteratorIP5pointES2_ET0_T_S5_S4_(%struct.point* %16, %struct.point* %18, %struct.point* %2)
  ret %struct.point* %19
}

; Function Attrs: noinline uwtable
define linkonce_odr %struct.point* @_ZSt32__make_move_if_noexcept_iteratorI5pointSt13move_iteratorIPS0_EET0_PT_(%struct.point* %0) #2 comdat {
  %2 = alloca %"class.std::move_iterator", align 8
  call void @_ZNSt13move_iteratorIP5pointEC2ES1_(%"class.std::move_iterator"* %2, %struct.point* %0)
  %3 = getelementptr inbounds %"class.std::move_iterator", %"class.std::move_iterator"* %2, i32 0, i32 0
  %4 = load %struct.point*, %struct.point** %3, align 8
  ret %struct.point* %4
}

; Function Attrs: noinline uwtable
define linkonce_odr %struct.point* @_ZSt18uninitialized_copyISt13move_iteratorIP5pointES2_ET0_T_S5_S4_(%struct.point* %0, %struct.point* %1, %struct.point* %2) #2 comdat {
  %4 = alloca %"class.std::move_iterator", align 8
  %5 = alloca %"class.std::move_iterator", align 8
  %6 = alloca %"class.std::move_iterator", align 8
  %7 = alloca %"class.std::move_iterator", align 8
  %8 = getelementptr inbounds %"class.std::move_iterator", %"class.std::move_iterator"* %4, i32 0, i32 0
  store %struct.point* %0, %struct.point** %8, align 8
  %9 = getelementptr inbounds %"class.std::move_iterator", %"class.std::move_iterator"* %5, i32 0, i32 0
  store %struct.point* %1, %struct.point** %9, align 8
  %10 = bitcast %"class.std::move_iterator"* %6 to i8*
  %11 = bitcast %"class.std::move_iterator"* %4 to i8*
  call void @llvm.memcpy.p0i8.p0i8.i64(i8* align 8 %10, i8* align 8 %11, i64 8, i1 false)
  %12 = bitcast %"class.std::move_iterator"* %7 to i8*
  %13 = bitcast %"class.std::move_iterator"* %5 to i8*
  call void @llvm.memcpy.p0i8.p0i8.i64(i8* align 8 %12, i8* align 8 %13, i64 8, i1 false)
  %14 = getelementptr inbounds %"class.std::move_iterator", %"class.std::move_iterator"* %6, i32 0, i32 0
  %15 = load %struct.point*, %struct.point** %14, align 8
  %16 = getelementptr inbounds %"class.std::move_iterator", %"class.std::move_iterator"* %7, i32 0, i32 0
  %17 = load %struct.point*, %struct.point** %16, align 8
  %18 = call %struct.point* @_ZNSt20__uninitialized_copyILb0EE13__uninit_copyISt13move_iteratorIP5pointES4_EET0_T_S7_S6_(%struct.point* %15, %struct.point* %17, %struct.point* %2)
  ret %struct.point* %18
}

; Function Attrs: noinline uwtable
define linkonce_odr %struct.point* @_ZNSt20__uninitialized_copyILb0EE13__uninit_copyISt13move_iteratorIP5pointES4_EET0_T_S7_S6_(%struct.point* %0, %struct.point* %1, %struct.point* %2) #2 comdat align 2 personality i8* bitcast (i32 (...)* @__gxx_personality_v0 to i8*) {
  %4 = alloca %"class.std::move_iterator", align 8
  %5 = alloca %"class.std::move_iterator", align 8
  %6 = getelementptr inbounds %"class.std::move_iterator", %"class.std::move_iterator"* %4, i32 0, i32 0
  store %struct.point* %0, %struct.point** %6, align 8
  %7 = getelementptr inbounds %"class.std::move_iterator", %"class.std::move_iterator"* %5, i32 0, i32 0
  store %struct.point* %1, %struct.point** %7, align 8
  br label %8

8:                                                ; preds = %18, %3
  %.0 = phi %struct.point* [ %2, %3 ], [ %19, %18 ]
  %9 = invoke zeroext i1 @_ZStneIP5pointEbRKSt13move_iteratorIT_ES6_(%"class.std::move_iterator"* dereferenceable(8) %4, %"class.std::move_iterator"* dereferenceable(8) %5)
          to label %10 unwind label %20

10:                                               ; preds = %8
  br i1 %9, label %11, label %27

11:                                               ; preds = %10
  %12 = call %struct.point* @_ZSt11__addressofI5pointEPT_RS1_(%struct.point* dereferenceable(12) %.0) #3
  %13 = invoke dereferenceable(12) %struct.point* @_ZNKSt13move_iteratorIP5pointEdeEv(%"class.std::move_iterator"* %4)
          to label %14 unwind label %20

14:                                               ; preds = %11
  invoke void @_ZSt10_ConstructI5pointJS0_EEvPT_DpOT0_(%struct.point* %12, %struct.point* dereferenceable(12) %13)
          to label %15 unwind label %20

15:                                               ; preds = %14
  br label %16

16:                                               ; preds = %15
  %17 = invoke dereferenceable(8) %"class.std::move_iterator"* @_ZNSt13move_iteratorIP5pointEppEv(%"class.std::move_iterator"* %4)
          to label %18 unwind label %20

18:                                               ; preds = %16
  %19 = getelementptr inbounds %struct.point, %struct.point* %.0, i32 1
  br label %8

20:                                               ; preds = %16, %14, %11, %8
  %21 = landingpad { i8*, i32 }
          catch i8* null
  %22 = extractvalue { i8*, i32 } %21, 0
  %23 = extractvalue { i8*, i32 } %21, 1
  br label %24

24:                                               ; preds = %20
  %25 = call i8* @__cxa_begin_catch(i8* %22) #3
  invoke void @_ZSt8_DestroyIP5pointEvT_S2_(%struct.point* %2, %struct.point* %.0)
          to label %26 unwind label %28

26:                                               ; preds = %24
  invoke void @__cxa_rethrow() #18
          to label %40 unwind label %28

27:                                               ; preds = %10
  ret %struct.point* %.0

28:                                               ; preds = %26, %24
  %29 = landingpad { i8*, i32 }
          cleanup
  %30 = extractvalue { i8*, i32 } %29, 0
  %31 = extractvalue { i8*, i32 } %29, 1
  invoke void @__cxa_end_catch()
          to label %32 unwind label %37

32:                                               ; preds = %28
  br label %34

33:                                               ; No predecessors!
  call void @llvm.trap()
  unreachable

34:                                               ; preds = %32
  %35 = insertvalue { i8*, i32 } undef, i8* %30, 0
  %36 = insertvalue { i8*, i32 } %35, i32 %31, 1
  resume { i8*, i32 } %36

37:                                               ; preds = %28
  %38 = landingpad { i8*, i32 }
          catch i8* null
  %39 = extractvalue { i8*, i32 } %38, 0
  call void @__clang_call_terminate(i8* %39) #15
  unreachable

40:                                               ; preds = %26
  unreachable
}

; Function Attrs: noinline uwtable
define linkonce_odr zeroext i1 @_ZStneIP5pointEbRKSt13move_iteratorIT_ES6_(%"class.std::move_iterator"* dereferenceable(8) %0, %"class.std::move_iterator"* dereferenceable(8) %1) #2 comdat {
  %3 = call zeroext i1 @_ZSteqIP5pointEbRKSt13move_iteratorIT_ES6_(%"class.std::move_iterator"* dereferenceable(8) %0, %"class.std::move_iterator"* dereferenceable(8) %1)
  %4 = xor i1 %3, true
  ret i1 %4
}

; Function Attrs: noinline nounwind uwtable
define linkonce_odr void @_ZSt10_ConstructI5pointJS0_EEvPT_DpOT0_(%struct.point* %0, %struct.point* dereferenceable(12) %1) #0 comdat {
  %3 = bitcast %struct.point* %0 to i8*
  %4 = bitcast i8* %3 to %struct.point*
  %5 = call dereferenceable(12) %struct.point* @_ZSt7forwardI5pointEOT_RNSt16remove_referenceIS1_E4typeE(%struct.point* dereferenceable(12) %1) #3
  %6 = bitcast %struct.point* %4 to i8*
  %7 = bitcast %struct.point* %5 to i8*
  call void @llvm.memcpy.p0i8.p0i8.i64(i8* align 4 %6, i8* align 4 %7, i64 12, i1 false)
  ret void
}

; Function Attrs: noinline nounwind uwtable
define linkonce_odr %struct.point* @_ZSt11__addressofI5pointEPT_RS1_(%struct.point* dereferenceable(12) %0) #0 comdat {
  ret %struct.point* %0
}

; Function Attrs: noinline nounwind uwtable
define linkonce_odr dereferenceable(12) %struct.point* @_ZNKSt13move_iteratorIP5pointEdeEv(%"class.std::move_iterator"* %0) #0 comdat align 2 {
  %2 = getelementptr inbounds %"class.std::move_iterator", %"class.std::move_iterator"* %0, i32 0, i32 0
  %3 = load %struct.point*, %struct.point** %2, align 8
  ret %struct.point* %3
}

; Function Attrs: noinline nounwind uwtable
define linkonce_odr dereferenceable(8) %"class.std::move_iterator"* @_ZNSt13move_iteratorIP5pointEppEv(%"class.std::move_iterator"* %0) #0 comdat align 2 {
  %2 = getelementptr inbounds %"class.std::move_iterator", %"class.std::move_iterator"* %0, i32 0, i32 0
  %3 = load %struct.point*, %struct.point** %2, align 8
  %4 = getelementptr inbounds %struct.point, %struct.point* %3, i32 1
  store %struct.point* %4, %struct.point** %2, align 8
  ret %"class.std::move_iterator"* %0
}

; Function Attrs: cold noreturn nounwind
declare void @llvm.trap() #11

; Function Attrs: noinline uwtable
define linkonce_odr zeroext i1 @_ZSteqIP5pointEbRKSt13move_iteratorIT_ES6_(%"class.std::move_iterator"* dereferenceable(8) %0, %"class.std::move_iterator"* dereferenceable(8) %1) #2 comdat {
  %3 = call %struct.point* @_ZNKSt13move_iteratorIP5pointE4baseEv(%"class.std::move_iterator"* %0)
  %4 = call %struct.point* @_ZNKSt13move_iteratorIP5pointE4baseEv(%"class.std::move_iterator"* %1)
  %5 = icmp eq %struct.point* %3, %4
  ret i1 %5
}

; Function Attrs: noinline nounwind uwtable
define linkonce_odr %struct.point* @_ZNKSt13move_iteratorIP5pointE4baseEv(%"class.std::move_iterator"* %0) #0 comdat align 2 {
  %2 = getelementptr inbounds %"class.std::move_iterator", %"class.std::move_iterator"* %0, i32 0, i32 0
  %3 = load %struct.point*, %struct.point** %2, align 8
  ret %struct.point* %3
}

; Function Attrs: noinline nounwind uwtable
define linkonce_odr dereferenceable(12) %struct.point* @_ZSt7forwardI5pointEOT_RNSt16remove_referenceIS1_E4typeE(%struct.point* dereferenceable(12) %0) #0 comdat {
  ret %struct.point* %0
}

; Function Attrs: noinline nounwind uwtable
define linkonce_odr void @_ZNSt13move_iteratorIP5pointEC2ES1_(%"class.std::move_iterator"* %0, %struct.point* %1) unnamed_addr #0 comdat align 2 {
  %3 = getelementptr inbounds %"class.std::move_iterator", %"class.std::move_iterator"* %0, i32 0, i32 0
  store %struct.point* %1, %struct.point** %3, align 8
  ret void
}

; Function Attrs: noinline nounwind uwtable
define linkonce_odr void @_ZN9__gnu_cxx13new_allocatorI5pointE7destroyIS1_EEvPT_(%"class.__gnu_cxx::new_allocator"* %0, %struct.point* %1) #0 comdat align 2 {
  ret void
}

; Function Attrs: noinline uwtable
define linkonce_odr %"struct.std::_Rb_tree_node_base"* @_ZNSt3mapI5pointiSt4lessIS0_ESaISt4pairIKS0_iEEE11lower_boundERS4_(%"class.std::map"* %0, %struct.point* dereferenceable(12) %1) #2 comdat align 2 {
  %3 = alloca %"struct.std::_Rb_tree_iterator", align 8
  %4 = getelementptr inbounds %"class.std::map", %"class.std::map"* %0, i32 0, i32 0
  %5 = call %"struct.std::_Rb_tree_node_base"* @_ZNSt8_Rb_treeI5pointSt4pairIKS0_iESt10_Select1stIS3_ESt4lessIS0_ESaIS3_EE11lower_boundERS2_(%"class.std::_Rb_tree"* %4, %struct.point* dereferenceable(12) %1)
  %6 = getelementptr inbounds %"struct.std::_Rb_tree_iterator", %"struct.std::_Rb_tree_iterator"* %3, i32 0, i32 0
  store %"struct.std::_Rb_tree_node_base"* %5, %"struct.std::_Rb_tree_node_base"** %6, align 8
  %7 = getelementptr inbounds %"struct.std::_Rb_tree_iterator", %"struct.std::_Rb_tree_iterator"* %3, i32 0, i32 0
  %8 = load %"struct.std::_Rb_tree_node_base"*, %"struct.std::_Rb_tree_node_base"** %7, align 8
  ret %"struct.std::_Rb_tree_node_base"* %8
}

; Function Attrs: noinline nounwind uwtable
define linkonce_odr zeroext i1 @_ZNKSt17_Rb_tree_iteratorISt4pairIK5pointiEEeqERKS4_(%"struct.std::_Rb_tree_iterator"* %0, %"struct.std::_Rb_tree_iterator"* dereferenceable(8) %1) #0 comdat align 2 {
  %3 = getelementptr inbounds %"struct.std::_Rb_tree_iterator", %"struct.std::_Rb_tree_iterator"* %0, i32 0, i32 0
  %4 = load %"struct.std::_Rb_tree_node_base"*, %"struct.std::_Rb_tree_node_base"** %3, align 8
  %5 = getelementptr inbounds %"struct.std::_Rb_tree_iterator", %"struct.std::_Rb_tree_iterator"* %1, i32 0, i32 0
  %6 = load %"struct.std::_Rb_tree_node_base"*, %"struct.std::_Rb_tree_node_base"** %5, align 8
  %7 = icmp eq %"struct.std::_Rb_tree_node_base"* %4, %6
  ret i1 %7
}

; Function Attrs: noinline uwtable
define linkonce_odr void @_ZNKSt3mapI5pointiSt4lessIS0_ESaISt4pairIKS0_iEEE8key_compEv(%"class.std::map"* %0) #2 comdat align 2 {
  %2 = getelementptr inbounds %"class.std::map", %"class.std::map"* %0, i32 0, i32 0
  call void @_ZNKSt8_Rb_treeI5pointSt4pairIKS0_iESt10_Select1stIS3_ESt4lessIS0_ESaIS3_EE8key_compEv(%"class.std::_Rb_tree"* %2)
  ret void
}

; Function Attrs: noinline nounwind uwtable
define linkonce_odr zeroext i1 @_ZNKSt4lessI5pointEclERKS0_S3_(%"struct.std::less"* %0, %struct.point* dereferenceable(12) %1, %struct.point* dereferenceable(12) %2) #0 comdat align 2 {
  %4 = call zeroext i1 @_ZltRK5pointS1_(%struct.point* dereferenceable(12) %1, %struct.point* dereferenceable(12) %2)
  ret i1 %4
}

; Function Attrs: noinline uwtable
define linkonce_odr %"struct.std::_Rb_tree_node_base"* @_ZNSt8_Rb_treeI5pointSt4pairIKS0_iESt10_Select1stIS3_ESt4lessIS0_ESaIS3_EE22_M_emplace_hint_uniqueIJRKSt21piecewise_construct_tSt5tupleIJRS2_EESE_IJEEEEESt17_Rb_tree_iteratorIS3_ESt23_Rb_tree_const_iteratorIS3_EDpOT_(%"class.std::_Rb_tree"* %0, %"struct.std::_Rb_tree_node_base"* %1, %"struct.std::piecewise_construct_t"* dereferenceable(1) %2, %"class.std::tuple"* dereferenceable(8) %3, %"class.std::tuple.13"* dereferenceable(1) %4) #2 comdat align 2 personality i8* bitcast (i32 (...)* @__gxx_personality_v0 to i8*) {
  %6 = alloca %"struct.std::_Rb_tree_iterator", align 8
  %7 = alloca %"struct.std::_Rb_tree_const_iterator.12", align 8
  %8 = alloca %"struct.std::pair.14", align 8
  %9 = alloca %"struct.std::_Rb_tree_const_iterator.12", align 8
  %10 = getelementptr inbounds %"struct.std::_Rb_tree_const_iterator.12", %"struct.std::_Rb_tree_const_iterator.12"* %7, i32 0, i32 0
  store %"struct.std::_Rb_tree_node_base"* %1, %"struct.std::_Rb_tree_node_base"** %10, align 8
  %11 = call dereferenceable(1) %"struct.std::piecewise_construct_t"* @_ZSt7forwardIRKSt21piecewise_construct_tEOT_RNSt16remove_referenceIS3_E4typeE(%"struct.std::piecewise_construct_t"* dereferenceable(1) %2) #3
  %12 = call dereferenceable(8) %"class.std::tuple"* @_ZSt7forwardISt5tupleIJRK5pointEEEOT_RNSt16remove_referenceIS5_E4typeE(%"class.std::tuple"* dereferenceable(8) %3) #3
  %13 = call dereferenceable(1) %"class.std::tuple.13"* @_ZSt7forwardISt5tupleIJEEEOT_RNSt16remove_referenceIS2_E4typeE(%"class.std::tuple.13"* dereferenceable(1) %4) #3
  %14 = call %"struct.std::_Rb_tree_node"* @_ZNSt8_Rb_treeI5pointSt4pairIKS0_iESt10_Select1stIS3_ESt4lessIS0_ESaIS3_EE14_M_create_nodeIJRKSt21piecewise_construct_tSt5tupleIJRS2_EESE_IJEEEEEPSt13_Rb_tree_nodeIS3_EDpOT_(%"class.std::_Rb_tree"* %0, %"struct.std::piecewise_construct_t"* dereferenceable(1) %11, %"class.std::tuple"* dereferenceable(8) %12, %"class.std::tuple.13"* dereferenceable(1) %13)
  %15 = bitcast %"struct.std::_Rb_tree_const_iterator.12"* %9 to i8*
  %16 = bitcast %"struct.std::_Rb_tree_const_iterator.12"* %7 to i8*
  call void @llvm.memcpy.p0i8.p0i8.i64(i8* align 8 %15, i8* align 8 %16, i64 8, i1 false)
  %17 = invoke dereferenceable(12) %struct.point* @_ZNSt8_Rb_treeI5pointSt4pairIKS0_iESt10_Select1stIS3_ESt4lessIS0_ESaIS3_EE6_S_keyEPKSt13_Rb_tree_nodeIS3_E(%"struct.std::_Rb_tree_node"* %14)
          to label %18 unwind label %39

18:                                               ; preds = %5
  %19 = getelementptr inbounds %"struct.std::_Rb_tree_const_iterator.12", %"struct.std::_Rb_tree_const_iterator.12"* %9, i32 0, i32 0
  %20 = load %"struct.std::_Rb_tree_node_base"*, %"struct.std::_Rb_tree_node_base"** %19, align 8
  %21 = invoke { %"struct.std::_Rb_tree_node_base"*, %"struct.std::_Rb_tree_node_base"* } @_ZNSt8_Rb_treeI5pointSt4pairIKS0_iESt10_Select1stIS3_ESt4lessIS0_ESaIS3_EE29_M_get_insert_hint_unique_posESt23_Rb_tree_const_iteratorIS3_ERS2_(%"class.std::_Rb_tree"* %0, %"struct.std::_Rb_tree_node_base"* %20, %struct.point* dereferenceable(12) %17)
          to label %22 unwind label %39

22:                                               ; preds = %18
  %23 = bitcast %"struct.std::pair.14"* %8 to { %"struct.std::_Rb_tree_node_base"*, %"struct.std::_Rb_tree_node_base"* }*
  %24 = getelementptr inbounds { %"struct.std::_Rb_tree_node_base"*, %"struct.std::_Rb_tree_node_base"* }, { %"struct.std::_Rb_tree_node_base"*, %"struct.std::_Rb_tree_node_base"* }* %23, i32 0, i32 0
  %25 = extractvalue { %"struct.std::_Rb_tree_node_base"*, %"struct.std::_Rb_tree_node_base"* } %21, 0
  store %"struct.std::_Rb_tree_node_base"* %25, %"struct.std::_Rb_tree_node_base"** %24, align 8
  %26 = getelementptr inbounds { %"struct.std::_Rb_tree_node_base"*, %"struct.std::_Rb_tree_node_base"* }, { %"struct.std::_Rb_tree_node_base"*, %"struct.std::_Rb_tree_node_base"* }* %23, i32 0, i32 1
  %27 = extractvalue { %"struct.std::_Rb_tree_node_base"*, %"struct.std::_Rb_tree_node_base"* } %21, 1
  store %"struct.std::_Rb_tree_node_base"* %27, %"struct.std::_Rb_tree_node_base"** %26, align 8
  %28 = getelementptr inbounds %"struct.std::pair.14", %"struct.std::pair.14"* %8, i32 0, i32 1
  %29 = load %"struct.std::_Rb_tree_node_base"*, %"struct.std::_Rb_tree_node_base"** %28, align 8
  %30 = icmp ne %"struct.std::_Rb_tree_node_base"* %29, null
  br i1 %30, label %31, label %45

31:                                               ; preds = %22
  %32 = getelementptr inbounds %"struct.std::pair.14", %"struct.std::pair.14"* %8, i32 0, i32 0
  %33 = load %"struct.std::_Rb_tree_node_base"*, %"struct.std::_Rb_tree_node_base"** %32, align 8
  %34 = getelementptr inbounds %"struct.std::pair.14", %"struct.std::pair.14"* %8, i32 0, i32 1
  %35 = load %"struct.std::_Rb_tree_node_base"*, %"struct.std::_Rb_tree_node_base"** %34, align 8
  %36 = invoke %"struct.std::_Rb_tree_node_base"* @_ZNSt8_Rb_treeI5pointSt4pairIKS0_iESt10_Select1stIS3_ESt4lessIS0_ESaIS3_EE14_M_insert_nodeEPSt18_Rb_tree_node_baseSB_PSt13_Rb_tree_nodeIS3_E(%"class.std::_Rb_tree"* %0, %"struct.std::_Rb_tree_node_base"* %33, %"struct.std::_Rb_tree_node_base"* %35, %"struct.std::_Rb_tree_node"* %14)
          to label %37 unwind label %39

37:                                               ; preds = %31
  %38 = getelementptr inbounds %"struct.std::_Rb_tree_iterator", %"struct.std::_Rb_tree_iterator"* %6, i32 0, i32 0
  store %"struct.std::_Rb_tree_node_base"* %36, %"struct.std::_Rb_tree_node_base"** %38, align 8
  br label %54

39:                                               ; preds = %31, %18, %5
  %40 = landingpad { i8*, i32 }
          catch i8* null
  %41 = extractvalue { i8*, i32 } %40, 0
  %42 = extractvalue { i8*, i32 } %40, 1
  br label %43

43:                                               ; preds = %39
  %44 = call i8* @__cxa_begin_catch(i8* %41) #3
  call void @_ZNSt8_Rb_treeI5pointSt4pairIKS0_iESt10_Select1stIS3_ESt4lessIS0_ESaIS3_EE12_M_drop_nodeEPSt13_Rb_tree_nodeIS3_E(%"class.std::_Rb_tree"* %0, %"struct.std::_Rb_tree_node"* %14) #3
  invoke void @__cxa_rethrow() #18
          to label %63 unwind label %48

45:                                               ; preds = %22
  call void @_ZNSt8_Rb_treeI5pointSt4pairIKS0_iESt10_Select1stIS3_ESt4lessIS0_ESaIS3_EE12_M_drop_nodeEPSt13_Rb_tree_nodeIS3_E(%"class.std::_Rb_tree"* %0, %"struct.std::_Rb_tree_node"* %14) #3
  %46 = getelementptr inbounds %"struct.std::pair.14", %"struct.std::pair.14"* %8, i32 0, i32 0
  %47 = load %"struct.std::_Rb_tree_node_base"*, %"struct.std::_Rb_tree_node_base"** %46, align 8
  call void @_ZNSt17_Rb_tree_iteratorISt4pairIK5pointiEEC2EPSt18_Rb_tree_node_base(%"struct.std::_Rb_tree_iterator"* %6, %"struct.std::_Rb_tree_node_base"* %47) #3
  br label %54

48:                                               ; preds = %43
  %49 = landingpad { i8*, i32 }
          cleanup
  %50 = extractvalue { i8*, i32 } %49, 0
  %51 = extractvalue { i8*, i32 } %49, 1
  invoke void @__cxa_end_catch()
          to label %52 unwind label %60

52:                                               ; preds = %48
  br label %57

53:                                               ; No predecessors!
  call void @llvm.trap()
  unreachable

54:                                               ; preds = %45, %37
  %55 = getelementptr inbounds %"struct.std::_Rb_tree_iterator", %"struct.std::_Rb_tree_iterator"* %6, i32 0, i32 0
  %56 = load %"struct.std::_Rb_tree_node_base"*, %"struct.std::_Rb_tree_node_base"** %55, align 8
  ret %"struct.std::_Rb_tree_node_base"* %56

57:                                               ; preds = %52
  %58 = insertvalue { i8*, i32 } undef, i8* %50, 0
  %59 = insertvalue { i8*, i32 } %58, i32 %51, 1
  resume { i8*, i32 } %59

60:                                               ; preds = %48
  %61 = landingpad { i8*, i32 }
          catch i8* null
  %62 = extractvalue { i8*, i32 } %61, 0
  call void @__clang_call_terminate(i8* %62) #15
  unreachable

63:                                               ; preds = %43
  unreachable
}

; Function Attrs: noinline nounwind uwtable
define linkonce_odr void @_ZNSt23_Rb_tree_const_iteratorISt4pairIK5pointiEEC2ERKSt17_Rb_tree_iteratorIS3_E(%"struct.std::_Rb_tree_const_iterator.12"* %0, %"struct.std::_Rb_tree_iterator"* dereferenceable(8) %1) unnamed_addr #0 comdat align 2 {
  %3 = getelementptr inbounds %"struct.std::_Rb_tree_const_iterator.12", %"struct.std::_Rb_tree_const_iterator.12"* %0, i32 0, i32 0
  %4 = getelementptr inbounds %"struct.std::_Rb_tree_iterator", %"struct.std::_Rb_tree_iterator"* %1, i32 0, i32 0
  %5 = load %"struct.std::_Rb_tree_node_base"*, %"struct.std::_Rb_tree_node_base"** %4, align 8
  store %"struct.std::_Rb_tree_node_base"* %5, %"struct.std::_Rb_tree_node_base"** %3, align 8
  ret void
}

; Function Attrs: noinline uwtable
define linkonce_odr void @_ZNSt5tupleIJRK5pointEEC2IvLb1EEES2_(%"class.std::tuple"* %0, %struct.point* dereferenceable(12) %1) unnamed_addr #2 comdat align 2 {
  %3 = bitcast %"class.std::tuple"* %0 to %"struct.std::_Tuple_impl"*
  call void @_ZNSt11_Tuple_implILm0EJRK5pointEEC2ES2_(%"struct.std::_Tuple_impl"* %3, %struct.point* dereferenceable(12) %1)
  ret void
}

; Function Attrs: noinline uwtable
define linkonce_odr %"struct.std::_Rb_tree_node_base"* @_ZNSt8_Rb_treeI5pointSt4pairIKS0_iESt10_Select1stIS3_ESt4lessIS0_ESaIS3_EE11lower_boundERS2_(%"class.std::_Rb_tree"* %0, %struct.point* dereferenceable(12) %1) #2 comdat align 2 {
  %3 = alloca %"struct.std::_Rb_tree_iterator", align 8
  %4 = call %"struct.std::_Rb_tree_node"* @_ZNSt8_Rb_treeI5pointSt4pairIKS0_iESt10_Select1stIS3_ESt4lessIS0_ESaIS3_EE8_M_beginEv(%"class.std::_Rb_tree"* %0) #3
  %5 = call %"struct.std::_Rb_tree_node_base"* @_ZNSt8_Rb_treeI5pointSt4pairIKS0_iESt10_Select1stIS3_ESt4lessIS0_ESaIS3_EE6_M_endEv(%"class.std::_Rb_tree"* %0) #3
  %6 = call %"struct.std::_Rb_tree_node_base"* @_ZNSt8_Rb_treeI5pointSt4pairIKS0_iESt10_Select1stIS3_ESt4lessIS0_ESaIS3_EE14_M_lower_boundEPSt13_Rb_tree_nodeIS3_EPSt18_Rb_tree_node_baseRS2_(%"class.std::_Rb_tree"* %0, %"struct.std::_Rb_tree_node"* %4, %"struct.std::_Rb_tree_node_base"* %5, %struct.point* dereferenceable(12) %1)
  %7 = getelementptr inbounds %"struct.std::_Rb_tree_iterator", %"struct.std::_Rb_tree_iterator"* %3, i32 0, i32 0
  store %"struct.std::_Rb_tree_node_base"* %6, %"struct.std::_Rb_tree_node_base"** %7, align 8
  %8 = getelementptr inbounds %"struct.std::_Rb_tree_iterator", %"struct.std::_Rb_tree_iterator"* %3, i32 0, i32 0
  %9 = load %"struct.std::_Rb_tree_node_base"*, %"struct.std::_Rb_tree_node_base"** %8, align 8
  ret %"struct.std::_Rb_tree_node_base"* %9
}

; Function Attrs: noinline uwtable
define linkonce_odr %"struct.std::_Rb_tree_node_base"* @_ZNSt8_Rb_treeI5pointSt4pairIKS0_iESt10_Select1stIS3_ESt4lessIS0_ESaIS3_EE14_M_lower_boundEPSt13_Rb_tree_nodeIS3_EPSt18_Rb_tree_node_baseRS2_(%"class.std::_Rb_tree"* %0, %"struct.std::_Rb_tree_node"* %1, %"struct.std::_Rb_tree_node_base"* %2, %struct.point* dereferenceable(12) %3) #2 comdat align 2 {
  %5 = alloca %"struct.std::_Rb_tree_iterator", align 8
  br label %6

6:                                                ; preds = %21, %4
  %.01 = phi %"struct.std::_Rb_tree_node"* [ %1, %4 ], [ %.12, %21 ]
  %.0 = phi %"struct.std::_Rb_tree_node_base"* [ %2, %4 ], [ %.1, %21 ]
  %7 = icmp ne %"struct.std::_Rb_tree_node"* %.01, null
  br i1 %7, label %8, label %22

8:                                                ; preds = %6
  %9 = getelementptr inbounds %"class.std::_Rb_tree", %"class.std::_Rb_tree"* %0, i32 0, i32 0
  %10 = bitcast %"struct.std::_Rb_tree<point, std::pair<const point, int>, std::_Select1st<std::pair<const point, int> >, std::less<point>, std::allocator<std::pair<const point, int> > >::_Rb_tree_impl"* %9 to %"struct.std::_Rb_tree_key_compare"*
  %11 = getelementptr inbounds %"struct.std::_Rb_tree_key_compare", %"struct.std::_Rb_tree_key_compare"* %10, i32 0, i32 0
  %12 = call dereferenceable(12) %struct.point* @_ZNSt8_Rb_treeI5pointSt4pairIKS0_iESt10_Select1stIS3_ESt4lessIS0_ESaIS3_EE6_S_keyEPKSt13_Rb_tree_nodeIS3_E(%"struct.std::_Rb_tree_node"* %.01)
  %13 = call zeroext i1 @_ZNKSt4lessI5pointEclERKS0_S3_(%"struct.std::less"* %11, %struct.point* dereferenceable(12) %12, %struct.point* dereferenceable(12) %3)
  br i1 %13, label %18, label %14

14:                                               ; preds = %8
  %15 = bitcast %"struct.std::_Rb_tree_node"* %.01 to %"struct.std::_Rb_tree_node_base"*
  %16 = bitcast %"struct.std::_Rb_tree_node"* %.01 to %"struct.std::_Rb_tree_node_base"*
  %17 = call %"struct.std::_Rb_tree_node"* @_ZNSt8_Rb_treeI5pointSt4pairIKS0_iESt10_Select1stIS3_ESt4lessIS0_ESaIS3_EE7_S_leftEPSt18_Rb_tree_node_base(%"struct.std::_Rb_tree_node_base"* %16) #3
  br label %21

18:                                               ; preds = %8
  %19 = bitcast %"struct.std::_Rb_tree_node"* %.01 to %"struct.std::_Rb_tree_node_base"*
  %20 = call %"struct.std::_Rb_tree_node"* @_ZNSt8_Rb_treeI5pointSt4pairIKS0_iESt10_Select1stIS3_ESt4lessIS0_ESaIS3_EE8_S_rightEPSt18_Rb_tree_node_base(%"struct.std::_Rb_tree_node_base"* %19) #3
  br label %21

21:                                               ; preds = %18, %14
  %.12 = phi %"struct.std::_Rb_tree_node"* [ %20, %18 ], [ %17, %14 ]
  %.1 = phi %"struct.std::_Rb_tree_node_base"* [ %.0, %18 ], [ %15, %14 ]
  br label %6

22:                                               ; preds = %6
  call void @_ZNSt17_Rb_tree_iteratorISt4pairIK5pointiEEC2EPSt18_Rb_tree_node_base(%"struct.std::_Rb_tree_iterator"* %5, %"struct.std::_Rb_tree_node_base"* %.0) #3
  %23 = getelementptr inbounds %"struct.std::_Rb_tree_iterator", %"struct.std::_Rb_tree_iterator"* %5, i32 0, i32 0
  %24 = load %"struct.std::_Rb_tree_node_base"*, %"struct.std::_Rb_tree_node_base"** %23, align 8
  ret %"struct.std::_Rb_tree_node_base"* %24
}

; Function Attrs: noinline nounwind uwtable
define linkonce_odr %"struct.std::_Rb_tree_node_base"* @_ZNSt8_Rb_treeI5pointSt4pairIKS0_iESt10_Select1stIS3_ESt4lessIS0_ESaIS3_EE6_M_endEv(%"class.std::_Rb_tree"* %0) #0 comdat align 2 {
  %2 = getelementptr inbounds %"class.std::_Rb_tree", %"class.std::_Rb_tree"* %0, i32 0, i32 0
  %3 = bitcast %"struct.std::_Rb_tree<point, std::pair<const point, int>, std::_Select1st<std::pair<const point, int> >, std::less<point>, std::allocator<std::pair<const point, int> > >::_Rb_tree_impl"* %2 to i8*
  %4 = getelementptr inbounds i8, i8* %3, i64 8
  %5 = bitcast i8* %4 to %"struct.std::_Rb_tree_header"*
  %6 = getelementptr inbounds %"struct.std::_Rb_tree_header", %"struct.std::_Rb_tree_header"* %5, i32 0, i32 0
  ret %"struct.std::_Rb_tree_node_base"* %6
}

; Function Attrs: noinline uwtable
define linkonce_odr dereferenceable(12) %struct.point* @_ZNSt8_Rb_treeI5pointSt4pairIKS0_iESt10_Select1stIS3_ESt4lessIS0_ESaIS3_EE6_S_keyEPKSt13_Rb_tree_nodeIS3_E(%"struct.std::_Rb_tree_node"* %0) #2 comdat align 2 {
  %2 = alloca %"struct.std::_Select1st", align 1
  %3 = call %"struct.std::pair.7"* @_ZNKSt13_Rb_tree_nodeISt4pairIK5pointiEE9_M_valptrEv(%"struct.std::_Rb_tree_node"* %0)
  %4 = call dereferenceable(12) %struct.point* @_ZNKSt10_Select1stISt4pairIK5pointiEEclERKS3_(%"struct.std::_Select1st"* %2, %"struct.std::pair.7"* dereferenceable(16) %3)
  ret %struct.point* %4
}

; Function Attrs: noinline nounwind uwtable
define linkonce_odr void @_ZNSt17_Rb_tree_iteratorISt4pairIK5pointiEEC2EPSt18_Rb_tree_node_base(%"struct.std::_Rb_tree_iterator"* %0, %"struct.std::_Rb_tree_node_base"* %1) unnamed_addr #0 comdat align 2 {
  %3 = getelementptr inbounds %"struct.std::_Rb_tree_iterator", %"struct.std::_Rb_tree_iterator"* %0, i32 0, i32 0
  store %"struct.std::_Rb_tree_node_base"* %1, %"struct.std::_Rb_tree_node_base"** %3, align 8
  ret void
}

; Function Attrs: noinline nounwind uwtable
define linkonce_odr dereferenceable(12) %struct.point* @_ZNKSt10_Select1stISt4pairIK5pointiEEclERKS3_(%"struct.std::_Select1st"* %0, %"struct.std::pair.7"* dereferenceable(16) %1) #0 comdat align 2 {
  %3 = getelementptr inbounds %"struct.std::pair.7", %"struct.std::pair.7"* %1, i32 0, i32 0
  ret %struct.point* %3
}

; Function Attrs: noinline nounwind uwtable
define linkonce_odr %"struct.std::pair.7"* @_ZNKSt13_Rb_tree_nodeISt4pairIK5pointiEE9_M_valptrEv(%"struct.std::_Rb_tree_node"* %0) #0 comdat align 2 {
  %2 = getelementptr inbounds %"struct.std::_Rb_tree_node", %"struct.std::_Rb_tree_node"* %0, i32 0, i32 1
  %3 = call %"struct.std::pair.7"* @_ZNK9__gnu_cxx16__aligned_membufISt4pairIK5pointiEE6_M_ptrEv(%"struct.__gnu_cxx::__aligned_membuf"* %2) #3
  ret %"struct.std::pair.7"* %3
}

; Function Attrs: noinline nounwind uwtable
define linkonce_odr %"struct.std::pair.7"* @_ZNK9__gnu_cxx16__aligned_membufISt4pairIK5pointiEE6_M_ptrEv(%"struct.__gnu_cxx::__aligned_membuf"* %0) #0 comdat align 2 {
  %2 = call i8* @_ZNK9__gnu_cxx16__aligned_membufISt4pairIK5pointiEE7_M_addrEv(%"struct.__gnu_cxx::__aligned_membuf"* %0) #3
  %3 = bitcast i8* %2 to %"struct.std::pair.7"*
  ret %"struct.std::pair.7"* %3
}

; Function Attrs: noinline nounwind uwtable
define linkonce_odr i8* @_ZNK9__gnu_cxx16__aligned_membufISt4pairIK5pointiEE7_M_addrEv(%"struct.__gnu_cxx::__aligned_membuf"* %0) #0 comdat align 2 {
  %2 = getelementptr inbounds %"struct.__gnu_cxx::__aligned_membuf", %"struct.__gnu_cxx::__aligned_membuf"* %0, i32 0, i32 0
  %3 = bitcast [16 x i8]* %2 to i8*
  ret i8* %3
}

; Function Attrs: noinline nounwind uwtable
define linkonce_odr void @_ZNKSt8_Rb_treeI5pointSt4pairIKS0_iESt10_Select1stIS3_ESt4lessIS0_ESaIS3_EE8key_compEv(%"class.std::_Rb_tree"* %0) #0 comdat align 2 {
  %2 = getelementptr inbounds %"class.std::_Rb_tree", %"class.std::_Rb_tree"* %0, i32 0, i32 0
  %3 = bitcast %"struct.std::_Rb_tree<point, std::pair<const point, int>, std::_Select1st<std::pair<const point, int> >, std::less<point>, std::allocator<std::pair<const point, int> > >::_Rb_tree_impl"* %2 to %"struct.std::_Rb_tree_key_compare"*
  %4 = getelementptr inbounds %"struct.std::_Rb_tree_key_compare", %"struct.std::_Rb_tree_key_compare"* %3, i32 0, i32 0
  ret void
}

; Function Attrs: noinline uwtable
define linkonce_odr %"struct.std::_Rb_tree_node"* @_ZNSt8_Rb_treeI5pointSt4pairIKS0_iESt10_Select1stIS3_ESt4lessIS0_ESaIS3_EE14_M_create_nodeIJRKSt21piecewise_construct_tSt5tupleIJRS2_EESE_IJEEEEEPSt13_Rb_tree_nodeIS3_EDpOT_(%"class.std::_Rb_tree"* %0, %"struct.std::piecewise_construct_t"* dereferenceable(1) %1, %"class.std::tuple"* dereferenceable(8) %2, %"class.std::tuple.13"* dereferenceable(1) %3) #2 comdat align 2 {
  %5 = call %"struct.std::_Rb_tree_node"* @_ZNSt8_Rb_treeI5pointSt4pairIKS0_iESt10_Select1stIS3_ESt4lessIS0_ESaIS3_EE11_M_get_nodeEv(%"class.std::_Rb_tree"* %0)
  %6 = call dereferenceable(1) %"struct.std::piecewise_construct_t"* @_ZSt7forwardIRKSt21piecewise_construct_tEOT_RNSt16remove_referenceIS3_E4typeE(%"struct.std::piecewise_construct_t"* dereferenceable(1) %1) #3
  %7 = call dereferenceable(8) %"class.std::tuple"* @_ZSt7forwardISt5tupleIJRK5pointEEEOT_RNSt16remove_referenceIS5_E4typeE(%"class.std::tuple"* dereferenceable(8) %2) #3
  %8 = call dereferenceable(1) %"class.std::tuple.13"* @_ZSt7forwardISt5tupleIJEEEOT_RNSt16remove_referenceIS2_E4typeE(%"class.std::tuple.13"* dereferenceable(1) %3) #3
  call void @_ZNSt8_Rb_treeI5pointSt4pairIKS0_iESt10_Select1stIS3_ESt4lessIS0_ESaIS3_EE17_M_construct_nodeIJRKSt21piecewise_construct_tSt5tupleIJRS2_EESE_IJEEEEEvPSt13_Rb_tree_nodeIS3_EDpOT_(%"class.std::_Rb_tree"* %0, %"struct.std::_Rb_tree_node"* %5, %"struct.std::piecewise_construct_t"* dereferenceable(1) %6, %"class.std::tuple"* dereferenceable(8) %7, %"class.std::tuple.13"* dereferenceable(1) %8)
  ret %"struct.std::_Rb_tree_node"* %5
}

; Function Attrs: noinline nounwind uwtable
define linkonce_odr dereferenceable(1) %"struct.std::piecewise_construct_t"* @_ZSt7forwardIRKSt21piecewise_construct_tEOT_RNSt16remove_referenceIS3_E4typeE(%"struct.std::piecewise_construct_t"* dereferenceable(1) %0) #0 comdat {
  ret %"struct.std::piecewise_construct_t"* %0
}

; Function Attrs: noinline nounwind uwtable
define linkonce_odr dereferenceable(8) %"class.std::tuple"* @_ZSt7forwardISt5tupleIJRK5pointEEEOT_RNSt16remove_referenceIS5_E4typeE(%"class.std::tuple"* dereferenceable(8) %0) #0 comdat {
  ret %"class.std::tuple"* %0
}

; Function Attrs: noinline nounwind uwtable
define linkonce_odr dereferenceable(1) %"class.std::tuple.13"* @_ZSt7forwardISt5tupleIJEEEOT_RNSt16remove_referenceIS2_E4typeE(%"class.std::tuple.13"* dereferenceable(1) %0) #0 comdat {
  ret %"class.std::tuple.13"* %0
}

; Function Attrs: noinline uwtable
define linkonce_odr { %"struct.std::_Rb_tree_node_base"*, %"struct.std::_Rb_tree_node_base"* } @_ZNSt8_Rb_treeI5pointSt4pairIKS0_iESt10_Select1stIS3_ESt4lessIS0_ESaIS3_EE29_M_get_insert_hint_unique_posESt23_Rb_tree_const_iteratorIS3_ERS2_(%"class.std::_Rb_tree"* %0, %"struct.std::_Rb_tree_node_base"* %1, %struct.point* dereferenceable(12) %2) #2 comdat align 2 {
  %4 = alloca %"struct.std::pair.14", align 8
  %5 = alloca %"struct.std::_Rb_tree_const_iterator.12", align 8
  %6 = alloca %"struct.std::_Rb_tree_iterator", align 8
  %7 = alloca %"struct.std::_Rb_tree_node_base"*, align 8
  %8 = alloca %"struct.std::_Rb_tree_iterator", align 8
  %9 = alloca %"struct.std::_Rb_tree_node_base"*, align 8
  %10 = alloca %"struct.std::_Rb_tree_iterator", align 8
  %11 = alloca %"struct.std::_Rb_tree_node_base"*, align 8
  %12 = alloca %"struct.std::_Rb_tree_node_base"*, align 8
  %13 = alloca %"struct.std::_Rb_tree_node_base"*, align 8
  %14 = getelementptr inbounds %"struct.std::_Rb_tree_const_iterator.12", %"struct.std::_Rb_tree_const_iterator.12"* %5, i32 0, i32 0
  store %"struct.std::_Rb_tree_node_base"* %1, %"struct.std::_Rb_tree_node_base"** %14, align 8
  %15 = call %"struct.std::_Rb_tree_node_base"* @_ZNKSt23_Rb_tree_const_iteratorISt4pairIK5pointiEE13_M_const_castEv(%"struct.std::_Rb_tree_const_iterator.12"* %5) #3
  %16 = getelementptr inbounds %"struct.std::_Rb_tree_iterator", %"struct.std::_Rb_tree_iterator"* %6, i32 0, i32 0
  store %"struct.std::_Rb_tree_node_base"* %15, %"struct.std::_Rb_tree_node_base"** %16, align 8
  %17 = getelementptr inbounds %"struct.std::_Rb_tree_iterator", %"struct.std::_Rb_tree_iterator"* %6, i32 0, i32 0
  %18 = load %"struct.std::_Rb_tree_node_base"*, %"struct.std::_Rb_tree_node_base"** %17, align 8
  %19 = call %"struct.std::_Rb_tree_node_base"* @_ZNSt8_Rb_treeI5pointSt4pairIKS0_iESt10_Select1stIS3_ESt4lessIS0_ESaIS3_EE6_M_endEv(%"class.std::_Rb_tree"* %0) #3
  %20 = icmp eq %"struct.std::_Rb_tree_node_base"* %18, %19
  br i1 %20, label %21, label %41

21:                                               ; preds = %3
  %22 = call i64 @_ZNKSt8_Rb_treeI5pointSt4pairIKS0_iESt10_Select1stIS3_ESt4lessIS0_ESaIS3_EE4sizeEv(%"class.std::_Rb_tree"* %0) #3
  %23 = icmp ugt i64 %22, 0
  br i1 %23, label %24, label %34

24:                                               ; preds = %21
  %25 = getelementptr inbounds %"class.std::_Rb_tree", %"class.std::_Rb_tree"* %0, i32 0, i32 0
  %26 = bitcast %"struct.std::_Rb_tree<point, std::pair<const point, int>, std::_Select1st<std::pair<const point, int> >, std::less<point>, std::allocator<std::pair<const point, int> > >::_Rb_tree_impl"* %25 to %"struct.std::_Rb_tree_key_compare"*
  %27 = getelementptr inbounds %"struct.std::_Rb_tree_key_compare", %"struct.std::_Rb_tree_key_compare"* %26, i32 0, i32 0
  %28 = call dereferenceable(8) %"struct.std::_Rb_tree_node_base"** @_ZNSt8_Rb_treeI5pointSt4pairIKS0_iESt10_Select1stIS3_ESt4lessIS0_ESaIS3_EE12_M_rightmostEv(%"class.std::_Rb_tree"* %0) #3
  %29 = load %"struct.std::_Rb_tree_node_base"*, %"struct.std::_Rb_tree_node_base"** %28, align 8
  %30 = call dereferenceable(12) %struct.point* @_ZNSt8_Rb_treeI5pointSt4pairIKS0_iESt10_Select1stIS3_ESt4lessIS0_ESaIS3_EE6_S_keyEPKSt18_Rb_tree_node_base(%"struct.std::_Rb_tree_node_base"* %29)
  %31 = call zeroext i1 @_ZNKSt4lessI5pointEclERKS0_S3_(%"struct.std::less"* %27, %struct.point* dereferenceable(12) %30, %struct.point* dereferenceable(12) %2)
  br i1 %31, label %32, label %34

32:                                               ; preds = %24
  store %"struct.std::_Rb_tree_node_base"* null, %"struct.std::_Rb_tree_node_base"** %7, align 8
  %33 = call dereferenceable(8) %"struct.std::_Rb_tree_node_base"** @_ZNSt8_Rb_treeI5pointSt4pairIKS0_iESt10_Select1stIS3_ESt4lessIS0_ESaIS3_EE12_M_rightmostEv(%"class.std::_Rb_tree"* %0) #3
  call void @_ZNSt4pairIPSt18_Rb_tree_node_baseS1_EC2IRS1_Lb1EEERKS1_OT_(%"struct.std::pair.14"* %4, %"struct.std::_Rb_tree_node_base"** dereferenceable(8) %7, %"struct.std::_Rb_tree_node_base"** dereferenceable(8) %33)
  br label %132

34:                                               ; preds = %24, %21
  %35 = call { %"struct.std::_Rb_tree_node_base"*, %"struct.std::_Rb_tree_node_base"* } @_ZNSt8_Rb_treeI5pointSt4pairIKS0_iESt10_Select1stIS3_ESt4lessIS0_ESaIS3_EE24_M_get_insert_unique_posERS2_(%"class.std::_Rb_tree"* %0, %struct.point* dereferenceable(12) %2)
  %36 = bitcast %"struct.std::pair.14"* %4 to { %"struct.std::_Rb_tree_node_base"*, %"struct.std::_Rb_tree_node_base"* }*
  %37 = getelementptr inbounds { %"struct.std::_Rb_tree_node_base"*, %"struct.std::_Rb_tree_node_base"* }, { %"struct.std::_Rb_tree_node_base"*, %"struct.std::_Rb_tree_node_base"* }* %36, i32 0, i32 0
  %38 = extractvalue { %"struct.std::_Rb_tree_node_base"*, %"struct.std::_Rb_tree_node_base"* } %35, 0
  store %"struct.std::_Rb_tree_node_base"* %38, %"struct.std::_Rb_tree_node_base"** %37, align 8
  %39 = getelementptr inbounds { %"struct.std::_Rb_tree_node_base"*, %"struct.std::_Rb_tree_node_base"* }, { %"struct.std::_Rb_tree_node_base"*, %"struct.std::_Rb_tree_node_base"* }* %36, i32 0, i32 1
  %40 = extractvalue { %"struct.std::_Rb_tree_node_base"*, %"struct.std::_Rb_tree_node_base"* } %35, 1
  store %"struct.std::_Rb_tree_node_base"* %40, %"struct.std::_Rb_tree_node_base"** %39, align 8
  br label %132

41:                                               ; preds = %3
  %42 = getelementptr inbounds %"class.std::_Rb_tree", %"class.std::_Rb_tree"* %0, i32 0, i32 0
  %43 = bitcast %"struct.std::_Rb_tree<point, std::pair<const point, int>, std::_Select1st<std::pair<const point, int> >, std::less<point>, std::allocator<std::pair<const point, int> > >::_Rb_tree_impl"* %42 to %"struct.std::_Rb_tree_key_compare"*
  %44 = getelementptr inbounds %"struct.std::_Rb_tree_key_compare", %"struct.std::_Rb_tree_key_compare"* %43, i32 0, i32 0
  %45 = getelementptr inbounds %"struct.std::_Rb_tree_iterator", %"struct.std::_Rb_tree_iterator"* %6, i32 0, i32 0
  %46 = load %"struct.std::_Rb_tree_node_base"*, %"struct.std::_Rb_tree_node_base"** %45, align 8
  %47 = call dereferenceable(12) %struct.point* @_ZNSt8_Rb_treeI5pointSt4pairIKS0_iESt10_Select1stIS3_ESt4lessIS0_ESaIS3_EE6_S_keyEPKSt18_Rb_tree_node_base(%"struct.std::_Rb_tree_node_base"* %46)
  %48 = call zeroext i1 @_ZNKSt4lessI5pointEclERKS0_S3_(%"struct.std::less"* %44, %struct.point* dereferenceable(12) %2, %struct.point* dereferenceable(12) %47)
  br i1 %48, label %49, label %86

49:                                               ; preds = %41
  %50 = bitcast %"struct.std::_Rb_tree_iterator"* %8 to i8*
  %51 = bitcast %"struct.std::_Rb_tree_iterator"* %6 to i8*
  call void @llvm.memcpy.p0i8.p0i8.i64(i8* align 8 %50, i8* align 8 %51, i64 8, i1 false)
  %52 = getelementptr inbounds %"struct.std::_Rb_tree_iterator", %"struct.std::_Rb_tree_iterator"* %6, i32 0, i32 0
  %53 = load %"struct.std::_Rb_tree_node_base"*, %"struct.std::_Rb_tree_node_base"** %52, align 8
  %54 = call dereferenceable(8) %"struct.std::_Rb_tree_node_base"** @_ZNSt8_Rb_treeI5pointSt4pairIKS0_iESt10_Select1stIS3_ESt4lessIS0_ESaIS3_EE11_M_leftmostEv(%"class.std::_Rb_tree"* %0) #3
  %55 = load %"struct.std::_Rb_tree_node_base"*, %"struct.std::_Rb_tree_node_base"** %54, align 8
  %56 = icmp eq %"struct.std::_Rb_tree_node_base"* %53, %55
  br i1 %56, label %57, label %60

57:                                               ; preds = %49
  %58 = call dereferenceable(8) %"struct.std::_Rb_tree_node_base"** @_ZNSt8_Rb_treeI5pointSt4pairIKS0_iESt10_Select1stIS3_ESt4lessIS0_ESaIS3_EE11_M_leftmostEv(%"class.std::_Rb_tree"* %0) #3
  %59 = call dereferenceable(8) %"struct.std::_Rb_tree_node_base"** @_ZNSt8_Rb_treeI5pointSt4pairIKS0_iESt10_Select1stIS3_ESt4lessIS0_ESaIS3_EE11_M_leftmostEv(%"class.std::_Rb_tree"* %0) #3
  call void @_ZNSt4pairIPSt18_Rb_tree_node_baseS1_EC2IRS1_S4_Lb1EEEOT_OT0_(%"struct.std::pair.14"* %4, %"struct.std::_Rb_tree_node_base"** dereferenceable(8) %58, %"struct.std::_Rb_tree_node_base"** dereferenceable(8) %59)
  br label %132

60:                                               ; preds = %49
  %61 = getelementptr inbounds %"class.std::_Rb_tree", %"class.std::_Rb_tree"* %0, i32 0, i32 0
  %62 = bitcast %"struct.std::_Rb_tree<point, std::pair<const point, int>, std::_Select1st<std::pair<const point, int> >, std::less<point>, std::allocator<std::pair<const point, int> > >::_Rb_tree_impl"* %61 to %"struct.std::_Rb_tree_key_compare"*
  %63 = getelementptr inbounds %"struct.std::_Rb_tree_key_compare", %"struct.std::_Rb_tree_key_compare"* %62, i32 0, i32 0
  %64 = call dereferenceable(8) %"struct.std::_Rb_tree_iterator"* @_ZNSt17_Rb_tree_iteratorISt4pairIK5pointiEEmmEv(%"struct.std::_Rb_tree_iterator"* %8) #3
  %65 = getelementptr inbounds %"struct.std::_Rb_tree_iterator", %"struct.std::_Rb_tree_iterator"* %64, i32 0, i32 0
  %66 = load %"struct.std::_Rb_tree_node_base"*, %"struct.std::_Rb_tree_node_base"** %65, align 8
  %67 = call dereferenceable(12) %struct.point* @_ZNSt8_Rb_treeI5pointSt4pairIKS0_iESt10_Select1stIS3_ESt4lessIS0_ESaIS3_EE6_S_keyEPKSt18_Rb_tree_node_base(%"struct.std::_Rb_tree_node_base"* %66)
  %68 = call zeroext i1 @_ZNKSt4lessI5pointEclERKS0_S3_(%"struct.std::less"* %63, %struct.point* dereferenceable(12) %67, %struct.point* dereferenceable(12) %2)
  br i1 %68, label %69, label %79

69:                                               ; preds = %60
  %70 = getelementptr inbounds %"struct.std::_Rb_tree_iterator", %"struct.std::_Rb_tree_iterator"* %8, i32 0, i32 0
  %71 = load %"struct.std::_Rb_tree_node_base"*, %"struct.std::_Rb_tree_node_base"** %70, align 8
  %72 = call %"struct.std::_Rb_tree_node"* @_ZNSt8_Rb_treeI5pointSt4pairIKS0_iESt10_Select1stIS3_ESt4lessIS0_ESaIS3_EE8_S_rightEPSt18_Rb_tree_node_base(%"struct.std::_Rb_tree_node_base"* %71) #3
  %73 = icmp eq %"struct.std::_Rb_tree_node"* %72, null
  br i1 %73, label %74, label %76

74:                                               ; preds = %69
  store %"struct.std::_Rb_tree_node_base"* null, %"struct.std::_Rb_tree_node_base"** %9, align 8
  %75 = getelementptr inbounds %"struct.std::_Rb_tree_iterator", %"struct.std::_Rb_tree_iterator"* %8, i32 0, i32 0
  call void @_ZNSt4pairIPSt18_Rb_tree_node_baseS1_EC2IRS1_Lb1EEERKS1_OT_(%"struct.std::pair.14"* %4, %"struct.std::_Rb_tree_node_base"** dereferenceable(8) %9, %"struct.std::_Rb_tree_node_base"** dereferenceable(8) %75)
  br label %132

76:                                               ; preds = %69
  %77 = getelementptr inbounds %"struct.std::_Rb_tree_iterator", %"struct.std::_Rb_tree_iterator"* %6, i32 0, i32 0
  %78 = getelementptr inbounds %"struct.std::_Rb_tree_iterator", %"struct.std::_Rb_tree_iterator"* %6, i32 0, i32 0
  call void @_ZNSt4pairIPSt18_Rb_tree_node_baseS1_EC2IRS1_S4_Lb1EEEOT_OT0_(%"struct.std::pair.14"* %4, %"struct.std::_Rb_tree_node_base"** dereferenceable(8) %77, %"struct.std::_Rb_tree_node_base"** dereferenceable(8) %78)
  br label %132

79:                                               ; preds = %60
  %80 = call { %"struct.std::_Rb_tree_node_base"*, %"struct.std::_Rb_tree_node_base"* } @_ZNSt8_Rb_treeI5pointSt4pairIKS0_iESt10_Select1stIS3_ESt4lessIS0_ESaIS3_EE24_M_get_insert_unique_posERS2_(%"class.std::_Rb_tree"* %0, %struct.point* dereferenceable(12) %2)
  %81 = bitcast %"struct.std::pair.14"* %4 to { %"struct.std::_Rb_tree_node_base"*, %"struct.std::_Rb_tree_node_base"* }*
  %82 = getelementptr inbounds { %"struct.std::_Rb_tree_node_base"*, %"struct.std::_Rb_tree_node_base"* }, { %"struct.std::_Rb_tree_node_base"*, %"struct.std::_Rb_tree_node_base"* }* %81, i32 0, i32 0
  %83 = extractvalue { %"struct.std::_Rb_tree_node_base"*, %"struct.std::_Rb_tree_node_base"* } %80, 0
  store %"struct.std::_Rb_tree_node_base"* %83, %"struct.std::_Rb_tree_node_base"** %82, align 8
  %84 = getelementptr inbounds { %"struct.std::_Rb_tree_node_base"*, %"struct.std::_Rb_tree_node_base"* }, { %"struct.std::_Rb_tree_node_base"*, %"struct.std::_Rb_tree_node_base"* }* %81, i32 0, i32 1
  %85 = extractvalue { %"struct.std::_Rb_tree_node_base"*, %"struct.std::_Rb_tree_node_base"* } %80, 1
  store %"struct.std::_Rb_tree_node_base"* %85, %"struct.std::_Rb_tree_node_base"** %84, align 8
  br label %132

86:                                               ; preds = %41
  %87 = getelementptr inbounds %"class.std::_Rb_tree", %"class.std::_Rb_tree"* %0, i32 0, i32 0
  %88 = bitcast %"struct.std::_Rb_tree<point, std::pair<const point, int>, std::_Select1st<std::pair<const point, int> >, std::less<point>, std::allocator<std::pair<const point, int> > >::_Rb_tree_impl"* %87 to %"struct.std::_Rb_tree_key_compare"*
  %89 = getelementptr inbounds %"struct.std::_Rb_tree_key_compare", %"struct.std::_Rb_tree_key_compare"* %88, i32 0, i32 0
  %90 = getelementptr inbounds %"struct.std::_Rb_tree_iterator", %"struct.std::_Rb_tree_iterator"* %6, i32 0, i32 0
  %91 = load %"struct.std::_Rb_tree_node_base"*, %"struct.std::_Rb_tree_node_base"** %90, align 8
  %92 = call dereferenceable(12) %struct.point* @_ZNSt8_Rb_treeI5pointSt4pairIKS0_iESt10_Select1stIS3_ESt4lessIS0_ESaIS3_EE6_S_keyEPKSt18_Rb_tree_node_base(%"struct.std::_Rb_tree_node_base"* %91)
  %93 = call zeroext i1 @_ZNKSt4lessI5pointEclERKS0_S3_(%"struct.std::less"* %89, %struct.point* dereferenceable(12) %92, %struct.point* dereferenceable(12) %2)
  br i1 %93, label %94, label %130

94:                                               ; preds = %86
  %95 = bitcast %"struct.std::_Rb_tree_iterator"* %10 to i8*
  %96 = bitcast %"struct.std::_Rb_tree_iterator"* %6 to i8*
  call void @llvm.memcpy.p0i8.p0i8.i64(i8* align 8 %95, i8* align 8 %96, i64 8, i1 false)
  %97 = getelementptr inbounds %"struct.std::_Rb_tree_iterator", %"struct.std::_Rb_tree_iterator"* %6, i32 0, i32 0
  %98 = load %"struct.std::_Rb_tree_node_base"*, %"struct.std::_Rb_tree_node_base"** %97, align 8
  %99 = call dereferenceable(8) %"struct.std::_Rb_tree_node_base"** @_ZNSt8_Rb_treeI5pointSt4pairIKS0_iESt10_Select1stIS3_ESt4lessIS0_ESaIS3_EE12_M_rightmostEv(%"class.std::_Rb_tree"* %0) #3
  %100 = load %"struct.std::_Rb_tree_node_base"*, %"struct.std::_Rb_tree_node_base"** %99, align 8
  %101 = icmp eq %"struct.std::_Rb_tree_node_base"* %98, %100
  br i1 %101, label %102, label %104

102:                                              ; preds = %94
  store %"struct.std::_Rb_tree_node_base"* null, %"struct.std::_Rb_tree_node_base"** %11, align 8
  %103 = call dereferenceable(8) %"struct.std::_Rb_tree_node_base"** @_ZNSt8_Rb_treeI5pointSt4pairIKS0_iESt10_Select1stIS3_ESt4lessIS0_ESaIS3_EE12_M_rightmostEv(%"class.std::_Rb_tree"* %0) #3
  call void @_ZNSt4pairIPSt18_Rb_tree_node_baseS1_EC2IRS1_Lb1EEERKS1_OT_(%"struct.std::pair.14"* %4, %"struct.std::_Rb_tree_node_base"** dereferenceable(8) %11, %"struct.std::_Rb_tree_node_base"** dereferenceable(8) %103)
  br label %132

104:                                              ; preds = %94
  %105 = getelementptr inbounds %"class.std::_Rb_tree", %"class.std::_Rb_tree"* %0, i32 0, i32 0
  %106 = bitcast %"struct.std::_Rb_tree<point, std::pair<const point, int>, std::_Select1st<std::pair<const point, int> >, std::less<point>, std::allocator<std::pair<const point, int> > >::_Rb_tree_impl"* %105 to %"struct.std::_Rb_tree_key_compare"*
  %107 = getelementptr inbounds %"struct.std::_Rb_tree_key_compare", %"struct.std::_Rb_tree_key_compare"* %106, i32 0, i32 0
  %108 = call dereferenceable(8) %"struct.std::_Rb_tree_iterator"* @_ZNSt17_Rb_tree_iteratorISt4pairIK5pointiEEppEv(%"struct.std::_Rb_tree_iterator"* %10) #3
  %109 = getelementptr inbounds %"struct.std::_Rb_tree_iterator", %"struct.std::_Rb_tree_iterator"* %108, i32 0, i32 0
  %110 = load %"struct.std::_Rb_tree_node_base"*, %"struct.std::_Rb_tree_node_base"** %109, align 8
  %111 = call dereferenceable(12) %struct.point* @_ZNSt8_Rb_treeI5pointSt4pairIKS0_iESt10_Select1stIS3_ESt4lessIS0_ESaIS3_EE6_S_keyEPKSt18_Rb_tree_node_base(%"struct.std::_Rb_tree_node_base"* %110)
  %112 = call zeroext i1 @_ZNKSt4lessI5pointEclERKS0_S3_(%"struct.std::less"* %107, %struct.point* dereferenceable(12) %2, %struct.point* dereferenceable(12) %111)
  br i1 %112, label %113, label %123

113:                                              ; preds = %104
  %114 = getelementptr inbounds %"struct.std::_Rb_tree_iterator", %"struct.std::_Rb_tree_iterator"* %6, i32 0, i32 0
  %115 = load %"struct.std::_Rb_tree_node_base"*, %"struct.std::_Rb_tree_node_base"** %114, align 8
  %116 = call %"struct.std::_Rb_tree_node"* @_ZNSt8_Rb_treeI5pointSt4pairIKS0_iESt10_Select1stIS3_ESt4lessIS0_ESaIS3_EE8_S_rightEPSt18_Rb_tree_node_base(%"struct.std::_Rb_tree_node_base"* %115) #3
  %117 = icmp eq %"struct.std::_Rb_tree_node"* %116, null
  br i1 %117, label %118, label %120

118:                                              ; preds = %113
  store %"struct.std::_Rb_tree_node_base"* null, %"struct.std::_Rb_tree_node_base"** %12, align 8
  %119 = getelementptr inbounds %"struct.std::_Rb_tree_iterator", %"struct.std::_Rb_tree_iterator"* %6, i32 0, i32 0
  call void @_ZNSt4pairIPSt18_Rb_tree_node_baseS1_EC2IRS1_Lb1EEERKS1_OT_(%"struct.std::pair.14"* %4, %"struct.std::_Rb_tree_node_base"** dereferenceable(8) %12, %"struct.std::_Rb_tree_node_base"** dereferenceable(8) %119)
  br label %132

120:                                              ; preds = %113
  %121 = getelementptr inbounds %"struct.std::_Rb_tree_iterator", %"struct.std::_Rb_tree_iterator"* %10, i32 0, i32 0
  %122 = getelementptr inbounds %"struct.std::_Rb_tree_iterator", %"struct.std::_Rb_tree_iterator"* %10, i32 0, i32 0
  call void @_ZNSt4pairIPSt18_Rb_tree_node_baseS1_EC2IRS1_S4_Lb1EEEOT_OT0_(%"struct.std::pair.14"* %4, %"struct.std::_Rb_tree_node_base"** dereferenceable(8) %121, %"struct.std::_Rb_tree_node_base"** dereferenceable(8) %122)
  br label %132

123:                                              ; preds = %104
  %124 = call { %"struct.std::_Rb_tree_node_base"*, %"struct.std::_Rb_tree_node_base"* } @_ZNSt8_Rb_treeI5pointSt4pairIKS0_iESt10_Select1stIS3_ESt4lessIS0_ESaIS3_EE24_M_get_insert_unique_posERS2_(%"class.std::_Rb_tree"* %0, %struct.point* dereferenceable(12) %2)
  %125 = bitcast %"struct.std::pair.14"* %4 to { %"struct.std::_Rb_tree_node_base"*, %"struct.std::_Rb_tree_node_base"* }*
  %126 = getelementptr inbounds { %"struct.std::_Rb_tree_node_base"*, %"struct.std::_Rb_tree_node_base"* }, { %"struct.std::_Rb_tree_node_base"*, %"struct.std::_Rb_tree_node_base"* }* %125, i32 0, i32 0
  %127 = extractvalue { %"struct.std::_Rb_tree_node_base"*, %"struct.std::_Rb_tree_node_base"* } %124, 0
  store %"struct.std::_Rb_tree_node_base"* %127, %"struct.std::_Rb_tree_node_base"** %126, align 8
  %128 = getelementptr inbounds { %"struct.std::_Rb_tree_node_base"*, %"struct.std::_Rb_tree_node_base"* }, { %"struct.std::_Rb_tree_node_base"*, %"struct.std::_Rb_tree_node_base"* }* %125, i32 0, i32 1
  %129 = extractvalue { %"struct.std::_Rb_tree_node_base"*, %"struct.std::_Rb_tree_node_base"* } %124, 1
  store %"struct.std::_Rb_tree_node_base"* %129, %"struct.std::_Rb_tree_node_base"** %128, align 8
  br label %132

130:                                              ; preds = %86
  %131 = getelementptr inbounds %"struct.std::_Rb_tree_iterator", %"struct.std::_Rb_tree_iterator"* %6, i32 0, i32 0
  store %"struct.std::_Rb_tree_node_base"* null, %"struct.std::_Rb_tree_node_base"** %13, align 8
  call void @_ZNSt4pairIPSt18_Rb_tree_node_baseS1_EC2IRS1_Lb1EEEOT_RKS1_(%"struct.std::pair.14"* %4, %"struct.std::_Rb_tree_node_base"** dereferenceable(8) %131, %"struct.std::_Rb_tree_node_base"** dereferenceable(8) %13)
  br label %132

132:                                              ; preds = %130, %123, %120, %118, %102, %79, %76, %74, %57, %34, %32
  %133 = bitcast %"struct.std::pair.14"* %4 to { %"struct.std::_Rb_tree_node_base"*, %"struct.std::_Rb_tree_node_base"* }*
  %134 = load { %"struct.std::_Rb_tree_node_base"*, %"struct.std::_Rb_tree_node_base"* }, { %"struct.std::_Rb_tree_node_base"*, %"struct.std::_Rb_tree_node_base"* }* %133, align 8
  ret { %"struct.std::_Rb_tree_node_base"*, %"struct.std::_Rb_tree_node_base"* } %134
}

; Function Attrs: noinline uwtable
define linkonce_odr %"struct.std::_Rb_tree_node_base"* @_ZNSt8_Rb_treeI5pointSt4pairIKS0_iESt10_Select1stIS3_ESt4lessIS0_ESaIS3_EE14_M_insert_nodeEPSt18_Rb_tree_node_baseSB_PSt13_Rb_tree_nodeIS3_E(%"class.std::_Rb_tree"* %0, %"struct.std::_Rb_tree_node_base"* %1, %"struct.std::_Rb_tree_node_base"* %2, %"struct.std::_Rb_tree_node"* %3) #2 comdat align 2 {
  %5 = alloca %"struct.std::_Rb_tree_iterator", align 8
  %6 = icmp ne %"struct.std::_Rb_tree_node_base"* %1, null
  br i1 %6, label %17, label %7

7:                                                ; preds = %4
  %8 = call %"struct.std::_Rb_tree_node_base"* @_ZNSt8_Rb_treeI5pointSt4pairIKS0_iESt10_Select1stIS3_ESt4lessIS0_ESaIS3_EE6_M_endEv(%"class.std::_Rb_tree"* %0) #3
  %9 = icmp eq %"struct.std::_Rb_tree_node_base"* %2, %8
  br i1 %9, label %17, label %10

10:                                               ; preds = %7
  %11 = getelementptr inbounds %"class.std::_Rb_tree", %"class.std::_Rb_tree"* %0, i32 0, i32 0
  %12 = bitcast %"struct.std::_Rb_tree<point, std::pair<const point, int>, std::_Select1st<std::pair<const point, int> >, std::less<point>, std::allocator<std::pair<const point, int> > >::_Rb_tree_impl"* %11 to %"struct.std::_Rb_tree_key_compare"*
  %13 = getelementptr inbounds %"struct.std::_Rb_tree_key_compare", %"struct.std::_Rb_tree_key_compare"* %12, i32 0, i32 0
  %14 = call dereferenceable(12) %struct.point* @_ZNSt8_Rb_treeI5pointSt4pairIKS0_iESt10_Select1stIS3_ESt4lessIS0_ESaIS3_EE6_S_keyEPKSt13_Rb_tree_nodeIS3_E(%"struct.std::_Rb_tree_node"* %3)
  %15 = call dereferenceable(12) %struct.point* @_ZNSt8_Rb_treeI5pointSt4pairIKS0_iESt10_Select1stIS3_ESt4lessIS0_ESaIS3_EE6_S_keyEPKSt18_Rb_tree_node_base(%"struct.std::_Rb_tree_node_base"* %2)
  %16 = call zeroext i1 @_ZNKSt4lessI5pointEclERKS0_S3_(%"struct.std::less"* %13, %struct.point* dereferenceable(12) %14, %struct.point* dereferenceable(12) %15)
  br label %17

17:                                               ; preds = %10, %7, %4
  %18 = phi i1 [ true, %7 ], [ true, %4 ], [ %16, %10 ]
  %19 = zext i1 %18 to i8
  %20 = trunc i8 %19 to i1
  %21 = bitcast %"struct.std::_Rb_tree_node"* %3 to %"struct.std::_Rb_tree_node_base"*
  %22 = getelementptr inbounds %"class.std::_Rb_tree", %"class.std::_Rb_tree"* %0, i32 0, i32 0
  %23 = bitcast %"struct.std::_Rb_tree<point, std::pair<const point, int>, std::_Select1st<std::pair<const point, int> >, std::less<point>, std::allocator<std::pair<const point, int> > >::_Rb_tree_impl"* %22 to i8*
  %24 = getelementptr inbounds i8, i8* %23, i64 8
  %25 = bitcast i8* %24 to %"struct.std::_Rb_tree_header"*
  %26 = getelementptr inbounds %"struct.std::_Rb_tree_header", %"struct.std::_Rb_tree_header"* %25, i32 0, i32 0
  call void @_ZSt29_Rb_tree_insert_and_rebalancebPSt18_Rb_tree_node_baseS0_RS_(i1 zeroext %20, %"struct.std::_Rb_tree_node_base"* %21, %"struct.std::_Rb_tree_node_base"* %2, %"struct.std::_Rb_tree_node_base"* dereferenceable(32) %26) #3
  %27 = getelementptr inbounds %"class.std::_Rb_tree", %"class.std::_Rb_tree"* %0, i32 0, i32 0
  %28 = bitcast %"struct.std::_Rb_tree<point, std::pair<const point, int>, std::_Select1st<std::pair<const point, int> >, std::less<point>, std::allocator<std::pair<const point, int> > >::_Rb_tree_impl"* %27 to i8*
  %29 = getelementptr inbounds i8, i8* %28, i64 8
  %30 = bitcast i8* %29 to %"struct.std::_Rb_tree_header"*
  %31 = getelementptr inbounds %"struct.std::_Rb_tree_header", %"struct.std::_Rb_tree_header"* %30, i32 0, i32 1
  %32 = load i64, i64* %31, align 8
  %33 = add i64 %32, 1
  store i64 %33, i64* %31, align 8
  %34 = bitcast %"struct.std::_Rb_tree_node"* %3 to %"struct.std::_Rb_tree_node_base"*
  call void @_ZNSt17_Rb_tree_iteratorISt4pairIK5pointiEEC2EPSt18_Rb_tree_node_base(%"struct.std::_Rb_tree_iterator"* %5, %"struct.std::_Rb_tree_node_base"* %34) #3
  %35 = getelementptr inbounds %"struct.std::_Rb_tree_iterator", %"struct.std::_Rb_tree_iterator"* %5, i32 0, i32 0
  %36 = load %"struct.std::_Rb_tree_node_base"*, %"struct.std::_Rb_tree_node_base"** %35, align 8
  ret %"struct.std::_Rb_tree_node_base"* %36
}

; Function Attrs: noinline uwtable
define linkonce_odr %"struct.std::_Rb_tree_node"* @_ZNSt8_Rb_treeI5pointSt4pairIKS0_iESt10_Select1stIS3_ESt4lessIS0_ESaIS3_EE11_M_get_nodeEv(%"class.std::_Rb_tree"* %0) #2 comdat align 2 {
  %2 = call dereferenceable(1) %"class.std::allocator.0"* @_ZNSt8_Rb_treeI5pointSt4pairIKS0_iESt10_Select1stIS3_ESt4lessIS0_ESaIS3_EE21_M_get_Node_allocatorEv(%"class.std::_Rb_tree"* %0) #3
  %3 = call %"struct.std::_Rb_tree_node"* @_ZNSt16allocator_traitsISaISt13_Rb_tree_nodeISt4pairIK5pointiEEEE8allocateERS6_m(%"class.std::allocator.0"* dereferenceable(1) %2, i64 1)
  ret %"struct.std::_Rb_tree_node"* %3
}

; Function Attrs: noinline uwtable
define linkonce_odr void @_ZNSt8_Rb_treeI5pointSt4pairIKS0_iESt10_Select1stIS3_ESt4lessIS0_ESaIS3_EE17_M_construct_nodeIJRKSt21piecewise_construct_tSt5tupleIJRS2_EESE_IJEEEEEvPSt13_Rb_tree_nodeIS3_EDpOT_(%"class.std::_Rb_tree"* %0, %"struct.std::_Rb_tree_node"* %1, %"struct.std::piecewise_construct_t"* dereferenceable(1) %2, %"class.std::tuple"* dereferenceable(8) %3, %"class.std::tuple.13"* dereferenceable(1) %4) #2 comdat align 2 personality i8* bitcast (i32 (...)* @__gxx_personality_v0 to i8*) {
  %6 = bitcast %"struct.std::_Rb_tree_node"* %1 to i8*
  %7 = bitcast i8* %6 to %"struct.std::_Rb_tree_node"*
  %8 = call dereferenceable(1) %"class.std::allocator.0"* @_ZNSt8_Rb_treeI5pointSt4pairIKS0_iESt10_Select1stIS3_ESt4lessIS0_ESaIS3_EE21_M_get_Node_allocatorEv(%"class.std::_Rb_tree"* %0) #3
  %9 = invoke %"struct.std::pair.7"* @_ZNSt13_Rb_tree_nodeISt4pairIK5pointiEE9_M_valptrEv(%"struct.std::_Rb_tree_node"* %1)
          to label %10 unwind label %15

10:                                               ; preds = %5
  %11 = call dereferenceable(1) %"struct.std::piecewise_construct_t"* @_ZSt7forwardIRKSt21piecewise_construct_tEOT_RNSt16remove_referenceIS3_E4typeE(%"struct.std::piecewise_construct_t"* dereferenceable(1) %2) #3
  %12 = call dereferenceable(8) %"class.std::tuple"* @_ZSt7forwardISt5tupleIJRK5pointEEEOT_RNSt16remove_referenceIS5_E4typeE(%"class.std::tuple"* dereferenceable(8) %3) #3
  %13 = call dereferenceable(1) %"class.std::tuple.13"* @_ZSt7forwardISt5tupleIJEEEOT_RNSt16remove_referenceIS2_E4typeE(%"class.std::tuple.13"* dereferenceable(1) %4) #3
  invoke void @_ZNSt16allocator_traitsISaISt13_Rb_tree_nodeISt4pairIK5pointiEEEE9constructIS4_JRKSt21piecewise_construct_tSt5tupleIJRS3_EESC_IJEEEEEvRS6_PT_DpOT0_(%"class.std::allocator.0"* dereferenceable(1) %8, %"struct.std::pair.7"* %9, %"struct.std::piecewise_construct_t"* dereferenceable(1) %11, %"class.std::tuple"* dereferenceable(8) %12, %"class.std::tuple.13"* dereferenceable(1) %13)
          to label %14 unwind label %15

14:                                               ; preds = %10
  br label %26

15:                                               ; preds = %10, %5
  %16 = landingpad { i8*, i32 }
          catch i8* null
  %17 = extractvalue { i8*, i32 } %16, 0
  %18 = extractvalue { i8*, i32 } %16, 1
  br label %19

19:                                               ; preds = %15
  %20 = call i8* @__cxa_begin_catch(i8* %17) #3
  call void @_ZNSt8_Rb_treeI5pointSt4pairIKS0_iESt10_Select1stIS3_ESt4lessIS0_ESaIS3_EE11_M_put_nodeEPSt13_Rb_tree_nodeIS3_E(%"class.std::_Rb_tree"* %0, %"struct.std::_Rb_tree_node"* %1) #3
  invoke void @__cxa_rethrow() #18
          to label %33 unwind label %21

21:                                               ; preds = %19
  %22 = landingpad { i8*, i32 }
          cleanup
  %23 = extractvalue { i8*, i32 } %22, 0
  %24 = extractvalue { i8*, i32 } %22, 1
  invoke void @__cxa_end_catch()
          to label %25 unwind label %30

25:                                               ; preds = %21
  br label %27

26:                                               ; preds = %14
  ret void

27:                                               ; preds = %25
  %28 = insertvalue { i8*, i32 } undef, i8* %23, 0
  %29 = insertvalue { i8*, i32 } %28, i32 %24, 1
  resume { i8*, i32 } %29

30:                                               ; preds = %21
  %31 = landingpad { i8*, i32 }
          catch i8* null
  %32 = extractvalue { i8*, i32 } %31, 0
  call void @__clang_call_terminate(i8* %32) #15
  unreachable

33:                                               ; preds = %19
  unreachable
}

; Function Attrs: noinline uwtable
define linkonce_odr %"struct.std::_Rb_tree_node"* @_ZNSt16allocator_traitsISaISt13_Rb_tree_nodeISt4pairIK5pointiEEEE8allocateERS6_m(%"class.std::allocator.0"* dereferenceable(1) %0, i64 %1) #2 comdat align 2 {
  %3 = bitcast %"class.std::allocator.0"* %0 to %"class.__gnu_cxx::new_allocator.1"*
  %4 = call %"struct.std::_Rb_tree_node"* @_ZN9__gnu_cxx13new_allocatorISt13_Rb_tree_nodeISt4pairIK5pointiEEE8allocateEmPKv(%"class.__gnu_cxx::new_allocator.1"* %3, i64 %1, i8* null)
  ret %"struct.std::_Rb_tree_node"* %4
}

; Function Attrs: noinline uwtable
define linkonce_odr %"struct.std::_Rb_tree_node"* @_ZN9__gnu_cxx13new_allocatorISt13_Rb_tree_nodeISt4pairIK5pointiEEE8allocateEmPKv(%"class.__gnu_cxx::new_allocator.1"* %0, i64 %1, i8* %2) #2 comdat align 2 {
  %4 = call i64 @_ZNK9__gnu_cxx13new_allocatorISt13_Rb_tree_nodeISt4pairIK5pointiEEE8max_sizeEv(%"class.__gnu_cxx::new_allocator.1"* %0) #3
  %5 = icmp ugt i64 %1, %4
  br i1 %5, label %6, label %7

6:                                                ; preds = %3
  call void @_ZSt17__throw_bad_allocv() #18
  unreachable

7:                                                ; preds = %3
  %8 = mul i64 %1, 48
  %9 = call i8* @_Znwm(i64 %8)
  %10 = bitcast i8* %9 to %"struct.std::_Rb_tree_node"*
  ret %"struct.std::_Rb_tree_node"* %10
}

; Function Attrs: noinline nounwind uwtable
define linkonce_odr i64 @_ZNK9__gnu_cxx13new_allocatorISt13_Rb_tree_nodeISt4pairIK5pointiEEE8max_sizeEv(%"class.__gnu_cxx::new_allocator.1"* %0) #0 comdat align 2 {
  ret i64 384307168202282325
}

; Function Attrs: noinline uwtable
define linkonce_odr void @_ZNSt16allocator_traitsISaISt13_Rb_tree_nodeISt4pairIK5pointiEEEE9constructIS4_JRKSt21piecewise_construct_tSt5tupleIJRS3_EESC_IJEEEEEvRS6_PT_DpOT0_(%"class.std::allocator.0"* dereferenceable(1) %0, %"struct.std::pair.7"* %1, %"struct.std::piecewise_construct_t"* dereferenceable(1) %2, %"class.std::tuple"* dereferenceable(8) %3, %"class.std::tuple.13"* dereferenceable(1) %4) #2 comdat align 2 {
  %6 = bitcast %"class.std::allocator.0"* %0 to %"class.__gnu_cxx::new_allocator.1"*
  %7 = call dereferenceable(1) %"struct.std::piecewise_construct_t"* @_ZSt7forwardIRKSt21piecewise_construct_tEOT_RNSt16remove_referenceIS3_E4typeE(%"struct.std::piecewise_construct_t"* dereferenceable(1) %2) #3
  %8 = call dereferenceable(8) %"class.std::tuple"* @_ZSt7forwardISt5tupleIJRK5pointEEEOT_RNSt16remove_referenceIS5_E4typeE(%"class.std::tuple"* dereferenceable(8) %3) #3
  %9 = call dereferenceable(1) %"class.std::tuple.13"* @_ZSt7forwardISt5tupleIJEEEOT_RNSt16remove_referenceIS2_E4typeE(%"class.std::tuple.13"* dereferenceable(1) %4) #3
  call void @_ZN9__gnu_cxx13new_allocatorISt13_Rb_tree_nodeISt4pairIK5pointiEEE9constructIS5_JRKSt21piecewise_construct_tSt5tupleIJRS4_EESC_IJEEEEEvPT_DpOT0_(%"class.__gnu_cxx::new_allocator.1"* %6, %"struct.std::pair.7"* %1, %"struct.std::piecewise_construct_t"* dereferenceable(1) %7, %"class.std::tuple"* dereferenceable(8) %8, %"class.std::tuple.13"* dereferenceable(1) %9)
  ret void
}

; Function Attrs: noinline uwtable
define linkonce_odr void @_ZN9__gnu_cxx13new_allocatorISt13_Rb_tree_nodeISt4pairIK5pointiEEE9constructIS5_JRKSt21piecewise_construct_tSt5tupleIJRS4_EESC_IJEEEEEvPT_DpOT0_(%"class.__gnu_cxx::new_allocator.1"* %0, %"struct.std::pair.7"* %1, %"struct.std::piecewise_construct_t"* dereferenceable(1) %2, %"class.std::tuple"* dereferenceable(8) %3, %"class.std::tuple.13"* dereferenceable(1) %4) #2 comdat align 2 {
  %6 = alloca %"class.std::tuple", align 8
  %7 = bitcast %"struct.std::pair.7"* %1 to i8*
  %8 = bitcast i8* %7 to %"struct.std::pair.7"*
  %9 = call dereferenceable(1) %"struct.std::piecewise_construct_t"* @_ZSt7forwardIRKSt21piecewise_construct_tEOT_RNSt16remove_referenceIS3_E4typeE(%"struct.std::piecewise_construct_t"* dereferenceable(1) %2) #3
  %10 = call dereferenceable(8) %"class.std::tuple"* @_ZSt7forwardISt5tupleIJRK5pointEEEOT_RNSt16remove_referenceIS5_E4typeE(%"class.std::tuple"* dereferenceable(8) %3) #3
  call void @_ZNSt5tupleIJRK5pointEEC2EOS3_(%"class.std::tuple"* %6, %"class.std::tuple"* dereferenceable(8) %10) #3
  %11 = call dereferenceable(1) %"class.std::tuple.13"* @_ZSt7forwardISt5tupleIJEEEOT_RNSt16remove_referenceIS2_E4typeE(%"class.std::tuple.13"* dereferenceable(1) %4) #3
  call void @_ZNSt4pairIK5pointiEC2IJRS1_EJEEESt21piecewise_construct_tSt5tupleIJDpT_EES6_IJDpT0_EE(%"struct.std::pair.7"* %8, %"class.std::tuple"* %6)
  ret void
}

; Function Attrs: noinline nounwind uwtable
define linkonce_odr void @_ZNSt5tupleIJRK5pointEEC2EOS3_(%"class.std::tuple"* %0, %"class.std::tuple"* dereferenceable(8) %1) unnamed_addr #0 comdat align 2 {
  %3 = bitcast %"class.std::tuple"* %0 to %"struct.std::_Tuple_impl"*
  %4 = bitcast %"class.std::tuple"* %1 to %"struct.std::_Tuple_impl"*
  call void @_ZNSt11_Tuple_implILm0EJRK5pointEEC2EOS3_(%"struct.std::_Tuple_impl"* %3, %"struct.std::_Tuple_impl"* dereferenceable(8) %4) #3
  ret void
}

; Function Attrs: noinline uwtable
define linkonce_odr void @_ZNSt4pairIK5pointiEC2IJRS1_EJEEESt21piecewise_construct_tSt5tupleIJDpT_EES6_IJDpT0_EE(%"struct.std::pair.7"* %0, %"class.std::tuple"* %1) unnamed_addr #2 comdat align 2 {
  %3 = alloca %"class.std::tuple.13", align 1
  call void @_ZNSt4pairIK5pointiEC2IJRS1_EJLm0EEJEJEEERSt5tupleIJDpT_EERS5_IJDpT1_EESt12_Index_tupleIJXspT0_EEESE_IJXspT2_EEE(%"struct.std::pair.7"* %0, %"class.std::tuple"* dereferenceable(8) %1, %"class.std::tuple.13"* dereferenceable(1) %3)
  ret void
}

; Function Attrs: noinline nounwind uwtable
define linkonce_odr void @_ZNSt11_Tuple_implILm0EJRK5pointEEC2EOS3_(%"struct.std::_Tuple_impl"* %0, %"struct.std::_Tuple_impl"* dereferenceable(8) %1) unnamed_addr #0 comdat align 2 personality i8* bitcast (i32 (...)* @__gxx_personality_v0 to i8*) {
  %3 = bitcast %"struct.std::_Tuple_impl"* %0 to %"struct.std::_Head_base"*
  %4 = call dereferenceable(12) %struct.point* @_ZNSt11_Tuple_implILm0EJRK5pointEE7_M_headERS3_(%"struct.std::_Tuple_impl"* dereferenceable(8) %1) #3
  %5 = call dereferenceable(12) %struct.point* @_ZSt7forwardIRK5pointEOT_RNSt16remove_referenceIS3_E4typeE(%struct.point* dereferenceable(12) %4) #3
  invoke void @_ZNSt10_Head_baseILm0ERK5pointLb0EEC2ES2_(%"struct.std::_Head_base"* %3, %struct.point* dereferenceable(12) %5)
          to label %6 unwind label %7

6:                                                ; preds = %2
  ret void

7:                                                ; preds = %2
  %8 = landingpad { i8*, i32 }
          catch i8* null
  %9 = extractvalue { i8*, i32 } %8, 0
  call void @__clang_call_terminate(i8* %9) #15
  unreachable
}

; Function Attrs: noinline nounwind uwtable
define linkonce_odr dereferenceable(12) %struct.point* @_ZNSt11_Tuple_implILm0EJRK5pointEE7_M_headERS3_(%"struct.std::_Tuple_impl"* dereferenceable(8) %0) #0 comdat align 2 {
  %2 = bitcast %"struct.std::_Tuple_impl"* %0 to %"struct.std::_Head_base"*
  %3 = call dereferenceable(12) %struct.point* @_ZNSt10_Head_baseILm0ERK5pointLb0EE7_M_headERS3_(%"struct.std::_Head_base"* dereferenceable(8) %2) #3
  ret %struct.point* %3
}

; Function Attrs: noinline nounwind uwtable
define linkonce_odr void @_ZNSt10_Head_baseILm0ERK5pointLb0EEC2ES2_(%"struct.std::_Head_base"* %0, %struct.point* dereferenceable(12) %1) unnamed_addr #0 comdat align 2 {
  %3 = getelementptr inbounds %"struct.std::_Head_base", %"struct.std::_Head_base"* %0, i32 0, i32 0
  store %struct.point* %1, %struct.point** %3, align 8
  ret void
}

; Function Attrs: noinline nounwind uwtable
define linkonce_odr dereferenceable(12) %struct.point* @_ZNSt10_Head_baseILm0ERK5pointLb0EE7_M_headERS3_(%"struct.std::_Head_base"* dereferenceable(8) %0) #0 comdat align 2 {
  %2 = getelementptr inbounds %"struct.std::_Head_base", %"struct.std::_Head_base"* %0, i32 0, i32 0
  %3 = load %struct.point*, %struct.point** %2, align 8
  ret %struct.point* %3
}

; Function Attrs: noinline nounwind uwtable
define linkonce_odr void @_ZNSt4pairIK5pointiEC2IJRS1_EJLm0EEJEJEEERSt5tupleIJDpT_EERS5_IJDpT1_EESt12_Index_tupleIJXspT0_EEESE_IJXspT2_EEE(%"struct.std::pair.7"* %0, %"class.std::tuple"* dereferenceable(8) %1, %"class.std::tuple.13"* dereferenceable(1) %2) unnamed_addr #0 comdat align 2 {
  %4 = bitcast %"struct.std::pair.7"* %0 to %"class.std::__pair_base.8"*
  %5 = getelementptr inbounds %"struct.std::pair.7", %"struct.std::pair.7"* %0, i32 0, i32 0
  %6 = call dereferenceable(12) %struct.point* @_ZSt3getILm0EJRK5pointEERNSt13tuple_elementIXT_ESt5tupleIJDpT0_EEE4typeERS7_(%"class.std::tuple"* dereferenceable(8) %1) #3
  %7 = call dereferenceable(12) %struct.point* @_ZSt7forwardIRK5pointEOT_RNSt16remove_referenceIS3_E4typeE(%struct.point* dereferenceable(12) %6) #3
  %8 = bitcast %struct.point* %5 to i8*
  %9 = bitcast %struct.point* %7 to i8*
  call void @llvm.memcpy.p0i8.p0i8.i64(i8* align 4 %8, i8* align 4 %9, i64 12, i1 false)
  %10 = getelementptr inbounds %"struct.std::pair.7", %"struct.std::pair.7"* %0, i32 0, i32 1
  store i32 0, i32* %10, align 4
  ret void
}

; Function Attrs: noinline nounwind uwtable
define linkonce_odr dereferenceable(12) %struct.point* @_ZSt3getILm0EJRK5pointEERNSt13tuple_elementIXT_ESt5tupleIJDpT0_EEE4typeERS7_(%"class.std::tuple"* dereferenceable(8) %0) #0 comdat {
  %2 = bitcast %"class.std::tuple"* %0 to %"struct.std::_Tuple_impl"*
  %3 = call dereferenceable(12) %struct.point* @_ZSt12__get_helperILm0ERK5pointJEERT0_RSt11_Tuple_implIXT_EJS3_DpT1_EE(%"struct.std::_Tuple_impl"* dereferenceable(8) %2) #3
  ret %struct.point* %3
}

; Function Attrs: noinline nounwind uwtable
define linkonce_odr dereferenceable(12) %struct.point* @_ZSt12__get_helperILm0ERK5pointJEERT0_RSt11_Tuple_implIXT_EJS3_DpT1_EE(%"struct.std::_Tuple_impl"* dereferenceable(8) %0) #0 comdat {
  %2 = call dereferenceable(12) %struct.point* @_ZNSt11_Tuple_implILm0EJRK5pointEE7_M_headERS3_(%"struct.std::_Tuple_impl"* dereferenceable(8) %0) #3
  ret %struct.point* %2
}

; Function Attrs: noinline nounwind uwtable
define linkonce_odr %"struct.std::_Rb_tree_node_base"* @_ZNKSt23_Rb_tree_const_iteratorISt4pairIK5pointiEE13_M_const_castEv(%"struct.std::_Rb_tree_const_iterator.12"* %0) #0 comdat align 2 {
  %2 = alloca %"struct.std::_Rb_tree_iterator", align 8
  %3 = getelementptr inbounds %"struct.std::_Rb_tree_const_iterator.12", %"struct.std::_Rb_tree_const_iterator.12"* %0, i32 0, i32 0
  %4 = load %"struct.std::_Rb_tree_node_base"*, %"struct.std::_Rb_tree_node_base"** %3, align 8
  call void @_ZNSt17_Rb_tree_iteratorISt4pairIK5pointiEEC2EPSt18_Rb_tree_node_base(%"struct.std::_Rb_tree_iterator"* %2, %"struct.std::_Rb_tree_node_base"* %4) #3
  %5 = getelementptr inbounds %"struct.std::_Rb_tree_iterator", %"struct.std::_Rb_tree_iterator"* %2, i32 0, i32 0
  %6 = load %"struct.std::_Rb_tree_node_base"*, %"struct.std::_Rb_tree_node_base"** %5, align 8
  ret %"struct.std::_Rb_tree_node_base"* %6
}

; Function Attrs: noinline nounwind uwtable
define linkonce_odr i64 @_ZNKSt8_Rb_treeI5pointSt4pairIKS0_iESt10_Select1stIS3_ESt4lessIS0_ESaIS3_EE4sizeEv(%"class.std::_Rb_tree"* %0) #0 comdat align 2 {
  %2 = getelementptr inbounds %"class.std::_Rb_tree", %"class.std::_Rb_tree"* %0, i32 0, i32 0
  %3 = bitcast %"struct.std::_Rb_tree<point, std::pair<const point, int>, std::_Select1st<std::pair<const point, int> >, std::less<point>, std::allocator<std::pair<const point, int> > >::_Rb_tree_impl"* %2 to i8*
  %4 = getelementptr inbounds i8, i8* %3, i64 8
  %5 = bitcast i8* %4 to %"struct.std::_Rb_tree_header"*
  %6 = getelementptr inbounds %"struct.std::_Rb_tree_header", %"struct.std::_Rb_tree_header"* %5, i32 0, i32 1
  %7 = load i64, i64* %6, align 8
  ret i64 %7
}

; Function Attrs: noinline uwtable
define linkonce_odr dereferenceable(12) %struct.point* @_ZNSt8_Rb_treeI5pointSt4pairIKS0_iESt10_Select1stIS3_ESt4lessIS0_ESaIS3_EE6_S_keyEPKSt18_Rb_tree_node_base(%"struct.std::_Rb_tree_node_base"* %0) #2 comdat align 2 {
  %2 = bitcast %"struct.std::_Rb_tree_node_base"* %0 to %"struct.std::_Rb_tree_node"*
  %3 = call dereferenceable(12) %struct.point* @_ZNSt8_Rb_treeI5pointSt4pairIKS0_iESt10_Select1stIS3_ESt4lessIS0_ESaIS3_EE6_S_keyEPKSt13_Rb_tree_nodeIS3_E(%"struct.std::_Rb_tree_node"* %2)
  ret %struct.point* %3
}

; Function Attrs: noinline nounwind uwtable
define linkonce_odr dereferenceable(8) %"struct.std::_Rb_tree_node_base"** @_ZNSt8_Rb_treeI5pointSt4pairIKS0_iESt10_Select1stIS3_ESt4lessIS0_ESaIS3_EE12_M_rightmostEv(%"class.std::_Rb_tree"* %0) #0 comdat align 2 {
  %2 = getelementptr inbounds %"class.std::_Rb_tree", %"class.std::_Rb_tree"* %0, i32 0, i32 0
  %3 = bitcast %"struct.std::_Rb_tree<point, std::pair<const point, int>, std::_Select1st<std::pair<const point, int> >, std::less<point>, std::allocator<std::pair<const point, int> > >::_Rb_tree_impl"* %2 to i8*
  %4 = getelementptr inbounds i8, i8* %3, i64 8
  %5 = bitcast i8* %4 to %"struct.std::_Rb_tree_header"*
  %6 = getelementptr inbounds %"struct.std::_Rb_tree_header", %"struct.std::_Rb_tree_header"* %5, i32 0, i32 0
  %7 = getelementptr inbounds %"struct.std::_Rb_tree_node_base", %"struct.std::_Rb_tree_node_base"* %6, i32 0, i32 3
  ret %"struct.std::_Rb_tree_node_base"** %7
}

; Function Attrs: noinline nounwind uwtable
define linkonce_odr void @_ZNSt4pairIPSt18_Rb_tree_node_baseS1_EC2IRS1_Lb1EEERKS1_OT_(%"struct.std::pair.14"* %0, %"struct.std::_Rb_tree_node_base"** dereferenceable(8) %1, %"struct.std::_Rb_tree_node_base"** dereferenceable(8) %2) unnamed_addr #0 comdat align 2 {
  %4 = bitcast %"struct.std::pair.14"* %0 to %"class.std::__pair_base.15"*
  %5 = getelementptr inbounds %"struct.std::pair.14", %"struct.std::pair.14"* %0, i32 0, i32 0
  %6 = load %"struct.std::_Rb_tree_node_base"*, %"struct.std::_Rb_tree_node_base"** %1, align 8
  store %"struct.std::_Rb_tree_node_base"* %6, %"struct.std::_Rb_tree_node_base"** %5, align 8
  %7 = getelementptr inbounds %"struct.std::pair.14", %"struct.std::pair.14"* %0, i32 0, i32 1
  %8 = call dereferenceable(8) %"struct.std::_Rb_tree_node_base"** @_ZSt7forwardIRPSt18_Rb_tree_node_baseEOT_RNSt16remove_referenceIS3_E4typeE(%"struct.std::_Rb_tree_node_base"** dereferenceable(8) %2) #3
  %9 = load %"struct.std::_Rb_tree_node_base"*, %"struct.std::_Rb_tree_node_base"** %8, align 8
  store %"struct.std::_Rb_tree_node_base"* %9, %"struct.std::_Rb_tree_node_base"** %7, align 8
  ret void
}

; Function Attrs: noinline uwtable
define linkonce_odr { %"struct.std::_Rb_tree_node_base"*, %"struct.std::_Rb_tree_node_base"* } @_ZNSt8_Rb_treeI5pointSt4pairIKS0_iESt10_Select1stIS3_ESt4lessIS0_ESaIS3_EE24_M_get_insert_unique_posERS2_(%"class.std::_Rb_tree"* %0, %struct.point* dereferenceable(12) %1) #2 comdat align 2 {
  %3 = alloca %"struct.std::pair.14", align 8
  %4 = alloca %"struct.std::_Rb_tree_node"*, align 8
  %5 = alloca %"struct.std::_Rb_tree_node_base"*, align 8
  %6 = alloca %"struct.std::_Rb_tree_iterator", align 8
  %7 = alloca %"struct.std::_Rb_tree_iterator", align 8
  %8 = alloca %"struct.std::_Rb_tree_node_base"*, align 8
  %9 = call %"struct.std::_Rb_tree_node"* @_ZNSt8_Rb_treeI5pointSt4pairIKS0_iESt10_Select1stIS3_ESt4lessIS0_ESaIS3_EE8_M_beginEv(%"class.std::_Rb_tree"* %0) #3
  store %"struct.std::_Rb_tree_node"* %9, %"struct.std::_Rb_tree_node"** %4, align 8
  %10 = call %"struct.std::_Rb_tree_node_base"* @_ZNSt8_Rb_treeI5pointSt4pairIKS0_iESt10_Select1stIS3_ESt4lessIS0_ESaIS3_EE6_M_endEv(%"class.std::_Rb_tree"* %0) #3
  store %"struct.std::_Rb_tree_node_base"* %10, %"struct.std::_Rb_tree_node_base"** %5, align 8
  br label %11

11:                                               ; preds = %33, %2
  %.0 = phi i8 [ 1, %2 ], [ %23, %33 ]
  %12 = load %"struct.std::_Rb_tree_node"*, %"struct.std::_Rb_tree_node"** %4, align 8
  %13 = icmp ne %"struct.std::_Rb_tree_node"* %12, null
  br i1 %13, label %14, label %35

14:                                               ; preds = %11
  %15 = load %"struct.std::_Rb_tree_node"*, %"struct.std::_Rb_tree_node"** %4, align 8
  %16 = bitcast %"struct.std::_Rb_tree_node"* %15 to %"struct.std::_Rb_tree_node_base"*
  store %"struct.std::_Rb_tree_node_base"* %16, %"struct.std::_Rb_tree_node_base"** %5, align 8
  %17 = getelementptr inbounds %"class.std::_Rb_tree", %"class.std::_Rb_tree"* %0, i32 0, i32 0
  %18 = bitcast %"struct.std::_Rb_tree<point, std::pair<const point, int>, std::_Select1st<std::pair<const point, int> >, std::less<point>, std::allocator<std::pair<const point, int> > >::_Rb_tree_impl"* %17 to %"struct.std::_Rb_tree_key_compare"*
  %19 = getelementptr inbounds %"struct.std::_Rb_tree_key_compare", %"struct.std::_Rb_tree_key_compare"* %18, i32 0, i32 0
  %20 = load %"struct.std::_Rb_tree_node"*, %"struct.std::_Rb_tree_node"** %4, align 8
  %21 = call dereferenceable(12) %struct.point* @_ZNSt8_Rb_treeI5pointSt4pairIKS0_iESt10_Select1stIS3_ESt4lessIS0_ESaIS3_EE6_S_keyEPKSt13_Rb_tree_nodeIS3_E(%"struct.std::_Rb_tree_node"* %20)
  %22 = call zeroext i1 @_ZNKSt4lessI5pointEclERKS0_S3_(%"struct.std::less"* %19, %struct.point* dereferenceable(12) %1, %struct.point* dereferenceable(12) %21)
  %23 = zext i1 %22 to i8
  %24 = trunc i8 %23 to i1
  br i1 %24, label %25, label %29

25:                                               ; preds = %14
  %26 = load %"struct.std::_Rb_tree_node"*, %"struct.std::_Rb_tree_node"** %4, align 8
  %27 = bitcast %"struct.std::_Rb_tree_node"* %26 to %"struct.std::_Rb_tree_node_base"*
  %28 = call %"struct.std::_Rb_tree_node"* @_ZNSt8_Rb_treeI5pointSt4pairIKS0_iESt10_Select1stIS3_ESt4lessIS0_ESaIS3_EE7_S_leftEPSt18_Rb_tree_node_base(%"struct.std::_Rb_tree_node_base"* %27) #3
  br label %33

29:                                               ; preds = %14
  %30 = load %"struct.std::_Rb_tree_node"*, %"struct.std::_Rb_tree_node"** %4, align 8
  %31 = bitcast %"struct.std::_Rb_tree_node"* %30 to %"struct.std::_Rb_tree_node_base"*
  %32 = call %"struct.std::_Rb_tree_node"* @_ZNSt8_Rb_treeI5pointSt4pairIKS0_iESt10_Select1stIS3_ESt4lessIS0_ESaIS3_EE8_S_rightEPSt18_Rb_tree_node_base(%"struct.std::_Rb_tree_node_base"* %31) #3
  br label %33

33:                                               ; preds = %29, %25
  %34 = phi %"struct.std::_Rb_tree_node"* [ %28, %25 ], [ %32, %29 ]
  store %"struct.std::_Rb_tree_node"* %34, %"struct.std::_Rb_tree_node"** %4, align 8
  br label %11

35:                                               ; preds = %11
  %36 = load %"struct.std::_Rb_tree_node_base"*, %"struct.std::_Rb_tree_node_base"** %5, align 8
  call void @_ZNSt17_Rb_tree_iteratorISt4pairIK5pointiEEC2EPSt18_Rb_tree_node_base(%"struct.std::_Rb_tree_iterator"* %6, %"struct.std::_Rb_tree_node_base"* %36) #3
  %37 = trunc i8 %.0 to i1
  br i1 %37, label %38, label %46

38:                                               ; preds = %35
  %39 = call %"struct.std::_Rb_tree_node_base"* @_ZNSt8_Rb_treeI5pointSt4pairIKS0_iESt10_Select1stIS3_ESt4lessIS0_ESaIS3_EE5beginEv(%"class.std::_Rb_tree"* %0) #3
  %40 = getelementptr inbounds %"struct.std::_Rb_tree_iterator", %"struct.std::_Rb_tree_iterator"* %7, i32 0, i32 0
  store %"struct.std::_Rb_tree_node_base"* %39, %"struct.std::_Rb_tree_node_base"** %40, align 8
  %41 = call zeroext i1 @_ZNKSt17_Rb_tree_iteratorISt4pairIK5pointiEEeqERKS4_(%"struct.std::_Rb_tree_iterator"* %6, %"struct.std::_Rb_tree_iterator"* dereferenceable(8) %7) #3
  br i1 %41, label %42, label %43

42:                                               ; preds = %38
  call void @_ZNSt4pairIPSt18_Rb_tree_node_baseS1_EC2IRPSt13_Rb_tree_nodeIS_IK5pointiEERS1_Lb1EEEOT_OT0_(%"struct.std::pair.14"* %3, %"struct.std::_Rb_tree_node"** dereferenceable(8) %4, %"struct.std::_Rb_tree_node_base"** dereferenceable(8) %5)
  br label %57

43:                                               ; preds = %38
  %44 = call dereferenceable(8) %"struct.std::_Rb_tree_iterator"* @_ZNSt17_Rb_tree_iteratorISt4pairIK5pointiEEmmEv(%"struct.std::_Rb_tree_iterator"* %6) #3
  br label %45

45:                                               ; preds = %43
  br label %46

46:                                               ; preds = %45, %35
  %47 = getelementptr inbounds %"class.std::_Rb_tree", %"class.std::_Rb_tree"* %0, i32 0, i32 0
  %48 = bitcast %"struct.std::_Rb_tree<point, std::pair<const point, int>, std::_Select1st<std::pair<const point, int> >, std::less<point>, std::allocator<std::pair<const point, int> > >::_Rb_tree_impl"* %47 to %"struct.std::_Rb_tree_key_compare"*
  %49 = getelementptr inbounds %"struct.std::_Rb_tree_key_compare", %"struct.std::_Rb_tree_key_compare"* %48, i32 0, i32 0
  %50 = getelementptr inbounds %"struct.std::_Rb_tree_iterator", %"struct.std::_Rb_tree_iterator"* %6, i32 0, i32 0
  %51 = load %"struct.std::_Rb_tree_node_base"*, %"struct.std::_Rb_tree_node_base"** %50, align 8
  %52 = call dereferenceable(12) %struct.point* @_ZNSt8_Rb_treeI5pointSt4pairIKS0_iESt10_Select1stIS3_ESt4lessIS0_ESaIS3_EE6_S_keyEPKSt18_Rb_tree_node_base(%"struct.std::_Rb_tree_node_base"* %51)
  %53 = call zeroext i1 @_ZNKSt4lessI5pointEclERKS0_S3_(%"struct.std::less"* %49, %struct.point* dereferenceable(12) %52, %struct.point* dereferenceable(12) %1)
  br i1 %53, label %54, label %55

54:                                               ; preds = %46
  call void @_ZNSt4pairIPSt18_Rb_tree_node_baseS1_EC2IRPSt13_Rb_tree_nodeIS_IK5pointiEERS1_Lb1EEEOT_OT0_(%"struct.std::pair.14"* %3, %"struct.std::_Rb_tree_node"** dereferenceable(8) %4, %"struct.std::_Rb_tree_node_base"** dereferenceable(8) %5)
  br label %57

55:                                               ; preds = %46
  %56 = getelementptr inbounds %"struct.std::_Rb_tree_iterator", %"struct.std::_Rb_tree_iterator"* %6, i32 0, i32 0
  store %"struct.std::_Rb_tree_node_base"* null, %"struct.std::_Rb_tree_node_base"** %8, align 8
  call void @_ZNSt4pairIPSt18_Rb_tree_node_baseS1_EC2IRS1_Lb1EEEOT_RKS1_(%"struct.std::pair.14"* %3, %"struct.std::_Rb_tree_node_base"** dereferenceable(8) %56, %"struct.std::_Rb_tree_node_base"** dereferenceable(8) %8)
  br label %57

57:                                               ; preds = %55, %54, %42
  %58 = bitcast %"struct.std::pair.14"* %3 to { %"struct.std::_Rb_tree_node_base"*, %"struct.std::_Rb_tree_node_base"* }*
  %59 = load { %"struct.std::_Rb_tree_node_base"*, %"struct.std::_Rb_tree_node_base"* }, { %"struct.std::_Rb_tree_node_base"*, %"struct.std::_Rb_tree_node_base"* }* %58, align 8
  ret { %"struct.std::_Rb_tree_node_base"*, %"struct.std::_Rb_tree_node_base"* } %59
}

; Function Attrs: noinline nounwind uwtable
define linkonce_odr dereferenceable(8) %"struct.std::_Rb_tree_node_base"** @_ZNSt8_Rb_treeI5pointSt4pairIKS0_iESt10_Select1stIS3_ESt4lessIS0_ESaIS3_EE11_M_leftmostEv(%"class.std::_Rb_tree"* %0) #0 comdat align 2 {
  %2 = getelementptr inbounds %"class.std::_Rb_tree", %"class.std::_Rb_tree"* %0, i32 0, i32 0
  %3 = bitcast %"struct.std::_Rb_tree<point, std::pair<const point, int>, std::_Select1st<std::pair<const point, int> >, std::less<point>, std::allocator<std::pair<const point, int> > >::_Rb_tree_impl"* %2 to i8*
  %4 = getelementptr inbounds i8, i8* %3, i64 8
  %5 = bitcast i8* %4 to %"struct.std::_Rb_tree_header"*
  %6 = getelementptr inbounds %"struct.std::_Rb_tree_header", %"struct.std::_Rb_tree_header"* %5, i32 0, i32 0
  %7 = getelementptr inbounds %"struct.std::_Rb_tree_node_base", %"struct.std::_Rb_tree_node_base"* %6, i32 0, i32 2
  ret %"struct.std::_Rb_tree_node_base"** %7
}

; Function Attrs: noinline nounwind uwtable
define linkonce_odr void @_ZNSt4pairIPSt18_Rb_tree_node_baseS1_EC2IRS1_S4_Lb1EEEOT_OT0_(%"struct.std::pair.14"* %0, %"struct.std::_Rb_tree_node_base"** dereferenceable(8) %1, %"struct.std::_Rb_tree_node_base"** dereferenceable(8) %2) unnamed_addr #0 comdat align 2 {
  %4 = bitcast %"struct.std::pair.14"* %0 to %"class.std::__pair_base.15"*
  %5 = getelementptr inbounds %"struct.std::pair.14", %"struct.std::pair.14"* %0, i32 0, i32 0
  %6 = call dereferenceable(8) %"struct.std::_Rb_tree_node_base"** @_ZSt7forwardIRPSt18_Rb_tree_node_baseEOT_RNSt16remove_referenceIS3_E4typeE(%"struct.std::_Rb_tree_node_base"** dereferenceable(8) %1) #3
  %7 = load %"struct.std::_Rb_tree_node_base"*, %"struct.std::_Rb_tree_node_base"** %6, align 8
  store %"struct.std::_Rb_tree_node_base"* %7, %"struct.std::_Rb_tree_node_base"** %5, align 8
  %8 = getelementptr inbounds %"struct.std::pair.14", %"struct.std::pair.14"* %0, i32 0, i32 1
  %9 = call dereferenceable(8) %"struct.std::_Rb_tree_node_base"** @_ZSt7forwardIRPSt18_Rb_tree_node_baseEOT_RNSt16remove_referenceIS3_E4typeE(%"struct.std::_Rb_tree_node_base"** dereferenceable(8) %2) #3
  %10 = load %"struct.std::_Rb_tree_node_base"*, %"struct.std::_Rb_tree_node_base"** %9, align 8
  store %"struct.std::_Rb_tree_node_base"* %10, %"struct.std::_Rb_tree_node_base"** %8, align 8
  ret void
}

; Function Attrs: noinline nounwind uwtable
define linkonce_odr dereferenceable(8) %"struct.std::_Rb_tree_iterator"* @_ZNSt17_Rb_tree_iteratorISt4pairIK5pointiEEmmEv(%"struct.std::_Rb_tree_iterator"* %0) #0 comdat align 2 {
  %2 = getelementptr inbounds %"struct.std::_Rb_tree_iterator", %"struct.std::_Rb_tree_iterator"* %0, i32 0, i32 0
  %3 = load %"struct.std::_Rb_tree_node_base"*, %"struct.std::_Rb_tree_node_base"** %2, align 8
  %4 = call %"struct.std::_Rb_tree_node_base"* @_ZSt18_Rb_tree_decrementPSt18_Rb_tree_node_base(%"struct.std::_Rb_tree_node_base"* %3) #17
  %5 = getelementptr inbounds %"struct.std::_Rb_tree_iterator", %"struct.std::_Rb_tree_iterator"* %0, i32 0, i32 0
  store %"struct.std::_Rb_tree_node_base"* %4, %"struct.std::_Rb_tree_node_base"** %5, align 8
  ret %"struct.std::_Rb_tree_iterator"* %0
}

; Function Attrs: noinline nounwind uwtable
define linkonce_odr void @_ZNSt4pairIPSt18_Rb_tree_node_baseS1_EC2IRS1_Lb1EEEOT_RKS1_(%"struct.std::pair.14"* %0, %"struct.std::_Rb_tree_node_base"** dereferenceable(8) %1, %"struct.std::_Rb_tree_node_base"** dereferenceable(8) %2) unnamed_addr #0 comdat align 2 {
  %4 = bitcast %"struct.std::pair.14"* %0 to %"class.std::__pair_base.15"*
  %5 = getelementptr inbounds %"struct.std::pair.14", %"struct.std::pair.14"* %0, i32 0, i32 0
  %6 = call dereferenceable(8) %"struct.std::_Rb_tree_node_base"** @_ZSt7forwardIRPSt18_Rb_tree_node_baseEOT_RNSt16remove_referenceIS3_E4typeE(%"struct.std::_Rb_tree_node_base"** dereferenceable(8) %1) #3
  %7 = load %"struct.std::_Rb_tree_node_base"*, %"struct.std::_Rb_tree_node_base"** %6, align 8
  store %"struct.std::_Rb_tree_node_base"* %7, %"struct.std::_Rb_tree_node_base"** %5, align 8
  %8 = getelementptr inbounds %"struct.std::pair.14", %"struct.std::pair.14"* %0, i32 0, i32 1
  %9 = load %"struct.std::_Rb_tree_node_base"*, %"struct.std::_Rb_tree_node_base"** %2, align 8
  store %"struct.std::_Rb_tree_node_base"* %9, %"struct.std::_Rb_tree_node_base"** %8, align 8
  ret void
}

; Function Attrs: noinline nounwind uwtable
define linkonce_odr dereferenceable(8) %"struct.std::_Rb_tree_node_base"** @_ZSt7forwardIRPSt18_Rb_tree_node_baseEOT_RNSt16remove_referenceIS3_E4typeE(%"struct.std::_Rb_tree_node_base"** dereferenceable(8) %0) #0 comdat {
  ret %"struct.std::_Rb_tree_node_base"** %0
}

; Function Attrs: noinline nounwind uwtable
define linkonce_odr %"struct.std::_Rb_tree_node_base"* @_ZNSt8_Rb_treeI5pointSt4pairIKS0_iESt10_Select1stIS3_ESt4lessIS0_ESaIS3_EE5beginEv(%"class.std::_Rb_tree"* %0) #0 comdat align 2 {
  %2 = alloca %"struct.std::_Rb_tree_iterator", align 8
  %3 = getelementptr inbounds %"class.std::_Rb_tree", %"class.std::_Rb_tree"* %0, i32 0, i32 0
  %4 = bitcast %"struct.std::_Rb_tree<point, std::pair<const point, int>, std::_Select1st<std::pair<const point, int> >, std::less<point>, std::allocator<std::pair<const point, int> > >::_Rb_tree_impl"* %3 to i8*
  %5 = getelementptr inbounds i8, i8* %4, i64 8
  %6 = bitcast i8* %5 to %"struct.std::_Rb_tree_header"*
  %7 = getelementptr inbounds %"struct.std::_Rb_tree_header", %"struct.std::_Rb_tree_header"* %6, i32 0, i32 0
  %8 = getelementptr inbounds %"struct.std::_Rb_tree_node_base", %"struct.std::_Rb_tree_node_base"* %7, i32 0, i32 2
  %9 = load %"struct.std::_Rb_tree_node_base"*, %"struct.std::_Rb_tree_node_base"** %8, align 8
  call void @_ZNSt17_Rb_tree_iteratorISt4pairIK5pointiEEC2EPSt18_Rb_tree_node_base(%"struct.std::_Rb_tree_iterator"* %2, %"struct.std::_Rb_tree_node_base"* %9) #3
  %10 = getelementptr inbounds %"struct.std::_Rb_tree_iterator", %"struct.std::_Rb_tree_iterator"* %2, i32 0, i32 0
  %11 = load %"struct.std::_Rb_tree_node_base"*, %"struct.std::_Rb_tree_node_base"** %10, align 8
  ret %"struct.std::_Rb_tree_node_base"* %11
}

; Function Attrs: noinline nounwind uwtable
define linkonce_odr void @_ZNSt4pairIPSt18_Rb_tree_node_baseS1_EC2IRPSt13_Rb_tree_nodeIS_IK5pointiEERS1_Lb1EEEOT_OT0_(%"struct.std::pair.14"* %0, %"struct.std::_Rb_tree_node"** dereferenceable(8) %1, %"struct.std::_Rb_tree_node_base"** dereferenceable(8) %2) unnamed_addr #0 comdat align 2 {
  %4 = bitcast %"struct.std::pair.14"* %0 to %"class.std::__pair_base.15"*
  %5 = getelementptr inbounds %"struct.std::pair.14", %"struct.std::pair.14"* %0, i32 0, i32 0
  %6 = call dereferenceable(8) %"struct.std::_Rb_tree_node"** @_ZSt7forwardIRPSt13_Rb_tree_nodeISt4pairIK5pointiEEEOT_RNSt16remove_referenceIS8_E4typeE(%"struct.std::_Rb_tree_node"** dereferenceable(8) %1) #3
  %7 = load %"struct.std::_Rb_tree_node"*, %"struct.std::_Rb_tree_node"** %6, align 8
  %8 = bitcast %"struct.std::_Rb_tree_node"* %7 to %"struct.std::_Rb_tree_node_base"*
  store %"struct.std::_Rb_tree_node_base"* %8, %"struct.std::_Rb_tree_node_base"** %5, align 8
  %9 = getelementptr inbounds %"struct.std::pair.14", %"struct.std::pair.14"* %0, i32 0, i32 1
  %10 = call dereferenceable(8) %"struct.std::_Rb_tree_node_base"** @_ZSt7forwardIRPSt18_Rb_tree_node_baseEOT_RNSt16remove_referenceIS3_E4typeE(%"struct.std::_Rb_tree_node_base"** dereferenceable(8) %2) #3
  %11 = load %"struct.std::_Rb_tree_node_base"*, %"struct.std::_Rb_tree_node_base"** %10, align 8
  store %"struct.std::_Rb_tree_node_base"* %11, %"struct.std::_Rb_tree_node_base"** %9, align 8
  ret void
}

; Function Attrs: noinline nounwind uwtable
define linkonce_odr dereferenceable(8) %"struct.std::_Rb_tree_node"** @_ZSt7forwardIRPSt13_Rb_tree_nodeISt4pairIK5pointiEEEOT_RNSt16remove_referenceIS8_E4typeE(%"struct.std::_Rb_tree_node"** dereferenceable(8) %0) #0 comdat {
  ret %"struct.std::_Rb_tree_node"** %0
}

; Function Attrs: nounwind readonly
declare %"struct.std::_Rb_tree_node_base"* @_ZSt18_Rb_tree_decrementPSt18_Rb_tree_node_base(%"struct.std::_Rb_tree_node_base"*) #12

; Function Attrs: nounwind
declare void @_ZSt29_Rb_tree_insert_and_rebalancebPSt18_Rb_tree_node_baseS0_RS_(i1 zeroext, %"struct.std::_Rb_tree_node_base"*, %"struct.std::_Rb_tree_node_base"*, %"struct.std::_Rb_tree_node_base"* dereferenceable(32)) #13

