; ModuleID = '/home/pedro/tcc/exDataset/codenet/data/selection/p01825/s992024726.ll'
source_filename = "/home/pedro/tcc/exDataset/codenet/data/selection/p01825/s992024726.cpp"
target datalayout = "e-m:e-i64:64-f80:128-n8:16:32:64-S128"
target triple = "x86_64-pc-linux-gnu"

%"class.std::ios_base::Init" = type { i8 }
%"class.std::vector" = type { %"struct.std::_Vector_base" }
%"struct.std::_Vector_base" = type { %"struct.std::_Vector_base<std::vector<Edge, std::allocator<Edge> >, std::allocator<std::vector<Edge, std::allocator<Edge> > > >::_Vector_impl" }
%"struct.std::_Vector_base<std::vector<Edge, std::allocator<Edge> >, std::allocator<std::vector<Edge, std::allocator<Edge> > > >::_Vector_impl" = type { %"class.std::vector.0"*, %"class.std::vector.0"*, %"class.std::vector.0"* }
%"class.std::vector.0" = type { %"struct.std::_Vector_base.1" }
%"struct.std::_Vector_base.1" = type { %"struct.std::_Vector_base<Edge, std::allocator<Edge> >::_Vector_impl" }
%"struct.std::_Vector_base<Edge, std::allocator<Edge> >::_Vector_impl" = type { %struct.Edge*, %struct.Edge*, %struct.Edge* }
%struct.Edge = type { i64, i64, double, i64 }
%"class.std::basic_ostream" = type { i32 (...)**, %"class.std::basic_ios" }
%"class.std::basic_ios" = type { %"class.std::ios_base", %"class.std::basic_ostream"*, i8, i8, %"class.std::basic_streambuf"*, %"class.std::ctype"*, %"class.std::num_put"*, %"class.std::num_get"* }
%"class.std::ios_base" = type { i32 (...)**, i64, i64, i32, i32, i32, %"struct.std::ios_base::_Callback_list"*, %"struct.std::ios_base::_Words", [8 x %"struct.std::ios_base::_Words"], i32, %"struct.std::ios_base::_Words"*, %"class.std::locale" }
%"struct.std::ios_base::_Callback_list" = type { %"struct.std::ios_base::_Callback_list"*, void (i32, %"class.std::ios_base"*, i32)*, i32, i32 }
%"struct.std::ios_base::_Words" = type { i8*, i64 }
%"class.std::locale" = type { %"class.std::locale::_Impl"* }
%"class.std::locale::_Impl" = type { i32, %"class.std::locale::facet"**, i64, %"class.std::locale::facet"**, i8** }
%"class.std::locale::facet" = type <{ i32 (...)**, i32, [4 x i8] }>
%"class.std::basic_streambuf" = type { i32 (...)**, i8*, i8*, i8*, i8*, i8*, i8*, %"class.std::locale" }
%"class.std::ctype" = type <{ %"class.std::locale::facet.base", [4 x i8], %struct.__locale_struct*, i8, [7 x i8], i32*, i32*, i16*, i8, [256 x i8], [256 x i8], i8, [6 x i8] }>
%"class.std::locale::facet.base" = type <{ i32 (...)**, i32 }>
%struct.__locale_struct = type { [13 x %struct.__locale_data*], i16*, i32*, i32*, [13 x i8*] }
%struct.__locale_data = type opaque
%"class.std::num_put" = type { %"class.std::locale::facet.base", [4 x i8] }
%"class.std::num_get" = type { %"class.std::locale::facet.base", [4 x i8] }
%"class.std::basic_istream" = type { i32 (...)**, i64, %"class.std::basic_ios" }
%"class.std::allocator" = type { i8 }
%"class.std::priority_queue" = type <{ %"class.std::vector.5", %"struct.std::greater", [7 x i8] }>
%"class.std::vector.5" = type { %"struct.std::_Vector_base.6" }
%"struct.std::_Vector_base.6" = type { %"struct.std::_Vector_base<std::pair<double, long long>, std::allocator<std::pair<double, long long> > >::_Vector_impl" }
%"struct.std::_Vector_base<std::pair<double, long long>, std::allocator<std::pair<double, long long> > >::_Vector_impl" = type { %"struct.std::pair"*, %"struct.std::pair"*, %"struct.std::pair"* }
%"struct.std::pair" = type { double, i64 }
%"struct.std::greater" = type { i8 }
%"class.__gnu_cxx::__normal_iterator.23" = type { %"struct.std::pair"* }
%"class.std::__pair_base" = type { i8 }
%"struct.std::complex" = type { { double, double } }
%"class.std::vector.10" = type { %"struct.std::_Vector_base.11" }
%"struct.std::_Vector_base.11" = type { %"struct.std::_Vector_base<std::pair<std::complex<double>, std::complex<double> >, std::allocator<std::pair<std::complex<double>, std::complex<double> > > >::_Vector_impl" }
%"struct.std::_Vector_base<std::pair<std::complex<double>, std::complex<double> >, std::allocator<std::pair<std::complex<double>, std::complex<double> > > >::_Vector_impl" = type { %"struct.std::pair.15"*, %"struct.std::pair.15"*, %"struct.std::pair.15"* }
%"struct.std::pair.15" = type { %"struct.std::complex", %"struct.std::complex" }
%"class.std::allocator.12" = type { i8 }
%"class.std::vector.18" = type { %"struct.std::_Vector_base.19" }
%"struct.std::_Vector_base.19" = type { %"struct.std::_Vector_base<int, std::allocator<int> >::_Vector_impl" }
%"struct.std::_Vector_base<int, std::allocator<int> >::_Vector_impl" = type { i32*, i32*, i32* }
%"class.std::allocator.20" = type { i8 }
%"struct.std::_Setprecision" = type { i32 }
%"class.__gnu_cxx::new_allocator.13" = type { i8 }
%"class.__gnu_cxx::new_allocator.21" = type { i8 }
%"class.std::allocator.7" = type { i8 }
%"class.__gnu_cxx::new_allocator.8" = type { i8 }
%"class.__gnu_cxx::new_allocator" = type { i8 }
%"class.std::allocator.2" = type { i8 }
%"class.__gnu_cxx::new_allocator.3" = type { i8 }
%"class.__gnu_cxx::__normal_iterator" = type { %struct.Edge* }
%"class.std::move_iterator" = type { %struct.Edge* }
%"struct.__gnu_cxx::__ops::_Iter_comp_val" = type { %"struct.std::greater" }
%"class.std::move_iterator.24" = type { %"struct.std::pair"* }
%"class.__gnu_cxx::__normal_iterator.25" = type { %"struct.std::pair"* }
%"struct.__gnu_cxx::__ops::_Iter_comp_iter" = type { %"struct.std::greater" }
%"class.std::__pair_base.16" = type { i8 }
%"class.std::move_iterator.26" = type { %"class.std::vector.0"* }

$_ZSt4acosIiEN9__gnu_cxx11__enable_ifIXsr12__is_integerIT_EE7__valueEdE6__typeES2_ = comdat any

$_ZNSt6vectorIS_I4EdgeSaIS0_EESaIS2_EEC2Ev = comdat any

$_ZNSt6vectorIS_I4EdgeSaIS0_EESaIS2_EED2Ev = comdat any

$_ZNSt6vectorIS_I4EdgeSaIS0_EESaIS2_EEixEm = comdat any

$_ZNSt6vectorI4EdgeSaIS0_EE9push_backEOS0_ = comdat any

$_ZNKSt6vectorI4EdgeSaIS0_EE4sizeEv = comdat any

$_ZSt6fill_nIPdiiET_S1_T0_RKT1_ = comdat any

$_ZNSt14priority_queueISt4pairIdxESt6vectorIS1_SaIS1_EESt7greaterIS1_EEC2IS4_vEEv = comdat any

$_ZNSt14priority_queueISt4pairIdxESt6vectorIS1_SaIS1_EESt7greaterIS1_EE4pushEOS1_ = comdat any

$_ZNSt4pairIdxEC2IiRxLb1EEEOT_OT0_ = comdat any

$_ZNKSt14priority_queueISt4pairIdxESt6vectorIS1_SaIS1_EESt7greaterIS1_EE5emptyEv = comdat any

$_ZNKSt14priority_queueISt4pairIdxESt6vectorIS1_SaIS1_EESt7greaterIS1_EE3topEv = comdat any

$_ZNSt14priority_queueISt4pairIdxESt6vectorIS1_SaIS1_EESt7greaterIS1_EE3popEv = comdat any

$_ZNSt6vectorI4EdgeSaIS0_EEixEm = comdat any

$_ZNSt4pairIdxEC2IRdRxLb1EEEOT_OT0_ = comdat any

$_ZNKSt6vectorIS_I4EdgeSaIS0_EESaIS2_EE4sizeEv = comdat any

$_ZSt3absd = comdat any

$_ZSt3minIxERKT_S2_S2_ = comdat any

$_ZNSt14priority_queueISt4pairIdxESt6vectorIS1_SaIS1_EESt7greaterIS1_EED2Ev = comdat any

$_ZNSt7complexIdEC2Edd = comdat any

$_ZrsIdERSiS0_RSt7complexIT_E = comdat any

$_ZNSaISt4pairISt7complexIdES1_EEC2Ev = comdat any

$_ZNSt6vectorISt4pairISt7complexIdES2_ESaIS3_EEC2EmRKS4_ = comdat any

$_ZNSaISt4pairISt7complexIdES1_EED2Ev = comdat any

$_ZNSt6vectorISt4pairISt7complexIdES2_ESaIS3_EEixEm = comdat any

$_ZSt3absIdET_RKSt7complexIS0_E = comdat any

$_ZStmiIdESt7complexIT_ERKS2_S4_ = comdat any

$_ZNSaIiEC2Ev = comdat any

$_ZNSt6vectorIiSaIiEEC2EmRKS0_ = comdat any

$_ZNSaIiED2Ev = comdat any

$_ZNSt6vectorIiSaIiEEixEm = comdat any

$_ZNSt6vectorIS_I4EdgeSaIS0_EESaIS2_EE5clearEv = comdat any

$_ZNSt6vectorIS_I4EdgeSaIS0_EESaIS2_EE6resizeEm = comdat any

$_ZSt5fixedRSt8ios_base = comdat any

$_ZSt12setprecisioni = comdat any

$_ZNSt6vectorIiSaIiEED2Ev = comdat any

$_ZNSt6vectorISt4pairISt7complexIdES2_ESaIS3_EED2Ev = comdat any

$_ZSt7forwardIiEOT_RNSt16remove_referenceIS0_E4typeE = comdat any

$_ZSt7forwardIRxEOT_RNSt16remove_referenceIS1_E4typeE = comdat any

$_ZSt7forwardIRdEOT_RNSt16remove_referenceIS1_E4typeE = comdat any

$_ZNSt6vectorISt4pairIdxESaIS1_EED2Ev = comdat any

$_ZSt8_DestroyIPSt4pairIdxES1_EvT_S3_RSaIT0_E = comdat any

$_ZNSt12_Vector_baseISt4pairIdxESaIS1_EE19_M_get_Tp_allocatorEv = comdat any

$_ZNSt12_Vector_baseISt4pairIdxESaIS1_EED2Ev = comdat any

$__clang_call_terminate = comdat any

$_ZSt8_DestroyIPSt4pairIdxEEvT_S3_ = comdat any

$_ZNSt12_Destroy_auxILb1EE9__destroyIPSt4pairIdxEEEvT_S5_ = comdat any

$_ZNSt12_Vector_baseISt4pairIdxESaIS1_EE13_M_deallocateEPS1_m = comdat any

$_ZNSt12_Vector_baseISt4pairIdxESaIS1_EE12_Vector_implD2Ev = comdat any

$_ZNSt16allocator_traitsISaISt4pairIdxEEE10deallocateERS2_PS1_m = comdat any

$_ZN9__gnu_cxx13new_allocatorISt4pairIdxEE10deallocateEPS2_m = comdat any

$_ZNSaISt4pairIdxEED2Ev = comdat any

$_ZN9__gnu_cxx13new_allocatorISt4pairIdxEED2Ev = comdat any

$_ZNSt8ios_base4setfESt13_Ios_FmtflagsS0_ = comdat any

$_ZStaNRSt13_Ios_FmtflagsS_ = comdat any

$_ZStcoSt13_Ios_Fmtflags = comdat any

$_ZStoRRSt13_Ios_FmtflagsS_ = comdat any

$_ZStanSt13_Ios_FmtflagsS_ = comdat any

$_ZStorSt13_Ios_FmtflagsS_ = comdat any

$_ZN9__gnu_cxx13new_allocatorIiEC2Ev = comdat any

$_ZN9__gnu_cxx13new_allocatorIiED2Ev = comdat any

$_ZNSt12_Vector_baseISt6vectorI4EdgeSaIS1_EESaIS3_EEC2Ev = comdat any

$_ZNSt12_Vector_baseISt6vectorI4EdgeSaIS1_EESaIS3_EE12_Vector_implC2Ev = comdat any

$_ZNSaISt6vectorI4EdgeSaIS0_EEEC2Ev = comdat any

$_ZN9__gnu_cxx13new_allocatorISt6vectorI4EdgeSaIS2_EEEC2Ev = comdat any

$_ZSt8_DestroyIPSt6vectorI4EdgeSaIS1_EES3_EvT_S5_RSaIT0_E = comdat any

$_ZNSt12_Vector_baseISt6vectorI4EdgeSaIS1_EESaIS3_EE19_M_get_Tp_allocatorEv = comdat any

$_ZNSt12_Vector_baseISt6vectorI4EdgeSaIS1_EESaIS3_EED2Ev = comdat any

$_ZSt8_DestroyIPSt6vectorI4EdgeSaIS1_EEEvT_S5_ = comdat any

$_ZNSt12_Destroy_auxILb0EE9__destroyIPSt6vectorI4EdgeSaIS3_EEEEvT_S7_ = comdat any

$_ZSt8_DestroyISt6vectorI4EdgeSaIS1_EEEvPT_ = comdat any

$_ZSt11__addressofISt6vectorI4EdgeSaIS1_EEEPT_RS4_ = comdat any

$_ZNSt6vectorI4EdgeSaIS0_EED2Ev = comdat any

$_ZSt8_DestroyIP4EdgeS0_EvT_S2_RSaIT0_E = comdat any

$_ZNSt12_Vector_baseI4EdgeSaIS0_EE19_M_get_Tp_allocatorEv = comdat any

$_ZNSt12_Vector_baseI4EdgeSaIS0_EED2Ev = comdat any

$_ZSt8_DestroyIP4EdgeEvT_S2_ = comdat any

$_ZNSt12_Destroy_auxILb1EE9__destroyIP4EdgeEEvT_S4_ = comdat any

$_ZNSt12_Vector_baseI4EdgeSaIS0_EE13_M_deallocateEPS0_m = comdat any

$_ZNSt12_Vector_baseI4EdgeSaIS0_EE12_Vector_implD2Ev = comdat any

$_ZNSt16allocator_traitsISaI4EdgeEE10deallocateERS1_PS0_m = comdat any

$_ZN9__gnu_cxx13new_allocatorI4EdgeE10deallocateEPS1_m = comdat any

$_ZNSaI4EdgeED2Ev = comdat any

$_ZN9__gnu_cxx13new_allocatorI4EdgeED2Ev = comdat any

$_ZNSt12_Vector_baseISt6vectorI4EdgeSaIS1_EESaIS3_EE13_M_deallocateEPS3_m = comdat any

$_ZNSt12_Vector_baseISt6vectorI4EdgeSaIS1_EESaIS3_EE12_Vector_implD2Ev = comdat any

$_ZNSt16allocator_traitsISaISt6vectorI4EdgeSaIS1_EEEE10deallocateERS4_PS3_m = comdat any

$_ZN9__gnu_cxx13new_allocatorISt6vectorI4EdgeSaIS2_EEE10deallocateEPS4_m = comdat any

$_ZNSaISt6vectorI4EdgeSaIS0_EEED2Ev = comdat any

$_ZN9__gnu_cxx13new_allocatorISt6vectorI4EdgeSaIS2_EEED2Ev = comdat any

$_ZNSt6vectorI4EdgeSaIS0_EE12emplace_backIJS0_EEEvDpOT_ = comdat any

$_ZSt4moveIR4EdgeEONSt16remove_referenceIT_E4typeEOS3_ = comdat any

$_ZNSt16allocator_traitsISaI4EdgeEE9constructIS0_JS0_EEEvRS1_PT_DpOT0_ = comdat any

$_ZSt7forwardI4EdgeEOT_RNSt16remove_referenceIS1_E4typeE = comdat any

$_ZNSt6vectorI4EdgeSaIS0_EE17_M_realloc_insertIJS0_EEEvN9__gnu_cxx17__normal_iteratorIPS0_S2_EEDpOT_ = comdat any

$_ZNSt6vectorI4EdgeSaIS0_EE3endEv = comdat any

$_ZN9__gnu_cxx13new_allocatorI4EdgeE9constructIS1_JS1_EEEvPT_DpOT0_ = comdat any

$_ZNKSt6vectorI4EdgeSaIS0_EE12_M_check_lenEmPKc = comdat any

$_ZN9__gnu_cxxmiIP4EdgeSt6vectorIS1_SaIS1_EEEENS_17__normal_iteratorIT_T0_E15difference_typeERKS9_SC_ = comdat any

$_ZNSt6vectorI4EdgeSaIS0_EE5beginEv = comdat any

$_ZNSt12_Vector_baseI4EdgeSaIS0_EE11_M_allocateEm = comdat any

$_ZSt34__uninitialized_move_if_noexcept_aIP4EdgeS1_SaIS0_EET0_T_S4_S3_RT1_ = comdat any

$_ZNK9__gnu_cxx17__normal_iteratorIP4EdgeSt6vectorIS1_SaIS1_EEE4baseEv = comdat any

$_ZNSt16allocator_traitsISaI4EdgeEE7destroyIS0_EEvRS1_PT_ = comdat any

$_ZNKSt6vectorI4EdgeSaIS0_EE8max_sizeEv = comdat any

$_ZSt3maxImERKT_S2_S2_ = comdat any

$_ZNSt16allocator_traitsISaI4EdgeEE8max_sizeERKS1_ = comdat any

$_ZNKSt12_Vector_baseI4EdgeSaIS0_EE19_M_get_Tp_allocatorEv = comdat any

$_ZNK9__gnu_cxx13new_allocatorI4EdgeE8max_sizeEv = comdat any

$_ZN9__gnu_cxx17__normal_iteratorIP4EdgeSt6vectorIS1_SaIS1_EEEC2ERKS2_ = comdat any

$_ZNSt16allocator_traitsISaI4EdgeEE8allocateERS1_m = comdat any

$_ZN9__gnu_cxx13new_allocatorI4EdgeE8allocateEmPKv = comdat any

$_ZSt22__uninitialized_copy_aISt13move_iteratorIP4EdgeES2_S1_ET0_T_S5_S4_RSaIT1_E = comdat any

$_ZSt32__make_move_if_noexcept_iteratorI4EdgeSt13move_iteratorIPS0_EET0_PT_ = comdat any

$_ZSt18uninitialized_copyISt13move_iteratorIP4EdgeES2_ET0_T_S5_S4_ = comdat any

$_ZNSt20__uninitialized_copyILb1EE13__uninit_copyISt13move_iteratorIP4EdgeES4_EET0_T_S7_S6_ = comdat any

$_ZSt4copyISt13move_iteratorIP4EdgeES2_ET0_T_S5_S4_ = comdat any

$_ZSt14__copy_move_a2ILb1EP4EdgeS1_ET1_T0_S3_S2_ = comdat any

$_ZSt12__miter_baseIP4EdgeEDTcl12__miter_basecldtfp_4baseEEESt13move_iteratorIT_E = comdat any

$_ZSt13__copy_move_aILb1EP4EdgeS1_ET1_T0_S3_S2_ = comdat any

$_ZSt12__niter_baseIP4EdgeET_S2_ = comdat any

$_ZNSt11__copy_moveILb1ELb1ESt26random_access_iterator_tagE8__copy_mI4EdgeEEPT_PKS4_S7_S5_ = comdat any

$_ZSt12__miter_baseIP4EdgeET_S2_ = comdat any

$_ZNKSt13move_iteratorIP4EdgeE4baseEv = comdat any

$_ZNSt13move_iteratorIP4EdgeEC2ES1_ = comdat any

$_ZN9__gnu_cxx13new_allocatorI4EdgeE7destroyIS1_EEvPT_ = comdat any

$_ZSt10__fill_n_aIPdiiEN9__gnu_cxx11__enable_ifIXsr11__is_scalarIT1_EE7__valueET_E6__typeES4_T0_RKS3_ = comdat any

$_ZSt12__niter_baseIPdET_S1_ = comdat any

$_ZNSt6vectorISt4pairIdxESaIS1_EEC2Ev = comdat any

$_ZNSt12_Vector_baseISt4pairIdxESaIS1_EEC2Ev = comdat any

$_ZNSt12_Vector_baseISt4pairIdxESaIS1_EE12_Vector_implC2Ev = comdat any

$_ZNSaISt4pairIdxEEC2Ev = comdat any

$_ZN9__gnu_cxx13new_allocatorISt4pairIdxEEC2Ev = comdat any

$_ZNSt6vectorISt4pairIdxESaIS1_EE9push_backEOS1_ = comdat any

$_ZSt4moveIRSt4pairIdxEEONSt16remove_referenceIT_E4typeEOS4_ = comdat any

$_ZSt9push_heapIN9__gnu_cxx17__normal_iteratorIPSt4pairIdxESt6vectorIS3_SaIS3_EEEESt7greaterIS3_EEvT_SB_T0_ = comdat any

$_ZNSt6vectorISt4pairIdxESaIS1_EE5beginEv = comdat any

$_ZNSt6vectorISt4pairIdxESaIS1_EE3endEv = comdat any

$_ZNSt6vectorISt4pairIdxESaIS1_EE12emplace_backIJS1_EEEvDpOT_ = comdat any

$_ZNSt16allocator_traitsISaISt4pairIdxEEE9constructIS1_JS1_EEEvRS2_PT_DpOT0_ = comdat any

$_ZSt7forwardISt4pairIdxEEOT_RNSt16remove_referenceIS2_E4typeE = comdat any

$_ZNSt6vectorISt4pairIdxESaIS1_EE17_M_realloc_insertIJS1_EEEvN9__gnu_cxx17__normal_iteratorIPS1_S3_EEDpOT_ = comdat any

$_ZN9__gnu_cxx13new_allocatorISt4pairIdxEE9constructIS2_JS2_EEEvPT_DpOT0_ = comdat any

$_ZNKSt6vectorISt4pairIdxESaIS1_EE12_M_check_lenEmPKc = comdat any

$_ZN9__gnu_cxxmiIPSt4pairIdxESt6vectorIS2_SaIS2_EEEENS_17__normal_iteratorIT_T0_E15difference_typeERKSA_SD_ = comdat any

$_ZNSt12_Vector_baseISt4pairIdxESaIS1_EE11_M_allocateEm = comdat any

$_ZSt34__uninitialized_move_if_noexcept_aIPSt4pairIdxES2_SaIS1_EET0_T_S5_S4_RT1_ = comdat any

$_ZNK9__gnu_cxx17__normal_iteratorIPSt4pairIdxESt6vectorIS2_SaIS2_EEE4baseEv = comdat any

$_ZNSt16allocator_traitsISaISt4pairIdxEEE7destroyIS1_EEvRS2_PT_ = comdat any

$_ZNKSt6vectorISt4pairIdxESaIS1_EE8max_sizeEv = comdat any

$_ZNKSt6vectorISt4pairIdxESaIS1_EE4sizeEv = comdat any

$_ZNSt16allocator_traitsISaISt4pairIdxEEE8max_sizeERKS2_ = comdat any

$_ZNKSt12_Vector_baseISt4pairIdxESaIS1_EE19_M_get_Tp_allocatorEv = comdat any

$_ZNK9__gnu_cxx13new_allocatorISt4pairIdxEE8max_sizeEv = comdat any

$_ZNSt16allocator_traitsISaISt4pairIdxEEE8allocateERS2_m = comdat any

$_ZN9__gnu_cxx13new_allocatorISt4pairIdxEE8allocateEmPKv = comdat any

$_ZSt22__uninitialized_copy_aISt13move_iteratorIPSt4pairIdxEES3_S2_ET0_T_S6_S5_RSaIT1_E = comdat any

$_ZSt32__make_move_if_noexcept_iteratorISt4pairIdxESt13move_iteratorIPS1_EET0_PT_ = comdat any

$_ZSt18uninitialized_copyISt13move_iteratorIPSt4pairIdxEES3_ET0_T_S6_S5_ = comdat any

$_ZNSt20__uninitialized_copyILb0EE13__uninit_copyISt13move_iteratorIPSt4pairIdxEES5_EET0_T_S8_S7_ = comdat any

$_ZStneIPSt4pairIdxEEbRKSt13move_iteratorIT_ES7_ = comdat any

$_ZSt10_ConstructISt4pairIdxEJS1_EEvPT_DpOT0_ = comdat any

$_ZSt11__addressofISt4pairIdxEEPT_RS2_ = comdat any

$_ZNKSt13move_iteratorIPSt4pairIdxEEdeEv = comdat any

$_ZNSt13move_iteratorIPSt4pairIdxEEppEv = comdat any

$_ZSteqIPSt4pairIdxEEbRKSt13move_iteratorIT_ES7_ = comdat any

$_ZNKSt13move_iteratorIPSt4pairIdxEE4baseEv = comdat any

$_ZNSt13move_iteratorIPSt4pairIdxEEC2ES2_ = comdat any

$_ZN9__gnu_cxx13new_allocatorISt4pairIdxEE7destroyIS2_EEvPT_ = comdat any

$_ZSt4moveIRSt7greaterISt4pairIdxEEEONSt16remove_referenceIT_E4typeEOS6_ = comdat any

$_ZN9__gnu_cxx5__ops14_Iter_comp_valISt7greaterISt4pairIdxEEEC2ES5_ = comdat any

$_ZNK9__gnu_cxx17__normal_iteratorIPSt4pairIdxESt6vectorIS2_SaIS2_EEEmiEl = comdat any

$_ZNK9__gnu_cxx17__normal_iteratorIPSt4pairIdxESt6vectorIS2_SaIS2_EEEdeEv = comdat any

$_ZSt11__push_heapIN9__gnu_cxx17__normal_iteratorIPSt4pairIdxESt6vectorIS3_SaIS3_EEEElS3_NS0_5__ops14_Iter_comp_valISt7greaterIS3_EEEEvT_T0_SF_T1_RT2_ = comdat any

$_ZN9__gnu_cxx17__normal_iteratorIPSt4pairIdxESt6vectorIS2_SaIS2_EEEC2ERKS3_ = comdat any

$_ZN9__gnu_cxx5__ops14_Iter_comp_valISt7greaterISt4pairIdxEEEclINS_17__normal_iteratorIPS4_St6vectorIS4_SaIS4_EEEES4_EEbT_RT0_ = comdat any

$_ZNK9__gnu_cxx17__normal_iteratorIPSt4pairIdxESt6vectorIS2_SaIS2_EEEplEl = comdat any

$_ZNSt4pairIdxEaSEOS0_ = comdat any

$_ZNKSt7greaterISt4pairIdxEEclERKS1_S4_ = comdat any

$_ZStgtIdxEbRKSt4pairIT_T0_ES5_ = comdat any

$_ZStltIdxEbRKSt4pairIT_T0_ES5_ = comdat any

$_ZSt7forwardIdEOT_RNSt16remove_referenceIS0_E4typeE = comdat any

$_ZSt7forwardIxEOT_RNSt16remove_referenceIS0_E4typeE = comdat any

$_ZNKSt6vectorISt4pairIdxESaIS1_EE5emptyEv = comdat any

$_ZN9__gnu_cxxeqIPKSt4pairIdxESt6vectorIS2_SaIS2_EEEEbRKNS_17__normal_iteratorIT_T0_EESD_ = comdat any

$_ZNKSt6vectorISt4pairIdxESaIS1_EE5beginEv = comdat any

$_ZNKSt6vectorISt4pairIdxESaIS1_EE3endEv = comdat any

$_ZNK9__gnu_cxx17__normal_iteratorIPKSt4pairIdxESt6vectorIS2_SaIS2_EEE4baseEv = comdat any

$_ZN9__gnu_cxx17__normal_iteratorIPKSt4pairIdxESt6vectorIS2_SaIS2_EEEC2ERKS4_ = comdat any

$_ZNKSt6vectorISt4pairIdxESaIS1_EE5frontEv = comdat any

$_ZNK9__gnu_cxx17__normal_iteratorIPKSt4pairIdxESt6vectorIS2_SaIS2_EEEdeEv = comdat any

$_ZSt8pop_heapIN9__gnu_cxx17__normal_iteratorIPSt4pairIdxESt6vectorIS3_SaIS3_EEEESt7greaterIS3_EEvT_SB_T0_ = comdat any

$_ZNSt6vectorISt4pairIdxESaIS1_EE8pop_backEv = comdat any

$_ZN9__gnu_cxx5__ops15_Iter_comp_iterISt7greaterISt4pairIdxEEEC2ES5_ = comdat any

$_ZN9__gnu_cxx17__normal_iteratorIPSt4pairIdxESt6vectorIS2_SaIS2_EEEmmEv = comdat any

$_ZSt10__pop_heapIN9__gnu_cxx17__normal_iteratorIPSt4pairIdxESt6vectorIS3_SaIS3_EEEENS0_5__ops15_Iter_comp_iterISt7greaterIS3_EEEEvT_SE_SE_RT0_ = comdat any

$_ZSt13__adjust_heapIN9__gnu_cxx17__normal_iteratorIPSt4pairIdxESt6vectorIS3_SaIS3_EEEElS3_NS0_5__ops15_Iter_comp_iterISt7greaterIS3_EEEEvT_T0_SF_T1_T2_ = comdat any

$_ZN9__gnu_cxx5__ops15_Iter_comp_iterISt7greaterISt4pairIdxEEEclINS_17__normal_iteratorIPS4_St6vectorIS4_SaIS4_EEEESD_EEbT_T0_ = comdat any

$_ZSt4moveIRN9__gnu_cxx5__ops15_Iter_comp_iterISt7greaterISt4pairIdxEEEEEONSt16remove_referenceIT_E4typeEOSA_ = comdat any

$_ZN9__gnu_cxx5__ops14_Iter_comp_valISt7greaterISt4pairIdxEEEC2EONS0_15_Iter_comp_iterIS5_EE = comdat any

$_ZN9__gnu_cxx13new_allocatorISt4pairISt7complexIdES3_EEC2Ev = comdat any

$_ZN9__gnu_cxx13new_allocatorISt4pairISt7complexIdES3_EED2Ev = comdat any

$_ZNSt12_Vector_baseISt4pairISt7complexIdES2_ESaIS3_EEC2EmRKS4_ = comdat any

$_ZNSt6vectorISt4pairISt7complexIdES2_ESaIS3_EE21_M_default_initializeEm = comdat any

$_ZNSt12_Vector_baseISt4pairISt7complexIdES2_ESaIS3_EED2Ev = comdat any

$_ZNSt12_Vector_baseISt4pairISt7complexIdES2_ESaIS3_EE12_Vector_implC2ERKS4_ = comdat any

$_ZNSt12_Vector_baseISt4pairISt7complexIdES2_ESaIS3_EE17_M_create_storageEm = comdat any

$_ZNSt12_Vector_baseISt4pairISt7complexIdES2_ESaIS3_EE12_Vector_implD2Ev = comdat any

$_ZNSaISt4pairISt7complexIdES1_EEC2ERKS3_ = comdat any

$_ZN9__gnu_cxx13new_allocatorISt4pairISt7complexIdES3_EEC2ERKS5_ = comdat any

$_ZNSt12_Vector_baseISt4pairISt7complexIdES2_ESaIS3_EE11_M_allocateEm = comdat any

$_ZNSt16allocator_traitsISaISt4pairISt7complexIdES2_EEE8allocateERS4_m = comdat any

$_ZN9__gnu_cxx13new_allocatorISt4pairISt7complexIdES3_EE8allocateEmPKv = comdat any

$_ZNK9__gnu_cxx13new_allocatorISt4pairISt7complexIdES3_EE8max_sizeEv = comdat any

$_ZSt27__uninitialized_default_n_aIPSt4pairISt7complexIdES2_EmS3_ET_S5_T0_RSaIT1_E = comdat any

$_ZNSt12_Vector_baseISt4pairISt7complexIdES2_ESaIS3_EE19_M_get_Tp_allocatorEv = comdat any

$_ZSt25__uninitialized_default_nIPSt4pairISt7complexIdES2_EmET_S5_T0_ = comdat any

$_ZNSt27__uninitialized_default_n_1ILb0EE18__uninit_default_nIPSt4pairISt7complexIdES4_EmEET_S7_T0_ = comdat any

$_ZSt10_ConstructISt4pairISt7complexIdES2_EJEEvPT_DpOT0_ = comdat any

$_ZSt11__addressofISt4pairISt7complexIdES2_EEPT_RS4_ = comdat any

$_ZSt8_DestroyIPSt4pairISt7complexIdES2_EEvT_S5_ = comdat any

$_ZNSt4pairISt7complexIdES1_EC2IS1_S1_Lb1EEEv = comdat any

$_ZNSt12_Destroy_auxILb1EE9__destroyIPSt4pairISt7complexIdES4_EEEvT_S7_ = comdat any

$_ZNSt12_Vector_baseISt4pairISt7complexIdES2_ESaIS3_EE13_M_deallocateEPS3_m = comdat any

$_ZNSt16allocator_traitsISaISt4pairISt7complexIdES2_EEE10deallocateERS4_PS3_m = comdat any

$_ZN9__gnu_cxx13new_allocatorISt4pairISt7complexIdES3_EE10deallocateEPS4_m = comdat any

$_ZSt8_DestroyIPSt4pairISt7complexIdES2_ES3_EvT_S5_RSaIT0_E = comdat any

$_ZNSt7complexIdEmIIdEERS0_RKS_IT_E = comdat any

$_ZNKSt7complexIdE4realB5cxx11Ev = comdat any

$_ZNKSt7complexIdE4imagB5cxx11Ev = comdat any

$_ZSt13__complex_absCd = comdat any

$_ZNKSt7complexIdE5__repEv = comdat any

$_ZNSt12_Vector_baseIiSaIiEEC2EmRKS0_ = comdat any

$_ZNSt6vectorIiSaIiEE21_M_default_initializeEm = comdat any

$_ZNSt12_Vector_baseIiSaIiEED2Ev = comdat any

$_ZNSt12_Vector_baseIiSaIiEE12_Vector_implC2ERKS0_ = comdat any

$_ZNSt12_Vector_baseIiSaIiEE17_M_create_storageEm = comdat any

$_ZNSt12_Vector_baseIiSaIiEE12_Vector_implD2Ev = comdat any

$_ZNSaIiEC2ERKS_ = comdat any

$_ZN9__gnu_cxx13new_allocatorIiEC2ERKS1_ = comdat any

$_ZNSt12_Vector_baseIiSaIiEE11_M_allocateEm = comdat any

$_ZNSt16allocator_traitsISaIiEE8allocateERS0_m = comdat any

$_ZN9__gnu_cxx13new_allocatorIiE8allocateEmPKv = comdat any

$_ZNK9__gnu_cxx13new_allocatorIiE8max_sizeEv = comdat any

$_ZSt27__uninitialized_default_n_aIPimiET_S1_T0_RSaIT1_E = comdat any

$_ZNSt12_Vector_baseIiSaIiEE19_M_get_Tp_allocatorEv = comdat any

$_ZSt25__uninitialized_default_nIPimET_S1_T0_ = comdat any

$_ZNSt27__uninitialized_default_n_1ILb1EE18__uninit_default_nIPimEET_S3_T0_ = comdat any

$_ZSt6fill_nIPimiET_S1_T0_RKT1_ = comdat any

$_ZSt10__fill_n_aIPimiEN9__gnu_cxx11__enable_ifIXsr11__is_scalarIT1_EE7__valueET_E6__typeES4_T0_RKS3_ = comdat any

$_ZSt12__niter_baseIPiET_S1_ = comdat any

$_ZNSt12_Vector_baseIiSaIiEE13_M_deallocateEPim = comdat any

$_ZNSt16allocator_traitsISaIiEE10deallocateERS0_Pim = comdat any

$_ZN9__gnu_cxx13new_allocatorIiE10deallocateEPim = comdat any

$_ZSt8_DestroyIPiiEvT_S1_RSaIT0_E = comdat any

$_ZSt8_DestroyIPiEvT_S1_ = comdat any

$_ZNSt12_Destroy_auxILb1EE9__destroyIPiEEvT_S3_ = comdat any

$_ZNSt6vectorIS_I4EdgeSaIS0_EESaIS2_EE15_M_erase_at_endEPS2_ = comdat any

$_ZNSt6vectorIS_I4EdgeSaIS0_EESaIS2_EE17_M_default_appendEm = comdat any

$_ZNKSt6vectorIS_I4EdgeSaIS0_EESaIS2_EE8max_sizeEv = comdat any

$_ZSt27__uninitialized_default_n_aIPSt6vectorI4EdgeSaIS1_EEmS3_ET_S5_T0_RSaIT1_E = comdat any

$_ZNKSt6vectorIS_I4EdgeSaIS0_EESaIS2_EE12_M_check_lenEmPKc = comdat any

$_ZNSt12_Vector_baseISt6vectorI4EdgeSaIS1_EESaIS3_EE11_M_allocateEm = comdat any

$_ZSt34__uninitialized_move_if_noexcept_aIPSt6vectorI4EdgeSaIS1_EES4_SaIS3_EET0_T_S7_S6_RT1_ = comdat any

$_ZNSt16allocator_traitsISaISt6vectorI4EdgeSaIS1_EEEE8max_sizeERKS4_ = comdat any

$_ZNKSt12_Vector_baseISt6vectorI4EdgeSaIS1_EESaIS3_EE19_M_get_Tp_allocatorEv = comdat any

$_ZNK9__gnu_cxx13new_allocatorISt6vectorI4EdgeSaIS2_EEE8max_sizeEv = comdat any

$_ZSt25__uninitialized_default_nIPSt6vectorI4EdgeSaIS1_EEmET_S5_T0_ = comdat any

$_ZNSt27__uninitialized_default_n_1ILb0EE18__uninit_default_nIPSt6vectorI4EdgeSaIS3_EEmEET_S7_T0_ = comdat any

$_ZSt10_ConstructISt6vectorI4EdgeSaIS1_EEJEEvPT_DpOT0_ = comdat any

$_ZNSt6vectorI4EdgeSaIS0_EEC2Ev = comdat any

$_ZNSt12_Vector_baseI4EdgeSaIS0_EEC2Ev = comdat any

$_ZNSt12_Vector_baseI4EdgeSaIS0_EE12_Vector_implC2Ev = comdat any

$_ZNSaI4EdgeEC2Ev = comdat any

$_ZN9__gnu_cxx13new_allocatorI4EdgeEC2Ev = comdat any

$_ZNSt16allocator_traitsISaISt6vectorI4EdgeSaIS1_EEEE8allocateERS4_m = comdat any

$_ZN9__gnu_cxx13new_allocatorISt6vectorI4EdgeSaIS2_EEE8allocateEmPKv = comdat any

$_ZSt22__uninitialized_copy_aISt13move_iteratorIPSt6vectorI4EdgeSaIS2_EEES5_S4_ET0_T_S8_S7_RSaIT1_E = comdat any

$_ZSt32__make_move_if_noexcept_iteratorISt6vectorI4EdgeSaIS1_EESt13move_iteratorIPS3_EET0_PT_ = comdat any

$_ZSt18uninitialized_copyISt13move_iteratorIPSt6vectorI4EdgeSaIS2_EEES5_ET0_T_S8_S7_ = comdat any

$_ZNSt20__uninitialized_copyILb0EE13__uninit_copyISt13move_iteratorIPSt6vectorI4EdgeSaIS4_EEES7_EET0_T_SA_S9_ = comdat any

$_ZStneIPSt6vectorI4EdgeSaIS1_EEEbRKSt13move_iteratorIT_ES9_ = comdat any

$_ZSt10_ConstructISt6vectorI4EdgeSaIS1_EEJS3_EEvPT_DpOT0_ = comdat any

$_ZNKSt13move_iteratorIPSt6vectorI4EdgeSaIS1_EEEdeEv = comdat any

$_ZNSt13move_iteratorIPSt6vectorI4EdgeSaIS1_EEEppEv = comdat any

$_ZSteqIPSt6vectorI4EdgeSaIS1_EEEbRKSt13move_iteratorIT_ES9_ = comdat any

$_ZNKSt13move_iteratorIPSt6vectorI4EdgeSaIS1_EEE4baseEv = comdat any

$_ZSt7forwardISt6vectorI4EdgeSaIS1_EEEOT_RNSt16remove_referenceIS4_E4typeE = comdat any

$_ZNSt6vectorI4EdgeSaIS0_EEC2EOS2_ = comdat any

$_ZSt4moveIRSt6vectorI4EdgeSaIS1_EEEONSt16remove_referenceIT_E4typeEOS6_ = comdat any

$_ZNSt12_Vector_baseI4EdgeSaIS0_EEC2EOS2_ = comdat any

$_ZSt4moveIRSaI4EdgeEEONSt16remove_referenceIT_E4typeEOS4_ = comdat any

$_ZNSt12_Vector_baseI4EdgeSaIS0_EE12_Vector_implC2EOS1_ = comdat any

$_ZNSt12_Vector_baseI4EdgeSaIS0_EE12_Vector_impl12_M_swap_dataERS3_ = comdat any

$_ZNSaI4EdgeEC2ERKS0_ = comdat any

$_ZN9__gnu_cxx13new_allocatorI4EdgeEC2ERKS2_ = comdat any

$_ZSt4swapIP4EdgeENSt9enable_ifIXsr6__and_ISt6__not_ISt15__is_tuple_likeIT_EESt21is_move_constructibleIS5_ESt18is_move_assignableIS5_EEE5valueEvE4typeERS5_SE_ = comdat any

$_ZSt4moveIRP4EdgeEONSt16remove_referenceIT_E4typeEOS4_ = comdat any

$_ZNSt13move_iteratorIPSt6vectorI4EdgeSaIS1_EEEC2ES4_ = comdat any

@_ZStL8__ioinit = internal global %"class.std::ios_base::Init" zeroinitializer, align 1
@__dso_handle = external hidden global i8
@_ZL2pi = internal global double 0.000000e+00, align 8
@G = global %"class.std::vector" zeroinitializer, align 8
@dist = global [21000 x double] zeroinitializer, align 16
@h = global [21000 x double] zeroinitializer, align 16
@prevV = global [21000 x i64] zeroinitializer, align 16
@prevE = global [21000 x i64] zeroinitializer, align 16
@_ZL3inf = internal constant i32 1000000000, align 4
@_ZSt4cout = external global %"class.std::basic_ostream", align 8
@.str = private unnamed_addr constant [6 x i8] c"ERROR\00", align 1
@_ZSt3cin = external global %"class.std::basic_istream", align 8
@.str.3 = private unnamed_addr constant [26 x i8] c"vector::_M_realloc_insert\00", align 1
@.str.4 = private unnamed_addr constant [26 x i8] c"vector::_M_default_append\00", align 1
@llvm.global_ctors = appending global [1 x { i32, void ()*, i8* }] [{ i32, void ()*, i8* } { i32 65535, void ()* @_GLOBAL__sub_I_s992024726.cpp, i8* null }]

; Function Attrs: noinline uwtable
define internal void @__cxx_global_var_init() #0 section ".text.startup" {
  call void @_ZNSt8ios_base4InitC1Ev(%"class.std::ios_base::Init"* @_ZStL8__ioinit)
  %1 = call i32 @__cxa_atexit(void (i8*)* bitcast (void (%"class.std::ios_base::Init"*)* @_ZNSt8ios_base4InitD1Ev to void (i8*)*), i8* getelementptr inbounds (%"class.std::ios_base::Init", %"class.std::ios_base::Init"* @_ZStL8__ioinit, i32 0, i32 0), i8* @__dso_handle) #3
  ret void
}

declare void @_ZNSt8ios_base4InitC1Ev(%"class.std::ios_base::Init"*) unnamed_addr #1

; Function Attrs: nounwind
declare void @_ZNSt8ios_base4InitD1Ev(%"class.std::ios_base::Init"*) unnamed_addr #2

; Function Attrs: nounwind
declare i32 @__cxa_atexit(void (i8*)*, i8*, i8*) #3

; Function Attrs: noinline uwtable
define internal void @__cxx_global_var_init.1() #0 section ".text.startup" {
  %1 = call double @_ZSt4acosIiEN9__gnu_cxx11__enable_ifIXsr12__is_integerIT_EE7__valueEdE6__typeES2_(i32 -1)
  store double %1, double* @_ZL2pi, align 8
  ret void
}

; Function Attrs: noinline nounwind uwtable
define linkonce_odr double @_ZSt4acosIiEN9__gnu_cxx11__enable_ifIXsr12__is_integerIT_EE7__valueEdE6__typeES2_(i32 %0) #4 comdat {
  %2 = sitofp i32 %0 to double
  %3 = call double @acos(double %2) #3
  ret double %3
}

; Function Attrs: noinline uwtable
define internal void @__cxx_global_var_init.2() #0 section ".text.startup" {
  call void @_ZNSt6vectorIS_I4EdgeSaIS0_EESaIS2_EEC2Ev(%"class.std::vector"* @G) #3
  %1 = call i32 @__cxa_atexit(void (i8*)* bitcast (void (%"class.std::vector"*)* @_ZNSt6vectorIS_I4EdgeSaIS0_EESaIS2_EED2Ev to void (i8*)*), i8* bitcast (%"class.std::vector"* @G to i8*), i8* @__dso_handle) #3
  ret void
}

; Function Attrs: noinline nounwind uwtable
define linkonce_odr void @_ZNSt6vectorIS_I4EdgeSaIS0_EESaIS2_EEC2Ev(%"class.std::vector"* %0) unnamed_addr #4 comdat align 2 personality i8* bitcast (i32 (...)* @__gxx_personality_v0 to i8*) {
  %2 = bitcast %"class.std::vector"* %0 to %"struct.std::_Vector_base"*
  invoke void @_ZNSt12_Vector_baseISt6vectorI4EdgeSaIS1_EESaIS3_EEC2Ev(%"struct.std::_Vector_base"* %2)
          to label %3 unwind label %4

3:                                                ; preds = %1
  ret void

4:                                                ; preds = %1
  %5 = landingpad { i8*, i32 }
          catch i8* null
  %6 = extractvalue { i8*, i32 } %5, 0
  call void @__clang_call_terminate(i8* %6) #14
  unreachable
}

; Function Attrs: noinline nounwind uwtable
define linkonce_odr void @_ZNSt6vectorIS_I4EdgeSaIS0_EESaIS2_EED2Ev(%"class.std::vector"* %0) unnamed_addr #4 comdat align 2 personality i8* bitcast (i32 (...)* @__gxx_personality_v0 to i8*) {
  %2 = bitcast %"class.std::vector"* %0 to %"struct.std::_Vector_base"*
  %3 = getelementptr inbounds %"struct.std::_Vector_base", %"struct.std::_Vector_base"* %2, i32 0, i32 0
  %4 = getelementptr inbounds %"struct.std::_Vector_base<std::vector<Edge, std::allocator<Edge> >, std::allocator<std::vector<Edge, std::allocator<Edge> > > >::_Vector_impl", %"struct.std::_Vector_base<std::vector<Edge, std::allocator<Edge> >, std::allocator<std::vector<Edge, std::allocator<Edge> > > >::_Vector_impl"* %3, i32 0, i32 0
  %5 = load %"class.std::vector.0"*, %"class.std::vector.0"** %4, align 8
  %6 = bitcast %"class.std::vector"* %0 to %"struct.std::_Vector_base"*
  %7 = getelementptr inbounds %"struct.std::_Vector_base", %"struct.std::_Vector_base"* %6, i32 0, i32 0
  %8 = getelementptr inbounds %"struct.std::_Vector_base<std::vector<Edge, std::allocator<Edge> >, std::allocator<std::vector<Edge, std::allocator<Edge> > > >::_Vector_impl", %"struct.std::_Vector_base<std::vector<Edge, std::allocator<Edge> >, std::allocator<std::vector<Edge, std::allocator<Edge> > > >::_Vector_impl"* %7, i32 0, i32 1
  %9 = load %"class.std::vector.0"*, %"class.std::vector.0"** %8, align 8
  %10 = bitcast %"class.std::vector"* %0 to %"struct.std::_Vector_base"*
  %11 = call dereferenceable(1) %"class.std::allocator"* @_ZNSt12_Vector_baseISt6vectorI4EdgeSaIS1_EESaIS3_EE19_M_get_Tp_allocatorEv(%"struct.std::_Vector_base"* %10) #3
  invoke void @_ZSt8_DestroyIPSt6vectorI4EdgeSaIS1_EES3_EvT_S5_RSaIT0_E(%"class.std::vector.0"* %5, %"class.std::vector.0"* %9, %"class.std::allocator"* dereferenceable(1) %11)
          to label %12 unwind label %14

12:                                               ; preds = %1
  %13 = bitcast %"class.std::vector"* %0 to %"struct.std::_Vector_base"*
  call void @_ZNSt12_Vector_baseISt6vectorI4EdgeSaIS1_EESaIS3_EED2Ev(%"struct.std::_Vector_base"* %13) #3
  ret void

14:                                               ; preds = %1
  %15 = landingpad { i8*, i32 }
          catch i8* null
  %16 = extractvalue { i8*, i32 } %15, 0
  %17 = extractvalue { i8*, i32 } %15, 1
  %18 = bitcast %"class.std::vector"* %0 to %"struct.std::_Vector_base"*
  call void @_ZNSt12_Vector_baseISt6vectorI4EdgeSaIS1_EESaIS3_EED2Ev(%"struct.std::_Vector_base"* %18) #3
  br label %19

19:                                               ; preds = %14
  call void @__clang_call_terminate(i8* %16) #14
  unreachable
}

; Function Attrs: noinline uwtable
define void @_Z8add_edgexxxd(i64 %0, i64 %1, i64 %2, double %3) #0 {
  %5 = alloca %struct.Edge, align 8
  %6 = alloca %struct.Edge, align 8
  %7 = icmp slt i64 %0, 0
  br i1 %7, label %10, label %8

8:                                                ; preds = %4
  %9 = icmp slt i64 %1, 0
  br i1 %9, label %10, label %11

10:                                               ; preds = %8, %4
  br label %28

11:                                               ; preds = %8
  %12 = call dereferenceable(24) %"class.std::vector.0"* @_ZNSt6vectorIS_I4EdgeSaIS0_EESaIS2_EEixEm(%"class.std::vector"* @G, i64 %0) #3
  %13 = getelementptr inbounds %struct.Edge, %struct.Edge* %5, i32 0, i32 0
  store i64 %1, i64* %13, align 8
  %14 = getelementptr inbounds %struct.Edge, %struct.Edge* %5, i32 0, i32 1
  store i64 %2, i64* %14, align 8
  %15 = getelementptr inbounds %struct.Edge, %struct.Edge* %5, i32 0, i32 2
  store double %3, double* %15, align 8
  %16 = getelementptr inbounds %struct.Edge, %struct.Edge* %5, i32 0, i32 3
  %17 = call dereferenceable(24) %"class.std::vector.0"* @_ZNSt6vectorIS_I4EdgeSaIS0_EESaIS2_EEixEm(%"class.std::vector"* @G, i64 %1) #3
  %18 = call i64 @_ZNKSt6vectorI4EdgeSaIS0_EE4sizeEv(%"class.std::vector.0"* %17) #3
  store i64 %18, i64* %16, align 8
  call void @_ZNSt6vectorI4EdgeSaIS0_EE9push_backEOS0_(%"class.std::vector.0"* %12, %struct.Edge* dereferenceable(32) %5)
  %19 = call dereferenceable(24) %"class.std::vector.0"* @_ZNSt6vectorIS_I4EdgeSaIS0_EESaIS2_EEixEm(%"class.std::vector"* @G, i64 %1) #3
  %20 = getelementptr inbounds %struct.Edge, %struct.Edge* %6, i32 0, i32 0
  store i64 %0, i64* %20, align 8
  %21 = getelementptr inbounds %struct.Edge, %struct.Edge* %6, i32 0, i32 1
  store i64 0, i64* %21, align 8
  %22 = getelementptr inbounds %struct.Edge, %struct.Edge* %6, i32 0, i32 2
  %23 = fsub double -0.000000e+00, %3
  store double %23, double* %22, align 8
  %24 = getelementptr inbounds %struct.Edge, %struct.Edge* %6, i32 0, i32 3
  %25 = call dereferenceable(24) %"class.std::vector.0"* @_ZNSt6vectorIS_I4EdgeSaIS0_EESaIS2_EEixEm(%"class.std::vector"* @G, i64 %0) #3
  %26 = call i64 @_ZNKSt6vectorI4EdgeSaIS0_EE4sizeEv(%"class.std::vector.0"* %25) #3
  %27 = sub nsw i64 %26, 1
  store i64 %27, i64* %24, align 8
  call void @_ZNSt6vectorI4EdgeSaIS0_EE9push_backEOS0_(%"class.std::vector.0"* %19, %struct.Edge* dereferenceable(32) %6)
  br label %28

28:                                               ; preds = %11, %10
  ret void
}

; Function Attrs: noinline nounwind uwtable
define linkonce_odr dereferenceable(24) %"class.std::vector.0"* @_ZNSt6vectorIS_I4EdgeSaIS0_EESaIS2_EEixEm(%"class.std::vector"* %0, i64 %1) #4 comdat align 2 {
  %3 = bitcast %"class.std::vector"* %0 to %"struct.std::_Vector_base"*
  %4 = getelementptr inbounds %"struct.std::_Vector_base", %"struct.std::_Vector_base"* %3, i32 0, i32 0
  %5 = getelementptr inbounds %"struct.std::_Vector_base<std::vector<Edge, std::allocator<Edge> >, std::allocator<std::vector<Edge, std::allocator<Edge> > > >::_Vector_impl", %"struct.std::_Vector_base<std::vector<Edge, std::allocator<Edge> >, std::allocator<std::vector<Edge, std::allocator<Edge> > > >::_Vector_impl"* %4, i32 0, i32 0
  %6 = load %"class.std::vector.0"*, %"class.std::vector.0"** %5, align 8
  %7 = getelementptr inbounds %"class.std::vector.0", %"class.std::vector.0"* %6, i64 %1
  ret %"class.std::vector.0"* %7
}

; Function Attrs: noinline uwtable
define linkonce_odr void @_ZNSt6vectorI4EdgeSaIS0_EE9push_backEOS0_(%"class.std::vector.0"* %0, %struct.Edge* dereferenceable(32) %1) #0 comdat align 2 {
  %3 = call dereferenceable(32) %struct.Edge* @_ZSt4moveIR4EdgeEONSt16remove_referenceIT_E4typeEOS3_(%struct.Edge* dereferenceable(32) %1) #3
  call void @_ZNSt6vectorI4EdgeSaIS0_EE12emplace_backIJS0_EEEvDpOT_(%"class.std::vector.0"* %0, %struct.Edge* dereferenceable(32) %3)
  ret void
}

; Function Attrs: noinline nounwind uwtable
define linkonce_odr i64 @_ZNKSt6vectorI4EdgeSaIS0_EE4sizeEv(%"class.std::vector.0"* %0) #4 comdat align 2 {
  %2 = bitcast %"class.std::vector.0"* %0 to %"struct.std::_Vector_base.1"*
  %3 = getelementptr inbounds %"struct.std::_Vector_base.1", %"struct.std::_Vector_base.1"* %2, i32 0, i32 0
  %4 = getelementptr inbounds %"struct.std::_Vector_base<Edge, std::allocator<Edge> >::_Vector_impl", %"struct.std::_Vector_base<Edge, std::allocator<Edge> >::_Vector_impl"* %3, i32 0, i32 1
  %5 = load %struct.Edge*, %struct.Edge** %4, align 8
  %6 = bitcast %"class.std::vector.0"* %0 to %"struct.std::_Vector_base.1"*
  %7 = getelementptr inbounds %"struct.std::_Vector_base.1", %"struct.std::_Vector_base.1"* %6, i32 0, i32 0
  %8 = getelementptr inbounds %"struct.std::_Vector_base<Edge, std::allocator<Edge> >::_Vector_impl", %"struct.std::_Vector_base<Edge, std::allocator<Edge> >::_Vector_impl"* %7, i32 0, i32 0
  %9 = load %struct.Edge*, %struct.Edge** %8, align 8
  %10 = ptrtoint %struct.Edge* %5 to i64
  %11 = ptrtoint %struct.Edge* %9 to i64
  %12 = sub i64 %10, %11
  %13 = sdiv exact i64 %12, 32
  ret i64 %13
}

; Function Attrs: noinline uwtable
define double @_Z13min_cost_flowxxx(i64 %0, i64 %1, i64 %2) #0 personality i8* bitcast (i32 (...)* @__gxx_personality_v0 to i8*) {
  %4 = alloca i64, align 8
  %5 = alloca %"class.std::priority_queue", align 8
  %6 = alloca %"struct.std::pair", align 8
  %7 = alloca i32, align 4
  %8 = alloca %"struct.std::pair", align 8
  %9 = alloca %"struct.std::pair", align 8
  %10 = alloca i64, align 8
  store i64 %0, i64* %4, align 8
  br label %11

11:                                               ; preds = %182, %3
  %.02 = phi double [ 0.000000e+00, %3 ], [ %154, %182 ]
  %.01 = phi i64 [ %2, %3 ], [ %148, %182 ]
  %12 = icmp sgt i64 %.01, 0
  br i1 %12, label %13, label %183

13:                                               ; preds = %11
  %14 = call double* @_ZSt6fill_nIPdiiET_S1_T0_RKT1_(double* getelementptr inbounds ([21000 x double], [21000 x double]* @dist, i32 0, i32 0), i32 21000, i32* dereferenceable(4) @_ZL3inf)
  %15 = load i64, i64* %4, align 8
  %16 = getelementptr inbounds [21000 x double], [21000 x double]* @dist, i64 0, i64 %15
  store double 0.000000e+00, double* %16, align 8
  call void @_ZNSt14priority_queueISt4pairIdxESt6vectorIS1_SaIS1_EESt7greaterIS1_EEC2IS4_vEEv(%"class.std::priority_queue"* %5)
  store i32 0, i32* %7, align 4
  invoke void @_ZNSt4pairIdxEC2IiRxLb1EEEOT_OT0_(%"struct.std::pair"* %6, i32* dereferenceable(4) %7, i64* dereferenceable(8) %4)
          to label %17 unwind label %37

17:                                               ; preds = %13
  invoke void @_ZNSt14priority_queueISt4pairIdxESt6vectorIS1_SaIS1_EESt7greaterIS1_EE4pushEOS1_(%"class.std::priority_queue"* %5, %"struct.std::pair"* dereferenceable(16) %6)
          to label %18 unwind label %37

18:                                               ; preds = %17
  br label %19

19:                                               ; preds = %103, %36, %18
  %20 = invoke zeroext i1 @_ZNKSt14priority_queueISt4pairIdxESt6vectorIS1_SaIS1_EESt7greaterIS1_EE5emptyEv(%"class.std::priority_queue"* %5)
          to label %21 unwind label %37

21:                                               ; preds = %19
  %22 = xor i1 %20, true
  br i1 %22, label %23, label %104

23:                                               ; preds = %21
  %24 = invoke dereferenceable(16) %"struct.std::pair"* @_ZNKSt14priority_queueISt4pairIdxESt6vectorIS1_SaIS1_EESt7greaterIS1_EE3topEv(%"class.std::priority_queue"* %5)
          to label %25 unwind label %37

25:                                               ; preds = %23
  %26 = bitcast %"struct.std::pair"* %8 to i8*
  %27 = bitcast %"struct.std::pair"* %24 to i8*
  call void @llvm.memcpy.p0i8.p0i8.i64(i8* align 8 %26, i8* align 8 %27, i64 16, i1 false)
  invoke void @_ZNSt14priority_queueISt4pairIdxESt6vectorIS1_SaIS1_EESt7greaterIS1_EE3popEv(%"class.std::priority_queue"* %5)
          to label %28 unwind label %37

28:                                               ; preds = %25
  %29 = getelementptr inbounds %"struct.std::pair", %"struct.std::pair"* %8, i32 0, i32 1
  %30 = load i64, i64* %29, align 8
  %31 = getelementptr inbounds %"struct.std::pair", %"struct.std::pair"* %8, i32 0, i32 0
  %32 = load double, double* %31, align 8
  %33 = getelementptr inbounds [21000 x double], [21000 x double]* @dist, i64 0, i64 %30
  %34 = load double, double* %33, align 8
  %35 = fcmp ogt double %32, %34
  br i1 %35, label %36, label %41

36:                                               ; preds = %28
  br label %19

37:                                               ; preds = %132, %125, %123, %116, %98, %71, %25, %23, %19, %17, %13
  %38 = landingpad { i8*, i32 }
          cleanup
  %39 = extractvalue { i8*, i32 } %38, 0
  %40 = extractvalue { i8*, i32 } %38, 1
  call void @_ZNSt14priority_queueISt4pairIdxESt6vectorIS1_SaIS1_EESt7greaterIS1_EED2Ev(%"class.std::priority_queue"* %5) #3
  br label %184

41:                                               ; preds = %28
  br label %42

42:                                               ; preds = %101, %41
  %.05 = phi i64 [ 0, %41 ], [ %102, %101 ]
  %43 = call dereferenceable(24) %"class.std::vector.0"* @_ZNSt6vectorIS_I4EdgeSaIS0_EESaIS2_EEixEm(%"class.std::vector"* @G, i64 %30) #3
  %44 = call i64 @_ZNKSt6vectorI4EdgeSaIS0_EE4sizeEv(%"class.std::vector.0"* %43) #3
  %45 = icmp ult i64 %.05, %44
  br i1 %45, label %46, label %103

46:                                               ; preds = %42
  %47 = call dereferenceable(24) %"class.std::vector.0"* @_ZNSt6vectorIS_I4EdgeSaIS0_EESaIS2_EEixEm(%"class.std::vector"* @G, i64 %30) #3
  %48 = call dereferenceable(32) %struct.Edge* @_ZNSt6vectorI4EdgeSaIS0_EEixEm(%"class.std::vector.0"* %47, i64 %.05) #3
  %49 = getelementptr inbounds %struct.Edge, %struct.Edge* %48, i32 0, i32 1
  %50 = load i64, i64* %49, align 8
  %51 = icmp sgt i64 %50, 0
  br i1 %51, label %52, label %100

52:                                               ; preds = %46
  %53 = getelementptr inbounds [21000 x double], [21000 x double]* @dist, i64 0, i64 %30
  %54 = load double, double* %53, align 8
  %55 = getelementptr inbounds %struct.Edge, %struct.Edge* %48, i32 0, i32 2
  %56 = load double, double* %55, align 8
  %57 = fadd double %54, %56
  %58 = getelementptr inbounds [21000 x double], [21000 x double]* @h, i64 0, i64 %30
  %59 = load double, double* %58, align 8
  %60 = fadd double %57, %59
  %61 = getelementptr inbounds %struct.Edge, %struct.Edge* %48, i32 0, i32 0
  %62 = load i64, i64* %61, align 8
  %63 = getelementptr inbounds [21000 x double], [21000 x double]* @h, i64 0, i64 %62
  %64 = load double, double* %63, align 8
  %65 = fsub double %60, %64
  %66 = getelementptr inbounds %struct.Edge, %struct.Edge* %48, i32 0, i32 0
  %67 = load i64, i64* %66, align 8
  %68 = getelementptr inbounds [21000 x double], [21000 x double]* @dist, i64 0, i64 %67
  %69 = load double, double* %68, align 8
  %70 = fcmp olt double %65, %69
  br i1 %70, label %71, label %100

71:                                               ; preds = %52
  %72 = getelementptr inbounds [21000 x double], [21000 x double]* @dist, i64 0, i64 %30
  %73 = load double, double* %72, align 8
  %74 = getelementptr inbounds %struct.Edge, %struct.Edge* %48, i32 0, i32 2
  %75 = load double, double* %74, align 8
  %76 = fadd double %73, %75
  %77 = getelementptr inbounds [21000 x double], [21000 x double]* @h, i64 0, i64 %30
  %78 = load double, double* %77, align 8
  %79 = fadd double %76, %78
  %80 = getelementptr inbounds %struct.Edge, %struct.Edge* %48, i32 0, i32 0
  %81 = load i64, i64* %80, align 8
  %82 = getelementptr inbounds [21000 x double], [21000 x double]* @h, i64 0, i64 %81
  %83 = load double, double* %82, align 8
  %84 = fsub double %79, %83
  %85 = getelementptr inbounds %struct.Edge, %struct.Edge* %48, i32 0, i32 0
  %86 = load i64, i64* %85, align 8
  %87 = getelementptr inbounds [21000 x double], [21000 x double]* @dist, i64 0, i64 %86
  store double %84, double* %87, align 8
  %88 = getelementptr inbounds %struct.Edge, %struct.Edge* %48, i32 0, i32 0
  %89 = load i64, i64* %88, align 8
  %90 = getelementptr inbounds [21000 x i64], [21000 x i64]* @prevV, i64 0, i64 %89
  store i64 %30, i64* %90, align 8
  %91 = getelementptr inbounds %struct.Edge, %struct.Edge* %48, i32 0, i32 0
  %92 = load i64, i64* %91, align 8
  %93 = getelementptr inbounds [21000 x i64], [21000 x i64]* @prevE, i64 0, i64 %92
  store i64 %.05, i64* %93, align 8
  %94 = getelementptr inbounds %struct.Edge, %struct.Edge* %48, i32 0, i32 0
  %95 = load i64, i64* %94, align 8
  %96 = getelementptr inbounds [21000 x double], [21000 x double]* @dist, i64 0, i64 %95
  %97 = getelementptr inbounds %struct.Edge, %struct.Edge* %48, i32 0, i32 0
  invoke void @_ZNSt4pairIdxEC2IRdRxLb1EEEOT_OT0_(%"struct.std::pair"* %9, double* dereferenceable(8) %96, i64* dereferenceable(8) %97)
          to label %98 unwind label %37

98:                                               ; preds = %71
  invoke void @_ZNSt14priority_queueISt4pairIdxESt6vectorIS1_SaIS1_EESt7greaterIS1_EE4pushEOS1_(%"class.std::priority_queue"* %5, %"struct.std::pair"* dereferenceable(16) %9)
          to label %99 unwind label %37

99:                                               ; preds = %98
  br label %100

100:                                              ; preds = %99, %52, %46
  br label %101

101:                                              ; preds = %100
  %102 = add nsw i64 %.05, 1
  br label %42

103:                                              ; preds = %42
  br label %19

104:                                              ; preds = %21
  br label %105

105:                                              ; preds = %114, %104
  %.04 = phi i64 [ 0, %104 ], [ %115, %114 ]
  %106 = call i64 @_ZNKSt6vectorIS_I4EdgeSaIS0_EESaIS2_EE4sizeEv(%"class.std::vector"* @G) #3
  %107 = icmp ult i64 %.04, %106
  br i1 %107, label %108, label %116

108:                                              ; preds = %105
  %109 = getelementptr inbounds [21000 x double], [21000 x double]* @dist, i64 0, i64 %.04
  %110 = load double, double* %109, align 8
  %111 = getelementptr inbounds [21000 x double], [21000 x double]* @h, i64 0, i64 %.04
  %112 = load double, double* %111, align 8
  %113 = fadd double %112, %110
  store double %113, double* %111, align 8
  br label %114

114:                                              ; preds = %108
  %115 = add nsw i64 %.04, 1
  br label %105

116:                                              ; preds = %105
  %117 = getelementptr inbounds [21000 x double], [21000 x double]* @dist, i64 0, i64 %1
  %118 = load double, double* %117, align 8
  %119 = fsub double %118, 1.000000e+09
  %120 = invoke double @_ZSt3absd(double %119)
          to label %121 unwind label %37

121:                                              ; preds = %116
  %122 = fcmp olt double %120, 0x3D719799812DEA11
  br i1 %122, label %123, label %128

123:                                              ; preds = %121
  %124 = invoke dereferenceable(272) %"class.std::basic_ostream"* @_ZStlsISt11char_traitsIcEERSt13basic_ostreamIcT_ES5_PKc(%"class.std::basic_ostream"* dereferenceable(272) @_ZSt4cout, i8* getelementptr inbounds ([6 x i8], [6 x i8]* @.str, i32 0, i32 0))
          to label %125 unwind label %37

125:                                              ; preds = %123
  %126 = invoke dereferenceable(272) %"class.std::basic_ostream"* @_ZNSolsEPFRSoS_E(%"class.std::basic_ostream"* %124, %"class.std::basic_ostream"* (%"class.std::basic_ostream"*)* @_ZSt4endlIcSt11char_traitsIcEERSt13basic_ostreamIT_T0_ES6_)
          to label %127 unwind label %37

127:                                              ; preds = %125
  call void @exit(i32 1) #14
  unreachable

128:                                              ; preds = %121
  store i64 %.01, i64* %10, align 8
  br label %129

129:                                              ; preds = %143, %128
  %.03 = phi i64 [ %1, %128 ], [ %145, %143 ]
  %130 = load i64, i64* %4, align 8
  %131 = icmp ne i64 %.03, %130
  br i1 %131, label %132, label %146

132:                                              ; preds = %129
  %133 = getelementptr inbounds [21000 x i64], [21000 x i64]* @prevV, i64 0, i64 %.03
  %134 = load i64, i64* %133, align 8
  %135 = call dereferenceable(24) %"class.std::vector.0"* @_ZNSt6vectorIS_I4EdgeSaIS0_EESaIS2_EEixEm(%"class.std::vector"* @G, i64 %134) #3
  %136 = getelementptr inbounds [21000 x i64], [21000 x i64]* @prevE, i64 0, i64 %.03
  %137 = load i64, i64* %136, align 8
  %138 = call dereferenceable(32) %struct.Edge* @_ZNSt6vectorI4EdgeSaIS0_EEixEm(%"class.std::vector.0"* %135, i64 %137) #3
  %139 = getelementptr inbounds %struct.Edge, %struct.Edge* %138, i32 0, i32 1
  %140 = invoke dereferenceable(8) i64* @_ZSt3minIxERKT_S2_S2_(i64* dereferenceable(8) %10, i64* dereferenceable(8) %139)
          to label %141 unwind label %37

141:                                              ; preds = %132
  %142 = load i64, i64* %140, align 8
  store i64 %142, i64* %10, align 8
  br label %143

143:                                              ; preds = %141
  %144 = getelementptr inbounds [21000 x i64], [21000 x i64]* @prevV, i64 0, i64 %.03
  %145 = load i64, i64* %144, align 8
  br label %129

146:                                              ; preds = %129
  %147 = load i64, i64* %10, align 8
  %148 = sub nsw i64 %.01, %147
  %149 = load i64, i64* %10, align 8
  %150 = sitofp i64 %149 to double
  %151 = getelementptr inbounds [21000 x double], [21000 x double]* @h, i64 0, i64 %1
  %152 = load double, double* %151, align 8
  %153 = fmul double %150, %152
  %154 = fadd double %.02, %153
  br label %155

155:                                              ; preds = %179, %146
  %.0 = phi i64 [ %1, %146 ], [ %181, %179 ]
  %156 = load i64, i64* %4, align 8
  %157 = icmp ne i64 %.0, %156
  br i1 %157, label %158, label %182

158:                                              ; preds = %155
  %159 = getelementptr inbounds [21000 x i64], [21000 x i64]* @prevV, i64 0, i64 %.0
  %160 = load i64, i64* %159, align 8
  %161 = call dereferenceable(24) %"class.std::vector.0"* @_ZNSt6vectorIS_I4EdgeSaIS0_EESaIS2_EEixEm(%"class.std::vector"* @G, i64 %160) #3
  %162 = getelementptr inbounds [21000 x i64], [21000 x i64]* @prevE, i64 0, i64 %.0
  %163 = load i64, i64* %162, align 8
  %164 = call dereferenceable(32) %struct.Edge* @_ZNSt6vectorI4EdgeSaIS0_EEixEm(%"class.std::vector.0"* %161, i64 %163) #3
  %165 = load i64, i64* %10, align 8
  %166 = getelementptr inbounds %struct.Edge, %struct.Edge* %164, i32 0, i32 1
  %167 = load i64, i64* %166, align 8
  %168 = sub nsw i64 %167, %165
  store i64 %168, i64* %166, align 8
  %169 = load i64, i64* %10, align 8
  %170 = getelementptr inbounds %struct.Edge, %struct.Edge* %164, i32 0, i32 0
  %171 = load i64, i64* %170, align 8
  %172 = call dereferenceable(24) %"class.std::vector.0"* @_ZNSt6vectorIS_I4EdgeSaIS0_EESaIS2_EEixEm(%"class.std::vector"* @G, i64 %171) #3
  %173 = getelementptr inbounds %struct.Edge, %struct.Edge* %164, i32 0, i32 3
  %174 = load i64, i64* %173, align 8
  %175 = call dereferenceable(32) %struct.Edge* @_ZNSt6vectorI4EdgeSaIS0_EEixEm(%"class.std::vector.0"* %172, i64 %174) #3
  %176 = getelementptr inbounds %struct.Edge, %struct.Edge* %175, i32 0, i32 1
  %177 = load i64, i64* %176, align 8
  %178 = add nsw i64 %177, %169
  store i64 %178, i64* %176, align 8
  br label %179

179:                                              ; preds = %158
  %180 = getelementptr inbounds [21000 x i64], [21000 x i64]* @prevV, i64 0, i64 %.0
  %181 = load i64, i64* %180, align 8
  br label %155

182:                                              ; preds = %155
  call void @_ZNSt14priority_queueISt4pairIdxESt6vectorIS1_SaIS1_EESt7greaterIS1_EED2Ev(%"class.std::priority_queue"* %5) #3
  br label %11

183:                                              ; preds = %11
  ret double %.02

184:                                              ; preds = %37
  %185 = insertvalue { i8*, i32 } undef, i8* %39, 0
  %186 = insertvalue { i8*, i32 } %185, i32 %40, 1
  resume { i8*, i32 } %186
}

; Function Attrs: noinline uwtable
define linkonce_odr double* @_ZSt6fill_nIPdiiET_S1_T0_RKT1_(double* %0, i32 %1, i32* dereferenceable(4) %2) #0 comdat {
  %4 = call double* @_ZSt12__niter_baseIPdET_S1_(double* %0)
  %5 = call double* @_ZSt10__fill_n_aIPdiiEN9__gnu_cxx11__enable_ifIXsr11__is_scalarIT1_EE7__valueET_E6__typeES4_T0_RKS3_(double* %4, i32 %1, i32* dereferenceable(4) %2)
  ret double* %5
}

; Function Attrs: noinline nounwind uwtable
define linkonce_odr void @_ZNSt14priority_queueISt4pairIdxESt6vectorIS1_SaIS1_EESt7greaterIS1_EEC2IS4_vEEv(%"class.std::priority_queue"* %0) unnamed_addr #4 comdat align 2 {
  %2 = getelementptr inbounds %"class.std::priority_queue", %"class.std::priority_queue"* %0, i32 0, i32 0
  call void @_ZNSt6vectorISt4pairIdxESaIS1_EEC2Ev(%"class.std::vector.5"* %2) #3
  %3 = getelementptr inbounds %"class.std::priority_queue", %"class.std::priority_queue"* %0, i32 0, i32 1
  ret void
}

; Function Attrs: noinline uwtable
define linkonce_odr void @_ZNSt14priority_queueISt4pairIdxESt6vectorIS1_SaIS1_EESt7greaterIS1_EE4pushEOS1_(%"class.std::priority_queue"* %0, %"struct.std::pair"* dereferenceable(16) %1) #0 comdat align 2 {
  %3 = alloca %"class.__gnu_cxx::__normal_iterator.23", align 8
  %4 = alloca %"class.__gnu_cxx::__normal_iterator.23", align 8
  %5 = getelementptr inbounds %"class.std::priority_queue", %"class.std::priority_queue"* %0, i32 0, i32 0
  %6 = call dereferenceable(16) %"struct.std::pair"* @_ZSt4moveIRSt4pairIdxEEONSt16remove_referenceIT_E4typeEOS4_(%"struct.std::pair"* dereferenceable(16) %1) #3
  call void @_ZNSt6vectorISt4pairIdxESaIS1_EE9push_backEOS1_(%"class.std::vector.5"* %5, %"struct.std::pair"* dereferenceable(16) %6)
  %7 = getelementptr inbounds %"class.std::priority_queue", %"class.std::priority_queue"* %0, i32 0, i32 0
  %8 = call %"struct.std::pair"* @_ZNSt6vectorISt4pairIdxESaIS1_EE5beginEv(%"class.std::vector.5"* %7) #3
  %9 = getelementptr inbounds %"class.__gnu_cxx::__normal_iterator.23", %"class.__gnu_cxx::__normal_iterator.23"* %3, i32 0, i32 0
  store %"struct.std::pair"* %8, %"struct.std::pair"** %9, align 8
  %10 = getelementptr inbounds %"class.std::priority_queue", %"class.std::priority_queue"* %0, i32 0, i32 0
  %11 = call %"struct.std::pair"* @_ZNSt6vectorISt4pairIdxESaIS1_EE3endEv(%"class.std::vector.5"* %10) #3
  %12 = getelementptr inbounds %"class.__gnu_cxx::__normal_iterator.23", %"class.__gnu_cxx::__normal_iterator.23"* %4, i32 0, i32 0
  store %"struct.std::pair"* %11, %"struct.std::pair"** %12, align 8
  %13 = getelementptr inbounds %"class.std::priority_queue", %"class.std::priority_queue"* %0, i32 0, i32 1
  %14 = getelementptr inbounds %"class.__gnu_cxx::__normal_iterator.23", %"class.__gnu_cxx::__normal_iterator.23"* %3, i32 0, i32 0
  %15 = load %"struct.std::pair"*, %"struct.std::pair"** %14, align 8
  %16 = getelementptr inbounds %"class.__gnu_cxx::__normal_iterator.23", %"class.__gnu_cxx::__normal_iterator.23"* %4, i32 0, i32 0
  %17 = load %"struct.std::pair"*, %"struct.std::pair"** %16, align 8
  call void @_ZSt9push_heapIN9__gnu_cxx17__normal_iteratorIPSt4pairIdxESt6vectorIS3_SaIS3_EEEESt7greaterIS3_EEvT_SB_T0_(%"struct.std::pair"* %15, %"struct.std::pair"* %17)
  ret void
}

; Function Attrs: noinline nounwind uwtable
define linkonce_odr void @_ZNSt4pairIdxEC2IiRxLb1EEEOT_OT0_(%"struct.std::pair"* %0, i32* dereferenceable(4) %1, i64* dereferenceable(8) %2) unnamed_addr #4 comdat align 2 {
  %4 = bitcast %"struct.std::pair"* %0 to %"class.std::__pair_base"*
  %5 = getelementptr inbounds %"struct.std::pair", %"struct.std::pair"* %0, i32 0, i32 0
  %6 = call dereferenceable(4) i32* @_ZSt7forwardIiEOT_RNSt16remove_referenceIS0_E4typeE(i32* dereferenceable(4) %1) #3
  %7 = load i32, i32* %6, align 4
  %8 = sitofp i32 %7 to double
  store double %8, double* %5, align 8
  %9 = getelementptr inbounds %"struct.std::pair", %"struct.std::pair"* %0, i32 0, i32 1
  %10 = call dereferenceable(8) i64* @_ZSt7forwardIRxEOT_RNSt16remove_referenceIS1_E4typeE(i64* dereferenceable(8) %2) #3
  %11 = load i64, i64* %10, align 8
  store i64 %11, i64* %9, align 8
  ret void
}

declare i32 @__gxx_personality_v0(...)

; Function Attrs: noinline nounwind uwtable
define linkonce_odr zeroext i1 @_ZNKSt14priority_queueISt4pairIdxESt6vectorIS1_SaIS1_EESt7greaterIS1_EE5emptyEv(%"class.std::priority_queue"* %0) #4 comdat align 2 {
  %2 = getelementptr inbounds %"class.std::priority_queue", %"class.std::priority_queue"* %0, i32 0, i32 0
  %3 = call zeroext i1 @_ZNKSt6vectorISt4pairIdxESaIS1_EE5emptyEv(%"class.std::vector.5"* %2) #3
  ret i1 %3
}

; Function Attrs: noinline nounwind uwtable
define linkonce_odr dereferenceable(16) %"struct.std::pair"* @_ZNKSt14priority_queueISt4pairIdxESt6vectorIS1_SaIS1_EESt7greaterIS1_EE3topEv(%"class.std::priority_queue"* %0) #4 comdat align 2 {
  %2 = getelementptr inbounds %"class.std::priority_queue", %"class.std::priority_queue"* %0, i32 0, i32 0
  %3 = call dereferenceable(16) %"struct.std::pair"* @_ZNKSt6vectorISt4pairIdxESaIS1_EE5frontEv(%"class.std::vector.5"* %2) #3
  ret %"struct.std::pair"* %3
}

; Function Attrs: noinline uwtable
define linkonce_odr void @_ZNSt14priority_queueISt4pairIdxESt6vectorIS1_SaIS1_EESt7greaterIS1_EE3popEv(%"class.std::priority_queue"* %0) #0 comdat align 2 {
  %2 = alloca %"class.__gnu_cxx::__normal_iterator.23", align 8
  %3 = alloca %"class.__gnu_cxx::__normal_iterator.23", align 8
  %4 = getelementptr inbounds %"class.std::priority_queue", %"class.std::priority_queue"* %0, i32 0, i32 0
  %5 = call %"struct.std::pair"* @_ZNSt6vectorISt4pairIdxESaIS1_EE5beginEv(%"class.std::vector.5"* %4) #3
  %6 = getelementptr inbounds %"class.__gnu_cxx::__normal_iterator.23", %"class.__gnu_cxx::__normal_iterator.23"* %2, i32 0, i32 0
  store %"struct.std::pair"* %5, %"struct.std::pair"** %6, align 8
  %7 = getelementptr inbounds %"class.std::priority_queue", %"class.std::priority_queue"* %0, i32 0, i32 0
  %8 = call %"struct.std::pair"* @_ZNSt6vectorISt4pairIdxESaIS1_EE3endEv(%"class.std::vector.5"* %7) #3
  %9 = getelementptr inbounds %"class.__gnu_cxx::__normal_iterator.23", %"class.__gnu_cxx::__normal_iterator.23"* %3, i32 0, i32 0
  store %"struct.std::pair"* %8, %"struct.std::pair"** %9, align 8
  %10 = getelementptr inbounds %"class.std::priority_queue", %"class.std::priority_queue"* %0, i32 0, i32 1
  %11 = getelementptr inbounds %"class.__gnu_cxx::__normal_iterator.23", %"class.__gnu_cxx::__normal_iterator.23"* %2, i32 0, i32 0
  %12 = load %"struct.std::pair"*, %"struct.std::pair"** %11, align 8
  %13 = getelementptr inbounds %"class.__gnu_cxx::__normal_iterator.23", %"class.__gnu_cxx::__normal_iterator.23"* %3, i32 0, i32 0
  %14 = load %"struct.std::pair"*, %"struct.std::pair"** %13, align 8
  call void @_ZSt8pop_heapIN9__gnu_cxx17__normal_iteratorIPSt4pairIdxESt6vectorIS3_SaIS3_EEEESt7greaterIS3_EEvT_SB_T0_(%"struct.std::pair"* %12, %"struct.std::pair"* %14)
  %15 = getelementptr inbounds %"class.std::priority_queue", %"class.std::priority_queue"* %0, i32 0, i32 0
  call void @_ZNSt6vectorISt4pairIdxESaIS1_EE8pop_backEv(%"class.std::vector.5"* %15) #3
  ret void
}

; Function Attrs: noinline nounwind uwtable
define linkonce_odr dereferenceable(32) %struct.Edge* @_ZNSt6vectorI4EdgeSaIS0_EEixEm(%"class.std::vector.0"* %0, i64 %1) #4 comdat align 2 {
  %3 = bitcast %"class.std::vector.0"* %0 to %"struct.std::_Vector_base.1"*
  %4 = getelementptr inbounds %"struct.std::_Vector_base.1", %"struct.std::_Vector_base.1"* %3, i32 0, i32 0
  %5 = getelementptr inbounds %"struct.std::_Vector_base<Edge, std::allocator<Edge> >::_Vector_impl", %"struct.std::_Vector_base<Edge, std::allocator<Edge> >::_Vector_impl"* %4, i32 0, i32 0
  %6 = load %struct.Edge*, %struct.Edge** %5, align 8
  %7 = getelementptr inbounds %struct.Edge, %struct.Edge* %6, i64 %1
  ret %struct.Edge* %7
}

; Function Attrs: noinline nounwind uwtable
define linkonce_odr void @_ZNSt4pairIdxEC2IRdRxLb1EEEOT_OT0_(%"struct.std::pair"* %0, double* dereferenceable(8) %1, i64* dereferenceable(8) %2) unnamed_addr #4 comdat align 2 {
  %4 = bitcast %"struct.std::pair"* %0 to %"class.std::__pair_base"*
  %5 = getelementptr inbounds %"struct.std::pair", %"struct.std::pair"* %0, i32 0, i32 0
  %6 = call dereferenceable(8) double* @_ZSt7forwardIRdEOT_RNSt16remove_referenceIS1_E4typeE(double* dereferenceable(8) %1) #3
  %7 = load double, double* %6, align 8
  store double %7, double* %5, align 8
  %8 = getelementptr inbounds %"struct.std::pair", %"struct.std::pair"* %0, i32 0, i32 1
  %9 = call dereferenceable(8) i64* @_ZSt7forwardIRxEOT_RNSt16remove_referenceIS1_E4typeE(i64* dereferenceable(8) %2) #3
  %10 = load i64, i64* %9, align 8
  store i64 %10, i64* %8, align 8
  ret void
}

; Function Attrs: noinline nounwind uwtable
define linkonce_odr i64 @_ZNKSt6vectorIS_I4EdgeSaIS0_EESaIS2_EE4sizeEv(%"class.std::vector"* %0) #4 comdat align 2 {
  %2 = bitcast %"class.std::vector"* %0 to %"struct.std::_Vector_base"*
  %3 = getelementptr inbounds %"struct.std::_Vector_base", %"struct.std::_Vector_base"* %2, i32 0, i32 0
  %4 = getelementptr inbounds %"struct.std::_Vector_base<std::vector<Edge, std::allocator<Edge> >, std::allocator<std::vector<Edge, std::allocator<Edge> > > >::_Vector_impl", %"struct.std::_Vector_base<std::vector<Edge, std::allocator<Edge> >, std::allocator<std::vector<Edge, std::allocator<Edge> > > >::_Vector_impl"* %3, i32 0, i32 1
  %5 = load %"class.std::vector.0"*, %"class.std::vector.0"** %4, align 8
  %6 = bitcast %"class.std::vector"* %0 to %"struct.std::_Vector_base"*
  %7 = getelementptr inbounds %"struct.std::_Vector_base", %"struct.std::_Vector_base"* %6, i32 0, i32 0
  %8 = getelementptr inbounds %"struct.std::_Vector_base<std::vector<Edge, std::allocator<Edge> >, std::allocator<std::vector<Edge, std::allocator<Edge> > > >::_Vector_impl", %"struct.std::_Vector_base<std::vector<Edge, std::allocator<Edge> >, std::allocator<std::vector<Edge, std::allocator<Edge> > > >::_Vector_impl"* %7, i32 0, i32 0
  %9 = load %"class.std::vector.0"*, %"class.std::vector.0"** %8, align 8
  %10 = ptrtoint %"class.std::vector.0"* %5 to i64
  %11 = ptrtoint %"class.std::vector.0"* %9 to i64
  %12 = sub i64 %10, %11
  %13 = sdiv exact i64 %12, 24
  ret i64 %13
}

; Function Attrs: noinline nounwind uwtable
define linkonce_odr double @_ZSt3absd(double %0) #4 comdat {
  %2 = call double @llvm.fabs.f64(double %0)
  ret double %2
}

declare dereferenceable(272) %"class.std::basic_ostream"* @_ZStlsISt11char_traitsIcEERSt13basic_ostreamIcT_ES5_PKc(%"class.std::basic_ostream"* dereferenceable(272), i8*) #1

declare dereferenceable(272) %"class.std::basic_ostream"* @_ZNSolsEPFRSoS_E(%"class.std::basic_ostream"*, %"class.std::basic_ostream"* (%"class.std::basic_ostream"*)*) #1

declare dereferenceable(272) %"class.std::basic_ostream"* @_ZSt4endlIcSt11char_traitsIcEERSt13basic_ostreamIT_T0_ES6_(%"class.std::basic_ostream"* dereferenceable(272)) #1

; Function Attrs: noreturn nounwind
declare void @exit(i32) #5

; Function Attrs: noinline nounwind uwtable
define linkonce_odr dereferenceable(8) i64* @_ZSt3minIxERKT_S2_S2_(i64* dereferenceable(8) %0, i64* dereferenceable(8) %1) #4 comdat {
  %3 = load i64, i64* %1, align 8
  %4 = load i64, i64* %0, align 8
  %5 = icmp slt i64 %3, %4
  br i1 %5, label %6, label %7

6:                                                ; preds = %2
  br label %8

7:                                                ; preds = %2
  br label %8

8:                                                ; preds = %7, %6
  %.0 = phi i64* [ %1, %6 ], [ %0, %7 ]
  ret i64* %.0
}

; Function Attrs: noinline nounwind uwtable
define linkonce_odr void @_ZNSt14priority_queueISt4pairIdxESt6vectorIS1_SaIS1_EESt7greaterIS1_EED2Ev(%"class.std::priority_queue"* %0) unnamed_addr #4 comdat align 2 {
  %2 = getelementptr inbounds %"class.std::priority_queue", %"class.std::priority_queue"* %0, i32 0, i32 0
  call void @_ZNSt6vectorISt4pairIdxESaIS1_EED2Ev(%"class.std::vector.5"* %2) #3
  ret void
}

; Function Attrs: noinline norecurse uwtable
define i32 @main() #6 personality i8* bitcast (i32 (...)* @__gxx_personality_v0 to i8*) {
  %1 = alloca i32, align 4
  %2 = alloca %"struct.std::complex", align 8
  %3 = alloca %"class.std::vector.10", align 8
  %4 = alloca %"class.std::allocator.12", align 1
  %5 = alloca %"struct.std::complex", align 8
  %6 = alloca %"class.std::vector.18", align 8
  %7 = alloca %"class.std::allocator.20", align 1
  %8 = alloca %"class.std::vector.18", align 8
  %9 = alloca %"class.std::allocator.20", align 1
  %10 = alloca %"struct.std::complex", align 8
  %11 = alloca %"struct.std::_Setprecision", align 4
  %12 = call zeroext i1 @_ZNSt8ios_base15sync_with_stdioEb(i1 zeroext false)
  %13 = load i8*, i8** bitcast (%"class.std::basic_istream"* @_ZSt3cin to i8**), align 8
  %14 = getelementptr i8, i8* %13, i64 -24
  %15 = bitcast i8* %14 to i64*
  %16 = load i64, i64* %15, align 8
  %17 = getelementptr inbounds i8, i8* bitcast (%"class.std::basic_istream"* @_ZSt3cin to i8*), i64 %16
  %18 = bitcast i8* %17 to %"class.std::basic_ios"*
  %19 = call %"class.std::basic_ostream"* @_ZNSt9basic_iosIcSt11char_traitsIcEE3tieEPSo(%"class.std::basic_ios"* %18, %"class.std::basic_ostream"* null)
  %20 = call dereferenceable(280) %"class.std::basic_istream"* @_ZNSirsERi(%"class.std::basic_istream"* @_ZSt3cin, i32* dereferenceable(4) %1)
  call void @_ZNSt7complexIdEC2Edd(%"struct.std::complex"* %2, double 0.000000e+00, double 0.000000e+00)
  %21 = call dereferenceable(280) %"class.std::basic_istream"* @_ZrsIdERSiS0_RSt7complexIT_E(%"class.std::basic_istream"* dereferenceable(280) @_ZSt3cin, %"struct.std::complex"* dereferenceable(16) %2)
  %22 = load i32, i32* %1, align 4
  %23 = sext i32 %22 to i64
  call void @_ZNSaISt4pairISt7complexIdES1_EEC2Ev(%"class.std::allocator.12"* %4) #3
  invoke void @_ZNSt6vectorISt4pairISt7complexIdES2_ESaIS3_EEC2EmRKS4_(%"class.std::vector.10"* %3, i64 %23, %"class.std::allocator.12"* dereferenceable(1) %4)
          to label %24 unwind label %40

24:                                               ; preds = %0
  call void @_ZNSaISt4pairISt7complexIdES1_EED2Ev(%"class.std::allocator.12"* %4) #3
  br label %25

25:                                               ; preds = %38, %24
  %.05 = phi i64 [ 0, %24 ], [ %39, %38 ]
  %26 = load i32, i32* %1, align 4
  %27 = sext i32 %26 to i64
  %28 = icmp slt i64 %.05, %27
  br i1 %28, label %29, label %48

29:                                               ; preds = %25
  %30 = call dereferenceable(32) %"struct.std::pair.15"* @_ZNSt6vectorISt4pairISt7complexIdES2_ESaIS3_EEixEm(%"class.std::vector.10"* %3, i64 %.05) #3
  %31 = getelementptr inbounds %"struct.std::pair.15", %"struct.std::pair.15"* %30, i32 0, i32 0
  %32 = invoke dereferenceable(280) %"class.std::basic_istream"* @_ZrsIdERSiS0_RSt7complexIT_E(%"class.std::basic_istream"* dereferenceable(280) @_ZSt3cin, %"struct.std::complex"* dereferenceable(16) %31)
          to label %33 unwind label %44

33:                                               ; preds = %29
  %34 = call dereferenceable(32) %"struct.std::pair.15"* @_ZNSt6vectorISt4pairISt7complexIdES2_ESaIS3_EEixEm(%"class.std::vector.10"* %3, i64 %.05) #3
  %35 = getelementptr inbounds %"struct.std::pair.15", %"struct.std::pair.15"* %34, i32 0, i32 1
  %36 = invoke dereferenceable(280) %"class.std::basic_istream"* @_ZrsIdERSiS0_RSt7complexIT_E(%"class.std::basic_istream"* dereferenceable(280) %32, %"struct.std::complex"* dereferenceable(16) %35)
          to label %37 unwind label %44

37:                                               ; preds = %33
  br label %38

38:                                               ; preds = %37
  %39 = add nsw i64 %.05, 1
  br label %25

40:                                               ; preds = %0
  %41 = landingpad { i8*, i32 }
          cleanup
  %42 = extractvalue { i8*, i32 } %41, 0
  %43 = extractvalue { i8*, i32 } %41, 1
  call void @_ZNSaISt4pairISt7complexIdES1_EED2Ev(%"class.std::allocator.12"* %4) #3
  br label %197

44:                                               ; preds = %59, %53, %33, %29
  %45 = landingpad { i8*, i32 }
          cleanup
  %46 = extractvalue { i8*, i32 } %45, 0
  %47 = extractvalue { i8*, i32 } %45, 1
  br label %196

48:                                               ; preds = %25
  br label %49

49:                                               ; preds = %68, %48
  %.07 = phi i64 [ 0, %48 ], [ %69, %68 ]
  %.06 = phi double [ 0.000000e+00, %48 ], [ %67, %68 ]
  %50 = load i32, i32* %1, align 4
  %51 = sext i32 %50 to i64
  %52 = icmp slt i64 %.07, %51
  br i1 %52, label %53, label %70

53:                                               ; preds = %49
  %54 = call dereferenceable(32) %"struct.std::pair.15"* @_ZNSt6vectorISt4pairISt7complexIdES2_ESaIS3_EEixEm(%"class.std::vector.10"* %3, i64 %.07) #3
  %55 = getelementptr inbounds %"struct.std::pair.15", %"struct.std::pair.15"* %54, i32 0, i32 1
  %56 = call dereferenceable(32) %"struct.std::pair.15"* @_ZNSt6vectorISt4pairISt7complexIdES2_ESaIS3_EEixEm(%"class.std::vector.10"* %3, i64 %.07) #3
  %57 = getelementptr inbounds %"struct.std::pair.15", %"struct.std::pair.15"* %56, i32 0, i32 0
  %58 = invoke { double, double } @_ZStmiIdESt7complexIT_ERKS2_S4_(%"struct.std::complex"* dereferenceable(16) %55, %"struct.std::complex"* dereferenceable(16) %57)
          to label %59 unwind label %44

59:                                               ; preds = %53
  %60 = getelementptr inbounds %"struct.std::complex", %"struct.std::complex"* %5, i32 0, i32 0
  %61 = getelementptr inbounds { double, double }, { double, double }* %60, i32 0, i32 0
  %62 = extractvalue { double, double } %58, 0
  store double %62, double* %61, align 8
  %63 = getelementptr inbounds { double, double }, { double, double }* %60, i32 0, i32 1
  %64 = extractvalue { double, double } %58, 1
  store double %64, double* %63, align 8
  %65 = invoke double @_ZSt3absIdET_RKSt7complexIS0_E(%"struct.std::complex"* dereferenceable(16) %5)
          to label %66 unwind label %44

66:                                               ; preds = %59
  %67 = fadd double %.06, %65
  br label %68

68:                                               ; preds = %66
  %69 = add nsw i64 %.07, 1
  br label %49

70:                                               ; preds = %49
  %71 = load i32, i32* %1, align 4
  %72 = sext i32 %71 to i64
  call void @_ZNSaIiEC2Ev(%"class.std::allocator.20"* %7) #3
  invoke void @_ZNSt6vectorIiSaIiEEC2EmRKS0_(%"class.std::vector.18"* %6, i64 %72, %"class.std::allocator.20"* dereferenceable(1) %7)
          to label %73 unwind label %86

73:                                               ; preds = %70
  call void @_ZNSaIiED2Ev(%"class.std::allocator.20"* %7) #3
  %74 = load i32, i32* %1, align 4
  %75 = sext i32 %74 to i64
  call void @_ZNSaIiEC2Ev(%"class.std::allocator.20"* %9) #3
  invoke void @_ZNSt6vectorIiSaIiEEC2EmRKS0_(%"class.std::vector.18"* %8, i64 %75, %"class.std::allocator.20"* dereferenceable(1) %9)
          to label %76 unwind label %90

76:                                               ; preds = %73
  call void @_ZNSaIiED2Ev(%"class.std::allocator.20"* %9) #3
  br label %77

77:                                               ; preds = %84, %76
  %.010 = phi i64 [ 0, %76 ], [ %85, %84 ]
  %.08 = phi i32 [ 0, %76 ], [ %82, %84 ]
  %78 = load i32, i32* %1, align 4
  %79 = sext i32 %78 to i64
  %80 = icmp slt i64 %.010, %79
  br i1 %80, label %81, label %94

81:                                               ; preds = %77
  %82 = add nsw i32 %.08, 1
  %83 = call dereferenceable(4) i32* @_ZNSt6vectorIiSaIiEEixEm(%"class.std::vector.18"* %6, i64 %.010) #3
  store i32 %.08, i32* %83, align 4
  br label %84

84:                                               ; preds = %81
  %85 = add nsw i64 %.010, 1
  br label %77

86:                                               ; preds = %70
  %87 = landingpad { i8*, i32 }
          cleanup
  %88 = extractvalue { i8*, i32 } %87, 0
  %89 = extractvalue { i8*, i32 } %87, 1
  call void @_ZNSaIiED2Ev(%"class.std::allocator.20"* %7) #3
  br label %196

90:                                               ; preds = %73
  %91 = landingpad { i8*, i32 }
          cleanup
  %92 = extractvalue { i8*, i32 } %91, 0
  %93 = extractvalue { i8*, i32 } %91, 1
  call void @_ZNSaIiED2Ev(%"class.std::allocator.20"* %9) #3
  br label %195

94:                                               ; preds = %77
  br label %95

95:                                               ; preds = %102, %94
  %.011 = phi i64 [ 0, %94 ], [ %103, %102 ]
  %.19 = phi i32 [ %.08, %94 ], [ %100, %102 ]
  %96 = load i32, i32* %1, align 4
  %97 = sext i32 %96 to i64
  %98 = icmp slt i64 %.011, %97
  br i1 %98, label %99, label %104

99:                                               ; preds = %95
  %100 = add nsw i32 %.19, 1
  %101 = call dereferenceable(4) i32* @_ZNSt6vectorIiSaIiEEixEm(%"class.std::vector.18"* %8, i64 %.011) #3
  store i32 %.19, i32* %101, align 4
  br label %102

102:                                              ; preds = %99
  %103 = add nsw i64 %.011, 1
  br label %95

104:                                              ; preds = %95
  %105 = add nsw i32 %.19, 1
  %106 = add nsw i32 %105, 1
  call void @_ZNSt6vectorIS_I4EdgeSaIS0_EESaIS2_EE5clearEv(%"class.std::vector"* @G) #3
  %107 = sext i32 %106 to i64
  invoke void @_ZNSt6vectorIS_I4EdgeSaIS0_EESaIS2_EE6resizeEm(%"class.std::vector"* @G, i64 %107)
          to label %108 unwind label %141

108:                                              ; preds = %104
  br label %109

109:                                              ; preds = %146, %108
  %.014 = phi i64 [ 0, %108 ], [ %147, %146 ]
  %110 = load i32, i32* %1, align 4
  %111 = sext i32 %110 to i64
  %112 = icmp slt i64 %.014, %111
  br i1 %112, label %113, label %148

113:                                              ; preds = %109
  br label %114

114:                                              ; preds = %139, %113
  %.013 = phi i64 [ 0, %113 ], [ %140, %139 ]
  %115 = load i32, i32* %1, align 4
  %116 = sext i32 %115 to i64
  %117 = icmp slt i64 %.013, %116
  br i1 %117, label %118, label %145

118:                                              ; preds = %114
  %119 = call dereferenceable(32) %"struct.std::pair.15"* @_ZNSt6vectorISt4pairISt7complexIdES2_ESaIS3_EEixEm(%"class.std::vector.10"* %3, i64 %.014) #3
  %120 = getelementptr inbounds %"struct.std::pair.15", %"struct.std::pair.15"* %119, i32 0, i32 1
  %121 = call dereferenceable(32) %"struct.std::pair.15"* @_ZNSt6vectorISt4pairISt7complexIdES2_ESaIS3_EEixEm(%"class.std::vector.10"* %3, i64 %.013) #3
  %122 = getelementptr inbounds %"struct.std::pair.15", %"struct.std::pair.15"* %121, i32 0, i32 0
  %123 = invoke { double, double } @_ZStmiIdESt7complexIT_ERKS2_S4_(%"struct.std::complex"* dereferenceable(16) %120, %"struct.std::complex"* dereferenceable(16) %122)
          to label %124 unwind label %141

124:                                              ; preds = %118
  %125 = getelementptr inbounds %"struct.std::complex", %"struct.std::complex"* %10, i32 0, i32 0
  %126 = getelementptr inbounds { double, double }, { double, double }* %125, i32 0, i32 0
  %127 = extractvalue { double, double } %123, 0
  store double %127, double* %126, align 8
  %128 = getelementptr inbounds { double, double }, { double, double }* %125, i32 0, i32 1
  %129 = extractvalue { double, double } %123, 1
  store double %129, double* %128, align 8
  %130 = invoke double @_ZSt3absIdET_RKSt7complexIS0_E(%"struct.std::complex"* dereferenceable(16) %10)
          to label %131 unwind label %141

131:                                              ; preds = %124
  %132 = call dereferenceable(4) i32* @_ZNSt6vectorIiSaIiEEixEm(%"class.std::vector.18"* %6, i64 %.014) #3
  %133 = load i32, i32* %132, align 4
  %134 = sext i32 %133 to i64
  %135 = call dereferenceable(4) i32* @_ZNSt6vectorIiSaIiEEixEm(%"class.std::vector.18"* %8, i64 %.013) #3
  %136 = load i32, i32* %135, align 4
  %137 = sext i32 %136 to i64
  invoke void @_Z8add_edgexxxd(i64 %134, i64 %137, i64 1, double %130)
          to label %138 unwind label %141

138:                                              ; preds = %131
  br label %139

139:                                              ; preds = %138
  %140 = add nsw i64 %.013, 1
  br label %114

141:                                              ; preds = %192, %190, %185, %183, %180, %174, %166, %153, %131, %124, %118, %104
  %142 = landingpad { i8*, i32 }
          cleanup
  %143 = extractvalue { i8*, i32 } %142, 0
  %144 = extractvalue { i8*, i32 } %142, 1
  call void @_ZNSt6vectorIiSaIiEED2Ev(%"class.std::vector.18"* %8) #3
  br label %195

145:                                              ; preds = %114
  br label %146

146:                                              ; preds = %145
  %147 = add nsw i64 %.014, 1
  br label %109

148:                                              ; preds = %109
  br label %149

149:                                              ; preds = %159, %148
  %.012 = phi i64 [ 0, %148 ], [ %160, %159 ]
  %150 = load i32, i32* %1, align 4
  %151 = sext i32 %150 to i64
  %152 = icmp slt i64 %.012, %151
  br i1 %152, label %153, label %161

153:                                              ; preds = %149
  %154 = sext i32 %.19 to i64
  %155 = call dereferenceable(4) i32* @_ZNSt6vectorIiSaIiEEixEm(%"class.std::vector.18"* %6, i64 %.012) #3
  %156 = load i32, i32* %155, align 4
  %157 = sext i32 %156 to i64
  invoke void @_Z8add_edgexxxd(i64 %154, i64 %157, i64 1, double 0.000000e+00)
          to label %158 unwind label %141

158:                                              ; preds = %153
  br label %159

159:                                              ; preds = %158
  %160 = add nsw i64 %.012, 1
  br label %149

161:                                              ; preds = %149
  br label %162

162:                                              ; preds = %172, %161
  %.0 = phi i64 [ 0, %161 ], [ %173, %172 ]
  %163 = load i32, i32* %1, align 4
  %164 = sext i32 %163 to i64
  %165 = icmp slt i64 %.0, %164
  br i1 %165, label %166, label %174

166:                                              ; preds = %162
  %167 = call dereferenceable(4) i32* @_ZNSt6vectorIiSaIiEEixEm(%"class.std::vector.18"* %8, i64 %.0) #3
  %168 = load i32, i32* %167, align 4
  %169 = sext i32 %168 to i64
  %170 = sext i32 %105 to i64
  invoke void @_Z8add_edgexxxd(i64 %169, i64 %170, i64 1, double 0.000000e+00)
          to label %171 unwind label %141

171:                                              ; preds = %166
  br label %172

172:                                              ; preds = %171
  %173 = add nsw i64 %.0, 1
  br label %162

174:                                              ; preds = %162
  %175 = sext i32 %.19 to i64
  %176 = sext i32 %105 to i64
  %177 = load i32, i32* %1, align 4
  %178 = sext i32 %177 to i64
  %179 = invoke double @_Z13min_cost_flowxxx(i64 %175, i64 %176, i64 %178)
          to label %180 unwind label %141

180:                                              ; preds = %174
  %181 = fadd double %.06, %179
  %182 = invoke dereferenceable(272) %"class.std::basic_ostream"* @_ZNSolsEPFRSt8ios_baseS0_E(%"class.std::basic_ostream"* @_ZSt4cout, %"class.std::ios_base"* (%"class.std::ios_base"*)* @_ZSt5fixedRSt8ios_base)
          to label %183 unwind label %141

183:                                              ; preds = %180
  %184 = invoke i32 @_ZSt12setprecisioni(i32 10)
          to label %185 unwind label %141

185:                                              ; preds = %183
  %186 = getelementptr inbounds %"struct.std::_Setprecision", %"struct.std::_Setprecision"* %11, i32 0, i32 0
  store i32 %184, i32* %186, align 4
  %187 = getelementptr inbounds %"struct.std::_Setprecision", %"struct.std::_Setprecision"* %11, i32 0, i32 0
  %188 = load i32, i32* %187, align 4
  %189 = invoke dereferenceable(272) %"class.std::basic_ostream"* @_ZStlsIcSt11char_traitsIcEERSt13basic_ostreamIT_T0_ES6_St13_Setprecision(%"class.std::basic_ostream"* dereferenceable(272) %182, i32 %188)
          to label %190 unwind label %141

190:                                              ; preds = %185
  %191 = invoke dereferenceable(272) %"class.std::basic_ostream"* @_ZNSolsEd(%"class.std::basic_ostream"* %189, double %181)
          to label %192 unwind label %141

192:                                              ; preds = %190
  %193 = invoke dereferenceable(272) %"class.std::basic_ostream"* @_ZNSolsEPFRSoS_E(%"class.std::basic_ostream"* %191, %"class.std::basic_ostream"* (%"class.std::basic_ostream"*)* @_ZSt4endlIcSt11char_traitsIcEERSt13basic_ostreamIT_T0_ES6_)
          to label %194 unwind label %141

194:                                              ; preds = %192
  call void @_ZNSt6vectorIiSaIiEED2Ev(%"class.std::vector.18"* %8) #3
  call void @_ZNSt6vectorIiSaIiEED2Ev(%"class.std::vector.18"* %6) #3
  call void @_ZNSt6vectorISt4pairISt7complexIdES2_ESaIS3_EED2Ev(%"class.std::vector.10"* %3) #3
  ret i32 0

195:                                              ; preds = %141, %90
  %.02 = phi i32 [ %144, %141 ], [ %93, %90 ]
  %.01 = phi i8* [ %143, %141 ], [ %92, %90 ]
  call void @_ZNSt6vectorIiSaIiEED2Ev(%"class.std::vector.18"* %6) #3
  br label %196

196:                                              ; preds = %195, %86, %44
  %.13 = phi i32 [ %47, %44 ], [ %.02, %195 ], [ %89, %86 ]
  %.1 = phi i8* [ %46, %44 ], [ %.01, %195 ], [ %88, %86 ]
  call void @_ZNSt6vectorISt4pairISt7complexIdES2_ESaIS3_EED2Ev(%"class.std::vector.10"* %3) #3
  br label %197

197:                                              ; preds = %196, %40
  %.24 = phi i32 [ %.13, %196 ], [ %43, %40 ]
  %.2 = phi i8* [ %.1, %196 ], [ %42, %40 ]
  %198 = insertvalue { i8*, i32 } undef, i8* %.2, 0
  %199 = insertvalue { i8*, i32 } %198, i32 %.24, 1
  resume { i8*, i32 } %199
}

declare zeroext i1 @_ZNSt8ios_base15sync_with_stdioEb(i1 zeroext) #1

declare %"class.std::basic_ostream"* @_ZNSt9basic_iosIcSt11char_traitsIcEE3tieEPSo(%"class.std::basic_ios"*, %"class.std::basic_ostream"*) #1

declare dereferenceable(280) %"class.std::basic_istream"* @_ZNSirsERi(%"class.std::basic_istream"*, i32* dereferenceable(4)) #1

; Function Attrs: noinline nounwind uwtable
define linkonce_odr void @_ZNSt7complexIdEC2Edd(%"struct.std::complex"* %0, double %1, double %2) unnamed_addr #4 comdat align 2 {
  %4 = getelementptr inbounds %"struct.std::complex", %"struct.std::complex"* %0, i32 0, i32 0
  %5 = getelementptr inbounds { double, double }, { double, double }* %4, i32 0, i32 0
  %6 = getelementptr inbounds { double, double }, { double, double }* %4, i32 0, i32 1
  store double %1, double* %5, align 8
  store double %2, double* %6, align 8
  ret void
}

; Function Attrs: noinline uwtable
define linkonce_odr dereferenceable(280) %"class.std::basic_istream"* @_ZrsIdERSiS0_RSt7complexIT_E(%"class.std::basic_istream"* dereferenceable(280) %0, %"struct.std::complex"* dereferenceable(16) %1) #0 comdat {
  %3 = alloca double, align 8
  %4 = alloca double, align 8
  %5 = alloca %"struct.std::complex", align 8
  %6 = call dereferenceable(280) %"class.std::basic_istream"* @_ZNSirsERd(%"class.std::basic_istream"* %0, double* dereferenceable(8) %3)
  %7 = call dereferenceable(280) %"class.std::basic_istream"* @_ZNSirsERd(%"class.std::basic_istream"* %6, double* dereferenceable(8) %4)
  %8 = load double, double* %3, align 8
  %9 = load double, double* %4, align 8
  call void @_ZNSt7complexIdEC2Edd(%"struct.std::complex"* %5, double %8, double %9)
  %10 = bitcast %"struct.std::complex"* %1 to i8*
  %11 = bitcast %"struct.std::complex"* %5 to i8*
  call void @llvm.memcpy.p0i8.p0i8.i64(i8* align 8 %10, i8* align 8 %11, i64 16, i1 false)
  ret %"class.std::basic_istream"* %0
}

; Function Attrs: noinline nounwind uwtable
define linkonce_odr void @_ZNSaISt4pairISt7complexIdES1_EEC2Ev(%"class.std::allocator.12"* %0) unnamed_addr #4 comdat align 2 {
  %2 = bitcast %"class.std::allocator.12"* %0 to %"class.__gnu_cxx::new_allocator.13"*
  call void @_ZN9__gnu_cxx13new_allocatorISt4pairISt7complexIdES3_EEC2Ev(%"class.__gnu_cxx::new_allocator.13"* %2) #3
  ret void
}

; Function Attrs: noinline uwtable
define linkonce_odr void @_ZNSt6vectorISt4pairISt7complexIdES2_ESaIS3_EEC2EmRKS4_(%"class.std::vector.10"* %0, i64 %1, %"class.std::allocator.12"* dereferenceable(1) %2) unnamed_addr #0 comdat align 2 personality i8* bitcast (i32 (...)* @__gxx_personality_v0 to i8*) {
  %4 = bitcast %"class.std::vector.10"* %0 to %"struct.std::_Vector_base.11"*
  call void @_ZNSt12_Vector_baseISt4pairISt7complexIdES2_ESaIS3_EEC2EmRKS4_(%"struct.std::_Vector_base.11"* %4, i64 %1, %"class.std::allocator.12"* dereferenceable(1) %2)
  invoke void @_ZNSt6vectorISt4pairISt7complexIdES2_ESaIS3_EE21_M_default_initializeEm(%"class.std::vector.10"* %0, i64 %1)
          to label %5 unwind label %6

5:                                                ; preds = %3
  ret void

6:                                                ; preds = %3
  %7 = landingpad { i8*, i32 }
          cleanup
  %8 = extractvalue { i8*, i32 } %7, 0
  %9 = extractvalue { i8*, i32 } %7, 1
  %10 = bitcast %"class.std::vector.10"* %0 to %"struct.std::_Vector_base.11"*
  call void @_ZNSt12_Vector_baseISt4pairISt7complexIdES2_ESaIS3_EED2Ev(%"struct.std::_Vector_base.11"* %10) #3
  br label %11

11:                                               ; preds = %6
  %12 = insertvalue { i8*, i32 } undef, i8* %8, 0
  %13 = insertvalue { i8*, i32 } %12, i32 %9, 1
  resume { i8*, i32 } %13
}

; Function Attrs: noinline nounwind uwtable
define linkonce_odr void @_ZNSaISt4pairISt7complexIdES1_EED2Ev(%"class.std::allocator.12"* %0) unnamed_addr #4 comdat align 2 {
  %2 = bitcast %"class.std::allocator.12"* %0 to %"class.__gnu_cxx::new_allocator.13"*
  call void @_ZN9__gnu_cxx13new_allocatorISt4pairISt7complexIdES3_EED2Ev(%"class.__gnu_cxx::new_allocator.13"* %2) #3
  ret void
}

; Function Attrs: noinline nounwind uwtable
define linkonce_odr dereferenceable(32) %"struct.std::pair.15"* @_ZNSt6vectorISt4pairISt7complexIdES2_ESaIS3_EEixEm(%"class.std::vector.10"* %0, i64 %1) #4 comdat align 2 {
  %3 = bitcast %"class.std::vector.10"* %0 to %"struct.std::_Vector_base.11"*
  %4 = getelementptr inbounds %"struct.std::_Vector_base.11", %"struct.std::_Vector_base.11"* %3, i32 0, i32 0
  %5 = getelementptr inbounds %"struct.std::_Vector_base<std::pair<std::complex<double>, std::complex<double> >, std::allocator<std::pair<std::complex<double>, std::complex<double> > > >::_Vector_impl", %"struct.std::_Vector_base<std::pair<std::complex<double>, std::complex<double> >, std::allocator<std::pair<std::complex<double>, std::complex<double> > > >::_Vector_impl"* %4, i32 0, i32 0
  %6 = load %"struct.std::pair.15"*, %"struct.std::pair.15"** %5, align 8
  %7 = getelementptr inbounds %"struct.std::pair.15", %"struct.std::pair.15"* %6, i64 %1
  ret %"struct.std::pair.15"* %7
}

; Function Attrs: noinline uwtable
define linkonce_odr double @_ZSt3absIdET_RKSt7complexIS0_E(%"struct.std::complex"* dereferenceable(16) %0) #0 comdat {
  %2 = alloca { double, double }, align 8
  %3 = call { double, double } @_ZNKSt7complexIdE5__repEv(%"struct.std::complex"* %0)
  %4 = extractvalue { double, double } %3, 0
  %5 = extractvalue { double, double } %3, 1
  %6 = getelementptr inbounds { double, double }, { double, double }* %2, i32 0, i32 0
  %7 = getelementptr inbounds { double, double }, { double, double }* %2, i32 0, i32 1
  store double %4, double* %6, align 8
  store double %5, double* %7, align 8
  %8 = getelementptr inbounds { double, double }, { double, double }* %2, i32 0, i32 0
  %9 = load double, double* %8, align 8
  %10 = getelementptr inbounds { double, double }, { double, double }* %2, i32 0, i32 1
  %11 = load double, double* %10, align 8
  %12 = call double @_ZSt13__complex_absCd(double %9, double %11)
  ret double %12
}

; Function Attrs: noinline uwtable
define linkonce_odr { double, double } @_ZStmiIdESt7complexIT_ERKS2_S4_(%"struct.std::complex"* dereferenceable(16) %0, %"struct.std::complex"* dereferenceable(16) %1) #0 comdat {
  %3 = alloca %"struct.std::complex", align 8
  %4 = bitcast %"struct.std::complex"* %3 to i8*
  %5 = bitcast %"struct.std::complex"* %0 to i8*
  call void @llvm.memcpy.p0i8.p0i8.i64(i8* align 8 %4, i8* align 8 %5, i64 16, i1 false)
  %6 = call dereferenceable(16) %"struct.std::complex"* @_ZNSt7complexIdEmIIdEERS0_RKS_IT_E(%"struct.std::complex"* %3, %"struct.std::complex"* dereferenceable(16) %1)
  %7 = getelementptr inbounds %"struct.std::complex", %"struct.std::complex"* %3, i32 0, i32 0
  %8 = load { double, double }, { double, double }* %7, align 8
  ret { double, double } %8
}

; Function Attrs: noinline nounwind uwtable
define linkonce_odr void @_ZNSaIiEC2Ev(%"class.std::allocator.20"* %0) unnamed_addr #4 comdat align 2 {
  %2 = bitcast %"class.std::allocator.20"* %0 to %"class.__gnu_cxx::new_allocator.21"*
  call void @_ZN9__gnu_cxx13new_allocatorIiEC2Ev(%"class.__gnu_cxx::new_allocator.21"* %2) #3
  ret void
}

; Function Attrs: noinline uwtable
define linkonce_odr void @_ZNSt6vectorIiSaIiEEC2EmRKS0_(%"class.std::vector.18"* %0, i64 %1, %"class.std::allocator.20"* dereferenceable(1) %2) unnamed_addr #0 comdat align 2 personality i8* bitcast (i32 (...)* @__gxx_personality_v0 to i8*) {
  %4 = bitcast %"class.std::vector.18"* %0 to %"struct.std::_Vector_base.19"*
  call void @_ZNSt12_Vector_baseIiSaIiEEC2EmRKS0_(%"struct.std::_Vector_base.19"* %4, i64 %1, %"class.std::allocator.20"* dereferenceable(1) %2)
  invoke void @_ZNSt6vectorIiSaIiEE21_M_default_initializeEm(%"class.std::vector.18"* %0, i64 %1)
          to label %5 unwind label %6

5:                                                ; preds = %3
  ret void

6:                                                ; preds = %3
  %7 = landingpad { i8*, i32 }
          cleanup
  %8 = extractvalue { i8*, i32 } %7, 0
  %9 = extractvalue { i8*, i32 } %7, 1
  %10 = bitcast %"class.std::vector.18"* %0 to %"struct.std::_Vector_base.19"*
  call void @_ZNSt12_Vector_baseIiSaIiEED2Ev(%"struct.std::_Vector_base.19"* %10) #3
  br label %11

11:                                               ; preds = %6
  %12 = insertvalue { i8*, i32 } undef, i8* %8, 0
  %13 = insertvalue { i8*, i32 } %12, i32 %9, 1
  resume { i8*, i32 } %13
}

; Function Attrs: noinline nounwind uwtable
define linkonce_odr void @_ZNSaIiED2Ev(%"class.std::allocator.20"* %0) unnamed_addr #4 comdat align 2 {
  %2 = bitcast %"class.std::allocator.20"* %0 to %"class.__gnu_cxx::new_allocator.21"*
  call void @_ZN9__gnu_cxx13new_allocatorIiED2Ev(%"class.__gnu_cxx::new_allocator.21"* %2) #3
  ret void
}

; Function Attrs: noinline nounwind uwtable
define linkonce_odr dereferenceable(4) i32* @_ZNSt6vectorIiSaIiEEixEm(%"class.std::vector.18"* %0, i64 %1) #4 comdat align 2 {
  %3 = bitcast %"class.std::vector.18"* %0 to %"struct.std::_Vector_base.19"*
  %4 = getelementptr inbounds %"struct.std::_Vector_base.19", %"struct.std::_Vector_base.19"* %3, i32 0, i32 0
  %5 = getelementptr inbounds %"struct.std::_Vector_base<int, std::allocator<int> >::_Vector_impl", %"struct.std::_Vector_base<int, std::allocator<int> >::_Vector_impl"* %4, i32 0, i32 0
  %6 = load i32*, i32** %5, align 8
  %7 = getelementptr inbounds i32, i32* %6, i64 %1
  ret i32* %7
}

; Function Attrs: noinline nounwind uwtable
define linkonce_odr void @_ZNSt6vectorIS_I4EdgeSaIS0_EESaIS2_EE5clearEv(%"class.std::vector"* %0) #4 comdat align 2 {
  %2 = bitcast %"class.std::vector"* %0 to %"struct.std::_Vector_base"*
  %3 = getelementptr inbounds %"struct.std::_Vector_base", %"struct.std::_Vector_base"* %2, i32 0, i32 0
  %4 = getelementptr inbounds %"struct.std::_Vector_base<std::vector<Edge, std::allocator<Edge> >, std::allocator<std::vector<Edge, std::allocator<Edge> > > >::_Vector_impl", %"struct.std::_Vector_base<std::vector<Edge, std::allocator<Edge> >, std::allocator<std::vector<Edge, std::allocator<Edge> > > >::_Vector_impl"* %3, i32 0, i32 0
  %5 = load %"class.std::vector.0"*, %"class.std::vector.0"** %4, align 8
  call void @_ZNSt6vectorIS_I4EdgeSaIS0_EESaIS2_EE15_M_erase_at_endEPS2_(%"class.std::vector"* %0, %"class.std::vector.0"* %5) #3
  ret void
}

; Function Attrs: noinline uwtable
define linkonce_odr void @_ZNSt6vectorIS_I4EdgeSaIS0_EESaIS2_EE6resizeEm(%"class.std::vector"* %0, i64 %1) #0 comdat align 2 {
  %3 = call i64 @_ZNKSt6vectorIS_I4EdgeSaIS0_EESaIS2_EE4sizeEv(%"class.std::vector"* %0) #3
  %4 = icmp ugt i64 %1, %3
  br i1 %4, label %5, label %8

5:                                                ; preds = %2
  %6 = call i64 @_ZNKSt6vectorIS_I4EdgeSaIS0_EESaIS2_EE4sizeEv(%"class.std::vector"* %0) #3
  %7 = sub i64 %1, %6
  call void @_ZNSt6vectorIS_I4EdgeSaIS0_EESaIS2_EE17_M_default_appendEm(%"class.std::vector"* %0, i64 %7)
  br label %18

8:                                                ; preds = %2
  %9 = call i64 @_ZNKSt6vectorIS_I4EdgeSaIS0_EESaIS2_EE4sizeEv(%"class.std::vector"* %0) #3
  %10 = icmp ult i64 %1, %9
  br i1 %10, label %11, label %17

11:                                               ; preds = %8
  %12 = bitcast %"class.std::vector"* %0 to %"struct.std::_Vector_base"*
  %13 = getelementptr inbounds %"struct.std::_Vector_base", %"struct.std::_Vector_base"* %12, i32 0, i32 0
  %14 = getelementptr inbounds %"struct.std::_Vector_base<std::vector<Edge, std::allocator<Edge> >, std::allocator<std::vector<Edge, std::allocator<Edge> > > >::_Vector_impl", %"struct.std::_Vector_base<std::vector<Edge, std::allocator<Edge> >, std::allocator<std::vector<Edge, std::allocator<Edge> > > >::_Vector_impl"* %13, i32 0, i32 0
  %15 = load %"class.std::vector.0"*, %"class.std::vector.0"** %14, align 8
  %16 = getelementptr inbounds %"class.std::vector.0", %"class.std::vector.0"* %15, i64 %1
  call void @_ZNSt6vectorIS_I4EdgeSaIS0_EESaIS2_EE15_M_erase_at_endEPS2_(%"class.std::vector"* %0, %"class.std::vector.0"* %16) #3
  br label %17

17:                                               ; preds = %11, %8
  br label %18

18:                                               ; preds = %17, %5
  ret void
}

declare dereferenceable(272) %"class.std::basic_ostream"* @_ZStlsIcSt11char_traitsIcEERSt13basic_ostreamIT_T0_ES6_St13_Setprecision(%"class.std::basic_ostream"* dereferenceable(272), i32) #1

declare dereferenceable(272) %"class.std::basic_ostream"* @_ZNSolsEPFRSt8ios_baseS0_E(%"class.std::basic_ostream"*, %"class.std::ios_base"* (%"class.std::ios_base"*)*) #1

; Function Attrs: noinline uwtable
define linkonce_odr dereferenceable(216) %"class.std::ios_base"* @_ZSt5fixedRSt8ios_base(%"class.std::ios_base"* dereferenceable(216) %0) #0 comdat {
  %2 = call i32 @_ZNSt8ios_base4setfESt13_Ios_FmtflagsS0_(%"class.std::ios_base"* %0, i32 4, i32 260)
  ret %"class.std::ios_base"* %0
}

; Function Attrs: noinline nounwind uwtable
define linkonce_odr i32 @_ZSt12setprecisioni(i32 %0) #4 comdat {
  %2 = alloca %"struct.std::_Setprecision", align 4
  %3 = getelementptr inbounds %"struct.std::_Setprecision", %"struct.std::_Setprecision"* %2, i32 0, i32 0
  store i32 %0, i32* %3, align 4
  %4 = getelementptr inbounds %"struct.std::_Setprecision", %"struct.std::_Setprecision"* %2, i32 0, i32 0
  %5 = load i32, i32* %4, align 4
  ret i32 %5
}

declare dereferenceable(272) %"class.std::basic_ostream"* @_ZNSolsEd(%"class.std::basic_ostream"*, double) #1

; Function Attrs: noinline nounwind uwtable
define linkonce_odr void @_ZNSt6vectorIiSaIiEED2Ev(%"class.std::vector.18"* %0) unnamed_addr #4 comdat align 2 personality i8* bitcast (i32 (...)* @__gxx_personality_v0 to i8*) {
  %2 = bitcast %"class.std::vector.18"* %0 to %"struct.std::_Vector_base.19"*
  %3 = getelementptr inbounds %"struct.std::_Vector_base.19", %"struct.std::_Vector_base.19"* %2, i32 0, i32 0
  %4 = getelementptr inbounds %"struct.std::_Vector_base<int, std::allocator<int> >::_Vector_impl", %"struct.std::_Vector_base<int, std::allocator<int> >::_Vector_impl"* %3, i32 0, i32 0
  %5 = load i32*, i32** %4, align 8
  %6 = bitcast %"class.std::vector.18"* %0 to %"struct.std::_Vector_base.19"*
  %7 = getelementptr inbounds %"struct.std::_Vector_base.19", %"struct.std::_Vector_base.19"* %6, i32 0, i32 0
  %8 = getelementptr inbounds %"struct.std::_Vector_base<int, std::allocator<int> >::_Vector_impl", %"struct.std::_Vector_base<int, std::allocator<int> >::_Vector_impl"* %7, i32 0, i32 1
  %9 = load i32*, i32** %8, align 8
  %10 = bitcast %"class.std::vector.18"* %0 to %"struct.std::_Vector_base.19"*
  %11 = call dereferenceable(1) %"class.std::allocator.20"* @_ZNSt12_Vector_baseIiSaIiEE19_M_get_Tp_allocatorEv(%"struct.std::_Vector_base.19"* %10) #3
  invoke void @_ZSt8_DestroyIPiiEvT_S1_RSaIT0_E(i32* %5, i32* %9, %"class.std::allocator.20"* dereferenceable(1) %11)
          to label %12 unwind label %14

12:                                               ; preds = %1
  %13 = bitcast %"class.std::vector.18"* %0 to %"struct.std::_Vector_base.19"*
  call void @_ZNSt12_Vector_baseIiSaIiEED2Ev(%"struct.std::_Vector_base.19"* %13) #3
  ret void

14:                                               ; preds = %1
  %15 = landingpad { i8*, i32 }
          catch i8* null
  %16 = extractvalue { i8*, i32 } %15, 0
  %17 = extractvalue { i8*, i32 } %15, 1
  %18 = bitcast %"class.std::vector.18"* %0 to %"struct.std::_Vector_base.19"*
  call void @_ZNSt12_Vector_baseIiSaIiEED2Ev(%"struct.std::_Vector_base.19"* %18) #3
  br label %19

19:                                               ; preds = %14
  call void @__clang_call_terminate(i8* %16) #14
  unreachable
}

; Function Attrs: noinline nounwind uwtable
define linkonce_odr void @_ZNSt6vectorISt4pairISt7complexIdES2_ESaIS3_EED2Ev(%"class.std::vector.10"* %0) unnamed_addr #4 comdat align 2 personality i8* bitcast (i32 (...)* @__gxx_personality_v0 to i8*) {
  %2 = bitcast %"class.std::vector.10"* %0 to %"struct.std::_Vector_base.11"*
  %3 = getelementptr inbounds %"struct.std::_Vector_base.11", %"struct.std::_Vector_base.11"* %2, i32 0, i32 0
  %4 = getelementptr inbounds %"struct.std::_Vector_base<std::pair<std::complex<double>, std::complex<double> >, std::allocator<std::pair<std::complex<double>, std::complex<double> > > >::_Vector_impl", %"struct.std::_Vector_base<std::pair<std::complex<double>, std::complex<double> >, std::allocator<std::pair<std::complex<double>, std::complex<double> > > >::_Vector_impl"* %3, i32 0, i32 0
  %5 = load %"struct.std::pair.15"*, %"struct.std::pair.15"** %4, align 8
  %6 = bitcast %"class.std::vector.10"* %0 to %"struct.std::_Vector_base.11"*
  %7 = getelementptr inbounds %"struct.std::_Vector_base.11", %"struct.std::_Vector_base.11"* %6, i32 0, i32 0
  %8 = getelementptr inbounds %"struct.std::_Vector_base<std::pair<std::complex<double>, std::complex<double> >, std::allocator<std::pair<std::complex<double>, std::complex<double> > > >::_Vector_impl", %"struct.std::_Vector_base<std::pair<std::complex<double>, std::complex<double> >, std::allocator<std::pair<std::complex<double>, std::complex<double> > > >::_Vector_impl"* %7, i32 0, i32 1
  %9 = load %"struct.std::pair.15"*, %"struct.std::pair.15"** %8, align 8
  %10 = bitcast %"class.std::vector.10"* %0 to %"struct.std::_Vector_base.11"*
  %11 = call dereferenceable(1) %"class.std::allocator.12"* @_ZNSt12_Vector_baseISt4pairISt7complexIdES2_ESaIS3_EE19_M_get_Tp_allocatorEv(%"struct.std::_Vector_base.11"* %10) #3
  invoke void @_ZSt8_DestroyIPSt4pairISt7complexIdES2_ES3_EvT_S5_RSaIT0_E(%"struct.std::pair.15"* %5, %"struct.std::pair.15"* %9, %"class.std::allocator.12"* dereferenceable(1) %11)
          to label %12 unwind label %14

12:                                               ; preds = %1
  %13 = bitcast %"class.std::vector.10"* %0 to %"struct.std::_Vector_base.11"*
  call void @_ZNSt12_Vector_baseISt4pairISt7complexIdES2_ESaIS3_EED2Ev(%"struct.std::_Vector_base.11"* %13) #3
  ret void

14:                                               ; preds = %1
  %15 = landingpad { i8*, i32 }
          catch i8* null
  %16 = extractvalue { i8*, i32 } %15, 0
  %17 = extractvalue { i8*, i32 } %15, 1
  %18 = bitcast %"class.std::vector.10"* %0 to %"struct.std::_Vector_base.11"*
  call void @_ZNSt12_Vector_baseISt4pairISt7complexIdES2_ESaIS3_EED2Ev(%"struct.std::_Vector_base.11"* %18) #3
  br label %19

19:                                               ; preds = %14
  call void @__clang_call_terminate(i8* %16) #14
  unreachable
}

; Function Attrs: nounwind
declare double @acos(double) #2

; Function Attrs: noinline nounwind uwtable
define linkonce_odr dereferenceable(4) i32* @_ZSt7forwardIiEOT_RNSt16remove_referenceIS0_E4typeE(i32* dereferenceable(4) %0) #4 comdat {
  ret i32* %0
}

; Function Attrs: noinline nounwind uwtable
define linkonce_odr dereferenceable(8) i64* @_ZSt7forwardIRxEOT_RNSt16remove_referenceIS1_E4typeE(i64* dereferenceable(8) %0) #4 comdat {
  ret i64* %0
}

; Function Attrs: noinline nounwind uwtable
define linkonce_odr dereferenceable(8) double* @_ZSt7forwardIRdEOT_RNSt16remove_referenceIS1_E4typeE(double* dereferenceable(8) %0) #4 comdat {
  ret double* %0
}

; Function Attrs: nocallback nofree nosync nounwind readnone speculatable willreturn
declare double @llvm.fabs.f64(double) #7

; Function Attrs: noinline nounwind uwtable
define linkonce_odr void @_ZNSt6vectorISt4pairIdxESaIS1_EED2Ev(%"class.std::vector.5"* %0) unnamed_addr #4 comdat align 2 personality i8* bitcast (i32 (...)* @__gxx_personality_v0 to i8*) {
  %2 = bitcast %"class.std::vector.5"* %0 to %"struct.std::_Vector_base.6"*
  %3 = getelementptr inbounds %"struct.std::_Vector_base.6", %"struct.std::_Vector_base.6"* %2, i32 0, i32 0
  %4 = getelementptr inbounds %"struct.std::_Vector_base<std::pair<double, long long>, std::allocator<std::pair<double, long long> > >::_Vector_impl", %"struct.std::_Vector_base<std::pair<double, long long>, std::allocator<std::pair<double, long long> > >::_Vector_impl"* %3, i32 0, i32 0
  %5 = load %"struct.std::pair"*, %"struct.std::pair"** %4, align 8
  %6 = bitcast %"class.std::vector.5"* %0 to %"struct.std::_Vector_base.6"*
  %7 = getelementptr inbounds %"struct.std::_Vector_base.6", %"struct.std::_Vector_base.6"* %6, i32 0, i32 0
  %8 = getelementptr inbounds %"struct.std::_Vector_base<std::pair<double, long long>, std::allocator<std::pair<double, long long> > >::_Vector_impl", %"struct.std::_Vector_base<std::pair<double, long long>, std::allocator<std::pair<double, long long> > >::_Vector_impl"* %7, i32 0, i32 1
  %9 = load %"struct.std::pair"*, %"struct.std::pair"** %8, align 8
  %10 = bitcast %"class.std::vector.5"* %0 to %"struct.std::_Vector_base.6"*
  %11 = call dereferenceable(1) %"class.std::allocator.7"* @_ZNSt12_Vector_baseISt4pairIdxESaIS1_EE19_M_get_Tp_allocatorEv(%"struct.std::_Vector_base.6"* %10) #3
  invoke void @_ZSt8_DestroyIPSt4pairIdxES1_EvT_S3_RSaIT0_E(%"struct.std::pair"* %5, %"struct.std::pair"* %9, %"class.std::allocator.7"* dereferenceable(1) %11)
          to label %12 unwind label %14

12:                                               ; preds = %1
  %13 = bitcast %"class.std::vector.5"* %0 to %"struct.std::_Vector_base.6"*
  call void @_ZNSt12_Vector_baseISt4pairIdxESaIS1_EED2Ev(%"struct.std::_Vector_base.6"* %13) #3
  ret void

14:                                               ; preds = %1
  %15 = landingpad { i8*, i32 }
          catch i8* null
  %16 = extractvalue { i8*, i32 } %15, 0
  %17 = extractvalue { i8*, i32 } %15, 1
  %18 = bitcast %"class.std::vector.5"* %0 to %"struct.std::_Vector_base.6"*
  call void @_ZNSt12_Vector_baseISt4pairIdxESaIS1_EED2Ev(%"struct.std::_Vector_base.6"* %18) #3
  br label %19

19:                                               ; preds = %14
  call void @__clang_call_terminate(i8* %16) #14
  unreachable
}

; Function Attrs: noinline uwtable
define linkonce_odr void @_ZSt8_DestroyIPSt4pairIdxES1_EvT_S3_RSaIT0_E(%"struct.std::pair"* %0, %"struct.std::pair"* %1, %"class.std::allocator.7"* dereferenceable(1) %2) #0 comdat {
  call void @_ZSt8_DestroyIPSt4pairIdxEEvT_S3_(%"struct.std::pair"* %0, %"struct.std::pair"* %1)
  ret void
}

; Function Attrs: noinline nounwind uwtable
define linkonce_odr dereferenceable(1) %"class.std::allocator.7"* @_ZNSt12_Vector_baseISt4pairIdxESaIS1_EE19_M_get_Tp_allocatorEv(%"struct.std::_Vector_base.6"* %0) #4 comdat align 2 {
  %2 = getelementptr inbounds %"struct.std::_Vector_base.6", %"struct.std::_Vector_base.6"* %0, i32 0, i32 0
  %3 = bitcast %"struct.std::_Vector_base<std::pair<double, long long>, std::allocator<std::pair<double, long long> > >::_Vector_impl"* %2 to %"class.std::allocator.7"*
  ret %"class.std::allocator.7"* %3
}

; Function Attrs: noinline nounwind uwtable
define linkonce_odr void @_ZNSt12_Vector_baseISt4pairIdxESaIS1_EED2Ev(%"struct.std::_Vector_base.6"* %0) unnamed_addr #4 comdat align 2 personality i8* bitcast (i32 (...)* @__gxx_personality_v0 to i8*) {
  %2 = getelementptr inbounds %"struct.std::_Vector_base.6", %"struct.std::_Vector_base.6"* %0, i32 0, i32 0
  %3 = getelementptr inbounds %"struct.std::_Vector_base<std::pair<double, long long>, std::allocator<std::pair<double, long long> > >::_Vector_impl", %"struct.std::_Vector_base<std::pair<double, long long>, std::allocator<std::pair<double, long long> > >::_Vector_impl"* %2, i32 0, i32 0
  %4 = load %"struct.std::pair"*, %"struct.std::pair"** %3, align 8
  %5 = getelementptr inbounds %"struct.std::_Vector_base.6", %"struct.std::_Vector_base.6"* %0, i32 0, i32 0
  %6 = getelementptr inbounds %"struct.std::_Vector_base<std::pair<double, long long>, std::allocator<std::pair<double, long long> > >::_Vector_impl", %"struct.std::_Vector_base<std::pair<double, long long>, std::allocator<std::pair<double, long long> > >::_Vector_impl"* %5, i32 0, i32 2
  %7 = load %"struct.std::pair"*, %"struct.std::pair"** %6, align 8
  %8 = getelementptr inbounds %"struct.std::_Vector_base.6", %"struct.std::_Vector_base.6"* %0, i32 0, i32 0
  %9 = getelementptr inbounds %"struct.std::_Vector_base<std::pair<double, long long>, std::allocator<std::pair<double, long long> > >::_Vector_impl", %"struct.std::_Vector_base<std::pair<double, long long>, std::allocator<std::pair<double, long long> > >::_Vector_impl"* %8, i32 0, i32 0
  %10 = load %"struct.std::pair"*, %"struct.std::pair"** %9, align 8
  %11 = ptrtoint %"struct.std::pair"* %7 to i64
  %12 = ptrtoint %"struct.std::pair"* %10 to i64
  %13 = sub i64 %11, %12
  %14 = sdiv exact i64 %13, 16
  invoke void @_ZNSt12_Vector_baseISt4pairIdxESaIS1_EE13_M_deallocateEPS1_m(%"struct.std::_Vector_base.6"* %0, %"struct.std::pair"* %4, i64 %14)
          to label %15 unwind label %17

15:                                               ; preds = %1
  %16 = getelementptr inbounds %"struct.std::_Vector_base.6", %"struct.std::_Vector_base.6"* %0, i32 0, i32 0
  call void @_ZNSt12_Vector_baseISt4pairIdxESaIS1_EE12_Vector_implD2Ev(%"struct.std::_Vector_base<std::pair<double, long long>, std::allocator<std::pair<double, long long> > >::_Vector_impl"* %16) #3
  ret void

17:                                               ; preds = %1
  %18 = landingpad { i8*, i32 }
          catch i8* null
  %19 = extractvalue { i8*, i32 } %18, 0
  %20 = extractvalue { i8*, i32 } %18, 1
  %21 = getelementptr inbounds %"struct.std::_Vector_base.6", %"struct.std::_Vector_base.6"* %0, i32 0, i32 0
  call void @_ZNSt12_Vector_baseISt4pairIdxESaIS1_EE12_Vector_implD2Ev(%"struct.std::_Vector_base<std::pair<double, long long>, std::allocator<std::pair<double, long long> > >::_Vector_impl"* %21) #3
  br label %22

22:                                               ; preds = %17
  call void @__clang_call_terminate(i8* %19) #14
  unreachable
}

; Function Attrs: noinline noreturn nounwind
define linkonce_odr hidden void @__clang_call_terminate(i8* %0) #8 comdat {
  %2 = call i8* @__cxa_begin_catch(i8* %0) #3
  call void @_ZSt9terminatev() #14
  unreachable
}

declare i8* @__cxa_begin_catch(i8*)

declare void @_ZSt9terminatev()

; Function Attrs: noinline uwtable
define linkonce_odr void @_ZSt8_DestroyIPSt4pairIdxEEvT_S3_(%"struct.std::pair"* %0, %"struct.std::pair"* %1) #0 comdat {
  call void @_ZNSt12_Destroy_auxILb1EE9__destroyIPSt4pairIdxEEEvT_S5_(%"struct.std::pair"* %0, %"struct.std::pair"* %1)
  ret void
}

; Function Attrs: noinline nounwind uwtable
define linkonce_odr void @_ZNSt12_Destroy_auxILb1EE9__destroyIPSt4pairIdxEEEvT_S5_(%"struct.std::pair"* %0, %"struct.std::pair"* %1) #4 comdat align 2 {
  ret void
}

; Function Attrs: noinline uwtable
define linkonce_odr void @_ZNSt12_Vector_baseISt4pairIdxESaIS1_EE13_M_deallocateEPS1_m(%"struct.std::_Vector_base.6"* %0, %"struct.std::pair"* %1, i64 %2) #0 comdat align 2 {
  %4 = icmp ne %"struct.std::pair"* %1, null
  br i1 %4, label %5, label %8

5:                                                ; preds = %3
  %6 = getelementptr inbounds %"struct.std::_Vector_base.6", %"struct.std::_Vector_base.6"* %0, i32 0, i32 0
  %7 = bitcast %"struct.std::_Vector_base<std::pair<double, long long>, std::allocator<std::pair<double, long long> > >::_Vector_impl"* %6 to %"class.std::allocator.7"*
  call void @_ZNSt16allocator_traitsISaISt4pairIdxEEE10deallocateERS2_PS1_m(%"class.std::allocator.7"* dereferenceable(1) %7, %"struct.std::pair"* %1, i64 %2)
  br label %8

8:                                                ; preds = %5, %3
  ret void
}

; Function Attrs: noinline nounwind uwtable
define linkonce_odr void @_ZNSt12_Vector_baseISt4pairIdxESaIS1_EE12_Vector_implD2Ev(%"struct.std::_Vector_base<std::pair<double, long long>, std::allocator<std::pair<double, long long> > >::_Vector_impl"* %0) unnamed_addr #4 comdat align 2 {
  %2 = bitcast %"struct.std::_Vector_base<std::pair<double, long long>, std::allocator<std::pair<double, long long> > >::_Vector_impl"* %0 to %"class.std::allocator.7"*
  call void @_ZNSaISt4pairIdxEED2Ev(%"class.std::allocator.7"* %2) #3
  ret void
}

; Function Attrs: noinline uwtable
define linkonce_odr void @_ZNSt16allocator_traitsISaISt4pairIdxEEE10deallocateERS2_PS1_m(%"class.std::allocator.7"* dereferenceable(1) %0, %"struct.std::pair"* %1, i64 %2) #0 comdat align 2 {
  %4 = bitcast %"class.std::allocator.7"* %0 to %"class.__gnu_cxx::new_allocator.8"*
  call void @_ZN9__gnu_cxx13new_allocatorISt4pairIdxEE10deallocateEPS2_m(%"class.__gnu_cxx::new_allocator.8"* %4, %"struct.std::pair"* %1, i64 %2)
  ret void
}

; Function Attrs: noinline nounwind uwtable
define linkonce_odr void @_ZN9__gnu_cxx13new_allocatorISt4pairIdxEE10deallocateEPS2_m(%"class.__gnu_cxx::new_allocator.8"* %0, %"struct.std::pair"* %1, i64 %2) #4 comdat align 2 {
  %4 = bitcast %"struct.std::pair"* %1 to i8*
  call void @_ZdlPv(i8* %4) #3
  ret void
}

; Function Attrs: nobuiltin nounwind
declare void @_ZdlPv(i8*) #9

; Function Attrs: noinline nounwind uwtable
define linkonce_odr void @_ZNSaISt4pairIdxEED2Ev(%"class.std::allocator.7"* %0) unnamed_addr #4 comdat align 2 {
  %2 = bitcast %"class.std::allocator.7"* %0 to %"class.__gnu_cxx::new_allocator.8"*
  call void @_ZN9__gnu_cxx13new_allocatorISt4pairIdxEED2Ev(%"class.__gnu_cxx::new_allocator.8"* %2) #3
  ret void
}

; Function Attrs: noinline nounwind uwtable
define linkonce_odr void @_ZN9__gnu_cxx13new_allocatorISt4pairIdxEED2Ev(%"class.__gnu_cxx::new_allocator.8"* %0) unnamed_addr #4 comdat align 2 {
  ret void
}

; Function Attrs: noinline uwtable
define linkonce_odr i32 @_ZNSt8ios_base4setfESt13_Ios_FmtflagsS0_(%"class.std::ios_base"* %0, i32 %1, i32 %2) #0 comdat align 2 {
  %4 = getelementptr inbounds %"class.std::ios_base", %"class.std::ios_base"* %0, i32 0, i32 3
  %5 = load i32, i32* %4, align 8
  %6 = call i32 @_ZStcoSt13_Ios_Fmtflags(i32 %2)
  %7 = getelementptr inbounds %"class.std::ios_base", %"class.std::ios_base"* %0, i32 0, i32 3
  %8 = call dereferenceable(4) i32* @_ZStaNRSt13_Ios_FmtflagsS_(i32* dereferenceable(4) %7, i32 %6)
  %9 = call i32 @_ZStanSt13_Ios_FmtflagsS_(i32 %1, i32 %2)
  %10 = getelementptr inbounds %"class.std::ios_base", %"class.std::ios_base"* %0, i32 0, i32 3
  %11 = call dereferenceable(4) i32* @_ZStoRRSt13_Ios_FmtflagsS_(i32* dereferenceable(4) %10, i32 %9)
  ret i32 %5
}

; Function Attrs: noinline uwtable
define linkonce_odr dereferenceable(4) i32* @_ZStaNRSt13_Ios_FmtflagsS_(i32* dereferenceable(4) %0, i32 %1) #0 comdat {
  %3 = load i32, i32* %0, align 4
  %4 = call i32 @_ZStanSt13_Ios_FmtflagsS_(i32 %3, i32 %1)
  store i32 %4, i32* %0, align 4
  ret i32* %0
}

; Function Attrs: noinline nounwind uwtable
define linkonce_odr i32 @_ZStcoSt13_Ios_Fmtflags(i32 %0) #4 comdat {
  %2 = xor i32 %0, -1
  ret i32 %2
}

; Function Attrs: noinline uwtable
define linkonce_odr dereferenceable(4) i32* @_ZStoRRSt13_Ios_FmtflagsS_(i32* dereferenceable(4) %0, i32 %1) #0 comdat {
  %3 = load i32, i32* %0, align 4
  %4 = call i32 @_ZStorSt13_Ios_FmtflagsS_(i32 %3, i32 %1)
  store i32 %4, i32* %0, align 4
  ret i32* %0
}

; Function Attrs: noinline nounwind uwtable
define linkonce_odr i32 @_ZStanSt13_Ios_FmtflagsS_(i32 %0, i32 %1) #4 comdat {
  %3 = and i32 %0, %1
  ret i32 %3
}

; Function Attrs: noinline nounwind uwtable
define linkonce_odr i32 @_ZStorSt13_Ios_FmtflagsS_(i32 %0, i32 %1) #4 comdat {
  %3 = or i32 %0, %1
  ret i32 %3
}

; Function Attrs: noinline nounwind uwtable
define linkonce_odr void @_ZN9__gnu_cxx13new_allocatorIiEC2Ev(%"class.__gnu_cxx::new_allocator.21"* %0) unnamed_addr #4 comdat align 2 {
  ret void
}

; Function Attrs: noinline nounwind uwtable
define linkonce_odr void @_ZN9__gnu_cxx13new_allocatorIiED2Ev(%"class.__gnu_cxx::new_allocator.21"* %0) unnamed_addr #4 comdat align 2 {
  ret void
}

; Function Attrs: noinline uwtable
define linkonce_odr void @_ZNSt12_Vector_baseISt6vectorI4EdgeSaIS1_EESaIS3_EEC2Ev(%"struct.std::_Vector_base"* %0) unnamed_addr #0 comdat align 2 {
  %2 = getelementptr inbounds %"struct.std::_Vector_base", %"struct.std::_Vector_base"* %0, i32 0, i32 0
  call void @_ZNSt12_Vector_baseISt6vectorI4EdgeSaIS1_EESaIS3_EE12_Vector_implC2Ev(%"struct.std::_Vector_base<std::vector<Edge, std::allocator<Edge> >, std::allocator<std::vector<Edge, std::allocator<Edge> > > >::_Vector_impl"* %2)
  ret void
}

; Function Attrs: noinline nounwind uwtable
define linkonce_odr void @_ZNSt12_Vector_baseISt6vectorI4EdgeSaIS1_EESaIS3_EE12_Vector_implC2Ev(%"struct.std::_Vector_base<std::vector<Edge, std::allocator<Edge> >, std::allocator<std::vector<Edge, std::allocator<Edge> > > >::_Vector_impl"* %0) unnamed_addr #4 comdat align 2 {
  %2 = bitcast %"struct.std::_Vector_base<std::vector<Edge, std::allocator<Edge> >, std::allocator<std::vector<Edge, std::allocator<Edge> > > >::_Vector_impl"* %0 to %"class.std::allocator"*
  call void @_ZNSaISt6vectorI4EdgeSaIS0_EEEC2Ev(%"class.std::allocator"* %2) #3
  %3 = getelementptr inbounds %"struct.std::_Vector_base<std::vector<Edge, std::allocator<Edge> >, std::allocator<std::vector<Edge, std::allocator<Edge> > > >::_Vector_impl", %"struct.std::_Vector_base<std::vector<Edge, std::allocator<Edge> >, std::allocator<std::vector<Edge, std::allocator<Edge> > > >::_Vector_impl"* %0, i32 0, i32 0
  store %"class.std::vector.0"* null, %"class.std::vector.0"** %3, align 8
  %4 = getelementptr inbounds %"struct.std::_Vector_base<std::vector<Edge, std::allocator<Edge> >, std::allocator<std::vector<Edge, std::allocator<Edge> > > >::_Vector_impl", %"struct.std::_Vector_base<std::vector<Edge, std::allocator<Edge> >, std::allocator<std::vector<Edge, std::allocator<Edge> > > >::_Vector_impl"* %0, i32 0, i32 1
  store %"class.std::vector.0"* null, %"class.std::vector.0"** %4, align 8
  %5 = getelementptr inbounds %"struct.std::_Vector_base<std::vector<Edge, std::allocator<Edge> >, std::allocator<std::vector<Edge, std::allocator<Edge> > > >::_Vector_impl", %"struct.std::_Vector_base<std::vector<Edge, std::allocator<Edge> >, std::allocator<std::vector<Edge, std::allocator<Edge> > > >::_Vector_impl"* %0, i32 0, i32 2
  store %"class.std::vector.0"* null, %"class.std::vector.0"** %5, align 8
  ret void
}

; Function Attrs: noinline nounwind uwtable
define linkonce_odr void @_ZNSaISt6vectorI4EdgeSaIS0_EEEC2Ev(%"class.std::allocator"* %0) unnamed_addr #4 comdat align 2 {
  %2 = bitcast %"class.std::allocator"* %0 to %"class.__gnu_cxx::new_allocator"*
  call void @_ZN9__gnu_cxx13new_allocatorISt6vectorI4EdgeSaIS2_EEEC2Ev(%"class.__gnu_cxx::new_allocator"* %2) #3
  ret void
}

; Function Attrs: noinline nounwind uwtable
define linkonce_odr void @_ZN9__gnu_cxx13new_allocatorISt6vectorI4EdgeSaIS2_EEEC2Ev(%"class.__gnu_cxx::new_allocator"* %0) unnamed_addr #4 comdat align 2 {
  ret void
}

; Function Attrs: noinline uwtable
define linkonce_odr void @_ZSt8_DestroyIPSt6vectorI4EdgeSaIS1_EES3_EvT_S5_RSaIT0_E(%"class.std::vector.0"* %0, %"class.std::vector.0"* %1, %"class.std::allocator"* dereferenceable(1) %2) #0 comdat {
  call void @_ZSt8_DestroyIPSt6vectorI4EdgeSaIS1_EEEvT_S5_(%"class.std::vector.0"* %0, %"class.std::vector.0"* %1)
  ret void
}

; Function Attrs: noinline nounwind uwtable
define linkonce_odr dereferenceable(1) %"class.std::allocator"* @_ZNSt12_Vector_baseISt6vectorI4EdgeSaIS1_EESaIS3_EE19_M_get_Tp_allocatorEv(%"struct.std::_Vector_base"* %0) #4 comdat align 2 {
  %2 = getelementptr inbounds %"struct.std::_Vector_base", %"struct.std::_Vector_base"* %0, i32 0, i32 0
  %3 = bitcast %"struct.std::_Vector_base<std::vector<Edge, std::allocator<Edge> >, std::allocator<std::vector<Edge, std::allocator<Edge> > > >::_Vector_impl"* %2 to %"class.std::allocator"*
  ret %"class.std::allocator"* %3
}

; Function Attrs: noinline nounwind uwtable
define linkonce_odr void @_ZNSt12_Vector_baseISt6vectorI4EdgeSaIS1_EESaIS3_EED2Ev(%"struct.std::_Vector_base"* %0) unnamed_addr #4 comdat align 2 personality i8* bitcast (i32 (...)* @__gxx_personality_v0 to i8*) {
  %2 = getelementptr inbounds %"struct.std::_Vector_base", %"struct.std::_Vector_base"* %0, i32 0, i32 0
  %3 = getelementptr inbounds %"struct.std::_Vector_base<std::vector<Edge, std::allocator<Edge> >, std::allocator<std::vector<Edge, std::allocator<Edge> > > >::_Vector_impl", %"struct.std::_Vector_base<std::vector<Edge, std::allocator<Edge> >, std::allocator<std::vector<Edge, std::allocator<Edge> > > >::_Vector_impl"* %2, i32 0, i32 0
  %4 = load %"class.std::vector.0"*, %"class.std::vector.0"** %3, align 8
  %5 = getelementptr inbounds %"struct.std::_Vector_base", %"struct.std::_Vector_base"* %0, i32 0, i32 0
  %6 = getelementptr inbounds %"struct.std::_Vector_base<std::vector<Edge, std::allocator<Edge> >, std::allocator<std::vector<Edge, std::allocator<Edge> > > >::_Vector_impl", %"struct.std::_Vector_base<std::vector<Edge, std::allocator<Edge> >, std::allocator<std::vector<Edge, std::allocator<Edge> > > >::_Vector_impl"* %5, i32 0, i32 2
  %7 = load %"class.std::vector.0"*, %"class.std::vector.0"** %6, align 8
  %8 = getelementptr inbounds %"struct.std::_Vector_base", %"struct.std::_Vector_base"* %0, i32 0, i32 0
  %9 = getelementptr inbounds %"struct.std::_Vector_base<std::vector<Edge, std::allocator<Edge> >, std::allocator<std::vector<Edge, std::allocator<Edge> > > >::_Vector_impl", %"struct.std::_Vector_base<std::vector<Edge, std::allocator<Edge> >, std::allocator<std::vector<Edge, std::allocator<Edge> > > >::_Vector_impl"* %8, i32 0, i32 0
  %10 = load %"class.std::vector.0"*, %"class.std::vector.0"** %9, align 8
  %11 = ptrtoint %"class.std::vector.0"* %7 to i64
  %12 = ptrtoint %"class.std::vector.0"* %10 to i64
  %13 = sub i64 %11, %12
  %14 = sdiv exact i64 %13, 24
  invoke void @_ZNSt12_Vector_baseISt6vectorI4EdgeSaIS1_EESaIS3_EE13_M_deallocateEPS3_m(%"struct.std::_Vector_base"* %0, %"class.std::vector.0"* %4, i64 %14)
          to label %15 unwind label %17

15:                                               ; preds = %1
  %16 = getelementptr inbounds %"struct.std::_Vector_base", %"struct.std::_Vector_base"* %0, i32 0, i32 0
  call void @_ZNSt12_Vector_baseISt6vectorI4EdgeSaIS1_EESaIS3_EE12_Vector_implD2Ev(%"struct.std::_Vector_base<std::vector<Edge, std::allocator<Edge> >, std::allocator<std::vector<Edge, std::allocator<Edge> > > >::_Vector_impl"* %16) #3
  ret void

17:                                               ; preds = %1
  %18 = landingpad { i8*, i32 }
          catch i8* null
  %19 = extractvalue { i8*, i32 } %18, 0
  %20 = extractvalue { i8*, i32 } %18, 1
  %21 = getelementptr inbounds %"struct.std::_Vector_base", %"struct.std::_Vector_base"* %0, i32 0, i32 0
  call void @_ZNSt12_Vector_baseISt6vectorI4EdgeSaIS1_EESaIS3_EE12_Vector_implD2Ev(%"struct.std::_Vector_base<std::vector<Edge, std::allocator<Edge> >, std::allocator<std::vector<Edge, std::allocator<Edge> > > >::_Vector_impl"* %21) #3
  br label %22

22:                                               ; preds = %17
  call void @__clang_call_terminate(i8* %19) #14
  unreachable
}

; Function Attrs: noinline uwtable
define linkonce_odr void @_ZSt8_DestroyIPSt6vectorI4EdgeSaIS1_EEEvT_S5_(%"class.std::vector.0"* %0, %"class.std::vector.0"* %1) #0 comdat {
  call void @_ZNSt12_Destroy_auxILb0EE9__destroyIPSt6vectorI4EdgeSaIS3_EEEEvT_S7_(%"class.std::vector.0"* %0, %"class.std::vector.0"* %1)
  ret void
}

; Function Attrs: noinline uwtable
define linkonce_odr void @_ZNSt12_Destroy_auxILb0EE9__destroyIPSt6vectorI4EdgeSaIS3_EEEEvT_S7_(%"class.std::vector.0"* %0, %"class.std::vector.0"* %1) #0 comdat align 2 {
  br label %3

3:                                                ; preds = %7, %2
  %.0 = phi %"class.std::vector.0"* [ %0, %2 ], [ %8, %7 ]
  %4 = icmp ne %"class.std::vector.0"* %.0, %1
  br i1 %4, label %5, label %9

5:                                                ; preds = %3
  %6 = call %"class.std::vector.0"* @_ZSt11__addressofISt6vectorI4EdgeSaIS1_EEEPT_RS4_(%"class.std::vector.0"* dereferenceable(24) %.0) #3
  call void @_ZSt8_DestroyISt6vectorI4EdgeSaIS1_EEEvPT_(%"class.std::vector.0"* %6)
  br label %7

7:                                                ; preds = %5
  %8 = getelementptr inbounds %"class.std::vector.0", %"class.std::vector.0"* %.0, i32 1
  br label %3

9:                                                ; preds = %3
  ret void
}

; Function Attrs: noinline nounwind uwtable
define linkonce_odr void @_ZSt8_DestroyISt6vectorI4EdgeSaIS1_EEEvPT_(%"class.std::vector.0"* %0) #4 comdat {
  call void @_ZNSt6vectorI4EdgeSaIS0_EED2Ev(%"class.std::vector.0"* %0) #3
  ret void
}

; Function Attrs: noinline nounwind uwtable
define linkonce_odr %"class.std::vector.0"* @_ZSt11__addressofISt6vectorI4EdgeSaIS1_EEEPT_RS4_(%"class.std::vector.0"* dereferenceable(24) %0) #4 comdat {
  ret %"class.std::vector.0"* %0
}

; Function Attrs: noinline nounwind uwtable
define linkonce_odr void @_ZNSt6vectorI4EdgeSaIS0_EED2Ev(%"class.std::vector.0"* %0) unnamed_addr #4 comdat align 2 personality i8* bitcast (i32 (...)* @__gxx_personality_v0 to i8*) {
  %2 = bitcast %"class.std::vector.0"* %0 to %"struct.std::_Vector_base.1"*
  %3 = getelementptr inbounds %"struct.std::_Vector_base.1", %"struct.std::_Vector_base.1"* %2, i32 0, i32 0
  %4 = getelementptr inbounds %"struct.std::_Vector_base<Edge, std::allocator<Edge> >::_Vector_impl", %"struct.std::_Vector_base<Edge, std::allocator<Edge> >::_Vector_impl"* %3, i32 0, i32 0
  %5 = load %struct.Edge*, %struct.Edge** %4, align 8
  %6 = bitcast %"class.std::vector.0"* %0 to %"struct.std::_Vector_base.1"*
  %7 = getelementptr inbounds %"struct.std::_Vector_base.1", %"struct.std::_Vector_base.1"* %6, i32 0, i32 0
  %8 = getelementptr inbounds %"struct.std::_Vector_base<Edge, std::allocator<Edge> >::_Vector_impl", %"struct.std::_Vector_base<Edge, std::allocator<Edge> >::_Vector_impl"* %7, i32 0, i32 1
  %9 = load %struct.Edge*, %struct.Edge** %8, align 8
  %10 = bitcast %"class.std::vector.0"* %0 to %"struct.std::_Vector_base.1"*
  %11 = call dereferenceable(1) %"class.std::allocator.2"* @_ZNSt12_Vector_baseI4EdgeSaIS0_EE19_M_get_Tp_allocatorEv(%"struct.std::_Vector_base.1"* %10) #3
  invoke void @_ZSt8_DestroyIP4EdgeS0_EvT_S2_RSaIT0_E(%struct.Edge* %5, %struct.Edge* %9, %"class.std::allocator.2"* dereferenceable(1) %11)
          to label %12 unwind label %14

12:                                               ; preds = %1
  %13 = bitcast %"class.std::vector.0"* %0 to %"struct.std::_Vector_base.1"*
  call void @_ZNSt12_Vector_baseI4EdgeSaIS0_EED2Ev(%"struct.std::_Vector_base.1"* %13) #3
  ret void

14:                                               ; preds = %1
  %15 = landingpad { i8*, i32 }
          catch i8* null
  %16 = extractvalue { i8*, i32 } %15, 0
  %17 = extractvalue { i8*, i32 } %15, 1
  %18 = bitcast %"class.std::vector.0"* %0 to %"struct.std::_Vector_base.1"*
  call void @_ZNSt12_Vector_baseI4EdgeSaIS0_EED2Ev(%"struct.std::_Vector_base.1"* %18) #3
  br label %19

19:                                               ; preds = %14
  call void @__clang_call_terminate(i8* %16) #14
  unreachable
}

; Function Attrs: noinline uwtable
define linkonce_odr void @_ZSt8_DestroyIP4EdgeS0_EvT_S2_RSaIT0_E(%struct.Edge* %0, %struct.Edge* %1, %"class.std::allocator.2"* dereferenceable(1) %2) #0 comdat {
  call void @_ZSt8_DestroyIP4EdgeEvT_S2_(%struct.Edge* %0, %struct.Edge* %1)
  ret void
}

; Function Attrs: noinline nounwind uwtable
define linkonce_odr dereferenceable(1) %"class.std::allocator.2"* @_ZNSt12_Vector_baseI4EdgeSaIS0_EE19_M_get_Tp_allocatorEv(%"struct.std::_Vector_base.1"* %0) #4 comdat align 2 {
  %2 = getelementptr inbounds %"struct.std::_Vector_base.1", %"struct.std::_Vector_base.1"* %0, i32 0, i32 0
  %3 = bitcast %"struct.std::_Vector_base<Edge, std::allocator<Edge> >::_Vector_impl"* %2 to %"class.std::allocator.2"*
  ret %"class.std::allocator.2"* %3
}

; Function Attrs: noinline nounwind uwtable
define linkonce_odr void @_ZNSt12_Vector_baseI4EdgeSaIS0_EED2Ev(%"struct.std::_Vector_base.1"* %0) unnamed_addr #4 comdat align 2 personality i8* bitcast (i32 (...)* @__gxx_personality_v0 to i8*) {
  %2 = getelementptr inbounds %"struct.std::_Vector_base.1", %"struct.std::_Vector_base.1"* %0, i32 0, i32 0
  %3 = getelementptr inbounds %"struct.std::_Vector_base<Edge, std::allocator<Edge> >::_Vector_impl", %"struct.std::_Vector_base<Edge, std::allocator<Edge> >::_Vector_impl"* %2, i32 0, i32 0
  %4 = load %struct.Edge*, %struct.Edge** %3, align 8
  %5 = getelementptr inbounds %"struct.std::_Vector_base.1", %"struct.std::_Vector_base.1"* %0, i32 0, i32 0
  %6 = getelementptr inbounds %"struct.std::_Vector_base<Edge, std::allocator<Edge> >::_Vector_impl", %"struct.std::_Vector_base<Edge, std::allocator<Edge> >::_Vector_impl"* %5, i32 0, i32 2
  %7 = load %struct.Edge*, %struct.Edge** %6, align 8
  %8 = getelementptr inbounds %"struct.std::_Vector_base.1", %"struct.std::_Vector_base.1"* %0, i32 0, i32 0
  %9 = getelementptr inbounds %"struct.std::_Vector_base<Edge, std::allocator<Edge> >::_Vector_impl", %"struct.std::_Vector_base<Edge, std::allocator<Edge> >::_Vector_impl"* %8, i32 0, i32 0
  %10 = load %struct.Edge*, %struct.Edge** %9, align 8
  %11 = ptrtoint %struct.Edge* %7 to i64
  %12 = ptrtoint %struct.Edge* %10 to i64
  %13 = sub i64 %11, %12
  %14 = sdiv exact i64 %13, 32
  invoke void @_ZNSt12_Vector_baseI4EdgeSaIS0_EE13_M_deallocateEPS0_m(%"struct.std::_Vector_base.1"* %0, %struct.Edge* %4, i64 %14)
          to label %15 unwind label %17

15:                                               ; preds = %1
  %16 = getelementptr inbounds %"struct.std::_Vector_base.1", %"struct.std::_Vector_base.1"* %0, i32 0, i32 0
  call void @_ZNSt12_Vector_baseI4EdgeSaIS0_EE12_Vector_implD2Ev(%"struct.std::_Vector_base<Edge, std::allocator<Edge> >::_Vector_impl"* %16) #3
  ret void

17:                                               ; preds = %1
  %18 = landingpad { i8*, i32 }
          catch i8* null
  %19 = extractvalue { i8*, i32 } %18, 0
  %20 = extractvalue { i8*, i32 } %18, 1
  %21 = getelementptr inbounds %"struct.std::_Vector_base.1", %"struct.std::_Vector_base.1"* %0, i32 0, i32 0
  call void @_ZNSt12_Vector_baseI4EdgeSaIS0_EE12_Vector_implD2Ev(%"struct.std::_Vector_base<Edge, std::allocator<Edge> >::_Vector_impl"* %21) #3
  br label %22

22:                                               ; preds = %17
  call void @__clang_call_terminate(i8* %19) #14
  unreachable
}

; Function Attrs: noinline uwtable
define linkonce_odr void @_ZSt8_DestroyIP4EdgeEvT_S2_(%struct.Edge* %0, %struct.Edge* %1) #0 comdat {
  call void @_ZNSt12_Destroy_auxILb1EE9__destroyIP4EdgeEEvT_S4_(%struct.Edge* %0, %struct.Edge* %1)
  ret void
}

; Function Attrs: noinline nounwind uwtable
define linkonce_odr void @_ZNSt12_Destroy_auxILb1EE9__destroyIP4EdgeEEvT_S4_(%struct.Edge* %0, %struct.Edge* %1) #4 comdat align 2 {
  ret void
}

; Function Attrs: noinline uwtable
define linkonce_odr void @_ZNSt12_Vector_baseI4EdgeSaIS0_EE13_M_deallocateEPS0_m(%"struct.std::_Vector_base.1"* %0, %struct.Edge* %1, i64 %2) #0 comdat align 2 {
  %4 = icmp ne %struct.Edge* %1, null
  br i1 %4, label %5, label %8

5:                                                ; preds = %3
  %6 = getelementptr inbounds %"struct.std::_Vector_base.1", %"struct.std::_Vector_base.1"* %0, i32 0, i32 0
  %7 = bitcast %"struct.std::_Vector_base<Edge, std::allocator<Edge> >::_Vector_impl"* %6 to %"class.std::allocator.2"*
  call void @_ZNSt16allocator_traitsISaI4EdgeEE10deallocateERS1_PS0_m(%"class.std::allocator.2"* dereferenceable(1) %7, %struct.Edge* %1, i64 %2)
  br label %8

8:                                                ; preds = %5, %3
  ret void
}

; Function Attrs: noinline nounwind uwtable
define linkonce_odr void @_ZNSt12_Vector_baseI4EdgeSaIS0_EE12_Vector_implD2Ev(%"struct.std::_Vector_base<Edge, std::allocator<Edge> >::_Vector_impl"* %0) unnamed_addr #4 comdat align 2 {
  %2 = bitcast %"struct.std::_Vector_base<Edge, std::allocator<Edge> >::_Vector_impl"* %0 to %"class.std::allocator.2"*
  call void @_ZNSaI4EdgeED2Ev(%"class.std::allocator.2"* %2) #3
  ret void
}

; Function Attrs: noinline uwtable
define linkonce_odr void @_ZNSt16allocator_traitsISaI4EdgeEE10deallocateERS1_PS0_m(%"class.std::allocator.2"* dereferenceable(1) %0, %struct.Edge* %1, i64 %2) #0 comdat align 2 {
  %4 = bitcast %"class.std::allocator.2"* %0 to %"class.__gnu_cxx::new_allocator.3"*
  call void @_ZN9__gnu_cxx13new_allocatorI4EdgeE10deallocateEPS1_m(%"class.__gnu_cxx::new_allocator.3"* %4, %struct.Edge* %1, i64 %2)
  ret void
}

; Function Attrs: noinline nounwind uwtable
define linkonce_odr void @_ZN9__gnu_cxx13new_allocatorI4EdgeE10deallocateEPS1_m(%"class.__gnu_cxx::new_allocator.3"* %0, %struct.Edge* %1, i64 %2) #4 comdat align 2 {
  %4 = bitcast %struct.Edge* %1 to i8*
  call void @_ZdlPv(i8* %4) #3
  ret void
}

; Function Attrs: noinline nounwind uwtable
define linkonce_odr void @_ZNSaI4EdgeED2Ev(%"class.std::allocator.2"* %0) unnamed_addr #4 comdat align 2 {
  %2 = bitcast %"class.std::allocator.2"* %0 to %"class.__gnu_cxx::new_allocator.3"*
  call void @_ZN9__gnu_cxx13new_allocatorI4EdgeED2Ev(%"class.__gnu_cxx::new_allocator.3"* %2) #3
  ret void
}

; Function Attrs: noinline nounwind uwtable
define linkonce_odr void @_ZN9__gnu_cxx13new_allocatorI4EdgeED2Ev(%"class.__gnu_cxx::new_allocator.3"* %0) unnamed_addr #4 comdat align 2 {
  ret void
}

; Function Attrs: noinline uwtable
define linkonce_odr void @_ZNSt12_Vector_baseISt6vectorI4EdgeSaIS1_EESaIS3_EE13_M_deallocateEPS3_m(%"struct.std::_Vector_base"* %0, %"class.std::vector.0"* %1, i64 %2) #0 comdat align 2 {
  %4 = icmp ne %"class.std::vector.0"* %1, null
  br i1 %4, label %5, label %8

5:                                                ; preds = %3
  %6 = getelementptr inbounds %"struct.std::_Vector_base", %"struct.std::_Vector_base"* %0, i32 0, i32 0
  %7 = bitcast %"struct.std::_Vector_base<std::vector<Edge, std::allocator<Edge> >, std::allocator<std::vector<Edge, std::allocator<Edge> > > >::_Vector_impl"* %6 to %"class.std::allocator"*
  call void @_ZNSt16allocator_traitsISaISt6vectorI4EdgeSaIS1_EEEE10deallocateERS4_PS3_m(%"class.std::allocator"* dereferenceable(1) %7, %"class.std::vector.0"* %1, i64 %2)
  br label %8

8:                                                ; preds = %5, %3
  ret void
}

; Function Attrs: noinline nounwind uwtable
define linkonce_odr void @_ZNSt12_Vector_baseISt6vectorI4EdgeSaIS1_EESaIS3_EE12_Vector_implD2Ev(%"struct.std::_Vector_base<std::vector<Edge, std::allocator<Edge> >, std::allocator<std::vector<Edge, std::allocator<Edge> > > >::_Vector_impl"* %0) unnamed_addr #4 comdat align 2 {
  %2 = bitcast %"struct.std::_Vector_base<std::vector<Edge, std::allocator<Edge> >, std::allocator<std::vector<Edge, std::allocator<Edge> > > >::_Vector_impl"* %0 to %"class.std::allocator"*
  call void @_ZNSaISt6vectorI4EdgeSaIS0_EEED2Ev(%"class.std::allocator"* %2) #3
  ret void
}

; Function Attrs: noinline uwtable
define linkonce_odr void @_ZNSt16allocator_traitsISaISt6vectorI4EdgeSaIS1_EEEE10deallocateERS4_PS3_m(%"class.std::allocator"* dereferenceable(1) %0, %"class.std::vector.0"* %1, i64 %2) #0 comdat align 2 {
  %4 = bitcast %"class.std::allocator"* %0 to %"class.__gnu_cxx::new_allocator"*
  call void @_ZN9__gnu_cxx13new_allocatorISt6vectorI4EdgeSaIS2_EEE10deallocateEPS4_m(%"class.__gnu_cxx::new_allocator"* %4, %"class.std::vector.0"* %1, i64 %2)
  ret void
}

; Function Attrs: noinline nounwind uwtable
define linkonce_odr void @_ZN9__gnu_cxx13new_allocatorISt6vectorI4EdgeSaIS2_EEE10deallocateEPS4_m(%"class.__gnu_cxx::new_allocator"* %0, %"class.std::vector.0"* %1, i64 %2) #4 comdat align 2 {
  %4 = bitcast %"class.std::vector.0"* %1 to i8*
  call void @_ZdlPv(i8* %4) #3
  ret void
}

; Function Attrs: noinline nounwind uwtable
define linkonce_odr void @_ZNSaISt6vectorI4EdgeSaIS0_EEED2Ev(%"class.std::allocator"* %0) unnamed_addr #4 comdat align 2 {
  %2 = bitcast %"class.std::allocator"* %0 to %"class.__gnu_cxx::new_allocator"*
  call void @_ZN9__gnu_cxx13new_allocatorISt6vectorI4EdgeSaIS2_EEED2Ev(%"class.__gnu_cxx::new_allocator"* %2) #3
  ret void
}

; Function Attrs: noinline nounwind uwtable
define linkonce_odr void @_ZN9__gnu_cxx13new_allocatorISt6vectorI4EdgeSaIS2_EEED2Ev(%"class.__gnu_cxx::new_allocator"* %0) unnamed_addr #4 comdat align 2 {
  ret void
}

; Function Attrs: noinline uwtable
define linkonce_odr void @_ZNSt6vectorI4EdgeSaIS0_EE12emplace_backIJS0_EEEvDpOT_(%"class.std::vector.0"* %0, %struct.Edge* dereferenceable(32) %1) #0 comdat align 2 {
  %3 = alloca %"class.__gnu_cxx::__normal_iterator", align 8
  %4 = bitcast %"class.std::vector.0"* %0 to %"struct.std::_Vector_base.1"*
  %5 = getelementptr inbounds %"struct.std::_Vector_base.1", %"struct.std::_Vector_base.1"* %4, i32 0, i32 0
  %6 = getelementptr inbounds %"struct.std::_Vector_base<Edge, std::allocator<Edge> >::_Vector_impl", %"struct.std::_Vector_base<Edge, std::allocator<Edge> >::_Vector_impl"* %5, i32 0, i32 1
  %7 = load %struct.Edge*, %struct.Edge** %6, align 8
  %8 = bitcast %"class.std::vector.0"* %0 to %"struct.std::_Vector_base.1"*
  %9 = getelementptr inbounds %"struct.std::_Vector_base.1", %"struct.std::_Vector_base.1"* %8, i32 0, i32 0
  %10 = getelementptr inbounds %"struct.std::_Vector_base<Edge, std::allocator<Edge> >::_Vector_impl", %"struct.std::_Vector_base<Edge, std::allocator<Edge> >::_Vector_impl"* %9, i32 0, i32 2
  %11 = load %struct.Edge*, %struct.Edge** %10, align 8
  %12 = icmp ne %struct.Edge* %7, %11
  br i1 %12, label %13, label %27

13:                                               ; preds = %2
  %14 = bitcast %"class.std::vector.0"* %0 to %"struct.std::_Vector_base.1"*
  %15 = getelementptr inbounds %"struct.std::_Vector_base.1", %"struct.std::_Vector_base.1"* %14, i32 0, i32 0
  %16 = bitcast %"struct.std::_Vector_base<Edge, std::allocator<Edge> >::_Vector_impl"* %15 to %"class.std::allocator.2"*
  %17 = bitcast %"class.std::vector.0"* %0 to %"struct.std::_Vector_base.1"*
  %18 = getelementptr inbounds %"struct.std::_Vector_base.1", %"struct.std::_Vector_base.1"* %17, i32 0, i32 0
  %19 = getelementptr inbounds %"struct.std::_Vector_base<Edge, std::allocator<Edge> >::_Vector_impl", %"struct.std::_Vector_base<Edge, std::allocator<Edge> >::_Vector_impl"* %18, i32 0, i32 1
  %20 = load %struct.Edge*, %struct.Edge** %19, align 8
  %21 = call dereferenceable(32) %struct.Edge* @_ZSt7forwardI4EdgeEOT_RNSt16remove_referenceIS1_E4typeE(%struct.Edge* dereferenceable(32) %1) #3
  call void @_ZNSt16allocator_traitsISaI4EdgeEE9constructIS0_JS0_EEEvRS1_PT_DpOT0_(%"class.std::allocator.2"* dereferenceable(1) %16, %struct.Edge* %20, %struct.Edge* dereferenceable(32) %21)
  %22 = bitcast %"class.std::vector.0"* %0 to %"struct.std::_Vector_base.1"*
  %23 = getelementptr inbounds %"struct.std::_Vector_base.1", %"struct.std::_Vector_base.1"* %22, i32 0, i32 0
  %24 = getelementptr inbounds %"struct.std::_Vector_base<Edge, std::allocator<Edge> >::_Vector_impl", %"struct.std::_Vector_base<Edge, std::allocator<Edge> >::_Vector_impl"* %23, i32 0, i32 1
  %25 = load %struct.Edge*, %struct.Edge** %24, align 8
  %26 = getelementptr inbounds %struct.Edge, %struct.Edge* %25, i32 1
  store %struct.Edge* %26, %struct.Edge** %24, align 8
  br label %33

27:                                               ; preds = %2
  %28 = call %struct.Edge* @_ZNSt6vectorI4EdgeSaIS0_EE3endEv(%"class.std::vector.0"* %0) #3
  %29 = getelementptr inbounds %"class.__gnu_cxx::__normal_iterator", %"class.__gnu_cxx::__normal_iterator"* %3, i32 0, i32 0
  store %struct.Edge* %28, %struct.Edge** %29, align 8
  %30 = call dereferenceable(32) %struct.Edge* @_ZSt7forwardI4EdgeEOT_RNSt16remove_referenceIS1_E4typeE(%struct.Edge* dereferenceable(32) %1) #3
  %31 = getelementptr inbounds %"class.__gnu_cxx::__normal_iterator", %"class.__gnu_cxx::__normal_iterator"* %3, i32 0, i32 0
  %32 = load %struct.Edge*, %struct.Edge** %31, align 8
  call void @_ZNSt6vectorI4EdgeSaIS0_EE17_M_realloc_insertIJS0_EEEvN9__gnu_cxx17__normal_iteratorIPS0_S2_EEDpOT_(%"class.std::vector.0"* %0, %struct.Edge* %32, %struct.Edge* dereferenceable(32) %30)
  br label %33

33:                                               ; preds = %27, %13
  ret void
}

; Function Attrs: noinline nounwind uwtable
define linkonce_odr dereferenceable(32) %struct.Edge* @_ZSt4moveIR4EdgeEONSt16remove_referenceIT_E4typeEOS3_(%struct.Edge* dereferenceable(32) %0) #4 comdat {
  ret %struct.Edge* %0
}

; Function Attrs: noinline uwtable
define linkonce_odr void @_ZNSt16allocator_traitsISaI4EdgeEE9constructIS0_JS0_EEEvRS1_PT_DpOT0_(%"class.std::allocator.2"* dereferenceable(1) %0, %struct.Edge* %1, %struct.Edge* dereferenceable(32) %2) #0 comdat align 2 {
  %4 = bitcast %"class.std::allocator.2"* %0 to %"class.__gnu_cxx::new_allocator.3"*
  %5 = call dereferenceable(32) %struct.Edge* @_ZSt7forwardI4EdgeEOT_RNSt16remove_referenceIS1_E4typeE(%struct.Edge* dereferenceable(32) %2) #3
  call void @_ZN9__gnu_cxx13new_allocatorI4EdgeE9constructIS1_JS1_EEEvPT_DpOT0_(%"class.__gnu_cxx::new_allocator.3"* %4, %struct.Edge* %1, %struct.Edge* dereferenceable(32) %5)
  ret void
}

; Function Attrs: noinline nounwind uwtable
define linkonce_odr dereferenceable(32) %struct.Edge* @_ZSt7forwardI4EdgeEOT_RNSt16remove_referenceIS1_E4typeE(%struct.Edge* dereferenceable(32) %0) #4 comdat {
  ret %struct.Edge* %0
}

; Function Attrs: noinline uwtable
define linkonce_odr void @_ZNSt6vectorI4EdgeSaIS0_EE17_M_realloc_insertIJS0_EEEvN9__gnu_cxx17__normal_iteratorIPS0_S2_EEDpOT_(%"class.std::vector.0"* %0, %struct.Edge* %1, %struct.Edge* dereferenceable(32) %2) #0 comdat align 2 personality i8* bitcast (i32 (...)* @__gxx_personality_v0 to i8*) {
  %4 = alloca %"class.__gnu_cxx::__normal_iterator", align 8
  %5 = alloca %"class.__gnu_cxx::__normal_iterator", align 8
  %6 = getelementptr inbounds %"class.__gnu_cxx::__normal_iterator", %"class.__gnu_cxx::__normal_iterator"* %4, i32 0, i32 0
  store %struct.Edge* %1, %struct.Edge** %6, align 8
  %7 = call i64 @_ZNKSt6vectorI4EdgeSaIS0_EE12_M_check_lenEmPKc(%"class.std::vector.0"* %0, i64 1, i8* getelementptr inbounds ([26 x i8], [26 x i8]* @.str.3, i32 0, i32 0))
  %8 = bitcast %"class.std::vector.0"* %0 to %"struct.std::_Vector_base.1"*
  %9 = getelementptr inbounds %"struct.std::_Vector_base.1", %"struct.std::_Vector_base.1"* %8, i32 0, i32 0
  %10 = getelementptr inbounds %"struct.std::_Vector_base<Edge, std::allocator<Edge> >::_Vector_impl", %"struct.std::_Vector_base<Edge, std::allocator<Edge> >::_Vector_impl"* %9, i32 0, i32 0
  %11 = load %struct.Edge*, %struct.Edge** %10, align 8
  %12 = bitcast %"class.std::vector.0"* %0 to %"struct.std::_Vector_base.1"*
  %13 = getelementptr inbounds %"struct.std::_Vector_base.1", %"struct.std::_Vector_base.1"* %12, i32 0, i32 0
  %14 = getelementptr inbounds %"struct.std::_Vector_base<Edge, std::allocator<Edge> >::_Vector_impl", %"struct.std::_Vector_base<Edge, std::allocator<Edge> >::_Vector_impl"* %13, i32 0, i32 1
  %15 = load %struct.Edge*, %struct.Edge** %14, align 8
  %16 = call %struct.Edge* @_ZNSt6vectorI4EdgeSaIS0_EE5beginEv(%"class.std::vector.0"* %0) #3
  %17 = getelementptr inbounds %"class.__gnu_cxx::__normal_iterator", %"class.__gnu_cxx::__normal_iterator"* %5, i32 0, i32 0
  store %struct.Edge* %16, %struct.Edge** %17, align 8
  %18 = call i64 @_ZN9__gnu_cxxmiIP4EdgeSt6vectorIS1_SaIS1_EEEENS_17__normal_iteratorIT_T0_E15difference_typeERKS9_SC_(%"class.__gnu_cxx::__normal_iterator"* dereferenceable(8) %4, %"class.__gnu_cxx::__normal_iterator"* dereferenceable(8) %5) #3
  %19 = bitcast %"class.std::vector.0"* %0 to %"struct.std::_Vector_base.1"*
  %20 = call %struct.Edge* @_ZNSt12_Vector_baseI4EdgeSaIS0_EE11_M_allocateEm(%"struct.std::_Vector_base.1"* %19, i64 %7)
  %21 = bitcast %"class.std::vector.0"* %0 to %"struct.std::_Vector_base.1"*
  %22 = getelementptr inbounds %"struct.std::_Vector_base.1", %"struct.std::_Vector_base.1"* %21, i32 0, i32 0
  %23 = bitcast %"struct.std::_Vector_base<Edge, std::allocator<Edge> >::_Vector_impl"* %22 to %"class.std::allocator.2"*
  %24 = getelementptr inbounds %struct.Edge, %struct.Edge* %20, i64 %18
  %25 = call dereferenceable(32) %struct.Edge* @_ZSt7forwardI4EdgeEOT_RNSt16remove_referenceIS1_E4typeE(%struct.Edge* dereferenceable(32) %2) #3
  invoke void @_ZNSt16allocator_traitsISaI4EdgeEE9constructIS0_JS0_EEEvRS1_PT_DpOT0_(%"class.std::allocator.2"* dereferenceable(1) %23, %struct.Edge* %24, %struct.Edge* dereferenceable(32) %25)
          to label %26 unwind label %40

26:                                               ; preds = %3
  %27 = call dereferenceable(8) %struct.Edge** @_ZNK9__gnu_cxx17__normal_iteratorIP4EdgeSt6vectorIS1_SaIS1_EEE4baseEv(%"class.__gnu_cxx::__normal_iterator"* %4) #3
  %28 = load %struct.Edge*, %struct.Edge** %27, align 8
  %29 = bitcast %"class.std::vector.0"* %0 to %"struct.std::_Vector_base.1"*
  %30 = call dereferenceable(1) %"class.std::allocator.2"* @_ZNSt12_Vector_baseI4EdgeSaIS0_EE19_M_get_Tp_allocatorEv(%"struct.std::_Vector_base.1"* %29) #3
  %31 = invoke %struct.Edge* @_ZSt34__uninitialized_move_if_noexcept_aIP4EdgeS1_SaIS0_EET0_T_S4_S3_RT1_(%struct.Edge* %11, %struct.Edge* %28, %struct.Edge* %20, %"class.std::allocator.2"* dereferenceable(1) %30)
          to label %32 unwind label %40

32:                                               ; preds = %26
  %33 = getelementptr inbounds %struct.Edge, %struct.Edge* %31, i32 1
  %34 = call dereferenceable(8) %struct.Edge** @_ZNK9__gnu_cxx17__normal_iteratorIP4EdgeSt6vectorIS1_SaIS1_EEE4baseEv(%"class.__gnu_cxx::__normal_iterator"* %4) #3
  %35 = load %struct.Edge*, %struct.Edge** %34, align 8
  %36 = bitcast %"class.std::vector.0"* %0 to %"struct.std::_Vector_base.1"*
  %37 = call dereferenceable(1) %"class.std::allocator.2"* @_ZNSt12_Vector_baseI4EdgeSaIS0_EE19_M_get_Tp_allocatorEv(%"struct.std::_Vector_base.1"* %36) #3
  %38 = invoke %struct.Edge* @_ZSt34__uninitialized_move_if_noexcept_aIP4EdgeS1_SaIS0_EET0_T_S4_S3_RT1_(%struct.Edge* %35, %struct.Edge* %15, %struct.Edge* %33, %"class.std::allocator.2"* dereferenceable(1) %37)
          to label %39 unwind label %40

39:                                               ; preds = %32
  br label %65

40:                                               ; preds = %32, %26, %3
  %.0 = phi %struct.Edge* [ %33, %32 ], [ null, %26 ], [ %20, %3 ]
  %41 = landingpad { i8*, i32 }
          catch i8* null
  %42 = extractvalue { i8*, i32 } %41, 0
  %43 = extractvalue { i8*, i32 } %41, 1
  br label %44

44:                                               ; preds = %40
  %45 = call i8* @__cxa_begin_catch(i8* %42) #3
  %46 = icmp ne %struct.Edge* %.0, null
  br i1 %46, label %57, label %47

47:                                               ; preds = %44
  %48 = bitcast %"class.std::vector.0"* %0 to %"struct.std::_Vector_base.1"*
  %49 = getelementptr inbounds %"struct.std::_Vector_base.1", %"struct.std::_Vector_base.1"* %48, i32 0, i32 0
  %50 = bitcast %"struct.std::_Vector_base<Edge, std::allocator<Edge> >::_Vector_impl"* %49 to %"class.std::allocator.2"*
  %51 = getelementptr inbounds %struct.Edge, %struct.Edge* %20, i64 %18
  invoke void @_ZNSt16allocator_traitsISaI4EdgeEE7destroyIS0_EEvRS1_PT_(%"class.std::allocator.2"* dereferenceable(1) %50, %struct.Edge* %51)
          to label %52 unwind label %53

52:                                               ; preds = %47
  br label %61

53:                                               ; preds = %63, %61, %57, %47
  %54 = landingpad { i8*, i32 }
          cleanup
  %55 = extractvalue { i8*, i32 } %54, 0
  %56 = extractvalue { i8*, i32 } %54, 1
  invoke void @__cxa_end_catch()
          to label %64 unwind label %90

57:                                               ; preds = %44
  %58 = bitcast %"class.std::vector.0"* %0 to %"struct.std::_Vector_base.1"*
  %59 = call dereferenceable(1) %"class.std::allocator.2"* @_ZNSt12_Vector_baseI4EdgeSaIS0_EE19_M_get_Tp_allocatorEv(%"struct.std::_Vector_base.1"* %58) #3
  invoke void @_ZSt8_DestroyIP4EdgeS0_EvT_S2_RSaIT0_E(%struct.Edge* %20, %struct.Edge* %.0, %"class.std::allocator.2"* dereferenceable(1) %59)
          to label %60 unwind label %53

60:                                               ; preds = %57
  br label %61

61:                                               ; preds = %60, %52
  %62 = bitcast %"class.std::vector.0"* %0 to %"struct.std::_Vector_base.1"*
  invoke void @_ZNSt12_Vector_baseI4EdgeSaIS0_EE13_M_deallocateEPS0_m(%"struct.std::_Vector_base.1"* %62, %struct.Edge* %20, i64 %7)
          to label %63 unwind label %53

63:                                               ; preds = %61
  invoke void @__cxa_rethrow() #15
          to label %93 unwind label %53

64:                                               ; preds = %53
  br label %87

65:                                               ; preds = %39
  %66 = bitcast %"class.std::vector.0"* %0 to %"struct.std::_Vector_base.1"*
  %67 = call dereferenceable(1) %"class.std::allocator.2"* @_ZNSt12_Vector_baseI4EdgeSaIS0_EE19_M_get_Tp_allocatorEv(%"struct.std::_Vector_base.1"* %66) #3
  call void @_ZSt8_DestroyIP4EdgeS0_EvT_S2_RSaIT0_E(%struct.Edge* %11, %struct.Edge* %15, %"class.std::allocator.2"* dereferenceable(1) %67)
  %68 = bitcast %"class.std::vector.0"* %0 to %"struct.std::_Vector_base.1"*
  %69 = bitcast %"class.std::vector.0"* %0 to %"struct.std::_Vector_base.1"*
  %70 = getelementptr inbounds %"struct.std::_Vector_base.1", %"struct.std::_Vector_base.1"* %69, i32 0, i32 0
  %71 = getelementptr inbounds %"struct.std::_Vector_base<Edge, std::allocator<Edge> >::_Vector_impl", %"struct.std::_Vector_base<Edge, std::allocator<Edge> >::_Vector_impl"* %70, i32 0, i32 2
  %72 = load %struct.Edge*, %struct.Edge** %71, align 8
  %73 = ptrtoint %struct.Edge* %72 to i64
  %74 = ptrtoint %struct.Edge* %11 to i64
  %75 = sub i64 %73, %74
  %76 = sdiv exact i64 %75, 32
  call void @_ZNSt12_Vector_baseI4EdgeSaIS0_EE13_M_deallocateEPS0_m(%"struct.std::_Vector_base.1"* %68, %struct.Edge* %11, i64 %76)
  %77 = bitcast %"class.std::vector.0"* %0 to %"struct.std::_Vector_base.1"*
  %78 = getelementptr inbounds %"struct.std::_Vector_base.1", %"struct.std::_Vector_base.1"* %77, i32 0, i32 0
  %79 = getelementptr inbounds %"struct.std::_Vector_base<Edge, std::allocator<Edge> >::_Vector_impl", %"struct.std::_Vector_base<Edge, std::allocator<Edge> >::_Vector_impl"* %78, i32 0, i32 0
  store %struct.Edge* %20, %struct.Edge** %79, align 8
  %80 = bitcast %"class.std::vector.0"* %0 to %"struct.std::_Vector_base.1"*
  %81 = getelementptr inbounds %"struct.std::_Vector_base.1", %"struct.std::_Vector_base.1"* %80, i32 0, i32 0
  %82 = getelementptr inbounds %"struct.std::_Vector_base<Edge, std::allocator<Edge> >::_Vector_impl", %"struct.std::_Vector_base<Edge, std::allocator<Edge> >::_Vector_impl"* %81, i32 0, i32 1
  store %struct.Edge* %38, %struct.Edge** %82, align 8
  %83 = getelementptr inbounds %struct.Edge, %struct.Edge* %20, i64 %7
  %84 = bitcast %"class.std::vector.0"* %0 to %"struct.std::_Vector_base.1"*
  %85 = getelementptr inbounds %"struct.std::_Vector_base.1", %"struct.std::_Vector_base.1"* %84, i32 0, i32 0
  %86 = getelementptr inbounds %"struct.std::_Vector_base<Edge, std::allocator<Edge> >::_Vector_impl", %"struct.std::_Vector_base<Edge, std::allocator<Edge> >::_Vector_impl"* %85, i32 0, i32 2
  store %struct.Edge* %83, %struct.Edge** %86, align 8
  ret void

87:                                               ; preds = %64
  %88 = insertvalue { i8*, i32 } undef, i8* %55, 0
  %89 = insertvalue { i8*, i32 } %88, i32 %56, 1
  resume { i8*, i32 } %89

90:                                               ; preds = %53
  %91 = landingpad { i8*, i32 }
          catch i8* null
  %92 = extractvalue { i8*, i32 } %91, 0
  call void @__clang_call_terminate(i8* %92) #14
  unreachable

93:                                               ; preds = %63
  unreachable
}

; Function Attrs: noinline nounwind uwtable
define linkonce_odr %struct.Edge* @_ZNSt6vectorI4EdgeSaIS0_EE3endEv(%"class.std::vector.0"* %0) #4 comdat align 2 {
  %2 = alloca %"class.__gnu_cxx::__normal_iterator", align 8
  %3 = bitcast %"class.std::vector.0"* %0 to %"struct.std::_Vector_base.1"*
  %4 = getelementptr inbounds %"struct.std::_Vector_base.1", %"struct.std::_Vector_base.1"* %3, i32 0, i32 0
  %5 = getelementptr inbounds %"struct.std::_Vector_base<Edge, std::allocator<Edge> >::_Vector_impl", %"struct.std::_Vector_base<Edge, std::allocator<Edge> >::_Vector_impl"* %4, i32 0, i32 1
  call void @_ZN9__gnu_cxx17__normal_iteratorIP4EdgeSt6vectorIS1_SaIS1_EEEC2ERKS2_(%"class.__gnu_cxx::__normal_iterator"* %2, %struct.Edge** dereferenceable(8) %5) #3
  %6 = getelementptr inbounds %"class.__gnu_cxx::__normal_iterator", %"class.__gnu_cxx::__normal_iterator"* %2, i32 0, i32 0
  %7 = load %struct.Edge*, %struct.Edge** %6, align 8
  ret %struct.Edge* %7
}

; Function Attrs: noinline nounwind uwtable
define linkonce_odr void @_ZN9__gnu_cxx13new_allocatorI4EdgeE9constructIS1_JS1_EEEvPT_DpOT0_(%"class.__gnu_cxx::new_allocator.3"* %0, %struct.Edge* %1, %struct.Edge* dereferenceable(32) %2) #4 comdat align 2 {
  %4 = bitcast %struct.Edge* %1 to i8*
  %5 = bitcast i8* %4 to %struct.Edge*
  %6 = call dereferenceable(32) %struct.Edge* @_ZSt7forwardI4EdgeEOT_RNSt16remove_referenceIS1_E4typeE(%struct.Edge* dereferenceable(32) %2) #3
  %7 = bitcast %struct.Edge* %5 to i8*
  %8 = bitcast %struct.Edge* %6 to i8*
  call void @llvm.memcpy.p0i8.p0i8.i64(i8* align 8 %7, i8* align 8 %8, i64 32, i1 false)
  ret void
}

; Function Attrs: noinline uwtable
define linkonce_odr i64 @_ZNKSt6vectorI4EdgeSaIS0_EE12_M_check_lenEmPKc(%"class.std::vector.0"* %0, i64 %1, i8* %2) #0 comdat align 2 {
  %4 = alloca i64, align 8
  %5 = alloca i64, align 8
  store i64 %1, i64* %4, align 8
  %6 = call i64 @_ZNKSt6vectorI4EdgeSaIS0_EE8max_sizeEv(%"class.std::vector.0"* %0) #3
  %7 = call i64 @_ZNKSt6vectorI4EdgeSaIS0_EE4sizeEv(%"class.std::vector.0"* %0) #3
  %8 = sub i64 %6, %7
  %9 = load i64, i64* %4, align 8
  %10 = icmp ult i64 %8, %9
  br i1 %10, label %11, label %12

11:                                               ; preds = %3
  call void @_ZSt20__throw_length_errorPKc(i8* %2) #15
  unreachable

12:                                               ; preds = %3
  %13 = call i64 @_ZNKSt6vectorI4EdgeSaIS0_EE4sizeEv(%"class.std::vector.0"* %0) #3
  %14 = call i64 @_ZNKSt6vectorI4EdgeSaIS0_EE4sizeEv(%"class.std::vector.0"* %0) #3
  store i64 %14, i64* %5, align 8
  %15 = call dereferenceable(8) i64* @_ZSt3maxImERKT_S2_S2_(i64* dereferenceable(8) %5, i64* dereferenceable(8) %4)
  %16 = load i64, i64* %15, align 8
  %17 = add i64 %13, %16
  %18 = call i64 @_ZNKSt6vectorI4EdgeSaIS0_EE4sizeEv(%"class.std::vector.0"* %0) #3
  %19 = icmp ult i64 %17, %18
  br i1 %19, label %23, label %20

20:                                               ; preds = %12
  %21 = call i64 @_ZNKSt6vectorI4EdgeSaIS0_EE8max_sizeEv(%"class.std::vector.0"* %0) #3
  %22 = icmp ugt i64 %17, %21
  br i1 %22, label %23, label %25

23:                                               ; preds = %20, %12
  %24 = call i64 @_ZNKSt6vectorI4EdgeSaIS0_EE8max_sizeEv(%"class.std::vector.0"* %0) #3
  br label %26

25:                                               ; preds = %20
  br label %26

26:                                               ; preds = %25, %23
  %27 = phi i64 [ %24, %23 ], [ %17, %25 ]
  ret i64 %27
}

; Function Attrs: noinline nounwind uwtable
define linkonce_odr i64 @_ZN9__gnu_cxxmiIP4EdgeSt6vectorIS1_SaIS1_EEEENS_17__normal_iteratorIT_T0_E15difference_typeERKS9_SC_(%"class.__gnu_cxx::__normal_iterator"* dereferenceable(8) %0, %"class.__gnu_cxx::__normal_iterator"* dereferenceable(8) %1) #4 comdat {
  %3 = call dereferenceable(8) %struct.Edge** @_ZNK9__gnu_cxx17__normal_iteratorIP4EdgeSt6vectorIS1_SaIS1_EEE4baseEv(%"class.__gnu_cxx::__normal_iterator"* %0) #3
  %4 = load %struct.Edge*, %struct.Edge** %3, align 8
  %5 = call dereferenceable(8) %struct.Edge** @_ZNK9__gnu_cxx17__normal_iteratorIP4EdgeSt6vectorIS1_SaIS1_EEE4baseEv(%"class.__gnu_cxx::__normal_iterator"* %1) #3
  %6 = load %struct.Edge*, %struct.Edge** %5, align 8
  %7 = ptrtoint %struct.Edge* %4 to i64
  %8 = ptrtoint %struct.Edge* %6 to i64
  %9 = sub i64 %7, %8
  %10 = sdiv exact i64 %9, 32
  ret i64 %10
}

; Function Attrs: noinline nounwind uwtable
define linkonce_odr %struct.Edge* @_ZNSt6vectorI4EdgeSaIS0_EE5beginEv(%"class.std::vector.0"* %0) #4 comdat align 2 {
  %2 = alloca %"class.__gnu_cxx::__normal_iterator", align 8
  %3 = bitcast %"class.std::vector.0"* %0 to %"struct.std::_Vector_base.1"*
  %4 = getelementptr inbounds %"struct.std::_Vector_base.1", %"struct.std::_Vector_base.1"* %3, i32 0, i32 0
  %5 = getelementptr inbounds %"struct.std::_Vector_base<Edge, std::allocator<Edge> >::_Vector_impl", %"struct.std::_Vector_base<Edge, std::allocator<Edge> >::_Vector_impl"* %4, i32 0, i32 0
  call void @_ZN9__gnu_cxx17__normal_iteratorIP4EdgeSt6vectorIS1_SaIS1_EEEC2ERKS2_(%"class.__gnu_cxx::__normal_iterator"* %2, %struct.Edge** dereferenceable(8) %5) #3
  %6 = getelementptr inbounds %"class.__gnu_cxx::__normal_iterator", %"class.__gnu_cxx::__normal_iterator"* %2, i32 0, i32 0
  %7 = load %struct.Edge*, %struct.Edge** %6, align 8
  ret %struct.Edge* %7
}

; Function Attrs: noinline uwtable
define linkonce_odr %struct.Edge* @_ZNSt12_Vector_baseI4EdgeSaIS0_EE11_M_allocateEm(%"struct.std::_Vector_base.1"* %0, i64 %1) #0 comdat align 2 {
  %3 = icmp ne i64 %1, 0
  br i1 %3, label %4, label %8

4:                                                ; preds = %2
  %5 = getelementptr inbounds %"struct.std::_Vector_base.1", %"struct.std::_Vector_base.1"* %0, i32 0, i32 0
  %6 = bitcast %"struct.std::_Vector_base<Edge, std::allocator<Edge> >::_Vector_impl"* %5 to %"class.std::allocator.2"*
  %7 = call %struct.Edge* @_ZNSt16allocator_traitsISaI4EdgeEE8allocateERS1_m(%"class.std::allocator.2"* dereferenceable(1) %6, i64 %1)
  br label %9

8:                                                ; preds = %2
  br label %9

9:                                                ; preds = %8, %4
  %10 = phi %struct.Edge* [ %7, %4 ], [ null, %8 ]
  ret %struct.Edge* %10
}

; Function Attrs: noinline uwtable
define linkonce_odr %struct.Edge* @_ZSt34__uninitialized_move_if_noexcept_aIP4EdgeS1_SaIS0_EET0_T_S4_S3_RT1_(%struct.Edge* %0, %struct.Edge* %1, %struct.Edge* %2, %"class.std::allocator.2"* dereferenceable(1) %3) #0 comdat {
  %5 = alloca %"class.std::move_iterator", align 8
  %6 = alloca %"class.std::move_iterator", align 8
  %7 = call %struct.Edge* @_ZSt32__make_move_if_noexcept_iteratorI4EdgeSt13move_iteratorIPS0_EET0_PT_(%struct.Edge* %0)
  %8 = getelementptr inbounds %"class.std::move_iterator", %"class.std::move_iterator"* %5, i32 0, i32 0
  store %struct.Edge* %7, %struct.Edge** %8, align 8
  %9 = call %struct.Edge* @_ZSt32__make_move_if_noexcept_iteratorI4EdgeSt13move_iteratorIPS0_EET0_PT_(%struct.Edge* %1)
  %10 = getelementptr inbounds %"class.std::move_iterator", %"class.std::move_iterator"* %6, i32 0, i32 0
  store %struct.Edge* %9, %struct.Edge** %10, align 8
  %11 = getelementptr inbounds %"class.std::move_iterator", %"class.std::move_iterator"* %5, i32 0, i32 0
  %12 = load %struct.Edge*, %struct.Edge** %11, align 8
  %13 = getelementptr inbounds %"class.std::move_iterator", %"class.std::move_iterator"* %6, i32 0, i32 0
  %14 = load %struct.Edge*, %struct.Edge** %13, align 8
  %15 = call %struct.Edge* @_ZSt22__uninitialized_copy_aISt13move_iteratorIP4EdgeES2_S1_ET0_T_S5_S4_RSaIT1_E(%struct.Edge* %12, %struct.Edge* %14, %struct.Edge* %2, %"class.std::allocator.2"* dereferenceable(1) %3)
  ret %struct.Edge* %15
}

; Function Attrs: noinline nounwind uwtable
define linkonce_odr dereferenceable(8) %struct.Edge** @_ZNK9__gnu_cxx17__normal_iteratorIP4EdgeSt6vectorIS1_SaIS1_EEE4baseEv(%"class.__gnu_cxx::__normal_iterator"* %0) #4 comdat align 2 {
  %2 = getelementptr inbounds %"class.__gnu_cxx::__normal_iterator", %"class.__gnu_cxx::__normal_iterator"* %0, i32 0, i32 0
  ret %struct.Edge** %2
}

; Function Attrs: noinline uwtable
define linkonce_odr void @_ZNSt16allocator_traitsISaI4EdgeEE7destroyIS0_EEvRS1_PT_(%"class.std::allocator.2"* dereferenceable(1) %0, %struct.Edge* %1) #0 comdat align 2 {
  %3 = bitcast %"class.std::allocator.2"* %0 to %"class.__gnu_cxx::new_allocator.3"*
  call void @_ZN9__gnu_cxx13new_allocatorI4EdgeE7destroyIS1_EEvPT_(%"class.__gnu_cxx::new_allocator.3"* %3, %struct.Edge* %1)
  ret void
}

declare void @__cxa_rethrow()

declare void @__cxa_end_catch()

; Function Attrs: noinline nounwind uwtable
define linkonce_odr i64 @_ZNKSt6vectorI4EdgeSaIS0_EE8max_sizeEv(%"class.std::vector.0"* %0) #4 comdat align 2 {
  %2 = bitcast %"class.std::vector.0"* %0 to %"struct.std::_Vector_base.1"*
  %3 = call dereferenceable(1) %"class.std::allocator.2"* @_ZNKSt12_Vector_baseI4EdgeSaIS0_EE19_M_get_Tp_allocatorEv(%"struct.std::_Vector_base.1"* %2) #3
  %4 = call i64 @_ZNSt16allocator_traitsISaI4EdgeEE8max_sizeERKS1_(%"class.std::allocator.2"* dereferenceable(1) %3) #3
  ret i64 %4
}

; Function Attrs: noreturn
declare void @_ZSt20__throw_length_errorPKc(i8*) #10

; Function Attrs: noinline nounwind uwtable
define linkonce_odr dereferenceable(8) i64* @_ZSt3maxImERKT_S2_S2_(i64* dereferenceable(8) %0, i64* dereferenceable(8) %1) #4 comdat {
  %3 = load i64, i64* %0, align 8
  %4 = load i64, i64* %1, align 8
  %5 = icmp ult i64 %3, %4
  br i1 %5, label %6, label %7

6:                                                ; preds = %2
  br label %8

7:                                                ; preds = %2
  br label %8

8:                                                ; preds = %7, %6
  %.0 = phi i64* [ %1, %6 ], [ %0, %7 ]
  ret i64* %.0
}

; Function Attrs: noinline nounwind uwtable
define linkonce_odr i64 @_ZNSt16allocator_traitsISaI4EdgeEE8max_sizeERKS1_(%"class.std::allocator.2"* dereferenceable(1) %0) #4 comdat align 2 {
  %2 = bitcast %"class.std::allocator.2"* %0 to %"class.__gnu_cxx::new_allocator.3"*
  %3 = call i64 @_ZNK9__gnu_cxx13new_allocatorI4EdgeE8max_sizeEv(%"class.__gnu_cxx::new_allocator.3"* %2) #3
  ret i64 %3
}

; Function Attrs: noinline nounwind uwtable
define linkonce_odr dereferenceable(1) %"class.std::allocator.2"* @_ZNKSt12_Vector_baseI4EdgeSaIS0_EE19_M_get_Tp_allocatorEv(%"struct.std::_Vector_base.1"* %0) #4 comdat align 2 {
  %2 = getelementptr inbounds %"struct.std::_Vector_base.1", %"struct.std::_Vector_base.1"* %0, i32 0, i32 0
  %3 = bitcast %"struct.std::_Vector_base<Edge, std::allocator<Edge> >::_Vector_impl"* %2 to %"class.std::allocator.2"*
  ret %"class.std::allocator.2"* %3
}

; Function Attrs: noinline nounwind uwtable
define linkonce_odr i64 @_ZNK9__gnu_cxx13new_allocatorI4EdgeE8max_sizeEv(%"class.__gnu_cxx::new_allocator.3"* %0) #4 comdat align 2 {
  ret i64 576460752303423487
}

; Function Attrs: noinline nounwind uwtable
define linkonce_odr void @_ZN9__gnu_cxx17__normal_iteratorIP4EdgeSt6vectorIS1_SaIS1_EEEC2ERKS2_(%"class.__gnu_cxx::__normal_iterator"* %0, %struct.Edge** dereferenceable(8) %1) unnamed_addr #4 comdat align 2 {
  %3 = getelementptr inbounds %"class.__gnu_cxx::__normal_iterator", %"class.__gnu_cxx::__normal_iterator"* %0, i32 0, i32 0
  %4 = load %struct.Edge*, %struct.Edge** %1, align 8
  store %struct.Edge* %4, %struct.Edge** %3, align 8
  ret void
}

; Function Attrs: noinline uwtable
define linkonce_odr %struct.Edge* @_ZNSt16allocator_traitsISaI4EdgeEE8allocateERS1_m(%"class.std::allocator.2"* dereferenceable(1) %0, i64 %1) #0 comdat align 2 {
  %3 = bitcast %"class.std::allocator.2"* %0 to %"class.__gnu_cxx::new_allocator.3"*
  %4 = call %struct.Edge* @_ZN9__gnu_cxx13new_allocatorI4EdgeE8allocateEmPKv(%"class.__gnu_cxx::new_allocator.3"* %3, i64 %1, i8* null)
  ret %struct.Edge* %4
}

; Function Attrs: noinline uwtable
define linkonce_odr %struct.Edge* @_ZN9__gnu_cxx13new_allocatorI4EdgeE8allocateEmPKv(%"class.__gnu_cxx::new_allocator.3"* %0, i64 %1, i8* %2) #0 comdat align 2 {
  %4 = call i64 @_ZNK9__gnu_cxx13new_allocatorI4EdgeE8max_sizeEv(%"class.__gnu_cxx::new_allocator.3"* %0) #3
  %5 = icmp ugt i64 %1, %4
  br i1 %5, label %6, label %7

6:                                                ; preds = %3
  call void @_ZSt17__throw_bad_allocv() #15
  unreachable

7:                                                ; preds = %3
  %8 = mul i64 %1, 32
  %9 = call i8* @_Znwm(i64 %8)
  %10 = bitcast i8* %9 to %struct.Edge*
  ret %struct.Edge* %10
}

; Function Attrs: noreturn
declare void @_ZSt17__throw_bad_allocv() #10

; Function Attrs: nobuiltin
declare noalias i8* @_Znwm(i64) #11

; Function Attrs: noinline uwtable
define linkonce_odr %struct.Edge* @_ZSt22__uninitialized_copy_aISt13move_iteratorIP4EdgeES2_S1_ET0_T_S5_S4_RSaIT1_E(%struct.Edge* %0, %struct.Edge* %1, %struct.Edge* %2, %"class.std::allocator.2"* dereferenceable(1) %3) #0 comdat {
  %5 = alloca %"class.std::move_iterator", align 8
  %6 = alloca %"class.std::move_iterator", align 8
  %7 = alloca %"class.std::move_iterator", align 8
  %8 = alloca %"class.std::move_iterator", align 8
  %9 = getelementptr inbounds %"class.std::move_iterator", %"class.std::move_iterator"* %5, i32 0, i32 0
  store %struct.Edge* %0, %struct.Edge** %9, align 8
  %10 = getelementptr inbounds %"class.std::move_iterator", %"class.std::move_iterator"* %6, i32 0, i32 0
  store %struct.Edge* %1, %struct.Edge** %10, align 8
  %11 = bitcast %"class.std::move_iterator"* %7 to i8*
  %12 = bitcast %"class.std::move_iterator"* %5 to i8*
  call void @llvm.memcpy.p0i8.p0i8.i64(i8* align 8 %11, i8* align 8 %12, i64 8, i1 false)
  %13 = bitcast %"class.std::move_iterator"* %8 to i8*
  %14 = bitcast %"class.std::move_iterator"* %6 to i8*
  call void @llvm.memcpy.p0i8.p0i8.i64(i8* align 8 %13, i8* align 8 %14, i64 8, i1 false)
  %15 = getelementptr inbounds %"class.std::move_iterator", %"class.std::move_iterator"* %7, i32 0, i32 0
  %16 = load %struct.Edge*, %struct.Edge** %15, align 8
  %17 = getelementptr inbounds %"class.std::move_iterator", %"class.std::move_iterator"* %8, i32 0, i32 0
  %18 = load %struct.Edge*, %struct.Edge** %17, align 8
  %19 = call %struct.Edge* @_ZSt18uninitialized_copyISt13move_iteratorIP4EdgeES2_ET0_T_S5_S4_(%struct.Edge* %16, %struct.Edge* %18, %struct.Edge* %2)
  ret %struct.Edge* %19
}

; Function Attrs: noinline uwtable
define linkonce_odr %struct.Edge* @_ZSt32__make_move_if_noexcept_iteratorI4EdgeSt13move_iteratorIPS0_EET0_PT_(%struct.Edge* %0) #0 comdat {
  %2 = alloca %"class.std::move_iterator", align 8
  call void @_ZNSt13move_iteratorIP4EdgeEC2ES1_(%"class.std::move_iterator"* %2, %struct.Edge* %0)
  %3 = getelementptr inbounds %"class.std::move_iterator", %"class.std::move_iterator"* %2, i32 0, i32 0
  %4 = load %struct.Edge*, %struct.Edge** %3, align 8
  ret %struct.Edge* %4
}

; Function Attrs: noinline uwtable
define linkonce_odr %struct.Edge* @_ZSt18uninitialized_copyISt13move_iteratorIP4EdgeES2_ET0_T_S5_S4_(%struct.Edge* %0, %struct.Edge* %1, %struct.Edge* %2) #0 comdat {
  %4 = alloca %"class.std::move_iterator", align 8
  %5 = alloca %"class.std::move_iterator", align 8
  %6 = alloca %"class.std::move_iterator", align 8
  %7 = alloca %"class.std::move_iterator", align 8
  %8 = getelementptr inbounds %"class.std::move_iterator", %"class.std::move_iterator"* %4, i32 0, i32 0
  store %struct.Edge* %0, %struct.Edge** %8, align 8
  %9 = getelementptr inbounds %"class.std::move_iterator", %"class.std::move_iterator"* %5, i32 0, i32 0
  store %struct.Edge* %1, %struct.Edge** %9, align 8
  %10 = bitcast %"class.std::move_iterator"* %6 to i8*
  %11 = bitcast %"class.std::move_iterator"* %4 to i8*
  call void @llvm.memcpy.p0i8.p0i8.i64(i8* align 8 %10, i8* align 8 %11, i64 8, i1 false)
  %12 = bitcast %"class.std::move_iterator"* %7 to i8*
  %13 = bitcast %"class.std::move_iterator"* %5 to i8*
  call void @llvm.memcpy.p0i8.p0i8.i64(i8* align 8 %12, i8* align 8 %13, i64 8, i1 false)
  %14 = getelementptr inbounds %"class.std::move_iterator", %"class.std::move_iterator"* %6, i32 0, i32 0
  %15 = load %struct.Edge*, %struct.Edge** %14, align 8
  %16 = getelementptr inbounds %"class.std::move_iterator", %"class.std::move_iterator"* %7, i32 0, i32 0
  %17 = load %struct.Edge*, %struct.Edge** %16, align 8
  %18 = call %struct.Edge* @_ZNSt20__uninitialized_copyILb1EE13__uninit_copyISt13move_iteratorIP4EdgeES4_EET0_T_S7_S6_(%struct.Edge* %15, %struct.Edge* %17, %struct.Edge* %2)
  ret %struct.Edge* %18
}

; Function Attrs: noinline uwtable
define linkonce_odr %struct.Edge* @_ZNSt20__uninitialized_copyILb1EE13__uninit_copyISt13move_iteratorIP4EdgeES4_EET0_T_S7_S6_(%struct.Edge* %0, %struct.Edge* %1, %struct.Edge* %2) #0 comdat align 2 {
  %4 = alloca %"class.std::move_iterator", align 8
  %5 = alloca %"class.std::move_iterator", align 8
  %6 = alloca %"class.std::move_iterator", align 8
  %7 = alloca %"class.std::move_iterator", align 8
  %8 = getelementptr inbounds %"class.std::move_iterator", %"class.std::move_iterator"* %4, i32 0, i32 0
  store %struct.Edge* %0, %struct.Edge** %8, align 8
  %9 = getelementptr inbounds %"class.std::move_iterator", %"class.std::move_iterator"* %5, i32 0, i32 0
  store %struct.Edge* %1, %struct.Edge** %9, align 8
  %10 = bitcast %"class.std::move_iterator"* %6 to i8*
  %11 = bitcast %"class.std::move_iterator"* %4 to i8*
  call void @llvm.memcpy.p0i8.p0i8.i64(i8* align 8 %10, i8* align 8 %11, i64 8, i1 false)
  %12 = bitcast %"class.std::move_iterator"* %7 to i8*
  %13 = bitcast %"class.std::move_iterator"* %5 to i8*
  call void @llvm.memcpy.p0i8.p0i8.i64(i8* align 8 %12, i8* align 8 %13, i64 8, i1 false)
  %14 = getelementptr inbounds %"class.std::move_iterator", %"class.std::move_iterator"* %6, i32 0, i32 0
  %15 = load %struct.Edge*, %struct.Edge** %14, align 8
  %16 = getelementptr inbounds %"class.std::move_iterator", %"class.std::move_iterator"* %7, i32 0, i32 0
  %17 = load %struct.Edge*, %struct.Edge** %16, align 8
  %18 = call %struct.Edge* @_ZSt4copyISt13move_iteratorIP4EdgeES2_ET0_T_S5_S4_(%struct.Edge* %15, %struct.Edge* %17, %struct.Edge* %2)
  ret %struct.Edge* %18
}

; Function Attrs: noinline uwtable
define linkonce_odr %struct.Edge* @_ZSt4copyISt13move_iteratorIP4EdgeES2_ET0_T_S5_S4_(%struct.Edge* %0, %struct.Edge* %1, %struct.Edge* %2) #0 comdat {
  %4 = alloca %"class.std::move_iterator", align 8
  %5 = alloca %"class.std::move_iterator", align 8
  %6 = alloca %"class.std::move_iterator", align 8
  %7 = alloca %"class.std::move_iterator", align 8
  %8 = getelementptr inbounds %"class.std::move_iterator", %"class.std::move_iterator"* %4, i32 0, i32 0
  store %struct.Edge* %0, %struct.Edge** %8, align 8
  %9 = getelementptr inbounds %"class.std::move_iterator", %"class.std::move_iterator"* %5, i32 0, i32 0
  store %struct.Edge* %1, %struct.Edge** %9, align 8
  %10 = bitcast %"class.std::move_iterator"* %6 to i8*
  %11 = bitcast %"class.std::move_iterator"* %4 to i8*
  call void @llvm.memcpy.p0i8.p0i8.i64(i8* align 8 %10, i8* align 8 %11, i64 8, i1 false)
  %12 = getelementptr inbounds %"class.std::move_iterator", %"class.std::move_iterator"* %6, i32 0, i32 0
  %13 = load %struct.Edge*, %struct.Edge** %12, align 8
  %14 = call %struct.Edge* @_ZSt12__miter_baseIP4EdgeEDTcl12__miter_basecldtfp_4baseEEESt13move_iteratorIT_E(%struct.Edge* %13)
  %15 = bitcast %"class.std::move_iterator"* %7 to i8*
  %16 = bitcast %"class.std::move_iterator"* %5 to i8*
  call void @llvm.memcpy.p0i8.p0i8.i64(i8* align 8 %15, i8* align 8 %16, i64 8, i1 false)
  %17 = getelementptr inbounds %"class.std::move_iterator", %"class.std::move_iterator"* %7, i32 0, i32 0
  %18 = load %struct.Edge*, %struct.Edge** %17, align 8
  %19 = call %struct.Edge* @_ZSt12__miter_baseIP4EdgeEDTcl12__miter_basecldtfp_4baseEEESt13move_iteratorIT_E(%struct.Edge* %18)
  %20 = call %struct.Edge* @_ZSt14__copy_move_a2ILb1EP4EdgeS1_ET1_T0_S3_S2_(%struct.Edge* %14, %struct.Edge* %19, %struct.Edge* %2)
  ret %struct.Edge* %20
}

; Function Attrs: noinline uwtable
define linkonce_odr %struct.Edge* @_ZSt14__copy_move_a2ILb1EP4EdgeS1_ET1_T0_S3_S2_(%struct.Edge* %0, %struct.Edge* %1, %struct.Edge* %2) #0 comdat {
  %4 = call %struct.Edge* @_ZSt12__niter_baseIP4EdgeET_S2_(%struct.Edge* %0)
  %5 = call %struct.Edge* @_ZSt12__niter_baseIP4EdgeET_S2_(%struct.Edge* %1)
  %6 = call %struct.Edge* @_ZSt12__niter_baseIP4EdgeET_S2_(%struct.Edge* %2)
  %7 = call %struct.Edge* @_ZSt13__copy_move_aILb1EP4EdgeS1_ET1_T0_S3_S2_(%struct.Edge* %4, %struct.Edge* %5, %struct.Edge* %6)
  ret %struct.Edge* %7
}

; Function Attrs: noinline uwtable
define linkonce_odr %struct.Edge* @_ZSt12__miter_baseIP4EdgeEDTcl12__miter_basecldtfp_4baseEEESt13move_iteratorIT_E(%struct.Edge* %0) #0 comdat {
  %2 = alloca %"class.std::move_iterator", align 8
  %3 = getelementptr inbounds %"class.std::move_iterator", %"class.std::move_iterator"* %2, i32 0, i32 0
  store %struct.Edge* %0, %struct.Edge** %3, align 8
  %4 = call %struct.Edge* @_ZNKSt13move_iteratorIP4EdgeE4baseEv(%"class.std::move_iterator"* %2)
  %5 = call %struct.Edge* @_ZSt12__miter_baseIP4EdgeET_S2_(%struct.Edge* %4)
  ret %struct.Edge* %5
}

; Function Attrs: noinline uwtable
define linkonce_odr %struct.Edge* @_ZSt13__copy_move_aILb1EP4EdgeS1_ET1_T0_S3_S2_(%struct.Edge* %0, %struct.Edge* %1, %struct.Edge* %2) #0 comdat {
  %4 = call %struct.Edge* @_ZNSt11__copy_moveILb1ELb1ESt26random_access_iterator_tagE8__copy_mI4EdgeEEPT_PKS4_S7_S5_(%struct.Edge* %0, %struct.Edge* %1, %struct.Edge* %2)
  ret %struct.Edge* %4
}

; Function Attrs: noinline nounwind uwtable
define linkonce_odr %struct.Edge* @_ZSt12__niter_baseIP4EdgeET_S2_(%struct.Edge* %0) #4 comdat {
  ret %struct.Edge* %0
}

; Function Attrs: noinline nounwind uwtable
define linkonce_odr %struct.Edge* @_ZNSt11__copy_moveILb1ELb1ESt26random_access_iterator_tagE8__copy_mI4EdgeEEPT_PKS4_S7_S5_(%struct.Edge* %0, %struct.Edge* %1, %struct.Edge* %2) #4 comdat align 2 {
  %4 = ptrtoint %struct.Edge* %1 to i64
  %5 = ptrtoint %struct.Edge* %0 to i64
  %6 = sub i64 %4, %5
  %7 = sdiv exact i64 %6, 32
  %8 = icmp ne i64 %7, 0
  br i1 %8, label %9, label %13

9:                                                ; preds = %3
  %10 = bitcast %struct.Edge* %2 to i8*
  %11 = bitcast %struct.Edge* %0 to i8*
  %12 = mul i64 32, %7
  call void @llvm.memmove.p0i8.p0i8.i64(i8* align 8 %10, i8* align 8 %11, i64 %12, i1 false)
  br label %13

13:                                               ; preds = %9, %3
  %14 = getelementptr inbounds %struct.Edge, %struct.Edge* %2, i64 %7
  ret %struct.Edge* %14
}

; Function Attrs: noinline nounwind uwtable
define linkonce_odr %struct.Edge* @_ZSt12__miter_baseIP4EdgeET_S2_(%struct.Edge* %0) #4 comdat {
  ret %struct.Edge* %0
}

; Function Attrs: noinline nounwind uwtable
define linkonce_odr %struct.Edge* @_ZNKSt13move_iteratorIP4EdgeE4baseEv(%"class.std::move_iterator"* %0) #4 comdat align 2 {
  %2 = getelementptr inbounds %"class.std::move_iterator", %"class.std::move_iterator"* %0, i32 0, i32 0
  %3 = load %struct.Edge*, %struct.Edge** %2, align 8
  ret %struct.Edge* %3
}

; Function Attrs: noinline nounwind uwtable
define linkonce_odr void @_ZNSt13move_iteratorIP4EdgeEC2ES1_(%"class.std::move_iterator"* %0, %struct.Edge* %1) unnamed_addr #4 comdat align 2 {
  %3 = getelementptr inbounds %"class.std::move_iterator", %"class.std::move_iterator"* %0, i32 0, i32 0
  store %struct.Edge* %1, %struct.Edge** %3, align 8
  ret void
}

; Function Attrs: noinline nounwind uwtable
define linkonce_odr void @_ZN9__gnu_cxx13new_allocatorI4EdgeE7destroyIS1_EEvPT_(%"class.__gnu_cxx::new_allocator.3"* %0, %struct.Edge* %1) #4 comdat align 2 {
  ret void
}

; Function Attrs: noinline nounwind uwtable
define linkonce_odr double* @_ZSt10__fill_n_aIPdiiEN9__gnu_cxx11__enable_ifIXsr11__is_scalarIT1_EE7__valueET_E6__typeES4_T0_RKS3_(double* %0, i32 %1, i32* dereferenceable(4) %2) #4 comdat {
  %4 = load i32, i32* %2, align 4
  br label %5

5:                                                ; preds = %9, %3
  %.01 = phi i32 [ %1, %3 ], [ %10, %9 ]
  %.0 = phi double* [ %0, %3 ], [ %11, %9 ]
  %6 = icmp sgt i32 %.01, 0
  br i1 %6, label %7, label %12

7:                                                ; preds = %5
  %8 = sitofp i32 %4 to double
  store double %8, double* %.0, align 8
  br label %9

9:                                                ; preds = %7
  %10 = add nsw i32 %.01, -1
  %11 = getelementptr inbounds double, double* %.0, i32 1
  br label %5

12:                                               ; preds = %5
  ret double* %.0
}

; Function Attrs: noinline nounwind uwtable
define linkonce_odr double* @_ZSt12__niter_baseIPdET_S1_(double* %0) #4 comdat {
  ret double* %0
}

; Function Attrs: noinline nounwind uwtable
define linkonce_odr void @_ZNSt6vectorISt4pairIdxESaIS1_EEC2Ev(%"class.std::vector.5"* %0) unnamed_addr #4 comdat align 2 personality i8* bitcast (i32 (...)* @__gxx_personality_v0 to i8*) {
  %2 = bitcast %"class.std::vector.5"* %0 to %"struct.std::_Vector_base.6"*
  invoke void @_ZNSt12_Vector_baseISt4pairIdxESaIS1_EEC2Ev(%"struct.std::_Vector_base.6"* %2)
          to label %3 unwind label %4

3:                                                ; preds = %1
  ret void

4:                                                ; preds = %1
  %5 = landingpad { i8*, i32 }
          catch i8* null
  %6 = extractvalue { i8*, i32 } %5, 0
  call void @__clang_call_terminate(i8* %6) #14
  unreachable
}

; Function Attrs: noinline uwtable
define linkonce_odr void @_ZNSt12_Vector_baseISt4pairIdxESaIS1_EEC2Ev(%"struct.std::_Vector_base.6"* %0) unnamed_addr #0 comdat align 2 {
  %2 = getelementptr inbounds %"struct.std::_Vector_base.6", %"struct.std::_Vector_base.6"* %0, i32 0, i32 0
  call void @_ZNSt12_Vector_baseISt4pairIdxESaIS1_EE12_Vector_implC2Ev(%"struct.std::_Vector_base<std::pair<double, long long>, std::allocator<std::pair<double, long long> > >::_Vector_impl"* %2)
  ret void
}

; Function Attrs: noinline nounwind uwtable
define linkonce_odr void @_ZNSt12_Vector_baseISt4pairIdxESaIS1_EE12_Vector_implC2Ev(%"struct.std::_Vector_base<std::pair<double, long long>, std::allocator<std::pair<double, long long> > >::_Vector_impl"* %0) unnamed_addr #4 comdat align 2 {
  %2 = bitcast %"struct.std::_Vector_base<std::pair<double, long long>, std::allocator<std::pair<double, long long> > >::_Vector_impl"* %0 to %"class.std::allocator.7"*
  call void @_ZNSaISt4pairIdxEEC2Ev(%"class.std::allocator.7"* %2) #3
  %3 = getelementptr inbounds %"struct.std::_Vector_base<std::pair<double, long long>, std::allocator<std::pair<double, long long> > >::_Vector_impl", %"struct.std::_Vector_base<std::pair<double, long long>, std::allocator<std::pair<double, long long> > >::_Vector_impl"* %0, i32 0, i32 0
  store %"struct.std::pair"* null, %"struct.std::pair"** %3, align 8
  %4 = getelementptr inbounds %"struct.std::_Vector_base<std::pair<double, long long>, std::allocator<std::pair<double, long long> > >::_Vector_impl", %"struct.std::_Vector_base<std::pair<double, long long>, std::allocator<std::pair<double, long long> > >::_Vector_impl"* %0, i32 0, i32 1
  store %"struct.std::pair"* null, %"struct.std::pair"** %4, align 8
  %5 = getelementptr inbounds %"struct.std::_Vector_base<std::pair<double, long long>, std::allocator<std::pair<double, long long> > >::_Vector_impl", %"struct.std::_Vector_base<std::pair<double, long long>, std::allocator<std::pair<double, long long> > >::_Vector_impl"* %0, i32 0, i32 2
  store %"struct.std::pair"* null, %"struct.std::pair"** %5, align 8
  ret void
}

; Function Attrs: noinline nounwind uwtable
define linkonce_odr void @_ZNSaISt4pairIdxEEC2Ev(%"class.std::allocator.7"* %0) unnamed_addr #4 comdat align 2 {
  %2 = bitcast %"class.std::allocator.7"* %0 to %"class.__gnu_cxx::new_allocator.8"*
  call void @_ZN9__gnu_cxx13new_allocatorISt4pairIdxEEC2Ev(%"class.__gnu_cxx::new_allocator.8"* %2) #3
  ret void
}

; Function Attrs: noinline nounwind uwtable
define linkonce_odr void @_ZN9__gnu_cxx13new_allocatorISt4pairIdxEEC2Ev(%"class.__gnu_cxx::new_allocator.8"* %0) unnamed_addr #4 comdat align 2 {
  ret void
}

; Function Attrs: noinline uwtable
define linkonce_odr void @_ZNSt6vectorISt4pairIdxESaIS1_EE9push_backEOS1_(%"class.std::vector.5"* %0, %"struct.std::pair"* dereferenceable(16) %1) #0 comdat align 2 {
  %3 = call dereferenceable(16) %"struct.std::pair"* @_ZSt4moveIRSt4pairIdxEEONSt16remove_referenceIT_E4typeEOS4_(%"struct.std::pair"* dereferenceable(16) %1) #3
  call void @_ZNSt6vectorISt4pairIdxESaIS1_EE12emplace_backIJS1_EEEvDpOT_(%"class.std::vector.5"* %0, %"struct.std::pair"* dereferenceable(16) %3)
  ret void
}

; Function Attrs: noinline nounwind uwtable
define linkonce_odr dereferenceable(16) %"struct.std::pair"* @_ZSt4moveIRSt4pairIdxEEONSt16remove_referenceIT_E4typeEOS4_(%"struct.std::pair"* dereferenceable(16) %0) #4 comdat {
  ret %"struct.std::pair"* %0
}

; Function Attrs: noinline uwtable
define linkonce_odr void @_ZSt9push_heapIN9__gnu_cxx17__normal_iteratorIPSt4pairIdxESt6vectorIS3_SaIS3_EEEESt7greaterIS3_EEvT_SB_T0_(%"struct.std::pair"* %0, %"struct.std::pair"* %1) #0 comdat {
  %3 = alloca %"class.__gnu_cxx::__normal_iterator.23", align 8
  %4 = alloca %"class.__gnu_cxx::__normal_iterator.23", align 8
  %5 = alloca %"struct.std::greater", align 1
  %6 = alloca %"struct.__gnu_cxx::__ops::_Iter_comp_val", align 1
  %7 = alloca %"struct.std::pair", align 8
  %8 = alloca %"class.__gnu_cxx::__normal_iterator.23", align 8
  %9 = alloca %"class.__gnu_cxx::__normal_iterator.23", align 8
  %10 = alloca %"struct.std::pair", align 8
  %11 = getelementptr inbounds %"class.__gnu_cxx::__normal_iterator.23", %"class.__gnu_cxx::__normal_iterator.23"* %3, i32 0, i32 0
  store %"struct.std::pair"* %0, %"struct.std::pair"** %11, align 8
  %12 = getelementptr inbounds %"class.__gnu_cxx::__normal_iterator.23", %"class.__gnu_cxx::__normal_iterator.23"* %4, i32 0, i32 0
  store %"struct.std::pair"* %1, %"struct.std::pair"** %12, align 8
  %13 = call dereferenceable(1) %"struct.std::greater"* @_ZSt4moveIRSt7greaterISt4pairIdxEEEONSt16remove_referenceIT_E4typeEOS6_(%"struct.std::greater"* dereferenceable(1) %5) #3
  call void @_ZN9__gnu_cxx5__ops14_Iter_comp_valISt7greaterISt4pairIdxEEEC2ES5_(%"struct.__gnu_cxx::__ops::_Iter_comp_val"* %6)
  %14 = call %"struct.std::pair"* @_ZNK9__gnu_cxx17__normal_iteratorIPSt4pairIdxESt6vectorIS2_SaIS2_EEEmiEl(%"class.__gnu_cxx::__normal_iterator.23"* %4, i64 1) #3
  %15 = getelementptr inbounds %"class.__gnu_cxx::__normal_iterator.23", %"class.__gnu_cxx::__normal_iterator.23"* %8, i32 0, i32 0
  store %"struct.std::pair"* %14, %"struct.std::pair"** %15, align 8
  %16 = call dereferenceable(16) %"struct.std::pair"* @_ZNK9__gnu_cxx17__normal_iteratorIPSt4pairIdxESt6vectorIS2_SaIS2_EEEdeEv(%"class.__gnu_cxx::__normal_iterator.23"* %8) #3
  %17 = call dereferenceable(16) %"struct.std::pair"* @_ZSt4moveIRSt4pairIdxEEONSt16remove_referenceIT_E4typeEOS4_(%"struct.std::pair"* dereferenceable(16) %16) #3
  %18 = bitcast %"struct.std::pair"* %7 to i8*
  %19 = bitcast %"struct.std::pair"* %17 to i8*
  call void @llvm.memcpy.p0i8.p0i8.i64(i8* align 8 %18, i8* align 8 %19, i64 16, i1 false)
  %20 = bitcast %"class.__gnu_cxx::__normal_iterator.23"* %9 to i8*
  %21 = bitcast %"class.__gnu_cxx::__normal_iterator.23"* %3 to i8*
  call void @llvm.memcpy.p0i8.p0i8.i64(i8* align 8 %20, i8* align 8 %21, i64 8, i1 false)
  %22 = call i64 @_ZN9__gnu_cxxmiIPSt4pairIdxESt6vectorIS2_SaIS2_EEEENS_17__normal_iteratorIT_T0_E15difference_typeERKSA_SD_(%"class.__gnu_cxx::__normal_iterator.23"* dereferenceable(8) %4, %"class.__gnu_cxx::__normal_iterator.23"* dereferenceable(8) %3) #3
  %23 = sub nsw i64 %22, 1
  %24 = call dereferenceable(16) %"struct.std::pair"* @_ZSt4moveIRSt4pairIdxEEONSt16remove_referenceIT_E4typeEOS4_(%"struct.std::pair"* dereferenceable(16) %7) #3
  %25 = bitcast %"struct.std::pair"* %10 to i8*
  %26 = bitcast %"struct.std::pair"* %24 to i8*
  call void @llvm.memcpy.p0i8.p0i8.i64(i8* align 8 %25, i8* align 8 %26, i64 16, i1 false)
  %27 = getelementptr inbounds %"class.__gnu_cxx::__normal_iterator.23", %"class.__gnu_cxx::__normal_iterator.23"* %9, i32 0, i32 0
  %28 = load %"struct.std::pair"*, %"struct.std::pair"** %27, align 8
  %29 = bitcast %"struct.std::pair"* %10 to { double, i64 }*
  %30 = getelementptr inbounds { double, i64 }, { double, i64 }* %29, i32 0, i32 0
  %31 = load double, double* %30, align 8
  %32 = getelementptr inbounds { double, i64 }, { double, i64 }* %29, i32 0, i32 1
  %33 = load i64, i64* %32, align 8
  call void @_ZSt11__push_heapIN9__gnu_cxx17__normal_iteratorIPSt4pairIdxESt6vectorIS3_SaIS3_EEEElS3_NS0_5__ops14_Iter_comp_valISt7greaterIS3_EEEEvT_T0_SF_T1_RT2_(%"struct.std::pair"* %28, i64 %23, i64 0, double %31, i64 %33, %"struct.__gnu_cxx::__ops::_Iter_comp_val"* dereferenceable(1) %6)
  ret void
}

; Function Attrs: noinline nounwind uwtable
define linkonce_odr %"struct.std::pair"* @_ZNSt6vectorISt4pairIdxESaIS1_EE5beginEv(%"class.std::vector.5"* %0) #4 comdat align 2 {
  %2 = alloca %"class.__gnu_cxx::__normal_iterator.23", align 8
  %3 = bitcast %"class.std::vector.5"* %0 to %"struct.std::_Vector_base.6"*
  %4 = getelementptr inbounds %"struct.std::_Vector_base.6", %"struct.std::_Vector_base.6"* %3, i32 0, i32 0
  %5 = getelementptr inbounds %"struct.std::_Vector_base<std::pair<double, long long>, std::allocator<std::pair<double, long long> > >::_Vector_impl", %"struct.std::_Vector_base<std::pair<double, long long>, std::allocator<std::pair<double, long long> > >::_Vector_impl"* %4, i32 0, i32 0
  call void @_ZN9__gnu_cxx17__normal_iteratorIPSt4pairIdxESt6vectorIS2_SaIS2_EEEC2ERKS3_(%"class.__gnu_cxx::__normal_iterator.23"* %2, %"struct.std::pair"** dereferenceable(8) %5) #3
  %6 = getelementptr inbounds %"class.__gnu_cxx::__normal_iterator.23", %"class.__gnu_cxx::__normal_iterator.23"* %2, i32 0, i32 0
  %7 = load %"struct.std::pair"*, %"struct.std::pair"** %6, align 8
  ret %"struct.std::pair"* %7
}

; Function Attrs: noinline nounwind uwtable
define linkonce_odr %"struct.std::pair"* @_ZNSt6vectorISt4pairIdxESaIS1_EE3endEv(%"class.std::vector.5"* %0) #4 comdat align 2 {
  %2 = alloca %"class.__gnu_cxx::__normal_iterator.23", align 8
  %3 = bitcast %"class.std::vector.5"* %0 to %"struct.std::_Vector_base.6"*
  %4 = getelementptr inbounds %"struct.std::_Vector_base.6", %"struct.std::_Vector_base.6"* %3, i32 0, i32 0
  %5 = getelementptr inbounds %"struct.std::_Vector_base<std::pair<double, long long>, std::allocator<std::pair<double, long long> > >::_Vector_impl", %"struct.std::_Vector_base<std::pair<double, long long>, std::allocator<std::pair<double, long long> > >::_Vector_impl"* %4, i32 0, i32 1
  call void @_ZN9__gnu_cxx17__normal_iteratorIPSt4pairIdxESt6vectorIS2_SaIS2_EEEC2ERKS3_(%"class.__gnu_cxx::__normal_iterator.23"* %2, %"struct.std::pair"** dereferenceable(8) %5) #3
  %6 = getelementptr inbounds %"class.__gnu_cxx::__normal_iterator.23", %"class.__gnu_cxx::__normal_iterator.23"* %2, i32 0, i32 0
  %7 = load %"struct.std::pair"*, %"struct.std::pair"** %6, align 8
  ret %"struct.std::pair"* %7
}

; Function Attrs: noinline uwtable
define linkonce_odr void @_ZNSt6vectorISt4pairIdxESaIS1_EE12emplace_backIJS1_EEEvDpOT_(%"class.std::vector.5"* %0, %"struct.std::pair"* dereferenceable(16) %1) #0 comdat align 2 {
  %3 = alloca %"class.__gnu_cxx::__normal_iterator.23", align 8
  %4 = bitcast %"class.std::vector.5"* %0 to %"struct.std::_Vector_base.6"*
  %5 = getelementptr inbounds %"struct.std::_Vector_base.6", %"struct.std::_Vector_base.6"* %4, i32 0, i32 0
  %6 = getelementptr inbounds %"struct.std::_Vector_base<std::pair<double, long long>, std::allocator<std::pair<double, long long> > >::_Vector_impl", %"struct.std::_Vector_base<std::pair<double, long long>, std::allocator<std::pair<double, long long> > >::_Vector_impl"* %5, i32 0, i32 1
  %7 = load %"struct.std::pair"*, %"struct.std::pair"** %6, align 8
  %8 = bitcast %"class.std::vector.5"* %0 to %"struct.std::_Vector_base.6"*
  %9 = getelementptr inbounds %"struct.std::_Vector_base.6", %"struct.std::_Vector_base.6"* %8, i32 0, i32 0
  %10 = getelementptr inbounds %"struct.std::_Vector_base<std::pair<double, long long>, std::allocator<std::pair<double, long long> > >::_Vector_impl", %"struct.std::_Vector_base<std::pair<double, long long>, std::allocator<std::pair<double, long long> > >::_Vector_impl"* %9, i32 0, i32 2
  %11 = load %"struct.std::pair"*, %"struct.std::pair"** %10, align 8
  %12 = icmp ne %"struct.std::pair"* %7, %11
  br i1 %12, label %13, label %27

13:                                               ; preds = %2
  %14 = bitcast %"class.std::vector.5"* %0 to %"struct.std::_Vector_base.6"*
  %15 = getelementptr inbounds %"struct.std::_Vector_base.6", %"struct.std::_Vector_base.6"* %14, i32 0, i32 0
  %16 = bitcast %"struct.std::_Vector_base<std::pair<double, long long>, std::allocator<std::pair<double, long long> > >::_Vector_impl"* %15 to %"class.std::allocator.7"*
  %17 = bitcast %"class.std::vector.5"* %0 to %"struct.std::_Vector_base.6"*
  %18 = getelementptr inbounds %"struct.std::_Vector_base.6", %"struct.std::_Vector_base.6"* %17, i32 0, i32 0
  %19 = getelementptr inbounds %"struct.std::_Vector_base<std::pair<double, long long>, std::allocator<std::pair<double, long long> > >::_Vector_impl", %"struct.std::_Vector_base<std::pair<double, long long>, std::allocator<std::pair<double, long long> > >::_Vector_impl"* %18, i32 0, i32 1
  %20 = load %"struct.std::pair"*, %"struct.std::pair"** %19, align 8
  %21 = call dereferenceable(16) %"struct.std::pair"* @_ZSt7forwardISt4pairIdxEEOT_RNSt16remove_referenceIS2_E4typeE(%"struct.std::pair"* dereferenceable(16) %1) #3
  call void @_ZNSt16allocator_traitsISaISt4pairIdxEEE9constructIS1_JS1_EEEvRS2_PT_DpOT0_(%"class.std::allocator.7"* dereferenceable(1) %16, %"struct.std::pair"* %20, %"struct.std::pair"* dereferenceable(16) %21)
  %22 = bitcast %"class.std::vector.5"* %0 to %"struct.std::_Vector_base.6"*
  %23 = getelementptr inbounds %"struct.std::_Vector_base.6", %"struct.std::_Vector_base.6"* %22, i32 0, i32 0
  %24 = getelementptr inbounds %"struct.std::_Vector_base<std::pair<double, long long>, std::allocator<std::pair<double, long long> > >::_Vector_impl", %"struct.std::_Vector_base<std::pair<double, long long>, std::allocator<std::pair<double, long long> > >::_Vector_impl"* %23, i32 0, i32 1
  %25 = load %"struct.std::pair"*, %"struct.std::pair"** %24, align 8
  %26 = getelementptr inbounds %"struct.std::pair", %"struct.std::pair"* %25, i32 1
  store %"struct.std::pair"* %26, %"struct.std::pair"** %24, align 8
  br label %33

27:                                               ; preds = %2
  %28 = call %"struct.std::pair"* @_ZNSt6vectorISt4pairIdxESaIS1_EE3endEv(%"class.std::vector.5"* %0) #3
  %29 = getelementptr inbounds %"class.__gnu_cxx::__normal_iterator.23", %"class.__gnu_cxx::__normal_iterator.23"* %3, i32 0, i32 0
  store %"struct.std::pair"* %28, %"struct.std::pair"** %29, align 8
  %30 = call dereferenceable(16) %"struct.std::pair"* @_ZSt7forwardISt4pairIdxEEOT_RNSt16remove_referenceIS2_E4typeE(%"struct.std::pair"* dereferenceable(16) %1) #3
  %31 = getelementptr inbounds %"class.__gnu_cxx::__normal_iterator.23", %"class.__gnu_cxx::__normal_iterator.23"* %3, i32 0, i32 0
  %32 = load %"struct.std::pair"*, %"struct.std::pair"** %31, align 8
  call void @_ZNSt6vectorISt4pairIdxESaIS1_EE17_M_realloc_insertIJS1_EEEvN9__gnu_cxx17__normal_iteratorIPS1_S3_EEDpOT_(%"class.std::vector.5"* %0, %"struct.std::pair"* %32, %"struct.std::pair"* dereferenceable(16) %30)
  br label %33

33:                                               ; preds = %27, %13
  ret void
}

; Function Attrs: noinline uwtable
define linkonce_odr void @_ZNSt16allocator_traitsISaISt4pairIdxEEE9constructIS1_JS1_EEEvRS2_PT_DpOT0_(%"class.std::allocator.7"* dereferenceable(1) %0, %"struct.std::pair"* %1, %"struct.std::pair"* dereferenceable(16) %2) #0 comdat align 2 {
  %4 = bitcast %"class.std::allocator.7"* %0 to %"class.__gnu_cxx::new_allocator.8"*
  %5 = call dereferenceable(16) %"struct.std::pair"* @_ZSt7forwardISt4pairIdxEEOT_RNSt16remove_referenceIS2_E4typeE(%"struct.std::pair"* dereferenceable(16) %2) #3
  call void @_ZN9__gnu_cxx13new_allocatorISt4pairIdxEE9constructIS2_JS2_EEEvPT_DpOT0_(%"class.__gnu_cxx::new_allocator.8"* %4, %"struct.std::pair"* %1, %"struct.std::pair"* dereferenceable(16) %5)
  ret void
}

; Function Attrs: noinline nounwind uwtable
define linkonce_odr dereferenceable(16) %"struct.std::pair"* @_ZSt7forwardISt4pairIdxEEOT_RNSt16remove_referenceIS2_E4typeE(%"struct.std::pair"* dereferenceable(16) %0) #4 comdat {
  ret %"struct.std::pair"* %0
}

; Function Attrs: noinline uwtable
define linkonce_odr void @_ZNSt6vectorISt4pairIdxESaIS1_EE17_M_realloc_insertIJS1_EEEvN9__gnu_cxx17__normal_iteratorIPS1_S3_EEDpOT_(%"class.std::vector.5"* %0, %"struct.std::pair"* %1, %"struct.std::pair"* dereferenceable(16) %2) #0 comdat align 2 personality i8* bitcast (i32 (...)* @__gxx_personality_v0 to i8*) {
  %4 = alloca %"class.__gnu_cxx::__normal_iterator.23", align 8
  %5 = alloca %"class.__gnu_cxx::__normal_iterator.23", align 8
  %6 = getelementptr inbounds %"class.__gnu_cxx::__normal_iterator.23", %"class.__gnu_cxx::__normal_iterator.23"* %4, i32 0, i32 0
  store %"struct.std::pair"* %1, %"struct.std::pair"** %6, align 8
  %7 = call i64 @_ZNKSt6vectorISt4pairIdxESaIS1_EE12_M_check_lenEmPKc(%"class.std::vector.5"* %0, i64 1, i8* getelementptr inbounds ([26 x i8], [26 x i8]* @.str.3, i32 0, i32 0))
  %8 = bitcast %"class.std::vector.5"* %0 to %"struct.std::_Vector_base.6"*
  %9 = getelementptr inbounds %"struct.std::_Vector_base.6", %"struct.std::_Vector_base.6"* %8, i32 0, i32 0
  %10 = getelementptr inbounds %"struct.std::_Vector_base<std::pair<double, long long>, std::allocator<std::pair<double, long long> > >::_Vector_impl", %"struct.std::_Vector_base<std::pair<double, long long>, std::allocator<std::pair<double, long long> > >::_Vector_impl"* %9, i32 0, i32 0
  %11 = load %"struct.std::pair"*, %"struct.std::pair"** %10, align 8
  %12 = bitcast %"class.std::vector.5"* %0 to %"struct.std::_Vector_base.6"*
  %13 = getelementptr inbounds %"struct.std::_Vector_base.6", %"struct.std::_Vector_base.6"* %12, i32 0, i32 0
  %14 = getelementptr inbounds %"struct.std::_Vector_base<std::pair<double, long long>, std::allocator<std::pair<double, long long> > >::_Vector_impl", %"struct.std::_Vector_base<std::pair<double, long long>, std::allocator<std::pair<double, long long> > >::_Vector_impl"* %13, i32 0, i32 1
  %15 = load %"struct.std::pair"*, %"struct.std::pair"** %14, align 8
  %16 = call %"struct.std::pair"* @_ZNSt6vectorISt4pairIdxESaIS1_EE5beginEv(%"class.std::vector.5"* %0) #3
  %17 = getelementptr inbounds %"class.__gnu_cxx::__normal_iterator.23", %"class.__gnu_cxx::__normal_iterator.23"* %5, i32 0, i32 0
  store %"struct.std::pair"* %16, %"struct.std::pair"** %17, align 8
  %18 = call i64 @_ZN9__gnu_cxxmiIPSt4pairIdxESt6vectorIS2_SaIS2_EEEENS_17__normal_iteratorIT_T0_E15difference_typeERKSA_SD_(%"class.__gnu_cxx::__normal_iterator.23"* dereferenceable(8) %4, %"class.__gnu_cxx::__normal_iterator.23"* dereferenceable(8) %5) #3
  %19 = bitcast %"class.std::vector.5"* %0 to %"struct.std::_Vector_base.6"*
  %20 = call %"struct.std::pair"* @_ZNSt12_Vector_baseISt4pairIdxESaIS1_EE11_M_allocateEm(%"struct.std::_Vector_base.6"* %19, i64 %7)
  %21 = bitcast %"class.std::vector.5"* %0 to %"struct.std::_Vector_base.6"*
  %22 = getelementptr inbounds %"struct.std::_Vector_base.6", %"struct.std::_Vector_base.6"* %21, i32 0, i32 0
  %23 = bitcast %"struct.std::_Vector_base<std::pair<double, long long>, std::allocator<std::pair<double, long long> > >::_Vector_impl"* %22 to %"class.std::allocator.7"*
  %24 = getelementptr inbounds %"struct.std::pair", %"struct.std::pair"* %20, i64 %18
  %25 = call dereferenceable(16) %"struct.std::pair"* @_ZSt7forwardISt4pairIdxEEOT_RNSt16remove_referenceIS2_E4typeE(%"struct.std::pair"* dereferenceable(16) %2) #3
  invoke void @_ZNSt16allocator_traitsISaISt4pairIdxEEE9constructIS1_JS1_EEEvRS2_PT_DpOT0_(%"class.std::allocator.7"* dereferenceable(1) %23, %"struct.std::pair"* %24, %"struct.std::pair"* dereferenceable(16) %25)
          to label %26 unwind label %40

26:                                               ; preds = %3
  %27 = call dereferenceable(8) %"struct.std::pair"** @_ZNK9__gnu_cxx17__normal_iteratorIPSt4pairIdxESt6vectorIS2_SaIS2_EEE4baseEv(%"class.__gnu_cxx::__normal_iterator.23"* %4) #3
  %28 = load %"struct.std::pair"*, %"struct.std::pair"** %27, align 8
  %29 = bitcast %"class.std::vector.5"* %0 to %"struct.std::_Vector_base.6"*
  %30 = call dereferenceable(1) %"class.std::allocator.7"* @_ZNSt12_Vector_baseISt4pairIdxESaIS1_EE19_M_get_Tp_allocatorEv(%"struct.std::_Vector_base.6"* %29) #3
  %31 = invoke %"struct.std::pair"* @_ZSt34__uninitialized_move_if_noexcept_aIPSt4pairIdxES2_SaIS1_EET0_T_S5_S4_RT1_(%"struct.std::pair"* %11, %"struct.std::pair"* %28, %"struct.std::pair"* %20, %"class.std::allocator.7"* dereferenceable(1) %30)
          to label %32 unwind label %40

32:                                               ; preds = %26
  %33 = getelementptr inbounds %"struct.std::pair", %"struct.std::pair"* %31, i32 1
  %34 = call dereferenceable(8) %"struct.std::pair"** @_ZNK9__gnu_cxx17__normal_iteratorIPSt4pairIdxESt6vectorIS2_SaIS2_EEE4baseEv(%"class.__gnu_cxx::__normal_iterator.23"* %4) #3
  %35 = load %"struct.std::pair"*, %"struct.std::pair"** %34, align 8
  %36 = bitcast %"class.std::vector.5"* %0 to %"struct.std::_Vector_base.6"*
  %37 = call dereferenceable(1) %"class.std::allocator.7"* @_ZNSt12_Vector_baseISt4pairIdxESaIS1_EE19_M_get_Tp_allocatorEv(%"struct.std::_Vector_base.6"* %36) #3
  %38 = invoke %"struct.std::pair"* @_ZSt34__uninitialized_move_if_noexcept_aIPSt4pairIdxES2_SaIS1_EET0_T_S5_S4_RT1_(%"struct.std::pair"* %35, %"struct.std::pair"* %15, %"struct.std::pair"* %33, %"class.std::allocator.7"* dereferenceable(1) %37)
          to label %39 unwind label %40

39:                                               ; preds = %32
  br label %65

40:                                               ; preds = %32, %26, %3
  %.0 = phi %"struct.std::pair"* [ %33, %32 ], [ null, %26 ], [ %20, %3 ]
  %41 = landingpad { i8*, i32 }
          catch i8* null
  %42 = extractvalue { i8*, i32 } %41, 0
  %43 = extractvalue { i8*, i32 } %41, 1
  br label %44

44:                                               ; preds = %40
  %45 = call i8* @__cxa_begin_catch(i8* %42) #3
  %46 = icmp ne %"struct.std::pair"* %.0, null
  br i1 %46, label %57, label %47

47:                                               ; preds = %44
  %48 = bitcast %"class.std::vector.5"* %0 to %"struct.std::_Vector_base.6"*
  %49 = getelementptr inbounds %"struct.std::_Vector_base.6", %"struct.std::_Vector_base.6"* %48, i32 0, i32 0
  %50 = bitcast %"struct.std::_Vector_base<std::pair<double, long long>, std::allocator<std::pair<double, long long> > >::_Vector_impl"* %49 to %"class.std::allocator.7"*
  %51 = getelementptr inbounds %"struct.std::pair", %"struct.std::pair"* %20, i64 %18
  invoke void @_ZNSt16allocator_traitsISaISt4pairIdxEEE7destroyIS1_EEvRS2_PT_(%"class.std::allocator.7"* dereferenceable(1) %50, %"struct.std::pair"* %51)
          to label %52 unwind label %53

52:                                               ; preds = %47
  br label %61

53:                                               ; preds = %63, %61, %57, %47
  %54 = landingpad { i8*, i32 }
          cleanup
  %55 = extractvalue { i8*, i32 } %54, 0
  %56 = extractvalue { i8*, i32 } %54, 1
  invoke void @__cxa_end_catch()
          to label %64 unwind label %90

57:                                               ; preds = %44
  %58 = bitcast %"class.std::vector.5"* %0 to %"struct.std::_Vector_base.6"*
  %59 = call dereferenceable(1) %"class.std::allocator.7"* @_ZNSt12_Vector_baseISt4pairIdxESaIS1_EE19_M_get_Tp_allocatorEv(%"struct.std::_Vector_base.6"* %58) #3
  invoke void @_ZSt8_DestroyIPSt4pairIdxES1_EvT_S3_RSaIT0_E(%"struct.std::pair"* %20, %"struct.std::pair"* %.0, %"class.std::allocator.7"* dereferenceable(1) %59)
          to label %60 unwind label %53

60:                                               ; preds = %57
  br label %61

61:                                               ; preds = %60, %52
  %62 = bitcast %"class.std::vector.5"* %0 to %"struct.std::_Vector_base.6"*
  invoke void @_ZNSt12_Vector_baseISt4pairIdxESaIS1_EE13_M_deallocateEPS1_m(%"struct.std::_Vector_base.6"* %62, %"struct.std::pair"* %20, i64 %7)
          to label %63 unwind label %53

63:                                               ; preds = %61
  invoke void @__cxa_rethrow() #15
          to label %93 unwind label %53

64:                                               ; preds = %53
  br label %87

65:                                               ; preds = %39
  %66 = bitcast %"class.std::vector.5"* %0 to %"struct.std::_Vector_base.6"*
  %67 = call dereferenceable(1) %"class.std::allocator.7"* @_ZNSt12_Vector_baseISt4pairIdxESaIS1_EE19_M_get_Tp_allocatorEv(%"struct.std::_Vector_base.6"* %66) #3
  call void @_ZSt8_DestroyIPSt4pairIdxES1_EvT_S3_RSaIT0_E(%"struct.std::pair"* %11, %"struct.std::pair"* %15, %"class.std::allocator.7"* dereferenceable(1) %67)
  %68 = bitcast %"class.std::vector.5"* %0 to %"struct.std::_Vector_base.6"*
  %69 = bitcast %"class.std::vector.5"* %0 to %"struct.std::_Vector_base.6"*
  %70 = getelementptr inbounds %"struct.std::_Vector_base.6", %"struct.std::_Vector_base.6"* %69, i32 0, i32 0
  %71 = getelementptr inbounds %"struct.std::_Vector_base<std::pair<double, long long>, std::allocator<std::pair<double, long long> > >::_Vector_impl", %"struct.std::_Vector_base<std::pair<double, long long>, std::allocator<std::pair<double, long long> > >::_Vector_impl"* %70, i32 0, i32 2
  %72 = load %"struct.std::pair"*, %"struct.std::pair"** %71, align 8
  %73 = ptrtoint %"struct.std::pair"* %72 to i64
  %74 = ptrtoint %"struct.std::pair"* %11 to i64
  %75 = sub i64 %73, %74
  %76 = sdiv exact i64 %75, 16
  call void @_ZNSt12_Vector_baseISt4pairIdxESaIS1_EE13_M_deallocateEPS1_m(%"struct.std::_Vector_base.6"* %68, %"struct.std::pair"* %11, i64 %76)
  %77 = bitcast %"class.std::vector.5"* %0 to %"struct.std::_Vector_base.6"*
  %78 = getelementptr inbounds %"struct.std::_Vector_base.6", %"struct.std::_Vector_base.6"* %77, i32 0, i32 0
  %79 = getelementptr inbounds %"struct.std::_Vector_base<std::pair<double, long long>, std::allocator<std::pair<double, long long> > >::_Vector_impl", %"struct.std::_Vector_base<std::pair<double, long long>, std::allocator<std::pair<double, long long> > >::_Vector_impl"* %78, i32 0, i32 0
  store %"struct.std::pair"* %20, %"struct.std::pair"** %79, align 8
  %80 = bitcast %"class.std::vector.5"* %0 to %"struct.std::_Vector_base.6"*
  %81 = getelementptr inbounds %"struct.std::_Vector_base.6", %"struct.std::_Vector_base.6"* %80, i32 0, i32 0
  %82 = getelementptr inbounds %"struct.std::_Vector_base<std::pair<double, long long>, std::allocator<std::pair<double, long long> > >::_Vector_impl", %"struct.std::_Vector_base<std::pair<double, long long>, std::allocator<std::pair<double, long long> > >::_Vector_impl"* %81, i32 0, i32 1
  store %"struct.std::pair"* %38, %"struct.std::pair"** %82, align 8
  %83 = getelementptr inbounds %"struct.std::pair", %"struct.std::pair"* %20, i64 %7
  %84 = bitcast %"class.std::vector.5"* %0 to %"struct.std::_Vector_base.6"*
  %85 = getelementptr inbounds %"struct.std::_Vector_base.6", %"struct.std::_Vector_base.6"* %84, i32 0, i32 0
  %86 = getelementptr inbounds %"struct.std::_Vector_base<std::pair<double, long long>, std::allocator<std::pair<double, long long> > >::_Vector_impl", %"struct.std::_Vector_base<std::pair<double, long long>, std::allocator<std::pair<double, long long> > >::_Vector_impl"* %85, i32 0, i32 2
  store %"struct.std::pair"* %83, %"struct.std::pair"** %86, align 8
  ret void

87:                                               ; preds = %64
  %88 = insertvalue { i8*, i32 } undef, i8* %55, 0
  %89 = insertvalue { i8*, i32 } %88, i32 %56, 1
  resume { i8*, i32 } %89

90:                                               ; preds = %53
  %91 = landingpad { i8*, i32 }
          catch i8* null
  %92 = extractvalue { i8*, i32 } %91, 0
  call void @__clang_call_terminate(i8* %92) #14
  unreachable

93:                                               ; preds = %63
  unreachable
}

; Function Attrs: noinline nounwind uwtable
define linkonce_odr void @_ZN9__gnu_cxx13new_allocatorISt4pairIdxEE9constructIS2_JS2_EEEvPT_DpOT0_(%"class.__gnu_cxx::new_allocator.8"* %0, %"struct.std::pair"* %1, %"struct.std::pair"* dereferenceable(16) %2) #4 comdat align 2 {
  %4 = bitcast %"struct.std::pair"* %1 to i8*
  %5 = bitcast i8* %4 to %"struct.std::pair"*
  %6 = call dereferenceable(16) %"struct.std::pair"* @_ZSt7forwardISt4pairIdxEEOT_RNSt16remove_referenceIS2_E4typeE(%"struct.std::pair"* dereferenceable(16) %2) #3
  %7 = bitcast %"struct.std::pair"* %5 to i8*
  %8 = bitcast %"struct.std::pair"* %6 to i8*
  call void @llvm.memcpy.p0i8.p0i8.i64(i8* align 8 %7, i8* align 8 %8, i64 16, i1 false)
  ret void
}

; Function Attrs: noinline uwtable
define linkonce_odr i64 @_ZNKSt6vectorISt4pairIdxESaIS1_EE12_M_check_lenEmPKc(%"class.std::vector.5"* %0, i64 %1, i8* %2) #0 comdat align 2 {
  %4 = alloca i64, align 8
  %5 = alloca i64, align 8
  store i64 %1, i64* %4, align 8
  %6 = call i64 @_ZNKSt6vectorISt4pairIdxESaIS1_EE8max_sizeEv(%"class.std::vector.5"* %0) #3
  %7 = call i64 @_ZNKSt6vectorISt4pairIdxESaIS1_EE4sizeEv(%"class.std::vector.5"* %0) #3
  %8 = sub i64 %6, %7
  %9 = load i64, i64* %4, align 8
  %10 = icmp ult i64 %8, %9
  br i1 %10, label %11, label %12

11:                                               ; preds = %3
  call void @_ZSt20__throw_length_errorPKc(i8* %2) #15
  unreachable

12:                                               ; preds = %3
  %13 = call i64 @_ZNKSt6vectorISt4pairIdxESaIS1_EE4sizeEv(%"class.std::vector.5"* %0) #3
  %14 = call i64 @_ZNKSt6vectorISt4pairIdxESaIS1_EE4sizeEv(%"class.std::vector.5"* %0) #3
  store i64 %14, i64* %5, align 8
  %15 = call dereferenceable(8) i64* @_ZSt3maxImERKT_S2_S2_(i64* dereferenceable(8) %5, i64* dereferenceable(8) %4)
  %16 = load i64, i64* %15, align 8
  %17 = add i64 %13, %16
  %18 = call i64 @_ZNKSt6vectorISt4pairIdxESaIS1_EE4sizeEv(%"class.std::vector.5"* %0) #3
  %19 = icmp ult i64 %17, %18
  br i1 %19, label %23, label %20

20:                                               ; preds = %12
  %21 = call i64 @_ZNKSt6vectorISt4pairIdxESaIS1_EE8max_sizeEv(%"class.std::vector.5"* %0) #3
  %22 = icmp ugt i64 %17, %21
  br i1 %22, label %23, label %25

23:                                               ; preds = %20, %12
  %24 = call i64 @_ZNKSt6vectorISt4pairIdxESaIS1_EE8max_sizeEv(%"class.std::vector.5"* %0) #3
  br label %26

25:                                               ; preds = %20
  br label %26

26:                                               ; preds = %25, %23
  %27 = phi i64 [ %24, %23 ], [ %17, %25 ]
  ret i64 %27
}

; Function Attrs: noinline nounwind uwtable
define linkonce_odr i64 @_ZN9__gnu_cxxmiIPSt4pairIdxESt6vectorIS2_SaIS2_EEEENS_17__normal_iteratorIT_T0_E15difference_typeERKSA_SD_(%"class.__gnu_cxx::__normal_iterator.23"* dereferenceable(8) %0, %"class.__gnu_cxx::__normal_iterator.23"* dereferenceable(8) %1) #4 comdat {
  %3 = call dereferenceable(8) %"struct.std::pair"** @_ZNK9__gnu_cxx17__normal_iteratorIPSt4pairIdxESt6vectorIS2_SaIS2_EEE4baseEv(%"class.__gnu_cxx::__normal_iterator.23"* %0) #3
  %4 = load %"struct.std::pair"*, %"struct.std::pair"** %3, align 8
  %5 = call dereferenceable(8) %"struct.std::pair"** @_ZNK9__gnu_cxx17__normal_iteratorIPSt4pairIdxESt6vectorIS2_SaIS2_EEE4baseEv(%"class.__gnu_cxx::__normal_iterator.23"* %1) #3
  %6 = load %"struct.std::pair"*, %"struct.std::pair"** %5, align 8
  %7 = ptrtoint %"struct.std::pair"* %4 to i64
  %8 = ptrtoint %"struct.std::pair"* %6 to i64
  %9 = sub i64 %7, %8
  %10 = sdiv exact i64 %9, 16
  ret i64 %10
}

; Function Attrs: noinline uwtable
define linkonce_odr %"struct.std::pair"* @_ZNSt12_Vector_baseISt4pairIdxESaIS1_EE11_M_allocateEm(%"struct.std::_Vector_base.6"* %0, i64 %1) #0 comdat align 2 {
  %3 = icmp ne i64 %1, 0
  br i1 %3, label %4, label %8

4:                                                ; preds = %2
  %5 = getelementptr inbounds %"struct.std::_Vector_base.6", %"struct.std::_Vector_base.6"* %0, i32 0, i32 0
  %6 = bitcast %"struct.std::_Vector_base<std::pair<double, long long>, std::allocator<std::pair<double, long long> > >::_Vector_impl"* %5 to %"class.std::allocator.7"*
  %7 = call %"struct.std::pair"* @_ZNSt16allocator_traitsISaISt4pairIdxEEE8allocateERS2_m(%"class.std::allocator.7"* dereferenceable(1) %6, i64 %1)
  br label %9

8:                                                ; preds = %2
  br label %9

9:                                                ; preds = %8, %4
  %10 = phi %"struct.std::pair"* [ %7, %4 ], [ null, %8 ]
  ret %"struct.std::pair"* %10
}

; Function Attrs: noinline uwtable
define linkonce_odr %"struct.std::pair"* @_ZSt34__uninitialized_move_if_noexcept_aIPSt4pairIdxES2_SaIS1_EET0_T_S5_S4_RT1_(%"struct.std::pair"* %0, %"struct.std::pair"* %1, %"struct.std::pair"* %2, %"class.std::allocator.7"* dereferenceable(1) %3) #0 comdat {
  %5 = alloca %"class.std::move_iterator.24", align 8
  %6 = alloca %"class.std::move_iterator.24", align 8
  %7 = call %"struct.std::pair"* @_ZSt32__make_move_if_noexcept_iteratorISt4pairIdxESt13move_iteratorIPS1_EET0_PT_(%"struct.std::pair"* %0)
  %8 = getelementptr inbounds %"class.std::move_iterator.24", %"class.std::move_iterator.24"* %5, i32 0, i32 0
  store %"struct.std::pair"* %7, %"struct.std::pair"** %8, align 8
  %9 = call %"struct.std::pair"* @_ZSt32__make_move_if_noexcept_iteratorISt4pairIdxESt13move_iteratorIPS1_EET0_PT_(%"struct.std::pair"* %1)
  %10 = getelementptr inbounds %"class.std::move_iterator.24", %"class.std::move_iterator.24"* %6, i32 0, i32 0
  store %"struct.std::pair"* %9, %"struct.std::pair"** %10, align 8
  %11 = getelementptr inbounds %"class.std::move_iterator.24", %"class.std::move_iterator.24"* %5, i32 0, i32 0
  %12 = load %"struct.std::pair"*, %"struct.std::pair"** %11, align 8
  %13 = getelementptr inbounds %"class.std::move_iterator.24", %"class.std::move_iterator.24"* %6, i32 0, i32 0
  %14 = load %"struct.std::pair"*, %"struct.std::pair"** %13, align 8
  %15 = call %"struct.std::pair"* @_ZSt22__uninitialized_copy_aISt13move_iteratorIPSt4pairIdxEES3_S2_ET0_T_S6_S5_RSaIT1_E(%"struct.std::pair"* %12, %"struct.std::pair"* %14, %"struct.std::pair"* %2, %"class.std::allocator.7"* dereferenceable(1) %3)
  ret %"struct.std::pair"* %15
}

; Function Attrs: noinline nounwind uwtable
define linkonce_odr dereferenceable(8) %"struct.std::pair"** @_ZNK9__gnu_cxx17__normal_iteratorIPSt4pairIdxESt6vectorIS2_SaIS2_EEE4baseEv(%"class.__gnu_cxx::__normal_iterator.23"* %0) #4 comdat align 2 {
  %2 = getelementptr inbounds %"class.__gnu_cxx::__normal_iterator.23", %"class.__gnu_cxx::__normal_iterator.23"* %0, i32 0, i32 0
  ret %"struct.std::pair"** %2
}

; Function Attrs: noinline uwtable
define linkonce_odr void @_ZNSt16allocator_traitsISaISt4pairIdxEEE7destroyIS1_EEvRS2_PT_(%"class.std::allocator.7"* dereferenceable(1) %0, %"struct.std::pair"* %1) #0 comdat align 2 {
  %3 = bitcast %"class.std::allocator.7"* %0 to %"class.__gnu_cxx::new_allocator.8"*
  call void @_ZN9__gnu_cxx13new_allocatorISt4pairIdxEE7destroyIS2_EEvPT_(%"class.__gnu_cxx::new_allocator.8"* %3, %"struct.std::pair"* %1)
  ret void
}

; Function Attrs: noinline nounwind uwtable
define linkonce_odr i64 @_ZNKSt6vectorISt4pairIdxESaIS1_EE8max_sizeEv(%"class.std::vector.5"* %0) #4 comdat align 2 {
  %2 = bitcast %"class.std::vector.5"* %0 to %"struct.std::_Vector_base.6"*
  %3 = call dereferenceable(1) %"class.std::allocator.7"* @_ZNKSt12_Vector_baseISt4pairIdxESaIS1_EE19_M_get_Tp_allocatorEv(%"struct.std::_Vector_base.6"* %2) #3
  %4 = call i64 @_ZNSt16allocator_traitsISaISt4pairIdxEEE8max_sizeERKS2_(%"class.std::allocator.7"* dereferenceable(1) %3) #3
  ret i64 %4
}

; Function Attrs: noinline nounwind uwtable
define linkonce_odr i64 @_ZNKSt6vectorISt4pairIdxESaIS1_EE4sizeEv(%"class.std::vector.5"* %0) #4 comdat align 2 {
  %2 = bitcast %"class.std::vector.5"* %0 to %"struct.std::_Vector_base.6"*
  %3 = getelementptr inbounds %"struct.std::_Vector_base.6", %"struct.std::_Vector_base.6"* %2, i32 0, i32 0
  %4 = getelementptr inbounds %"struct.std::_Vector_base<std::pair<double, long long>, std::allocator<std::pair<double, long long> > >::_Vector_impl", %"struct.std::_Vector_base<std::pair<double, long long>, std::allocator<std::pair<double, long long> > >::_Vector_impl"* %3, i32 0, i32 1
  %5 = load %"struct.std::pair"*, %"struct.std::pair"** %4, align 8
  %6 = bitcast %"class.std::vector.5"* %0 to %"struct.std::_Vector_base.6"*
  %7 = getelementptr inbounds %"struct.std::_Vector_base.6", %"struct.std::_Vector_base.6"* %6, i32 0, i32 0
  %8 = getelementptr inbounds %"struct.std::_Vector_base<std::pair<double, long long>, std::allocator<std::pair<double, long long> > >::_Vector_impl", %"struct.std::_Vector_base<std::pair<double, long long>, std::allocator<std::pair<double, long long> > >::_Vector_impl"* %7, i32 0, i32 0
  %9 = load %"struct.std::pair"*, %"struct.std::pair"** %8, align 8
  %10 = ptrtoint %"struct.std::pair"* %5 to i64
  %11 = ptrtoint %"struct.std::pair"* %9 to i64
  %12 = sub i64 %10, %11
  %13 = sdiv exact i64 %12, 16
  ret i64 %13
}

; Function Attrs: noinline nounwind uwtable
define linkonce_odr i64 @_ZNSt16allocator_traitsISaISt4pairIdxEEE8max_sizeERKS2_(%"class.std::allocator.7"* dereferenceable(1) %0) #4 comdat align 2 {
  %2 = bitcast %"class.std::allocator.7"* %0 to %"class.__gnu_cxx::new_allocator.8"*
  %3 = call i64 @_ZNK9__gnu_cxx13new_allocatorISt4pairIdxEE8max_sizeEv(%"class.__gnu_cxx::new_allocator.8"* %2) #3
  ret i64 %3
}

; Function Attrs: noinline nounwind uwtable
define linkonce_odr dereferenceable(1) %"class.std::allocator.7"* @_ZNKSt12_Vector_baseISt4pairIdxESaIS1_EE19_M_get_Tp_allocatorEv(%"struct.std::_Vector_base.6"* %0) #4 comdat align 2 {
  %2 = getelementptr inbounds %"struct.std::_Vector_base.6", %"struct.std::_Vector_base.6"* %0, i32 0, i32 0
  %3 = bitcast %"struct.std::_Vector_base<std::pair<double, long long>, std::allocator<std::pair<double, long long> > >::_Vector_impl"* %2 to %"class.std::allocator.7"*
  ret %"class.std::allocator.7"* %3
}

; Function Attrs: noinline nounwind uwtable
define linkonce_odr i64 @_ZNK9__gnu_cxx13new_allocatorISt4pairIdxEE8max_sizeEv(%"class.__gnu_cxx::new_allocator.8"* %0) #4 comdat align 2 {
  ret i64 1152921504606846975
}

; Function Attrs: noinline uwtable
define linkonce_odr %"struct.std::pair"* @_ZNSt16allocator_traitsISaISt4pairIdxEEE8allocateERS2_m(%"class.std::allocator.7"* dereferenceable(1) %0, i64 %1) #0 comdat align 2 {
  %3 = bitcast %"class.std::allocator.7"* %0 to %"class.__gnu_cxx::new_allocator.8"*
  %4 = call %"struct.std::pair"* @_ZN9__gnu_cxx13new_allocatorISt4pairIdxEE8allocateEmPKv(%"class.__gnu_cxx::new_allocator.8"* %3, i64 %1, i8* null)
  ret %"struct.std::pair"* %4
}

; Function Attrs: noinline uwtable
define linkonce_odr %"struct.std::pair"* @_ZN9__gnu_cxx13new_allocatorISt4pairIdxEE8allocateEmPKv(%"class.__gnu_cxx::new_allocator.8"* %0, i64 %1, i8* %2) #0 comdat align 2 {
  %4 = call i64 @_ZNK9__gnu_cxx13new_allocatorISt4pairIdxEE8max_sizeEv(%"class.__gnu_cxx::new_allocator.8"* %0) #3
  %5 = icmp ugt i64 %1, %4
  br i1 %5, label %6, label %7

6:                                                ; preds = %3
  call void @_ZSt17__throw_bad_allocv() #15
  unreachable

7:                                                ; preds = %3
  %8 = mul i64 %1, 16
  %9 = call i8* @_Znwm(i64 %8)
  %10 = bitcast i8* %9 to %"struct.std::pair"*
  ret %"struct.std::pair"* %10
}

; Function Attrs: noinline uwtable
define linkonce_odr %"struct.std::pair"* @_ZSt22__uninitialized_copy_aISt13move_iteratorIPSt4pairIdxEES3_S2_ET0_T_S6_S5_RSaIT1_E(%"struct.std::pair"* %0, %"struct.std::pair"* %1, %"struct.std::pair"* %2, %"class.std::allocator.7"* dereferenceable(1) %3) #0 comdat {
  %5 = alloca %"class.std::move_iterator.24", align 8
  %6 = alloca %"class.std::move_iterator.24", align 8
  %7 = alloca %"class.std::move_iterator.24", align 8
  %8 = alloca %"class.std::move_iterator.24", align 8
  %9 = getelementptr inbounds %"class.std::move_iterator.24", %"class.std::move_iterator.24"* %5, i32 0, i32 0
  store %"struct.std::pair"* %0, %"struct.std::pair"** %9, align 8
  %10 = getelementptr inbounds %"class.std::move_iterator.24", %"class.std::move_iterator.24"* %6, i32 0, i32 0
  store %"struct.std::pair"* %1, %"struct.std::pair"** %10, align 8
  %11 = bitcast %"class.std::move_iterator.24"* %7 to i8*
  %12 = bitcast %"class.std::move_iterator.24"* %5 to i8*
  call void @llvm.memcpy.p0i8.p0i8.i64(i8* align 8 %11, i8* align 8 %12, i64 8, i1 false)
  %13 = bitcast %"class.std::move_iterator.24"* %8 to i8*
  %14 = bitcast %"class.std::move_iterator.24"* %6 to i8*
  call void @llvm.memcpy.p0i8.p0i8.i64(i8* align 8 %13, i8* align 8 %14, i64 8, i1 false)
  %15 = getelementptr inbounds %"class.std::move_iterator.24", %"class.std::move_iterator.24"* %7, i32 0, i32 0
  %16 = load %"struct.std::pair"*, %"struct.std::pair"** %15, align 8
  %17 = getelementptr inbounds %"class.std::move_iterator.24", %"class.std::move_iterator.24"* %8, i32 0, i32 0
  %18 = load %"struct.std::pair"*, %"struct.std::pair"** %17, align 8
  %19 = call %"struct.std::pair"* @_ZSt18uninitialized_copyISt13move_iteratorIPSt4pairIdxEES3_ET0_T_S6_S5_(%"struct.std::pair"* %16, %"struct.std::pair"* %18, %"struct.std::pair"* %2)
  ret %"struct.std::pair"* %19
}

; Function Attrs: noinline uwtable
define linkonce_odr %"struct.std::pair"* @_ZSt32__make_move_if_noexcept_iteratorISt4pairIdxESt13move_iteratorIPS1_EET0_PT_(%"struct.std::pair"* %0) #0 comdat {
  %2 = alloca %"class.std::move_iterator.24", align 8
  call void @_ZNSt13move_iteratorIPSt4pairIdxEEC2ES2_(%"class.std::move_iterator.24"* %2, %"struct.std::pair"* %0)
  %3 = getelementptr inbounds %"class.std::move_iterator.24", %"class.std::move_iterator.24"* %2, i32 0, i32 0
  %4 = load %"struct.std::pair"*, %"struct.std::pair"** %3, align 8
  ret %"struct.std::pair"* %4
}

; Function Attrs: noinline uwtable
define linkonce_odr %"struct.std::pair"* @_ZSt18uninitialized_copyISt13move_iteratorIPSt4pairIdxEES3_ET0_T_S6_S5_(%"struct.std::pair"* %0, %"struct.std::pair"* %1, %"struct.std::pair"* %2) #0 comdat {
  %4 = alloca %"class.std::move_iterator.24", align 8
  %5 = alloca %"class.std::move_iterator.24", align 8
  %6 = alloca %"class.std::move_iterator.24", align 8
  %7 = alloca %"class.std::move_iterator.24", align 8
  %8 = getelementptr inbounds %"class.std::move_iterator.24", %"class.std::move_iterator.24"* %4, i32 0, i32 0
  store %"struct.std::pair"* %0, %"struct.std::pair"** %8, align 8
  %9 = getelementptr inbounds %"class.std::move_iterator.24", %"class.std::move_iterator.24"* %5, i32 0, i32 0
  store %"struct.std::pair"* %1, %"struct.std::pair"** %9, align 8
  %10 = bitcast %"class.std::move_iterator.24"* %6 to i8*
  %11 = bitcast %"class.std::move_iterator.24"* %4 to i8*
  call void @llvm.memcpy.p0i8.p0i8.i64(i8* align 8 %10, i8* align 8 %11, i64 8, i1 false)
  %12 = bitcast %"class.std::move_iterator.24"* %7 to i8*
  %13 = bitcast %"class.std::move_iterator.24"* %5 to i8*
  call void @llvm.memcpy.p0i8.p0i8.i64(i8* align 8 %12, i8* align 8 %13, i64 8, i1 false)
  %14 = getelementptr inbounds %"class.std::move_iterator.24", %"class.std::move_iterator.24"* %6, i32 0, i32 0
  %15 = load %"struct.std::pair"*, %"struct.std::pair"** %14, align 8
  %16 = getelementptr inbounds %"class.std::move_iterator.24", %"class.std::move_iterator.24"* %7, i32 0, i32 0
  %17 = load %"struct.std::pair"*, %"struct.std::pair"** %16, align 8
  %18 = call %"struct.std::pair"* @_ZNSt20__uninitialized_copyILb0EE13__uninit_copyISt13move_iteratorIPSt4pairIdxEES5_EET0_T_S8_S7_(%"struct.std::pair"* %15, %"struct.std::pair"* %17, %"struct.std::pair"* %2)
  ret %"struct.std::pair"* %18
}

; Function Attrs: noinline uwtable
define linkonce_odr %"struct.std::pair"* @_ZNSt20__uninitialized_copyILb0EE13__uninit_copyISt13move_iteratorIPSt4pairIdxEES5_EET0_T_S8_S7_(%"struct.std::pair"* %0, %"struct.std::pair"* %1, %"struct.std::pair"* %2) #0 comdat align 2 personality i8* bitcast (i32 (...)* @__gxx_personality_v0 to i8*) {
  %4 = alloca %"class.std::move_iterator.24", align 8
  %5 = alloca %"class.std::move_iterator.24", align 8
  %6 = getelementptr inbounds %"class.std::move_iterator.24", %"class.std::move_iterator.24"* %4, i32 0, i32 0
  store %"struct.std::pair"* %0, %"struct.std::pair"** %6, align 8
  %7 = getelementptr inbounds %"class.std::move_iterator.24", %"class.std::move_iterator.24"* %5, i32 0, i32 0
  store %"struct.std::pair"* %1, %"struct.std::pair"** %7, align 8
  br label %8

8:                                                ; preds = %18, %3
  %.0 = phi %"struct.std::pair"* [ %2, %3 ], [ %19, %18 ]
  %9 = invoke zeroext i1 @_ZStneIPSt4pairIdxEEbRKSt13move_iteratorIT_ES7_(%"class.std::move_iterator.24"* dereferenceable(8) %4, %"class.std::move_iterator.24"* dereferenceable(8) %5)
          to label %10 unwind label %20

10:                                               ; preds = %8
  br i1 %9, label %11, label %27

11:                                               ; preds = %10
  %12 = call %"struct.std::pair"* @_ZSt11__addressofISt4pairIdxEEPT_RS2_(%"struct.std::pair"* dereferenceable(16) %.0) #3
  %13 = invoke dereferenceable(16) %"struct.std::pair"* @_ZNKSt13move_iteratorIPSt4pairIdxEEdeEv(%"class.std::move_iterator.24"* %4)
          to label %14 unwind label %20

14:                                               ; preds = %11
  invoke void @_ZSt10_ConstructISt4pairIdxEJS1_EEvPT_DpOT0_(%"struct.std::pair"* %12, %"struct.std::pair"* dereferenceable(16) %13)
          to label %15 unwind label %20

15:                                               ; preds = %14
  br label %16

16:                                               ; preds = %15
  %17 = invoke dereferenceable(8) %"class.std::move_iterator.24"* @_ZNSt13move_iteratorIPSt4pairIdxEEppEv(%"class.std::move_iterator.24"* %4)
          to label %18 unwind label %20

18:                                               ; preds = %16
  %19 = getelementptr inbounds %"struct.std::pair", %"struct.std::pair"* %.0, i32 1
  br label %8

20:                                               ; preds = %16, %14, %11, %8
  %21 = landingpad { i8*, i32 }
          catch i8* null
  %22 = extractvalue { i8*, i32 } %21, 0
  %23 = extractvalue { i8*, i32 } %21, 1
  br label %24

24:                                               ; preds = %20
  %25 = call i8* @__cxa_begin_catch(i8* %22) #3
  invoke void @_ZSt8_DestroyIPSt4pairIdxEEvT_S3_(%"struct.std::pair"* %2, %"struct.std::pair"* %.0)
          to label %26 unwind label %28

26:                                               ; preds = %24
  invoke void @__cxa_rethrow() #15
          to label %40 unwind label %28

27:                                               ; preds = %10
  ret %"struct.std::pair"* %.0

28:                                               ; preds = %26, %24
  %29 = landingpad { i8*, i32 }
          cleanup
  %30 = extractvalue { i8*, i32 } %29, 0
  %31 = extractvalue { i8*, i32 } %29, 1
  invoke void @__cxa_end_catch()
          to label %32 unwind label %37

32:                                               ; preds = %28
  br label %34

33:                                               ; No predecessors!
  call void @llvm.trap()
  unreachable

34:                                               ; preds = %32
  %35 = insertvalue { i8*, i32 } undef, i8* %30, 0
  %36 = insertvalue { i8*, i32 } %35, i32 %31, 1
  resume { i8*, i32 } %36

37:                                               ; preds = %28
  %38 = landingpad { i8*, i32 }
          catch i8* null
  %39 = extractvalue { i8*, i32 } %38, 0
  call void @__clang_call_terminate(i8* %39) #14
  unreachable

40:                                               ; preds = %26
  unreachable
}

; Function Attrs: noinline uwtable
define linkonce_odr zeroext i1 @_ZStneIPSt4pairIdxEEbRKSt13move_iteratorIT_ES7_(%"class.std::move_iterator.24"* dereferenceable(8) %0, %"class.std::move_iterator.24"* dereferenceable(8) %1) #0 comdat {
  %3 = call zeroext i1 @_ZSteqIPSt4pairIdxEEbRKSt13move_iteratorIT_ES7_(%"class.std::move_iterator.24"* dereferenceable(8) %0, %"class.std::move_iterator.24"* dereferenceable(8) %1)
  %4 = xor i1 %3, true
  ret i1 %4
}

; Function Attrs: noinline nounwind uwtable
define linkonce_odr void @_ZSt10_ConstructISt4pairIdxEJS1_EEvPT_DpOT0_(%"struct.std::pair"* %0, %"struct.std::pair"* dereferenceable(16) %1) #4 comdat {
  %3 = bitcast %"struct.std::pair"* %0 to i8*
  %4 = bitcast i8* %3 to %"struct.std::pair"*
  %5 = call dereferenceable(16) %"struct.std::pair"* @_ZSt7forwardISt4pairIdxEEOT_RNSt16remove_referenceIS2_E4typeE(%"struct.std::pair"* dereferenceable(16) %1) #3
  %6 = bitcast %"struct.std::pair"* %4 to i8*
  %7 = bitcast %"struct.std::pair"* %5 to i8*
  call void @llvm.memcpy.p0i8.p0i8.i64(i8* align 8 %6, i8* align 8 %7, i64 16, i1 false)
  ret void
}

; Function Attrs: noinline nounwind uwtable
define linkonce_odr %"struct.std::pair"* @_ZSt11__addressofISt4pairIdxEEPT_RS2_(%"struct.std::pair"* dereferenceable(16) %0) #4 comdat {
  ret %"struct.std::pair"* %0
}

; Function Attrs: noinline nounwind uwtable
define linkonce_odr dereferenceable(16) %"struct.std::pair"* @_ZNKSt13move_iteratorIPSt4pairIdxEEdeEv(%"class.std::move_iterator.24"* %0) #4 comdat align 2 {
  %2 = getelementptr inbounds %"class.std::move_iterator.24", %"class.std::move_iterator.24"* %0, i32 0, i32 0
  %3 = load %"struct.std::pair"*, %"struct.std::pair"** %2, align 8
  ret %"struct.std::pair"* %3
}

; Function Attrs: noinline nounwind uwtable
define linkonce_odr dereferenceable(8) %"class.std::move_iterator.24"* @_ZNSt13move_iteratorIPSt4pairIdxEEppEv(%"class.std::move_iterator.24"* %0) #4 comdat align 2 {
  %2 = getelementptr inbounds %"class.std::move_iterator.24", %"class.std::move_iterator.24"* %0, i32 0, i32 0
  %3 = load %"struct.std::pair"*, %"struct.std::pair"** %2, align 8
  %4 = getelementptr inbounds %"struct.std::pair", %"struct.std::pair"* %3, i32 1
  store %"struct.std::pair"* %4, %"struct.std::pair"** %2, align 8
  ret %"class.std::move_iterator.24"* %0
}

; Function Attrs: cold noreturn nounwind
declare void @llvm.trap() #12

; Function Attrs: noinline uwtable
define linkonce_odr zeroext i1 @_ZSteqIPSt4pairIdxEEbRKSt13move_iteratorIT_ES7_(%"class.std::move_iterator.24"* dereferenceable(8) %0, %"class.std::move_iterator.24"* dereferenceable(8) %1) #0 comdat {
  %3 = call %"struct.std::pair"* @_ZNKSt13move_iteratorIPSt4pairIdxEE4baseEv(%"class.std::move_iterator.24"* %0)
  %4 = call %"struct.std::pair"* @_ZNKSt13move_iteratorIPSt4pairIdxEE4baseEv(%"class.std::move_iterator.24"* %1)
  %5 = icmp eq %"struct.std::pair"* %3, %4
  ret i1 %5
}

; Function Attrs: noinline nounwind uwtable
define linkonce_odr %"struct.std::pair"* @_ZNKSt13move_iteratorIPSt4pairIdxEE4baseEv(%"class.std::move_iterator.24"* %0) #4 comdat align 2 {
  %2 = getelementptr inbounds %"class.std::move_iterator.24", %"class.std::move_iterator.24"* %0, i32 0, i32 0
  %3 = load %"struct.std::pair"*, %"struct.std::pair"** %2, align 8
  ret %"struct.std::pair"* %3
}

; Function Attrs: noinline nounwind uwtable
define linkonce_odr void @_ZNSt13move_iteratorIPSt4pairIdxEEC2ES2_(%"class.std::move_iterator.24"* %0, %"struct.std::pair"* %1) unnamed_addr #4 comdat align 2 {
  %3 = getelementptr inbounds %"class.std::move_iterator.24", %"class.std::move_iterator.24"* %0, i32 0, i32 0
  store %"struct.std::pair"* %1, %"struct.std::pair"** %3, align 8
  ret void
}

; Function Attrs: noinline nounwind uwtable
define linkonce_odr void @_ZN9__gnu_cxx13new_allocatorISt4pairIdxEE7destroyIS2_EEvPT_(%"class.__gnu_cxx::new_allocator.8"* %0, %"struct.std::pair"* %1) #4 comdat align 2 {
  ret void
}

; Function Attrs: noinline nounwind uwtable
define linkonce_odr dereferenceable(1) %"struct.std::greater"* @_ZSt4moveIRSt7greaterISt4pairIdxEEEONSt16remove_referenceIT_E4typeEOS6_(%"struct.std::greater"* dereferenceable(1) %0) #4 comdat {
  ret %"struct.std::greater"* %0
}

; Function Attrs: noinline nounwind uwtable
define linkonce_odr void @_ZN9__gnu_cxx5__ops14_Iter_comp_valISt7greaterISt4pairIdxEEEC2ES5_(%"struct.__gnu_cxx::__ops::_Iter_comp_val"* %0) unnamed_addr #4 comdat align 2 {
  %2 = alloca %"struct.std::greater", align 1
  %3 = getelementptr inbounds %"struct.__gnu_cxx::__ops::_Iter_comp_val", %"struct.__gnu_cxx::__ops::_Iter_comp_val"* %0, i32 0, i32 0
  %4 = call dereferenceable(1) %"struct.std::greater"* @_ZSt4moveIRSt7greaterISt4pairIdxEEEONSt16remove_referenceIT_E4typeEOS6_(%"struct.std::greater"* dereferenceable(1) %2) #3
  ret void
}

; Function Attrs: noinline nounwind uwtable
define linkonce_odr %"struct.std::pair"* @_ZNK9__gnu_cxx17__normal_iteratorIPSt4pairIdxESt6vectorIS2_SaIS2_EEEmiEl(%"class.__gnu_cxx::__normal_iterator.23"* %0, i64 %1) #4 comdat align 2 {
  %3 = alloca %"class.__gnu_cxx::__normal_iterator.23", align 8
  %4 = alloca %"struct.std::pair"*, align 8
  %5 = getelementptr inbounds %"class.__gnu_cxx::__normal_iterator.23", %"class.__gnu_cxx::__normal_iterator.23"* %0, i32 0, i32 0
  %6 = load %"struct.std::pair"*, %"struct.std::pair"** %5, align 8
  %7 = sub i64 0, %1
  %8 = getelementptr inbounds %"struct.std::pair", %"struct.std::pair"* %6, i64 %7
  store %"struct.std::pair"* %8, %"struct.std::pair"** %4, align 8
  call void @_ZN9__gnu_cxx17__normal_iteratorIPSt4pairIdxESt6vectorIS2_SaIS2_EEEC2ERKS3_(%"class.__gnu_cxx::__normal_iterator.23"* %3, %"struct.std::pair"** dereferenceable(8) %4) #3
  %9 = getelementptr inbounds %"class.__gnu_cxx::__normal_iterator.23", %"class.__gnu_cxx::__normal_iterator.23"* %3, i32 0, i32 0
  %10 = load %"struct.std::pair"*, %"struct.std::pair"** %9, align 8
  ret %"struct.std::pair"* %10
}

; Function Attrs: noinline nounwind uwtable
define linkonce_odr dereferenceable(16) %"struct.std::pair"* @_ZNK9__gnu_cxx17__normal_iteratorIPSt4pairIdxESt6vectorIS2_SaIS2_EEEdeEv(%"class.__gnu_cxx::__normal_iterator.23"* %0) #4 comdat align 2 {
  %2 = getelementptr inbounds %"class.__gnu_cxx::__normal_iterator.23", %"class.__gnu_cxx::__normal_iterator.23"* %0, i32 0, i32 0
  %3 = load %"struct.std::pair"*, %"struct.std::pair"** %2, align 8
  ret %"struct.std::pair"* %3
}

; Function Attrs: noinline uwtable
define linkonce_odr void @_ZSt11__push_heapIN9__gnu_cxx17__normal_iteratorIPSt4pairIdxESt6vectorIS3_SaIS3_EEEElS3_NS0_5__ops14_Iter_comp_valISt7greaterIS3_EEEEvT_T0_SF_T1_RT2_(%"struct.std::pair"* %0, i64 %1, i64 %2, double %3, i64 %4, %"struct.__gnu_cxx::__ops::_Iter_comp_val"* dereferenceable(1) %5) #0 comdat {
  %7 = alloca %"class.__gnu_cxx::__normal_iterator.23", align 8
  %8 = alloca %"struct.std::pair", align 8
  %9 = alloca %"class.__gnu_cxx::__normal_iterator.23", align 8
  %10 = alloca %"class.__gnu_cxx::__normal_iterator.23", align 8
  %11 = alloca %"class.__gnu_cxx::__normal_iterator.23", align 8
  %12 = alloca %"class.__gnu_cxx::__normal_iterator.23", align 8
  %13 = getelementptr inbounds %"class.__gnu_cxx::__normal_iterator.23", %"class.__gnu_cxx::__normal_iterator.23"* %7, i32 0, i32 0
  store %"struct.std::pair"* %0, %"struct.std::pair"** %13, align 8
  %14 = bitcast %"struct.std::pair"* %8 to { double, i64 }*
  %15 = getelementptr inbounds { double, i64 }, { double, i64 }* %14, i32 0, i32 0
  store double %3, double* %15, align 8
  %16 = getelementptr inbounds { double, i64 }, { double, i64 }* %14, i32 0, i32 1
  store i64 %4, i64* %16, align 8
  %17 = sub nsw i64 %1, 1
  %18 = sdiv i64 %17, 2
  br label %19

19:                                               ; preds = %29, %6
  %.01 = phi i64 [ %18, %6 ], [ %39, %29 ]
  %.0 = phi i64 [ %1, %6 ], [ %.01, %29 ]
  %20 = icmp sgt i64 %.0, %2
  br i1 %20, label %21, label %27

21:                                               ; preds = %19
  %22 = call %"struct.std::pair"* @_ZNK9__gnu_cxx17__normal_iteratorIPSt4pairIdxESt6vectorIS2_SaIS2_EEEplEl(%"class.__gnu_cxx::__normal_iterator.23"* %7, i64 %.01) #3
  %23 = getelementptr inbounds %"class.__gnu_cxx::__normal_iterator.23", %"class.__gnu_cxx::__normal_iterator.23"* %9, i32 0, i32 0
  store %"struct.std::pair"* %22, %"struct.std::pair"** %23, align 8
  %24 = getelementptr inbounds %"class.__gnu_cxx::__normal_iterator.23", %"class.__gnu_cxx::__normal_iterator.23"* %9, i32 0, i32 0
  %25 = load %"struct.std::pair"*, %"struct.std::pair"** %24, align 8
  %26 = call zeroext i1 @_ZN9__gnu_cxx5__ops14_Iter_comp_valISt7greaterISt4pairIdxEEEclINS_17__normal_iteratorIPS4_St6vectorIS4_SaIS4_EEEES4_EEbT_RT0_(%"struct.__gnu_cxx::__ops::_Iter_comp_val"* %5, %"struct.std::pair"* %25, %"struct.std::pair"* dereferenceable(16) %8)
  br label %27

27:                                               ; preds = %21, %19
  %28 = phi i1 [ false, %19 ], [ %26, %21 ]
  br i1 %28, label %29, label %40

29:                                               ; preds = %27
  %30 = call %"struct.std::pair"* @_ZNK9__gnu_cxx17__normal_iteratorIPSt4pairIdxESt6vectorIS2_SaIS2_EEEplEl(%"class.__gnu_cxx::__normal_iterator.23"* %7, i64 %.01) #3
  %31 = getelementptr inbounds %"class.__gnu_cxx::__normal_iterator.23", %"class.__gnu_cxx::__normal_iterator.23"* %10, i32 0, i32 0
  store %"struct.std::pair"* %30, %"struct.std::pair"** %31, align 8
  %32 = call dereferenceable(16) %"struct.std::pair"* @_ZNK9__gnu_cxx17__normal_iteratorIPSt4pairIdxESt6vectorIS2_SaIS2_EEEdeEv(%"class.__gnu_cxx::__normal_iterator.23"* %10) #3
  %33 = call dereferenceable(16) %"struct.std::pair"* @_ZSt4moveIRSt4pairIdxEEONSt16remove_referenceIT_E4typeEOS4_(%"struct.std::pair"* dereferenceable(16) %32) #3
  %34 = call %"struct.std::pair"* @_ZNK9__gnu_cxx17__normal_iteratorIPSt4pairIdxESt6vectorIS2_SaIS2_EEEplEl(%"class.__gnu_cxx::__normal_iterator.23"* %7, i64 %.0) #3
  %35 = getelementptr inbounds %"class.__gnu_cxx::__normal_iterator.23", %"class.__gnu_cxx::__normal_iterator.23"* %11, i32 0, i32 0
  store %"struct.std::pair"* %34, %"struct.std::pair"** %35, align 8
  %36 = call dereferenceable(16) %"struct.std::pair"* @_ZNK9__gnu_cxx17__normal_iteratorIPSt4pairIdxESt6vectorIS2_SaIS2_EEEdeEv(%"class.__gnu_cxx::__normal_iterator.23"* %11) #3
  %37 = call dereferenceable(16) %"struct.std::pair"* @_ZNSt4pairIdxEaSEOS0_(%"struct.std::pair"* %36, %"struct.std::pair"* dereferenceable(16) %33) #3
  %38 = sub nsw i64 %.01, 1
  %39 = sdiv i64 %38, 2
  br label %19

40:                                               ; preds = %27
  %41 = call dereferenceable(16) %"struct.std::pair"* @_ZSt4moveIRSt4pairIdxEEONSt16remove_referenceIT_E4typeEOS4_(%"struct.std::pair"* dereferenceable(16) %8) #3
  %42 = call %"struct.std::pair"* @_ZNK9__gnu_cxx17__normal_iteratorIPSt4pairIdxESt6vectorIS2_SaIS2_EEEplEl(%"class.__gnu_cxx::__normal_iterator.23"* %7, i64 %.0) #3
  %43 = getelementptr inbounds %"class.__gnu_cxx::__normal_iterator.23", %"class.__gnu_cxx::__normal_iterator.23"* %12, i32 0, i32 0
  store %"struct.std::pair"* %42, %"struct.std::pair"** %43, align 8
  %44 = call dereferenceable(16) %"struct.std::pair"* @_ZNK9__gnu_cxx17__normal_iteratorIPSt4pairIdxESt6vectorIS2_SaIS2_EEEdeEv(%"class.__gnu_cxx::__normal_iterator.23"* %12) #3
  %45 = call dereferenceable(16) %"struct.std::pair"* @_ZNSt4pairIdxEaSEOS0_(%"struct.std::pair"* %44, %"struct.std::pair"* dereferenceable(16) %41) #3
  ret void
}

; Function Attrs: noinline nounwind uwtable
define linkonce_odr void @_ZN9__gnu_cxx17__normal_iteratorIPSt4pairIdxESt6vectorIS2_SaIS2_EEEC2ERKS3_(%"class.__gnu_cxx::__normal_iterator.23"* %0, %"struct.std::pair"** dereferenceable(8) %1) unnamed_addr #4 comdat align 2 {
  %3 = getelementptr inbounds %"class.__gnu_cxx::__normal_iterator.23", %"class.__gnu_cxx::__normal_iterator.23"* %0, i32 0, i32 0
  %4 = load %"struct.std::pair"*, %"struct.std::pair"** %1, align 8
  store %"struct.std::pair"* %4, %"struct.std::pair"** %3, align 8
  ret void
}

; Function Attrs: noinline uwtable
define linkonce_odr zeroext i1 @_ZN9__gnu_cxx5__ops14_Iter_comp_valISt7greaterISt4pairIdxEEEclINS_17__normal_iteratorIPS4_St6vectorIS4_SaIS4_EEEES4_EEbT_RT0_(%"struct.__gnu_cxx::__ops::_Iter_comp_val"* %0, %"struct.std::pair"* %1, %"struct.std::pair"* dereferenceable(16) %2) #0 comdat align 2 {
  %4 = alloca %"class.__gnu_cxx::__normal_iterator.23", align 8
  %5 = getelementptr inbounds %"class.__gnu_cxx::__normal_iterator.23", %"class.__gnu_cxx::__normal_iterator.23"* %4, i32 0, i32 0
  store %"struct.std::pair"* %1, %"struct.std::pair"** %5, align 8
  %6 = getelementptr inbounds %"struct.__gnu_cxx::__ops::_Iter_comp_val", %"struct.__gnu_cxx::__ops::_Iter_comp_val"* %0, i32 0, i32 0
  %7 = call dereferenceable(16) %"struct.std::pair"* @_ZNK9__gnu_cxx17__normal_iteratorIPSt4pairIdxESt6vectorIS2_SaIS2_EEEdeEv(%"class.__gnu_cxx::__normal_iterator.23"* %4) #3
  %8 = call zeroext i1 @_ZNKSt7greaterISt4pairIdxEEclERKS1_S4_(%"struct.std::greater"* %6, %"struct.std::pair"* dereferenceable(16) %7, %"struct.std::pair"* dereferenceable(16) %2)
  ret i1 %8
}

; Function Attrs: noinline nounwind uwtable
define linkonce_odr %"struct.std::pair"* @_ZNK9__gnu_cxx17__normal_iteratorIPSt4pairIdxESt6vectorIS2_SaIS2_EEEplEl(%"class.__gnu_cxx::__normal_iterator.23"* %0, i64 %1) #4 comdat align 2 {
  %3 = alloca %"class.__gnu_cxx::__normal_iterator.23", align 8
  %4 = alloca %"struct.std::pair"*, align 8
  %5 = getelementptr inbounds %"class.__gnu_cxx::__normal_iterator.23", %"class.__gnu_cxx::__normal_iterator.23"* %0, i32 0, i32 0
  %6 = load %"struct.std::pair"*, %"struct.std::pair"** %5, align 8
  %7 = getelementptr inbounds %"struct.std::pair", %"struct.std::pair"* %6, i64 %1
  store %"struct.std::pair"* %7, %"struct.std::pair"** %4, align 8
  call void @_ZN9__gnu_cxx17__normal_iteratorIPSt4pairIdxESt6vectorIS2_SaIS2_EEEC2ERKS3_(%"class.__gnu_cxx::__normal_iterator.23"* %3, %"struct.std::pair"** dereferenceable(8) %4) #3
  %8 = getelementptr inbounds %"class.__gnu_cxx::__normal_iterator.23", %"class.__gnu_cxx::__normal_iterator.23"* %3, i32 0, i32 0
  %9 = load %"struct.std::pair"*, %"struct.std::pair"** %8, align 8
  ret %"struct.std::pair"* %9
}

; Function Attrs: noinline nounwind uwtable
define linkonce_odr dereferenceable(16) %"struct.std::pair"* @_ZNSt4pairIdxEaSEOS0_(%"struct.std::pair"* %0, %"struct.std::pair"* dereferenceable(16) %1) #4 comdat align 2 {
  %3 = getelementptr inbounds %"struct.std::pair", %"struct.std::pair"* %1, i32 0, i32 0
  %4 = call dereferenceable(8) double* @_ZSt7forwardIdEOT_RNSt16remove_referenceIS0_E4typeE(double* dereferenceable(8) %3) #3
  %5 = load double, double* %4, align 8
  %6 = getelementptr inbounds %"struct.std::pair", %"struct.std::pair"* %0, i32 0, i32 0
  store double %5, double* %6, align 8
  %7 = getelementptr inbounds %"struct.std::pair", %"struct.std::pair"* %1, i32 0, i32 1
  %8 = call dereferenceable(8) i64* @_ZSt7forwardIxEOT_RNSt16remove_referenceIS0_E4typeE(i64* dereferenceable(8) %7) #3
  %9 = load i64, i64* %8, align 8
  %10 = getelementptr inbounds %"struct.std::pair", %"struct.std::pair"* %0, i32 0, i32 1
  store i64 %9, i64* %10, align 8
  ret %"struct.std::pair"* %0
}

; Function Attrs: noinline uwtable
define linkonce_odr zeroext i1 @_ZNKSt7greaterISt4pairIdxEEclERKS1_S4_(%"struct.std::greater"* %0, %"struct.std::pair"* dereferenceable(16) %1, %"struct.std::pair"* dereferenceable(16) %2) #0 comdat align 2 {
  %4 = call zeroext i1 @_ZStgtIdxEbRKSt4pairIT_T0_ES5_(%"struct.std::pair"* dereferenceable(16) %1, %"struct.std::pair"* dereferenceable(16) %2)
  ret i1 %4
}

; Function Attrs: noinline uwtable
define linkonce_odr zeroext i1 @_ZStgtIdxEbRKSt4pairIT_T0_ES5_(%"struct.std::pair"* dereferenceable(16) %0, %"struct.std::pair"* dereferenceable(16) %1) #0 comdat {
  %3 = call zeroext i1 @_ZStltIdxEbRKSt4pairIT_T0_ES5_(%"struct.std::pair"* dereferenceable(16) %1, %"struct.std::pair"* dereferenceable(16) %0)
  ret i1 %3
}

; Function Attrs: noinline nounwind uwtable
define linkonce_odr zeroext i1 @_ZStltIdxEbRKSt4pairIT_T0_ES5_(%"struct.std::pair"* dereferenceable(16) %0, %"struct.std::pair"* dereferenceable(16) %1) #4 comdat {
  %3 = getelementptr inbounds %"struct.std::pair", %"struct.std::pair"* %0, i32 0, i32 0
  %4 = load double, double* %3, align 8
  %5 = getelementptr inbounds %"struct.std::pair", %"struct.std::pair"* %1, i32 0, i32 0
  %6 = load double, double* %5, align 8
  %7 = fcmp olt double %4, %6
  br i1 %7, label %22, label %8

8:                                                ; preds = %2
  %9 = getelementptr inbounds %"struct.std::pair", %"struct.std::pair"* %1, i32 0, i32 0
  %10 = load double, double* %9, align 8
  %11 = getelementptr inbounds %"struct.std::pair", %"struct.std::pair"* %0, i32 0, i32 0
  %12 = load double, double* %11, align 8
  %13 = fcmp olt double %10, %12
  br i1 %13, label %20, label %14

14:                                               ; preds = %8
  %15 = getelementptr inbounds %"struct.std::pair", %"struct.std::pair"* %0, i32 0, i32 1
  %16 = load i64, i64* %15, align 8
  %17 = getelementptr inbounds %"struct.std::pair", %"struct.std::pair"* %1, i32 0, i32 1
  %18 = load i64, i64* %17, align 8
  %19 = icmp slt i64 %16, %18
  br label %20

20:                                               ; preds = %14, %8
  %21 = phi i1 [ false, %8 ], [ %19, %14 ]
  br label %22

22:                                               ; preds = %20, %2
  %23 = phi i1 [ true, %2 ], [ %21, %20 ]
  ret i1 %23
}

; Function Attrs: noinline nounwind uwtable
define linkonce_odr dereferenceable(8) double* @_ZSt7forwardIdEOT_RNSt16remove_referenceIS0_E4typeE(double* dereferenceable(8) %0) #4 comdat {
  ret double* %0
}

; Function Attrs: noinline nounwind uwtable
define linkonce_odr dereferenceable(8) i64* @_ZSt7forwardIxEOT_RNSt16remove_referenceIS0_E4typeE(i64* dereferenceable(8) %0) #4 comdat {
  ret i64* %0
}

; Function Attrs: noinline nounwind uwtable
define linkonce_odr zeroext i1 @_ZNKSt6vectorISt4pairIdxESaIS1_EE5emptyEv(%"class.std::vector.5"* %0) #4 comdat align 2 {
  %2 = alloca %"class.__gnu_cxx::__normal_iterator.25", align 8
  %3 = alloca %"class.__gnu_cxx::__normal_iterator.25", align 8
  %4 = call %"struct.std::pair"* @_ZNKSt6vectorISt4pairIdxESaIS1_EE5beginEv(%"class.std::vector.5"* %0) #3
  %5 = getelementptr inbounds %"class.__gnu_cxx::__normal_iterator.25", %"class.__gnu_cxx::__normal_iterator.25"* %2, i32 0, i32 0
  store %"struct.std::pair"* %4, %"struct.std::pair"** %5, align 8
  %6 = call %"struct.std::pair"* @_ZNKSt6vectorISt4pairIdxESaIS1_EE3endEv(%"class.std::vector.5"* %0) #3
  %7 = getelementptr inbounds %"class.__gnu_cxx::__normal_iterator.25", %"class.__gnu_cxx::__normal_iterator.25"* %3, i32 0, i32 0
  store %"struct.std::pair"* %6, %"struct.std::pair"** %7, align 8
  %8 = call zeroext i1 @_ZN9__gnu_cxxeqIPKSt4pairIdxESt6vectorIS2_SaIS2_EEEEbRKNS_17__normal_iteratorIT_T0_EESD_(%"class.__gnu_cxx::__normal_iterator.25"* dereferenceable(8) %2, %"class.__gnu_cxx::__normal_iterator.25"* dereferenceable(8) %3) #3
  ret i1 %8
}

; Function Attrs: noinline nounwind uwtable
define linkonce_odr zeroext i1 @_ZN9__gnu_cxxeqIPKSt4pairIdxESt6vectorIS2_SaIS2_EEEEbRKNS_17__normal_iteratorIT_T0_EESD_(%"class.__gnu_cxx::__normal_iterator.25"* dereferenceable(8) %0, %"class.__gnu_cxx::__normal_iterator.25"* dereferenceable(8) %1) #4 comdat {
  %3 = call dereferenceable(8) %"struct.std::pair"** @_ZNK9__gnu_cxx17__normal_iteratorIPKSt4pairIdxESt6vectorIS2_SaIS2_EEE4baseEv(%"class.__gnu_cxx::__normal_iterator.25"* %0) #3
  %4 = load %"struct.std::pair"*, %"struct.std::pair"** %3, align 8
  %5 = call dereferenceable(8) %"struct.std::pair"** @_ZNK9__gnu_cxx17__normal_iteratorIPKSt4pairIdxESt6vectorIS2_SaIS2_EEE4baseEv(%"class.__gnu_cxx::__normal_iterator.25"* %1) #3
  %6 = load %"struct.std::pair"*, %"struct.std::pair"** %5, align 8
  %7 = icmp eq %"struct.std::pair"* %4, %6
  ret i1 %7
}

; Function Attrs: noinline nounwind uwtable
define linkonce_odr %"struct.std::pair"* @_ZNKSt6vectorISt4pairIdxESaIS1_EE5beginEv(%"class.std::vector.5"* %0) #4 comdat align 2 {
  %2 = alloca %"class.__gnu_cxx::__normal_iterator.25", align 8
  %3 = alloca %"struct.std::pair"*, align 8
  %4 = bitcast %"class.std::vector.5"* %0 to %"struct.std::_Vector_base.6"*
  %5 = getelementptr inbounds %"struct.std::_Vector_base.6", %"struct.std::_Vector_base.6"* %4, i32 0, i32 0
  %6 = getelementptr inbounds %"struct.std::_Vector_base<std::pair<double, long long>, std::allocator<std::pair<double, long long> > >::_Vector_impl", %"struct.std::_Vector_base<std::pair<double, long long>, std::allocator<std::pair<double, long long> > >::_Vector_impl"* %5, i32 0, i32 0
  %7 = load %"struct.std::pair"*, %"struct.std::pair"** %6, align 8
  store %"struct.std::pair"* %7, %"struct.std::pair"** %3, align 8
  call void @_ZN9__gnu_cxx17__normal_iteratorIPKSt4pairIdxESt6vectorIS2_SaIS2_EEEC2ERKS4_(%"class.__gnu_cxx::__normal_iterator.25"* %2, %"struct.std::pair"** dereferenceable(8) %3) #3
  %8 = getelementptr inbounds %"class.__gnu_cxx::__normal_iterator.25", %"class.__gnu_cxx::__normal_iterator.25"* %2, i32 0, i32 0
  %9 = load %"struct.std::pair"*, %"struct.std::pair"** %8, align 8
  ret %"struct.std::pair"* %9
}

; Function Attrs: noinline nounwind uwtable
define linkonce_odr %"struct.std::pair"* @_ZNKSt6vectorISt4pairIdxESaIS1_EE3endEv(%"class.std::vector.5"* %0) #4 comdat align 2 {
  %2 = alloca %"class.__gnu_cxx::__normal_iterator.25", align 8
  %3 = alloca %"struct.std::pair"*, align 8
  %4 = bitcast %"class.std::vector.5"* %0 to %"struct.std::_Vector_base.6"*
  %5 = getelementptr inbounds %"struct.std::_Vector_base.6", %"struct.std::_Vector_base.6"* %4, i32 0, i32 0
  %6 = getelementptr inbounds %"struct.std::_Vector_base<std::pair<double, long long>, std::allocator<std::pair<double, long long> > >::_Vector_impl", %"struct.std::_Vector_base<std::pair<double, long long>, std::allocator<std::pair<double, long long> > >::_Vector_impl"* %5, i32 0, i32 1
  %7 = load %"struct.std::pair"*, %"struct.std::pair"** %6, align 8
  store %"struct.std::pair"* %7, %"struct.std::pair"** %3, align 8
  call void @_ZN9__gnu_cxx17__normal_iteratorIPKSt4pairIdxESt6vectorIS2_SaIS2_EEEC2ERKS4_(%"class.__gnu_cxx::__normal_iterator.25"* %2, %"struct.std::pair"** dereferenceable(8) %3) #3
  %8 = getelementptr inbounds %"class.__gnu_cxx::__normal_iterator.25", %"class.__gnu_cxx::__normal_iterator.25"* %2, i32 0, i32 0
  %9 = load %"struct.std::pair"*, %"struct.std::pair"** %8, align 8
  ret %"struct.std::pair"* %9
}

; Function Attrs: noinline nounwind uwtable
define linkonce_odr dereferenceable(8) %"struct.std::pair"** @_ZNK9__gnu_cxx17__normal_iteratorIPKSt4pairIdxESt6vectorIS2_SaIS2_EEE4baseEv(%"class.__gnu_cxx::__normal_iterator.25"* %0) #4 comdat align 2 {
  %2 = getelementptr inbounds %"class.__gnu_cxx::__normal_iterator.25", %"class.__gnu_cxx::__normal_iterator.25"* %0, i32 0, i32 0
  ret %"struct.std::pair"** %2
}

; Function Attrs: noinline nounwind uwtable
define linkonce_odr void @_ZN9__gnu_cxx17__normal_iteratorIPKSt4pairIdxESt6vectorIS2_SaIS2_EEEC2ERKS4_(%"class.__gnu_cxx::__normal_iterator.25"* %0, %"struct.std::pair"** dereferenceable(8) %1) unnamed_addr #4 comdat align 2 {
  %3 = getelementptr inbounds %"class.__gnu_cxx::__normal_iterator.25", %"class.__gnu_cxx::__normal_iterator.25"* %0, i32 0, i32 0
  %4 = load %"struct.std::pair"*, %"struct.std::pair"** %1, align 8
  store %"struct.std::pair"* %4, %"struct.std::pair"** %3, align 8
  ret void
}

; Function Attrs: noinline nounwind uwtable
define linkonce_odr dereferenceable(16) %"struct.std::pair"* @_ZNKSt6vectorISt4pairIdxESaIS1_EE5frontEv(%"class.std::vector.5"* %0) #4 comdat align 2 {
  %2 = alloca %"class.__gnu_cxx::__normal_iterator.25", align 8
  %3 = call %"struct.std::pair"* @_ZNKSt6vectorISt4pairIdxESaIS1_EE5beginEv(%"class.std::vector.5"* %0) #3
  %4 = getelementptr inbounds %"class.__gnu_cxx::__normal_iterator.25", %"class.__gnu_cxx::__normal_iterator.25"* %2, i32 0, i32 0
  store %"struct.std::pair"* %3, %"struct.std::pair"** %4, align 8
  %5 = call dereferenceable(16) %"struct.std::pair"* @_ZNK9__gnu_cxx17__normal_iteratorIPKSt4pairIdxESt6vectorIS2_SaIS2_EEEdeEv(%"class.__gnu_cxx::__normal_iterator.25"* %2) #3
  ret %"struct.std::pair"* %5
}

; Function Attrs: noinline nounwind uwtable
define linkonce_odr dereferenceable(16) %"struct.std::pair"* @_ZNK9__gnu_cxx17__normal_iteratorIPKSt4pairIdxESt6vectorIS2_SaIS2_EEEdeEv(%"class.__gnu_cxx::__normal_iterator.25"* %0) #4 comdat align 2 {
  %2 = getelementptr inbounds %"class.__gnu_cxx::__normal_iterator.25", %"class.__gnu_cxx::__normal_iterator.25"* %0, i32 0, i32 0
  %3 = load %"struct.std::pair"*, %"struct.std::pair"** %2, align 8
  ret %"struct.std::pair"* %3
}

; Function Attrs: noinline uwtable
define linkonce_odr void @_ZSt8pop_heapIN9__gnu_cxx17__normal_iteratorIPSt4pairIdxESt6vectorIS3_SaIS3_EEEESt7greaterIS3_EEvT_SB_T0_(%"struct.std::pair"* %0, %"struct.std::pair"* %1) #0 comdat {
  %3 = alloca %"class.__gnu_cxx::__normal_iterator.23", align 8
  %4 = alloca %"class.__gnu_cxx::__normal_iterator.23", align 8
  %5 = alloca %"struct.std::greater", align 1
  %6 = alloca %"struct.__gnu_cxx::__ops::_Iter_comp_iter", align 1
  %7 = alloca %"class.__gnu_cxx::__normal_iterator.23", align 8
  %8 = alloca %"class.__gnu_cxx::__normal_iterator.23", align 8
  %9 = alloca %"class.__gnu_cxx::__normal_iterator.23", align 8
  %10 = getelementptr inbounds %"class.__gnu_cxx::__normal_iterator.23", %"class.__gnu_cxx::__normal_iterator.23"* %3, i32 0, i32 0
  store %"struct.std::pair"* %0, %"struct.std::pair"** %10, align 8
  %11 = getelementptr inbounds %"class.__gnu_cxx::__normal_iterator.23", %"class.__gnu_cxx::__normal_iterator.23"* %4, i32 0, i32 0
  store %"struct.std::pair"* %1, %"struct.std::pair"** %11, align 8
  %12 = call i64 @_ZN9__gnu_cxxmiIPSt4pairIdxESt6vectorIS2_SaIS2_EEEENS_17__normal_iteratorIT_T0_E15difference_typeERKSA_SD_(%"class.__gnu_cxx::__normal_iterator.23"* dereferenceable(8) %4, %"class.__gnu_cxx::__normal_iterator.23"* dereferenceable(8) %3) #3
  %13 = icmp sgt i64 %12, 1
  br i1 %13, label %14, label %29

14:                                               ; preds = %2
  %15 = call dereferenceable(1) %"struct.std::greater"* @_ZSt4moveIRSt7greaterISt4pairIdxEEEONSt16remove_referenceIT_E4typeEOS6_(%"struct.std::greater"* dereferenceable(1) %5) #3
  call void @_ZN9__gnu_cxx5__ops15_Iter_comp_iterISt7greaterISt4pairIdxEEEC2ES5_(%"struct.__gnu_cxx::__ops::_Iter_comp_iter"* %6)
  %16 = call dereferenceable(8) %"class.__gnu_cxx::__normal_iterator.23"* @_ZN9__gnu_cxx17__normal_iteratorIPSt4pairIdxESt6vectorIS2_SaIS2_EEEmmEv(%"class.__gnu_cxx::__normal_iterator.23"* %4) #3
  %17 = bitcast %"class.__gnu_cxx::__normal_iterator.23"* %7 to i8*
  %18 = bitcast %"class.__gnu_cxx::__normal_iterator.23"* %3 to i8*
  call void @llvm.memcpy.p0i8.p0i8.i64(i8* align 8 %17, i8* align 8 %18, i64 8, i1 false)
  %19 = bitcast %"class.__gnu_cxx::__normal_iterator.23"* %8 to i8*
