; ModuleID = '/home/pedro/tcc/exDataset/codenet/data/selection/p01956/s708990517.ll'
source_filename = "/home/pedro/tcc/exDataset/codenet/data/selection/p01956/s708990517.cpp"
target datalayout = "e-m:e-i64:64-f80:128-n8:16:32:64-S128"
target triple = "x86_64-pc-linux-gnu"

%"class.std::ios_base::Init" = type { i8 }
%"class.std::basic_istream" = type { i32 (...)**, i64, %"class.std::basic_ios" }
%"class.std::basic_ios" = type { %"class.std::ios_base", %"class.std::basic_ostream"*, i8, i8, %"class.std::basic_streambuf"*, %"class.std::ctype"*, %"class.std::num_put"*, %"class.std::num_get"* }
%"class.std::ios_base" = type { i32 (...)**, i64, i64, i32, i32, i32, %"struct.std::ios_base::_Callback_list"*, %"struct.std::ios_base::_Words", [8 x %"struct.std::ios_base::_Words"], i32, %"struct.std::ios_base::_Words"*, %"class.std::locale" }
%"struct.std::ios_base::_Callback_list" = type { %"struct.std::ios_base::_Callback_list"*, void (i32, %"class.std::ios_base"*, i32)*, i32, i32 }
%"struct.std::ios_base::_Words" = type { i8*, i64 }
%"class.std::locale" = type { %"class.std::locale::_Impl"* }
%"class.std::locale::_Impl" = type { i32, %"class.std::locale::facet"**, i64, %"class.std::locale::facet"**, i8** }
%"class.std::locale::facet" = type <{ i32 (...)**, i32, [4 x i8] }>
%"class.std::basic_ostream" = type { i32 (...)**, %"class.std::basic_ios" }
%"class.std::basic_streambuf" = type { i32 (...)**, i8*, i8*, i8*, i8*, i8*, i8*, %"class.std::locale" }
%"class.std::ctype" = type <{ %"class.std::locale::facet.base", [4 x i8], %struct.__locale_struct*, i8, [7 x i8], i32*, i32*, i16*, i8, [256 x i8], [256 x i8], i8, [6 x i8] }>
%"class.std::locale::facet.base" = type <{ i32 (...)**, i32 }>
%struct.__locale_struct = type { [13 x %struct.__locale_data*], i16*, i32*, i32*, [13 x i8*] }
%struct.__locale_data = type opaque
%"class.std::num_put" = type { %"class.std::locale::facet.base", [4 x i8] }
%"class.std::num_get" = type { %"class.std::locale::facet.base", [4 x i8] }

@_ZStL8__ioinit = internal global %"class.std::ios_base::Init" zeroinitializer, align 1
@__dso_handle = external hidden global i8
@a = global [100005 x i64] zeroinitializer, align 16
@vis = global [100005 x i64] zeroinitializer, align 16
@_ZSt3cin = external global %"class.std::basic_istream", align 8
@_ZSt4cout = external global %"class.std::basic_ostream", align 8
@llvm.global_ctors = appending global [1 x { i32, void ()*, i8* }] [{ i32, void ()*, i8* } { i32 65535, void ()* @_GLOBAL__sub_I_s708990517.cpp, i8* null }]

; Function Attrs: noinline uwtable
define internal void @__cxx_global_var_init() #0 section ".text.startup" {
  call void @_ZNSt8ios_base4InitC1Ev(%"class.std::ios_base::Init"* @_ZStL8__ioinit)
  %1 = call i32 @__cxa_atexit(void (i8*)* bitcast (void (%"class.std::ios_base::Init"*)* @_ZNSt8ios_base4InitD1Ev to void (i8*)*), i8* getelementptr inbounds (%"class.std::ios_base::Init", %"class.std::ios_base::Init"* @_ZStL8__ioinit, i32 0, i32 0), i8* @__dso_handle) #3
  ret void
}

declare void @_ZNSt8ios_base4InitC1Ev(%"class.std::ios_base::Init"*) unnamed_addr #1

; Function Attrs: nounwind
declare void @_ZNSt8ios_base4InitD1Ev(%"class.std::ios_base::Init"*) unnamed_addr #2

; Function Attrs: nounwind
declare i32 @__cxa_atexit(void (i8*)*, i8*, i8*) #3

; Function Attrs: noinline nounwind uwtable
define void @_Z5slovexx(i64 %0, i64 %1) #4 {
  br label %3

3:                                                ; preds = %7, %2
  %.0 = phi i64 [ %0, %2 ], [ %8, %7 ]
  %4 = icmp sle i64 %.0, %1
  br i1 %4, label %5, label %9

5:                                                ; preds = %3
  %6 = getelementptr inbounds [100005 x i64], [100005 x i64]* @vis, i64 0, i64 %.0
  store i64 1, i64* %6, align 8
  br label %7

7:                                                ; preds = %5
  %8 = add nsw i64 %.0, 1
  br label %3

9:                                                ; preds = %3
  ret void
}

; Function Attrs: noinline norecurse uwtable
define i32 @main() #5 {
  %1 = alloca i64, align 8
  %2 = alloca i64, align 8
  %3 = alloca i64, align 8
  %4 = call dereferenceable(280) %"class.std::basic_istream"* @_ZNSirsERx(%"class.std::basic_istream"* @_ZSt3cin, i64* dereferenceable(8) %1)
  %5 = call dereferenceable(280) %"class.std::basic_istream"* @_ZNSirsERx(%"class.std::basic_istream"* %4, i64* dereferenceable(8) %2)
  %6 = call dereferenceable(280) %"class.std::basic_istream"* @_ZNSirsERx(%"class.std::basic_istream"* %5, i64* dereferenceable(8) %3)
  br label %7

7:                                                ; preds = %13, %0
  %.02 = phi i64 [ 1, %0 ], [ %14, %13 ]
  %8 = load i64, i64* %1, align 8
  %9 = icmp sle i64 %.02, %8
  br i1 %9, label %10, label %15

10:                                               ; preds = %7
  %11 = getelementptr inbounds [100005 x i64], [100005 x i64]* @a, i64 0, i64 %.02
  %12 = call dereferenceable(280) %"class.std::basic_istream"* @_ZNSirsERx(%"class.std::basic_istream"* @_ZSt3cin, i64* dereferenceable(8) %11)
  br label %13

13:                                               ; preds = %10
  %14 = add nsw i64 %.02, 1
  br label %7

15:                                               ; preds = %7
  br label %16

16:                                               ; preds = %49, %15
  %.03 = phi i64 [ 1, %15 ], [ %50, %49 ]
  %17 = load i64, i64* %1, align 8
  %18 = icmp sle i64 %.03, %17
  br i1 %18, label %19, label %51

19:                                               ; preds = %16
  %20 = sub nsw i64 %.03, 1
  %21 = load i64, i64* %3, align 8
  %22 = mul nsw i64 %20, %21
  %23 = load i64, i64* %3, align 8
  %24 = mul nsw i64 %.03, %23
  %25 = getelementptr inbounds [100005 x i64], [100005 x i64]* @a, i64 0, i64 %.03
  %26 = load i64, i64* %25, align 8
  %27 = and i64 %.03, 1
  %28 = icmp ne i64 %27, 0
  %29 = zext i1 %28 to i64
  %30 = select i1 %28, i32 1, i32 -1
  %31 = sext i32 %30 to i64
  %32 = mul nsw i64 %26, %31
  %33 = add nsw i64 %22, %32
  %34 = getelementptr inbounds [100005 x i64], [100005 x i64]* @a, i64 0, i64 %.03
  %35 = load i64, i64* %34, align 8
  %36 = and i64 %.03, 1
  %37 = icmp ne i64 %36, 0
  %38 = zext i1 %37 to i64
  %39 = select i1 %37, i32 1, i32 -1
  %40 = sext i32 %39 to i64
  %41 = mul nsw i64 %35, %40
  %42 = add nsw i64 %24, %41
  %43 = getelementptr inbounds [100005 x i64], [100005 x i64]* @vis, i64 0, i64 %33
  %44 = load i64, i64* %43, align 8
  %45 = add nsw i64 %44, 1
  store i64 %45, i64* %43, align 8
  %46 = getelementptr inbounds [100005 x i64], [100005 x i64]* @vis, i64 0, i64 %42
  %47 = load i64, i64* %46, align 8
  %48 = add nsw i64 %47, -1
  store i64 %48, i64* %46, align 8
  br label %49

49:                                               ; preds = %19
  %50 = add nsw i64 %.03, 1
  br label %16

51:                                               ; preds = %16
  br label %52

52:                                               ; preds = %70, %51
  %.01 = phi i64 [ 0, %51 ], [ %.1, %70 ]
  %.0 = phi i64 [ 0, %51 ], [ %71, %70 ]
  %53 = load i64, i64* %1, align 8
  %54 = load i64, i64* %3, align 8
  %55 = mul nsw i64 %53, %54
  %56 = icmp slt i64 %.0, %55
  br i1 %56, label %57, label %72

57:                                               ; preds = %52
  %58 = sub nsw i64 %.0, 1
  %59 = getelementptr inbounds [100005 x i64], [100005 x i64]* @vis, i64 0, i64 %58
  %60 = load i64, i64* %59, align 8
  %61 = getelementptr inbounds [100005 x i64], [100005 x i64]* @vis, i64 0, i64 %.0
  %62 = load i64, i64* %61, align 8
  %63 = add nsw i64 %62, %60
  store i64 %63, i64* %61, align 8
  %64 = getelementptr inbounds [100005 x i64], [100005 x i64]* @vis, i64 0, i64 %.0
  %65 = load i64, i64* %64, align 8
  %66 = icmp ne i64 %65, 0
  br i1 %66, label %69, label %67

67:                                               ; preds = %57
  %68 = add nsw i64 %.01, 1
  br label %69

69:                                               ; preds = %67, %57
  %.1 = phi i64 [ %.01, %57 ], [ %68, %67 ]
  br label %70

70:                                               ; preds = %69
  %71 = add nsw i64 %.0, 1
  br label %52

72:                                               ; preds = %52
  %73 = load i64, i64* %2, align 8
  %74 = mul nsw i64 %.01, %73
  %75 = call dereferenceable(272) %"class.std::basic_ostream"* @_ZNSolsEx(%"class.std::basic_ostream"* @_ZSt4cout, i64 %74)
  %76 = call dereferenceable(272) %"class.std::basic_ostream"* @_ZNSolsEPFRSoS_E(%"class.std::basic_ostream"* %75, %"class.std::basic_ostream"* (%"class.std::basic_ostream"*)* @_ZSt4endlIcSt11char_traitsIcEERSt13basic_ostreamIT_T0_ES6_)
  ret i32 0
}

declare dereferenceable(280) %"class.std::basic_istream"* @_ZNSirsERx(%"class.std::basic_istream"*, i64* dereferenceable(8)) #1

declare dereferenceable(272) %"class.std::basic_ostream"* @_ZNSolsEx(%"class.std::basic_ostream"*, i64) #1

declare dereferenceable(272) %"class.std::basic_ostream"* @_ZNSolsEPFRSoS_E(%"class.std::basic_ostream"*, %"class.std::basic_ostream"* (%"class.std::basic_ostream"*)*) #1

declare dereferenceable(272) %"class.std::basic_ostream"* @_ZSt4endlIcSt11char_traitsIcEERSt13basic_ostreamIT_T0_ES6_(%"class.std::basic_ostream"* dereferenceable(272)) #1

; Function Attrs: noinline uwtable
define internal void @_GLOBAL__sub_I_s708990517.cpp() #0 section ".text.startup" {
  call void @__cxx_global_var_init()
  ret void
}

attributes #0 = { noinline uwtable "correctly-rounded-divide-sqrt-fp-math"="false" "disable-tail-calls"="false" "less-precise-fpmad"="false" "no-frame-pointer-elim"="true" "no-frame-pointer-elim-non-leaf" "no-infs-fp-math"="false" "no-jump-tables"="false" "no-nans-fp-math"="false" "no-signed-zeros-fp-math"="false" "no-trapping-math"="false" "stack-protector-buffer-size"="8" "target-cpu"="x86-64" "target-features"="+fxsr,+mmx,+sse,+sse2,+x87" "unsafe-fp-math"="false" "use-soft-float"="false" }
attributes #1 = { "correctly-rounded-divide-sqrt-fp-math"="false" "disable-tail-calls"="false" "less-precise-fpmad"="false" "no-frame-pointer-elim"="true" "no-frame-pointer-elim-non-leaf" "no-infs-fp-math"="false" "no-nans-fp-math"="false" "no-signed-zeros-fp-math"="false" "no-trapping-math"="false" "stack-protector-buffer-size"="8" "target-cpu"="x86-64" "target-features"="+fxsr,+mmx,+sse,+sse2,+x87" "unsafe-fp-math"="false" "use-soft-float"="false" }
attributes #2 = { nounwind "correctly-rounded-divide-sqrt-fp-math"="false" "disable-tail-calls"="false" "less-precise-fpmad"="false" "no-frame-pointer-elim"="true" "no-frame-pointer-elim-non-leaf" "no-infs-fp-math"="false" "no-nans-fp-math"="false" "no-signed-zeros-fp-math"="false" "no-trapping-math"="false" "stack-protector-buffer-size"="8" "target-cpu"="x86-64" "target-features"="+fxsr,+mmx,+sse,+sse2,+x87" "unsafe-fp-math"="false" "use-soft-float"="false" }
attributes #3 = { nounwind }
attributes #4 = { noinline nounwind uwtable "correctly-rounded-divide-sqrt-fp-math"="false" "disable-tail-calls"="false" "less-precise-fpmad"="false" "no-frame-pointer-elim"="true" "no-frame-pointer-elim-non-leaf" "no-infs-fp-math"="false" "no-jump-tables"="false" "no-nans-fp-math"="false" "no-signed-zeros-fp-math"="false" "no-trapping-math"="false" "stack-protector-buffer-size"="8" "target-cpu"="x86-64" "target-features"="+fxsr,+mmx,+sse,+sse2,+x87" "unsafe-fp-math"="false" "use-soft-float"="false" }
attributes #5 = { noinline norecurse uwtable "correctly-rounded-divide-sqrt-fp-math"="false" "disable-tail-calls"="false" "less-precise-fpmad"="false" "no-frame-pointer-elim"="true" "no-frame-pointer-elim-non-leaf" "no-infs-fp-math"="false" "no-jump-tables"="false" "no-nans-fp-math"="false" "no-signed-zeros-fp-math"="false" "no-trapping-math"="false" "stack-protector-buffer-size"="8" "target-cpu"="x86-64" "target-features"="+fxsr,+mmx,+sse,+sse2,+x87" "unsafe-fp-math"="false" "use-soft-float"="false" }

!llvm.module.flags = !{!0}
!llvm.ident = !{!1}

!0 = !{i32 1, !"wchar_size", i32 4}
!1 = !{!"clang version 6.0.0-1ubuntu2 (tags/RELEASE_600/final)"}
