; ModuleID = '/home/pedro/tcc/exDataset/codenet/data/selection/p01913/s135475038.ll'
source_filename = "/home/pedro/tcc/exDataset/codenet/data/selection/p01913/s135475038.cpp"
target datalayout = "e-m:e-i64:64-f80:128-n8:16:32:64-S128"
target triple = "x86_64-pc-linux-gnu"

%"class.std::ios_base::Init" = type { i8 }
%"class.std::vector" = type { %"struct.std::_Vector_base" }
%"struct.std::_Vector_base" = type { %"struct.std::_Vector_base<Data, std::allocator<Data> >::_Vector_impl" }
%"struct.std::_Vector_base<Data, std::allocator<Data> >::_Vector_impl" = type { %struct.Data*, %struct.Data*, %struct.Data* }
%struct.Data = type { i32, i32 }
%"class.std::allocator" = type { i8 }
%"class.std::priority_queue" = type <{ %"class.std::vector.0", %"struct.std::less", [7 x i8] }>
%"class.std::vector.0" = type { %"struct.std::_Vector_base.1" }
%"struct.std::_Vector_base.1" = type { %"struct.std::_Vector_base<Info, std::allocator<Info> >::_Vector_impl" }
%"struct.std::_Vector_base<Info, std::allocator<Info> >::_Vector_impl" = type { %struct.Info*, %struct.Info*, %struct.Info* }
%struct.Info = type { i32, i32 }
%"struct.std::less" = type { i8 }
%"class.__gnu_cxx::__normal_iterator" = type { %struct.Info* }
%"class.std::priority_queue.5" = type <{ %"class.std::vector.6", %"struct.std::less.11", [7 x i8] }>
%"class.std::vector.6" = type { %"struct.std::_Vector_base.7" }
%"struct.std::_Vector_base.7" = type { %"struct.std::_Vector_base<Edge, std::allocator<Edge> >::_Vector_impl" }
%"struct.std::_Vector_base<Edge, std::allocator<Edge> >::_Vector_impl" = type { %struct.Edge*, %struct.Edge*, %struct.Edge* }
%struct.Edge = type { i32, i32, i32 }
%"struct.std::less.11" = type { i8 }
%"class.__gnu_cxx::__normal_iterator.15" = type { %struct.Edge* }
%"class.std::allocator.2" = type { i8 }
%"class.__gnu_cxx::new_allocator.3" = type { i8 }
%"class.std::allocator.8" = type { i8 }
%"class.__gnu_cxx::new_allocator.9" = type { i8 }
%"class.__gnu_cxx::new_allocator" = type { i8 }
%"struct.__gnu_cxx::__ops::_Iter_comp_val" = type { %"struct.std::less" }
%"class.std::move_iterator" = type { %struct.Info* }
%"class.__gnu_cxx::__normal_iterator.14" = type { %struct.Info* }
%"struct.__gnu_cxx::__ops::_Iter_comp_iter" = type { %"struct.std::less" }
%"struct.__gnu_cxx::__ops::_Iter_comp_val.17" = type { %"struct.std::less.11" }
%"class.std::move_iterator.16" = type { %struct.Edge* }
%"class.__gnu_cxx::__normal_iterator.18" = type { %struct.Data* }
%"class.std::move_iterator.19" = type { %struct.Data* }
%"class.__gnu_cxx::__normal_iterator.20" = type { %struct.Edge* }
%"struct.__gnu_cxx::__ops::_Iter_comp_iter.21" = type { %"struct.std::less.11" }

$_ZNSt6vectorI4DataSaIS0_EEC2Ev = comdat any

$_ZNSt6vectorI4DataSaIS0_EED2Ev = comdat any

$_ZNSt14priority_queueI4InfoSt6vectorIS0_SaIS0_EESt4lessIS0_EEC2IS3_vEEv = comdat any

$_ZNSt14priority_queueI4InfoSt6vectorIS0_SaIS0_EESt4lessIS0_EE4pushEOS0_ = comdat any

$_ZN4InfoC2Eii = comdat any

$_ZNKSt14priority_queueI4InfoSt6vectorIS0_SaIS0_EESt4lessIS0_EE5emptyEv = comdat any

$_ZNKSt14priority_queueI4InfoSt6vectorIS0_SaIS0_EESt4lessIS0_EE3topEv = comdat any

$_ZNSt14priority_queueI4InfoSt6vectorIS0_SaIS0_EESt4lessIS0_EE3popEv = comdat any

$_ZNKSt6vectorI4DataSaIS0_EE4sizeEv = comdat any

$_ZNSt6vectorI4DataSaIS0_EEixEm = comdat any

$_ZNSt14priority_queueI4InfoSt6vectorIS0_SaIS0_EESt4lessIS0_EED2Ev = comdat any

$_ZNSt14priority_queueI4EdgeSt6vectorIS0_SaIS0_EESt4lessIS0_EEC2IS3_vEEv = comdat any

$_ZNSt14priority_queueI4EdgeSt6vectorIS0_SaIS0_EESt4lessIS0_EE4pushEOS0_ = comdat any

$_ZN4EdgeC2Eiii = comdat any

$_ZNSt6vectorI4DataSaIS0_EE9push_backEOS0_ = comdat any

$_ZN4DataC2Eii = comdat any

$_ZNKSt14priority_queueI4EdgeSt6vectorIS0_SaIS0_EESt4lessIS0_EE5emptyEv = comdat any

$_ZNKSt14priority_queueI4EdgeSt6vectorIS0_SaIS0_EESt4lessIS0_EE3topEv = comdat any

$_ZNSt14priority_queueI4EdgeSt6vectorIS0_SaIS0_EESt4lessIS0_EE3popEv = comdat any

$_ZSt3maxIxERKT_S2_S2_ = comdat any

$_ZNSt14priority_queueI4EdgeSt6vectorIS0_SaIS0_EESt4lessIS0_EED2Ev = comdat any

$_ZNSt6vectorI4InfoSaIS0_EED2Ev = comdat any

$_ZSt8_DestroyIP4InfoS0_EvT_S2_RSaIT0_E = comdat any

$_ZNSt12_Vector_baseI4InfoSaIS0_EE19_M_get_Tp_allocatorEv = comdat any

$_ZNSt12_Vector_baseI4InfoSaIS0_EED2Ev = comdat any

$__clang_call_terminate = comdat any

$_ZSt8_DestroyIP4InfoEvT_S2_ = comdat any

$_ZNSt12_Destroy_auxILb1EE9__destroyIP4InfoEEvT_S4_ = comdat any

$_ZNSt12_Vector_baseI4InfoSaIS0_EE13_M_deallocateEPS0_m = comdat any

$_ZNSt12_Vector_baseI4InfoSaIS0_EE12_Vector_implD2Ev = comdat any

$_ZNSt16allocator_traitsISaI4InfoEE10deallocateERS1_PS0_m = comdat any

$_ZN9__gnu_cxx13new_allocatorI4InfoE10deallocateEPS1_m = comdat any

$_ZNSaI4InfoED2Ev = comdat any

$_ZN9__gnu_cxx13new_allocatorI4InfoED2Ev = comdat any

$_ZNSt6vectorI4EdgeSaIS0_EED2Ev = comdat any

$_ZSt8_DestroyIP4EdgeS0_EvT_S2_RSaIT0_E = comdat any

$_ZNSt12_Vector_baseI4EdgeSaIS0_EE19_M_get_Tp_allocatorEv = comdat any

$_ZNSt12_Vector_baseI4EdgeSaIS0_EED2Ev = comdat any

$_ZSt8_DestroyIP4EdgeEvT_S2_ = comdat any

$_ZNSt12_Destroy_auxILb1EE9__destroyIP4EdgeEEvT_S4_ = comdat any

$_ZNSt12_Vector_baseI4EdgeSaIS0_EE13_M_deallocateEPS0_m = comdat any

$_ZNSt12_Vector_baseI4EdgeSaIS0_EE12_Vector_implD2Ev = comdat any

$_ZNSt16allocator_traitsISaI4EdgeEE10deallocateERS1_PS0_m = comdat any

$_ZN9__gnu_cxx13new_allocatorI4EdgeE10deallocateEPS1_m = comdat any

$_ZNSaI4EdgeED2Ev = comdat any

$_ZN9__gnu_cxx13new_allocatorI4EdgeED2Ev = comdat any

$_ZNSt12_Vector_baseI4DataSaIS0_EEC2Ev = comdat any

$_ZNSt12_Vector_baseI4DataSaIS0_EE12_Vector_implC2Ev = comdat any

$_ZNSaI4DataEC2Ev = comdat any

$_ZN9__gnu_cxx13new_allocatorI4DataEC2Ev = comdat any

$_ZSt8_DestroyIP4DataS0_EvT_S2_RSaIT0_E = comdat any

$_ZNSt12_Vector_baseI4DataSaIS0_EE19_M_get_Tp_allocatorEv = comdat any

$_ZNSt12_Vector_baseI4DataSaIS0_EED2Ev = comdat any

$_ZSt8_DestroyIP4DataEvT_S2_ = comdat any

$_ZNSt12_Destroy_auxILb1EE9__destroyIP4DataEEvT_S4_ = comdat any

$_ZNSt12_Vector_baseI4DataSaIS0_EE13_M_deallocateEPS0_m = comdat any

$_ZNSt12_Vector_baseI4DataSaIS0_EE12_Vector_implD2Ev = comdat any

$_ZNSt16allocator_traitsISaI4DataEE10deallocateERS1_PS0_m = comdat any

$_ZN9__gnu_cxx13new_allocatorI4DataE10deallocateEPS1_m = comdat any

$_ZNSaI4DataED2Ev = comdat any

$_ZN9__gnu_cxx13new_allocatorI4DataED2Ev = comdat any

$_ZNSt6vectorI4InfoSaIS0_EEC2Ev = comdat any

$_ZNSt12_Vector_baseI4InfoSaIS0_EEC2Ev = comdat any

$_ZNSt12_Vector_baseI4InfoSaIS0_EE12_Vector_implC2Ev = comdat any

$_ZNSaI4InfoEC2Ev = comdat any

$_ZN9__gnu_cxx13new_allocatorI4InfoEC2Ev = comdat any

$_ZNSt6vectorI4InfoSaIS0_EE9push_backEOS0_ = comdat any

$_ZSt4moveIR4InfoEONSt16remove_referenceIT_E4typeEOS3_ = comdat any

$_ZSt9push_heapIN9__gnu_cxx17__normal_iteratorIP4InfoSt6vectorIS2_SaIS2_EEEESt4lessIS2_EEvT_SA_T0_ = comdat any

$_ZNSt6vectorI4InfoSaIS0_EE5beginEv = comdat any

$_ZNSt6vectorI4InfoSaIS0_EE3endEv = comdat any

$_ZNSt6vectorI4InfoSaIS0_EE12emplace_backIJS0_EEEvDpOT_ = comdat any

$_ZNSt16allocator_traitsISaI4InfoEE9constructIS0_JS0_EEEvRS1_PT_DpOT0_ = comdat any

$_ZSt7forwardI4InfoEOT_RNSt16remove_referenceIS1_E4typeE = comdat any

$_ZNSt6vectorI4InfoSaIS0_EE17_M_realloc_insertIJS0_EEEvN9__gnu_cxx17__normal_iteratorIPS0_S2_EEDpOT_ = comdat any

$_ZN9__gnu_cxx13new_allocatorI4InfoE9constructIS1_JS1_EEEvPT_DpOT0_ = comdat any

$_ZNKSt6vectorI4InfoSaIS0_EE12_M_check_lenEmPKc = comdat any

$_ZN9__gnu_cxxmiIP4InfoSt6vectorIS1_SaIS1_EEEENS_17__normal_iteratorIT_T0_E15difference_typeERKS9_SC_ = comdat any

$_ZNSt12_Vector_baseI4InfoSaIS0_EE11_M_allocateEm = comdat any

$_ZSt34__uninitialized_move_if_noexcept_aIP4InfoS1_SaIS0_EET0_T_S4_S3_RT1_ = comdat any

$_ZNK9__gnu_cxx17__normal_iteratorIP4InfoSt6vectorIS1_SaIS1_EEE4baseEv = comdat any

$_ZNSt16allocator_traitsISaI4InfoEE7destroyIS0_EEvRS1_PT_ = comdat any

$_ZNKSt6vectorI4InfoSaIS0_EE8max_sizeEv = comdat any

$_ZNKSt6vectorI4InfoSaIS0_EE4sizeEv = comdat any

$_ZSt3maxImERKT_S2_S2_ = comdat any

$_ZNSt16allocator_traitsISaI4InfoEE8max_sizeERKS1_ = comdat any

$_ZNKSt12_Vector_baseI4InfoSaIS0_EE19_M_get_Tp_allocatorEv = comdat any

$_ZNK9__gnu_cxx13new_allocatorI4InfoE8max_sizeEv = comdat any

$_ZNSt16allocator_traitsISaI4InfoEE8allocateERS1_m = comdat any

$_ZN9__gnu_cxx13new_allocatorI4InfoE8allocateEmPKv = comdat any

$_ZSt22__uninitialized_copy_aISt13move_iteratorIP4InfoES2_S1_ET0_T_S5_S4_RSaIT1_E = comdat any

$_ZSt32__make_move_if_noexcept_iteratorI4InfoSt13move_iteratorIPS0_EET0_PT_ = comdat any

$_ZSt18uninitialized_copyISt13move_iteratorIP4InfoES2_ET0_T_S5_S4_ = comdat any

$_ZNSt20__uninitialized_copyILb0EE13__uninit_copyISt13move_iteratorIP4InfoES4_EET0_T_S7_S6_ = comdat any

$_ZStneIP4InfoEbRKSt13move_iteratorIT_ES6_ = comdat any

$_ZSt10_ConstructI4InfoJS0_EEvPT_DpOT0_ = comdat any

$_ZSt11__addressofI4InfoEPT_RS1_ = comdat any

$_ZNKSt13move_iteratorIP4InfoEdeEv = comdat any

$_ZNSt13move_iteratorIP4InfoEppEv = comdat any

$_ZSteqIP4InfoEbRKSt13move_iteratorIT_ES6_ = comdat any

$_ZNKSt13move_iteratorIP4InfoE4baseEv = comdat any

$_ZNSt13move_iteratorIP4InfoEC2ES1_ = comdat any

$_ZN9__gnu_cxx13new_allocatorI4InfoE7destroyIS1_EEvPT_ = comdat any

$_ZSt4moveIRSt4lessI4InfoEEONSt16remove_referenceIT_E4typeEOS5_ = comdat any

$_ZN9__gnu_cxx5__ops14_Iter_comp_valISt4lessI4InfoEEC2ES4_ = comdat any

$_ZNK9__gnu_cxx17__normal_iteratorIP4InfoSt6vectorIS1_SaIS1_EEEmiEl = comdat any

$_ZNK9__gnu_cxx17__normal_iteratorIP4InfoSt6vectorIS1_SaIS1_EEEdeEv = comdat any

$_ZSt11__push_heapIN9__gnu_cxx17__normal_iteratorIP4InfoSt6vectorIS2_SaIS2_EEEElS2_NS0_5__ops14_Iter_comp_valISt4lessIS2_EEEEvT_T0_SE_T1_RT2_ = comdat any

$_ZN9__gnu_cxx17__normal_iteratorIP4InfoSt6vectorIS1_SaIS1_EEEC2ERKS2_ = comdat any

$_ZN9__gnu_cxx5__ops14_Iter_comp_valISt4lessI4InfoEEclINS_17__normal_iteratorIPS3_St6vectorIS3_SaIS3_EEEES3_EEbT_RT0_ = comdat any

$_ZNK9__gnu_cxx17__normal_iteratorIP4InfoSt6vectorIS1_SaIS1_EEEplEl = comdat any

$_ZNKSt4lessI4InfoEclERKS0_S3_ = comdat any

$_ZNK4InfoltERKS_ = comdat any

$_ZNKSt6vectorI4InfoSaIS0_EE5emptyEv = comdat any

$_ZN9__gnu_cxxeqIPK4InfoSt6vectorIS1_SaIS1_EEEEbRKNS_17__normal_iteratorIT_T0_EESC_ = comdat any

$_ZNKSt6vectorI4InfoSaIS0_EE5beginEv = comdat any

$_ZNKSt6vectorI4InfoSaIS0_EE3endEv = comdat any

$_ZNK9__gnu_cxx17__normal_iteratorIPK4InfoSt6vectorIS1_SaIS1_EEE4baseEv = comdat any

$_ZN9__gnu_cxx17__normal_iteratorIPK4InfoSt6vectorIS1_SaIS1_EEEC2ERKS3_ = comdat any

$_ZNKSt6vectorI4InfoSaIS0_EE5frontEv = comdat any

$_ZNK9__gnu_cxx17__normal_iteratorIPK4InfoSt6vectorIS1_SaIS1_EEEdeEv = comdat any

$_ZSt8pop_heapIN9__gnu_cxx17__normal_iteratorIP4InfoSt6vectorIS2_SaIS2_EEEESt4lessIS2_EEvT_SA_T0_ = comdat any

$_ZNSt6vectorI4InfoSaIS0_EE8pop_backEv = comdat any

$_ZN9__gnu_cxx5__ops15_Iter_comp_iterISt4lessI4InfoEEC2ES4_ = comdat any

$_ZN9__gnu_cxx17__normal_iteratorIP4InfoSt6vectorIS1_SaIS1_EEEmmEv = comdat any

$_ZSt10__pop_heapIN9__gnu_cxx17__normal_iteratorIP4InfoSt6vectorIS2_SaIS2_EEEENS0_5__ops15_Iter_comp_iterISt4lessIS2_EEEEvT_SD_SD_RT0_ = comdat any

$_ZSt13__adjust_heapIN9__gnu_cxx17__normal_iteratorIP4InfoSt6vectorIS2_SaIS2_EEEElS2_NS0_5__ops15_Iter_comp_iterISt4lessIS2_EEEEvT_T0_SE_T1_T2_ = comdat any

$_ZN9__gnu_cxx5__ops15_Iter_comp_iterISt4lessI4InfoEEclINS_17__normal_iteratorIPS3_St6vectorIS3_SaIS3_EEEESC_EEbT_T0_ = comdat any

$_ZSt4moveIRN9__gnu_cxx5__ops15_Iter_comp_iterISt4lessI4InfoEEEEONSt16remove_referenceIT_E4typeEOS9_ = comdat any

$_ZN9__gnu_cxx5__ops14_Iter_comp_valISt4lessI4InfoEEC2EONS0_15_Iter_comp_iterIS4_EE = comdat any

$_ZNSt6vectorI4EdgeSaIS0_EEC2Ev = comdat any

$_ZNSt12_Vector_baseI4EdgeSaIS0_EEC2Ev = comdat any

$_ZNSt12_Vector_baseI4EdgeSaIS0_EE12_Vector_implC2Ev = comdat any

$_ZNSaI4EdgeEC2Ev = comdat any

$_ZN9__gnu_cxx13new_allocatorI4EdgeEC2Ev = comdat any

$_ZNSt6vectorI4EdgeSaIS0_EE9push_backEOS0_ = comdat any

$_ZSt4moveIR4EdgeEONSt16remove_referenceIT_E4typeEOS3_ = comdat any

$_ZSt9push_heapIN9__gnu_cxx17__normal_iteratorIP4EdgeSt6vectorIS2_SaIS2_EEEESt4lessIS2_EEvT_SA_T0_ = comdat any

$_ZNSt6vectorI4EdgeSaIS0_EE5beginEv = comdat any

$_ZNSt6vectorI4EdgeSaIS0_EE3endEv = comdat any

$_ZNSt6vectorI4EdgeSaIS0_EE12emplace_backIJS0_EEEvDpOT_ = comdat any

$_ZNSt16allocator_traitsISaI4EdgeEE9constructIS0_JS0_EEEvRS1_PT_DpOT0_ = comdat any

$_ZSt7forwardI4EdgeEOT_RNSt16remove_referenceIS1_E4typeE = comdat any

$_ZNSt6vectorI4EdgeSaIS0_EE17_M_realloc_insertIJS0_EEEvN9__gnu_cxx17__normal_iteratorIPS0_S2_EEDpOT_ = comdat any

$_ZN9__gnu_cxx13new_allocatorI4EdgeE9constructIS1_JS1_EEEvPT_DpOT0_ = comdat any

$_ZNKSt6vectorI4EdgeSaIS0_EE12_M_check_lenEmPKc = comdat any

$_ZN9__gnu_cxxmiIP4EdgeSt6vectorIS1_SaIS1_EEEENS_17__normal_iteratorIT_T0_E15difference_typeERKS9_SC_ = comdat any

$_ZNSt12_Vector_baseI4EdgeSaIS0_EE11_M_allocateEm = comdat any

$_ZSt34__uninitialized_move_if_noexcept_aIP4EdgeS1_SaIS0_EET0_T_S4_S3_RT1_ = comdat any

$_ZNK9__gnu_cxx17__normal_iteratorIP4EdgeSt6vectorIS1_SaIS1_EEE4baseEv = comdat any

$_ZNSt16allocator_traitsISaI4EdgeEE7destroyIS0_EEvRS1_PT_ = comdat any

$_ZNKSt6vectorI4EdgeSaIS0_EE8max_sizeEv = comdat any

$_ZNKSt6vectorI4EdgeSaIS0_EE4sizeEv = comdat any

$_ZNSt16allocator_traitsISaI4EdgeEE8max_sizeERKS1_ = comdat any

$_ZNKSt12_Vector_baseI4EdgeSaIS0_EE19_M_get_Tp_allocatorEv = comdat any

$_ZNK9__gnu_cxx13new_allocatorI4EdgeE8max_sizeEv = comdat any

$_ZNSt16allocator_traitsISaI4EdgeEE8allocateERS1_m = comdat any

$_ZN9__gnu_cxx13new_allocatorI4EdgeE8allocateEmPKv = comdat any

$_ZSt22__uninitialized_copy_aISt13move_iteratorIP4EdgeES2_S1_ET0_T_S5_S4_RSaIT1_E = comdat any

$_ZSt32__make_move_if_noexcept_iteratorI4EdgeSt13move_iteratorIPS0_EET0_PT_ = comdat any

$_ZSt18uninitialized_copyISt13move_iteratorIP4EdgeES2_ET0_T_S5_S4_ = comdat any

$_ZNSt20__uninitialized_copyILb0EE13__uninit_copyISt13move_iteratorIP4EdgeES4_EET0_T_S7_S6_ = comdat any

$_ZStneIP4EdgeEbRKSt13move_iteratorIT_ES6_ = comdat any

$_ZSt10_ConstructI4EdgeJS0_EEvPT_DpOT0_ = comdat any

$_ZSt11__addressofI4EdgeEPT_RS1_ = comdat any

$_ZNKSt13move_iteratorIP4EdgeEdeEv = comdat any

$_ZNSt13move_iteratorIP4EdgeEppEv = comdat any

$_ZSteqIP4EdgeEbRKSt13move_iteratorIT_ES6_ = comdat any

$_ZNKSt13move_iteratorIP4EdgeE4baseEv = comdat any

$_ZNSt13move_iteratorIP4EdgeEC2ES1_ = comdat any

$_ZN9__gnu_cxx13new_allocatorI4EdgeE7destroyIS1_EEvPT_ = comdat any

$_ZSt4moveIRSt4lessI4EdgeEEONSt16remove_referenceIT_E4typeEOS5_ = comdat any

$_ZN9__gnu_cxx5__ops14_Iter_comp_valISt4lessI4EdgeEEC2ES4_ = comdat any

$_ZNK9__gnu_cxx17__normal_iteratorIP4EdgeSt6vectorIS1_SaIS1_EEEmiEl = comdat any

$_ZNK9__gnu_cxx17__normal_iteratorIP4EdgeSt6vectorIS1_SaIS1_EEEdeEv = comdat any

$_ZSt11__push_heapIN9__gnu_cxx17__normal_iteratorIP4EdgeSt6vectorIS2_SaIS2_EEEElS2_NS0_5__ops14_Iter_comp_valISt4lessIS2_EEEEvT_T0_SE_T1_RT2_ = comdat any

$_ZN9__gnu_cxx17__normal_iteratorIP4EdgeSt6vectorIS1_SaIS1_EEEC2ERKS2_ = comdat any

$_ZN9__gnu_cxx5__ops14_Iter_comp_valISt4lessI4EdgeEEclINS_17__normal_iteratorIPS3_St6vectorIS3_SaIS3_EEEES3_EEbT_RT0_ = comdat any

$_ZNK9__gnu_cxx17__normal_iteratorIP4EdgeSt6vectorIS1_SaIS1_EEEplEl = comdat any

$_ZNKSt4lessI4EdgeEclERKS0_S3_ = comdat any

$_ZNK4EdgeltERKS_ = comdat any

$_ZNSt6vectorI4DataSaIS0_EE12emplace_backIJS0_EEEvDpOT_ = comdat any

$_ZSt4moveIR4DataEONSt16remove_referenceIT_E4typeEOS3_ = comdat any

$_ZNSt16allocator_traitsISaI4DataEE9constructIS0_JS0_EEEvRS1_PT_DpOT0_ = comdat any

$_ZSt7forwardI4DataEOT_RNSt16remove_referenceIS1_E4typeE = comdat any

$_ZNSt6vectorI4DataSaIS0_EE17_M_realloc_insertIJS0_EEEvN9__gnu_cxx17__normal_iteratorIPS0_S2_EEDpOT_ = comdat any

$_ZNSt6vectorI4DataSaIS0_EE3endEv = comdat any

$_ZN9__gnu_cxx13new_allocatorI4DataE9constructIS1_JS1_EEEvPT_DpOT0_ = comdat any

$_ZNKSt6vectorI4DataSaIS0_EE12_M_check_lenEmPKc = comdat any

$_ZN9__gnu_cxxmiIP4DataSt6vectorIS1_SaIS1_EEEENS_17__normal_iteratorIT_T0_E15difference_typeERKS9_SC_ = comdat any

$_ZNSt6vectorI4DataSaIS0_EE5beginEv = comdat any

$_ZNSt12_Vector_baseI4DataSaIS0_EE11_M_allocateEm = comdat any

$_ZSt34__uninitialized_move_if_noexcept_aIP4DataS1_SaIS0_EET0_T_S4_S3_RT1_ = comdat any

$_ZNK9__gnu_cxx17__normal_iteratorIP4DataSt6vectorIS1_SaIS1_EEE4baseEv = comdat any

$_ZNSt16allocator_traitsISaI4DataEE7destroyIS0_EEvRS1_PT_ = comdat any

$_ZNKSt6vectorI4DataSaIS0_EE8max_sizeEv = comdat any

$_ZNSt16allocator_traitsISaI4DataEE8max_sizeERKS1_ = comdat any

$_ZNKSt12_Vector_baseI4DataSaIS0_EE19_M_get_Tp_allocatorEv = comdat any

$_ZNK9__gnu_cxx13new_allocatorI4DataE8max_sizeEv = comdat any

$_ZN9__gnu_cxx17__normal_iteratorIP4DataSt6vectorIS1_SaIS1_EEEC2ERKS2_ = comdat any

$_ZNSt16allocator_traitsISaI4DataEE8allocateERS1_m = comdat any

$_ZN9__gnu_cxx13new_allocatorI4DataE8allocateEmPKv = comdat any

$_ZSt22__uninitialized_copy_aISt13move_iteratorIP4DataES2_S1_ET0_T_S5_S4_RSaIT1_E = comdat any

$_ZSt32__make_move_if_noexcept_iteratorI4DataSt13move_iteratorIPS0_EET0_PT_ = comdat any

$_ZSt18uninitialized_copyISt13move_iteratorIP4DataES2_ET0_T_S5_S4_ = comdat any

$_ZNSt20__uninitialized_copyILb0EE13__uninit_copyISt13move_iteratorIP4DataES4_EET0_T_S7_S6_ = comdat any

$_ZStneIP4DataEbRKSt13move_iteratorIT_ES6_ = comdat any

$_ZSt10_ConstructI4DataJS0_EEvPT_DpOT0_ = comdat any

$_ZSt11__addressofI4DataEPT_RS1_ = comdat any

$_ZNKSt13move_iteratorIP4DataEdeEv = comdat any

$_ZNSt13move_iteratorIP4DataEppEv = comdat any

$_ZSteqIP4DataEbRKSt13move_iteratorIT_ES6_ = comdat any

$_ZNKSt13move_iteratorIP4DataE4baseEv = comdat any

$_ZNSt13move_iteratorIP4DataEC2ES1_ = comdat any

$_ZN9__gnu_cxx13new_allocatorI4DataE7destroyIS1_EEvPT_ = comdat any

$_ZNKSt6vectorI4EdgeSaIS0_EE5emptyEv = comdat any

$_ZN9__gnu_cxxeqIPK4EdgeSt6vectorIS1_SaIS1_EEEEbRKNS_17__normal_iteratorIT_T0_EESC_ = comdat any

$_ZNKSt6vectorI4EdgeSaIS0_EE5beginEv = comdat any

$_ZNKSt6vectorI4EdgeSaIS0_EE3endEv = comdat any

$_ZNK9__gnu_cxx17__normal_iteratorIPK4EdgeSt6vectorIS1_SaIS1_EEE4baseEv = comdat any

$_ZN9__gnu_cxx17__normal_iteratorIPK4EdgeSt6vectorIS1_SaIS1_EEEC2ERKS3_ = comdat any

$_ZNKSt6vectorI4EdgeSaIS0_EE5frontEv = comdat any

$_ZNK9__gnu_cxx17__normal_iteratorIPK4EdgeSt6vectorIS1_SaIS1_EEEdeEv = comdat any

$_ZSt8pop_heapIN9__gnu_cxx17__normal_iteratorIP4EdgeSt6vectorIS2_SaIS2_EEEESt4lessIS2_EEvT_SA_T0_ = comdat any

$_ZNSt6vectorI4EdgeSaIS0_EE8pop_backEv = comdat any

$_ZN9__gnu_cxx5__ops15_Iter_comp_iterISt4lessI4EdgeEEC2ES4_ = comdat any

$_ZN9__gnu_cxx17__normal_iteratorIP4EdgeSt6vectorIS1_SaIS1_EEEmmEv = comdat any

$_ZSt10__pop_heapIN9__gnu_cxx17__normal_iteratorIP4EdgeSt6vectorIS2_SaIS2_EEEENS0_5__ops15_Iter_comp_iterISt4lessIS2_EEEEvT_SD_SD_RT0_ = comdat any

$_ZSt13__adjust_heapIN9__gnu_cxx17__normal_iteratorIP4EdgeSt6vectorIS2_SaIS2_EEEElS2_NS0_5__ops15_Iter_comp_iterISt4lessIS2_EEEEvT_T0_SE_T1_T2_ = comdat any

$_ZN9__gnu_cxx5__ops15_Iter_comp_iterISt4lessI4EdgeEEclINS_17__normal_iteratorIPS3_St6vectorIS3_SaIS3_EEEESC_EEbT_T0_ = comdat any

$_ZSt4moveIRN9__gnu_cxx5__ops15_Iter_comp_iterISt4lessI4EdgeEEEEONSt16remove_referenceIT_E4typeEOS9_ = comdat any

$_ZN9__gnu_cxx5__ops14_Iter_comp_valISt4lessI4EdgeEEC2EONS0_15_Iter_comp_iterIS4_EE = comdat any

@_ZStL8__ioinit = internal global %"class.std::ios_base::Init" zeroinitializer, align 1
@__dso_handle = external hidden global i8
@N = global i32 0, align 4
@M = global i32 0, align 4
@T = global i32 0, align 4
@boss = global [100000 x i32] zeroinitializer, align 16
@pre_time = global [100000 x i32] zeroinitializer, align 16
@member_num = global [100000 x i32] zeroinitializer, align 16
@min_dist = global [100000 x i32] zeroinitializer, align 16
@G = global [100000 x %"class.std::vector"] zeroinitializer, align 16
@value = global [100000 x i64] zeroinitializer, align 16
@.str = private unnamed_addr constant [9 x i8] c"%d %d %d\00", align 1
@.str.2 = private unnamed_addr constant [6 x i8] c"%lld\0A\00", align 1
@.str.3 = private unnamed_addr constant [26 x i8] c"vector::_M_realloc_insert\00", align 1
@llvm.global_ctors = appending global [1 x { i32, void ()*, i8* }] [{ i32, void ()*, i8* } { i32 65535, void ()* @_GLOBAL__sub_I_s135475038.cpp, i8* null }]

; Function Attrs: noinline uwtable
define internal void @__cxx_global_var_init() #0 section ".text.startup" {
  call void @_ZNSt8ios_base4InitC1Ev(%"class.std::ios_base::Init"* @_ZStL8__ioinit)
  %1 = call i32 @__cxa_atexit(void (i8*)* bitcast (void (%"class.std::ios_base::Init"*)* @_ZNSt8ios_base4InitD1Ev to void (i8*)*), i8* getelementptr inbounds (%"class.std::ios_base::Init", %"class.std::ios_base::Init"* @_ZStL8__ioinit, i32 0, i32 0), i8* @__dso_handle) #3
  ret void
}

declare void @_ZNSt8ios_base4InitC1Ev(%"class.std::ios_base::Init"*) unnamed_addr #1

; Function Attrs: nounwind
declare void @_ZNSt8ios_base4InitD1Ev(%"class.std::ios_base::Init"*) unnamed_addr #2

; Function Attrs: nounwind
declare i32 @__cxa_atexit(void (i8*)*, i8*, i8*) #3

; Function Attrs: noinline uwtable
define internal void @__cxx_global_var_init.1() #0 section ".text.startup" {
  br label %1

1:                                                ; preds = %1, %0
  %2 = phi %"class.std::vector"* [ getelementptr inbounds ([100000 x %"class.std::vector"], [100000 x %"class.std::vector"]* @G, i32 0, i32 0), %0 ], [ %3, %1 ]
  call void @_ZNSt6vectorI4DataSaIS0_EEC2Ev(%"class.std::vector"* %2) #3
  %3 = getelementptr inbounds %"class.std::vector", %"class.std::vector"* %2, i64 1
  %4 = icmp eq %"class.std::vector"* %3, getelementptr inbounds ([100000 x %"class.std::vector"], [100000 x %"class.std::vector"]* @G, i64 1, i64 0)
  br i1 %4, label %5, label %1

5:                                                ; preds = %1
  %6 = call i32 @__cxa_atexit(void (i8*)* @__cxx_global_array_dtor, i8* null, i8* @__dso_handle) #3
  ret void
}

; Function Attrs: noinline nounwind uwtable
define linkonce_odr void @_ZNSt6vectorI4DataSaIS0_EEC2Ev(%"class.std::vector"* %0) unnamed_addr #4 comdat align 2 personality i8* bitcast (i32 (...)* @__gxx_personality_v0 to i8*) {
  %2 = bitcast %"class.std::vector"* %0 to %"struct.std::_Vector_base"*
  invoke void @_ZNSt12_Vector_baseI4DataSaIS0_EEC2Ev(%"struct.std::_Vector_base"* %2)
          to label %3 unwind label %4

3:                                                ; preds = %1
  ret void

4:                                                ; preds = %1
  %5 = landingpad { i8*, i32 }
          catch i8* null
  %6 = extractvalue { i8*, i32 } %5, 0
  call void @__clang_call_terminate(i8* %6) #12
  unreachable
}

; Function Attrs: noinline uwtable
define internal void @__cxx_global_array_dtor(i8* %0) #0 section ".text.startup" {
  br label %2

2:                                                ; preds = %2, %1
  %3 = phi %"class.std::vector"* [ getelementptr inbounds ([100000 x %"class.std::vector"], [100000 x %"class.std::vector"]* @G, i64 1, i64 0), %1 ], [ %4, %2 ]
  %4 = getelementptr inbounds %"class.std::vector", %"class.std::vector"* %3, i64 -1
  call void @_ZNSt6vectorI4DataSaIS0_EED2Ev(%"class.std::vector"* %4) #3
  %5 = icmp eq %"class.std::vector"* %4, getelementptr inbounds ([100000 x %"class.std::vector"], [100000 x %"class.std::vector"]* @G, i32 0, i32 0)
  br i1 %5, label %6, label %2

6:                                                ; preds = %2
  ret void
}

; Function Attrs: noinline nounwind uwtable
define linkonce_odr void @_ZNSt6vectorI4DataSaIS0_EED2Ev(%"class.std::vector"* %0) unnamed_addr #4 comdat align 2 personality i8* bitcast (i32 (...)* @__gxx_personality_v0 to i8*) {
  %2 = bitcast %"class.std::vector"* %0 to %"struct.std::_Vector_base"*
  %3 = getelementptr inbounds %"struct.std::_Vector_base", %"struct.std::_Vector_base"* %2, i32 0, i32 0
  %4 = getelementptr inbounds %"struct.std::_Vector_base<Data, std::allocator<Data> >::_Vector_impl", %"struct.std::_Vector_base<Data, std::allocator<Data> >::_Vector_impl"* %3, i32 0, i32 0
  %5 = load %struct.Data*, %struct.Data** %4, align 8
  %6 = bitcast %"class.std::vector"* %0 to %"struct.std::_Vector_base"*
  %7 = getelementptr inbounds %"struct.std::_Vector_base", %"struct.std::_Vector_base"* %6, i32 0, i32 0
  %8 = getelementptr inbounds %"struct.std::_Vector_base<Data, std::allocator<Data> >::_Vector_impl", %"struct.std::_Vector_base<Data, std::allocator<Data> >::_Vector_impl"* %7, i32 0, i32 1
  %9 = load %struct.Data*, %struct.Data** %8, align 8
  %10 = bitcast %"class.std::vector"* %0 to %"struct.std::_Vector_base"*
  %11 = call dereferenceable(1) %"class.std::allocator"* @_ZNSt12_Vector_baseI4DataSaIS0_EE19_M_get_Tp_allocatorEv(%"struct.std::_Vector_base"* %10) #3
  invoke void @_ZSt8_DestroyIP4DataS0_EvT_S2_RSaIT0_E(%struct.Data* %5, %struct.Data* %9, %"class.std::allocator"* dereferenceable(1) %11)
          to label %12 unwind label %14

12:                                               ; preds = %1
  %13 = bitcast %"class.std::vector"* %0 to %"struct.std::_Vector_base"*
  call void @_ZNSt12_Vector_baseI4DataSaIS0_EED2Ev(%"struct.std::_Vector_base"* %13) #3
  ret void

14:                                               ; preds = %1
  %15 = landingpad { i8*, i32 }
          catch i8* null
  %16 = extractvalue { i8*, i32 } %15, 0
  %17 = extractvalue { i8*, i32 } %15, 1
  %18 = bitcast %"class.std::vector"* %0 to %"struct.std::_Vector_base"*
  call void @_ZNSt12_Vector_baseI4DataSaIS0_EED2Ev(%"struct.std::_Vector_base"* %18) #3
  br label %19

19:                                               ; preds = %14
  call void @__clang_call_terminate(i8* %16) #12
  unreachable
}

; Function Attrs: noinline uwtable
define i32 @_Z8get_bossi(i32 %0) #0 {
  %2 = sext i32 %0 to i64
  %3 = getelementptr inbounds [100000 x i32], [100000 x i32]* @boss, i64 0, i64 %2
  %4 = load i32, i32* %3, align 4
  %5 = icmp eq i32 %0, %4
  br i1 %5, label %6, label %7

6:                                                ; preds = %1
  br label %14

7:                                                ; preds = %1
  %8 = sext i32 %0 to i64
  %9 = getelementptr inbounds [100000 x i32], [100000 x i32]* @boss, i64 0, i64 %8
  %10 = load i32, i32* %9, align 4
  %11 = call i32 @_Z8get_bossi(i32 %10)
  %12 = sext i32 %0 to i64
  %13 = getelementptr inbounds [100000 x i32], [100000 x i32]* @boss, i64 0, i64 %12
  store i32 %11, i32* %13, align 4
  br label %14

14:                                               ; preds = %7, %6
  %.0 = phi i32 [ %0, %6 ], [ %11, %7 ]
  ret i32 %.0
}

; Function Attrs: noinline uwtable
define void @_Z5uniteiii(i32 %0, i32 %1, i32 %2) #0 {
  %4 = call i32 @_Z8get_bossi(i32 %0)
  %5 = call i32 @_Z8get_bossi(i32 %1)
  %6 = icmp eq i32 %4, %5
  br i1 %6, label %7, label %23

7:                                                ; preds = %3
  %8 = sext i32 %4 to i64
  %9 = getelementptr inbounds [100000 x i32], [100000 x i32]* @pre_time, i64 0, i64 %8
  %10 = load i32, i32* %9, align 4
  %11 = sub nsw i32 %10, %2
  %12 = sext i32 %4 to i64
  %13 = getelementptr inbounds [100000 x i32], [100000 x i32]* @member_num, i64 0, i64 %12
  %14 = load i32, i32* %13, align 4
  %15 = mul nsw i32 %11, %14
  %16 = sext i32 %15 to i64
  %17 = sext i32 %4 to i64
  %18 = getelementptr inbounds [100000 x i64], [100000 x i64]* @value, i64 0, i64 %17
  %19 = load i64, i64* %18, align 8
  %20 = add nsw i64 %19, %16
  store i64 %20, i64* %18, align 8
  %21 = sext i32 %4 to i64
  %22 = getelementptr inbounds [100000 x i32], [100000 x i32]* @pre_time, i64 0, i64 %21
  store i32 %2, i32* %22, align 4
  br label %182

23:                                               ; preds = %3
  %24 = sext i32 %4 to i64
  %25 = getelementptr inbounds [100000 x i32], [100000 x i32]* @min_dist, i64 0, i64 %24
  %26 = load i32, i32* %25, align 4
  %27 = load i32, i32* @T, align 4
  %28 = icmp sge i32 %26, %27
  br i1 %28, label %29, label %47

29:                                               ; preds = %23
  %30 = sext i32 %5 to i64
  %31 = getelementptr inbounds [100000 x i32], [100000 x i32]* @min_dist, i64 0, i64 %30
  %32 = load i32, i32* %31, align 4
  %33 = load i32, i32* @T, align 4
  %34 = icmp sge i32 %32, %33
  br i1 %34, label %35, label %47

35:                                               ; preds = %29
  %36 = sext i32 %5 to i64
  %37 = getelementptr inbounds [100000 x i32], [100000 x i32]* @boss, i64 0, i64 %36
  store i32 %4, i32* %37, align 4
  %38 = sext i32 %4 to i64
  %39 = getelementptr inbounds [100000 x i32], [100000 x i32]* @member_num, i64 0, i64 %38
  %40 = load i32, i32* %39, align 4
  %41 = sext i32 %5 to i64
  %42 = getelementptr inbounds [100000 x i32], [100000 x i32]* @member_num, i64 0, i64 %41
  %43 = load i32, i32* %42, align 4
  %44 = add nsw i32 %40, %43
  %45 = sext i32 %4 to i64
  %46 = getelementptr inbounds [100000 x i32], [100000 x i32]* @member_num, i64 0, i64 %45
  store i32 %44, i32* %46, align 4
  br label %181

47:                                               ; preds = %29, %23
  %48 = sext i32 %4 to i64
  %49 = getelementptr inbounds [100000 x i32], [100000 x i32]* @min_dist, i64 0, i64 %48
  %50 = load i32, i32* %49, align 4
  %51 = load i32, i32* @T, align 4
  %52 = sub nsw i32 %51, 1
  %53 = icmp sle i32 %50, %52
  br i1 %53, label %54, label %87

54:                                               ; preds = %47
  %55 = sext i32 %5 to i64
  %56 = getelementptr inbounds [100000 x i32], [100000 x i32]* @min_dist, i64 0, i64 %55
  %57 = load i32, i32* %56, align 4
  %58 = load i32, i32* @T, align 4
  %59 = icmp sge i32 %57, %58
  br i1 %59, label %60, label %87

60:                                               ; preds = %54
  %61 = sext i32 %5 to i64
  %62 = getelementptr inbounds [100000 x i32], [100000 x i32]* @boss, i64 0, i64 %61
  store i32 %4, i32* %62, align 4
  %63 = sext i32 %4 to i64
  %64 = getelementptr inbounds [100000 x i32], [100000 x i32]* @pre_time, i64 0, i64 %63
  %65 = load i32, i32* %64, align 4
  %66 = sub nsw i32 %65, %2
  %67 = sext i32 %4 to i64
  %68 = getelementptr inbounds [100000 x i32], [100000 x i32]* @member_num, i64 0, i64 %67
  %69 = load i32, i32* %68, align 4
  %70 = mul nsw i32 %66, %69
  %71 = sext i32 %70 to i64
  %72 = sext i32 %4 to i64
  %73 = getelementptr inbounds [100000 x i64], [100000 x i64]* @value, i64 0, i64 %72
  %74 = load i64, i64* %73, align 8
  %75 = add nsw i64 %74, %71
  store i64 %75, i64* %73, align 8
  %76 = sext i32 %4 to i64
  %77 = getelementptr inbounds [100000 x i32], [100000 x i32]* @pre_time, i64 0, i64 %76
  store i32 %2, i32* %77, align 4
  %78 = sext i32 %4 to i64
  %79 = getelementptr inbounds [100000 x i32], [100000 x i32]* @member_num, i64 0, i64 %78
  %80 = load i32, i32* %79, align 4
  %81 = sext i32 %5 to i64
  %82 = getelementptr inbounds [100000 x i32], [100000 x i32]* @member_num, i64 0, i64 %81
  %83 = load i32, i32* %82, align 4
  %84 = add nsw i32 %80, %83
  %85 = sext i32 %4 to i64
  %86 = getelementptr inbounds [100000 x i32], [100000 x i32]* @member_num, i64 0, i64 %85
  store i32 %84, i32* %86, align 4
  br label %180

87:                                               ; preds = %54, %47
  %88 = sext i32 %4 to i64
  %89 = getelementptr inbounds [100000 x i32], [100000 x i32]* @min_dist, i64 0, i64 %88
  %90 = load i32, i32* %89, align 4
  %91 = load i32, i32* @T, align 4
  %92 = icmp sge i32 %90, %91
  br i1 %92, label %93, label %127

93:                                               ; preds = %87
  %94 = sext i32 %5 to i64
  %95 = getelementptr inbounds [100000 x i32], [100000 x i32]* @min_dist, i64 0, i64 %94
  %96 = load i32, i32* %95, align 4
  %97 = load i32, i32* @T, align 4
  %98 = sub nsw i32 %97, 1
  %99 = icmp sle i32 %96, %98
  br i1 %99, label %100, label %127

100:                                              ; preds = %93
  %101 = sext i32 %4 to i64
  %102 = getelementptr inbounds [100000 x i32], [100000 x i32]* @boss, i64 0, i64 %101
  store i32 %5, i32* %102, align 4
  %103 = sext i32 %5 to i64
  %104 = getelementptr inbounds [100000 x i32], [100000 x i32]* @pre_time, i64 0, i64 %103
  %105 = load i32, i32* %104, align 4
  %106 = sub nsw i32 %105, %2
  %107 = sext i32 %5 to i64
  %108 = getelementptr inbounds [100000 x i32], [100000 x i32]* @member_num, i64 0, i64 %107
  %109 = load i32, i32* %108, align 4
  %110 = mul nsw i32 %106, %109
  %111 = sext i32 %110 to i64
  %112 = sext i32 %5 to i64
  %113 = getelementptr inbounds [100000 x i64], [100000 x i64]* @value, i64 0, i64 %112
  %114 = load i64, i64* %113, align 8
  %115 = add nsw i64 %114, %111
  store i64 %115, i64* %113, align 8
  %116 = sext i32 %5 to i64
  %117 = getelementptr inbounds [100000 x i32], [100000 x i32]* @pre_time, i64 0, i64 %116
  store i32 %2, i32* %117, align 4
  %118 = sext i32 %4 to i64
  %119 = getelementptr inbounds [100000 x i32], [100000 x i32]* @member_num, i64 0, i64 %118
  %120 = load i32, i32* %119, align 4
  %121 = sext i32 %5 to i64
  %122 = getelementptr inbounds [100000 x i32], [100000 x i32]* @member_num, i64 0, i64 %121
  %123 = load i32, i32* %122, align 4
  %124 = add nsw i32 %120, %123
  %125 = sext i32 %5 to i64
  %126 = getelementptr inbounds [100000 x i32], [100000 x i32]* @member_num, i64 0, i64 %125
  store i32 %124, i32* %126, align 4
  br label %179

127:                                              ; preds = %93, %87
  %128 = sext i32 %4 to i64
  %129 = getelementptr inbounds [100000 x i32], [100000 x i32]* @pre_time, i64 0, i64 %128
  %130 = load i32, i32* %129, align 4
  %131 = sub nsw i32 %130, %2
  %132 = sext i32 %4 to i64
  %133 = getelementptr inbounds [100000 x i32], [100000 x i32]* @member_num, i64 0, i64 %132
  %134 = load i32, i32* %133, align 4
  %135 = mul nsw i32 %131, %134
  %136 = sext i32 %135 to i64
  %137 = sext i32 %4 to i64
  %138 = getelementptr inbounds [100000 x i64], [100000 x i64]* @value, i64 0, i64 %137
  %139 = load i64, i64* %138, align 8
  %140 = add nsw i64 %139, %136
  store i64 %140, i64* %138, align 8
  %141 = sext i32 %5 to i64
  %142 = getelementptr inbounds [100000 x i32], [100000 x i32]* @pre_time, i64 0, i64 %141
  %143 = load i32, i32* %142, align 4
  %144 = sub nsw i32 %143, %2
  %145 = sext i32 %5 to i64
  %146 = getelementptr inbounds [100000 x i32], [100000 x i32]* @member_num, i64 0, i64 %145
  %147 = load i32, i32* %146, align 4
  %148 = mul nsw i32 %144, %147
  %149 = sext i32 %148 to i64
  %150 = sext i32 %5 to i64
  %151 = getelementptr inbounds [100000 x i64], [100000 x i64]* @value, i64 0, i64 %150
  %152 = load i64, i64* %151, align 8
  %153 = add nsw i64 %152, %149
  store i64 %153, i64* %151, align 8
  %154 = sext i32 %4 to i64
  %155 = getelementptr inbounds [100000 x i64], [100000 x i64]* @value, i64 0, i64 %154
  %156 = load i64, i64* %155, align 8
  %157 = sext i32 %5 to i64
  %158 = getelementptr inbounds [100000 x i64], [100000 x i64]* @value, i64 0, i64 %157
  %159 = load i64, i64* %158, align 8
  %160 = icmp sge i64 %156, %159
  br i1 %160, label %161, label %164

161:                                              ; preds = %127
  %162 = sext i32 %5 to i64
  %163 = getelementptr inbounds [100000 x i32], [100000 x i32]* @boss, i64 0, i64 %162
  store i32 %4, i32* %163, align 4
  br label %167

164:                                              ; preds = %127
  %165 = sext i32 %4 to i64
  %166 = getelementptr inbounds [100000 x i32], [100000 x i32]* @boss, i64 0, i64 %165
  store i32 %5, i32* %166, align 4
  br label %167

167:                                              ; preds = %164, %161
  %.0 = phi i32 [ %4, %161 ], [ %5, %164 ]
  %168 = sext i32 %.0 to i64
  %169 = getelementptr inbounds [100000 x i32], [100000 x i32]* @pre_time, i64 0, i64 %168
  store i32 %2, i32* %169, align 4
  %170 = sext i32 %4 to i64
  %171 = getelementptr inbounds [100000 x i32], [100000 x i32]* @member_num, i64 0, i64 %170
  %172 = load i32, i32* %171, align 4
  %173 = sext i32 %5 to i64
  %174 = getelementptr inbounds [100000 x i32], [100000 x i32]* @member_num, i64 0, i64 %173
  %175 = load i32, i32* %174, align 4
  %176 = add nsw i32 %172, %175
  %177 = sext i32 %.0 to i64
  %178 = getelementptr inbounds [100000 x i32], [100000 x i32]* @member_num, i64 0, i64 %177
  store i32 %176, i32* %178, align 4
  br label %179

179:                                              ; preds = %167, %100
  br label %180

180:                                              ; preds = %179, %60
  br label %181

181:                                              ; preds = %180, %35
  br label %182

182:                                              ; preds = %181, %7
  ret void
}

; Function Attrs: noinline uwtable
define void @_Z8dijkstrav() #0 personality i8* bitcast (i32 (...)* @__gxx_personality_v0 to i8*) {
  %1 = alloca %"class.std::priority_queue", align 8
  %2 = alloca %struct.Info, align 4
  %3 = alloca %struct.Info, align 4
  store i32 0, i32* getelementptr inbounds ([100000 x i32], [100000 x i32]* @min_dist, i64 0, i64 0), align 16
  br label %4

4:                                                ; preds = %10, %0
  %.0 = phi i32 [ 1, %0 ], [ %11, %10 ]
  %5 = load i32, i32* @N, align 4
  %6 = icmp slt i32 %.0, %5
  br i1 %6, label %7, label %12

7:                                                ; preds = %4
  %8 = sext i32 %.0 to i64
  %9 = getelementptr inbounds [100000 x i32], [100000 x i32]* @min_dist, i64 0, i64 %8
  store i32 2000000000, i32* %9, align 4
  br label %10

10:                                               ; preds = %7
  %11 = add nsw i32 %.0, 1
  br label %4

12:                                               ; preds = %4
  call void @_ZNSt14priority_queueI4InfoSt6vectorIS0_SaIS0_EESt4lessIS0_EEC2IS3_vEEv(%"class.std::priority_queue"* %1)
  invoke void @_ZN4InfoC2Eii(%struct.Info* %2, i32 0, i32 0)
          to label %13 unwind label %34

13:                                               ; preds = %12
  invoke void @_ZNSt14priority_queueI4InfoSt6vectorIS0_SaIS0_EESt4lessIS0_EE4pushEOS0_(%"class.std::priority_queue"* %1, %struct.Info* dereferenceable(8) %2)
          to label %14 unwind label %34

14:                                               ; preds = %13
  br label %15

15:                                               ; preds = %92, %14
  %16 = invoke zeroext i1 @_ZNKSt14priority_queueI4InfoSt6vectorIS0_SaIS0_EESt4lessIS0_EE5emptyEv(%"class.std::priority_queue"* %1)
          to label %17 unwind label %34

17:                                               ; preds = %15
  %18 = xor i1 %16, true
  br i1 %18, label %19, label %93

19:                                               ; preds = %17
  %20 = invoke dereferenceable(8) %struct.Info* @_ZNKSt14priority_queueI4InfoSt6vectorIS0_SaIS0_EESt4lessIS0_EE3topEv(%"class.std::priority_queue"* %1)
          to label %21 unwind label %34

21:                                               ; preds = %19
  %22 = getelementptr inbounds %struct.Info, %struct.Info* %20, i32 0, i32 1
  %23 = load i32, i32* %22, align 4
  %24 = invoke dereferenceable(8) %struct.Info* @_ZNKSt14priority_queueI4InfoSt6vectorIS0_SaIS0_EESt4lessIS0_EE3topEv(%"class.std::priority_queue"* %1)
          to label %25 unwind label %34

25:                                               ; preds = %21
  %26 = getelementptr inbounds %struct.Info, %struct.Info* %24, i32 0, i32 0
  %27 = load i32, i32* %26, align 4
  %28 = sext i32 %27 to i64
  %29 = getelementptr inbounds [100000 x i32], [100000 x i32]* @min_dist, i64 0, i64 %28
  %30 = load i32, i32* %29, align 4
  %31 = icmp sgt i32 %23, %30
  br i1 %31, label %32, label %38

32:                                               ; preds = %25
  invoke void @_ZNSt14priority_queueI4InfoSt6vectorIS0_SaIS0_EESt4lessIS0_EE3popEv(%"class.std::priority_queue"* %1)
          to label %33 unwind label %34

33:                                               ; preds = %32
  br label %92

34:                                               ; preds = %90, %85, %82, %61, %51, %49, %39, %32, %21, %19, %15, %13, %12
  %35 = landingpad { i8*, i32 }
          cleanup
  %36 = extractvalue { i8*, i32 } %35, 0
  %37 = extractvalue { i8*, i32 } %35, 1
  call void @_ZNSt14priority_queueI4InfoSt6vectorIS0_SaIS0_EESt4lessIS0_EED2Ev(%"class.std::priority_queue"* %1) #3
  br label %94

38:                                               ; preds = %25
  br label %39

39:                                               ; preds = %88, %38
  %.01 = phi i32 [ 0, %38 ], [ %89, %88 ]
  %40 = sext i32 %.01 to i64
  %41 = invoke dereferenceable(8) %struct.Info* @_ZNKSt14priority_queueI4InfoSt6vectorIS0_SaIS0_EESt4lessIS0_EE3topEv(%"class.std::priority_queue"* %1)
          to label %42 unwind label %34

42:                                               ; preds = %39
  %43 = getelementptr inbounds %struct.Info, %struct.Info* %41, i32 0, i32 0
  %44 = load i32, i32* %43, align 4
  %45 = sext i32 %44 to i64
  %46 = getelementptr inbounds [100000 x %"class.std::vector"], [100000 x %"class.std::vector"]* @G, i64 0, i64 %45
  %47 = call i64 @_ZNKSt6vectorI4DataSaIS0_EE4sizeEv(%"class.std::vector"* %46) #3
  %48 = icmp ult i64 %40, %47
  br i1 %48, label %49, label %90

49:                                               ; preds = %42
  %50 = invoke dereferenceable(8) %struct.Info* @_ZNKSt14priority_queueI4InfoSt6vectorIS0_SaIS0_EESt4lessIS0_EE3topEv(%"class.std::priority_queue"* %1)
          to label %51 unwind label %34

51:                                               ; preds = %49
  %52 = getelementptr inbounds %struct.Info, %struct.Info* %50, i32 0, i32 0
  %53 = load i32, i32* %52, align 4
  %54 = sext i32 %53 to i64
  %55 = getelementptr inbounds [100000 x %"class.std::vector"], [100000 x %"class.std::vector"]* @G, i64 0, i64 %54
  %56 = sext i32 %.01 to i64
  %57 = call dereferenceable(8) %struct.Data* @_ZNSt6vectorI4DataSaIS0_EEixEm(%"class.std::vector"* %55, i64 %56) #3
  %58 = getelementptr inbounds %struct.Data, %struct.Data* %57, i32 0, i32 0
  %59 = load i32, i32* %58, align 4
  %60 = invoke dereferenceable(8) %struct.Info* @_ZNKSt14priority_queueI4InfoSt6vectorIS0_SaIS0_EESt4lessIS0_EE3topEv(%"class.std::priority_queue"* %1)
          to label %61 unwind label %34

61:                                               ; preds = %51
  %62 = getelementptr inbounds %struct.Info, %struct.Info* %60, i32 0, i32 1
  %63 = load i32, i32* %62, align 4
  %64 = add nsw i32 %63, 1
  %65 = invoke dereferenceable(8) %struct.Info* @_ZNKSt14priority_queueI4InfoSt6vectorIS0_SaIS0_EESt4lessIS0_EE3topEv(%"class.std::priority_queue"* %1)
          to label %66 unwind label %34

66:                                               ; preds = %61
  %67 = getelementptr inbounds %struct.Info, %struct.Info* %65, i32 0, i32 0
  %68 = load i32, i32* %67, align 4
  %69 = sext i32 %68 to i64
  %70 = getelementptr inbounds [100000 x %"class.std::vector"], [100000 x %"class.std::vector"]* @G, i64 0, i64 %69
  %71 = sext i32 %.01 to i64
  %72 = call dereferenceable(8) %struct.Data* @_ZNSt6vectorI4DataSaIS0_EEixEm(%"class.std::vector"* %70, i64 %71) #3
  %73 = getelementptr inbounds %struct.Data, %struct.Data* %72, i32 0, i32 1
  %74 = load i32, i32* %73, align 4
  %75 = icmp sgt i32 %64, %74
  br i1 %75, label %76, label %77

76:                                               ; preds = %66
  br label %88

77:                                               ; preds = %66
  %78 = sext i32 %59 to i64
  %79 = getelementptr inbounds [100000 x i32], [100000 x i32]* @min_dist, i64 0, i64 %78
  %80 = load i32, i32* %79, align 4
  %81 = icmp sgt i32 %80, %64
  br i1 %81, label %82, label %87

82:                                               ; preds = %77
  %83 = sext i32 %59 to i64
  %84 = getelementptr inbounds [100000 x i32], [100000 x i32]* @min_dist, i64 0, i64 %83
  store i32 %64, i32* %84, align 4
  invoke void @_ZN4InfoC2Eii(%struct.Info* %3, i32 %59, i32 %64)
          to label %85 unwind label %34

85:                                               ; preds = %82
  invoke void @_ZNSt14priority_queueI4InfoSt6vectorIS0_SaIS0_EESt4lessIS0_EE4pushEOS0_(%"class.std::priority_queue"* %1, %struct.Info* dereferenceable(8) %3)
          to label %86 unwind label %34

86:                                               ; preds = %85
  br label %87

87:                                               ; preds = %86, %77
  br label %88

88:                                               ; preds = %87, %76
  %89 = add nsw i32 %.01, 1
  br label %39

90:                                               ; preds = %42
  invoke void @_ZNSt14priority_queueI4InfoSt6vectorIS0_SaIS0_EESt4lessIS0_EE3popEv(%"class.std::priority_queue"* %1)
          to label %91 unwind label %34

91:                                               ; preds = %90
  br label %92

92:                                               ; preds = %91, %33
  br label %15

93:                                               ; preds = %17
  call void @_ZNSt14priority_queueI4InfoSt6vectorIS0_SaIS0_EESt4lessIS0_EED2Ev(%"class.std::priority_queue"* %1) #3
  ret void

94:                                               ; preds = %34
  %95 = insertvalue { i8*, i32 } undef, i8* %36, 0
  %96 = insertvalue { i8*, i32 } %95, i32 %37, 1
  resume { i8*, i32 } %96
}

; Function Attrs: noinline nounwind uwtable
define linkonce_odr void @_ZNSt14priority_queueI4InfoSt6vectorIS0_SaIS0_EESt4lessIS0_EEC2IS3_vEEv(%"class.std::priority_queue"* %0) unnamed_addr #4 comdat align 2 {
  %2 = getelementptr inbounds %"class.std::priority_queue", %"class.std::priority_queue"* %0, i32 0, i32 0
  call void @_ZNSt6vectorI4InfoSaIS0_EEC2Ev(%"class.std::vector.0"* %2) #3
  %3 = getelementptr inbounds %"class.std::priority_queue", %"class.std::priority_queue"* %0, i32 0, i32 1
  ret void
}

; Function Attrs: noinline uwtable
define linkonce_odr void @_ZNSt14priority_queueI4InfoSt6vectorIS0_SaIS0_EESt4lessIS0_EE4pushEOS0_(%"class.std::priority_queue"* %0, %struct.Info* dereferenceable(8) %1) #0 comdat align 2 {
  %3 = alloca %"class.__gnu_cxx::__normal_iterator", align 8
  %4 = alloca %"class.__gnu_cxx::__normal_iterator", align 8
  %5 = getelementptr inbounds %"class.std::priority_queue", %"class.std::priority_queue"* %0, i32 0, i32 0
  %6 = call dereferenceable(8) %struct.Info* @_ZSt4moveIR4InfoEONSt16remove_referenceIT_E4typeEOS3_(%struct.Info* dereferenceable(8) %1) #3
  call void @_ZNSt6vectorI4InfoSaIS0_EE9push_backEOS0_(%"class.std::vector.0"* %5, %struct.Info* dereferenceable(8) %6)
  %7 = getelementptr inbounds %"class.std::priority_queue", %"class.std::priority_queue"* %0, i32 0, i32 0
  %8 = call %struct.Info* @_ZNSt6vectorI4InfoSaIS0_EE5beginEv(%"class.std::vector.0"* %7) #3
  %9 = getelementptr inbounds %"class.__gnu_cxx::__normal_iterator", %"class.__gnu_cxx::__normal_iterator"* %3, i32 0, i32 0
  store %struct.Info* %8, %struct.Info** %9, align 8
  %10 = getelementptr inbounds %"class.std::priority_queue", %"class.std::priority_queue"* %0, i32 0, i32 0
  %11 = call %struct.Info* @_ZNSt6vectorI4InfoSaIS0_EE3endEv(%"class.std::vector.0"* %10) #3
  %12 = getelementptr inbounds %"class.__gnu_cxx::__normal_iterator", %"class.__gnu_cxx::__normal_iterator"* %4, i32 0, i32 0
  store %struct.Info* %11, %struct.Info** %12, align 8
  %13 = getelementptr inbounds %"class.std::priority_queue", %"class.std::priority_queue"* %0, i32 0, i32 1
  %14 = getelementptr inbounds %"class.__gnu_cxx::__normal_iterator", %"class.__gnu_cxx::__normal_iterator"* %3, i32 0, i32 0
  %15 = load %struct.Info*, %struct.Info** %14, align 8
  %16 = getelementptr inbounds %"class.__gnu_cxx::__normal_iterator", %"class.__gnu_cxx::__normal_iterator"* %4, i32 0, i32 0
  %17 = load %struct.Info*, %struct.Info** %16, align 8
  call void @_ZSt9push_heapIN9__gnu_cxx17__normal_iteratorIP4InfoSt6vectorIS2_SaIS2_EEEESt4lessIS2_EEvT_SA_T0_(%struct.Info* %15, %struct.Info* %17)
  ret void
}

; Function Attrs: noinline nounwind uwtable
define linkonce_odr void @_ZN4InfoC2Eii(%struct.Info* %0, i32 %1, i32 %2) unnamed_addr #4 comdat align 2 {
  %4 = getelementptr inbounds %struct.Info, %struct.Info* %0, i32 0, i32 0
  store i32 %1, i32* %4, align 4
  %5 = getelementptr inbounds %struct.Info, %struct.Info* %0, i32 0, i32 1
  store i32 %2, i32* %5, align 4
  ret void
}

declare i32 @__gxx_personality_v0(...)

; Function Attrs: noinline nounwind uwtable
define linkonce_odr zeroext i1 @_ZNKSt14priority_queueI4InfoSt6vectorIS0_SaIS0_EESt4lessIS0_EE5emptyEv(%"class.std::priority_queue"* %0) #4 comdat align 2 {
  %2 = getelementptr inbounds %"class.std::priority_queue", %"class.std::priority_queue"* %0, i32 0, i32 0
  %3 = call zeroext i1 @_ZNKSt6vectorI4InfoSaIS0_EE5emptyEv(%"class.std::vector.0"* %2) #3
  ret i1 %3
}

; Function Attrs: noinline nounwind uwtable
define linkonce_odr dereferenceable(8) %struct.Info* @_ZNKSt14priority_queueI4InfoSt6vectorIS0_SaIS0_EESt4lessIS0_EE3topEv(%"class.std::priority_queue"* %0) #4 comdat align 2 {
  %2 = getelementptr inbounds %"class.std::priority_queue", %"class.std::priority_queue"* %0, i32 0, i32 0
  %3 = call dereferenceable(8) %struct.Info* @_ZNKSt6vectorI4InfoSaIS0_EE5frontEv(%"class.std::vector.0"* %2) #3
  ret %struct.Info* %3
}

; Function Attrs: noinline uwtable
define linkonce_odr void @_ZNSt14priority_queueI4InfoSt6vectorIS0_SaIS0_EESt4lessIS0_EE3popEv(%"class.std::priority_queue"* %0) #0 comdat align 2 {
  %2 = alloca %"class.__gnu_cxx::__normal_iterator", align 8
  %3 = alloca %"class.__gnu_cxx::__normal_iterator", align 8
  %4 = getelementptr inbounds %"class.std::priority_queue", %"class.std::priority_queue"* %0, i32 0, i32 0
  %5 = call %struct.Info* @_ZNSt6vectorI4InfoSaIS0_EE5beginEv(%"class.std::vector.0"* %4) #3
  %6 = getelementptr inbounds %"class.__gnu_cxx::__normal_iterator", %"class.__gnu_cxx::__normal_iterator"* %2, i32 0, i32 0
  store %struct.Info* %5, %struct.Info** %6, align 8
  %7 = getelementptr inbounds %"class.std::priority_queue", %"class.std::priority_queue"* %0, i32 0, i32 0
  %8 = call %struct.Info* @_ZNSt6vectorI4InfoSaIS0_EE3endEv(%"class.std::vector.0"* %7) #3
  %9 = getelementptr inbounds %"class.__gnu_cxx::__normal_iterator", %"class.__gnu_cxx::__normal_iterator"* %3, i32 0, i32 0
  store %struct.Info* %8, %struct.Info** %9, align 8
  %10 = getelementptr inbounds %"class.std::priority_queue", %"class.std::priority_queue"* %0, i32 0, i32 1
  %11 = getelementptr inbounds %"class.__gnu_cxx::__normal_iterator", %"class.__gnu_cxx::__normal_iterator"* %2, i32 0, i32 0
  %12 = load %struct.Info*, %struct.Info** %11, align 8
  %13 = getelementptr inbounds %"class.__gnu_cxx::__normal_iterator", %"class.__gnu_cxx::__normal_iterator"* %3, i32 0, i32 0
  %14 = load %struct.Info*, %struct.Info** %13, align 8
  call void @_ZSt8pop_heapIN9__gnu_cxx17__normal_iteratorIP4InfoSt6vectorIS2_SaIS2_EEEESt4lessIS2_EEvT_SA_T0_(%struct.Info* %12, %struct.Info* %14)
  %15 = getelementptr inbounds %"class.std::priority_queue", %"class.std::priority_queue"* %0, i32 0, i32 0
  call void @_ZNSt6vectorI4InfoSaIS0_EE8pop_backEv(%"class.std::vector.0"* %15) #3
  ret void
}

; Function Attrs: noinline nounwind uwtable
define linkonce_odr i64 @_ZNKSt6vectorI4DataSaIS0_EE4sizeEv(%"class.std::vector"* %0) #4 comdat align 2 {
  %2 = bitcast %"class.std::vector"* %0 to %"struct.std::_Vector_base"*
  %3 = getelementptr inbounds %"struct.std::_Vector_base", %"struct.std::_Vector_base"* %2, i32 0, i32 0
  %4 = getelementptr inbounds %"struct.std::_Vector_base<Data, std::allocator<Data> >::_Vector_impl", %"struct.std::_Vector_base<Data, std::allocator<Data> >::_Vector_impl"* %3, i32 0, i32 1
  %5 = load %struct.Data*, %struct.Data** %4, align 8
  %6 = bitcast %"class.std::vector"* %0 to %"struct.std::_Vector_base"*
  %7 = getelementptr inbounds %"struct.std::_Vector_base", %"struct.std::_Vector_base"* %6, i32 0, i32 0
  %8 = getelementptr inbounds %"struct.std::_Vector_base<Data, std::allocator<Data> >::_Vector_impl", %"struct.std::_Vector_base<Data, std::allocator<Data> >::_Vector_impl"* %7, i32 0, i32 0
  %9 = load %struct.Data*, %struct.Data** %8, align 8
  %10 = ptrtoint %struct.Data* %5 to i64
  %11 = ptrtoint %struct.Data* %9 to i64
  %12 = sub i64 %10, %11
  %13 = sdiv exact i64 %12, 8
  ret i64 %13
}

; Function Attrs: noinline nounwind uwtable
define linkonce_odr dereferenceable(8) %struct.Data* @_ZNSt6vectorI4DataSaIS0_EEixEm(%"class.std::vector"* %0, i64 %1) #4 comdat align 2 {
  %3 = bitcast %"class.std::vector"* %0 to %"struct.std::_Vector_base"*
  %4 = getelementptr inbounds %"struct.std::_Vector_base", %"struct.std::_Vector_base"* %3, i32 0, i32 0
  %5 = getelementptr inbounds %"struct.std::_Vector_base<Data, std::allocator<Data> >::_Vector_impl", %"struct.std::_Vector_base<Data, std::allocator<Data> >::_Vector_impl"* %4, i32 0, i32 0
  %6 = load %struct.Data*, %struct.Data** %5, align 8
  %7 = getelementptr inbounds %struct.Data, %struct.Data* %6, i64 %1
  ret %struct.Data* %7
}

; Function Attrs: noinline nounwind uwtable
define linkonce_odr void @_ZNSt14priority_queueI4InfoSt6vectorIS0_SaIS0_EESt4lessIS0_EED2Ev(%"class.std::priority_queue"* %0) unnamed_addr #4 comdat align 2 {
  %2 = getelementptr inbounds %"class.std::priority_queue", %"class.std::priority_queue"* %0, i32 0, i32 0
  call void @_ZNSt6vectorI4InfoSaIS0_EED2Ev(%"class.std::vector.0"* %2) #3
  ret void
}

; Function Attrs: noinline norecurse uwtable
define i32 @main() #5 personality i8* bitcast (i32 (...)* @__gxx_personality_v0 to i8*) {
  %1 = alloca i32, align 4
  %2 = alloca i32, align 4
  %3 = alloca i32, align 4
  %4 = alloca %"class.std::priority_queue.5", align 8
  %5 = alloca %struct.Edge, align 4
  %6 = alloca %struct.Data, align 4
  %7 = alloca %struct.Data, align 4
  %8 = alloca i64, align 8
  %9 = call i32 (i8*, ...) @scanf(i8* getelementptr inbounds ([9 x i8], [9 x i8]* @.str, i32 0, i32 0), i32* @N, i32* @M, i32* @T)
  call void @_ZNSt14priority_queueI4EdgeSt6vectorIS0_SaIS0_EESt4lessIS0_EEC2IS3_vEEv(%"class.std::priority_queue.5"* %4)
  br label %10

10:                                               ; preds = %41, %0
  %.0 = phi i32 [ 0, %0 ], [ %42, %41 ]
  %11 = load i32, i32* @M, align 4
  %12 = icmp slt i32 %.0, %11
  br i1 %12, label %13, label %47

13:                                               ; preds = %10
  %14 = invoke i32 (i8*, ...) @scanf(i8* getelementptr inbounds ([9 x i8], [9 x i8]* @.str, i32 0, i32 0), i32* %1, i32* %2, i32* %3)
          to label %15 unwind label %43

15:                                               ; preds = %13
  %16 = load i32, i32* %1, align 4
  %17 = add nsw i32 %16, -1
  store i32 %17, i32* %1, align 4
  %18 = load i32, i32* %2, align 4
  %19 = add nsw i32 %18, -1
  store i32 %19, i32* %2, align 4
  %20 = load i32, i32* %3, align 4
  %21 = add nsw i32 %20, -1
  store i32 %21, i32* %3, align 4
  %22 = load i32, i32* %1, align 4
  %23 = load i32, i32* %2, align 4
  %24 = load i32, i32* %3, align 4
  invoke void @_ZN4EdgeC2Eiii(%struct.Edge* %5, i32 %22, i32 %23, i32 %24)
          to label %25 unwind label %43

25:                                               ; preds = %15
  invoke void @_ZNSt14priority_queueI4EdgeSt6vectorIS0_SaIS0_EESt4lessIS0_EE4pushEOS0_(%"class.std::priority_queue.5"* %4, %struct.Edge* dereferenceable(12) %5)
          to label %26 unwind label %43

26:                                               ; preds = %25
  %27 = load i32, i32* %1, align 4
  %28 = sext i32 %27 to i64
  %29 = getelementptr inbounds [100000 x %"class.std::vector"], [100000 x %"class.std::vector"]* @G, i64 0, i64 %28
  %30 = load i32, i32* %2, align 4
  %31 = load i32, i32* %3, align 4
  invoke void @_ZN4DataC2Eii(%struct.Data* %6, i32 %30, i32 %31)
          to label %32 unwind label %43

32:                                               ; preds = %26
  invoke void @_ZNSt6vectorI4DataSaIS0_EE9push_backEOS0_(%"class.std::vector"* %29, %struct.Data* dereferenceable(8) %6)
          to label %33 unwind label %43

33:                                               ; preds = %32
  %34 = load i32, i32* %2, align 4
  %35 = sext i32 %34 to i64
  %36 = getelementptr inbounds [100000 x %"class.std::vector"], [100000 x %"class.std::vector"]* @G, i64 0, i64 %35
  %37 = load i32, i32* %1, align 4
  %38 = load i32, i32* %3, align 4
  invoke void @_ZN4DataC2Eii(%struct.Data* %7, i32 %37, i32 %38)
          to label %39 unwind label %43

39:                                               ; preds = %33
  invoke void @_ZNSt6vectorI4DataSaIS0_EE9push_backEOS0_(%"class.std::vector"* %36, %struct.Data* dereferenceable(8) %7)
          to label %40 unwind label %43

40:                                               ; preds = %39
  br label %41

41:                                               ; preds = %40
  %42 = add nsw i32 %.0, 1
  br label %10

43:                                               ; preds = %123, %101, %89, %83, %80, %76, %72, %70, %66, %47, %39, %33, %32, %26, %25, %15, %13
  %44 = landingpad { i8*, i32 }
          cleanup
  %45 = extractvalue { i8*, i32 } %44, 0
  %46 = extractvalue { i8*, i32 } %44, 1
  call void @_ZNSt14priority_queueI4EdgeSt6vectorIS0_SaIS0_EESt4lessIS0_EED2Ev(%"class.std::priority_queue.5"* %4) #3
  br label %127

47:                                               ; preds = %10
  invoke void @_Z8dijkstrav()
          to label %48 unwind label %43

48:                                               ; preds = %47
  br label %49

49:                                               ; preds = %63, %48
  %.02 = phi i32 [ 0, %48 ], [ %64, %63 ]
  %50 = load i32, i32* @N, align 4
  %51 = icmp slt i32 %.02, %50
  br i1 %51, label %52, label %65

52:                                               ; preds = %49
  %53 = sext i32 %.02 to i64
  %54 = getelementptr inbounds [100000 x i32], [100000 x i32]* @boss, i64 0, i64 %53
  store i32 %.02, i32* %54, align 4
  %55 = load i32, i32* @T, align 4
  %56 = sub nsw i32 %55, 1
  %57 = sext i32 %.02 to i64
  %58 = getelementptr inbounds [100000 x i32], [100000 x i32]* @pre_time, i64 0, i64 %57
  store i32 %56, i32* %58, align 4
  %59 = sext i32 %.02 to i64
  %60 = getelementptr inbounds [100000 x i32], [100000 x i32]* @member_num, i64 0, i64 %59
  store i32 1, i32* %60, align 4
  %61 = sext i32 %.02 to i64
  %62 = getelementptr inbounds [100000 x i64], [100000 x i64]* @value, i64 0, i64 %61
  store i64 0, i64* %62, align 8
  br label %63

63:                                               ; preds = %52
  %64 = add nsw i32 %.02, 1
  br label %49

65:                                               ; preds = %49
  br label %66

66:                                               ; preds = %84, %65
  %67 = invoke zeroext i1 @_ZNKSt14priority_queueI4EdgeSt6vectorIS0_SaIS0_EESt4lessIS0_EE5emptyEv(%"class.std::priority_queue.5"* %4)
          to label %68 unwind label %43

68:                                               ; preds = %66
  %69 = xor i1 %67, true
  br i1 %69, label %70, label %85

70:                                               ; preds = %68
  %71 = invoke dereferenceable(12) %struct.Edge* @_ZNKSt14priority_queueI4EdgeSt6vectorIS0_SaIS0_EESt4lessIS0_EE3topEv(%"class.std::priority_queue.5"* %4)
          to label %72 unwind label %43

72:                                               ; preds = %70
  %73 = getelementptr inbounds %struct.Edge, %struct.Edge* %71, i32 0, i32 0
  %74 = load i32, i32* %73, align 4
  %75 = invoke dereferenceable(12) %struct.Edge* @_ZNKSt14priority_queueI4EdgeSt6vectorIS0_SaIS0_EESt4lessIS0_EE3topEv(%"class.std::priority_queue.5"* %4)
          to label %76 unwind label %43

76:                                               ; preds = %72
  %77 = getelementptr inbounds %struct.Edge, %struct.Edge* %75, i32 0, i32 1
  %78 = load i32, i32* %77, align 4
  %79 = invoke dereferenceable(12) %struct.Edge* @_ZNKSt14priority_queueI4EdgeSt6vectorIS0_SaIS0_EESt4lessIS0_EE3topEv(%"class.std::priority_queue.5"* %4)
          to label %80 unwind label %43

80:                                               ; preds = %76
  %81 = getelementptr inbounds %struct.Edge, %struct.Edge* %79, i32 0, i32 2
  %82 = load i32, i32* %81, align 4
  invoke void @_Z5uniteiii(i32 %74, i32 %78, i32 %82)
          to label %83 unwind label %43

83:                                               ; preds = %80
  invoke void @_ZNSt14priority_queueI4EdgeSt6vectorIS0_SaIS0_EESt4lessIS0_EE3popEv(%"class.std::priority_queue.5"* %4)
          to label %84 unwind label %43

84:                                               ; preds = %83
  br label %66

85:                                               ; preds = %68
  store i64 0, i64* %8, align 8
  br label %86

86:                                               ; preds = %121, %85
  %.01 = phi i32 [ 0, %85 ], [ %122, %121 ]
  %87 = load i32, i32* @N, align 4
  %88 = icmp slt i32 %.01, %87
  br i1 %88, label %89, label %123

89:                                               ; preds = %86
  %90 = invoke i32 @_Z8get_bossi(i32 %.01)
          to label %91 unwind label %43

91:                                               ; preds = %89
  %92 = icmp ne i32 %90, %.01
  br i1 %92, label %93, label %94

93:                                               ; preds = %91
  br label %121

94:                                               ; preds = %91
  %95 = sext i32 %90 to i64
  %96 = getelementptr inbounds [100000 x i32], [100000 x i32]* @min_dist, i64 0, i64 %95
  %97 = load i32, i32* %96, align 4
  %98 = load i32, i32* @T, align 4
  %99 = icmp sge i32 %97, %98
  br i1 %99, label %100, label %101

100:                                              ; preds = %94
  br label %121

101:                                              ; preds = %94
  %102 = sext i32 %90 to i64
  %103 = getelementptr inbounds [100000 x i32], [100000 x i32]* @pre_time, i64 0, i64 %102
  %104 = load i32, i32* %103, align 4
  %105 = sub nsw i32 %104, 0
  %106 = add nsw i32 %105, 1
  %107 = sext i32 %90 to i64
  %108 = getelementptr inbounds [100000 x i32], [100000 x i32]* @member_num, i64 0, i64 %107
  %109 = load i32, i32* %108, align 4
  %110 = mul nsw i32 %106, %109
  %111 = sext i32 %110 to i64
  %112 = sext i32 %90 to i64
  %113 = getelementptr inbounds [100000 x i64], [100000 x i64]* @value, i64 0, i64 %112
  %114 = load i64, i64* %113, align 8
  %115 = add nsw i64 %114, %111
  store i64 %115, i64* %113, align 8
  %116 = sext i32 %90 to i64
  %117 = getelementptr inbounds [100000 x i64], [100000 x i64]* @value, i64 0, i64 %116
  %118 = invoke dereferenceable(8) i64* @_ZSt3maxIxERKT_S2_S2_(i64* dereferenceable(8) %8, i64* dereferenceable(8) %117)
          to label %119 unwind label %43

119:                                              ; preds = %101
  %120 = load i64, i64* %118, align 8
  store i64 %120, i64* %8, align 8
  br label %121

121:                                              ; preds = %119, %100, %93
  %122 = add nsw i32 %.01, 1
  br label %86

123:                                              ; preds = %86
  %124 = load i64, i64* %8, align 8
  %125 = invoke i32 (i8*, ...) @printf(i8* getelementptr inbounds ([6 x i8], [6 x i8]* @.str.2, i32 0, i32 0), i64 %124)
          to label %126 unwind label %43

126:                                              ; preds = %123
  call void @_ZNSt14priority_queueI4EdgeSt6vectorIS0_SaIS0_EESt4lessIS0_EED2Ev(%"class.std::priority_queue.5"* %4) #3
  ret i32 0

127:                                              ; preds = %43
  %128 = insertvalue { i8*, i32 } undef, i8* %45, 0
  %129 = insertvalue { i8*, i32 } %128, i32 %46, 1
  resume { i8*, i32 } %129
}

declare i32 @scanf(i8*, ...) #1

; Function Attrs: noinline nounwind uwtable
define linkonce_odr void @_ZNSt14priority_queueI4EdgeSt6vectorIS0_SaIS0_EESt4lessIS0_EEC2IS3_vEEv(%"class.std::priority_queue.5"* %0) unnamed_addr #4 comdat align 2 {
  %2 = getelementptr inbounds %"class.std::priority_queue.5", %"class.std::priority_queue.5"* %0, i32 0, i32 0
  call void @_ZNSt6vectorI4EdgeSaIS0_EEC2Ev(%"class.std::vector.6"* %2) #3
  %3 = getelementptr inbounds %"class.std::priority_queue.5", %"class.std::priority_queue.5"* %0, i32 0, i32 1
  ret void
}

; Function Attrs: noinline uwtable
define linkonce_odr void @_ZNSt14priority_queueI4EdgeSt6vectorIS0_SaIS0_EESt4lessIS0_EE4pushEOS0_(%"class.std::priority_queue.5"* %0, %struct.Edge* dereferenceable(12) %1) #0 comdat align 2 {
  %3 = alloca %"class.__gnu_cxx::__normal_iterator.15", align 8
  %4 = alloca %"class.__gnu_cxx::__normal_iterator.15", align 8
  %5 = getelementptr inbounds %"class.std::priority_queue.5", %"class.std::priority_queue.5"* %0, i32 0, i32 0
  %6 = call dereferenceable(12) %struct.Edge* @_ZSt4moveIR4EdgeEONSt16remove_referenceIT_E4typeEOS3_(%struct.Edge* dereferenceable(12) %1) #3
  call void @_ZNSt6vectorI4EdgeSaIS0_EE9push_backEOS0_(%"class.std::vector.6"* %5, %struct.Edge* dereferenceable(12) %6)
  %7 = getelementptr inbounds %"class.std::priority_queue.5", %"class.std::priority_queue.5"* %0, i32 0, i32 0
  %8 = call %struct.Edge* @_ZNSt6vectorI4EdgeSaIS0_EE5beginEv(%"class.std::vector.6"* %7) #3
  %9 = getelementptr inbounds %"class.__gnu_cxx::__normal_iterator.15", %"class.__gnu_cxx::__normal_iterator.15"* %3, i32 0, i32 0
  store %struct.Edge* %8, %struct.Edge** %9, align 8
  %10 = getelementptr inbounds %"class.std::priority_queue.5", %"class.std::priority_queue.5"* %0, i32 0, i32 0
  %11 = call %struct.Edge* @_ZNSt6vectorI4EdgeSaIS0_EE3endEv(%"class.std::vector.6"* %10) #3
  %12 = getelementptr inbounds %"class.__gnu_cxx::__normal_iterator.15", %"class.__gnu_cxx::__normal_iterator.15"* %4, i32 0, i32 0
  store %struct.Edge* %11, %struct.Edge** %12, align 8
  %13 = getelementptr inbounds %"class.std::priority_queue.5", %"class.std::priority_queue.5"* %0, i32 0, i32 1
  %14 = getelementptr inbounds %"class.__gnu_cxx::__normal_iterator.15", %"class.__gnu_cxx::__normal_iterator.15"* %3, i32 0, i32 0
  %15 = load %struct.Edge*, %struct.Edge** %14, align 8
  %16 = getelementptr inbounds %"class.__gnu_cxx::__normal_iterator.15", %"class.__gnu_cxx::__normal_iterator.15"* %4, i32 0, i32 0
  %17 = load %struct.Edge*, %struct.Edge** %16, align 8
  call void @_ZSt9push_heapIN9__gnu_cxx17__normal_iteratorIP4EdgeSt6vectorIS2_SaIS2_EEEESt4lessIS2_EEvT_SA_T0_(%struct.Edge* %15, %struct.Edge* %17)
  ret void
}

; Function Attrs: noinline nounwind uwtable
define linkonce_odr void @_ZN4EdgeC2Eiii(%struct.Edge* %0, i32 %1, i32 %2, i32 %3) unnamed_addr #4 comdat align 2 {
  %5 = getelementptr inbounds %struct.Edge, %struct.Edge* %0, i32 0, i32 0
  store i32 %1, i32* %5, align 4
  %6 = getelementptr inbounds %struct.Edge, %struct.Edge* %0, i32 0, i32 1
  store i32 %2, i32* %6, align 4
  %7 = getelementptr inbounds %struct.Edge, %struct.Edge* %0, i32 0, i32 2
  store i32 %3, i32* %7, align 4
  ret void
}

; Function Attrs: noinline uwtable
define linkonce_odr void @_ZNSt6vectorI4DataSaIS0_EE9push_backEOS0_(%"class.std::vector"* %0, %struct.Data* dereferenceable(8) %1) #0 comdat align 2 {
  %3 = call dereferenceable(8) %struct.Data* @_ZSt4moveIR4DataEONSt16remove_referenceIT_E4typeEOS3_(%struct.Data* dereferenceable(8) %1) #3
  call void @_ZNSt6vectorI4DataSaIS0_EE12emplace_backIJS0_EEEvDpOT_(%"class.std::vector"* %0, %struct.Data* dereferenceable(8) %3)
  ret void
}

; Function Attrs: noinline nounwind uwtable
define linkonce_odr void @_ZN4DataC2Eii(%struct.Data* %0, i32 %1, i32 %2) unnamed_addr #4 comdat align 2 {
  %4 = getelementptr inbounds %struct.Data, %struct.Data* %0, i32 0, i32 0
  store i32 %1, i32* %4, align 4
  %5 = getelementptr inbounds %struct.Data, %struct.Data* %0, i32 0, i32 1
  store i32 %2, i32* %5, align 4
  ret void
}

; Function Attrs: noinline nounwind uwtable
define linkonce_odr zeroext i1 @_ZNKSt14priority_queueI4EdgeSt6vectorIS0_SaIS0_EESt4lessIS0_EE5emptyEv(%"class.std::priority_queue.5"* %0) #4 comdat align 2 {
  %2 = getelementptr inbounds %"class.std::priority_queue.5", %"class.std::priority_queue.5"* %0, i32 0, i32 0
  %3 = call zeroext i1 @_ZNKSt6vectorI4EdgeSaIS0_EE5emptyEv(%"class.std::vector.6"* %2) #3
  ret i1 %3
}

; Function Attrs: noinline nounwind uwtable
define linkonce_odr dereferenceable(12) %struct.Edge* @_ZNKSt14priority_queueI4EdgeSt6vectorIS0_SaIS0_EESt4lessIS0_EE3topEv(%"class.std::priority_queue.5"* %0) #4 comdat align 2 {
  %2 = getelementptr inbounds %"class.std::priority_queue.5", %"class.std::priority_queue.5"* %0, i32 0, i32 0
  %3 = call dereferenceable(12) %struct.Edge* @_ZNKSt6vectorI4EdgeSaIS0_EE5frontEv(%"class.std::vector.6"* %2) #3
  ret %struct.Edge* %3
}

; Function Attrs: noinline uwtable
define linkonce_odr void @_ZNSt14priority_queueI4EdgeSt6vectorIS0_SaIS0_EESt4lessIS0_EE3popEv(%"class.std::priority_queue.5"* %0) #0 comdat align 2 {
  %2 = alloca %"class.__gnu_cxx::__normal_iterator.15", align 8
  %3 = alloca %"class.__gnu_cxx::__normal_iterator.15", align 8
  %4 = getelementptr inbounds %"class.std::priority_queue.5", %"class.std::priority_queue.5"* %0, i32 0, i32 0
  %5 = call %struct.Edge* @_ZNSt6vectorI4EdgeSaIS0_EE5beginEv(%"class.std::vector.6"* %4) #3
  %6 = getelementptr inbounds %"class.__gnu_cxx::__normal_iterator.15", %"class.__gnu_cxx::__normal_iterator.15"* %2, i32 0, i32 0
  store %struct.Edge* %5, %struct.Edge** %6, align 8
  %7 = getelementptr inbounds %"class.std::priority_queue.5", %"class.std::priority_queue.5"* %0, i32 0, i32 0
  %8 = call %struct.Edge* @_ZNSt6vectorI4EdgeSaIS0_EE3endEv(%"class.std::vector.6"* %7) #3
  %9 = getelementptr inbounds %"class.__gnu_cxx::__normal_iterator.15", %"class.__gnu_cxx::__normal_iterator.15"* %3, i32 0, i32 0
  store %struct.Edge* %8, %struct.Edge** %9, align 8
  %10 = getelementptr inbounds %"class.std::priority_queue.5", %"class.std::priority_queue.5"* %0, i32 0, i32 1
  %11 = getelementptr inbounds %"class.__gnu_cxx::__normal_iterator.15", %"class.__gnu_cxx::__normal_iterator.15"* %2, i32 0, i32 0
  %12 = load %struct.Edge*, %struct.Edge** %11, align 8
  %13 = getelementptr inbounds %"class.__gnu_cxx::__normal_iterator.15", %"class.__gnu_cxx::__normal_iterator.15"* %3, i32 0, i32 0
  %14 = load %struct.Edge*, %struct.Edge** %13, align 8
  call void @_ZSt8pop_heapIN9__gnu_cxx17__normal_iteratorIP4EdgeSt6vectorIS2_SaIS2_EEEESt4lessIS2_EEvT_SA_T0_(%struct.Edge* %12, %struct.Edge* %14)
  %15 = getelementptr inbounds %"class.std::priority_queue.5", %"class.std::priority_queue.5"* %0, i32 0, i32 0
  call void @_ZNSt6vectorI4EdgeSaIS0_EE8pop_backEv(%"class.std::vector.6"* %15) #3
  ret void
}

; Function Attrs: noinline nounwind uwtable
define linkonce_odr dereferenceable(8) i64* @_ZSt3maxIxERKT_S2_S2_(i64* dereferenceable(8) %0, i64* dereferenceable(8) %1) #4 comdat {
  %3 = load i64, i64* %0, align 8
  %4 = load i64, i64* %1, align 8
  %5 = icmp slt i64 %3, %4
  br i1 %5, label %6, label %7

6:                                                ; preds = %2
  br label %8

7:                                                ; preds = %2
  br label %8

8:                                                ; preds = %7, %6
  %.0 = phi i64* [ %1, %6 ], [ %0, %7 ]
  ret i64* %.0
}

declare i32 @printf(i8*, ...) #1

; Function Attrs: noinline nounwind uwtable
define linkonce_odr void @_ZNSt14priority_queueI4EdgeSt6vectorIS0_SaIS0_EESt4lessIS0_EED2Ev(%"class.std::priority_queue.5"* %0) unnamed_addr #4 comdat align 2 {
  %2 = getelementptr inbounds %"class.std::priority_queue.5", %"class.std::priority_queue.5"* %0, i32 0, i32 0
  call void @_ZNSt6vectorI4EdgeSaIS0_EED2Ev(%"class.std::vector.6"* %2) #3
  ret void
}

; Function Attrs: noinline nounwind uwtable
define linkonce_odr void @_ZNSt6vectorI4InfoSaIS0_EED2Ev(%"class.std::vector.0"* %0) unnamed_addr #4 comdat align 2 personality i8* bitcast (i32 (...)* @__gxx_personality_v0 to i8*) {
  %2 = bitcast %"class.std::vector.0"* %0 to %"struct.std::_Vector_base.1"*
  %3 = getelementptr inbounds %"struct.std::_Vector_base.1", %"struct.std::_Vector_base.1"* %2, i32 0, i32 0
  %4 = getelementptr inbounds %"struct.std::_Vector_base<Info, std::allocator<Info> >::_Vector_impl", %"struct.std::_Vector_base<Info, std::allocator<Info> >::_Vector_impl"* %3, i32 0, i32 0
  %5 = load %struct.Info*, %struct.Info** %4, align 8
  %6 = bitcast %"class.std::vector.0"* %0 to %"struct.std::_Vector_base.1"*
  %7 = getelementptr inbounds %"struct.std::_Vector_base.1", %"struct.std::_Vector_base.1"* %6, i32 0, i32 0
  %8 = getelementptr inbounds %"struct.std::_Vector_base<Info, std::allocator<Info> >::_Vector_impl", %"struct.std::_Vector_base<Info, std::allocator<Info> >::_Vector_impl"* %7, i32 0, i32 1
  %9 = load %struct.Info*, %struct.Info** %8, align 8
  %10 = bitcast %"class.std::vector.0"* %0 to %"struct.std::_Vector_base.1"*
  %11 = call dereferenceable(1) %"class.std::allocator.2"* @_ZNSt12_Vector_baseI4InfoSaIS0_EE19_M_get_Tp_allocatorEv(%"struct.std::_Vector_base.1"* %10) #3
  invoke void @_ZSt8_DestroyIP4InfoS0_EvT_S2_RSaIT0_E(%struct.Info* %5, %struct.Info* %9, %"class.std::allocator.2"* dereferenceable(1) %11)
          to label %12 unwind label %14

12:                                               ; preds = %1
  %13 = bitcast %"class.std::vector.0"* %0 to %"struct.std::_Vector_base.1"*
  call void @_ZNSt12_Vector_baseI4InfoSaIS0_EED2Ev(%"struct.std::_Vector_base.1"* %13) #3
  ret void

14:                                               ; preds = %1
  %15 = landingpad { i8*, i32 }
          catch i8* null
  %16 = extractvalue { i8*, i32 } %15, 0
  %17 = extractvalue { i8*, i32 } %15, 1
  %18 = bitcast %"class.std::vector.0"* %0 to %"struct.std::_Vector_base.1"*
  call void @_ZNSt12_Vector_baseI4InfoSaIS0_EED2Ev(%"struct.std::_Vector_base.1"* %18) #3
  br label %19

19:                                               ; preds = %14
  call void @__clang_call_terminate(i8* %16) #12
  unreachable
}

; Function Attrs: noinline uwtable
define linkonce_odr void @_ZSt8_DestroyIP4InfoS0_EvT_S2_RSaIT0_E(%struct.Info* %0, %struct.Info* %1, %"class.std::allocator.2"* dereferenceable(1) %2) #0 comdat {
  call void @_ZSt8_DestroyIP4InfoEvT_S2_(%struct.Info* %0, %struct.Info* %1)
  ret void
}

; Function Attrs: noinline nounwind uwtable
define linkonce_odr dereferenceable(1) %"class.std::allocator.2"* @_ZNSt12_Vector_baseI4InfoSaIS0_EE19_M_get_Tp_allocatorEv(%"struct.std::_Vector_base.1"* %0) #4 comdat align 2 {
  %2 = getelementptr inbounds %"struct.std::_Vector_base.1", %"struct.std::_Vector_base.1"* %0, i32 0, i32 0
  %3 = bitcast %"struct.std::_Vector_base<Info, std::allocator<Info> >::_Vector_impl"* %2 to %"class.std::allocator.2"*
  ret %"class.std::allocator.2"* %3
}

; Function Attrs: noinline nounwind uwtable
define linkonce_odr void @_ZNSt12_Vector_baseI4InfoSaIS0_EED2Ev(%"struct.std::_Vector_base.1"* %0) unnamed_addr #4 comdat align 2 personality i8* bitcast (i32 (...)* @__gxx_personality_v0 to i8*) {
  %2 = getelementptr inbounds %"struct.std::_Vector_base.1", %"struct.std::_Vector_base.1"* %0, i32 0, i32 0
  %3 = getelementptr inbounds %"struct.std::_Vector_base<Info, std::allocator<Info> >::_Vector_impl", %"struct.std::_Vector_base<Info, std::allocator<Info> >::_Vector_impl"* %2, i32 0, i32 0
  %4 = load %struct.Info*, %struct.Info** %3, align 8
  %5 = getelementptr inbounds %"struct.std::_Vector_base.1", %"struct.std::_Vector_base.1"* %0, i32 0, i32 0
  %6 = getelementptr inbounds %"struct.std::_Vector_base<Info, std::allocator<Info> >::_Vector_impl", %"struct.std::_Vector_base<Info, std::allocator<Info> >::_Vector_impl"* %5, i32 0, i32 2
  %7 = load %struct.Info*, %struct.Info** %6, align 8
  %8 = getelementptr inbounds %"struct.std::_Vector_base.1", %"struct.std::_Vector_base.1"* %0, i32 0, i32 0
  %9 = getelementptr inbounds %"struct.std::_Vector_base<Info, std::allocator<Info> >::_Vector_impl", %"struct.std::_Vector_base<Info, std::allocator<Info> >::_Vector_impl"* %8, i32 0, i32 0
  %10 = load %struct.Info*, %struct.Info** %9, align 8
  %11 = ptrtoint %struct.Info* %7 to i64
  %12 = ptrtoint %struct.Info* %10 to i64
  %13 = sub i64 %11, %12
  %14 = sdiv exact i64 %13, 8
  invoke void @_ZNSt12_Vector_baseI4InfoSaIS0_EE13_M_deallocateEPS0_m(%"struct.std::_Vector_base.1"* %0, %struct.Info* %4, i64 %14)
          to label %15 unwind label %17

15:                                               ; preds = %1
  %16 = getelementptr inbounds %"struct.std::_Vector_base.1", %"struct.std::_Vector_base.1"* %0, i32 0, i32 0
  call void @_ZNSt12_Vector_baseI4InfoSaIS0_EE12_Vector_implD2Ev(%"struct.std::_Vector_base<Info, std::allocator<Info> >::_Vector_impl"* %16) #3
  ret void

17:                                               ; preds = %1
  %18 = landingpad { i8*, i32 }
          catch i8* null
  %19 = extractvalue { i8*, i32 } %18, 0
  %20 = extractvalue { i8*, i32 } %18, 1
  %21 = getelementptr inbounds %"struct.std::_Vector_base.1", %"struct.std::_Vector_base.1"* %0, i32 0, i32 0
  call void @_ZNSt12_Vector_baseI4InfoSaIS0_EE12_Vector_implD2Ev(%"struct.std::_Vector_base<Info, std::allocator<Info> >::_Vector_impl"* %21) #3
  br label %22

22:                                               ; preds = %17
  call void @__clang_call_terminate(i8* %19) #12
  unreachable
}

; Function Attrs: noinline noreturn nounwind
define linkonce_odr hidden void @__clang_call_terminate(i8* %0) #6 comdat {
  %2 = call i8* @__cxa_begin_catch(i8* %0) #3
  call void @_ZSt9terminatev() #12
  unreachable
}

declare i8* @__cxa_begin_catch(i8*)

declare void @_ZSt9terminatev()

; Function Attrs: noinline uwtable
define linkonce_odr void @_ZSt8_DestroyIP4InfoEvT_S2_(%struct.Info* %0, %struct.Info* %1) #0 comdat {
  call void @_ZNSt12_Destroy_auxILb1EE9__destroyIP4InfoEEvT_S4_(%struct.Info* %0, %struct.Info* %1)
  ret void
}

; Function Attrs: noinline nounwind uwtable
define linkonce_odr void @_ZNSt12_Destroy_auxILb1EE9__destroyIP4InfoEEvT_S4_(%struct.Info* %0, %struct.Info* %1) #4 comdat align 2 {
  ret void
}

; Function Attrs: noinline uwtable
define linkonce_odr void @_ZNSt12_Vector_baseI4InfoSaIS0_EE13_M_deallocateEPS0_m(%"struct.std::_Vector_base.1"* %0, %struct.Info* %1, i64 %2) #0 comdat align 2 {
  %4 = icmp ne %struct.Info* %1, null
  br i1 %4, label %5, label %8

5:                                                ; preds = %3
  %6 = getelementptr inbounds %"struct.std::_Vector_base.1", %"struct.std::_Vector_base.1"* %0, i32 0, i32 0
  %7 = bitcast %"struct.std::_Vector_base<Info, std::allocator<Info> >::_Vector_impl"* %6 to %"class.std::allocator.2"*
  call void @_ZNSt16allocator_traitsISaI4InfoEE10deallocateERS1_PS0_m(%"class.std::allocator.2"* dereferenceable(1) %7, %struct.Info* %1, i64 %2)
  br label %8

8:                                                ; preds = %5, %3
  ret void
}

; Function Attrs: noinline nounwind uwtable
define linkonce_odr void @_ZNSt12_Vector_baseI4InfoSaIS0_EE12_Vector_implD2Ev(%"struct.std::_Vector_base<Info, std::allocator<Info> >::_Vector_impl"* %0) unnamed_addr #4 comdat align 2 {
  %2 = bitcast %"struct.std::_Vector_base<Info, std::allocator<Info> >::_Vector_impl"* %0 to %"class.std::allocator.2"*
  call void @_ZNSaI4InfoED2Ev(%"class.std::allocator.2"* %2) #3
  ret void
}

; Function Attrs: noinline uwtable
define linkonce_odr void @_ZNSt16allocator_traitsISaI4InfoEE10deallocateERS1_PS0_m(%"class.std::allocator.2"* dereferenceable(1) %0, %struct.Info* %1, i64 %2) #0 comdat align 2 {
  %4 = bitcast %"class.std::allocator.2"* %0 to %"class.__gnu_cxx::new_allocator.3"*
  call void @_ZN9__gnu_cxx13new_allocatorI4InfoE10deallocateEPS1_m(%"class.__gnu_cxx::new_allocator.3"* %4, %struct.Info* %1, i64 %2)
  ret void
}

; Function Attrs: noinline nounwind uwtable
define linkonce_odr void @_ZN9__gnu_cxx13new_allocatorI4InfoE10deallocateEPS1_m(%"class.__gnu_cxx::new_allocator.3"* %0, %struct.Info* %1, i64 %2) #4 comdat align 2 {
  %4 = bitcast %struct.Info* %1 to i8*
  call void @_ZdlPv(i8* %4) #3
  ret void
}

; Function Attrs: nobuiltin nounwind
declare void @_ZdlPv(i8*) #7

; Function Attrs: noinline nounwind uwtable
define linkonce_odr void @_ZNSaI4InfoED2Ev(%"class.std::allocator.2"* %0) unnamed_addr #4 comdat align 2 {
  %2 = bitcast %"class.std::allocator.2"* %0 to %"class.__gnu_cxx::new_allocator.3"*
  call void @_ZN9__gnu_cxx13new_allocatorI4InfoED2Ev(%"class.__gnu_cxx::new_allocator.3"* %2) #3
  ret void
}

; Function Attrs: noinline nounwind uwtable
define linkonce_odr void @_ZN9__gnu_cxx13new_allocatorI4InfoED2Ev(%"class.__gnu_cxx::new_allocator.3"* %0) unnamed_addr #4 comdat align 2 {
  ret void
}

; Function Attrs: noinline nounwind uwtable
define linkonce_odr void @_ZNSt6vectorI4EdgeSaIS0_EED2Ev(%"class.std::vector.6"* %0) unnamed_addr #4 comdat align 2 personality i8* bitcast (i32 (...)* @__gxx_personality_v0 to i8*) {
  %2 = bitcast %"class.std::vector.6"* %0 to %"struct.std::_Vector_base.7"*
  %3 = getelementptr inbounds %"struct.std::_Vector_base.7", %"struct.std::_Vector_base.7"* %2, i32 0, i32 0
  %4 = getelementptr inbounds %"struct.std::_Vector_base<Edge, std::allocator<Edge> >::_Vector_impl", %"struct.std::_Vector_base<Edge, std::allocator<Edge> >::_Vector_impl"* %3, i32 0, i32 0
  %5 = load %struct.Edge*, %struct.Edge** %4, align 8
  %6 = bitcast %"class.std::vector.6"* %0 to %"struct.std::_Vector_base.7"*
  %7 = getelementptr inbounds %"struct.std::_Vector_base.7", %"struct.std::_Vector_base.7"* %6, i32 0, i32 0
  %8 = getelementptr inbounds %"struct.std::_Vector_base<Edge, std::allocator<Edge> >::_Vector_impl", %"struct.std::_Vector_base<Edge, std::allocator<Edge> >::_Vector_impl"* %7, i32 0, i32 1
  %9 = load %struct.Edge*, %struct.Edge** %8, align 8
  %10 = bitcast %"class.std::vector.6"* %0 to %"struct.std::_Vector_base.7"*
  %11 = call dereferenceable(1) %"class.std::allocator.8"* @_ZNSt12_Vector_baseI4EdgeSaIS0_EE19_M_get_Tp_allocatorEv(%"struct.std::_Vector_base.7"* %10) #3
  invoke void @_ZSt8_DestroyIP4EdgeS0_EvT_S2_RSaIT0_E(%struct.Edge* %5, %struct.Edge* %9, %"class.std::allocator.8"* dereferenceable(1) %11)
          to label %12 unwind label %14

12:                                               ; preds = %1
  %13 = bitcast %"class.std::vector.6"* %0 to %"struct.std::_Vector_base.7"*
  call void @_ZNSt12_Vector_baseI4EdgeSaIS0_EED2Ev(%"struct.std::_Vector_base.7"* %13) #3
  ret void

14:                                               ; preds = %1
  %15 = landingpad { i8*, i32 }
          catch i8* null
  %16 = extractvalue { i8*, i32 } %15, 0
  %17 = extractvalue { i8*, i32 } %15, 1
  %18 = bitcast %"class.std::vector.6"* %0 to %"struct.std::_Vector_base.7"*
  call void @_ZNSt12_Vector_baseI4EdgeSaIS0_EED2Ev(%"struct.std::_Vector_base.7"* %18) #3
  br label %19

19:                                               ; preds = %14
  call void @__clang_call_terminate(i8* %16) #12
  unreachable
}

; Function Attrs: noinline uwtable
define linkonce_odr void @_ZSt8_DestroyIP4EdgeS0_EvT_S2_RSaIT0_E(%struct.Edge* %0, %struct.Edge* %1, %"class.std::allocator.8"* dereferenceable(1) %2) #0 comdat {
  call void @_ZSt8_DestroyIP4EdgeEvT_S2_(%struct.Edge* %0, %struct.Edge* %1)
  ret void
}

; Function Attrs: noinline nounwind uwtable
define linkonce_odr dereferenceable(1) %"class.std::allocator.8"* @_ZNSt12_Vector_baseI4EdgeSaIS0_EE19_M_get_Tp_allocatorEv(%"struct.std::_Vector_base.7"* %0) #4 comdat align 2 {
  %2 = getelementptr inbounds %"struct.std::_Vector_base.7", %"struct.std::_Vector_base.7"* %0, i32 0, i32 0
  %3 = bitcast %"struct.std::_Vector_base<Edge, std::allocator<Edge> >::_Vector_impl"* %2 to %"class.std::allocator.8"*
  ret %"class.std::allocator.8"* %3
}

; Function Attrs: noinline nounwind uwtable
define linkonce_odr void @_ZNSt12_Vector_baseI4EdgeSaIS0_EED2Ev(%"struct.std::_Vector_base.7"* %0) unnamed_addr #4 comdat align 2 personality i8* bitcast (i32 (...)* @__gxx_personality_v0 to i8*) {
  %2 = getelementptr inbounds %"struct.std::_Vector_base.7", %"struct.std::_Vector_base.7"* %0, i32 0, i32 0
  %3 = getelementptr inbounds %"struct.std::_Vector_base<Edge, std::allocator<Edge> >::_Vector_impl", %"struct.std::_Vector_base<Edge, std::allocator<Edge> >::_Vector_impl"* %2, i32 0, i32 0
  %4 = load %struct.Edge*, %struct.Edge** %3, align 8
  %5 = getelementptr inbounds %"struct.std::_Vector_base.7", %"struct.std::_Vector_base.7"* %0, i32 0, i32 0
  %6 = getelementptr inbounds %"struct.std::_Vector_base<Edge, std::allocator<Edge> >::_Vector_impl", %"struct.std::_Vector_base<Edge, std::allocator<Edge> >::_Vector_impl"* %5, i32 0, i32 2
  %7 = load %struct.Edge*, %struct.Edge** %6, align 8
  %8 = getelementptr inbounds %"struct.std::_Vector_base.7", %"struct.std::_Vector_base.7"* %0, i32 0, i32 0
  %9 = getelementptr inbounds %"struct.std::_Vector_base<Edge, std::allocator<Edge> >::_Vector_impl", %"struct.std::_Vector_base<Edge, std::allocator<Edge> >::_Vector_impl"* %8, i32 0, i32 0
  %10 = load %struct.Edge*, %struct.Edge** %9, align 8
  %11 = ptrtoint %struct.Edge* %7 to i64
  %12 = ptrtoint %struct.Edge* %10 to i64
  %13 = sub i64 %11, %12
  %14 = sdiv exact i64 %13, 12
  invoke void @_ZNSt12_Vector_baseI4EdgeSaIS0_EE13_M_deallocateEPS0_m(%"struct.std::_Vector_base.7"* %0, %struct.Edge* %4, i64 %14)
          to label %15 unwind label %17

15:                                               ; preds = %1
  %16 = getelementptr inbounds %"struct.std::_Vector_base.7", %"struct.std::_Vector_base.7"* %0, i32 0, i32 0
  call void @_ZNSt12_Vector_baseI4EdgeSaIS0_EE12_Vector_implD2Ev(%"struct.std::_Vector_base<Edge, std::allocator<Edge> >::_Vector_impl"* %16) #3
  ret void

17:                                               ; preds = %1
  %18 = landingpad { i8*, i32 }
          catch i8* null
  %19 = extractvalue { i8*, i32 } %18, 0
  %20 = extractvalue { i8*, i32 } %18, 1
  %21 = getelementptr inbounds %"struct.std::_Vector_base.7", %"struct.std::_Vector_base.7"* %0, i32 0, i32 0
  call void @_ZNSt12_Vector_baseI4EdgeSaIS0_EE12_Vector_implD2Ev(%"struct.std::_Vector_base<Edge, std::allocator<Edge> >::_Vector_impl"* %21) #3
  br label %22

22:                                               ; preds = %17
  call void @__clang_call_terminate(i8* %19) #12
  unreachable
}

; Function Attrs: noinline uwtable
define linkonce_odr void @_ZSt8_DestroyIP4EdgeEvT_S2_(%struct.Edge* %0, %struct.Edge* %1) #0 comdat {
  call void @_ZNSt12_Destroy_auxILb1EE9__destroyIP4EdgeEEvT_S4_(%struct.Edge* %0, %struct.Edge* %1)
  ret void
}

; Function Attrs: noinline nounwind uwtable
define linkonce_odr void @_ZNSt12_Destroy_auxILb1EE9__destroyIP4EdgeEEvT_S4_(%struct.Edge* %0, %struct.Edge* %1) #4 comdat align 2 {
  ret void
}

; Function Attrs: noinline uwtable
define linkonce_odr void @_ZNSt12_Vector_baseI4EdgeSaIS0_EE13_M_deallocateEPS0_m(%"struct.std::_Vector_base.7"* %0, %struct.Edge* %1, i64 %2) #0 comdat align 2 {
  %4 = icmp ne %struct.Edge* %1, null
  br i1 %4, label %5, label %8

5:                                                ; preds = %3
  %6 = getelementptr inbounds %"struct.std::_Vector_base.7", %"struct.std::_Vector_base.7"* %0, i32 0, i32 0
  %7 = bitcast %"struct.std::_Vector_base<Edge, std::allocator<Edge> >::_Vector_impl"* %6 to %"class.std::allocator.8"*
  call void @_ZNSt16allocator_traitsISaI4EdgeEE10deallocateERS1_PS0_m(%"class.std::allocator.8"* dereferenceable(1) %7, %struct.Edge* %1, i64 %2)
  br label %8

8:                                                ; preds = %5, %3
  ret void
}

; Function Attrs: noinline nounwind uwtable
define linkonce_odr void @_ZNSt12_Vector_baseI4EdgeSaIS0_EE12_Vector_implD2Ev(%"struct.std::_Vector_base<Edge, std::allocator<Edge> >::_Vector_impl"* %0) unnamed_addr #4 comdat align 2 {
  %2 = bitcast %"struct.std::_Vector_base<Edge, std::allocator<Edge> >::_Vector_impl"* %0 to %"class.std::allocator.8"*
  call void @_ZNSaI4EdgeED2Ev(%"class.std::allocator.8"* %2) #3
  ret void
}

; Function Attrs: noinline uwtable
define linkonce_odr void @_ZNSt16allocator_traitsISaI4EdgeEE10deallocateERS1_PS0_m(%"class.std::allocator.8"* dereferenceable(1) %0, %struct.Edge* %1, i64 %2) #0 comdat align 2 {
  %4 = bitcast %"class.std::allocator.8"* %0 to %"class.__gnu_cxx::new_allocator.9"*
  call void @_ZN9__gnu_cxx13new_allocatorI4EdgeE10deallocateEPS1_m(%"class.__gnu_cxx::new_allocator.9"* %4, %struct.Edge* %1, i64 %2)
  ret void
}

; Function Attrs: noinline nounwind uwtable
define linkonce_odr void @_ZN9__gnu_cxx13new_allocatorI4EdgeE10deallocateEPS1_m(%"class.__gnu_cxx::new_allocator.9"* %0, %struct.Edge* %1, i64 %2) #4 comdat align 2 {
  %4 = bitcast %struct.Edge* %1 to i8*
  call void @_ZdlPv(i8* %4) #3
  ret void
}

; Function Attrs: noinline nounwind uwtable
define linkonce_odr void @_ZNSaI4EdgeED2Ev(%"class.std::allocator.8"* %0) unnamed_addr #4 comdat align 2 {
  %2 = bitcast %"class.std::allocator.8"* %0 to %"class.__gnu_cxx::new_allocator.9"*
  call void @_ZN9__gnu_cxx13new_allocatorI4EdgeED2Ev(%"class.__gnu_cxx::new_allocator.9"* %2) #3
  ret void
}

; Function Attrs: noinline nounwind uwtable
define linkonce_odr void @_ZN9__gnu_cxx13new_allocatorI4EdgeED2Ev(%"class.__gnu_cxx::new_allocator.9"* %0) unnamed_addr #4 comdat align 2 {
  ret void
}

; Function Attrs: noinline uwtable
define linkonce_odr void @_ZNSt12_Vector_baseI4DataSaIS0_EEC2Ev(%"struct.std::_Vector_base"* %0) unnamed_addr #0 comdat align 2 {
  %2 = getelementptr inbounds %"struct.std::_Vector_base", %"struct.std::_Vector_base"* %0, i32 0, i32 0
  call void @_ZNSt12_Vector_baseI4DataSaIS0_EE12_Vector_implC2Ev(%"struct.std::_Vector_base<Data, std::allocator<Data> >::_Vector_impl"* %2)
  ret void
}

; Function Attrs: noinline nounwind uwtable
define linkonce_odr void @_ZNSt12_Vector_baseI4DataSaIS0_EE12_Vector_implC2Ev(%"struct.std::_Vector_base<Data, std::allocator<Data> >::_Vector_impl"* %0) unnamed_addr #4 comdat align 2 {
  %2 = bitcast %"struct.std::_Vector_base<Data, std::allocator<Data> >::_Vector_impl"* %0 to %"class.std::allocator"*
  call void @_ZNSaI4DataEC2Ev(%"class.std::allocator"* %2) #3
  %3 = getelementptr inbounds %"struct.std::_Vector_base<Data, std::allocator<Data> >::_Vector_impl", %"struct.std::_Vector_base<Data, std::allocator<Data> >::_Vector_impl"* %0, i32 0, i32 0
  store %struct.Data* null, %struct.Data** %3, align 8
  %4 = getelementptr inbounds %"struct.std::_Vector_base<Data, std::allocator<Data> >::_Vector_impl", %"struct.std::_Vector_base<Data, std::allocator<Data> >::_Vector_impl"* %0, i32 0, i32 1
  store %struct.Data* null, %struct.Data** %4, align 8
  %5 = getelementptr inbounds %"struct.std::_Vector_base<Data, std::allocator<Data> >::_Vector_impl", %"struct.std::_Vector_base<Data, std::allocator<Data> >::_Vector_impl"* %0, i32 0, i32 2
  store %struct.Data* null, %struct.Data** %5, align 8
  ret void
}

; Function Attrs: noinline nounwind uwtable
define linkonce_odr void @_ZNSaI4DataEC2Ev(%"class.std::allocator"* %0) unnamed_addr #4 comdat align 2 {
  %2 = bitcast %"class.std::allocator"* %0 to %"class.__gnu_cxx::new_allocator"*
  call void @_ZN9__gnu_cxx13new_allocatorI4DataEC2Ev(%"class.__gnu_cxx::new_allocator"* %2) #3
  ret void
}

; Function Attrs: noinline nounwind uwtable
define linkonce_odr void @_ZN9__gnu_cxx13new_allocatorI4DataEC2Ev(%"class.__gnu_cxx::new_allocator"* %0) unnamed_addr #4 comdat align 2 {
  ret void
}

; Function Attrs: noinline uwtable
define linkonce_odr void @_ZSt8_DestroyIP4DataS0_EvT_S2_RSaIT0_E(%struct.Data* %0, %struct.Data* %1, %"class.std::allocator"* dereferenceable(1) %2) #0 comdat {
  call void @_ZSt8_DestroyIP4DataEvT_S2_(%struct.Data* %0, %struct.Data* %1)
  ret void
}

; Function Attrs: noinline nounwind uwtable
define linkonce_odr dereferenceable(1) %"class.std::allocator"* @_ZNSt12_Vector_baseI4DataSaIS0_EE19_M_get_Tp_allocatorEv(%"struct.std::_Vector_base"* %0) #4 comdat align 2 {
  %2 = getelementptr inbounds %"struct.std::_Vector_base", %"struct.std::_Vector_base"* %0, i32 0, i32 0
  %3 = bitcast %"struct.std::_Vector_base<Data, std::allocator<Data> >::_Vector_impl"* %2 to %"class.std::allocator"*
  ret %"class.std::allocator"* %3
}

; Function Attrs: noinline nounwind uwtable
define linkonce_odr void @_ZNSt12_Vector_baseI4DataSaIS0_EED2Ev(%"struct.std::_Vector_base"* %0) unnamed_addr #4 comdat align 2 personality i8* bitcast (i32 (...)* @__gxx_personality_v0 to i8*) {
  %2 = getelementptr inbounds %"struct.std::_Vector_base", %"struct.std::_Vector_base"* %0, i32 0, i32 0
  %3 = getelementptr inbounds %"struct.std::_Vector_base<Data, std::allocator<Data> >::_Vector_impl", %"struct.std::_Vector_base<Data, std::allocator<Data> >::_Vector_impl"* %2, i32 0, i32 0
  %4 = load %struct.Data*, %struct.Data** %3, align 8
  %5 = getelementptr inbounds %"struct.std::_Vector_base", %"struct.std::_Vector_base"* %0, i32 0, i32 0
  %6 = getelementptr inbounds %"struct.std::_Vector_base<Data, std::allocator<Data> >::_Vector_impl", %"struct.std::_Vector_base<Data, std::allocator<Data> >::_Vector_impl"* %5, i32 0, i32 2
  %7 = load %struct.Data*, %struct.Data** %6, align 8
  %8 = getelementptr inbounds %"struct.std::_Vector_base", %"struct.std::_Vector_base"* %0, i32 0, i32 0
  %9 = getelementptr inbounds %"struct.std::_Vector_base<Data, std::allocator<Data> >::_Vector_impl", %"struct.std::_Vector_base<Data, std::allocator<Data> >::_Vector_impl"* %8, i32 0, i32 0
  %10 = load %struct.Data*, %struct.Data** %9, align 8
  %11 = ptrtoint %struct.Data* %7 to i64
  %12 = ptrtoint %struct.Data* %10 to i64
  %13 = sub i64 %11, %12
  %14 = sdiv exact i64 %13, 8
  invoke void @_ZNSt12_Vector_baseI4DataSaIS0_EE13_M_deallocateEPS0_m(%"struct.std::_Vector_base"* %0, %struct.Data* %4, i64 %14)
          to label %15 unwind label %17

15:                                               ; preds = %1
  %16 = getelementptr inbounds %"struct.std::_Vector_base", %"struct.std::_Vector_base"* %0, i32 0, i32 0
  call void @_ZNSt12_Vector_baseI4DataSaIS0_EE12_Vector_implD2Ev(%"struct.std::_Vector_base<Data, std::allocator<Data> >::_Vector_impl"* %16) #3
  ret void

17:                                               ; preds = %1
  %18 = landingpad { i8*, i32 }
          catch i8* null
  %19 = extractvalue { i8*, i32 } %18, 0
  %20 = extractvalue { i8*, i32 } %18, 1
  %21 = getelementptr inbounds %"struct.std::_Vector_base", %"struct.std::_Vector_base"* %0, i32 0, i32 0
  call void @_ZNSt12_Vector_baseI4DataSaIS0_EE12_Vector_implD2Ev(%"struct.std::_Vector_base<Data, std::allocator<Data> >::_Vector_impl"* %21) #3
  br label %22

22:                                               ; preds = %17
  call void @__clang_call_terminate(i8* %19) #12
  unreachable
}

; Function Attrs: noinline uwtable
define linkonce_odr void @_ZSt8_DestroyIP4DataEvT_S2_(%struct.Data* %0, %struct.Data* %1) #0 comdat {
  call void @_ZNSt12_Destroy_auxILb1EE9__destroyIP4DataEEvT_S4_(%struct.Data* %0, %struct.Data* %1)
  ret void
}

; Function Attrs: noinline nounwind uwtable
define linkonce_odr void @_ZNSt12_Destroy_auxILb1EE9__destroyIP4DataEEvT_S4_(%struct.Data* %0, %struct.Data* %1) #4 comdat align 2 {
  ret void
}

; Function Attrs: noinline uwtable
define linkonce_odr void @_ZNSt12_Vector_baseI4DataSaIS0_EE13_M_deallocateEPS0_m(%"struct.std::_Vector_base"* %0, %struct.Data* %1, i64 %2) #0 comdat align 2 {
  %4 = icmp ne %struct.Data* %1, null
  br i1 %4, label %5, label %8

5:                                                ; preds = %3
  %6 = getelementptr inbounds %"struct.std::_Vector_base", %"struct.std::_Vector_base"* %0, i32 0, i32 0
  %7 = bitcast %"struct.std::_Vector_base<Data, std::allocator<Data> >::_Vector_impl"* %6 to %"class.std::allocator"*
  call void @_ZNSt16allocator_traitsISaI4DataEE10deallocateERS1_PS0_m(%"class.std::allocator"* dereferenceable(1) %7, %struct.Data* %1, i64 %2)
  br label %8

8:                                                ; preds = %5, %3
  ret void
}

; Function Attrs: noinline nounwind uwtable
define linkonce_odr void @_ZNSt12_Vector_baseI4DataSaIS0_EE12_Vector_implD2Ev(%"struct.std::_Vector_base<Data, std::allocator<Data> >::_Vector_impl"* %0) unnamed_addr #4 comdat align 2 {
  %2 = bitcast %"struct.std::_Vector_base<Data, std::allocator<Data> >::_Vector_impl"* %0 to %"class.std::allocator"*
  call void @_ZNSaI4DataED2Ev(%"class.std::allocator"* %2) #3
  ret void
}

; Function Attrs: noinline uwtable
define linkonce_odr void @_ZNSt16allocator_traitsISaI4DataEE10deallocateERS1_PS0_m(%"class.std::allocator"* dereferenceable(1) %0, %struct.Data* %1, i64 %2) #0 comdat align 2 {
  %4 = bitcast %"class.std::allocator"* %0 to %"class.__gnu_cxx::new_allocator"*
  call void @_ZN9__gnu_cxx13new_allocatorI4DataE10deallocateEPS1_m(%"class.__gnu_cxx::new_allocator"* %4, %struct.Data* %1, i64 %2)
  ret void
}

; Function Attrs: noinline nounwind uwtable
define linkonce_odr void @_ZN9__gnu_cxx13new_allocatorI4DataE10deallocateEPS1_m(%"class.__gnu_cxx::new_allocator"* %0, %struct.Data* %1, i64 %2) #4 comdat align 2 {
  %4 = bitcast %struct.Data* %1 to i8*
  call void @_ZdlPv(i8* %4) #3
  ret void
}

; Function Attrs: noinline nounwind uwtable
define linkonce_odr void @_ZNSaI4DataED2Ev(%"class.std::allocator"* %0) unnamed_addr #4 comdat align 2 {
  %2 = bitcast %"class.std::allocator"* %0 to %"class.__gnu_cxx::new_allocator"*
  call void @_ZN9__gnu_cxx13new_allocatorI4DataED2Ev(%"class.__gnu_cxx::new_allocator"* %2) #3
  ret void
}

; Function Attrs: noinline nounwind uwtable
define linkonce_odr void @_ZN9__gnu_cxx13new_allocatorI4DataED2Ev(%"class.__gnu_cxx::new_allocator"* %0) unnamed_addr #4 comdat align 2 {
  ret void
}

; Function Attrs: noinline nounwind uwtable
define linkonce_odr void @_ZNSt6vectorI4InfoSaIS0_EEC2Ev(%"class.std::vector.0"* %0) unnamed_addr #4 comdat align 2 personality i8* bitcast (i32 (...)* @__gxx_personality_v0 to i8*) {
  %2 = bitcast %"class.std::vector.0"* %0 to %"struct.std::_Vector_base.1"*
  invoke void @_ZNSt12_Vector_baseI4InfoSaIS0_EEC2Ev(%"struct.std::_Vector_base.1"* %2)
          to label %3 unwind label %4

3:                                                ; preds = %1
  ret void

4:                                                ; preds = %1
  %5 = landingpad { i8*, i32 }
          catch i8* null
  %6 = extractvalue { i8*, i32 } %5, 0
  call void @__clang_call_terminate(i8* %6) #12
  unreachable
}

; Function Attrs: noinline uwtable
define linkonce_odr void @_ZNSt12_Vector_baseI4InfoSaIS0_EEC2Ev(%"struct.std::_Vector_base.1"* %0) unnamed_addr #0 comdat align 2 {
  %2 = getelementptr inbounds %"struct.std::_Vector_base.1", %"struct.std::_Vector_base.1"* %0, i32 0, i32 0
  call void @_ZNSt12_Vector_baseI4InfoSaIS0_EE12_Vector_implC2Ev(%"struct.std::_Vector_base<Info, std::allocator<Info> >::_Vector_impl"* %2)
  ret void
}

; Function Attrs: noinline nounwind uwtable
define linkonce_odr void @_ZNSt12_Vector_baseI4InfoSaIS0_EE12_Vector_implC2Ev(%"struct.std::_Vector_base<Info, std::allocator<Info> >::_Vector_impl"* %0) unnamed_addr #4 comdat align 2 {
  %2 = bitcast %"struct.std::_Vector_base<Info, std::allocator<Info> >::_Vector_impl"* %0 to %"class.std::allocator.2"*
  call void @_ZNSaI4InfoEC2Ev(%"class.std::allocator.2"* %2) #3
  %3 = getelementptr inbounds %"struct.std::_Vector_base<Info, std::allocator<Info> >::_Vector_impl", %"struct.std::_Vector_base<Info, std::allocator<Info> >::_Vector_impl"* %0, i32 0, i32 0
  store %struct.Info* null, %struct.Info** %3, align 8
  %4 = getelementptr inbounds %"struct.std::_Vector_base<Info, std::allocator<Info> >::_Vector_impl", %"struct.std::_Vector_base<Info, std::allocator<Info> >::_Vector_impl"* %0, i32 0, i32 1
  store %struct.Info* null, %struct.Info** %4, align 8
  %5 = getelementptr inbounds %"struct.std::_Vector_base<Info, std::allocator<Info> >::_Vector_impl", %"struct.std::_Vector_base<Info, std::allocator<Info> >::_Vector_impl"* %0, i32 0, i32 2
  store %struct.Info* null, %struct.Info** %5, align 8
  ret void
}

; Function Attrs: noinline nounwind uwtable
define linkonce_odr void @_ZNSaI4InfoEC2Ev(%"class.std::allocator.2"* %0) unnamed_addr #4 comdat align 2 {
  %2 = bitcast %"class.std::allocator.2"* %0 to %"class.__gnu_cxx::new_allocator.3"*
  call void @_ZN9__gnu_cxx13new_allocatorI4InfoEC2Ev(%"class.__gnu_cxx::new_allocator.3"* %2) #3
  ret void
}

; Function Attrs: noinline nounwind uwtable
define linkonce_odr void @_ZN9__gnu_cxx13new_allocatorI4InfoEC2Ev(%"class.__gnu_cxx::new_allocator.3"* %0) unnamed_addr #4 comdat align 2 {
  ret void
}

; Function Attrs: noinline uwtable
define linkonce_odr void @_ZNSt6vectorI4InfoSaIS0_EE9push_backEOS0_(%"class.std::vector.0"* %0, %struct.Info* dereferenceable(8) %1) #0 comdat align 2 {
  %3 = call dereferenceable(8) %struct.Info* @_ZSt4moveIR4InfoEONSt16remove_referenceIT_E4typeEOS3_(%struct.Info* dereferenceable(8) %1) #3
  call void @_ZNSt6vectorI4InfoSaIS0_EE12emplace_backIJS0_EEEvDpOT_(%"class.std::vector.0"* %0, %struct.Info* dereferenceable(8) %3)
  ret void
}

; Function Attrs: noinline nounwind uwtable
define linkonce_odr dereferenceable(8) %struct.Info* @_ZSt4moveIR4InfoEONSt16remove_referenceIT_E4typeEOS3_(%struct.Info* dereferenceable(8) %0) #4 comdat {
  ret %struct.Info* %0
}

; Function Attrs: noinline uwtable
define linkonce_odr void @_ZSt9push_heapIN9__gnu_cxx17__normal_iteratorIP4InfoSt6vectorIS2_SaIS2_EEEESt4lessIS2_EEvT_SA_T0_(%struct.Info* %0, %struct.Info* %1) #0 comdat {
  %3 = alloca %"class.__gnu_cxx::__normal_iterator", align 8
  %4 = alloca %"class.__gnu_cxx::__normal_iterator", align 8
  %5 = alloca %"struct.std::less", align 1
  %6 = alloca %"struct.__gnu_cxx::__ops::_Iter_comp_val", align 1
  %7 = alloca %struct.Info, align 4
  %8 = alloca %"class.__gnu_cxx::__normal_iterator", align 8
  %9 = alloca %"class.__gnu_cxx::__normal_iterator", align 8
  %10 = alloca %struct.Info, align 4
  %11 = getelementptr inbounds %"class.__gnu_cxx::__normal_iterator", %"class.__gnu_cxx::__normal_iterator"* %3, i32 0, i32 0
  store %struct.Info* %0, %struct.Info** %11, align 8
  %12 = getelementptr inbounds %"class.__gnu_cxx::__normal_iterator", %"class.__gnu_cxx::__normal_iterator"* %4, i32 0, i32 0
  store %struct.Info* %1, %struct.Info** %12, align 8
  %13 = call dereferenceable(1) %"struct.std::less"* @_ZSt4moveIRSt4lessI4InfoEEONSt16remove_referenceIT_E4typeEOS5_(%"struct.std::less"* dereferenceable(1) %5) #3
  call void @_ZN9__gnu_cxx5__ops14_Iter_comp_valISt4lessI4InfoEEC2ES4_(%"struct.__gnu_cxx::__ops::_Iter_comp_val"* %6)
  %14 = call %struct.Info* @_ZNK9__gnu_cxx17__normal_iteratorIP4InfoSt6vectorIS1_SaIS1_EEEmiEl(%"class.__gnu_cxx::__normal_iterator"* %4, i64 1) #3
  %15 = getelementptr inbounds %"class.__gnu_cxx::__normal_iterator", %"class.__gnu_cxx::__normal_iterator"* %8, i32 0, i32 0
  store %struct.Info* %14, %struct.Info** %15, align 8
  %16 = call dereferenceable(8) %struct.Info* @_ZNK9__gnu_cxx17__normal_iteratorIP4InfoSt6vectorIS1_SaIS1_EEEdeEv(%"class.__gnu_cxx::__normal_iterator"* %8) #3
  %17 = call dereferenceable(8) %struct.Info* @_ZSt4moveIR4InfoEONSt16remove_referenceIT_E4typeEOS3_(%struct.Info* dereferenceable(8) %16) #3
  %18 = bitcast %struct.Info* %7 to i8*
  %19 = bitcast %struct.Info* %17 to i8*
  call void @llvm.memcpy.p0i8.p0i8.i64(i8* align 4 %18, i8* align 4 %19, i64 8, i1 false)
  %20 = bitcast %"class.__gnu_cxx::__normal_iterator"* %9 to i8*
  %21 = bitcast %"class.__gnu_cxx::__normal_iterator"* %3 to i8*
  call void @llvm.memcpy.p0i8.p0i8.i64(i8* align 8 %20, i8* align 8 %21, i64 8, i1 false)
  %22 = call i64 @_ZN9__gnu_cxxmiIP4InfoSt6vectorIS1_SaIS1_EEEENS_17__normal_iteratorIT_T0_E15difference_typeERKS9_SC_(%"class.__gnu_cxx::__normal_iterator"* dereferenceable(8) %4, %"class.__gnu_cxx::__normal_iterator"* dereferenceable(8) %3) #3
  %23 = sub nsw i64 %22, 1
  %24 = call dereferenceable(8) %struct.Info* @_ZSt4moveIR4InfoEONSt16remove_referenceIT_E4typeEOS3_(%struct.Info* dereferenceable(8) %7) #3
  %25 = bitcast %struct.Info* %10 to i8*
  %26 = bitcast %struct.Info* %24 to i8*
  call void @llvm.memcpy.p0i8.p0i8.i64(i8* align 4 %25, i8* align 4 %26, i64 8, i1 false)
  %27 = getelementptr inbounds %"class.__gnu_cxx::__normal_iterator", %"class.__gnu_cxx::__normal_iterator"* %9, i32 0, i32 0
  %28 = load %struct.Info*, %struct.Info** %27, align 8
  %29 = bitcast %struct.Info* %10 to i64*
  %30 = load i64, i64* %29, align 4
  call void @_ZSt11__push_heapIN9__gnu_cxx17__normal_iteratorIP4InfoSt6vectorIS2_SaIS2_EEEElS2_NS0_5__ops14_Iter_comp_valISt4lessIS2_EEEEvT_T0_SE_T1_RT2_(%struct.Info* %28, i64 %23, i64 0, i64 %30, %"struct.__gnu_cxx::__ops::_Iter_comp_val"* dereferenceable(1) %6)
  ret void
}

; Function Attrs: noinline nounwind uwtable
define linkonce_odr %struct.Info* @_ZNSt6vectorI4InfoSaIS0_EE5beginEv(%"class.std::vector.0"* %0) #4 comdat align 2 {
  %2 = alloca %"class.__gnu_cxx::__normal_iterator", align 8
  %3 = bitcast %"class.std::vector.0"* %0 to %"struct.std::_Vector_base.1"*
  %4 = getelementptr inbounds %"struct.std::_Vector_base.1", %"struct.std::_Vector_base.1"* %3, i32 0, i32 0
  %5 = getelementptr inbounds %"struct.std::_Vector_base<Info, std::allocator<Info> >::_Vector_impl", %"struct.std::_Vector_base<Info, std::allocator<Info> >::_Vector_impl"* %4, i32 0, i32 0
  call void @_ZN9__gnu_cxx17__normal_iteratorIP4InfoSt6vectorIS1_SaIS1_EEEC2ERKS2_(%"class.__gnu_cxx::__normal_iterator"* %2, %struct.Info** dereferenceable(8) %5) #3
  %6 = getelementptr inbounds %"class.__gnu_cxx::__normal_iterator", %"class.__gnu_cxx::__normal_iterator"* %2, i32 0, i32 0
  %7 = load %struct.Info*, %struct.Info** %6, align 8
  ret %struct.Info* %7
}

; Function Attrs: noinline nounwind uwtable
define linkonce_odr %struct.Info* @_ZNSt6vectorI4InfoSaIS0_EE3endEv(%"class.std::vector.0"* %0) #4 comdat align 2 {
  %2 = alloca %"class.__gnu_cxx::__normal_iterator", align 8
  %3 = bitcast %"class.std::vector.0"* %0 to %"struct.std::_Vector_base.1"*
  %4 = getelementptr inbounds %"struct.std::_Vector_base.1", %"struct.std::_Vector_base.1"* %3, i32 0, i32 0
  %5 = getelementptr inbounds %"struct.std::_Vector_base<Info, std::allocator<Info> >::_Vector_impl", %"struct.std::_Vector_base<Info, std::allocator<Info> >::_Vector_impl"* %4, i32 0, i32 1
  call void @_ZN9__gnu_cxx17__normal_iteratorIP4InfoSt6vectorIS1_SaIS1_EEEC2ERKS2_(%"class.__gnu_cxx::__normal_iterator"* %2, %struct.Info** dereferenceable(8) %5) #3
  %6 = getelementptr inbounds %"class.__gnu_cxx::__normal_iterator", %"class.__gnu_cxx::__normal_iterator"* %2, i32 0, i32 0
  %7 = load %struct.Info*, %struct.Info** %6, align 8
  ret %struct.Info* %7
}

; Function Attrs: noinline uwtable
define linkonce_odr void @_ZNSt6vectorI4InfoSaIS0_EE12emplace_backIJS0_EEEvDpOT_(%"class.std::vector.0"* %0, %struct.Info* dereferenceable(8) %1) #0 comdat align 2 {
  %3 = alloca %"class.__gnu_cxx::__normal_iterator", align 8
  %4 = bitcast %"class.std::vector.0"* %0 to %"struct.std::_Vector_base.1"*
  %5 = getelementptr inbounds %"struct.std::_Vector_base.1", %"struct.std::_Vector_base.1"* %4, i32 0, i32 0
  %6 = getelementptr inbounds %"struct.std::_Vector_base<Info, std::allocator<Info> >::_Vector_impl", %"struct.std::_Vector_base<Info, std::allocator<Info> >::_Vector_impl"* %5, i32 0, i32 1
  %7 = load %struct.Info*, %struct.Info** %6, align 8
  %8 = bitcast %"class.std::vector.0"* %0 to %"struct.std::_Vector_base.1"*
  %9 = getelementptr inbounds %"struct.std::_Vector_base.1", %"struct.std::_Vector_base.1"* %8, i32 0, i32 0
  %10 = getelementptr inbounds %"struct.std::_Vector_base<Info, std::allocator<Info> >::_Vector_impl", %"struct.std::_Vector_base<Info, std::allocator<Info> >::_Vector_impl"* %9, i32 0, i32 2
  %11 = load %struct.Info*, %struct.Info** %10, align 8
  %12 = icmp ne %struct.Info* %7, %11
  br i1 %12, label %13, label %27

13:                                               ; preds = %2
  %14 = bitcast %"class.std::vector.0"* %0 to %"struct.std::_Vector_base.1"*
  %15 = getelementptr inbounds %"struct.std::_Vector_base.1", %"struct.std::_Vector_base.1"* %14, i32 0, i32 0
  %16 = bitcast %"struct.std::_Vector_base<Info, std::allocator<Info> >::_Vector_impl"* %15 to %"class.std::allocator.2"*
  %17 = bitcast %"class.std::vector.0"* %0 to %"struct.std::_Vector_base.1"*
  %18 = getelementptr inbounds %"struct.std::_Vector_base.1", %"struct.std::_Vector_base.1"* %17, i32 0, i32 0
  %19 = getelementptr inbounds %"struct.std::_Vector_base<Info, std::allocator<Info> >::_Vector_impl", %"struct.std::_Vector_base<Info, std::allocator<Info> >::_Vector_impl"* %18, i32 0, i32 1
  %20 = load %struct.Info*, %struct.Info** %19, align 8
  %21 = call dereferenceable(8) %struct.Info* @_ZSt7forwardI4InfoEOT_RNSt16remove_referenceIS1_E4typeE(%struct.Info* dereferenceable(8) %1) #3
  call void @_ZNSt16allocator_traitsISaI4InfoEE9constructIS0_JS0_EEEvRS1_PT_DpOT0_(%"class.std::allocator.2"* dereferenceable(1) %16, %struct.Info* %20, %struct.Info* dereferenceable(8) %21)
  %22 = bitcast %"class.std::vector.0"* %0 to %"struct.std::_Vector_base.1"*
  %23 = getelementptr inbounds %"struct.std::_Vector_base.1", %"struct.std::_Vector_base.1"* %22, i32 0, i32 0
  %24 = getelementptr inbounds %"struct.std::_Vector_base<Info, std::allocator<Info> >::_Vector_impl", %"struct.std::_Vector_base<Info, std::allocator<Info> >::_Vector_impl"* %23, i32 0, i32 1
  %25 = load %struct.Info*, %struct.Info** %24, align 8
  %26 = getelementptr inbounds %struct.Info, %struct.Info* %25, i32 1
  store %struct.Info* %26, %struct.Info** %24, align 8
  br label %33

27:                                               ; preds = %2
  %28 = call %struct.Info* @_ZNSt6vectorI4InfoSaIS0_EE3endEv(%"class.std::vector.0"* %0) #3
  %29 = getelementptr inbounds %"class.__gnu_cxx::__normal_iterator", %"class.__gnu_cxx::__normal_iterator"* %3, i32 0, i32 0
  store %struct.Info* %28, %struct.Info** %29, align 8
  %30 = call dereferenceable(8) %struct.Info* @_ZSt7forwardI4InfoEOT_RNSt16remove_referenceIS1_E4typeE(%struct.Info* dereferenceable(8) %1) #3
  %31 = getelementptr inbounds %"class.__gnu_cxx::__normal_iterator", %"class.__gnu_cxx::__normal_iterator"* %3, i32 0, i32 0
  %32 = load %struct.Info*, %struct.Info** %31, align 8
  call void @_ZNSt6vectorI4InfoSaIS0_EE17_M_realloc_insertIJS0_EEEvN9__gnu_cxx17__normal_iteratorIPS0_S2_EEDpOT_(%"class.std::vector.0"* %0, %struct.Info* %32, %struct.Info* dereferenceable(8) %30)
  br label %33

33:                                               ; preds = %27, %13
  ret void
}

; Function Attrs: noinline uwtable
define linkonce_odr void @_ZNSt16allocator_traitsISaI4InfoEE9constructIS0_JS0_EEEvRS1_PT_DpOT0_(%"class.std::allocator.2"* dereferenceable(1) %0, %struct.Info* %1, %struct.Info* dereferenceable(8) %2) #0 comdat align 2 {
  %4 = bitcast %"class.std::allocator.2"* %0 to %"class.__gnu_cxx::new_allocator.3"*
  %5 = call dereferenceable(8) %struct.Info* @_ZSt7forwardI4InfoEOT_RNSt16remove_referenceIS1_E4typeE(%struct.Info* dereferenceable(8) %2) #3
  call void @_ZN9__gnu_cxx13new_allocatorI4InfoE9constructIS1_JS1_EEEvPT_DpOT0_(%"class.__gnu_cxx::new_allocator.3"* %4, %struct.Info* %1, %struct.Info* dereferenceable(8) %5)
  ret void
}

; Function Attrs: noinline nounwind uwtable
define linkonce_odr dereferenceable(8) %struct.Info* @_ZSt7forwardI4InfoEOT_RNSt16remove_referenceIS1_E4typeE(%struct.Info* dereferenceable(8) %0) #4 comdat {
  ret %struct.Info* %0
}

; Function Attrs: noinline uwtable
define linkonce_odr void @_ZNSt6vectorI4InfoSaIS0_EE17_M_realloc_insertIJS0_EEEvN9__gnu_cxx17__normal_iteratorIPS0_S2_EEDpOT_(%"class.std::vector.0"* %0, %struct.Info* %1, %struct.Info* dereferenceable(8) %2) #0 comdat align 2 personality i8* bitcast (i32 (...)* @__gxx_personality_v0 to i8*) {
  %4 = alloca %"class.__gnu_cxx::__normal_iterator", align 8
  %5 = alloca %"class.__gnu_cxx::__normal_iterator", align 8
  %6 = getelementptr inbounds %"class.__gnu_cxx::__normal_iterator", %"class.__gnu_cxx::__normal_iterator"* %4, i32 0, i32 0
  store %struct.Info* %1, %struct.Info** %6, align 8
  %7 = call i64 @_ZNKSt6vectorI4InfoSaIS0_EE12_M_check_lenEmPKc(%"class.std::vector.0"* %0, i64 1, i8* getelementptr inbounds ([26 x i8], [26 x i8]* @.str.3, i32 0, i32 0))
  %8 = bitcast %"class.std::vector.0"* %0 to %"struct.std::_Vector_base.1"*
  %9 = getelementptr inbounds %"struct.std::_Vector_base.1", %"struct.std::_Vector_base.1"* %8, i32 0, i32 0
  %10 = getelementptr inbounds %"struct.std::_Vector_base<Info, std::allocator<Info> >::_Vector_impl", %"struct.std::_Vector_base<Info, std::allocator<Info> >::_Vector_impl"* %9, i32 0, i32 0
  %11 = load %struct.Info*, %struct.Info** %10, align 8
  %12 = bitcast %"class.std::vector.0"* %0 to %"struct.std::_Vector_base.1"*
  %13 = getelementptr inbounds %"struct.std::_Vector_base.1", %"struct.std::_Vector_base.1"* %12, i32 0, i32 0
  %14 = getelementptr inbounds %"struct.std::_Vector_base<Info, std::allocator<Info> >::_Vector_impl", %"struct.std::_Vector_base<Info, std::allocator<Info> >::_Vector_impl"* %13, i32 0, i32 1
  %15 = load %struct.Info*, %struct.Info** %14, align 8
  %16 = call %struct.Info* @_ZNSt6vectorI4InfoSaIS0_EE5beginEv(%"class.std::vector.0"* %0) #3
  %17 = getelementptr inbounds %"class.__gnu_cxx::__normal_iterator", %"class.__gnu_cxx::__normal_iterator"* %5, i32 0, i32 0
  store %struct.Info* %16, %struct.Info** %17, align 8
  %18 = call i64 @_ZN9__gnu_cxxmiIP4InfoSt6vectorIS1_SaIS1_EEEENS_17__normal_iteratorIT_T0_E15difference_typeERKS9_SC_(%"class.__gnu_cxx::__normal_iterator"* dereferenceable(8) %4, %"class.__gnu_cxx::__normal_iterator"* dereferenceable(8) %5) #3
  %19 = bitcast %"class.std::vector.0"* %0 to %"struct.std::_Vector_base.1"*
  %20 = call %struct.Info* @_ZNSt12_Vector_baseI4InfoSaIS0_EE11_M_allocateEm(%"struct.std::_Vector_base.1"* %19, i64 %7)
  %21 = bitcast %"class.std::vector.0"* %0 to %"struct.std::_Vector_base.1"*
  %22 = getelementptr inbounds %"struct.std::_Vector_base.1", %"struct.std::_Vector_base.1"* %21, i32 0, i32 0
  %23 = bitcast %"struct.std::_Vector_base<Info, std::allocator<Info> >::_Vector_impl"* %22 to %"class.std::allocator.2"*
  %24 = getelementptr inbounds %struct.Info, %struct.Info* %20, i64 %18
  %25 = call dereferenceable(8) %struct.Info* @_ZSt7forwardI4InfoEOT_RNSt16remove_referenceIS1_E4typeE(%struct.Info* dereferenceable(8) %2) #3
  invoke void @_ZNSt16allocator_traitsISaI4InfoEE9constructIS0_JS0_EEEvRS1_PT_DpOT0_(%"class.std::allocator.2"* dereferenceable(1) %23, %struct.Info* %24, %struct.Info* dereferenceable(8) %25)
          to label %26 unwind label %40

26:                                               ; preds = %3
  %27 = call dereferenceable(8) %struct.Info** @_ZNK9__gnu_cxx17__normal_iteratorIP4InfoSt6vectorIS1_SaIS1_EEE4baseEv(%"class.__gnu_cxx::__normal_iterator"* %4) #3
  %28 = load %struct.Info*, %struct.Info** %27, align 8
  %29 = bitcast %"class.std::vector.0"* %0 to %"struct.std::_Vector_base.1"*
  %30 = call dereferenceable(1) %"class.std::allocator.2"* @_ZNSt12_Vector_baseI4InfoSaIS0_EE19_M_get_Tp_allocatorEv(%"struct.std::_Vector_base.1"* %29) #3
  %31 = invoke %struct.Info* @_ZSt34__uninitialized_move_if_noexcept_aIP4InfoS1_SaIS0_EET0_T_S4_S3_RT1_(%struct.Info* %11, %struct.Info* %28, %struct.Info* %20, %"class.std::allocator.2"* dereferenceable(1) %30)
          to label %32 unwind label %40

32:                                               ; preds = %26
  %33 = getelementptr inbounds %struct.Info, %struct.Info* %31, i32 1
  %34 = call dereferenceable(8) %struct.Info** @_ZNK9__gnu_cxx17__normal_iteratorIP4InfoSt6vectorIS1_SaIS1_EEE4baseEv(%"class.__gnu_cxx::__normal_iterator"* %4) #3
  %35 = load %struct.Info*, %struct.Info** %34, align 8
  %36 = bitcast %"class.std::vector.0"* %0 to %"struct.std::_Vector_base.1"*
  %37 = call dereferenceable(1) %"class.std::allocator.2"* @_ZNSt12_Vector_baseI4InfoSaIS0_EE19_M_get_Tp_allocatorEv(%"struct.std::_Vector_base.1"* %36) #3
  %38 = invoke %struct.Info* @_ZSt34__uninitialized_move_if_noexcept_aIP4InfoS1_SaIS0_EET0_T_S4_S3_RT1_(%struct.Info* %35, %struct.Info* %15, %struct.Info* %33, %"class.std::allocator.2"* dereferenceable(1) %37)
          to label %39 unwind label %40

39:                                               ; preds = %32
  br label %65

40:                                               ; preds = %32, %26, %3
  %.0 = phi %struct.Info* [ %33, %32 ], [ null, %26 ], [ %20, %3 ]
  %41 = landingpad { i8*, i32 }
          catch i8* null
  %42 = extractvalue { i8*, i32 } %41, 0
  %43 = extractvalue { i8*, i32 } %41, 1
  br label %44

44:                                               ; preds = %40
  %45 = call i8* @__cxa_begin_catch(i8* %42) #3
  %46 = icmp ne %struct.Info* %.0, null
  br i1 %46, label %57, label %47

47:                                               ; preds = %44
  %48 = bitcast %"class.std::vector.0"* %0 to %"struct.std::_Vector_base.1"*
  %49 = getelementptr inbounds %"struct.std::_Vector_base.1", %"struct.std::_Vector_base.1"* %48, i32 0, i32 0
  %50 = bitcast %"struct.std::_Vector_base<Info, std::allocator<Info> >::_Vector_impl"* %49 to %"class.std::allocator.2"*
  %51 = getelementptr inbounds %struct.Info, %struct.Info* %20, i64 %18
  invoke void @_ZNSt16allocator_traitsISaI4InfoEE7destroyIS0_EEvRS1_PT_(%"class.std::allocator.2"* dereferenceable(1) %50, %struct.Info* %51)
          to label %52 unwind label %53

52:                                               ; preds = %47
  br label %61

53:                                               ; preds = %63, %61, %57, %47
  %54 = landingpad { i8*, i32 }
          cleanup
  %55 = extractvalue { i8*, i32 } %54, 0
  %56 = extractvalue { i8*, i32 } %54, 1
  invoke void @__cxa_end_catch()
          to label %64 unwind label %90

57:                                               ; preds = %44
  %58 = bitcast %"class.std::vector.0"* %0 to %"struct.std::_Vector_base.1"*
  %59 = call dereferenceable(1) %"class.std::allocator.2"* @_ZNSt12_Vector_baseI4InfoSaIS0_EE19_M_get_Tp_allocatorEv(%"struct.std::_Vector_base.1"* %58) #3
  invoke void @_ZSt8_DestroyIP4InfoS0_EvT_S2_RSaIT0_E(%struct.Info* %20, %struct.Info* %.0, %"class.std::allocator.2"* dereferenceable(1) %59)
          to label %60 unwind label %53

60:                                               ; preds = %57
  br label %61

61:                                               ; preds = %60, %52
  %62 = bitcast %"class.std::vector.0"* %0 to %"struct.std::_Vector_base.1"*
  invoke void @_ZNSt12_Vector_baseI4InfoSaIS0_EE13_M_deallocateEPS0_m(%"struct.std::_Vector_base.1"* %62, %struct.Info* %20, i64 %7)
          to label %63 unwind label %53

63:                                               ; preds = %61
  invoke void @__cxa_rethrow() #13
          to label %93 unwind label %53

64:                                               ; preds = %53
  br label %87

65:                                               ; preds = %39
  %66 = bitcast %"class.std::vector.0"* %0 to %"struct.std::_Vector_base.1"*
  %67 = call dereferenceable(1) %"class.std::allocator.2"* @_ZNSt12_Vector_baseI4InfoSaIS0_EE19_M_get_Tp_allocatorEv(%"struct.std::_Vector_base.1"* %66) #3
  call void @_ZSt8_DestroyIP4InfoS0_EvT_S2_RSaIT0_E(%struct.Info* %11, %struct.Info* %15, %"class.std::allocator.2"* dereferenceable(1) %67)
  %68 = bitcast %"class.std::vector.0"* %0 to %"struct.std::_Vector_base.1"*
  %69 = bitcast %"class.std::vector.0"* %0 to %"struct.std::_Vector_base.1"*
  %70 = getelementptr inbounds %"struct.std::_Vector_base.1", %"struct.std::_Vector_base.1"* %69, i32 0, i32 0
  %71 = getelementptr inbounds %"struct.std::_Vector_base<Info, std::allocator<Info> >::_Vector_impl", %"struct.std::_Vector_base<Info, std::allocator<Info> >::_Vector_impl"* %70, i32 0, i32 2
  %72 = load %struct.Info*, %struct.Info** %71, align 8
  %73 = ptrtoint %struct.Info* %72 to i64
  %74 = ptrtoint %struct.Info* %11 to i64
  %75 = sub i64 %73, %74
  %76 = sdiv exact i64 %75, 8
  call void @_ZNSt12_Vector_baseI4InfoSaIS0_EE13_M_deallocateEPS0_m(%"struct.std::_Vector_base.1"* %68, %struct.Info* %11, i64 %76)
  %77 = bitcast %"class.std::vector.0"* %0 to %"struct.std::_Vector_base.1"*
  %78 = getelementptr inbounds %"struct.std::_Vector_base.1", %"struct.std::_Vector_base.1"* %77, i32 0, i32 0
  %79 = getelementptr inbounds %"struct.std::_Vector_base<Info, std::allocator<Info> >::_Vector_impl", %"struct.std::_Vector_base<Info, std::allocator<Info> >::_Vector_impl"* %78, i32 0, i32 0
  store %struct.Info* %20, %struct.Info** %79, align 8
  %80 = bitcast %"class.std::vector.0"* %0 to %"struct.std::_Vector_base.1"*
  %81 = getelementptr inbounds %"struct.std::_Vector_base.1", %"struct.std::_Vector_base.1"* %80, i32 0, i32 0
  %82 = getelementptr inbounds %"struct.std::_Vector_base<Info, std::allocator<Info> >::_Vector_impl", %"struct.std::_Vector_base<Info, std::allocator<Info> >::_Vector_impl"* %81, i32 0, i32 1
  store %struct.Info* %38, %struct.Info** %82, align 8
  %83 = getelementptr inbounds %struct.Info, %struct.Info* %20, i64 %7
  %84 = bitcast %"class.std::vector.0"* %0 to %"struct.std::_Vector_base.1"*
  %85 = getelementptr inbounds %"struct.std::_Vector_base.1", %"struct.std::_Vector_base.1"* %84, i32 0, i32 0
  %86 = getelementptr inbounds %"struct.std::_Vector_base<Info, std::allocator<Info> >::_Vector_impl", %"struct.std::_Vector_base<Info, std::allocator<Info> >::_Vector_impl"* %85, i32 0, i32 2
  store %struct.Info* %83, %struct.Info** %86, align 8
  ret void

87:                                               ; preds = %64
  %88 = insertvalue { i8*, i32 } undef, i8* %55, 0
  %89 = insertvalue { i8*, i32 } %88, i32 %56, 1
  resume { i8*, i32 } %89

90:                                               ; preds = %53
  %91 = landingpad { i8*, i32 }
          catch i8* null
  %92 = extractvalue { i8*, i32 } %91, 0
  call void @__clang_call_terminate(i8* %92) #12
  unreachable

93:                                               ; preds = %63
  unreachable
}

; Function Attrs: noinline nounwind uwtable
define linkonce_odr void @_ZN9__gnu_cxx13new_allocatorI4InfoE9constructIS1_JS1_EEEvPT_DpOT0_(%"class.__gnu_cxx::new_allocator.3"* %0, %struct.Info* %1, %struct.Info* dereferenceable(8) %2) #4 comdat align 2 {
  %4 = bitcast %struct.Info* %1 to i8*
  %5 = bitcast i8* %4 to %struct.Info*
  %6 = call dereferenceable(8) %struct.Info* @_ZSt7forwardI4InfoEOT_RNSt16remove_referenceIS1_E4typeE(%struct.Info* dereferenceable(8) %2) #3
  %7 = bitcast %struct.Info* %5 to i8*
  %8 = bitcast %struct.Info* %6 to i8*
  call void @llvm.memcpy.p0i8.p0i8.i64(i8* align 4 %7, i8* align 4 %8, i64 8, i1 false)
  ret void
}

; Function Attrs: noinline uwtable
define linkonce_odr i64 @_ZNKSt6vectorI4InfoSaIS0_EE12_M_check_lenEmPKc(%"class.std::vector.0"* %0, i64 %1, i8* %2) #0 comdat align 2 {
  %4 = alloca i64, align 8
  %5 = alloca i64, align 8
  store i64 %1, i64* %4, align 8
  %6 = call i64 @_ZNKSt6vectorI4InfoSaIS0_EE8max_sizeEv(%"class.std::vector.0"* %0) #3
  %7 = call i64 @_ZNKSt6vectorI4InfoSaIS0_EE4sizeEv(%"class.std::vector.0"* %0) #3
  %8 = sub i64 %6, %7
  %9 = load i64, i64* %4, align 8
  %10 = icmp ult i64 %8, %9
  br i1 %10, label %11, label %12

11:                                               ; preds = %3
  call void @_ZSt20__throw_length_errorPKc(i8* %2) #13
  unreachable

12:                                               ; preds = %3
  %13 = call i64 @_ZNKSt6vectorI4InfoSaIS0_EE4sizeEv(%"class.std::vector.0"* %0) #3
  %14 = call i64 @_ZNKSt6vectorI4InfoSaIS0_EE4sizeEv(%"class.std::vector.0"* %0) #3
  store i64 %14, i64* %5, align 8
  %15 = call dereferenceable(8) i64* @_ZSt3maxImERKT_S2_S2_(i64* dereferenceable(8) %5, i64* dereferenceable(8) %4)
  %16 = load i64, i64* %15, align 8
  %17 = add i64 %13, %16
  %18 = call i64 @_ZNKSt6vectorI4InfoSaIS0_EE4sizeEv(%"class.std::vector.0"* %0) #3
  %19 = icmp ult i64 %17, %18
  br i1 %19, label %23, label %20

20:                                               ; preds = %12
  %21 = call i64 @_ZNKSt6vectorI4InfoSaIS0_EE8max_sizeEv(%"class.std::vector.0"* %0) #3
  %22 = icmp ugt i64 %17, %21
  br i1 %22, label %23, label %25

23:                                               ; preds = %20, %12
  %24 = call i64 @_ZNKSt6vectorI4InfoSaIS0_EE8max_sizeEv(%"class.std::vector.0"* %0) #3
  br label %26

25:                                               ; preds = %20
  br label %26

26:                                               ; preds = %25, %23
  %27 = phi i64 [ %24, %23 ], [ %17, %25 ]
  ret i64 %27
}

; Function Attrs: noinline nounwind uwtable
define linkonce_odr i64 @_ZN9__gnu_cxxmiIP4InfoSt6vectorIS1_SaIS1_EEEENS_17__normal_iteratorIT_T0_E15difference_typeERKS9_SC_(%"class.__gnu_cxx::__normal_iterator"* dereferenceable(8) %0, %"class.__gnu_cxx::__normal_iterator"* dereferenceable(8) %1) #4 comdat {
  %3 = call dereferenceable(8) %struct.Info** @_ZNK9__gnu_cxx17__normal_iteratorIP4InfoSt6vectorIS1_SaIS1_EEE4baseEv(%"class.__gnu_cxx::__normal_iterator"* %0) #3
  %4 = load %struct.Info*, %struct.Info** %3, align 8
  %5 = call dereferenceable(8) %struct.Info** @_ZNK9__gnu_cxx17__normal_iteratorIP4InfoSt6vectorIS1_SaIS1_EEE4baseEv(%"class.__gnu_cxx::__normal_iterator"* %1) #3
  %6 = load %struct.Info*, %struct.Info** %5, align 8
  %7 = ptrtoint %struct.Info* %4 to i64
  %8 = ptrtoint %struct.Info* %6 to i64
  %9 = sub i64 %7, %8
  %10 = sdiv exact i64 %9, 8
  ret i64 %10
}

; Function Attrs: noinline uwtable
define linkonce_odr %struct.Info* @_ZNSt12_Vector_baseI4InfoSaIS0_EE11_M_allocateEm(%"struct.std::_Vector_base.1"* %0, i64 %1) #0 comdat align 2 {
  %3 = icmp ne i64 %1, 0
  br i1 %3, label %4, label %8

4:                                                ; preds = %2
  %5 = getelementptr inbounds %"struct.std::_Vector_base.1", %"struct.std::_Vector_base.1"* %0, i32 0, i32 0
  %6 = bitcast %"struct.std::_Vector_base<Info, std::allocator<Info> >::_Vector_impl"* %5 to %"class.std::allocator.2"*
  %7 = call %struct.Info* @_ZNSt16allocator_traitsISaI4InfoEE8allocateERS1_m(%"class.std::allocator.2"* dereferenceable(1) %6, i64 %1)
  br label %9

8:                                                ; preds = %2
  br label %9

9:                                                ; preds = %8, %4
  %10 = phi %struct.Info* [ %7, %4 ], [ null, %8 ]
  ret %struct.Info* %10
}

; Function Attrs: noinline uwtable
define linkonce_odr %struct.Info* @_ZSt34__uninitialized_move_if_noexcept_aIP4InfoS1_SaIS0_EET0_T_S4_S3_RT1_(%struct.Info* %0, %struct.Info* %1, %struct.Info* %2, %"class.std::allocator.2"* dereferenceable(1) %3) #0 comdat {
  %5 = alloca %"class.std::move_iterator", align 8
  %6 = alloca %"class.std::move_iterator", align 8
  %7 = call %struct.Info* @_ZSt32__make_move_if_noexcept_iteratorI4InfoSt13move_iteratorIPS0_EET0_PT_(%struct.Info* %0)
  %8 = getelementptr inbounds %"class.std::move_iterator", %"class.std::move_iterator"* %5, i32 0, i32 0
  store %struct.Info* %7, %struct.Info** %8, align 8
  %9 = call %struct.Info* @_ZSt32__make_move_if_noexcept_iteratorI4InfoSt13move_iteratorIPS0_EET0_PT_(%struct.Info* %1)
  %10 = getelementptr inbounds %"class.std::move_iterator", %"class.std::move_iterator"* %6, i32 0, i32 0
  store %struct.Info* %9, %struct.Info** %10, align 8
  %11 = getelementptr inbounds %"class.std::move_iterator", %"class.std::move_iterator"* %5, i32 0, i32 0
  %12 = load %struct.Info*, %struct.Info** %11, align 8
  %13 = getelementptr inbounds %"class.std::move_iterator", %"class.std::move_iterator"* %6, i32 0, i32 0
  %14 = load %struct.Info*, %struct.Info** %13, align 8
  %15 = call %struct.Info* @_ZSt22__uninitialized_copy_aISt13move_iteratorIP4InfoES2_S1_ET0_T_S5_S4_RSaIT1_E(%struct.Info* %12, %struct.Info* %14, %struct.Info* %2, %"class.std::allocator.2"* dereferenceable(1) %3)
  ret %struct.Info* %15
}

; Function Attrs: noinline nounwind uwtable
define linkonce_odr dereferenceable(8) %struct.Info** @_ZNK9__gnu_cxx17__normal_iteratorIP4InfoSt6vectorIS1_SaIS1_EEE4baseEv(%"class.__gnu_cxx::__normal_iterator"* %0) #4 comdat align 2 {
  %2 = getelementptr inbounds %"class.__gnu_cxx::__normal_iterator", %"class.__gnu_cxx::__normal_iterator"* %0, i32 0, i32 0
  ret %struct.Info** %2
}

; Function Attrs: noinline uwtable
define linkonce_odr void @_ZNSt16allocator_traitsISaI4InfoEE7destroyIS0_EEvRS1_PT_(%"class.std::allocator.2"* dereferenceable(1) %0, %struct.Info* %1) #0 comdat align 2 {
  %3 = bitcast %"class.std::allocator.2"* %0 to %"class.__gnu_cxx::new_allocator.3"*
  call void @_ZN9__gnu_cxx13new_allocatorI4InfoE7destroyIS1_EEvPT_(%"class.__gnu_cxx::new_allocator.3"* %3, %struct.Info* %1)
  ret void
}

declare void @__cxa_rethrow()

declare void @__cxa_end_catch()

; Function Attrs: noinline nounwind uwtable
define linkonce_odr i64 @_ZNKSt6vectorI4InfoSaIS0_EE8max_sizeEv(%"class.std::vector.0"* %0) #4 comdat align 2 {
  %2 = bitcast %"class.std::vector.0"* %0 to %"struct.std::_Vector_base.1"*
  %3 = call dereferenceable(1) %"class.std::allocator.2"* @_ZNKSt12_Vector_baseI4InfoSaIS0_EE19_M_get_Tp_allocatorEv(%"struct.std::_Vector_base.1"* %2) #3
  %4 = call i64 @_ZNSt16allocator_traitsISaI4InfoEE8max_sizeERKS1_(%"class.std::allocator.2"* dereferenceable(1) %3) #3
  ret i64 %4
}

; Function Attrs: noinline nounwind uwtable
define linkonce_odr i64 @_ZNKSt6vectorI4InfoSaIS0_EE4sizeEv(%"class.std::vector.0"* %0) #4 comdat align 2 {
  %2 = bitcast %"class.std::vector.0"* %0 to %"struct.std::_Vector_base.1"*
  %3 = getelementptr inbounds %"struct.std::_Vector_base.1", %"struct.std::_Vector_base.1"* %2, i32 0, i32 0
  %4 = getelementptr inbounds %"struct.std::_Vector_base<Info, std::allocator<Info> >::_Vector_impl", %"struct.std::_Vector_base<Info, std::allocator<Info> >::_Vector_impl"* %3, i32 0, i32 1
  %5 = load %struct.Info*, %struct.Info** %4, align 8
  %6 = bitcast %"class.std::vector.0"* %0 to %"struct.std::_Vector_base.1"*
  %7 = getelementptr inbounds %"struct.std::_Vector_base.1", %"struct.std::_Vector_base.1"* %6, i32 0, i32 0
  %8 = getelementptr inbounds %"struct.std::_Vector_base<Info, std::allocator<Info> >::_Vector_impl", %"struct.std::_Vector_base<Info, std::allocator<Info> >::_Vector_impl"* %7, i32 0, i32 0
  %9 = load %struct.Info*, %struct.Info** %8, align 8
  %10 = ptrtoint %struct.Info* %5 to i64
  %11 = ptrtoint %struct.Info* %9 to i64
  %12 = sub i64 %10, %11
  %13 = sdiv exact i64 %12, 8
  ret i64 %13
}

; Function Attrs: noreturn
declare void @_ZSt20__throw_length_errorPKc(i8*) #8

; Function Attrs: noinline nounwind uwtable
define linkonce_odr dereferenceable(8) i64* @_ZSt3maxImERKT_S2_S2_(i64* dereferenceable(8) %0, i64* dereferenceable(8) %1) #4 comdat {
  %3 = load i64, i64* %0, align 8
  %4 = load i64, i64* %1, align 8
  %5 = icmp ult i64 %3, %4
  br i1 %5, label %6, label %7

6:                                                ; preds = %2
  br label %8

7:                                                ; preds = %2
  br label %8

8:                                                ; preds = %7, %6
  %.0 = phi i64* [ %1, %6 ], [ %0, %7 ]
  ret i64* %.0
}

; Function Attrs: noinline nounwind uwtable
define linkonce_odr i64 @_ZNSt16allocator_traitsISaI4InfoEE8max_sizeERKS1_(%"class.std::allocator.2"* dereferenceable(1) %0) #4 comdat align 2 {
  %2 = bitcast %"class.std::allocator.2"* %0 to %"class.__gnu_cxx::new_allocator.3"*
  %3 = call i64 @_ZNK9__gnu_cxx13new_allocatorI4InfoE8max_sizeEv(%"class.__gnu_cxx::new_allocator.3"* %2) #3
  ret i64 %3
}

; Function Attrs: noinline nounwind uwtable
define linkonce_odr dereferenceable(1) %"class.std::allocator.2"* @_ZNKSt12_Vector_baseI4InfoSaIS0_EE19_M_get_Tp_allocatorEv(%"struct.std::_Vector_base.1"* %0) #4 comdat align 2 {
  %2 = getelementptr inbounds %"struct.std::_Vector_base.1", %"struct.std::_Vector_base.1"* %0, i32 0, i32 0
  %3 = bitcast %"struct.std::_Vector_base<Info, std::allocator<Info> >::_Vector_impl"* %2 to %"class.std::allocator.2"*
  ret %"class.std::allocator.2"* %3
}

; Function Attrs: noinline nounwind uwtable
define linkonce_odr i64 @_ZNK9__gnu_cxx13new_allocatorI4InfoE8max_sizeEv(%"class.__gnu_cxx::new_allocator.3"* %0) #4 comdat align 2 {
  ret i64 2305843009213693951
}

; Function Attrs: noinline uwtable
define linkonce_odr %struct.Info* @_ZNSt16allocator_traitsISaI4InfoEE8allocateERS1_m(%"class.std::allocator.2"* dereferenceable(1) %0, i64 %1) #0 comdat align 2 {
  %3 = bitcast %"class.std::allocator.2"* %0 to %"class.__gnu_cxx::new_allocator.3"*
  %4 = call %struct.Info* @_ZN9__gnu_cxx13new_allocatorI4InfoE8allocateEmPKv(%"class.__gnu_cxx::new_allocator.3"* %3, i64 %1, i8* null)
  ret %struct.Info* %4
}

; Function Attrs: noinline uwtable
define linkonce_odr %struct.Info* @_ZN9__gnu_cxx13new_allocatorI4InfoE8allocateEmPKv(%"class.__gnu_cxx::new_allocator.3"* %0, i64 %1, i8* %2) #0 comdat align 2 {
  %4 = call i64 @_ZNK9__gnu_cxx13new_allocatorI4InfoE8max_sizeEv(%"class.__gnu_cxx::new_allocator.3"* %0) #3
  %5 = icmp ugt i64 %1, %4
  br i1 %5, label %6, label %7

6:                                                ; preds = %3
  call void @_ZSt17__throw_bad_allocv() #13
  unreachable

7:                                                ; preds = %3
  %8 = mul i64 %1, 8
  %9 = call i8* @_Znwm(i64 %8)
  %10 = bitcast i8* %9 to %struct.Info*
  ret %struct.Info* %10
}

; Function Attrs: noreturn
declare void @_ZSt17__throw_bad_allocv() #8

; Function Attrs: nobuiltin
declare noalias i8* @_Znwm(i64) #9

; Function Attrs: noinline uwtable
define linkonce_odr %struct.Info* @_ZSt22__uninitialized_copy_aISt13move_iteratorIP4InfoES2_S1_ET0_T_S5_S4_RSaIT1_E(%struct.Info* %0, %struct.Info* %1, %struct.Info* %2, %"class.std::allocator.2"* dereferenceable(1) %3) #0 comdat {
  %5 = alloca %"class.std::move_iterator", align 8
  %6 = alloca %"class.std::move_iterator", align 8
  %7 = alloca %"class.std::move_iterator", align 8
  %8 = alloca %"class.std::move_iterator", align 8
  %9 = getelementptr inbounds %"class.std::move_iterator", %"class.std::move_iterator"* %5, i32 0, i32 0
  store %struct.Info* %0, %struct.Info** %9, align 8
  %10 = getelementptr inbounds %"class.std::move_iterator", %"class.std::move_iterator"* %6, i32 0, i32 0
  store %struct.Info* %1, %struct.Info** %10, align 8
  %11 = bitcast %"class.std::move_iterator"* %7 to i8*
  %12 = bitcast %"class.std::move_iterator"* %5 to i8*
  call void @llvm.memcpy.p0i8.p0i8.i64(i8* align 8 %11, i8* align 8 %12, i64 8, i1 false)
  %13 = bitcast %"class.std::move_iterator"* %8 to i8*
  %14 = bitcast %"class.std::move_iterator"* %6 to i8*
  call void @llvm.memcpy.p0i8.p0i8.i64(i8* align 8 %13, i8* align 8 %14, i64 8, i1 false)
  %15 = getelementptr inbounds %"class.std::move_iterator", %"class.std::move_iterator"* %7, i32 0, i32 0
  %16 = load %struct.Info*, %struct.Info** %15, align 8
  %17 = getelementptr inbounds %"class.std::move_iterator", %"class.std::move_iterator"* %8, i32 0, i32 0
  %18 = load %struct.Info*, %struct.Info** %17, align 8
  %19 = call %struct.Info* @_ZSt18uninitialized_copyISt13move_iteratorIP4InfoES2_ET0_T_S5_S4_(%struct.Info* %16, %struct.Info* %18, %struct.Info* %2)
  ret %struct.Info* %19
}

; Function Attrs: noinline uwtable
define linkonce_odr %struct.Info* @_ZSt32__make_move_if_noexcept_iteratorI4InfoSt13move_iteratorIPS0_EET0_PT_(%struct.Info* %0) #0 comdat {
  %2 = alloca %"class.std::move_iterator", align 8
  call void @_ZNSt13move_iteratorIP4InfoEC2ES1_(%"class.std::move_iterator"* %2, %struct.Info* %0)
  %3 = getelementptr inbounds %"class.std::move_iterator", %"class.std::move_iterator"* %2, i32 0, i32 0
  %4 = load %struct.Info*, %struct.Info** %3, align 8
  ret %struct.Info* %4
}

; Function Attrs: noinline uwtable
define linkonce_odr %struct.Info* @_ZSt18uninitialized_copyISt13move_iteratorIP4InfoES2_ET0_T_S5_S4_(%struct.Info* %0, %struct.Info* %1, %struct.Info* %2) #0 comdat {
  %4 = alloca %"class.std::move_iterator", align 8
  %5 = alloca %"class.std::move_iterator", align 8
  %6 = alloca %"class.std::move_iterator", align 8
  %7 = alloca %"class.std::move_iterator", align 8
  %8 = getelementptr inbounds %"class.std::move_iterator", %"class.std::move_iterator"* %4, i32 0, i32 0
  store %struct.Info* %0, %struct.Info** %8, align 8
  %9 = getelementptr inbounds %"class.std::move_iterator", %"class.std::move_iterator"* %5, i32 0, i32 0
  store %struct.Info* %1, %struct.Info** %9, align 8
  %10 = bitcast %"class.std::move_iterator"* %6 to i8*
  %11 = bitcast %"class.std::move_iterator"* %4 to i8*
  call void @llvm.memcpy.p0i8.p0i8.i64(i8* align 8 %10, i8* align 8 %11, i64 8, i1 false)
  %12 = bitcast %"class.std::move_iterator"* %7 to i8*
  %13 = bitcast %"class.std::move_iterator"* %5 to i8*
  call void @llvm.memcpy.p0i8.p0i8.i64(i8* align 8 %12, i8* align 8 %13, i64 8, i1 false)
  %14 = getelementptr inbounds %"class.std::move_iterator", %"class.std::move_iterator"* %6, i32 0, i32 0
  %15 = load %struct.Info*, %struct.Info** %14, align 8
  %16 = getelementptr inbounds %"class.std::move_iterator", %"class.std::move_iterator"* %7, i32 0, i32 0
  %17 = load %struct.Info*, %struct.Info** %16, align 8
  %18 = call %struct.Info* @_ZNSt20__uninitialized_copyILb0EE13__uninit_copyISt13move_iteratorIP4InfoES4_EET0_T_S7_S6_(%struct.Info* %15, %struct.Info* %17, %struct.Info* %2)
  ret %struct.Info* %18
}

; Function Attrs: noinline uwtable
define linkonce_odr %struct.Info* @_ZNSt20__uninitialized_copyILb0EE13__uninit_copyISt13move_iteratorIP4InfoES4_EET0_T_S7_S6_(%struct.Info* %0, %struct.Info* %1, %struct.Info* %2) #0 comdat align 2 personality i8* bitcast (i32 (...)* @__gxx_personality_v0 to i8*) {
  %4 = alloca %"class.std::move_iterator", align 8
  %5 = alloca %"class.std::move_iterator", align 8
  %6 = getelementptr inbounds %"class.std::move_iterator", %"class.std::move_iterator"* %4, i32 0, i32 0
  store %struct.Info* %0, %struct.Info** %6, align 8
  %7 = getelementptr inbounds %"class.std::move_iterator", %"class.std::move_iterator"* %5, i32 0, i32 0
  store %struct.Info* %1, %struct.Info** %7, align 8
  br label %8

8:                                                ; preds = %18, %3
  %.0 = phi %struct.Info* [ %2, %3 ], [ %19, %18 ]
  %9 = invoke zeroext i1 @_ZStneIP4InfoEbRKSt13move_iteratorIT_ES6_(%"class.std::move_iterator"* dereferenceable(8) %4, %"class.std::move_iterator"* dereferenceable(8) %5)
          to label %10 unwind label %20

10:                                               ; preds = %8
  br i1 %9, label %11, label %27

11:                                               ; preds = %10
  %12 = call %struct.Info* @_ZSt11__addressofI4InfoEPT_RS1_(%struct.Info* dereferenceable(8) %.0) #3
  %13 = invoke dereferenceable(8) %struct.Info* @_ZNKSt13move_iteratorIP4InfoEdeEv(%"class.std::move_iterator"* %4)
          to label %14 unwind label %20

14:                                               ; preds = %11
  invoke void @_ZSt10_ConstructI4InfoJS0_EEvPT_DpOT0_(%struct.Info* %12, %struct.Info* dereferenceable(8) %13)
          to label %15 unwind label %20

15:                                               ; preds = %14
  br label %16

16:                                               ; preds = %15
  %17 = invoke dereferenceable(8) %"class.std::move_iterator"* @_ZNSt13move_iteratorIP4InfoEppEv(%"class.std::move_iterator"* %4)
          to label %18 unwind label %20

18:                                               ; preds = %16
  %19 = getelementptr inbounds %struct.Info, %struct.Info* %.0, i32 1
  br label %8

20:                                               ; preds = %16, %14, %11, %8
  %21 = landingpad { i8*, i32 }
          catch i8* null
  %22 = extractvalue { i8*, i32 } %21, 0
  %23 = extractvalue { i8*, i32 } %21, 1
  br label %24

24:                                               ; preds = %20
  %25 = call i8* @__cxa_begin_catch(i8* %22) #3
  invoke void @_ZSt8_DestroyIP4InfoEvT_S2_(%struct.Info* %2, %struct.Info* %.0)
          to label %26 unwind label %28

26:                                               ; preds = %24
  invoke void @__cxa_rethrow() #13
          to label %40 unwind label %28

27:                                               ; preds = %10
  ret %struct.Info* %.0

28:                                               ; preds = %26, %24
  %29 = landingpad { i8*, i32 }
          cleanup
  %30 = extractvalue { i8*, i32 } %29, 0
  %31 = extractvalue { i8*, i32 } %29, 1
  invoke void @__cxa_end_catch()
          to label %32 unwind label %37

32:                                               ; preds = %28
  br label %34

33:                                               ; No predecessors!
  call void @llvm.trap()
  unreachable

34:                                               ; preds = %32
  %35 = insertvalue { i8*, i32 } undef, i8* %30, 0
  %36 = insertvalue { i8*, i32 } %35, i32 %31, 1
  resume { i8*, i32 } %36

37:                                               ; preds = %28
  %38 = landingpad { i8*, i32 }
          catch i8* null
  %39 = extractvalue { i8*, i32 } %38, 0
  call void @__clang_call_terminate(i8* %39) #12
  unreachable

40:                                               ; preds = %26
  unreachable
}

; Function Attrs: noinline uwtable
define linkonce_odr zeroext i1 @_ZStneIP4InfoEbRKSt13move_iteratorIT_ES6_(%"class.std::move_iterator"* dereferenceable(8) %0, %"class.std::move_iterator"* dereferenceable(8) %1) #0 comdat {
  %3 = call zeroext i1 @_ZSteqIP4InfoEbRKSt13move_iteratorIT_ES6_(%"class.std::move_iterator"* dereferenceable(8) %0, %"class.std::move_iterator"* dereferenceable(8) %1)
  %4 = xor i1 %3, true
  ret i1 %4
}

; Function Attrs: noinline nounwind uwtable
define linkonce_odr void @_ZSt10_ConstructI4InfoJS0_EEvPT_DpOT0_(%struct.Info* %0, %struct.Info* dereferenceable(8) %1) #4 comdat {
  %3 = bitcast %struct.Info* %0 to i8*
  %4 = bitcast i8* %3 to %struct.Info*
  %5 = call dereferenceable(8) %struct.Info* @_ZSt7forwardI4InfoEOT_RNSt16remove_referenceIS1_E4typeE(%struct.Info* dereferenceable(8) %1) #3
  %6 = bitcast %struct.Info* %4 to i8*
  %7 = bitcast %struct.Info* %5 to i8*
  call void @llvm.memcpy.p0i8.p0i8.i64(i8* align 4 %6, i8* align 4 %7, i64 8, i1 false)
  ret void
}

; Function Attrs: noinline nounwind uwtable
define linkonce_odr %struct.Info* @_ZSt11__addressofI4InfoEPT_RS1_(%struct.Info* dereferenceable(8) %0) #4 comdat {
  ret %struct.Info* %0
}

; Function Attrs: noinline nounwind uwtable
define linkonce_odr dereferenceable(8) %struct.Info* @_ZNKSt13move_iteratorIP4InfoEdeEv(%"class.std::move_iterator"* %0) #4 comdat align 2 {
  %2 = getelementptr inbounds %"class.std::move_iterator", %"class.std::move_iterator"* %0, i32 0, i32 0
  %3 = load %struct.Info*, %struct.Info** %2, align 8
  ret %struct.Info* %3
}

; Function Attrs: noinline nounwind uwtable
define linkonce_odr dereferenceable(8) %"class.std::move_iterator"* @_ZNSt13move_iteratorIP4InfoEppEv(%"class.std::move_iterator"* %0) #4 comdat align 2 {
  %2 = getelementptr inbounds %"class.std::move_iterator", %"class.std::move_iterator"* %0, i32 0, i32 0
  %3 = load %struct.Info*, %struct.Info** %2, align 8
  %4 = getelementptr inbounds %struct.Info, %struct.Info* %3, i32 1
  store %struct.Info* %4, %struct.Info** %2, align 8
  ret %"class.std::move_iterator"* %0
}

; Function Attrs: cold noreturn nounwind
declare void @llvm.trap() #10

; Function Attrs: noinline uwtable
define linkonce_odr zeroext i1 @_ZSteqIP4InfoEbRKSt13move_iteratorIT_ES6_(%"class.std::move_iterator"* dereferenceable(8) %0, %"class.std::move_iterator"* dereferenceable(8) %1) #0 comdat {
  %3 = call %struct.Info* @_ZNKSt13move_iteratorIP4InfoE4baseEv(%"class.std::move_iterator"* %0)
  %4 = call %struct.Info* @_ZNKSt13move_iteratorIP4InfoE4baseEv(%"class.std::move_iterator"* %1)
  %5 = icmp eq %struct.Info* %3, %4
  ret i1 %5
}

; Function Attrs: noinline nounwind uwtable
define linkonce_odr %struct.Info* @_ZNKSt13move_iteratorIP4InfoE4baseEv(%"class.std::move_iterator"* %0) #4 comdat align 2 {
  %2 = getelementptr inbounds %"class.std::move_iterator", %"class.std::move_iterator"* %0, i32 0, i32 0
  %3 = load %struct.Info*, %struct.Info** %2, align 8
  ret %struct.Info* %3
}

; Function Attrs: noinline nounwind uwtable
define linkonce_odr void @_ZNSt13move_iteratorIP4InfoEC2ES1_(%"class.std::move_iterator"* %0, %struct.Info* %1) unnamed_addr #4 comdat align 2 {
  %3 = getelementptr inbounds %"class.std::move_iterator", %"class.std::move_iterator"* %0, i32 0, i32 0
  store %struct.Info* %1, %struct.Info** %3, align 8
  ret void
}

; Function Attrs: noinline nounwind uwtable
define linkonce_odr void @_ZN9__gnu_cxx13new_allocatorI4InfoE7destroyIS1_EEvPT_(%"class.__gnu_cxx::new_allocator.3"* %0, %struct.Info* %1) #4 comdat align 2 {
  ret void
}

; Function Attrs: noinline nounwind uwtable
define linkonce_odr dereferenceable(1) %"struct.std::less"* @_ZSt4moveIRSt4lessI4InfoEEONSt16remove_referenceIT_E4typeEOS5_(%"struct.std::less"* dereferenceable(1) %0) #4 comdat {
  ret %"struct.std::less"* %0
}

; Function Attrs: noinline nounwind uwtable
define linkonce_odr void @_ZN9__gnu_cxx5__ops14_Iter_comp_valISt4lessI4InfoEEC2ES4_(%"struct.__gnu_cxx::__ops::_Iter_comp_val"* %0) unnamed_addr #4 comdat align 2 {
  %2 = alloca %"struct.std::less", align 1
  %3 = getelementptr inbounds %"struct.__gnu_cxx::__ops::_Iter_comp_val", %"struct.__gnu_cxx::__ops::_Iter_comp_val"* %0, i32 0, i32 0
  %4 = call dereferenceable(1) %"struct.std::less"* @_ZSt4moveIRSt4lessI4InfoEEONSt16remove_referenceIT_E4typeEOS5_(%"struct.std::less"* dereferenceable(1) %2) #3
  ret void
}

; Function Attrs: noinline nounwind uwtable
define linkonce_odr %struct.Info* @_ZNK9__gnu_cxx17__normal_iteratorIP4InfoSt6vectorIS1_SaIS1_EEEmiEl(%"class.__gnu_cxx::__normal_iterator"* %0, i64 %1) #4 comdat align 2 {
  %3 = alloca %"class.__gnu_cxx::__normal_iterator", align 8
  %4 = alloca %struct.Info*, align 8
  %5 = getelementptr inbounds %"class.__gnu_cxx::__normal_iterator", %"class.__gnu_cxx::__normal_iterator"* %0, i32 0, i32 0
  %6 = load %struct.Info*, %struct.Info** %5, align 8
  %7 = sub i64 0, %1
  %8 = getelementptr inbounds %struct.Info, %struct.Info* %6, i64 %7
  store %struct.Info* %8, %struct.Info** %4, align 8
  call void @_ZN9__gnu_cxx17__normal_iteratorIP4InfoSt6vectorIS1_SaIS1_EEEC2ERKS2_(%"class.__gnu_cxx::__normal_iterator"* %3, %struct.Info** dereferenceable(8) %4) #3
  %9 = getelementptr inbounds %"class.__gnu_cxx::__normal_iterator", %"class.__gnu_cxx::__normal_iterator"* %3, i32 0, i32 0
  %10 = load %struct.Info*, %struct.Info** %9, align 8
  ret %struct.Info* %10
}

; Function Attrs: noinline nounwind uwtable
define linkonce_odr dereferenceable(8) %struct.Info* @_ZNK9__gnu_cxx17__normal_iteratorIP4InfoSt6vectorIS1_SaIS1_EEEdeEv(%"class.__gnu_cxx::__normal_iterator"* %0) #4 comdat align 2 {
  %2 = getelementptr inbounds %"class.__gnu_cxx::__normal_iterator", %"class.__gnu_cxx::__normal_iterator"* %0, i32 0, i32 0
  %3 = load %struct.Info*, %struct.Info** %2, align 8
  ret %struct.Info* %3
}

; Function Attrs: noinline uwtable
define linkonce_odr void @_ZSt11__push_heapIN9__gnu_cxx17__normal_iteratorIP4InfoSt6vectorIS2_SaIS2_EEEElS2_NS0_5__ops14_Iter_comp_valISt4lessIS2_EEEEvT_T0_SE_T1_RT2_(%struct.Info* %0, i64 %1, i64 %2, i64 %3, %"struct.__gnu_cxx::__ops::_Iter_comp_val"* dereferenceable(1) %4) #0 comdat {
  %6 = alloca %"class.__gnu_cxx::__normal_iterator", align 8
  %7 = alloca %struct.Info, align 4
  %8 = alloca %"class.__gnu_cxx::__normal_iterator", align 8
  %9 = alloca %"class.__gnu_cxx::__normal_iterator", align 8
  %10 = alloca %"class.__gnu_cxx::__normal_iterator", align 8
  %11 = alloca %"class.__gnu_cxx::__normal_iterator", align 8
  %12 = getelementptr inbounds %"class.__gnu_cxx::__normal_iterator", %"class.__gnu_cxx::__normal_iterator"* %6, i32 0, i32 0
  store %struct.Info* %0, %struct.Info** %12, align 8
  %13 = bitcast %struct.Info* %7 to i64*
  store i64 %3, i64* %13, align 4
  %14 = sub nsw i64 %1, 1
  %15 = sdiv i64 %14, 2
  br label %16

16:                                               ; preds = %26, %5
  %.01 = phi i64 [ %15, %5 ], [ %37, %26 ]
  %.0 = phi i64 [ %1, %5 ], [ %.01, %26 ]
  %17 = icmp sgt i64 %.0, %2
  br i1 %17, label %18, label %24

18:                                               ; preds = %16
  %19 = call %struct.Info* @_ZNK9__gnu_cxx17__normal_iteratorIP4InfoSt6vectorIS1_SaIS1_EEEplEl(%"class.__gnu_cxx::__normal_iterator"* %6, i64 %.01) #3
  %20 = getelementptr inbounds %"class.__gnu_cxx::__normal_iterator", %"class.__gnu_cxx::__normal_iterator"* %8, i32 0, i32 0
  store %struct.Info* %19, %struct.Info** %20, align 8
  %21 = getelementptr inbounds %"class.__gnu_cxx::__normal_iterator", %"class.__gnu_cxx::__normal_iterator"* %8, i32 0, i32 0
  %22 = load %struct.Info*, %struct.Info** %21, align 8
  %23 = call zeroext i1 @_ZN9__gnu_cxx5__ops14_Iter_comp_valISt4lessI4InfoEEclINS_17__normal_iteratorIPS3_St6vectorIS3_SaIS3_EEEES3_EEbT_RT0_(%"struct.__gnu_cxx::__ops::_Iter_comp_val"* %4, %struct.Info* %22, %struct.Info* dereferenceable(8) %7)
  br label %24

24:                                               ; preds = %18, %16
  %25 = phi i1 [ false, %16 ], [ %23, %18 ]
  br i1 %25, label %26, label %38

26:                                               ; preds = %24
  %27 = call %struct.Info* @_ZNK9__gnu_cxx17__normal_iteratorIP4InfoSt6vectorIS1_SaIS1_EEEplEl(%"class.__gnu_cxx::__normal_iterator"* %6, i64 %.01) #3
  %28 = getelementptr inbounds %"class.__gnu_cxx::__normal_iterator", %"class.__gnu_cxx::__normal_iterator"* %9, i32 0, i32 0
  store %struct.Info* %27, %struct.Info** %28, align 8
  %29 = call dereferenceable(8) %struct.Info* @_ZNK9__gnu_cxx17__normal_iteratorIP4InfoSt6vectorIS1_SaIS1_EEEdeEv(%"class.__gnu_cxx::__normal_iterator"* %9) #3
  %30 = call dereferenceable(8) %struct.Info* @_ZSt4moveIR4InfoEONSt16remove_referenceIT_E4typeEOS3_(%struct.Info* dereferenceable(8) %29) #3
  %31 = call %struct.Info* @_ZNK9__gnu_cxx17__normal_iteratorIP4InfoSt6vectorIS1_SaIS1_EEEplEl(%"class.__gnu_cxx::__normal_iterator"* %6, i64 %.0) #3
  %32 = getelementptr inbounds %"class.__gnu_cxx::__normal_iterator", %"class.__gnu_cxx::__normal_iterator"* %10, i32 0, i32 0
  store %struct.Info* %31, %struct.Info** %32, align 8
  %33 = call dereferenceable(8) %struct.Info* @_ZNK9__gnu_cxx17__normal_iteratorIP4InfoSt6vectorIS1_SaIS1_EEEdeEv(%"class.__gnu_cxx::__normal_iterator"* %10) #3
  %34 = bitcast %struct.Info* %33 to i8*
  %35 = bitcast %struct.Info* %30 to i8*
  call void @llvm.memcpy.p0i8.p0i8.i64(i8* align 4 %34, i8* align 4 %35, i64 8, i1 false)
  %36 = sub nsw i64 %.01, 1
  %37 = sdiv i64 %36, 2
  br label %16

38:                                               ; preds = %24
  %39 = call dereferenceable(8) %struct.Info* @_ZSt4moveIR4InfoEONSt16remove_referenceIT_E4typeEOS3_(%struct.Info* dereferenceable(8) %7) #3
  %40 = call %struct.Info* @_ZNK9__gnu_cxx17__normal_iteratorIP4InfoSt6vectorIS1_SaIS1_EEEplEl(%"class.__gnu_cxx::__normal_iterator"* %6, i64 %.0) #3
  %41 = getelementptr inbounds %"class.__gnu_cxx::__normal_iterator", %"class.__gnu_cxx::__normal_iterator"* %11, i32 0, i32 0
  store %struct.Info* %40, %struct.Info** %41, align 8
  %42 = call dereferenceable(8) %struct.Info* @_ZNK9__gnu_cxx17__normal_iteratorIP4InfoSt6vectorIS1_SaIS1_EEEdeEv(%"class.__gnu_cxx::__normal_iterator"* %11) #3
  %43 = bitcast %struct.Info* %42 to i8*
  %44 = bitcast %struct.Info* %39 to i8*
  call void @llvm.memcpy.p0i8.p0i8.i64(i8* align 4 %43, i8* align 4 %44, i64 8, i1 false)
  ret void
}

; Function Attrs: noinline nounwind uwtable
define linkonce_odr void @_ZN9__gnu_cxx17__normal_iteratorIP4InfoSt6vectorIS1_SaIS1_EEEC2ERKS2_(%"class.__gnu_cxx::__normal_iterator"* %0, %struct.Info** dereferenceable(8) %1) unnamed_addr #4 comdat align 2 {
  %3 = getelementptr inbounds %"class.__gnu_cxx::__normal_iterator", %"class.__gnu_cxx::__normal_iterator"* %0, i32 0, i32 0
  %4 = load %struct.Info*, %struct.Info** %1, align 8
  store %struct.Info* %4, %struct.Info** %3, align 8
  ret void
}

; Function Attrs: noinline uwtable
define linkonce_odr zeroext i1 @_ZN9__gnu_cxx5__ops14_Iter_comp_valISt4lessI4InfoEEclINS_17__normal_iteratorIPS3_St6vectorIS3_SaIS3_EEEES3_EEbT_RT0_(%"struct.__gnu_cxx::__ops::_Iter_comp_val"* %0, %struct.Info* %1, %struct.Info* dereferenceable(8) %2) #0 comdat align 2 {
  %4 = alloca %"class.__gnu_cxx::__normal_iterator", align 8
  %5 = getelementptr inbounds %"class.__gnu_cxx::__normal_iterator", %"class.__gnu_cxx::__normal_iterator"* %4, i32 0, i32 0
  store %struct.Info* %1, %struct.Info** %5, align 8
  %6 = getelementptr inbounds %"struct.__gnu_cxx::__ops::_Iter_comp_val", %"struct.__gnu_cxx::__ops::_Iter_comp_val"* %0, i32 0, i32 0
  %7 = call dereferenceable(8) %struct.Info* @_ZNK9__gnu_cxx17__normal_iteratorIP4InfoSt6vectorIS1_SaIS1_EEEdeEv(%"class.__gnu_cxx::__normal_iterator"* %4) #3
  %8 = call zeroext i1 @_ZNKSt4lessI4InfoEclERKS0_S3_(%"struct.std::less"* %6, %struct.Info* dereferenceable(8) %7, %struct.Info* dereferenceable(8) %2)
  ret i1 %8
}

; Function Attrs: noinline nounwind uwtable
define linkonce_odr %struct.Info* @_ZNK9__gnu_cxx17__normal_iteratorIP4InfoSt6vectorIS1_SaIS1_EEEplEl(%"class.__gnu_cxx::__normal_iterator"* %0, i64 %1) #4 comdat align 2 {
  %3 = alloca %"class.__gnu_cxx::__normal_iterator", align 8
  %4 = alloca %struct.Info*, align 8
  %5 = getelementptr inbounds %"class.__gnu_cxx::__normal_iterator", %"class.__gnu_cxx::__normal_iterator"* %0, i32 0, i32 0
  %6 = load %struct.Info*, %struct.Info** %5, align 8
  %7 = getelementptr inbounds %struct.Info, %struct.Info* %6, i64 %1
  store %struct.Info* %7, %struct.Info** %4, align 8
  call void @_ZN9__gnu_cxx17__normal_iteratorIP4InfoSt6vectorIS1_SaIS1_EEEC2ERKS2_(%"class.__gnu_cxx::__normal_iterator"* %3, %struct.Info** dereferenceable(8) %4) #3
  %8 = getelementptr inbounds %"class.__gnu_cxx::__normal_iterator", %"class.__gnu_cxx::__normal_iterator"* %3, i32 0, i32 0
  %9 = load %struct.Info*, %struct.Info** %8, align 8
  ret %struct.Info* %9
}

; Function Attrs: noinline uwtable
define linkonce_odr zeroext i1 @_ZNKSt4lessI4InfoEclERKS0_S3_(%"struct.std::less"* %0, %struct.Info* dereferenceable(8) %1, %struct.Info* dereferenceable(8) %2) #0 comdat align 2 {
  %4 = call zeroext i1 @_ZNK4InfoltERKS_(%struct.Info* %1, %struct.Info* dereferenceable(8) %2)
  ret i1 %4
}

; Function Attrs: noinline nounwind uwtable
define linkonce_odr zeroext i1 @_ZNK4InfoltERKS_(%struct.Info* %0, %struct.Info* dereferenceable(8) %1) #4 comdat align 2 {
  %3 = getelementptr inbounds %struct.Info, %struct.Info* %0, i32 0, i32 1
  %4 = load i32, i32* %3, align 4
  %5 = getelementptr inbounds %struct.Info, %struct.Info* %1, i32 0, i32 1
  %6 = load i32, i32* %5, align 4
  %7 = icmp sgt i32 %4, %6
  ret i1 %7
}

; Function Attrs: noinline nounwind uwtable
define linkonce_odr zeroext i1 @_ZNKSt6vectorI4InfoSaIS0_EE5emptyEv(%"class.std::vector.0"* %0) #4 comdat align 2 {
  %2 = alloca %"class.__gnu_cxx::__normal_iterator.14", align 8
  %3 = alloca %"class.__gnu_cxx::__normal_iterator.14", align 8
  %4 = call %struct.Info* @_ZNKSt6vectorI4InfoSaIS0_EE5beginEv(%"class.std::vector.0"* %0) #3
  %5 = getelementptr inbounds %"class.__gnu_cxx::__normal_iterator.14", %"class.__gnu_cxx::__normal_iterator.14"* %2, i32 0, i32 0
  store %struct.Info* %4, %struct.Info** %5, align 8
  %6 = call %struct.Info* @_ZNKSt6vectorI4InfoSaIS0_EE3endEv(%"class.std::vector.0"* %0) #3
  %7 = getelementptr inbounds %"class.__gnu_cxx::__normal_iterator.14", %"class.__gnu_cxx::__normal_iterator.14"* %3, i32 0, i32 0
  store %struct.Info* %6, %struct.Info** %7, align 8
  %8 = call zeroext i1 @_ZN9__gnu_cxxeqIPK4InfoSt6vectorIS1_SaIS1_EEEEbRKNS_17__normal_iteratorIT_T0_EESC_(%"class.__gnu_cxx::__normal_iterator.14"* dereferenceable(8) %2, %"class.__gnu_cxx::__normal_iterator.14"* dereferenceable(8) %3) #3
  ret i1 %8
}

; Function Attrs: noinline nounwind uwtable
define linkonce_odr zeroext i1 @_ZN9__gnu_cxxeqIPK4InfoSt6vectorIS1_SaIS1_EEEEbRKNS_17__normal_iteratorIT_T0_EESC_(%"class.__gnu_cxx::__normal_iterator.14"* dereferenceable(8) %0, %"class.__gnu_cxx::__normal_iterator.14"* dereferenceable(8) %1) #4 comdat {
  %3 = call dereferenceable(8) %struct.Info** @_ZNK9__gnu_cxx17__normal_iteratorIPK4InfoSt6vectorIS1_SaIS1_EEE4baseEv(%"class.__gnu_cxx::__normal_iterator.14"* %0) #3
  %4 = load %struct.Info*, %struct.Info** %3, align 8
  %5 = call dereferenceable(8) %struct.Info** @_ZNK9__gnu_cxx17__normal_iteratorIPK4InfoSt6vectorIS1_SaIS1_EEE4baseEv(%"class.__gnu_cxx::__normal_iterator.14"* %1) #3
  %6 = load %struct.Info*, %struct.Info** %5, align 8
  %7 = icmp eq %struct.Info* %4, %6
  ret i1 %7
}

; Function Attrs: noinline nounwind uwtable
define linkonce_odr %struct.Info* @_ZNKSt6vectorI4InfoSaIS0_EE5beginEv(%"class.std::vector.0"* %0) #4 comdat align 2 {
  %2 = alloca %"class.__gnu_cxx::__normal_iterator.14", align 8
  %3 = alloca %struct.Info*, align 8
  %4 = bitcast %"class.std::vector.0"* %0 to %"struct.std::_Vector_base.1"*
  %5 = getelementptr inbounds %"struct.std::_Vector_base.1", %"struct.std::_Vector_base.1"* %4, i32 0, i32 0
  %6 = getelementptr inbounds %"struct.std::_Vector_base<Info, std::allocator<Info> >::_Vector_impl", %"struct.std::_Vector_base<Info, std::allocator<Info> >::_Vector_impl"* %5, i32 0, i32 0
  %7 = load %struct.Info*, %struct.Info** %6, align 8
  store %struct.Info* %7, %struct.Info** %3, align 8
  call void @_ZN9__gnu_cxx17__normal_iteratorIPK4InfoSt6vectorIS1_SaIS1_EEEC2ERKS3_(%"class.__gnu_cxx::__normal_iterator.14"* %2, %struct.Info** dereferenceable(8) %3) #3
  %8 = getelementptr inbounds %"class.__gnu_cxx::__normal_iterator.14", %"class.__gnu_cxx::__normal_iterator.14"* %2, i32 0, i32 0
  %9 = load %struct.Info*, %struct.Info** %8, align 8
  ret %struct.Info* %9
}

; Function Attrs: noinline nounwind uwtable
define linkonce_odr %struct.Info* @_ZNKSt6vectorI4InfoSaIS0_EE3endEv(%"class.std::vector.0"* %0) #4 comdat align 2 {
  %2 = alloca %"class.__gnu_cxx::__normal_iterator.14", align 8
  %3 = alloca %struct.Info*, align 8
  %4 = bitcast %"class.std::vector.0"* %0 to %"struct.std::_Vector_base.1"*
  %5 = getelementptr inbounds %"struct.std::_Vector_base.1", %"struct.std::_Vector_base.1"* %4, i32 0, i32 0
  %6 = getelementptr inbounds %"struct.std::_Vector_base<Info, std::allocator<Info> >::_Vector_impl", %"struct.std::_Vector_base<Info, std::allocator<Info> >::_Vector_impl"* %5, i32 0, i32 1
  %7 = load %struct.Info*, %struct.Info** %6, align 8
  store %struct.Info* %7, %struct.Info** %3, align 8
  call void @_ZN9__gnu_cxx17__normal_iteratorIPK4InfoSt6vectorIS1_SaIS1_EEEC2ERKS3_(%"class.__gnu_cxx::__normal_iterator.14"* %2, %struct.Info** dereferenceable(8) %3) #3
  %8 = getelementptr inbounds %"class.__gnu_cxx::__normal_iterator.14", %"class.__gnu_cxx::__normal_iterator.14"* %2, i32 0, i32 0
  %9 = load %struct.Info*, %struct.Info** %8, align 8
  ret %struct.Info* %9
}

; Function Attrs: noinline nounwind uwtable
define linkonce_odr dereferenceable(8) %struct.Info** @_ZNK9__gnu_cxx17__normal_iteratorIPK4InfoSt6vectorIS1_SaIS1_EEE4baseEv(%"class.__gnu_cxx::__normal_iterator.14"* %0) #4 comdat align 2 {
  %2 = getelementptr inbounds %"class.__gnu_cxx::__normal_iterator.14", %"class.__gnu_cxx::__normal_iterator.14"* %0, i32 0, i32 0
  ret %struct.Info** %2
}

; Function Attrs: noinline nounwind uwtable
define linkonce_odr void @_ZN9__gnu_cxx17__normal_iteratorIPK4InfoSt6vectorIS1_SaIS1_EEEC2ERKS3_(%"class.__gnu_cxx::__normal_iterator.14"* %0, %struct.Info** dereferenceable(8) %1) unnamed_addr #4 comdat align 2 {
  %3 = getelementptr inbounds %"class.__gnu_cxx::__normal_iterator.14", %"class.__gnu_cxx::__normal_iterator.14"* %0, i32 0, i32 0
  %4 = load %struct.Info*, %struct.Info** %1, align 8
  store %struct.Info* %4, %struct.Info** %3, align 8
  ret void
}

; Function Attrs: noinline nounwind uwtable
define linkonce_odr dereferenceable(8) %struct.Info* @_ZNKSt6vectorI4InfoSaIS0_EE5frontEv(%"class.std::vector.0"* %0) #4 comdat align 2 {
  %2 = alloca %"class.__gnu_cxx::__normal_iterator.14", align 8
  %3 = call %struct.Info* @_ZNKSt6vectorI4InfoSaIS0_EE5beginEv(%"class.std::vector.0"* %0) #3
  %4 = getelementptr inbounds %"class.__gnu_cxx::__normal_iterator.14", %"class.__gnu_cxx::__normal_iterator.14"* %2, i32 0, i32 0
  store %struct.Info* %3, %struct.Info** %4, align 8
  %5 = call dereferenceable(8) %struct.Info* @_ZNK9__gnu_cxx17__normal_iteratorIPK4InfoSt6vectorIS1_SaIS1_EEEdeEv(%"class.__gnu_cxx::__normal_iterator.14"* %2) #3
  ret %struct.Info* %5
}

; Function Attrs: noinline nounwind uwtable
define linkonce_odr dereferenceable(8) %struct.Info* @_ZNK9__gnu_cxx17__normal_iteratorIPK4InfoSt6vectorIS1_SaIS1_EEEdeEv(%"class.__gnu_cxx::__normal_iterator.14"* %0) #4 comdat align 2 {
  %2 = getelementptr inbounds %"class.__gnu_cxx::__normal_iterator.14", %"class.__gnu_cxx::__normal_iterator.14"* %0, i32 0, i32 0
  %3 = load %struct.Info*, %struct.Info** %2, align 8
  ret %struct.Info* %3
}

; Function Attrs: noinline uwtable
define linkonce_odr void @_ZSt8pop_heapIN9__gnu_cxx17__normal_iteratorIP4InfoSt6vectorIS2_SaIS2_EEEESt4lessIS2_EEvT_SA_T0_(%struct.Info* %0, %struct.Info* %1) #0 comdat {
  %3 = alloca %"class.__gnu_cxx::__normal_iterator", align 8
  %4 = alloca %"class.__gnu_cxx::__normal_iterator", align 8
  %5 = alloca %"struct.std::less", align 1
  %6 = alloca %"struct.__gnu_cxx::__ops::_Iter_comp_iter", align 1
  %7 = alloca %"class.__gnu_cxx::__normal_iterator", align 8
  %8 = alloca %"class.__gnu_cxx::__normal_iterator", align 8
  %9 = alloca %"class.__gnu_cxx::__normal_iterator", align 8
  %10 = getelementptr inbounds %"class.__gnu_cxx::__normal_iterator", %"class.__gnu_cxx::__normal_iterator"* %3, i32 0, i32 0
  store %struct.Info* %0, %struct.Info** %10, align 8
  %11 = getelementptr inbounds %"class.__gnu_cxx::__normal_iterator", %"class.__gnu_cxx::__normal_iterator"* %4, i32 0, i32 0
  store %struct.Info* %1, %struct.Info** %11, align 8
  %12 = call i64 @_ZN9__gnu_cxxmiIP4InfoSt6vectorIS1_SaIS1_EEEENS_17__normal_iteratorIT_T0_E15difference_typeERKS9_SC_(%"class.__gnu_cxx::__normal_iterator"* dereferenceable(8) %4, %"class.__gnu_cxx::__normal_iterator"* dereferenceable(8) %3) #3
  %13 = icmp sgt i64 %12, 1
  br i1 %13, label %14, label %29

14:                                               ; preds = %2
  %15 = call dereferenceable(1) %"struct.std::less"* @_ZSt4moveIRSt4lessI4InfoEEONSt16remove_referenceIT_E4typeEOS5_(%"struct.std::less"* dereferenceable(1) %5) #3
  call void @_ZN9__gnu_cxx5__ops15_Iter_comp_iterISt4lessI4InfoEEC2ES4_(%"struct.__gnu_cxx::__ops::_Iter_comp_iter"* %6)
  %16 = call dereferenceable(8) %"class.__gnu_cxx::__normal_iterator"* @_ZN9__gnu_cxx17__normal_iteratorIP4InfoSt6vectorIS1_SaIS1_EEEmmEv(%"class.__gnu_cxx::__normal_iterator"* %4) #3
  %17 = bitcast %"class.__gnu_cxx::__normal_iterator"* %7 to i8*
  %18 = bitcast %"class.__gnu_cxx::__normal_iterator"* %3 to i8*
  call void @llvm.memcpy.p0i8.p0i8.i64(i8* align 8 %17, i8* align 8 %18, i64 8, i1 false)
  %19 = bitcast %"class.__gnu_cxx::__normal_iterator"* %8 to i8*
  %20 = bitcast %"class.__gnu_cxx::__normal_iterator"* %4 to i8*
  call void @llvm.memcpy.p0i8.p0i8.i64(i8* align 8 %19, i8* align 8 %20, i64 8, i1 false)
  %21 = bitcast %"class.__gnu_cxx::__normal_iterator"* %9 to i8*
  %22 = bitcast %"class.__gnu_cxx::__normal_iterator"* %4 to i8*
  call void @llvm.memcpy.p0i8.p0i8.i64(i8* align 8 %21, i8* align 8 %22, i64 8, i1 false)
  %23 = getelementptr inbounds %"class.__gnu_cxx::__normal_iterator", %"class.__gnu_cxx::__normal_iterator"* %7, i32 0, i32 0
  %24 = load %struct.Info*, %struct.Info** %23, align 8
  %25 = getelementptr inbounds %"class.__gnu_cxx::__normal_iterator", %"class.__gnu_cxx::__normal_iterator"* %8, i32 0, i32 0
  %26 = load %struct.Info*, %struct.Info** %25, align 8
  %27 = getelementptr inbounds %"class.__gnu_cxx::__normal_iterator", %"class.__gnu_cxx::__normal_iterator"* %9, i32 0, i32 0
  %28 = load %struct.Info*, %struct.Info** %27, align 8
  call void @_ZSt10__pop_heapIN9__gnu_cxx17__normal_iteratorIP4InfoSt6vectorIS2_SaIS2_EEEENS0_5__ops15_Iter_comp_iterISt4lessIS2_EEEEvT_SD_SD_RT0_(%struct.Info* %24, %struct.Info* %26, %struct.Info* %28, %"struct.__gnu_cxx::__ops::_Iter_comp_iter"* dereferenceable(1) %6)
  br label %29

29:                                               ; preds = %14, %2
  ret void
}

; Function Attrs: noinline nounwind uwtable
define linkonce_odr void @_ZNSt6vectorI4InfoSaIS0_EE8pop_backEv(%"class.std::vector.0"* %0) #4 comdat align 2 personality i8* bitcast (i32 (...)* @__gxx_personality_v0 to i8*) {
  %2 = bitcast %"class.std::vector.0"* %0 to %"struct.std::_Vector_base.1"*
  %3 = getelementptr inbounds %"struct.std::_Vector_base.1", %"struct.std::_Vector_base.1"* %2, i32 0, i32 0
  %4 = getelementptr inbounds %"struct.std::_Vector_base<Info, std::allocator<Info> >::_Vector_impl", %"struct.std::_Vector_base<Info, std::allocator<Info> >::_Vector_impl"* %3, i32 0, i32 1
  %5 = load %struct.Info*, %struct.Info** %4, align 8
  %6 = getelementptr inbounds %struct.Info, %struct.Info* %5, i32 -1
  store %struct.Info* %6, %struct.Info** %4, align 8
  %7 = bitcast %"class.std::vector.0"* %0 to %"struct.std::_Vector_base.1"*
  %8 = getelementptr inbounds %"struct.std::_Vector_base.1", %"struct.std::_Vector_base.1"* %7, i32 0, i32 0
  %9 = bitcast %"struct.std::_Vector_base<Info, std::allocator<Info> >::_Vector_impl"* %8 to %"class.std::allocator.2"*
  %10 = bitcast %"class.std::vector.0"* %0 to %"struct.std::_Vector_base.1"*
  %11 = getelementptr inbounds %"struct.std::_Vector_base.1", %"struct.std::_Vector_base.1"* %10, i32 0, i32 0
  %12 = getelementptr inbounds %"struct.std::_Vector_base<Info, std::allocator<Info> >::_Vector_impl", %"struct.std::_Vector_base<Info, std::allocator<Info> >::_Vector_impl"* %11, i32 0, i32 1
  %13 = load %struct.Info*, %struct.Info** %12, align 8
  invoke void @_ZNSt16allocator_traitsISaI4InfoEE7destroyIS0_EEvRS1_PT_(%"class.std::allocator.2"* dereferenceable(1) %9, %struct.Info* %13)
          to label %14 unwind label %15

14:                                               ; preds = %1
  ret void

15:                                               ; preds = %1
  %16 = landingpad { i8*, i32 }
          catch i8* null
  %17 = extractvalue { i8*, i32 } %16, 0
  call void @__clang_call_terminate(i8* %17) #12
  unreachable
}

; Function Attrs: noinline nounwind uwtable
define linkonce_odr void @_ZN9__gnu_cxx5__ops15_Iter_comp_iterISt4lessI4InfoEEC2ES4_(%"struct.__gnu_cxx::__ops::_Iter_comp_iter"* %0) unnamed_addr #4 comdat align 2 {
  %2 = alloca %"struct.std::less", align 1
  %3 = getelementptr inbounds %"struct.__gnu_cxx::__ops::_Iter_comp_iter", %"struct.__gnu_cxx::__ops::_Iter_comp_iter"* %0, i32 0, i32 0
  %4 = call dereferenceable(1) %"struct.std::less"* @_ZSt4moveIRSt4lessI4InfoEEONSt16remove_referenceIT_E4typeEOS5_(%"struct.std::less"* dereferenceable(1) %2) #3
  ret void
}

; Function Attrs: noinline nounwind uwtable
define linkonce_odr dereferenceable(8) %"class.__gnu_cxx::__normal_iterator"* @_ZN9__gnu_cxx17__normal_iteratorIP4InfoSt6vectorIS1_SaIS1_EEEmmEv(%"class.__gnu_cxx::__normal_iterator"* %0) #4 comdat align 2 {
  %2 = getelementptr inbounds %"class.__gnu_cxx::__normal_iterator", %"class.__gnu_cxx::__normal_iterator"* %0, i32 0, i32 0
  %3 = load %struct.Info*, %struct.Info** %2, align 8
  %4 = getelementptr inbounds %struct.Info, %struct.Info* %3, i32 -1
  store %struct.Info* %4, %struct.Info** %2, align 8
  ret %"class.__gnu_cxx::__normal_iterator"* %0
}

; Function Attrs: noinline uwtable
define linkonce_odr void @_ZSt10__pop_heapIN9__gnu_cxx17__normal_iteratorIP4InfoSt6vectorIS2_SaIS2_EEEENS0_5__ops15_Iter_comp_iterISt4lessIS2_EEEEvT_SD_SD_RT0_(%struct.Info* %0, %struct.Info* %1, %struct.Info* %2, %"struct.__gnu_cxx::__ops::_Iter_comp_iter"* dereferenceable(1) %3) #0 comdat {
  %5 = alloca %"class.__gnu_cxx::__normal_iterator", align 8
  %6 = alloca %"class.__gnu_cxx::__normal_iterator", align 8
  %7 = alloca %"class.__gnu_cxx::__normal_iterator", align 8
  %8 = alloca %struct.Info, align 4
  %9 = alloca %"class.__gnu_cxx::__normal_iterator", align 8
  %10 = alloca %struct.Info, align 4
  %11 = alloca %"struct.__gnu_cxx::__ops::_Iter_comp_iter", align 1
  %12 = getelementptr inbounds %"class.__gnu_cxx::__normal_iterator", %"class.__gnu_cxx::__normal_iterator"* %5, i32 0, i32 0
  store %struct.Info* %0, %struct.Info** %12, align 8
  %13 = getelementptr inbounds %"class.__gnu_cxx::__normal_iterator", %"class.__gnu_cxx::__normal_iterator"* %6, i32 0, i32 0
  store %struct.Info* %1, %struct.Info** %13, align 8
  %14 = getelementptr inbounds %"class.__gnu_cxx::__normal_iterator", %"class.__gnu_cxx::__normal_iterator"* %7, i32 0, i32 0
  store %struct.Info* %2, %struct.Info** %14, align 8
  %15 = call dereferenceable(8) %struct.Info* @_ZNK9__gnu_cxx17__normal_iteratorIP4InfoSt6vectorIS1_SaIS1_EEEdeEv(%"class.__gnu_cxx::__normal_iterator"* %7) #3
  %16 = call dereferenceable(8) %struct.Info* @_ZSt4moveIR4InfoEONSt16remove_referenceIT_E4typeEOS3_(%struct.Info* dereferenceable(8) %15) #3
  %17 = bitcast %struct.Info* %8 to i8*
  %18 = bitcast %struct.Info* %16 to i8*
  call void @llvm.memcpy.p0i8.p0i8.i64(i8* align 4 %17, i8* align 4 %18, i64 8, i1 false)
  %19 = call dereferenceable(8) %struct.Info* @_ZNK9__gnu_cxx17__normal_iteratorIP4InfoSt6vectorIS1_SaIS1_EEEdeEv(%"class.__gnu_cxx::__normal_iterator"* %5) #3
  %20 = call dereferenceable(8) %struct.Info* @_ZSt4moveIR4InfoEONSt16remove_referenceIT_E4typeEOS3_(%struct.Info* dereferenceable(8) %19) #3
  %21 = call dereferenceable(8) %struct.Info* @_ZNK9__gnu_cxx17__normal_iteratorIP4InfoSt6vectorIS1_SaIS1_EEEdeEv(%"class.__gnu_cxx::__normal_iterator"* %7) #3
  %22 = bitcast %struct.Info* %21 to i8*
  %23 = bitcast %struct.Info* %20 to i8*
  call void @llvm.memcpy.p0i8.p0i8.i64(i8* align 4 %22, i8* align 4 %23, i64 8, i1 false)
  %24 = bitcast %"class.__gnu_cxx::__normal_iterator"* %9 to i8*
  %25 = bitcast %"class.__gnu_cxx::__normal_iterator"* %5 to i8*
  call void @llvm.memcpy.p0i8.p0i8.i64(i8* align 8 %24, i8* align 8 %25, i64 8, i1 false)
  %26 = call i64 @_ZN9__gnu_cxxmiIP4InfoSt6vectorIS1_SaIS1_EEEENS_17__normal_iteratorIT_T0_E15difference_typeERKS9_SC_(%"class.__gnu_cxx::__normal_iterator"* dereferenceable(8) %6, %"class.__gnu_cxx::__normal_iterator"* dereferenceable(8) %5) #3
  %27 = call dereferenceable(8) %struct.Info* @_ZSt4moveIR4InfoEONSt16remove_referenceIT_E4typeEOS3_(%struct.Info* dereferenceable(8) %8) #3
  %28 = bitcast %struct.Info* %10 to i8*
  %29 = bitcast %struct.Info* %27 to i8*
  call void @llvm.memcpy.p0i8.p0i8.i64(i8* align 4 %28, i8* align 4 %29, i64 8, i1 false)
  %30 = bitcast %"struct.__gnu_cxx::__ops::_Iter_comp_iter"* %11 to i8*
  %31 = bitcast %"struct.__gnu_cxx::__ops::_Iter_comp_iter"* %3 to i8*
  call void @llvm.memcpy.p0i8.p0i8.i64(i8* align 1 %30, i8* align 1 %31, i64 1, i1 false)
  %32 = getelementptr inbounds %"class.__gnu_cxx::__normal_iterator", %"class.__gnu_cxx::__normal_iterator"* %9, i32 0, i32 0
  %33 = load %struct.Info*, %struct.Info** %32, align 8
  %34 = bitcast %struct.Info* %10 to i64*
  %35 = load i64, i64* %34, align 4
  call void @_ZSt13__adjust_heapIN9__gnu_cxx17__normal_iteratorIP4InfoSt6vectorIS2_SaIS2_EEEElS2_NS0_5__ops15_Iter_comp_iterISt4lessIS2_EEEEvT_T0_SE_T1_T2_(%struct.Info* %33, i64 0, i64 %26, i64 %35)
  ret void
}

; Function Attrs: noinline uwtable
define linkonce_odr void @_ZSt13__adjust_heapIN9__gnu_cxx17__normal_iteratorIP4InfoSt6vectorIS2_SaIS2_EEEElS2_NS0_5__ops15_Iter_comp_iterISt4lessIS2_EEEEvT_T0_SE_T1_T2_(%struct.Info* %0, i64 %1, i64 %2, i64 %3) #0 comdat {
  %5 = alloca %"class.__gnu_cxx::__normal_iterator", align 8
  %6 = alloca %struct.Info, align 4
  %7 = alloca %"struct.__gnu_cxx::__ops::_Iter_comp_iter", align 1
  %8 = alloca %"class.__gnu_cxx::__normal_iterator", align 8
  %9 = alloca %"class.__gnu_cxx::__normal_iterator", align 8
  %10 = alloca %"class.__gnu_cxx::__normal_iterator", align 8
  %11 = alloca %"class.__gnu_cxx::__normal_iterator", align 8
  %12 = alloca %"class.__gnu_cxx::__normal_iterator", align 8
  %13 = alloca %"class.__gnu_cxx::__normal_iterator", align 8
  %14 = alloca %"struct.__gnu_cxx::__ops::_Iter_comp_val", align 1
  %15 = alloca %"class.__gnu_cxx::__normal_iterator", align 8
  %16 = alloca %struct.Info, align 4
  %17 = getelementptr inbounds %"class.__gnu_cxx::__normal_iterator", %"class.__gnu_cxx::__normal_iterator"* %5, i32 0, i32 0
  store %struct.Info* %0, %struct.Info** %17, align 8
  %18 = bitcast %struct.Info* %6 to i64*
  store i64 %3, i64* %18, align 4
  br label %19

19:                                               ; preds = %38, %4
  %.01 = phi i64 [ %1, %4 ], [ %.12, %38 ]
  %.0 = phi i64 [ %1, %4 ], [ %.12, %38 ]
  %20 = sub nsw i64 %2, 1
  %21 = sdiv i64 %20, 2
  %22 = icmp slt i64 %.01, %21
  br i1 %22, label %23, label %48

23:                                               ; preds = %19
  %24 = add nsw i64 %.01, 1
  %25 = mul nsw i64 2, %24
  %26 = call %struct.Info* @_ZNK9__gnu_cxx17__normal_iteratorIP4InfoSt6vectorIS1_SaIS1_EEEplEl(%"class.__gnu_cxx::__normal_iterator"* %5, i64 %25) #3
  %27 = getelementptr inbounds %"class.__gnu_cxx::__normal_iterator", %"class.__gnu_cxx::__normal_iterator"* %8, i32 0, i32 0
  store %struct.Info* %26, %struct.Info** %27, align 8
  %28 = sub nsw i64 %25, 1
  %29 = call %struct.Info* @_ZNK9__gnu_cxx17__normal_iteratorIP4InfoSt6vectorIS1_SaIS1_EEEplEl(%"class.__gnu_cxx::__normal_iterator"* %5, i64 %28) #3
  %30 = getelementptr inbounds %"class.__gnu_cxx::__normal_iterator", %"class.__gnu_cxx::__normal_iterator"* %9, i32 0, i32 0
  store %struct.Info* %29, %struct.Info** %30, align 8
  %31 = getelementptr inbounds %"class.__gnu_cxx::__normal_iterator", %"class.__gnu_cxx::__normal_iterator"* %8, i32 0, i32 0
  %32 = load %struct.Info*, %struct.Info** %31, align 8
  %33 = getelementptr inbounds %"class.__gnu_cxx::__normal_iterator", %"class.__gnu_cxx::__normal_iterator"* %9, i32 0, i32 0
  %34 = load %struct.Info*, %struct.Info** %33, align 8
  %35 = call zeroext i1 @_ZN9__gnu_cxx5__ops15_Iter_comp_iterISt4lessI4InfoEEclINS_17__normal_iteratorIPS3_St6vectorIS3_SaIS3_EEEESC_EEbT_T0_(%"struct.__gnu_cxx::__ops::_Iter_comp_iter"* %7, %struct.Info* %32, %struct.Info* %34)
  br i1 %35, label %36, label %38

36:                                               ; preds = %23
  %37 = add nsw i64 %25, -1
  br label %38

38:                                               ; preds = %36, %23
  %.12 = phi i64 [ %37, %36 ], [ %25, %23 ]
  %39 = call %struct.Info* @_ZNK9__gnu_cxx17__normal_iteratorIP4InfoSt6vectorIS1_SaIS1_EEEplEl(%"class.__gnu_cxx::__normal_iterator"* %5, i64 %.12) #3
  %40 = getelementptr inbounds %"class.__gnu_cxx::__normal_iterator", %"class.__gnu_cxx::__normal_iterator"* %10, i32 0, i32 0
  store %struct.Info* %39, %struct.Info** %40, align 8
  %41 = call dereferenceable(8) %struct.Info* @_ZNK9__gnu_cxx17__normal_iteratorIP4InfoSt6vectorIS1_SaIS1_EEEdeEv(%"class.__gnu_cxx::__normal_iterator"* %10) #3
  %42 = call dereferenceable(8) %struct.Info* @_ZSt4moveIR4InfoEONSt16remove_referenceIT_E4typeEOS3_(%struct.Info* dereferenceable(8) %41) #3
  %43 = call %struct.Info* @_ZNK9__gnu_cxx17__normal_iteratorIP4InfoSt6vectorIS1_SaIS1_EEEplEl(%"class.__gnu_cxx::__normal_iterator"* %5, i64 %.0) #3
  %44 = getelementptr inbounds %"class.__gnu_cxx::__normal_iterator", %"class.__gnu_cxx::__normal_iterator"* %11, i32 0, i32 0
  store %struct.Info* %43, %struct.Info** %44, align 8
  %45 = call dereferenceable(8) %struct.Info* @_ZNK9__gnu_cxx17__normal_iteratorIP4InfoSt6vectorIS1_SaIS1_EEEdeEv(%"class.__gnu_cxx::__normal_iterator"* %11) #3
  %46 = bitcast %struct.Info* %45 to i8*
  %47 = bitcast %struct.Info* %42 to i8*
  call void @llvm.memcpy.p0i8.p0i8.i64(i8* align 4 %46, i8* align 4 %47, i64 8, i1 false)
  br label %19

48:                                               ; preds = %19
  %49 = and i64 %2, 1
  %50 = icmp eq i64 %49, 0
  br i1 %50, label %51, label %69

51:                                               ; preds = %48
  %52 = sub nsw i64 %2, 2
  %53 = sdiv i64 %52, 2
  %54 = icmp eq i64 %.01, %53
  br i1 %54, label %55, label %69

55:                                               ; preds = %51
  %56 = add nsw i64 %.01, 1
  %57 = mul nsw i64 2, %56
  %58 = sub nsw i64 %57, 1
  %59 = call %struct.Info* @_ZNK9__gnu_cxx17__normal_iteratorIP4InfoSt6vectorIS1_SaIS1_EEEplEl(%"class.__gnu_cxx::__normal_iterator"* %5, i64 %58) #3
  %60 = getelementptr inbounds %"class.__gnu_cxx::__normal_iterator", %"class.__gnu_cxx::__normal_iterator"* %12, i32 0, i32 0
  store %struct.Info* %59, %struct.Info** %60, align 8
  %61 = call dereferenceable(8) %struct.Info* @_ZNK9__gnu_cxx17__normal_iteratorIP4InfoSt6vectorIS1_SaIS1_EEEdeEv(%"class.__gnu_cxx::__normal_iterator"* %12) #3
  %62 = call dereferenceable(8) %struct.Info* @_ZSt4moveIR4InfoEONSt16remove_referenceIT_E4typeEOS3_(%struct.Info* dereferenceable(8) %61) #3
  %63 = call %struct.Info* @_ZNK9__gnu_cxx17__normal_iteratorIP4InfoSt6vectorIS1_SaIS1_EEEplEl(%"class.__gnu_cxx::__normal_iterator"* %5, i64 %.0) #3
  %64 = getelementptr inbounds %"class.__gnu_cxx::__normal_iterator", %"class.__gnu_cxx::__normal_iterator"* %13, i32 0, i32 0
  store %struct.Info* %63, %struct.Info** %64, align 8
  %65 = call dereferenceable(8) %struct.Info* @_ZNK9__gnu_cxx17__normal_iteratorIP4InfoSt6vectorIS1_SaIS1_EEEdeEv(%"class.__gnu_cxx::__normal_iterator"* %13) #3
  %66 = bitcast %struct.Info* %65 to i8*
  %67 = bitcast %struct.Info* %62 to i8*
  call void @llvm.memcpy.p0i8.p0i8.i64(i8* align 4 %66, i8* align 4 %67, i64 8, i1 false)
  %68 = sub nsw i64 %57, 1
  br label %69

69:                                               ; preds = %55, %51, %48
  %.1 = phi i64 [ %68, %55 ], [ %.0, %51 ], [ %.0, %48 ]
  %70 = call dereferenceable(1) %"struct.__gnu_cxx::__ops::_Iter_comp_iter"* @_ZSt4moveIRN9__gnu_cxx5__ops15_Iter_comp_iterISt4lessI4InfoEEEEONSt16remove_referenceIT_E4typeEOS9_(%"struct.__gnu_cxx::__ops::_Iter_comp_iter"* dereferenceable(1) %7) #3
  call void @_ZN9__gnu_cxx5__ops14_Iter_comp_valISt4lessI4InfoEEC2EONS0_15_Iter_comp_iterIS4_EE(%"struct.__gnu_cxx::__ops::_Iter_comp_val"* %14, %"struct.__gnu_cxx::__ops::_Iter_comp_iter"* dereferenceable(1) %70)
  %71 = bitcast %"class.__gnu_cxx::__normal_iterator"* %15 to i8*
  %72 = bitcast %"class.__gnu_cxx::__normal_iterator"* %5 to i8*
  call void @llvm.memcpy.p0i8.p0i8.i64(i8* align 8 %71, i8* align 8 %72, i64 8, i1 false)
  %73 = call dereferenceable(8) %struct.Info* @_ZSt4moveIR4InfoEONSt16remove_referenceIT_E4typeEOS3_(%struct.Info* dereferenceable(8) %6) #3
  %74 = bitcast %struct.Info* %16 to i8*
  %75 = bitcast %struct.Info* %73 to i8*
  call void @llvm.memcpy.p0i8.p0i8.i64(i8* align 4 %74, i8* align 4 %75, i64 8, i1 false)
  %76 = getelementptr inbounds %"class.__gnu_cxx::__normal_iterator", %"class.__gnu_cxx::__normal_iterator"* %15, i32 0, i32 0
  %77 = load %struct.Info*, %struct.Info** %76, align 8
  %78 = bitcast %struct.Info* %16 to i64*
  %79 = load i64, i64* %78, align 4
  call void @_ZSt11__push_heapIN9__gnu_cxx17__normal_iteratorIP4InfoSt6vectorIS2_SaIS2_EEEElS2_NS0_5__ops14_Iter_comp_valISt4lessIS2_EEEEvT_T0_SE_T1_RT2_(%struct.Info* %77, i64 %.1, i64 %1, i64 %79, %"struct.__gnu_cxx::__ops::_Iter_comp_val"* dereferenceable(1) %14)
  ret void
}

; Function Attrs: noinline uwtable
define linkonce_odr zeroext i1 @_ZN9__gnu_cxx5__ops15_Iter_comp_iterISt4lessI4InfoEEclINS_17__normal_iteratorIPS3_St6vectorIS3_SaIS3_EEEESC_EEbT_T0_(%"struct.__gnu_cxx::__ops::_Iter_comp_iter"* %0, %struct.Info* %1, %struct.Info* %2) #0 comdat align 2 {
  %4 = alloca %"class.__gnu_cxx::__normal_iterator", align 8
  %5 = alloca %"class.__gnu_cxx::__normal_iterator", align 8
  %6 = getelementptr inbounds %"class.__gnu_cxx::__normal_iterator", %"class.__gnu_cxx::__normal_iterator"* %4, i32 0, i32 0
  store %struct.Info* %1, %struct.Info** %6, align 8
  %7 = getelementptr inbounds %"class.__gnu_cxx::__normal_iterator", %"class.__gnu_cxx::__normal_iterator"* %5, i32 0, i32 0
  store %struct.Info* %2, %struct.Info** %7, align 8
  %8 = getelementptr inbounds %"struct.__gnu_cxx::__ops::_Iter_comp_iter", %"struct.__gnu_cxx::__ops::_Iter_comp_iter"* %0, i32 0, i32 0
  %9 = call dereferenceable(8) %struct.Info* @_ZNK9__gnu_cxx17__normal_iteratorIP4InfoSt6vectorIS1_SaIS1_EEEdeEv(%"class.__gnu_cxx::__normal_iterator"* %4) #3
  %10 = call dereferenceable(8) %struct.Info* @_ZNK9__gnu_cxx17__normal_iteratorIP4InfoSt6vectorIS1_SaIS1_EEEdeEv(%"class.__gnu_cxx::__normal_iterator"* %5) #3
  %11 = call zeroext i1 @_ZNKSt4lessI4InfoEclERKS0_S3_(%"struct.std::less"* %8, %struct.Info* dereferenceable(8) %9, %struct.Info* dereferenceable(8) %10)
  ret i1 %11
}

; Function Attrs: noinline nounwind uwtable
define linkonce_odr dereferenceable(1) %"struct.__gnu_cxx::__ops::_Iter_comp_iter"* @_ZSt4moveIRN9__gnu_cxx5__ops15_Iter_comp_iterISt4lessI4InfoEEEEONSt16remove_referenceIT_E4typeEOS9_(%"struct.__gnu_cxx::__ops::_Iter_comp_iter"* dereferenceable(1) %0) #4 comdat {
  ret %"struct.__gnu_cxx::__ops::_Iter_comp_iter"* %0
}

; Function Attrs: noinline nounwind uwtable
define linkonce_odr void @_ZN9__gnu_cxx5__ops14_Iter_comp_valISt4lessI4InfoEEC2EONS0_15_Iter_comp_iterIS4_EE(%"struct.__gnu_cxx::__ops::_Iter_comp_val"* %0, %"struct.__gnu_cxx::__ops::_Iter_comp_iter"* dereferenceable(1) %1) unnamed_addr #4 comdat align 2 {
  %3 = getelementptr inbounds %"struct.__gnu_cxx::__ops::_Iter_comp_val", %"struct.__gnu_cxx::__ops::_Iter_comp_val"* %0, i32 0, i32 0
  %4 = getelementptr inbounds %"struct.__gnu_cxx::__ops::_Iter_comp_iter", %"struct.__gnu_cxx::__ops::_Iter_comp_iter"* %1, i32 0, i32 0
  %5 = call dereferenceable(1) %"struct.std::less"* @_ZSt4moveIRSt4lessI4InfoEEONSt16remove_referenceIT_E4typeEOS5_(%"struct.std::less"* dereferenceable(1) %4) #3
  ret void
}

; Function Attrs: noinline nounwind uwtable
define linkonce_odr void @_ZNSt6vectorI4EdgeSaIS0_EEC2Ev(%"class.std::vector.6"* %0) unnamed_addr #4 comdat align 2 personality i8* bitcast (i32 (...)* @__gxx_personality_v0 to i8*) {
  %2 = bitcast %"class.std::vector.6"* %0 to %"struct.std::_Vector_base.7"*
  invoke void @_ZNSt12_Vector_baseI4EdgeSaIS0_EEC2Ev(%"struct.std::_Vector_base.7"* %2)
          to label %3 unwind label %4

3:                                                ; preds = %1
  ret void

4:                                                ; preds = %1
  %5 = landingpad { i8*, i32 }
          catch i8* null
  %6 = extractvalue { i8*, i32 } %5, 0
  call void @__clang_call_terminate(i8* %6) #12
  unreachable
}

; Function Attrs: noinline uwtable
define linkonce_odr void @_ZNSt12_Vector_baseI4EdgeSaIS0_EEC2Ev(%"struct.std::_Vector_base.7"* %0) unnamed_addr #0 comdat align 2 {
  %2 = getelementptr inbounds %"struct.std::_Vector_base.7", %"struct.std::_Vector_base.7"* %0, i32 0, i32 0
  call void @_ZNSt12_Vector_baseI4EdgeSaIS0_EE12_Vector_implC2Ev(%"struct.std::_Vector_base<Edge, std::allocator<Edge> >::_Vector_impl"* %2)
  ret void
}

; Function Attrs: noinline nounwind uwtable
define linkonce_odr void @_ZNSt12_Vector_baseI4EdgeSaIS0_EE12_Vector_implC2Ev(%"struct.std::_Vector_base<Edge, std::allocator<Edge> >::_Vector_impl"* %0) unnamed_addr #4 comdat align 2 {
  %2 = bitcast %"struct.std::_Vector_base<Edge, std::allocator<Edge> >::_Vector_impl"* %0 to %"class.std::allocator.8"*
  call void @_ZNSaI4EdgeEC2Ev(%"class.std::allocator.8"* %2) #3
  %3 = getelementptr inbounds %"struct.std::_Vector_base<Edge, std::allocator<Edge> >::_Vector_impl", %"struct.std::_Vector_base<Edge, std::allocator<Edge> >::_Vector_impl"* %0, i32 0, i32 0
  store %struct.Edge* null, %struct.Edge** %3, align 8
  %4 = getelementptr inbounds %"struct.std::_Vector_base<Edge, std::allocator<Edge> >::_Vector_impl", %"struct.std::_Vector_base<Edge, std::allocator<Edge> >::_Vector_impl"* %0, i32 0, i32 1
  store %struct.Edge* null, %struct.Edge** %4, align 8
  %5 = getelementptr inbounds %"struct.std::_Vector_base<Edge, std::allocator<Edge> >::_Vector_impl", %"struct.std::_Vector_base<Edge, std::allocator<Edge> >::_Vector_impl"* %0, i32 0, i32 2
  store %struct.Edge* null, %struct.Edge** %5, align 8
  ret void
}

; Function Attrs: noinline nounwind uwtable
define linkonce_odr void @_ZNSaI4EdgeEC2Ev(%"class.std::allocator.8"* %0) unnamed_addr #4 comdat align 2 {
  %2 = bitcast %"class.std::allocator.8"* %0 to %"class.__gnu_cxx::new_allocator.9"*
  call void @_ZN9__gnu_cxx13new_allocatorI4EdgeEC2Ev(%"class.__gnu_cxx::new_allocator.9"* %2) #3
  ret void
}

; Function Attrs: noinline nounwind uwtable
define linkonce_odr void @_ZN9__gnu_cxx13new_allocatorI4EdgeEC2Ev(%"class.__gnu_cxx::new_allocator.9"* %0) unnamed_addr #4 comdat align 2 {
  ret void
}

; Function Attrs: noinline uwtable
define linkonce_odr void @_ZNSt6vectorI4EdgeSaIS0_EE9push_backEOS0_(%"class.std::vector.6"* %0, %struct.Edge* dereferenceable(12) %1) #0 comdat align 2 {
  %3 = call dereferenceable(12) %struct.Edge* @_ZSt4moveIR4EdgeEONSt16remove_referenceIT_E4typeEOS3_(%struct.Edge* dereferenceable(12) %1) #3
  call void @_ZNSt6vectorI4EdgeSaIS0_EE12emplace_backIJS0_EEEvDpOT_(%"class.std::vector.6"* %0, %struct.Edge* dereferenceable(12) %3)
  ret void
}

; Function Attrs: noinline nounwind uwtable
define linkonce_odr dereferenceable(12) %struct.Edge* @_ZSt4moveIR4EdgeEONSt16remove_referenceIT_E4typeEOS3_(%struct.Edge* dereferenceable(12) %0) #4 comdat {
  ret %struct.Edge* %0
}

; Function Attrs: noinline uwtable
define linkonce_odr void @_ZSt9push_heapIN9__gnu_cxx17__normal_iteratorIP4EdgeSt6vectorIS2_SaIS2_EEEESt4lessIS2_EEvT_SA_T0_(%struct.Edge* %0, %struct.Edge* %1) #0 comdat {
  %3 = alloca %"class.__gnu_cxx::__normal_iterator.15", align 8
  %4 = alloca %"class.__gnu_cxx::__normal_iterator.15", align 8
  %5 = alloca %"struct.std::less.11", align 1
  %6 = alloca %"struct.__gnu_cxx::__ops::_Iter_comp_val.17", align 1
  %7 = alloca %struct.Edge, align 4
  %8 = alloca %"class.__gnu_cxx::__normal_iterator.15", align 8
  %9 = alloca %"class.__gnu_cxx::__normal_iterator.15", align 8
  %10 = alloca %struct.Edge, align 4
  %11 = alloca { i64, i32 }, align 4
  %12 = getelementptr inbounds %"class.__gnu_cxx::__normal_iterator.15", %"class.__gnu_cxx::__normal_iterator.15"* %3, i32 0, i32 0
  store %struct.Edge* %0, %struct.Edge** %12, align 8
  %13 = getelementptr inbounds %"class.__gnu_cxx::__normal_iterator.15", %"class.__gnu_cxx::__normal_iterator.15"* %4, i32 0, i32 0
  store %struct.Edge* %1, %struct.Edge** %13, align 8
  %14 = call dereferenceable(1) %"struct.std::less.11"* @_ZSt4moveIRSt4lessI4EdgeEEONSt16remove_referenceIT_E4typeEOS5_(%"struct.std::less.11"* dereferenceable(1) %5) #3
  call void @_ZN9__gnu_cxx5__ops14_Iter_comp_valISt4lessI4EdgeEEC2ES4_(%"struct.__gnu_cxx::__ops::_Iter_comp_val.17"* %6)
  %15 = call %struct.Edge* @_ZNK9__gnu_cxx17__normal_iteratorIP4EdgeSt6vectorIS1_SaIS1_EEEmiEl(%"class.__gnu_cxx::__normal_iterator.15"* %4, i64 1) #3
  %16 = getelementptr inbounds %"class.__gnu_cxx::__normal_iterator.15", %"class.__gnu_cxx::__normal_iterator.15"* %8, i32 0, i32 0
  store %struct.Edge* %15, %struct.Edge** %16, align 8
  %17 = call dereferenceable(12) %struct.Edge* @_ZNK9__gnu_cxx17__normal_iteratorIP4EdgeSt6vectorIS1_SaIS1_EEEdeEv(%"class.__gnu_cxx::__normal_iterator.15"* %8) #3
  %18 = call dereferenceable(12) %struct.Edge* @_ZSt4moveIR4EdgeEONSt16remove_referenceIT_E4typeEOS3_(%struct.Edge* dereferenceable(12) %17) #3
  %19 = bitcast %struct.Edge* %7 to i8*
  %20 = bitcast %struct.Edge* %18 to i8*
  call void @llvm.memcpy.p0i8.p0i8.i64(i8* align 4 %19, i8* align 4 %20, i64 12, i1 false)
  %21 = bitcast %"class.__gnu_cxx::__normal_iterator.15"* %9 to i8*
  %22 = bitcast %"class.__gnu_cxx::__normal_iterator.15"* %3 to i8*
  call void @llvm.memcpy.p0i8.p0i8.i64(i8* align 8 %21, i8* align 8 %22, i64 8, i1 false)
  %23 = call i64 @_ZN9__gnu_cxxmiIP4EdgeSt6vectorIS1_SaIS1_EEEENS_17__normal_iteratorIT_T0_E15difference_typeERKS9_SC_(%"class.__gnu_cxx::__normal_iterator.15"* dereferenceable(8) %4, %"class.__gnu_cxx::__normal_iterator.15"* dereferenceable(8) %3) #3
  %24 = sub nsw i64 %23, 1
  %25 = call dereferenceable(12) %struct.Edge* @_ZSt4moveIR4EdgeEONSt16remove_referenceIT_E4typeEOS3_(%struct.Edge* dereferenceable(12) %7) #3
  %26 = bitcast %struct.Edge* %10 to i8*
  %27 = bitcast %struct.Edge* %25 to i8*
  call void @llvm.memcpy.p0i8.p0i8.i64(i8* align 4 %26, i8* align 4 %27, i64 12, i1 false)
  %28 = getelementptr inbounds %"class.__gnu_cxx::__normal_iterator.15", %"class.__gnu_cxx::__normal_iterator.15"* %9, i32 0, i32 0
  %29 = load %struct.Edge*, %struct.Edge** %28, align 8
  %30 = bitcast { i64, i32 }* %11 to i8*
  %31 = bitcast %struct.Edge* %10 to i8*
  call void @llvm.memcpy.p0i8.p0i8.i64(i8* align 4 %30, i8* align 4 %31, i64 12, i1 false)
  %32 = getelementptr inbounds { i64, i32 }, { i64, i32 }* %11, i32 0, i32 0
  %33 = load i64, i64* %32, align 4
  %34 = getelementptr inbounds { i64, i32 }, { i64, i32 }* %11, i32 0, i32 1
  %35 = load i32, i32* %34, align 4
  call void @_ZSt11__push_heapIN9__gnu_cxx17__normal_iteratorIP4EdgeSt6vectorIS2_SaIS2_EEEElS2_NS0_5__ops14_Iter_comp_valISt4lessIS2_EEEEvT_T0_SE_T1_RT2_(%struct.Edge* %29, i64 %24, i64 0, i64 %33, i32 %35, %"struct.__gnu_cxx::__ops::_Iter_comp_val.17"* dereferenceable(1) %6)
  ret void
}

; Function Attrs: noinline nounwind uwtable
define linkonce_odr %struct.Edge* @_ZNSt6vectorI4EdgeSaIS0_EE5beginEv(%"class.std::vector.6"* %0) #4 comdat align 2 {
  %2 = alloca %"class.__gnu_cxx::__normal_iterator.15", align 8
  %3 = bitcast %"class.std::vector.6"* %0 to %"struct.std::_Vector_base.7"*
  %4 = getelementptr inbounds %"struct.std::_Vector_base.7", %"struct.std::_Vector_base.7"* %3, i32 0, i32 0
  %5 = getelementptr inbounds %"struct.std::_Vector_base<Edge, std::allocator<Edge> >::_Vector_impl", %"struct.std::_Vector_base<Edge, std::allocator<Edge> >::_Vector_impl"* %4, i32 0, i32 0
  call void @_ZN9__gnu_cxx17__normal_iteratorIP4EdgeSt6vectorIS1_SaIS1_EEEC2ERKS2_(%"class.__gnu_cxx::__normal_iterator.15"* %2, %struct.Edge** dereferenceable(8) %5) #3
  %6 = getelementptr inbounds %"class.__gnu_cxx::__normal_iterator.15", %"class.__gnu_cxx::__normal_iterator.15"* %2, i32 0, i32 0
  %7 = load %struct.Edge*, %struct.Edge** %6, align 8
  ret %struct.Edge* %7
}

; Function Attrs: noinline nounwind uwtable
define linkonce_odr %struct.Edge* @_ZNSt6vectorI4EdgeSaIS0_EE3endEv(%"class.std::vector.6"* %0) #4 comdat align 2 {
  %2 = alloca %"class.__gnu_cxx::__normal_iterator.15", align 8
  %3 = bitcast %"class.std::vector.6"* %0 to %"struct.std::_Vector_base.7"*
  %4 = getelementptr inbounds %"struct.std::_Vector_base.7", %"struct.std::_Vector_base.7"* %3, i32 0, i32 0
  %5 = getelementptr inbounds %"struct.std::_Vector_base<Edge, std::allocator<Edge> >::_Vector_impl", %"struct.std::_Vector_base<Edge, std::allocator<Edge> >::_Vector_impl"* %4, i32 0, i32 1
  call void @_ZN9__gnu_cxx17__normal_iteratorIP4EdgeSt6vectorIS1_SaIS1_EEEC2ERKS2_(%"class.__gnu_cxx::__normal_iterator.15"* %2, %struct.Edge** dereferenceable(8) %5) #3
  %6 = getelementptr inbounds %"class.__gnu_cxx::__normal_iterator.15", %"class.__gnu_cxx::__normal_iterator.15"* %2, i32 0, i32 0
  %7 = load %struct.Edge*, %struct.Edge** %6, align 8
  ret %struct.Edge* %7
}

; Function Attrs: noinline uwtable
define linkonce_odr void @_ZNSt6vectorI4EdgeSaIS0_EE12emplace_backIJS0_EEEvDpOT_(%"class.std::vector.6"* %0, %struct.Edge* dereferenceable(12) %1) #0 comdat align 2 {
  %3 = alloca %"class.__gnu_cxx::__normal_iterator.15", align 8
  %4 = bitcast %"class.std::vector.6"* %0 to %"struct.std::_Vector_base.7"*
  %5 = getelementptr inbounds %"struct.std::_Vector_base.7", %"struct.std::_Vector_base.7"* %4, i32 0, i32 0
  %6 = getelementptr inbounds %"struct.std::_Vector_base<Edge, std::allocator<Edge> >::_Vector_impl", %"struct.std::_Vector_base<Edge, std::allocator<Edge> >::_Vector_impl"* %5, i32 0, i32 1
  %7 = load %struct.Edge*, %struct.Edge** %6, align 8
  %8 = bitcast %"class.std::vector.6"* %0 to %"struct.std::_Vector_base.7"*
  %9 = getelementptr inbounds %"struct.std::_Vector_base.7", %"struct.std::_Vector_base.7"* %8, i32 0, i32 0
  %10 = getelementptr inbounds %"struct.std::_Vector_base<Edge, std::allocator<Edge> >::_Vector_impl", %"struct.std::_Vector_base<Edge, std::allocator<Edge> >::_Vector_impl"* %9, i32 0, i32 2
  %11 = load %struct.Edge*, %struct.Edge** %10, align 8
  %12 = icmp ne %struct.Edge* %7, %11
  br i1 %12, label %13, label %27

13:                                               ; preds = %2
  %14 = bitcast %"class.std::vector.6"* %0 to %"struct.std::_Vector_base.7"*
  %15 = getelementptr inbounds %"struct.std::_Vector_base.7", %"struct.std::_Vector_base.7"* %14, i32 0, i32 0
  %16 = bitcast %"struct.std::_Vector_base<Edge, std::allocator<Edge> >::_Vector_impl"* %15 to %"class.std::allocator.8"*
  %17 = bitcast %"class.std::vector.6"* %0 to %"struct.std::_Vector_base.7"*
  %18 = getelementptr inbounds %"struct.std::_Vector_base.7", %"struct.std::_Vector_base.7"* %17, i32 0, i32 0
  %19 = getelementptr inbounds %"struct.std::_Vector_base<Edge, std::allocator<Edge> >::_Vector_impl", %"struct.std::_Vector_base<Edge, std::allocator<Edge> >::_Vector_impl"* %18, i32 0, i32 1
  %20 = load %struct.Edge*, %struct.Edge** %19, align 8
  %21 = call dereferenceable(12) %struct.Edge* @_ZSt7forwardI4EdgeEOT_RNSt16remove_referenceIS1_E4typeE(%struct.Edge* dereferenceable(12) %1) #3
  call void @_ZNSt16allocator_traitsISaI4EdgeEE9constructIS0_JS0_EEEvRS1_PT_DpOT0_(%"class.std::allocator.8"* dereferenceable(1) %16, %struct.Edge* %20, %struct.Edge* dereferenceable(12) %21)
  %22 = bitcast %"class.std::vector.6"* %0 to %"struct.std::_Vector_base.7"*
  %23 = getelementptr inbounds %"struct.std::_Vector_base.7", %"struct.std::_Vector_base.7"* %22, i32 0, i32 0
  %24 = getelementptr inbounds %"struct.std::_Vector_base<Edge, std::allocator<Edge> >::_Vector_impl", %"struct.std::_Vector_base<Edge, std::allocator<Edge> >::_Vector_impl"* %23, i32 0, i32 1
  %25 = load %struct.Edge*, %struct.Edge** %24, align 8
  %26 = getelementptr inbounds %struct.Edge, %struct.Edge* %25, i32 1
  store %struct.Edge* %26, %struct.Edge** %24, align 8
  br label %33

27:                                               ; preds = %2
  %28 = call %struct.Edge* @_ZNSt6vectorI4EdgeSaIS0_EE3endEv(%"class.std::vector.6"* %0) #3
  %29 = getelementptr inbounds %"class.__gnu_cxx::__normal_iterator.15", %"class.__gnu_cxx::__normal_iterator.15"* %3, i32 0, i32 0
  store %struct.Edge* %28, %struct.Edge** %29, align 8
  %30 = call dereferenceable(12) %struct.Edge* @_ZSt7forwardI4EdgeEOT_RNSt16remove_referenceIS1_E4typeE(%struct.Edge* dereferenceable(12) %1) #3
  %31 = getelementptr inbounds %"class.__gnu_cxx::__normal_iterator.15", %"class.__gnu_cxx::__normal_iterator.15"* %3, i32 0, i32 0
  %32 = load %struct.Edge*, %struct.Edge** %31, align 8
  call void @_ZNSt6vectorI4EdgeSaIS0_EE17_M_realloc_insertIJS0_EEEvN9__gnu_cxx17__normal_iteratorIPS0_S2_EEDpOT_(%"class.std::vector.6"* %0, %struct.Edge* %32, %struct.Edge* dereferenceable(12) %30)
  br label %33

33:                                               ; preds = %27, %13
  ret void
}

; Function Attrs: noinline uwtable
define linkonce_odr void @_ZNSt16allocator_traitsISaI4EdgeEE9constructIS0_JS0_EEEvRS1_PT_DpOT0_(%"class.std::allocator.8"* dereferenceable(1) %0, %struct.Edge* %1, %struct.Edge* dereferenceable(12) %2) #0 comdat align 2 {
  %4 = bitcast %"class.std::allocator.8"* %0 to %"class.__gnu_cxx::new_allocator.9"*
  %5 = call dereferenceable(12) %struct.Edge* @_ZSt7forwardI4EdgeEOT_RNSt16remove_referenceIS1_E4typeE(%struct.Edge* dereferenceable(12) %2) #3
  call void @_ZN9__gnu_cxx13new_allocatorI4EdgeE9constructIS1_JS1_EEEvPT_DpOT0_(%"class.__gnu_cxx::new_allocator.9"* %4, %struct.Edge* %1, %struct.Edge* dereferenceable(12) %5)
  ret void
}

; Function Attrs: noinline nounwind uwtable
define linkonce_odr dereferenceable(12) %struct.Edge* @_ZSt7forwardI4EdgeEOT_RNSt16remove_referenceIS1_E4typeE(%struct.Edge* dereferenceable(12) %0) #4 comdat {
  ret %struct.Edge* %0
}

; Function Attrs: noinline uwtable
define linkonce_odr void @_ZNSt6vectorI4EdgeSaIS0_EE17_M_realloc_insertIJS0_EEEvN9__gnu_cxx17__normal_iteratorIPS0_S2_EEDpOT_(%"class.std::vector.6"* %0, %struct.Edge* %1, %struct.Edge* dereferenceable(12) %2) #0 comdat align 2 personality i8* bitcast (i32 (...)* @__gxx_personality_v0 to i8*) {
  %4 = alloca %"class.__gnu_cxx::__normal_iterator.15", align 8
  %5 = alloca %"class.__gnu_cxx::__normal_iterator.15", align 8
  %6 = getelementptr inbounds %"class.__gnu_cxx::__normal_iterator.15", %"class.__gnu_cxx::__normal_iterator.15"* %4, i32 0, i32 0
  store %struct.Edge* %1, %struct.Edge** %6, align 8
  %7 = call i64 @_ZNKSt6vectorI4EdgeSaIS0_EE12_M_check_lenEmPKc(%"class.std::vector.6"* %0, i64 1, i8* getelementptr inbounds ([26 x i8], [26 x i8]* @.str.3, i32 0, i32 0))
  %8 = bitcast %"class.std::vector.6"* %0 to %"struct.std::_Vector_base.7"*
  %9 = getelementptr inbounds %"struct.std::_Vector_base.7", %"struct.std::_Vector_base.7"* %8, i32 0, i32 0
  %10 = getelementptr inbounds %"struct.std::_Vector_base<Edge, std::allocator<Edge> >::_Vector_impl", %"struct.std::_Vector_base<Edge, std::allocator<Edge> >::_Vector_impl"* %9, i32 0, i32 0
  %11 = load %struct.Edge*, %struct.Edge** %10, align 8
  %12 = bitcast %"class.std::vector.6"* %0 to %"struct.std::_Vector_base.7"*
  %13 = getelementptr inbounds %"struct.std::_Vector_base.7", %"struct.std::_Vector_base.7"* %12, i32 0, i32 0
  %14 = getelementptr inbounds %"struct.std::_Vector_base<Edge, std::allocator<Edge> >::_Vector_impl", %"struct.std::_Vector_base<Edge, std::allocator<Edge> >::_Vector_impl"* %13, i32 0, i32 1
  %15 = load %struct.Edge*, %struct.Edge** %14, align 8
  %16 = call %struct.Edge* @_ZNSt6vectorI4EdgeSaIS0_EE5beginEv(%"class.std::vector.6"* %0) #3
  %17 = getelementptr inbounds %"class.__gnu_cxx::__normal_iterator.15", %"class.__gnu_cxx::__normal_iterator.15"* %5, i32 0, i32 0
  store %struct.Edge* %16, %struct.Edge** %17, align 8
  %18 = call i64 @_ZN9__gnu_cxxmiIP4EdgeSt6vectorIS1_SaIS1_EEEENS_17__normal_iteratorIT_T0_E15difference_typeERKS9_SC_(%"class.__gnu_cxx::__normal_iterator.15"* dereferenceable(8) %4, %"class.__gnu_cxx::__normal_iterator.15"* dereferenceable(8) %5) #3
  %19 = bitcast %"class.std::vector.6"* %0 to %"struct.std::_Vector_base.7"*
  %20 = call %struct.Edge* @_ZNSt12_Vector_baseI4EdgeSaIS0_EE11_M_allocateEm(%"struct.std::_Vector_base.7"* %19, i64 %7)
  %21 = bitcast %"class.std::vector.6"* %0 to %"struct.std::_Vector_base.7"*
  %22 = getelementptr inbounds %"struct.std::_Vector_base.7", %"struct.std::_Vector_base.7"* %21, i32 0, i32 0
  %23 = bitcast %"struct.std::_Vector_base<Edge, std::allocator<Edge> >::_Vector_impl"* %22 to %"class.std::allocator.8"*
  %24 = getelementptr inbounds %struct.Edge, %struct.Edge* %20, i64 %18
  %25 = call dereferenceable(12) %struct.Edge* @_ZSt7forwardI4EdgeEOT_RNSt16remove_referenceIS1_E4typeE(%struct.Edge* dereferenceable(12) %2) #3
  invoke void @_ZNSt16allocator_traitsISaI4EdgeEE9constructIS0_JS0_EEEvRS1_PT_DpOT0_(%"class.std::allocator.8"* dereferenceable(1) %23, %struct.Edge* %24, %struct.Edge* dereferenceable(12) %25)
          to label %26 unwind label %40

26:                                               ; preds = %3
  %27 = call dereferenceable(8) %struct.Edge** @_ZNK9__gnu_cxx17__normal_iteratorIP4EdgeSt6vectorIS1_SaIS1_EEE4baseEv(%"class.__gnu_cxx::__normal_iterator.15"* %4) #3
  %28 = load %struct.Edge*, %struct.Edge** %27, align 8
  %29 = bitcast %"class.std::vector.6"* %0 to %"struct.std::_Vector_base.7"*
  %30 = call dereferenceable(1) %"class.std::allocator.8"* @_ZNSt12_Vector_baseI4EdgeSaIS0_EE19_M_get_Tp_allocatorEv(%"struct.std::_Vector_base.7"* %29) #3
  %31 = invoke %struct.Edge* @_ZSt34__uninitialized_move_if_noexcept_aIP4EdgeS1_SaIS0_EET0_T_S4_S3_RT1_(%struct.Edge* %11, %struct.Edge* %28, %struct.Edge* %20, %"class.std::allocator.8"* dereferenceable(1) %30)
          to label %32 unwind label %40

32:                                               ; preds = %26
  %33 = getelementptr inbounds %struct.Edge, %struct.Edge* %31, i32 1
  %34 = call dereferenceable(8) %struct.Edge** @_ZNK9__gnu_cxx17__normal_iteratorIP4EdgeSt6vectorIS1_SaIS1_EEE4baseEv(%"class.__gnu_cxx::__normal_iterator.15"* %4) #3
  %35 = load %struct.Edge*, %struct.Edge** %34, align 8
  %36 = bitcast %"class.std::vector.6"* %0 to %"struct.std::_Vector_base.7"*
  %37 = call dereferenceable(1) %"class.std::allocator.8"* @_ZNSt12_Vector_baseI4EdgeSaIS0_EE19_M_get_Tp_allocatorEv(%"struct.std::_Vector_base.7"* %36) #3
  %38 = invoke %struct.Edge* @_ZSt34__uninitialized_move_if_noexcept_aIP4EdgeS1_SaIS0_EET0_T_S4_S3_RT1_(%struct.Edge* %35, %struct.Edge* %15, %struct.Edge* %33, %"class.std::allocator.8"* dereferenceable(1) %37)
          to label %39 unwind label %40

39:                                               ; preds = %32
  br label %65

40:                                               ; preds = %32, %26, %3
  %.0 = phi %struct.Edge* [ %33, %32 ], [ null, %26 ], [ %20, %3 ]
  %41 = landingpad { i8*, i32 }
          catch i8* null
  %42 = extractvalue { i8*, i32 } %41, 0
  %43 = extractvalue { i8*, i32 } %41, 1
  br label %44

44:                                               ; preds = %40
  %45 = call i8* @__cxa_begin_catch(i8* %42) #3
  %46 = icmp ne %struct.Edge* %.0, null
  br i1 %46, label %57, label %47

47:                                               ; preds = %44
  %48 = bitcast %"class.std::vector.6"* %0 to %"struct.std::_Vector_base.7"*
  %49 = getelementptr inbounds %"struct.std::_Vector_base.7", %"struct.std::_Vector_base.7"* %48, i32 0, i32 0
  %50 = bitcast %"struct.std::_Vector_base<Edge, std::allocator<Edge> >::_Vector_impl"* %49 to %"class.std::allocator.8"*
  %51 = getelementptr inbounds %struct.Edge, %struct.Edge* %20, i64 %18
  invoke void @_ZNSt16allocator_traitsISaI4EdgeEE7destroyIS0_EEvRS1_PT_(%"class.std::allocator.8"* dereferenceable(1) %50, %struct.Edge* %51)
          to label %52 unwind label %53

52:                                               ; preds = %47
  br label %61

53:                                               ; preds = %63, %61, %57, %47
  %54 = landingpad { i8*, i32 }
          cleanup
  %55 = extractvalue { i8*, i32 } %54, 0
  %56 = extractvalue { i8*, i32 } %54, 1
  invoke void @__cxa_end_catch()
          to label %64 unwind label %90

57:                                               ; preds = %44
  %58 = bitcast %"class.std::vector.6"* %0 to %"struct.std::_Vector_base.7"*
  %59 = call dereferenceable(1) %"class.std::allocator.8"* @_ZNSt12_Vector_baseI4EdgeSaIS0_EE19_M_get_Tp_allocatorEv(%"struct.std::_Vector_base.7"* %58) #3
  invoke void @_ZSt8_DestroyIP4EdgeS0_EvT_S2_RSaIT0_E(%struct.Edge* %20, %struct.Edge* %.0, %"class.std::allocator.8"* dereferenceable(1) %59)
          to label %60 unwind label %53

60:                                               ; preds = %57
  br label %61

61:                                               ; preds = %60, %52
  %62 = bitcast %"class.std::vector.6"* %0 to %"struct.std::_Vector_base.7"*
  invoke void @_ZNSt12_Vector_baseI4EdgeSaIS0_EE13_M_deallocateEPS0_m(%"struct.std::_Vector_base.7"* %62, %struct.Edge* %20, i64 %7)
          to label %63 unwind label %53

63:                                               ; preds = %61
  invoke void @__cxa_rethrow() #13
          to label %93 unwind label %53

64:                                               ; preds = %53
  br label %87

65:                                               ; preds = %39
  %66 = bitcast %"class.std::vector.6"* %0 to %"struct.std::_Vector_base.7"*
  %67 = call dereferenceable(1) %"class.std::allocator.8"* @_ZNSt12_Vector_baseI4EdgeSaIS0_EE19_M_get_Tp_allocatorEv(%"struct.std::_Vector_base.7"* %66) #3
  call void @_ZSt8_DestroyIP4EdgeS0_EvT_S2_RSaIT0_E(%struct.Edge* %11, %struct.Edge* %15, %"class.std::allocator.8"* dereferenceable(1) %67)
  %68 = bitcast %"class.std::vector.6"* %0 to %"struct.std::_Vector_base.7"*
  %69 = bitcast %"class.std::vector.6"* %0 to %"struct.std::_Vector_base.7"*
  %70 = getelementptr inbounds %"struct.std::_Vector_base.7", %"struct.std::_Vector_base.7"* %69, i32 0, i32 0
  %71 = getelementptr inbounds %"struct.std::_Vector_base<Edge, std::allocator<Edge> >::_Vector_impl", %"struct.std::_Vector_base<Edge, std::allocator<Edge> >::_Vector_impl"* %70, i32 0, i32 2
  %72 = load %struct.Edge*, %struct.Edge** %71, align 8
  %73 = ptrtoint %struct.Edge* %72 to i64
  %74 = ptrtoint %struct.Edge* %11 to i64
  %75 = sub i64 %73, %74
  %76 = sdiv exact i64 %75, 12
  call void @_ZNSt12_Vector_baseI4EdgeSaIS0_EE13_M_deallocateEPS0_m(%"struct.std::_Vector_base.7"* %68, %struct.Edge* %11, i64 %76)
  %77 = bitcast %"class.std::vector.6"* %0 to %"struct.std::_Vector_base.7"*
  %78 = getelementptr inbounds %"struct.std::_Vector_base.7", %"struct.std::_Vector_base.7"* %77, i32 0, i32 0
  %79 = getelementptr inbounds %"struct.std::_Vector_base<Edge, std::allocator<Edge> >::_Vector_impl", %"struct.std::_Vector_base<Edge, std::allocator<Edge> >::_Vector_impl"* %78, i32 0, i32 0
  store %struct.Edge* %20, %struct.Edge** %79, align 8
  %80 = bitcast %"class.std::vector.6"* %0 to %"struct.std::_Vector_base.7"*
  %81 = getelementptr inbounds %"struct.std::_Vector_base.7", %"struct.std::_Vector_base.7"* %80, i32 0, i32 0
  %82 = getelementptr inbounds %"struct.std::_Vector_base<Edge, std::allocator<Edge> >::_Vector_impl", %"struct.std::_Vector_base<Edge, std::allocator<Edge> >::_Vector_impl"* %81, i32 0, i32 1
  store %struct.Edge* %38, %struct.Edge** %82, align 8
  %83 = getelementptr inbounds %struct.Edge, %struct.Edge* %20, i64 %7
  %84 = bitcast %"class.std::vector.6"* %0 to %"struct.std::_Vector_base.7"*
  %85 = getelementptr inbounds %"struct.std::_Vector_base.7", %"struct.std::_Vector_base.7"* %84, i32 0, i32 0
  %86 = getelementptr inbounds %"struct.std::_Vector_base<Edge, std::allocator<Edge> >::_Vector_impl", %"struct.std::_Vector_base<Edge, std::allocator<Edge> >::_Vector_impl"* %85, i32 0, i32 2
  store %struct.Edge* %83, %struct.Edge** %86, align 8
  ret void

87:                                               ; preds = %64
  %88 = insertvalue { i8*, i32 } undef, i8* %55, 0
  %89 = insertvalue { i8*, i32 } %88, i32 %56, 1
  resume { i8*, i32 } %89

90:                                               ; preds = %53
  %91 = landingpad { i8*, i32 }
          catch i8* null
  %92 = extractvalue { i8*, i32 } %91, 0
  call void @__clang_call_terminate(i8* %92) #12
  unreachable

93:                                               ; preds = %63
  unreachable
}

; Function Attrs: noinline nounwind uwtable
define linkonce_odr void @_ZN9__gnu_cxx13new_allocatorI4EdgeE9constructIS1_JS1_EEEvPT_DpOT0_(%"class.__gnu_cxx::new_allocator.9"* %0, %struct.Edge* %1, %struct.Edge* dereferenceable(12) %2) #4 comdat align 2 {
  %4 = bitcast %struct.Edge* %1 to i8*
  %5 = bitcast i8* %4 to %struct.Edge*
  %6 = call dereferenceable(12) %struct.Edge* @_ZSt7forwardI4EdgeEOT_RNSt16remove_referenceIS1_E4typeE(%struct.Edge* dereferenceable(12) %2) #3
  %7 = bitcast %struct.Edge* %5 to i8*
  %8 = bitcast %struct.Edge* %6 to i8*
  call void @llvm.memcpy.p0i8.p0i8.i64(i8* align 4 %7, i8* align 4 %8, i64 12, i1 false)
  ret void
}

; Function Attrs: noinline uwtable
define linkonce_odr i64 @_ZNKSt6vectorI4EdgeSaIS0_EE12_M_check_lenEmPKc(%"class.std::vector.6"* %0, i64 %1, i8* %2) #0 comdat align 2 {
  %4 = alloca i64, align 8
  %5 = alloca i64, align 8
  store i64 %1, i64* %4, align 8
  %6 = call i64 @_ZNKSt6vectorI4EdgeSaIS0_EE8max_sizeEv(%"class.std::vector.6"* %0) #3
  %7 = call i64 @_ZNKSt6vectorI4EdgeSaIS0_EE4sizeEv(%"class.std::vector.6"* %0) #3
  %8 = sub i64 %6, %7
  %9 = load i64, i64* %4, align 8
  %10 = icmp ult i64 %8, %9
  br i1 %10, label %11, label %12

11:                                               ; preds = %3
  call void @_ZSt20__throw_length_errorPKc(i8* %2) #13
  unreachable

12:                                               ; preds = %3
  %13 = call i64 @_ZNKSt6vectorI4EdgeSaIS0_EE4sizeEv(%"class.std::vector.6"* %0) #3
  %14 = call i64 @_ZNKSt6vectorI4EdgeSaIS0_EE4sizeEv(%"class.std::vector.6"* %0) #3
  store i64 %14, i64* %5, align 8
  %15 = call dereferenceable(8) i64* @_ZSt3maxImERKT_S2_S2_(i64* dereferenceable(8) %5, i64* dereferenceable(8) %4)
  %16 = load i64, i64* %15, align 8
  %17 = add i64 %13, %16
  %18 = call i64 @_ZNKSt6vectorI4EdgeSaIS0_EE4sizeEv(%"class.std::vector.6"* %0) #3
  %19 = icmp ult i64 %17, %18
  br i1 %19, label %23, label %20

20:                                               ; preds = %12
  %21 = call i64 @_ZNKSt6vectorI4EdgeSaIS0_EE8max_sizeEv(%"class.std::vector.6"* %0) #3
  %22 = icmp ugt i64 %17, %21
  br i1 %22, label %23, label %25

23:                                               ; preds = %20, %12
  %24 = call i64 @_ZNKSt6vectorI4EdgeSaIS0_EE8max_sizeEv(%"class.std::vector.6"* %0) #3
  br label %26

25:                                               ; preds = %20
  br label %26

26:                                               ; preds = %25, %23
  %27 = phi i64 [ %24, %23 ], [ %17, %25 ]
  ret i64 %27
}

; Function Attrs: noinline nounwind uwtable
define linkonce_odr i64 @_ZN9__gnu_cxxmiIP4EdgeSt6vectorIS1_SaIS1_EEEENS_17__normal_iteratorIT_T0_E15difference_typeERKS9_SC_(%"class.__gnu_cxx::__normal_iterator.15"* dereferenceable(8) %0, %"class.__gnu_cxx::__normal_iterator.15"* dereferenceable(8) %1) #4 comdat {
  %3 = call dereferenceable(8) %struct.Edge** @_ZNK9__gnu_cxx17__normal_iteratorIP4EdgeSt6vectorIS1_SaIS1_EEE4baseEv(%"class.__gnu_cxx::__normal_iterator.15"* %0) #3
  %4 = load %struct.Edge*, %struct.Edge** %3, align 8
  %5 = call dereferenceable(8) %struct.Edge** @_ZNK9__gnu_cxx17__normal_iteratorIP4EdgeSt6vectorIS1_SaIS1_EEE4baseEv(%"class.__gnu_cxx::__normal_iterator.15"* %1) #3
  %6 = load %struct.Edge*, %struct.Edge** %5, align 8
  %7 = ptrtoint %struct.Edge* %4 to i64
  %8 = ptrtoint %struct.Edge* %6 to i64
  %9 = sub i64 %7, %8
  %10 = sdiv exact i64 %9, 12
  ret i64 %10
}

; Function Attrs: noinline uwtable
define linkonce_odr %struct.Edge* @_ZNSt12_Vector_baseI4EdgeSaIS0_EE11_M_allocateEm(%"struct.std::_Vector_base.7"* %0, i64 %1) #0 comdat align 2 {
  %3 = icmp ne i64 %1, 0
  br i1 %3, label %4, label %8

4:                                                ; preds = %2
  %5 = getelementptr inbounds %"struct.std::_Vector_base.7", %"struct.std::_Vector_base.7"* %0, i32 0, i32 0
  %6 = bitcast %"struct.std::_Vector_base<Edge, std::allocator<Edge> >::_Vector_impl"* %5 to %"class.std::allocator.8"*
  %7 = call %struct.Edge* @_ZNSt16allocator_traitsISaI4EdgeEE8allocateERS1_m(%"class.std::allocator.8"* dereferenceable(1) %6, i64 %1)
  br label %9

8:                                                ; preds = %2
  br label %9

9:                                                ; preds = %8, %4
  %10 = phi %struct.Edge* [ %7, %4 ], [ null, %8 ]
  ret %struct.Edge* %10
}

; Function Attrs: noinline uwtable
define linkonce_odr %struct.Edge* @_ZSt34__uninitialized_move_if_noexcept_aIP4EdgeS1_SaIS0_EET0_T_S4_S3_RT1_(%struct.Edge* %0, %struct.Edge* %1, %struct.Edge* %2, %"class.std::allocator.8"* dereferenceable(1) %3) #0 comdat {
  %5 = alloca %"class.std::move_iterator.16", align 8
  %6 = alloca %"class.std::move_iterator.16", align 8
  %7 = call %struct.Edge* @_ZSt32__make_move_if_noexcept_iteratorI4EdgeSt13move_iteratorIPS0_EET0_PT_(%struct.Edge* %0)
  %8 = getelementptr inbounds %"class.std::move_iterator.16", %"class.std::move_iterator.16"* %5, i32 0, i32 0
  store %struct.Edge* %7, %struct.Edge** %8, align 8
  %9 = call %struct.Edge* @_ZSt32__make_move_if_noexcept_iteratorI4EdgeSt13move_iteratorIPS0_EET0_PT_(%struct.Edge* %1)
  %10 = getelementptr inbounds %"class.std::move_iterator.16", %"class.std::move_iterator.16"* %6, i32 0, i32 0
  store %struct.Edge* %9, %struct.Edge** %10, align 8
  %11 = getelementptr inbounds %"class.std::move_iterator.16", %"class.std::move_iterator.16"* %5, i32 0, i32 0
  %12 = load %struct.Edge*, %struct.Edge** %11, align 8
  %13 = getelementptr inbounds %"class.std::move_iterator.16", %"class.std::move_iterator.16"* %6, i32 0, i32 0
  %14 = load %struct.Edge*, %struct.Edge** %13, align 8
  %15 = call %struct.Edge* @_ZSt22__uninitialized_copy_aISt13move_iteratorIP4EdgeES2_S1_ET0_T_S5_S4_RSaIT1_E(%struct.Edge* %12, %struct.Edge* %14, %struct.Edge* %2, %"class.std::allocator.8"* dereferenceable(1) %3)
  ret %struct.Edge* %15
}

; Function Attrs: noinline nounwind uwtable
define linkonce_odr dereferenceable(8) %struct.Edge** @_ZNK9__gnu_cxx17__normal_iteratorIP4EdgeSt6vectorIS1_SaIS1_EEE4baseEv(%"class.__gnu_cxx::__normal_iterator.15"* %0) #4 comdat align 2 {
  %2 = getelementptr inbounds %"class.__gnu_cxx::__normal_iterator.15", %"class.__gnu_cxx::__normal_iterator.15"* %0, i32 0, i32 0
  ret %struct.Edge** %2
}

; Function Attrs: noinline uwtable
define linkonce_odr void @_ZNSt16allocator_traitsISaI4EdgeEE7destroyIS0_EEvRS1_PT_(%"class.std::allocator.8"* dereferenceable(1) %0, %struct.Edge* %1) #0 comdat align 2 {
  %3 = bitcast %"class.std::allocator.8"* %0 to %"class.__gnu_cxx::new_allocator.9"*
  call void @_ZN9__gnu_cxx13new_allocatorI4EdgeE7destroyIS1_EEvPT_(%"class.__gnu_cxx::new_allocator.9"* %3, %struct.Edge* %1)
  ret void
}

; Function Attrs: noinline nounwind uwtable
define linkonce_odr i64 @_ZNKSt6vectorI4EdgeSaIS0_EE8max_sizeEv(%"class.std::vector.6"* %0) #4 comdat align 2 {
  %2 = bitcast %"class.std::vector.6"* %0 to %"struct.std::_Vector_base.7"*
  %3 = call dereferenceable(1) %"class.std::allocator.8"* @_ZNKSt12_Vector_baseI4EdgeSaIS0_EE19_M_get_Tp_allocatorEv(%"struct.std::_Vector_base.7"* %2) #3
  %4 = call i64 @_ZNSt16allocator_traitsISaI4EdgeEE8max_sizeERKS1_(%"class.std::allocator.8"* dereferenceable(1) %3) #3
  ret i64 %4
}

; Function Attrs: noinline nounwind uwtable
define linkonce_odr i64 @_ZNKSt6vectorI4EdgeSaIS0_EE4sizeEv(%"class.std::vector.6"* %0) #4 comdat align 2 {
  %2 = bitcast %"class.std::vector.6"* %0 to %"struct.std::_Vector_base.7"*
  %3 = getelementptr inbounds %"struct.std::_Vector_base.7", %"struct.std::_Vector_base.7"* %2, i32 0, i32 0
  %4 = getelementptr inbounds %"struct.std::_Vector_base<Edge, std::allocator<Edge> >::_Vector_impl", %"struct.std::_Vector_base<Edge, std::allocator<Edge> >::_Vector_impl"* %3, i32 0, i32 1
  %5 = load %struct.Edge*, %struct.Edge** %4, align 8
  %6 = bitcast %"class.std::vector.6"* %0 to %"struct.std::_Vector_base.7"*
  %7 = getelementptr inbounds %"struct.std::_Vector_base.7", %"struct.std::_Vector_base.7"* %6, i32 0, i32 0
  %8 = getelementptr inbounds %"struct.std::_Vector_base<Edge, std::allocator<Edge> >::_Vector_impl", %"struct.std::_Vector_base<Edge, std::allocator<Edge> >::_Vector_impl"* %7, i32 0, i32 0
  %9 = load %struct.Edge*, %struct.Edge** %8, align 8
  %10 = ptrtoint %struct.Edge* %5 to i64
  %11 = ptrtoint %struct.Edge* %9 to i64
  %12 = sub i64 %10, %11
  %13 = sdiv exact i64 %12, 12
  ret i64 %13
}

; Function Attrs: noinline nounwind uwtable
define linkonce_odr i64 @_ZNSt16allocator_traitsISaI4EdgeEE8max_sizeERKS1_(%"class.std::allocator.8"* dereferenceable(1) %0) #4 comdat align 2 {
  %2 = bitcast %"class.std::allocator.8"* %0 to %"class.__gnu_cxx::new_allocator.9"*
  %3 = call i64 @_ZNK9__gnu_cxx13new_allocatorI4EdgeE8max_sizeEv(%"class.__gnu_cxx::new_allocator.9"* %2) #3
  ret i64 %3
}

; Function Attrs: noinline nounwind uwtable
define linkonce_odr dereferenceable(1) %"class.std::allocator.8"* @_ZNKSt12_Vector_baseI4EdgeSaIS0_EE19_M_get_Tp_allocatorEv(%"struct.std::_Vector_base.7"* %0) #4 comdat align 2 {
  %2 = getelementptr inbounds %"struct.std::_Vector_base.7", %"struct.std::_Vector_base.7"* %0, i32 0, i32 0
  %3 = bitcast %"struct.std::_Vector_base<Edge, std::allocator<Edge> >::_Vector_impl"* %2 to %"class.std::allocator.8"*
  ret %"class.std::allocator.8"* %3
}

; Function Attrs: noinline nounwind uwtable
define linkonce_odr i64 @_ZNK9__gnu_cxx13new_allocatorI4EdgeE8max_sizeEv(%"class.__gnu_cxx::new_allocator.9"* %0) #4 comdat align 2 {
  ret i64 1537228672809129301
}

; Function Attrs: noinline uwtable
define linkonce_odr %struct.Edge* @_ZNSt16allocator_traitsISaI4EdgeEE8allocateERS1_m(%"class.std::allocator.8"* dereferenceable(1) %0, i64 %1) #0 comdat align 2 {
  %3 = bitcast %"class.std::allocator.8"* %0 to %"class.__gnu_cxx::new_allocator.9"*
  %4 = call %struct.Edge* @_ZN9__gnu_cxx13new_allocatorI4EdgeE8allocateEmPKv(%"class.__gnu_cxx::new_allocator.9"* %3, i64 %1, i8* null)
  ret %struct.Edge* %4
}

; Function Attrs: noinline uwtable
define linkonce_odr %struct.Edge* @_ZN9__gnu_cxx13new_allocatorI4EdgeE8allocateEmPKv(%"class.__gnu_cxx::new_allocator.9"* %0, i64 %1, i8* %2) #0 comdat align 2 {
  %4 = call i64 @_ZNK9__gnu_cxx13new_allocatorI4EdgeE8max_sizeEv(%"class.__gnu_cxx::new_allocator.9"* %0) #3
  %5 = icmp ugt i64 %1, %4
  br i1 %5, label %6, label %7

6:                                                ; preds = %3
  call void @_ZSt17__throw_bad_allocv() #13
  unreachable

7:                                                ; preds = %3
  %8 = mul i64 %1, 12
  %9 = call i8* @_Znwm(i64 %8)
  %10 = bitcast i8* %9 to %struct.Edge*
  ret %struct.Edge* %10
}

; Function Attrs: noinline uwtable
define linkonce_odr %struct.Edge* @_ZSt22__uninitialized_copy_aISt13move_iteratorIP4EdgeES2_S1_ET0_T_S5_S4_RSaIT1_E(%struct.Edge* %0, %struct.Edge* %1, %struct.Edge* %2, %"class.std::allocator.8"* dereferenceable(1) %3) #0 comdat {
  %5 = alloca %"class.std::move_iterator.16", align 8
  %6 = alloca %"class.std::move_iterator.16", align 8
  %7 = alloca %"class.std::move_iterator.16", align 8
  %8 = alloca %"class.std::move_iterator.16", align 8
  %9 = getelementptr inbounds %"class.std::move_iterator.16", %"class.std::move_iterator.16"* %5, i32 0, i32 0
  store %struct.Edge* %0, %struct.Edge** %9, align 8
  %10 = getelementptr inbounds %"class.std::move_iterator.16", %"class.std::move_iterator.16"* %6, i32 0, i32 0
  store %struct.Edge* %1, %struct.Edge** %10, align 8
  %11 = bitcast %"class.std::move_iterator.16"* %7 to i8*
  %12 = bitcast %"class.std::move_iterator.16"* %5 to i8*
  call void @llvm.memcpy.p0i8.p0i8.i64(i8* align 8 %11, i8* align 8 %12, i64 8, i1 false)
  %13 = bitcast %"class.std::move_iterator.16"* %8 to i8*
  %14 = bitcast %"class.std::move_iterator.16"* %6 to i8*
  call void @llvm.memcpy.p0i8.p0i8.i64(i8* align 8 %13, i8* align 8 %14, i64 8, i1 false)
  %15 = getelementptr inbounds %"class.std::move_iterator.16", %"class.std::move_iterator.16"* %7, i32 0, i32 0
  %16 = load %struct.Edge*, %struct.Edge** %15, align 8
  %17 = getelementptr inbounds %"class.std::move_iterator.16", %"class.std::move_iterator.16"* %8, i32 0, i32 0
  %18 = load %struct.Edge*, %struct.Edge** %17, align 8
  %19 = call %struct.Edge* @_ZSt18uninitialized_copyISt13move_iteratorIP4EdgeES2_ET0_T_S5_S4_(%struct.Edge* %16, %struct.Edge* %18, %struct.Edge* %2)
  ret %struct.Edge* %19
}

; Function Attrs: noinline uwtable
define linkonce_odr %struct.Edge* @_ZSt32__make_move_if_noexcept_iteratorI4EdgeSt13move_iteratorIPS0_EET0_PT_(%struct.Edge* %0) #0 comdat {
  %2 = alloca %"class.std::move_iterator.16", align 8
  call void @_ZNSt13move_iteratorIP4EdgeEC2ES1_(%"class.std::move_iterator.16"* %2, %struct.Edge* %0)
  %3 = getelementptr inbounds %"class.std::move_iterator.16", %"class.std::move_iterator.16"* %2, i32 0, i32 0
  %4 = load %struct.Edge*, %struct.Edge** %3, align 8
  ret %struct.Edge* %4
}

; Function Attrs: noinline uwtable
define linkonce_odr %struct.Edge* @_ZSt18uninitialized_copyISt13move_iteratorIP4EdgeES2_ET0_T_S5_S4_(%struct.Edge* %0, %struct.Edge* %1, %struct.Edge* %2) #0 comdat {
  %4 = alloca %"class.std::move_iterator.16", align 8
  %5 = alloca %"class.std::move_iterator.16", align 8
  %6 = alloca %"class.std::move_iterator.16", align 8
  %7 = alloca %"class.std::move_iterator.16", align 8
  %8 = getelementptr inbounds %"class.std::move_iterator.16", %"class.std::move_iterator.16"* %4, i32 0, i32 0
  store %struct.Edge* %0, %struct.Edge** %8, align 8
  %9 = getelementptr inbounds %"class.std::move_iterator.16", %"class.std::move_iterator.16"* %5, i32 0, i32 0
  store %struct.Edge* %1, %struct.Edge** %9, align 8
  %10 = bitcast %"class.std::move_iterator.16"* %6 to i8*
  %11 = bitcast %"class.std::move_iterator.16"* %4 to i8*
  call void @llvm.memcpy.p0i8.p0i8.i64(i8* align 8 %10, i8* align 8 %11, i64 8, i1 false)
  %12 = bitcast %"class.std::move_iterator.16"* %7 to i8*
  %13 = bitcast %"class.std::move_iterator.16"* %5 to i8*
  call void @llvm.memcpy.p0i8.p0i8.i64(i8* align 8 %12, i8* align 8 %13, i64 8, i1 false)
  %14 = getelementptr inbounds %"class.std::move_iterator.16", %"class.std::move_iterator.16"* %6, i32 0, i32 0
  %15 = load %struct.Edge*, %struct.Edge** %14, align 8
  %16 = getelementptr inbounds %"class.std::move_iterator.16", %"class.std::move_iterator.16"* %7, i32 0, i32 0
  %17 = load %struct.Edge*, %struct.Edge** %16, align 8
  %18 = call %struct.Edge* @_ZNSt20__uninitialized_copyILb0EE13__uninit_copyISt13move_iteratorIP4EdgeES4_EET0_T_S7_S6_(%struct.Edge* %15, %struct.Edge* %17, %struct.Edge* %2)
  ret %struct.Edge* %18
}

; Function Attrs: noinline uwtable
define linkonce_odr %struct.Edge* @_ZNSt20__uninitialized_copyILb0EE13__uninit_copyISt13move_iteratorIP4EdgeES4_EET0_T_S7_S6_(%struct.Edge* %0, %struct.Edge* %1, %struct.Edge* %2) #0 comdat align 2 personality i8* bitcast (i32 (...)* @__gxx_personality_v0 to i8*) {
  %4 = alloca %"class.std::move_iterator.16", align 8
  %5 = alloca %"class.std::move_iterator.16", align 8
  %6 = getelementptr inbounds %"class.std::move_iterator.16", %"class.std::move_iterator.16"* %4, i32 0, i32 0
  store %struct.Edge* %0, %struct.Edge** %6, align 8
  %7 = getelementptr inbounds %"class.std::move_iterator.16", %"class.std::move_iterator.16"* %5, i32 0, i32 0
  store %struct.Edge* %1, %struct.Edge** %7, align 8
  br label %8

8:                                                ; preds = %18, %3
  %.0 = phi %struct.Edge* [ %2, %3 ], [ %19, %18 ]
  %9 = invoke zeroext i1 @_ZStneIP4EdgeEbRKSt13move_iteratorIT_ES6_(%"class.std::move_iterator.16"* dereferenceable(8) %4, %"class.std::move_iterator.16"* dereferenceable(8) %5)
          to label %10 unwind label %20

10:                                               ; preds = %8
  br i1 %9, label %11, label %27

11:                                               ; preds = %10
  %12 = call %struct.Edge* @_ZSt11__addressofI4EdgeEPT_RS1_(%struct.Edge* dereferenceable(12) %.0) #3
  %13 = invoke dereferenceable(12) %struct.Edge* @_ZNKSt13move_iteratorIP4EdgeEdeEv(%"class.std::move_iterator.16"* %4)
          to label %14 unwind label %20

14:                                               ; preds = %11
  invoke void @_ZSt10_ConstructI4EdgeJS0_EEvPT_DpOT0_(%struct.Edge* %12, %struct.Edge* dereferenceable(12) %13)
          to label %15 unwind label %20

15:                                               ; preds = %14
  br label %16

16:                                               ; preds = %15
  %17 = invoke dereferenceable(8) %"class.std::move_iterator.16"* @_ZNSt13move_iteratorIP4EdgeEppEv(%"class.std::move_iterator.16"* %4)
          to label %18 unwind label %20

18:                                               ; preds = %16
  %19 = getelementptr inbounds %struct.Edge, %struct.Edge* %.0, i32 1
  br label %8

20:                                               ; preds = %16, %14, %11, %8
  %21 = landingpad { i8*, i32 }
          catch i8* null
  %22 = extractvalue { i8*, i32 } %21, 0
  %23 = extractvalue { i8*, i32 } %21, 1
  br label %24

24:                                               ; preds = %20
  %25 = call i8* @__cxa_begin_catch(i8* %22) #3
  invoke void @_ZSt8_DestroyIP4EdgeEvT_S2_(%struct.Edge* %2, %struct.Edge* %.0)
          to label %26 unwind label %28

26:                                               ; preds = %24
  invoke void @__cxa_rethrow() #13
          to label %40 unwind label %28

27:                                               ; preds = %10
  ret %struct.Edge* %.0

28:                                               ; preds = %26, %24
  %29 = landingpad { i8*, i32 }
          cleanup
  %30 = extractvalue { i8*, i32 } %29, 0
  %31 = extractvalue { i8*, i32 } %29, 1
  invoke void @__cxa_end_catch()
          to label %32 unwind label %37

32:                                               ; preds = %28
  br label %34

33:                                               ; No predecessors!
  call void @llvm.trap()
  unreachable

34:                                               ; preds = %32
  %35 = insertvalue { i8*, i32 } undef, i8* %30, 0
  %36 = insertvalue { i8*, i32 } %35, i32 %31, 1
  resume { i8*, i32 } %36

37:                                               ; preds = %28
  %38 = landingpad { i8*, i32 }
          catch i8* null
  %39 = extractvalue { i8*, i32 } %38, 0
  call void @__clang_call_terminate(i8* %39) #12
  unreachable

40:                                               ; preds = %26
  unreachable
}

; Function Attrs: noinline uwtable
define linkonce_odr zeroext i1 @_ZStneIP4EdgeEbRKSt13move_iteratorIT_ES6_(%"class.std::move_iterator.16"* dereferenceable(8) %0, %"class.std::move_iterator.16"* dereferenceable(8) %1) #0 comdat {
  %3 = call zeroext i1 @_ZSteqIP4EdgeEbRKSt13move_iteratorIT_ES6_(%"class.std::move_iterator.16"* dereferenceable(8) %0, %"class.std::move_iterator.16"* dereferenceable(8) %1)
  %4 = xor i1 %3, true
  ret i1 %4
}

; Function Attrs: noinline nounwind uwtable
define linkonce_odr void @_ZSt10_ConstructI4EdgeJS0_EEvPT_DpOT0_(%struct.Edge* %0, %struct.Edge* dereferenceable(12) %1) #4 comdat {
  %3 = bitcast %struct.Edge* %0 to i8*
  %4 = bitcast i8* %3 to %struct.Edge*
  %5 = call dereferenceable(12) %struct.Edge* @_ZSt7forwardI4EdgeEOT_RNSt16remove_referenceIS1_E4typeE(%struct.Edge* dereferenceable(12) %1) #3
  %6 = bitcast %struct.Edge* %4 to i8*
  %7 = bitcast %struct.Edge* %5 to i8*
  call void @llvm.memcpy.p0i8.p0i8.i64(i8* align 4 %6, i8* align 4 %7, i64 12, i1 false)
  ret void
}

; Function Attrs: noinline nounwind uwtable
define linkonce_odr %struct.Edge* @_ZSt11__addressofI4EdgeEPT_RS1_(%struct.Edge* dereferenceable(12) %0) #4 comdat {
  ret %struct.Edge* %0
}

; Function Attrs: noinline nounwind uwtable
define linkonce_odr dereferenceable(12) %struct.Edge* @_ZNKSt13move_iteratorIP4EdgeEdeEv(%"class.std::move_iterator.16"* %0) #4 comdat align 2 {
  %2 = getelementptr inbounds %"class.std::move_iterator.16", %"class.std::move_iterator.16"* %0, i32 0, i32 0
  %3 = load %struct.Edge*, %struct.Edge** %2, align 8
  ret %struct.Edge* %3
}

; Function Attrs: noinline nounwind uwtable
define linkonce_odr dereferenceable(8) %"class.std::move_iterator.16"* @_ZNSt13move_iteratorIP4EdgeEppEv(%"class.std::move_iterator.16"* %0) #4 comdat align 2 {
  %2 = getelementptr inbounds %"class.std::move_iterator.16", %"class.std::move_iterator.16"* %0, i32 0, i32 0
  %3 = load %struct.Edge*, %struct.Edge** %2, align 8
  %4 = getelementptr inbounds %struct.Edge, %struct.Edge* %3, i32 1
  store %struct.Edge* %4, %struct.Edge** %2, align 8
  ret %"class.std::move_iterator.16"* %0
}

; Function Attrs: noinline uwtable
define linkonce_odr zeroext i1 @_ZSteqIP4EdgeEbRKSt13move_iteratorIT_ES6_(%"class.std::move_iterator.16"* dereferenceable(8) %0, %"class.std::move_iterator.16"* dereferenceable(8) %1) #0 comdat {
  %3 = call %struct.Edge* @_ZNKSt13move_iteratorIP4EdgeE4baseEv(%"class.std::move_iterator.16"* %0)
  %4 = call %struct.Edge* @_ZNKSt13move_iteratorIP4EdgeE4baseEv(%"class.std::move_iterator.16"* %1)
  %5 = icmp eq %struct.Edge* %3, %4
  ret i1 %5
}

; Function Attrs: noinline nounwind uwtable
define linkonce_odr %struct.Edge* @_ZNKSt13move_iteratorIP4EdgeE4baseEv(%"class.std::move_iterator.16"* %0) #4 comdat align 2 {
  %2 = getelementptr inbounds %"class.std::move_iterator.16", %"class.std::move_iterator.16"* %0, i32 0, i32 0
  %3 = load %struct.Edge*, %struct.Edge** %2, align 8
  ret %struct.Edge* %3
}

; Function Attrs: noinline nounwind uwtable
define linkonce_odr void @_ZNSt13move_iteratorIP4EdgeEC2ES1_(%"class.std::move_iterator.16"* %0, %struct.Edge* %1) unnamed_addr #4 comdat align 2 {
  %3 = getelementptr inbounds %"class.std::move_iterator.16", %"class.std::move_iterator.16"* %0, i32 0, i32 0
  store %struct.Edge* %1, %struct.Edge** %3, align 8
  ret void
}

; Function Attrs: noinline nounwind uwtable
define linkonce_odr void @_ZN9__gnu_cxx13new_allocatorI4EdgeE7destroyIS1_EEvPT_(%"class.__gnu_cxx::new_allocator.9"* %0, %struct.Edge* %1) #4 comdat align 2 {
  ret void
}

; Function Attrs: noinline nounwind uwtable
define linkonce_odr dereferenceable(1) %"struct.std::less.11"* @_ZSt4moveIRSt4lessI4EdgeEEONSt16remove_referenceIT_E4typeEOS5_(%"struct.std::less.11"* dereferenceable(1) %0) #4 comdat {
  ret %"struct.std::less.11"* %0
}

; Function Attrs: noinline nounwind uwtable
define linkonce_odr void @_ZN9__gnu_cxx5__ops14_Iter_comp_valISt4lessI4EdgeEEC2ES4_(%"struct.__gnu_cxx::__ops::_Iter_comp_val.17"* %0) unnamed_addr #4 comdat align 2 {
  %2 = alloca %"struct.std::less.11", align 1
  %3 = getelementptr inbounds %"struct.__gnu_cxx::__ops::_Iter_comp_val.17", %"struct.__gnu_cxx::__ops::_Iter_comp_val.17"* %0, i32 0, i32 0
  %4 = call dereferenceable(1) %"struct.std::less.11"* @_ZSt4moveIRSt4lessI4EdgeEEONSt16remove_referenceIT_E4typeEOS5_(%"struct.std::less.11"* dereferenceable(1) %2) #3
  ret void
}

; Function Attrs: noinline nounwind uwtable
define linkonce_odr %struct.Edge* @_ZNK9__gnu_cxx17__normal_iteratorIP4EdgeSt6vectorIS1_SaIS1_EEEmiEl(%"class.__gnu_cxx::__normal_iterator.15"* %0, i64 %1) #4 comdat align 2 {
  %3 = alloca %"class.__gnu_cxx::__normal_iterator.15", align 8
  %4 = alloca %struct.Edge*, align 8
  %5 = getelementptr inbounds %"class.__gnu_cxx::__normal_iterator.15", %"class.__gnu_cxx::__normal_iterator.15"* %0, i32 0, i32 0
  %6 = load %struct.Edge*, %struct.Edge** %5, align 8
  %7 = sub i64 0, %1
  %8 = getelementptr inbounds %struct.Edge, %struct.Edge* %6, i64 %7
  store %struct.Edge* %8, %struct.Edge** %4, align 8
  call void @_ZN9__gnu_cxx17__normal_iteratorIP4EdgeSt6vectorIS1_SaIS1_EEEC2ERKS2_(%"class.__gnu_cxx::__normal_iterator.15"* %3, %struct.Edge** dereferenceable(8) %4) #3
  %9 = getelementptr inbounds %"class.__gnu_cxx::__normal_iterator.15", %"class.__gnu_cxx::__normal_iterator.15"* %3, i32 0, i32 0
  %10 = load %struct.Edge*, %struct.Edge** %9, align 8
  ret %struct.Edge* %10
}

; Function Attrs: noinline nounwind uwtable
define linkonce_odr dereferenceable(12) %struct.Edge* @_ZNK9__gnu_cxx17__normal_iteratorIP4EdgeSt6vectorIS1_SaIS1_EEEdeEv(%"class.__gnu_cxx::__normal_iterator.15"* %0) #4 comdat align 2 {
  %2 = getelementptr inbounds %"class.__gnu_cxx::__normal_iterator.15", %"class.__gnu_cxx::__normal_iterator.15"* %0, i32 0, i32 0
  %3 = load %struct.Edge*, %struct.Edge** %2, align 8
  ret %struct.Edge* %3
}

; Function Attrs: noinline uwtable
define linkonce_odr void @_ZSt11__push_heapIN9__gnu_cxx17__normal_iteratorIP4EdgeSt6vectorIS2_SaIS2_EEEElS2_NS0_5__ops14_Iter_comp_valISt4lessIS2_EEEEvT_T0_SE_T1_RT2_(%struct.Edge* %0, i64 %1, i64 %2, i64 %3, i32 %4, %"struct.__gnu_cxx::__ops::_Iter_comp_val.17"* dereferenceable(1) %5) #0 comdat {
  %7 = alloca %"class.__gnu_cxx::__normal_iterator.15", align 8
  %8 = alloca %struct.Edge, align 4
  %9 = alloca { i64, i32 }, align 4
  %10 = alloca %"class.__gnu_cxx::__normal_iterator.15", align 8
  %11 = alloca %"class.__gnu_cxx::__normal_iterator.15", align 8
  %12 = alloca %"class.__gnu_cxx::__normal_iterator.15", align 8
  %13 = alloca %"class.__gnu_cxx::__normal_iterator.15", align 8
  %14 = getelementptr inbounds %"class.__gnu_cxx::__normal_iterator.15", %"class.__gnu_cxx::__normal_iterator.15"* %7, i32 0, i32 0
  store %struct.Edge* %0, %struct.Edge** %14, align 8
  %15 = getelementptr inbounds { i64, i32 }, { i64, i32 }* %9, i32 0, i32 0
  store i64 %3, i64* %15, align 4
  %16 = getelementptr inbounds { i64, i32 }, { i64, i32 }* %9, i32 0, i32 1
  store i32 %4, i32* %16, align 4
  %17 = bitcast %struct.Edge* %8 to i8*
  %18 = bitcast { i64, i32 }* %9 to i8*
  call void @llvm.memcpy.p0i8.p0i8.i64(i8* align 4 %17, i8* align 4 %18, i64 12, i1 false)
  %19 = sub nsw i64 %1, 1
  %20 = sdiv i64 %19, 2
  br label %21

21:                                               ; preds = %31, %6
  %.01 = phi i64 [ %20, %6 ], [ %42, %31 ]
  %.0 = phi i64 [ %1, %6 ], [ %.01, %31 ]
  %22 = icmp sgt i64 %.0, %2
  br i1 %22, label %23, label %29

23:                                               ; preds = %21
  %24 = call %struct.Edge* @_ZNK9__gnu_cxx17__normal_iteratorIP4EdgeSt6vectorIS1_SaIS1_EEEplEl(%"class.__gnu_cxx::__normal_iterator.15"* %7, i64 %.01) #3
  %25 = getelementptr inbounds %"class.__gnu_cxx::__normal_iterator.15", %"class.__gnu_cxx::__normal_iterator.15"* %10, i32 0, i32 0
  store %struct.Edge* %24, %struct.Edge** %25, align 8
  %26 = getelementptr inbounds %"class.__gnu_cxx::__normal_iterator.15", %"class.__gnu_cxx::__normal_iterator.15"* %10, i32 0, i32 0
  %27 = load %struct.Edge*, %struct.Edge** %26, align 8
  %28 = call zeroext i1 @_ZN9__gnu_cxx5__ops14_Iter_comp_valISt4lessI4EdgeEEclINS_17__normal_iteratorIPS3_St6vectorIS3_SaIS3_EEEES3_EEbT_RT0_(%"struct.__gnu_cxx::__ops::_Iter_comp_val.17"* %5, %struct.Edge* %27, %struct.Edge* dereferenceable(12) %8)
  br label %29

29:                                               ; preds = %23, %21
  %30 = phi i1 [ false, %21 ], [ %28, %23 ]
  br i1 %30, label %31, label %43

31:                                               ; preds = %29
  %32 = call %struct.Edge* @_ZNK9__gnu_cxx17__normal_iteratorIP4EdgeSt6vectorIS1_SaIS1_EEEplEl(%"class.__gnu_cxx::__normal_iterator.15"* %7, i64 %.01) #3
  %33 = getelementptr inbounds %"class.__gnu_cxx::__normal_iterator.15", %"class.__gnu_cxx::__normal_iterator.15"* %11, i32 0, i32 0
  store %struct.Edge* %32, %struct.Edge** %33, align 8
  %34 = call dereferenceable(12) %struct.Edge* @_ZNK9__gnu_cxx17__normal_iteratorIP4EdgeSt6vectorIS1_SaIS1_EEEdeEv(%"class.__gnu_cxx::__normal_iterator.15"* %11) #3
  %35 = call dereferenceable(12) %struct.Edge* @_ZSt4moveIR4EdgeEONSt16remove_referenceIT_E4typeEOS3_(%struct.Edge* dereferenceable(12) %34) #3
  %36 = call %struct.Edge* @_ZNK9__gnu_cxx17__normal_iteratorIP4EdgeSt6vectorIS1_SaIS1_EEEplEl(%"class.__gnu_cxx::__normal_iterator.15"* %7, i64 %.0) #3
  %37 = getelementptr inbounds %"class.__gnu_cxx::__normal_iterator.15", %"class.__gnu_cxx::__normal_iterator.15"* %12, i32 0, i32 0
  store %struct.Edge* %36, %struct.Edge** %37, align 8
  %38 = call dereferenceable(12) %struct.Edge* @_ZNK9__gnu_cxx17__normal_iteratorIP4EdgeSt6vectorIS1_SaIS1_EEEdeEv(%"class.__gnu_cxx::__normal_iterator.15"* %12) #3
  %39 = bitcast %struct.Edge* %38 to i8*
  %40 = bitcast %struct.Edge* %35 to i8*
  call void @llvm.memcpy.p0i8.p0i8.i64(i8* align 4 %39, i8* align 4 %40, i64 12, i1 false)
  %41 = sub nsw i64 %.01, 1
  %42 = sdiv i64 %41, 2
  br label %21

43:                                               ; preds = %29
  %44 = call dereferenceable(12) %struct.Edge* @_ZSt4moveIR4EdgeEONSt16remove_referenceIT_E4typeEOS3_(%struct.Edge* dereferenceable(12) %8) #3
  %45 = call %struct.Edge* @_ZNK9__gnu_cxx17__normal_iteratorIP4EdgeSt6vectorIS1_SaIS1_EEEplEl(%"class.__gnu_cxx::__normal_iterator.15"* %7, i64 %.0) #3
  %46 = getelementptr inbounds %"class.__gnu_cxx::__normal_iterator.15", %"class.__gnu_cxx::__normal_iterator.15"* %13, i32 0, i32 0
  store %struct.Edge* %45, %struct.Edge** %46, align 8
  %47 = call dereferenceable(12) %struct.Edge* @_ZNK9__gnu_cxx17__normal_iteratorIP4EdgeSt6vectorIS1_SaIS1_EEEdeEv(%"class.__gnu_cxx::__normal_iterator.15"* %13) #3
  %48 = bitcast %struct.Edge* %47 to i8*
  %49 = bitcast %struct.Edge* %44 to i8*
  call void @llvm.memcpy.p0i8.p0i8.i64(i8* align 4 %48, i8* align 4 %49, i64 12, i1 false)
  ret void
}

; Function Attrs: noinline nounwind uwtable
define linkonce_odr void @_ZN9__gnu_cxx17__normal_iteratorIP4EdgeSt6vectorIS1_SaIS1_EEEC2ERKS2_(%"class.__gnu_cxx::__normal_iterator.15"* %0, %struct.Edge** dereferenceable(8) %1) unnamed_addr #4 comdat align 2 {
  %3 = getelementptr inbounds %"class.__gnu_cxx::__normal_iterator.15", %"class.__gnu_cxx::__normal_iterator.15"* %0, i32 0, i32 0
  %4 = load %struct.Edge*, %struct.Edge** %1, align 8
  store %struct.Edge* %4, %struct.Edge** %3, align 8
  ret void
}

; Function Attrs: noinline uwtable
define linkonce_odr zeroext i1 @_ZN9__gnu_cxx5__ops14_Iter_comp_valISt4lessI4EdgeEEclINS_17__normal_iteratorIPS3_St6vectorIS3_SaIS3_EEEES3_EEbT_RT0_(%"struct.__gnu_cxx::__ops::_Iter_comp_val.17"* %0, %struct.Edge* %1, %struct.Edge* dereferenceable(12) %2) #0 comdat align 2 {
  %4 = alloca %"class.__gnu_cxx::__normal_iterator.15", align 8
  %5 = getelementptr inbounds %"class.__gnu_cxx::__normal_iterator.15", %"class.__gnu_cxx::__normal_iterator.15"* %4, i32 0, i32 0
  store %struct.Edge* %1, %struct.Edge** %5, align 8
  %6 = getelementptr inbounds %"struct.__gnu_cxx::__ops::_Iter_comp_val.17", %"struct.__gnu_cxx::__ops::_Iter_comp_val.17"* %0, i32 0, i32 0
  %7 = call dereferenceable(12) %struct.Edge* @_ZNK9__gnu_cxx17__normal_iteratorIP4EdgeSt6vectorIS1_SaIS1_EEEdeEv(%"class.__gnu_cxx::__normal_iterator.15"* %4) #3
  %8 = call zeroext i1 @_ZNKSt4lessI4EdgeEclERKS0_S3_(%"struct.std::less.11"* %6, %struct.Edge* dereferenceable(12) %7, %struct.Edge* dereferenceable(12) %2)
  ret i1 %8
}

; Function Attrs: noinline nounwind uwtable
define linkonce_odr %struct.Edge* @_ZNK9__gnu_cxx17__normal_iteratorIP4EdgeSt6vectorIS1_SaIS1_EEEplEl(%"class.__gnu_cxx::__normal_iterator.15"* %0, i64 %1) #4 comdat align 2 {
  %3 = alloca %"class.__gnu_cxx::__normal_iterator.15", align 8
  %4 = alloca %struct.Edge*, align 8
  %5 = getelementptr inbounds %"class.__gnu_cxx::__normal_iterator.15", %"class.__gnu_cxx::__normal_iterator.15"* %0, i32 0, i32 0
  %6 = load %struct.Edge*, %struct.Edge** %5, align 8
  %7 = getelementptr inbounds %struct.Edge, %struct.Edge* %6, i64 %1
  store %struct.Edge* %7, %struct.Edge** %4, align 8
  call void @_ZN9__gnu_cxx17__normal_iteratorIP4EdgeSt6vectorIS1_SaIS1_EEEC2ERKS2_(%"class.__gnu_cxx::__normal_iterator.15"* %3, %struct.Edge** dereferenceable(8) %4) #3
  %8 = getelementptr inbounds %"class.__gnu_cxx::__normal_iterator.15", %"class.__gnu_cxx::__normal_iterator.15"* %3, i32 0, i32 0
  %9 = load %struct.Edge*, %struct.Edge** %8, align 8
  ret %struct.Edge* %9
}

; Function Attrs: noinline uwtable
define linkonce_odr zeroext i1 @_ZNKSt4lessI4EdgeEclERKS0_S3_(%"struct.std::less.11"* %0, %struct.Edge* dereferenceable(12) %1, %struct.Edge* dereferenceable(12) %2) #0 comdat align 2 {
  %4 = call zeroext i1 @_ZNK4EdgeltERKS_(%struct.Edge* %1, %struct.Edge* dereferenceable(12) %2)
  ret i1 %4
}

; Function Attrs: noinline nounwind uwtable
define linkonce_odr zeroext i1 @_ZNK4EdgeltERKS_(%struct.Edge* %0, %struct.Edge* dereferenceable(12) %1) #4 comdat align 2 {
  %3 = getelementptr inbounds %struct.Edge, %struct.Edge* %0, i32 0, i32 2
  %4 = load i32, i32* %3, align 4
  %5 = getelementptr inbounds %struct.Edge, %struct.Edge* %1, i32 0, i32 2
  %6 = load i32, i32* %5, align 4
  %7 = icmp slt i32 %4, %6
  ret i1 %7
}

; Function Attrs: noinline uwtable
define linkonce_odr void @_ZNSt6vectorI4DataSaIS0_EE12emplace_backIJS0_EEEvDpOT_(%"class.std::vector"* %0, %struct.Data* dereferenceable(8) %1) #0 comdat align 2 {
  %3 = alloca %"class.__gnu_cxx::__normal_iterator.18", align 8
  %4 = bitcast %"class.std::vector"* %0 to %"struct.std::_Vector_base"*
  %5 = getelementptr inbounds %"struct.std::_Vector_base", %"struct.std::_Vector_base"* %4, i32 0, i32 0
  %6 = getelementptr inbounds %"struct.std::_Vector_base<Data, std::allocator<Data> >::_Vector_impl", %"struct.std::_Vector_base<Data, std::allocator<Data> >::_Vector_impl"* %5, i32 0, i32 1
  %7 = load %struct.Data*, %struct.Data** %6, align 8
  %8 = bitcast %"class.std::vector"* %0 to %"struct.std::_Vector_base"*
  %9 = getelementptr inbounds %"struct.std::_Vector_base", %"struct.std::_Vector_base"* %8, i32 0, i32 0
  %10 = getelementptr inbounds %"struct.std::_Vector_base<Data, std::allocator<Data> >::_Vector_impl", %"struct.std::_Vector_base<Data, std::allocator<Data> >::_Vector_impl"* %9, i32 0, i32 2
  %11 = load %struct.Data*, %struct.Data** %10, align 8
  %12 = icmp ne %struct.Data* %7, %11
  br i1 %12, label %13, label %27

13:                                               ; preds = %2
  %14 = bitcast %"class.std::vector"* %0 to %"struct.std::_Vector_base"*
  %15 = getelementptr inbounds %"struct.std::_Vector_base", %"struct.std::_Vector_base"* %14, i32 0, i32 0
  %16 = bitcast %"struct.std::_Vector_base<Data, std::allocator<Data> >::_Vector_impl"* %15 to %"class.std::allocator"*
  %17 = bitcast %"class.std::vector"* %0 to %"struct.std::_Vector_base"*
  %18 = getelementptr inbounds %"struct.std::_Vector_base", %"struct.std::_Vector_base"* %17, i32 0, i32 0
  %19 = getelementptr inbounds %"struct.std::_Vector_base<Data, std::allocator<Data> >::_Vector_impl", %"struct.std::_Vector_base<Data, std::allocator<Data> >::_Vector_impl"* %18, i32 0, i32 1
  %20 = load %struct.Data*, %struct.Data** %19, align 8
  %21 = call dereferenceable(8) %struct.Data* @_ZSt7forwardI4DataEOT_RNSt16remove_referenceIS1_E4typeE(%struct.Data* dereferenceable(8) %1) #3
  call void @_ZNSt16allocator_traitsISaI4DataEE9constructIS0_JS0_EEEvRS1_PT_DpOT0_(%"class.std::allocator"* dereferenceable(1) %16, %struct.Data* %20, %struct.Data* dereferenceable(8) %21)
  %22 = bitcast %"class.std::vector"* %0 to %"struct.std::_Vector_base"*
  %23 = getelementptr inbounds %"struct.std::_Vector_base", %"struct.std::_Vector_base"* %22, i32 0, i32 0
  %24 = getelementptr inbounds %"struct.std::_Vector_base<Data, std::allocator<Data> >::_Vector_impl", %"struct.std::_Vector_base<Data, std::allocator<Data> >::_Vector_impl"* %23, i32 0, i32 1
  %25 = load %struct.Data*, %struct.Data** %24, align 8
  %26 = getelementptr inbounds %struct.Data, %struct.Data* %25, i32 1
  store %struct.Data* %26, %struct.Data** %24, align 8
  br label %33

27:                                               ; preds = %2
  %28 = call %struct.Data* @_ZNSt6vectorI4DataSaIS0_EE3endEv(%"class.std::vector"* %0) #3
  %29 = getelementptr inbounds %"class.__gnu_cxx::__normal_iterator.18", %"class.__gnu_cxx::__normal_iterator.18"* %3, i32 0, i32 0
  store %struct.Data* %28, %struct.Data** %29, align 8
  %30 = call dereferenceable(8) %struct.Data* @_ZSt7forwardI4DataEOT_RNSt16remove_referenceIS1_E4typeE(%struct.Data* dereferenceable(8) %1) #3
  %31 = getelementptr inbounds %"class.__gnu_cxx::__normal_iterator.18", %"class.__gnu_cxx::__normal_iterator.18"* %3, i32 0, i32 0
  %32 = load %struct.Data*, %struct.Data** %31, align 8
  call void @_ZNSt6vectorI4DataSaIS0_EE17_M_realloc_insertIJS0_EEEvN9__gnu_cxx17__normal_iteratorIPS0_S2_EEDpOT_(%"class.std::vector"* %0, %struct.Data* %32, %struct.Data* dereferenceable(8) %30)
  br label %33

33:                                               ; preds = %27, %13
  ret void
}

; Function Attrs: noinline nounwind uwtable
define linkonce_odr dereferenceable(8) %struct.Data* @_ZSt4moveIR4DataEONSt16remove_referenceIT_E4typeEOS3_(%struct.Data* dereferenceable(8) %0) #4 comdat {
  ret %struct.Data* %0
}

; Function Attrs: noinline uwtable
define linkonce_odr void @_ZNSt16allocator_traitsISaI4DataEE9constructIS0_JS0_EEEvRS1_PT_DpOT0_(%"class.std::allocator"* dereferenceable(1) %0, %struct.Data* %1, %struct.Data* dereferenceable(8) %2) #0 comdat align 2 {
  %4 = bitcast %"class.std::allocator"* %0 to %"class.__gnu_cxx::new_allocator"*
  %5 = call dereferenceable(8) %struct.Data* @_ZSt7forwardI4DataEOT_RNSt16remove_referenceIS1_E4typeE(%struct.Data* dereferenceable(8) %2) #3
  call void @_ZN9__gnu_cxx13new_allocatorI4DataE9constructIS1_JS1_EEEvPT_DpOT0_(%"class.__gnu_cxx::new_allocator"* %4, %struct.Data* %1, %struct.Data* dereferenceable(8) %5)
  ret void
}

; Function Attrs: noinline nounwind uwtable
define linkonce_odr dereferenceable(8) %struct.Data* @_ZSt7forwardI4DataEOT_RNSt16remove_referenceIS1_E4typeE(%struct.Data* dereferenceable(8) %0) #4 comdat {
  ret %struct.Data* %0
}

; Function Attrs: noinline uwtable
define linkonce_odr void @_ZNSt6vectorI4DataSaIS0_EE17_M_realloc_insertIJS0_EEEvN9__gnu_cxx17__normal_iteratorIPS0_S2_EEDpOT_(%"class.std::vector"* %0, %struct.Data* %1, %struct.Data* dereferenceable(8) %2) #0 comdat align 2 personality i8* bitcast (i32 (...)* @__gxx_personality_v0 to i8*) {
  %4 = alloca %"class.__gnu_cxx::__normal_iterator.18", align 8
  %5 = alloca %"class.__gnu_cxx::__normal_iterator.18", align 8
  %6 = getelementptr inbounds %"class.__gnu_cxx::__normal_iterator.18", %"class.__gnu_cxx::__normal_iterator.18"* %4, i32 0, i32 0
  store %struct.Data* %1, %struct.Data** %6, align 8
  %7 = call i64 @_ZNKSt6vectorI4DataSaIS0_EE12_M_check_lenEmPKc(%"class.std::vector"* %0, i64 1, i8* getelementptr inbounds ([26 x i8], [26 x i8]* @.str.3, i32 0, i32 0))
  %8 = bitcast %"class.std::vector"* %0 to %"struct.std::_Vector_base"*
  %9 = getelementptr inbounds %"struct.std::_Vector_base", %"struct.std::_Vector_base"* %8, i32 0, i32 0
  %10 = getelementptr inbounds %"struct.std::_Vector_base<Data, std::allocator<Data> >::_Vector_impl", %"struct.std::_Vector_base<Data, std::allocator<Data> >::_Vector_impl"* %9, i32 0, i32 0
  %11 = load %struct.Data*, %struct.Data** %10, align 8
  %12 = bitcast %"class.std::vector"* %0 to %"struct.std::_Vector_base"*
  %13 = getelementptr inbounds %"struct.std::_Vector_base", %"struct.std::_Vector_base"* %12, i32 0, i32 0
  %14 = getelementptr inbounds %"struct.std::_Vector_base<Data, std::allocator<Data> >::_Vector_impl", %"struct.std::_Vector_base<Data, std::allocator<Data> >::_Vector_impl"* %13, i32 0, i32 1
  %15 = load %struct.Data*, %struct.Data** %14, align 8
  %16 = call %struct.Data* @_ZNSt6vectorI4DataSaIS0_EE5beginEv(%"class.std::vector"* %0) #3
  %17 = getelementptr inbounds %"class.__gnu_cxx::__normal_iterator.18", %"class.__gnu_cxx::__normal_iterator.18"* %5, i32 0, i32 0
  store %struct.Data* %16, %struct.Data** %17, align 8
  %18 = call i64 @_ZN9__gnu_cxxmiIP4DataSt6vectorIS1_SaIS1_EEEENS_17__normal_iteratorIT_T0_E15difference_typeERKS9_SC_(%"class.__gnu_cxx::__normal_iterator.18"* dereferenceable(8) %4, %"class.__gnu_cxx::__normal_iterator.18"* dereferenceable(8) %5) #3
  %19 = bitcast %"class.std::vector"* %0 to %"struct.std::_Vector_base"*
  %20 = call %struct.Data* @_ZNSt12_Vector_baseI4DataSaIS0_EE11_M_allocateEm(%"struct.std::_Vector_base"* %19, i64 %7)
  %21 = bitcast %"class.std::vector"* %0 to %"struct.std::_Vector_base"*
  %22 = getelementptr inbounds %"struct.std::_Vector_base", %"struct.std::_Vector_base"* %21, i32 0, i32 0
  %23 = bitcast %"struct.std::_Vector_base<Data, std::allocator<Data> >::_Vector_impl"* %22 to %"class.std::allocator"*
  %24 = getelementptr inbounds %struct.Data, %struct.Data* %20, i64 %18
  %25 = call dereferenceable(8) %struct.Data* @_ZSt7forwardI4DataEOT_RNSt16remove_referenceIS1_E4typeE(%struct.Data* dereferenceable(8) %2) #3
  invoke void @_ZNSt16allocator_traitsISaI4DataEE9constructIS0_JS0_EEEvRS1_PT_DpOT0_(%"class.std::allocator"* dereferenceable(1) %23, %struct.Data* %24, %struct.Data* dereferenceable(8) %25)
          to label %26 unwind label %40

26:                                               ; preds = %3
  %27 = call dereferenceable(8) %struct.Data** @_ZNK9__gnu_cxx17__normal_iteratorIP4DataSt6vectorIS1_SaIS1_EEE4baseEv(%"class.__gnu_cxx::__normal_iterator.18"* %4) #3
  %28 = load %struct.Data*, %struct.Data** %27, align 8
  %29 = bitcast %"class.std::vector"* %0 to %"struct.std::_Vector_base"*
  %30 = call dereferenceable(1) %"class.std::allocator"* @_ZNSt12_Vector_baseI4DataSaIS0_EE19_M_get_Tp_allocatorEv(%"struct.std::_Vector_base"* %29) #3
  %31 = invoke %struct.Data* @_ZSt34__uninitialized_move_if_noexcept_aIP4DataS1_SaIS0_EET0_T_S4_S3_RT1_(%struct.Data* %11, %struct.Data* %28, %struct.Data* %20, %"class.std::allocator"* dereferenceable(1) %30)
          to label %32 unwind label %40

32:                                               ; preds = %26
  %33 = getelementptr inbounds %struct.Data, %struct.Data* %31, i32 1
  %34 = call dereferenceable(8) %struct.Data** @_ZNK9__gnu_cxx17__normal_iteratorIP4DataSt6vectorIS1_SaIS1_EEE4baseEv(%"class.__gnu_cxx::__normal_iterator.18"* %4) #3
  %35 = load %struct.Data*, %struct.Data** %34, align 8
  %36 = bitcast %"class.std::vector"* %0 to %"struct.std::_Vector_base"*
  %37 = call dereferenceable(1) %"class.std::allocator"* @_ZNSt12_Vector_baseI4DataSaIS0_EE19_M_get_Tp_allocatorEv(%"struct.std::_Vector_base"* %36) #3
  %38 = invoke %struct.Data* @_ZSt34__uninitialized_move_if_noexcept_aIP4DataS1_SaIS0_EET0_T_S4_S3_RT1_(%struct.Data* %35, %struct.Data* %15, %struct.Data* %33, %"class.std::allocator"* dereferenceable(1) %37)
          to label %39 unwind label %40

39:                                               ; preds = %32
  br label %65

40:                                               ; preds = %32, %26, %3
  %.0 = phi %struct.Data* [ %33, %32 ], [ null, %26 ], [ %20, %3 ]
  %41 = landingpad { i8*, i32 }
          catch i8* null
  %42 = extractvalue { i8*, i32 } %41, 0
  %43 = extractvalue { i8*, i32 } %41, 1
  br label %44

44:                                               ; preds = %40
  %45 = call i8* @__cxa_begin_catch(i8* %42) #3
  %46 = icmp ne %struct.Data* %.0, null
  br i1 %46, label %57, label %47

47:                                               ; preds = %44
  %48 = bitcast %"class.std::vector"* %0 to %"struct.std::_Vector_base"*
  %49 = getelementptr inbounds %"struct.std::_Vector_base", %"struct.std::_Vector_base"* %48, i32 0, i32 0
  %50 = bitcast %"struct.std::_Vector_base<Data, std::allocator<Data> >::_Vector_impl"* %49 to %"class.std::allocator"*
  %51 = getelementptr inbounds %struct.Data, %struct.Data* %20, i64 %18
  invoke void @_ZNSt16allocator_traitsISaI4DataEE7destroyIS0_EEvRS1_PT_(%"class.std::allocator"* dereferenceable(1) %50, %struct.Data* %51)
          to label %52 unwind label %53

52:                                               ; preds = %47
  br label %61

53:                                               ; preds = %63, %61, %57, %47
  %54 = landingpad { i8*, i32 }
          cleanup
  %55 = extractvalue { i8*, i32 } %54, 0
  %56 = extractvalue { i8*, i32 } %54, 1
  invoke void @__cxa_end_catch()
          to label %64 unwind label %90

57:                                               ; preds = %44
  %58 = bitcast %"class.std::vector"* %0 to %"struct.std::_Vector_base"*
  %59 = call dereferenceable(1) %"class.std::allocator"* @_ZNSt12_Vector_baseI4DataSaIS0_EE19_M_get_Tp_allocatorEv(%"struct.std::_Vector_base"* %58) #3
  invoke void @_ZSt8_DestroyIP4DataS0_EvT_S2_RSaIT0_E(%struct.Data* %20, %struct.Data* %.0, %"class.std::allocator"* dereferenceable(1) %59)
          to label %60 unwind label %53

60:                                               ; preds = %57
  br label %61

