; ModuleID = '/home/pedro/tcc/exDataset/codenet/data/selection/p02142/s426525857.ll'
source_filename = "/home/pedro/tcc/exDataset/codenet/data/selection/p02142/s426525857.cpp"
target datalayout = "e-m:e-i64:64-f80:128-n8:16:32:64-S128"
target triple = "x86_64-pc-linux-gnu"

%"class.std::ios_base::Init" = type { i8 }
%"class.std::vector" = type { %"struct.std::_Vector_base" }
%"struct.std::_Vector_base" = type { %"struct.std::_Vector_base<edge, std::allocator<edge> >::_Vector_impl" }
%"struct.std::_Vector_base<edge, std::allocator<edge> >::_Vector_impl" = type { %struct.edge*, %struct.edge*, %struct.edge* }
%struct.edge = type { i64, i64, i64 }
%"class.std::basic_istream" = type { i32 (...)**, i64, %"class.std::basic_ios" }
%"class.std::basic_ios" = type { %"class.std::ios_base", %"class.std::basic_ostream"*, i8, i8, %"class.std::basic_streambuf"*, %"class.std::ctype"*, %"class.std::num_put"*, %"class.std::num_get"* }
%"class.std::ios_base" = type { i32 (...)**, i64, i64, i32, i32, i32, %"struct.std::ios_base::_Callback_list"*, %"struct.std::ios_base::_Words", [8 x %"struct.std::ios_base::_Words"], i32, %"struct.std::ios_base::_Words"*, %"class.std::locale" }
%"struct.std::ios_base::_Callback_list" = type { %"struct.std::ios_base::_Callback_list"*, void (i32, %"class.std::ios_base"*, i32)*, i32, i32 }
%"struct.std::ios_base::_Words" = type { i8*, i64 }
%"class.std::locale" = type { %"class.std::locale::_Impl"* }
%"class.std::locale::_Impl" = type { i32, %"class.std::locale::facet"**, i64, %"class.std::locale::facet"**, i8** }
%"class.std::locale::facet" = type <{ i32 (...)**, i32, [4 x i8] }>
%"class.std::basic_ostream" = type { i32 (...)**, %"class.std::basic_ios" }
%"class.std::basic_streambuf" = type { i32 (...)**, i8*, i8*, i8*, i8*, i8*, i8*, %"class.std::locale" }
%"class.std::ctype" = type <{ %"class.std::locale::facet.base", [4 x i8], %struct.__locale_struct*, i8, [7 x i8], i32*, i32*, i16*, i8, [256 x i8], [256 x i8], i8, [6 x i8] }>
%"class.std::locale::facet.base" = type <{ i32 (...)**, i32 }>
%struct.__locale_struct = type { [13 x %struct.__locale_data*], i16*, i32*, i32*, [13 x i8*] }
%struct.__locale_data = type opaque
%"class.std::num_put" = type { %"class.std::locale::facet.base", [4 x i8] }
%"class.std::num_get" = type { %"class.std::locale::facet.base", [4 x i8] }
%struct.state = type { i64, i64 }
%"class.std::allocator" = type { i8 }
%"class.std::priority_queue" = type <{ %"class.std::vector.0", %"struct.std::less", [7 x i8] }>
%"class.std::vector.0" = type { %"struct.std::_Vector_base.1" }
%"struct.std::_Vector_base.1" = type { %"struct.std::_Vector_base<state, std::allocator<state> >::_Vector_impl" }
%"struct.std::_Vector_base<state, std::allocator<state> >::_Vector_impl" = type { %struct.state*, %struct.state*, %struct.state* }
%"struct.std::less" = type { i8 }
%"class.__gnu_cxx::__normal_iterator" = type { %struct.edge* }
%"class.__gnu_cxx::__normal_iterator.5" = type { %struct.state* }
%"class.std::allocator.2" = type { i8 }
%"class.__gnu_cxx::new_allocator.3" = type { i8 }
%"class.__gnu_cxx::new_allocator" = type { i8 }
%"class.std::move_iterator" = type { %struct.edge* }
%"struct.__gnu_cxx::__ops::_Iter_comp_val" = type { %"struct.std::less" }
%"class.std::move_iterator.6" = type { %struct.state* }
%"class.__gnu_cxx::__normal_iterator.7" = type { %struct.state* }
%"struct.__gnu_cxx::__ops::_Iter_comp_iter" = type { %"struct.std::less" }

$_ZNSt6vectorI4edgeSaIS0_EEC2Ev = comdat any

$_ZNSt6vectorI4edgeSaIS0_EED2Ev = comdat any

$_ZNSt6vectorI4edgeSaIS0_EE9push_backEOS0_ = comdat any

$_ZNSt14priority_queueI5stateSt6vectorIS0_SaIS0_EESt4lessIS0_EEC2IS3_vEEv = comdat any

$_ZNSt14priority_queueI5stateSt6vectorIS0_SaIS0_EESt4lessIS0_EE4pushEOS0_ = comdat any

$_ZNKSt14priority_queueI5stateSt6vectorIS0_SaIS0_EESt4lessIS0_EE4sizeEv = comdat any

$_ZNKSt14priority_queueI5stateSt6vectorIS0_SaIS0_EESt4lessIS0_EE3topEv = comdat any

$_ZNSt14priority_queueI5stateSt6vectorIS0_SaIS0_EESt4lessIS0_EE3popEv = comdat any

$_ZNSt6vectorI4edgeSaIS0_EE5beginEv = comdat any

$_ZNSt6vectorI4edgeSaIS0_EE3endEv = comdat any

$_ZN9__gnu_cxxneIP4edgeSt6vectorIS1_SaIS1_EEEEbRKNS_17__normal_iteratorIT_T0_EESB_ = comdat any

$_ZNK9__gnu_cxx17__normal_iteratorIP4edgeSt6vectorIS1_SaIS1_EEEdeEv = comdat any

$_ZSt3maxIxERKT_S2_S2_ = comdat any

$_ZN9__gnu_cxx17__normal_iteratorIP4edgeSt6vectorIS1_SaIS1_EEEppEv = comdat any

$_ZNSt14priority_queueI5stateSt6vectorIS0_SaIS0_EESt4lessIS0_EED2Ev = comdat any

$_ZNSt6vectorI5stateSaIS0_EED2Ev = comdat any

$_ZSt8_DestroyIP5stateS0_EvT_S2_RSaIT0_E = comdat any

$_ZNSt12_Vector_baseI5stateSaIS0_EE19_M_get_Tp_allocatorEv = comdat any

$_ZNSt12_Vector_baseI5stateSaIS0_EED2Ev = comdat any

$__clang_call_terminate = comdat any

$_ZSt8_DestroyIP5stateEvT_S2_ = comdat any

$_ZNSt12_Destroy_auxILb1EE9__destroyIP5stateEEvT_S4_ = comdat any

$_ZNSt12_Vector_baseI5stateSaIS0_EE13_M_deallocateEPS0_m = comdat any

$_ZNSt12_Vector_baseI5stateSaIS0_EE12_Vector_implD2Ev = comdat any

$_ZNSt16allocator_traitsISaI5stateEE10deallocateERS1_PS0_m = comdat any

$_ZN9__gnu_cxx13new_allocatorI5stateE10deallocateEPS1_m = comdat any

$_ZNSaI5stateED2Ev = comdat any

$_ZN9__gnu_cxx13new_allocatorI5stateED2Ev = comdat any

$_ZNSt12_Vector_baseI4edgeSaIS0_EEC2Ev = comdat any

$_ZNSt12_Vector_baseI4edgeSaIS0_EE12_Vector_implC2Ev = comdat any

$_ZNSaI4edgeEC2Ev = comdat any

$_ZN9__gnu_cxx13new_allocatorI4edgeEC2Ev = comdat any

$_ZSt8_DestroyIP4edgeS0_EvT_S2_RSaIT0_E = comdat any

$_ZNSt12_Vector_baseI4edgeSaIS0_EE19_M_get_Tp_allocatorEv = comdat any

$_ZNSt12_Vector_baseI4edgeSaIS0_EED2Ev = comdat any

$_ZSt8_DestroyIP4edgeEvT_S2_ = comdat any

$_ZNSt12_Destroy_auxILb1EE9__destroyIP4edgeEEvT_S4_ = comdat any

$_ZNSt12_Vector_baseI4edgeSaIS0_EE13_M_deallocateEPS0_m = comdat any

$_ZNSt12_Vector_baseI4edgeSaIS0_EE12_Vector_implD2Ev = comdat any

$_ZNSt16allocator_traitsISaI4edgeEE10deallocateERS1_PS0_m = comdat any

$_ZN9__gnu_cxx13new_allocatorI4edgeE10deallocateEPS1_m = comdat any

$_ZNSaI4edgeED2Ev = comdat any

$_ZN9__gnu_cxx13new_allocatorI4edgeED2Ev = comdat any

$_ZNSt6vectorI4edgeSaIS0_EE12emplace_backIJS0_EEEvDpOT_ = comdat any

$_ZSt4moveIR4edgeEONSt16remove_referenceIT_E4typeEOS3_ = comdat any

$_ZNSt16allocator_traitsISaI4edgeEE9constructIS0_JS0_EEEvRS1_PT_DpOT0_ = comdat any

$_ZSt7forwardI4edgeEOT_RNSt16remove_referenceIS1_E4typeE = comdat any

$_ZNSt6vectorI4edgeSaIS0_EE17_M_realloc_insertIJS0_EEEvN9__gnu_cxx17__normal_iteratorIPS0_S2_EEDpOT_ = comdat any

$_ZN9__gnu_cxx13new_allocatorI4edgeE9constructIS1_JS1_EEEvPT_DpOT0_ = comdat any

$_ZNKSt6vectorI4edgeSaIS0_EE12_M_check_lenEmPKc = comdat any

$_ZN9__gnu_cxxmiIP4edgeSt6vectorIS1_SaIS1_EEEENS_17__normal_iteratorIT_T0_E15difference_typeERKS9_SC_ = comdat any

$_ZNSt12_Vector_baseI4edgeSaIS0_EE11_M_allocateEm = comdat any

$_ZSt34__uninitialized_move_if_noexcept_aIP4edgeS1_SaIS0_EET0_T_S4_S3_RT1_ = comdat any

$_ZNK9__gnu_cxx17__normal_iteratorIP4edgeSt6vectorIS1_SaIS1_EEE4baseEv = comdat any

$_ZNSt16allocator_traitsISaI4edgeEE7destroyIS0_EEvRS1_PT_ = comdat any

$_ZNKSt6vectorI4edgeSaIS0_EE8max_sizeEv = comdat any

$_ZNKSt6vectorI4edgeSaIS0_EE4sizeEv = comdat any

$_ZSt3maxImERKT_S2_S2_ = comdat any

$_ZNSt16allocator_traitsISaI4edgeEE8max_sizeERKS1_ = comdat any

$_ZNKSt12_Vector_baseI4edgeSaIS0_EE19_M_get_Tp_allocatorEv = comdat any

$_ZNK9__gnu_cxx13new_allocatorI4edgeE8max_sizeEv = comdat any

$_ZNSt16allocator_traitsISaI4edgeEE8allocateERS1_m = comdat any

$_ZN9__gnu_cxx13new_allocatorI4edgeE8allocateEmPKv = comdat any

$_ZSt22__uninitialized_copy_aISt13move_iteratorIP4edgeES2_S1_ET0_T_S5_S4_RSaIT1_E = comdat any

$_ZSt32__make_move_if_noexcept_iteratorI4edgeSt13move_iteratorIPS0_EET0_PT_ = comdat any

$_ZSt18uninitialized_copyISt13move_iteratorIP4edgeES2_ET0_T_S5_S4_ = comdat any

$_ZNSt20__uninitialized_copyILb1EE13__uninit_copyISt13move_iteratorIP4edgeES4_EET0_T_S7_S6_ = comdat any

$_ZSt4copyISt13move_iteratorIP4edgeES2_ET0_T_S5_S4_ = comdat any

$_ZSt14__copy_move_a2ILb1EP4edgeS1_ET1_T0_S3_S2_ = comdat any

$_ZSt12__miter_baseIP4edgeEDTcl12__miter_basecldtfp_4baseEEESt13move_iteratorIT_E = comdat any

$_ZSt13__copy_move_aILb1EP4edgeS1_ET1_T0_S3_S2_ = comdat any

$_ZSt12__niter_baseIP4edgeET_S2_ = comdat any

$_ZNSt11__copy_moveILb1ELb1ESt26random_access_iterator_tagE8__copy_mI4edgeEEPT_PKS4_S7_S5_ = comdat any

$_ZSt12__miter_baseIP4edgeET_S2_ = comdat any

$_ZNKSt13move_iteratorIP4edgeE4baseEv = comdat any

$_ZNSt13move_iteratorIP4edgeEC2ES1_ = comdat any

$_ZN9__gnu_cxx13new_allocatorI4edgeE7destroyIS1_EEvPT_ = comdat any

$_ZNSt6vectorI5stateSaIS0_EEC2Ev = comdat any

$_ZNSt12_Vector_baseI5stateSaIS0_EEC2Ev = comdat any

$_ZNSt12_Vector_baseI5stateSaIS0_EE12_Vector_implC2Ev = comdat any

$_ZNSaI5stateEC2Ev = comdat any

$_ZN9__gnu_cxx13new_allocatorI5stateEC2Ev = comdat any

$_ZNSt6vectorI5stateSaIS0_EE9push_backEOS0_ = comdat any

$_ZSt4moveIR5stateEONSt16remove_referenceIT_E4typeEOS3_ = comdat any

$_ZSt9push_heapIN9__gnu_cxx17__normal_iteratorIP5stateSt6vectorIS2_SaIS2_EEEESt4lessIS2_EEvT_SA_T0_ = comdat any

$_ZNSt6vectorI5stateSaIS0_EE5beginEv = comdat any

$_ZNSt6vectorI5stateSaIS0_EE3endEv = comdat any

$_ZNSt6vectorI5stateSaIS0_EE12emplace_backIJS0_EEEvDpOT_ = comdat any

$_ZNSt16allocator_traitsISaI5stateEE9constructIS0_JS0_EEEvRS1_PT_DpOT0_ = comdat any

$_ZSt7forwardI5stateEOT_RNSt16remove_referenceIS1_E4typeE = comdat any

$_ZNSt6vectorI5stateSaIS0_EE17_M_realloc_insertIJS0_EEEvN9__gnu_cxx17__normal_iteratorIPS0_S2_EEDpOT_ = comdat any

$_ZN9__gnu_cxx13new_allocatorI5stateE9constructIS1_JS1_EEEvPT_DpOT0_ = comdat any

$_ZNKSt6vectorI5stateSaIS0_EE12_M_check_lenEmPKc = comdat any

$_ZN9__gnu_cxxmiIP5stateSt6vectorIS1_SaIS1_EEEENS_17__normal_iteratorIT_T0_E15difference_typeERKS9_SC_ = comdat any

$_ZNSt12_Vector_baseI5stateSaIS0_EE11_M_allocateEm = comdat any

$_ZSt34__uninitialized_move_if_noexcept_aIP5stateS1_SaIS0_EET0_T_S4_S3_RT1_ = comdat any

$_ZNK9__gnu_cxx17__normal_iteratorIP5stateSt6vectorIS1_SaIS1_EEE4baseEv = comdat any

$_ZNSt16allocator_traitsISaI5stateEE7destroyIS0_EEvRS1_PT_ = comdat any

$_ZNKSt6vectorI5stateSaIS0_EE8max_sizeEv = comdat any

$_ZNKSt6vectorI5stateSaIS0_EE4sizeEv = comdat any

$_ZNSt16allocator_traitsISaI5stateEE8max_sizeERKS1_ = comdat any

$_ZNKSt12_Vector_baseI5stateSaIS0_EE19_M_get_Tp_allocatorEv = comdat any

$_ZNK9__gnu_cxx13new_allocatorI5stateE8max_sizeEv = comdat any

$_ZNSt16allocator_traitsISaI5stateEE8allocateERS1_m = comdat any

$_ZN9__gnu_cxx13new_allocatorI5stateE8allocateEmPKv = comdat any

$_ZSt22__uninitialized_copy_aISt13move_iteratorIP5stateES2_S1_ET0_T_S5_S4_RSaIT1_E = comdat any

$_ZSt32__make_move_if_noexcept_iteratorI5stateSt13move_iteratorIPS0_EET0_PT_ = comdat any

$_ZSt18uninitialized_copyISt13move_iteratorIP5stateES2_ET0_T_S5_S4_ = comdat any

$_ZNSt20__uninitialized_copyILb1EE13__uninit_copyISt13move_iteratorIP5stateES4_EET0_T_S7_S6_ = comdat any

$_ZSt4copyISt13move_iteratorIP5stateES2_ET0_T_S5_S4_ = comdat any

$_ZSt14__copy_move_a2ILb1EP5stateS1_ET1_T0_S3_S2_ = comdat any

$_ZSt12__miter_baseIP5stateEDTcl12__miter_basecldtfp_4baseEEESt13move_iteratorIT_E = comdat any

$_ZSt13__copy_move_aILb1EP5stateS1_ET1_T0_S3_S2_ = comdat any

$_ZSt12__niter_baseIP5stateET_S2_ = comdat any

$_ZNSt11__copy_moveILb1ELb1ESt26random_access_iterator_tagE8__copy_mI5stateEEPT_PKS4_S7_S5_ = comdat any

$_ZSt12__miter_baseIP5stateET_S2_ = comdat any

$_ZNKSt13move_iteratorIP5stateE4baseEv = comdat any

$_ZNSt13move_iteratorIP5stateEC2ES1_ = comdat any

$_ZN9__gnu_cxx13new_allocatorI5stateE7destroyIS1_EEvPT_ = comdat any

$_ZSt4moveIRSt4lessI5stateEEONSt16remove_referenceIT_E4typeEOS5_ = comdat any

$_ZN9__gnu_cxx5__ops14_Iter_comp_valISt4lessI5stateEEC2ES4_ = comdat any

$_ZNK9__gnu_cxx17__normal_iteratorIP5stateSt6vectorIS1_SaIS1_EEEmiEl = comdat any

$_ZNK9__gnu_cxx17__normal_iteratorIP5stateSt6vectorIS1_SaIS1_EEEdeEv = comdat any

$_ZSt11__push_heapIN9__gnu_cxx17__normal_iteratorIP5stateSt6vectorIS2_SaIS2_EEEElS2_NS0_5__ops14_Iter_comp_valISt4lessIS2_EEEEvT_T0_SE_T1_RT2_ = comdat any

$_ZN9__gnu_cxx17__normal_iteratorIP5stateSt6vectorIS1_SaIS1_EEEC2ERKS2_ = comdat any

$_ZN9__gnu_cxx5__ops14_Iter_comp_valISt4lessI5stateEEclINS_17__normal_iteratorIPS3_St6vectorIS3_SaIS3_EEEES3_EEbT_RT0_ = comdat any

$_ZNK9__gnu_cxx17__normal_iteratorIP5stateSt6vectorIS1_SaIS1_EEEplEl = comdat any

$_ZNKSt4lessI5stateEclERKS0_S3_ = comdat any

$_ZNKSt6vectorI5stateSaIS0_EE5frontEv = comdat any

$_ZNKSt6vectorI5stateSaIS0_EE5beginEv = comdat any

$_ZNK9__gnu_cxx17__normal_iteratorIPK5stateSt6vectorIS1_SaIS1_EEEdeEv = comdat any

$_ZN9__gnu_cxx17__normal_iteratorIPK5stateSt6vectorIS1_SaIS1_EEEC2ERKS3_ = comdat any

$_ZSt8pop_heapIN9__gnu_cxx17__normal_iteratorIP5stateSt6vectorIS2_SaIS2_EEEESt4lessIS2_EEvT_SA_T0_ = comdat any

$_ZNSt6vectorI5stateSaIS0_EE8pop_backEv = comdat any

$_ZN9__gnu_cxx5__ops15_Iter_comp_iterISt4lessI5stateEEC2ES4_ = comdat any

$_ZN9__gnu_cxx17__normal_iteratorIP5stateSt6vectorIS1_SaIS1_EEEmmEv = comdat any

$_ZSt10__pop_heapIN9__gnu_cxx17__normal_iteratorIP5stateSt6vectorIS2_SaIS2_EEEENS0_5__ops15_Iter_comp_iterISt4lessIS2_EEEEvT_SD_SD_RT0_ = comdat any

$_ZSt13__adjust_heapIN9__gnu_cxx17__normal_iteratorIP5stateSt6vectorIS2_SaIS2_EEEElS2_NS0_5__ops15_Iter_comp_iterISt4lessIS2_EEEEvT_T0_SE_T1_T2_ = comdat any

$_ZN9__gnu_cxx5__ops15_Iter_comp_iterISt4lessI5stateEEclINS_17__normal_iteratorIPS3_St6vectorIS3_SaIS3_EEEESC_EEbT_T0_ = comdat any

$_ZSt4moveIRN9__gnu_cxx5__ops15_Iter_comp_iterISt4lessI5stateEEEEONSt16remove_referenceIT_E4typeEOS9_ = comdat any

$_ZN9__gnu_cxx5__ops14_Iter_comp_valISt4lessI5stateEEC2EONS0_15_Iter_comp_iterIS4_EE = comdat any

$_ZN9__gnu_cxx17__normal_iteratorIP4edgeSt6vectorIS1_SaIS1_EEEC2ERKS2_ = comdat any

@_ZStL8__ioinit = internal global %"class.std::ios_base::Init" zeroinitializer, align 1
@__dso_handle = external hidden global i8
@N = global i64 0, align 8
@M = global i64 0, align 8
@S = global i64 0, align 8
@G = global i64 0, align 8
@g = global [200010 x %"class.std::vector"] zeroinitializer, align 16
@dist = global [200010 x i64] zeroinitializer, align 16
@_ZSt3cin = external global %"class.std::basic_istream", align 8
@_ZSt4cout = external global %"class.std::basic_ostream", align 8
@.str = private unnamed_addr constant [26 x i8] c"vector::_M_realloc_insert\00", align 1
@llvm.global_ctors = appending global [1 x { i32, void ()*, i8* }] [{ i32, void ()*, i8* } { i32 65535, void ()* @_GLOBAL__sub_I_s426525857.cpp, i8* null }]

; Function Attrs: noinline uwtable
define internal void @__cxx_global_var_init() #0 section ".text.startup" {
  call void @_ZNSt8ios_base4InitC1Ev(%"class.std::ios_base::Init"* @_ZStL8__ioinit)
  %1 = call i32 @__cxa_atexit(void (i8*)* bitcast (void (%"class.std::ios_base::Init"*)* @_ZNSt8ios_base4InitD1Ev to void (i8*)*), i8* getelementptr inbounds (%"class.std::ios_base::Init", %"class.std::ios_base::Init"* @_ZStL8__ioinit, i32 0, i32 0), i8* @__dso_handle) #3
  ret void
}

declare void @_ZNSt8ios_base4InitC1Ev(%"class.std::ios_base::Init"*) unnamed_addr #1

; Function Attrs: nounwind
declare void @_ZNSt8ios_base4InitD1Ev(%"class.std::ios_base::Init"*) unnamed_addr #2

; Function Attrs: nounwind
declare i32 @__cxa_atexit(void (i8*)*, i8*, i8*) #3

; Function Attrs: noinline nounwind uwtable
define zeroext i1 @_ZltRK5stateS1_(%struct.state* dereferenceable(16) %0, %struct.state* dereferenceable(16) %1) #4 {
  %3 = getelementptr inbounds %struct.state, %struct.state* %0, i32 0, i32 1
  %4 = load i64, i64* %3, align 8
  %5 = getelementptr inbounds %struct.state, %struct.state* %1, i32 0, i32 1
  %6 = load i64, i64* %5, align 8
  %7 = icmp sgt i64 %4, %6
  ret i1 %7
}

; Function Attrs: noinline uwtable
define internal void @__cxx_global_var_init.1() #0 section ".text.startup" {
  br label %1

1:                                                ; preds = %1, %0
  %2 = phi %"class.std::vector"* [ getelementptr inbounds ([200010 x %"class.std::vector"], [200010 x %"class.std::vector"]* @g, i32 0, i32 0), %0 ], [ %3, %1 ]
  call void @_ZNSt6vectorI4edgeSaIS0_EEC2Ev(%"class.std::vector"* %2) #3
  %3 = getelementptr inbounds %"class.std::vector", %"class.std::vector"* %2, i64 1
  %4 = icmp eq %"class.std::vector"* %3, getelementptr inbounds ([200010 x %"class.std::vector"], [200010 x %"class.std::vector"]* @g, i64 1, i64 0)
  br i1 %4, label %5, label %1

5:                                                ; preds = %1
  %6 = call i32 @__cxa_atexit(void (i8*)* @__cxx_global_array_dtor, i8* null, i8* @__dso_handle) #3
  ret void
}

; Function Attrs: noinline nounwind uwtable
define linkonce_odr void @_ZNSt6vectorI4edgeSaIS0_EEC2Ev(%"class.std::vector"* %0) unnamed_addr #4 comdat align 2 personality i8* bitcast (i32 (...)* @__gxx_personality_v0 to i8*) {
  %2 = bitcast %"class.std::vector"* %0 to %"struct.std::_Vector_base"*
  invoke void @_ZNSt12_Vector_baseI4edgeSaIS0_EEC2Ev(%"struct.std::_Vector_base"* %2)
          to label %3 unwind label %4

3:                                                ; preds = %1
  ret void

4:                                                ; preds = %1
  %5 = landingpad { i8*, i32 }
          catch i8* null
  %6 = extractvalue { i8*, i32 } %5, 0
  call void @__clang_call_terminate(i8* %6) #12
  unreachable
}

; Function Attrs: noinline uwtable
define internal void @__cxx_global_array_dtor(i8* %0) #0 section ".text.startup" {
  br label %2

2:                                                ; preds = %2, %1
  %3 = phi %"class.std::vector"* [ getelementptr inbounds ([200010 x %"class.std::vector"], [200010 x %"class.std::vector"]* @g, i64 1, i64 0), %1 ], [ %4, %2 ]
  %4 = getelementptr inbounds %"class.std::vector", %"class.std::vector"* %3, i64 -1
  call void @_ZNSt6vectorI4edgeSaIS0_EED2Ev(%"class.std::vector"* %4) #3
  %5 = icmp eq %"class.std::vector"* %4, getelementptr inbounds ([200010 x %"class.std::vector"], [200010 x %"class.std::vector"]* @g, i32 0, i32 0)
  br i1 %5, label %6, label %2

6:                                                ; preds = %2
  ret void
}

; Function Attrs: noinline nounwind uwtable
define linkonce_odr void @_ZNSt6vectorI4edgeSaIS0_EED2Ev(%"class.std::vector"* %0) unnamed_addr #4 comdat align 2 personality i8* bitcast (i32 (...)* @__gxx_personality_v0 to i8*) {
  %2 = bitcast %"class.std::vector"* %0 to %"struct.std::_Vector_base"*
  %3 = getelementptr inbounds %"struct.std::_Vector_base", %"struct.std::_Vector_base"* %2, i32 0, i32 0
  %4 = getelementptr inbounds %"struct.std::_Vector_base<edge, std::allocator<edge> >::_Vector_impl", %"struct.std::_Vector_base<edge, std::allocator<edge> >::_Vector_impl"* %3, i32 0, i32 0
  %5 = load %struct.edge*, %struct.edge** %4, align 8
  %6 = bitcast %"class.std::vector"* %0 to %"struct.std::_Vector_base"*
  %7 = getelementptr inbounds %"struct.std::_Vector_base", %"struct.std::_Vector_base"* %6, i32 0, i32 0
  %8 = getelementptr inbounds %"struct.std::_Vector_base<edge, std::allocator<edge> >::_Vector_impl", %"struct.std::_Vector_base<edge, std::allocator<edge> >::_Vector_impl"* %7, i32 0, i32 1
  %9 = load %struct.edge*, %struct.edge** %8, align 8
  %10 = bitcast %"class.std::vector"* %0 to %"struct.std::_Vector_base"*
  %11 = call dereferenceable(1) %"class.std::allocator"* @_ZNSt12_Vector_baseI4edgeSaIS0_EE19_M_get_Tp_allocatorEv(%"struct.std::_Vector_base"* %10) #3
  invoke void @_ZSt8_DestroyIP4edgeS0_EvT_S2_RSaIT0_E(%struct.edge* %5, %struct.edge* %9, %"class.std::allocator"* dereferenceable(1) %11)
          to label %12 unwind label %14

12:                                               ; preds = %1
  %13 = bitcast %"class.std::vector"* %0 to %"struct.std::_Vector_base"*
  call void @_ZNSt12_Vector_baseI4edgeSaIS0_EED2Ev(%"struct.std::_Vector_base"* %13) #3
  ret void

14:                                               ; preds = %1
  %15 = landingpad { i8*, i32 }
          catch i8* null
  %16 = extractvalue { i8*, i32 } %15, 0
  %17 = extractvalue { i8*, i32 } %15, 1
  %18 = bitcast %"class.std::vector"* %0 to %"struct.std::_Vector_base"*
  call void @_ZNSt12_Vector_baseI4edgeSaIS0_EED2Ev(%"struct.std::_Vector_base"* %18) #3
  br label %19

19:                                               ; preds = %14
  call void @__clang_call_terminate(i8* %16) #12
  unreachable
}

; Function Attrs: noinline norecurse uwtable
define i32 @main() #5 personality i8* bitcast (i32 (...)* @__gxx_personality_v0 to i8*) {
  %1 = alloca i64, align 8
  %2 = alloca i64, align 8
  %3 = alloca i64, align 8
  %4 = alloca i64, align 8
  %5 = alloca %struct.edge, align 8
  %6 = alloca %struct.edge, align 8
  %7 = alloca %"class.std::priority_queue", align 8
  %8 = alloca %struct.state, align 8
  %9 = alloca %struct.state, align 8
  %10 = alloca %"class.__gnu_cxx::__normal_iterator", align 8
  %11 = alloca %"class.__gnu_cxx::__normal_iterator", align 8
  %12 = alloca %struct.edge, align 8
  %13 = alloca i64, align 8
  %14 = alloca i64, align 8
  %15 = alloca %struct.state, align 8
  %16 = call dereferenceable(280) %"class.std::basic_istream"* @_ZNSirsERx(%"class.std::basic_istream"* @_ZSt3cin, i64* dereferenceable(8) @N)
  %17 = call dereferenceable(280) %"class.std::basic_istream"* @_ZNSirsERx(%"class.std::basic_istream"* %16, i64* dereferenceable(8) @M)
  %18 = call dereferenceable(280) %"class.std::basic_istream"* @_ZNSirsERx(%"class.std::basic_istream"* %17, i64* dereferenceable(8) @S)
  %19 = call dereferenceable(280) %"class.std::basic_istream"* @_ZNSirsERx(%"class.std::basic_istream"* %18, i64* dereferenceable(8) @G)
  %20 = load i64, i64* @S, align 8
  %21 = add nsw i64 %20, -1
  store i64 %21, i64* @S, align 8
  %22 = load i64, i64* @G, align 8
  %23 = add nsw i64 %22, -1
  store i64 %23, i64* @G, align 8
  br label %24

24:                                               ; preds = %52, %0
  %.0 = phi i64 [ 0, %0 ], [ %53, %52 ]
  %25 = load i64, i64* @M, align 8
  %26 = icmp slt i64 %.0, %25
  br i1 %26, label %27, label %54

27:                                               ; preds = %24
  %28 = call dereferenceable(280) %"class.std::basic_istream"* @_ZNSirsERx(%"class.std::basic_istream"* @_ZSt3cin, i64* dereferenceable(8) %1)
  %29 = call dereferenceable(280) %"class.std::basic_istream"* @_ZNSirsERx(%"class.std::basic_istream"* %28, i64* dereferenceable(8) %2)
  %30 = call dereferenceable(280) %"class.std::basic_istream"* @_ZNSirsERx(%"class.std::basic_istream"* %29, i64* dereferenceable(8) %3)
  %31 = call dereferenceable(280) %"class.std::basic_istream"* @_ZNSirsERx(%"class.std::basic_istream"* %30, i64* dereferenceable(8) %4)
  %32 = load i64, i64* %1, align 8
  %33 = add nsw i64 %32, -1
  store i64 %33, i64* %1, align 8
  %34 = load i64, i64* %2, align 8
  %35 = add nsw i64 %34, -1
  store i64 %35, i64* %2, align 8
  %36 = load i64, i64* %1, align 8
  %37 = getelementptr inbounds [200010 x %"class.std::vector"], [200010 x %"class.std::vector"]* @g, i64 0, i64 %36
  %38 = getelementptr inbounds %struct.edge, %struct.edge* %5, i32 0, i32 0
  %39 = load i64, i64* %2, align 8
  store i64 %39, i64* %38, align 8
  %40 = getelementptr inbounds %struct.edge, %struct.edge* %5, i32 0, i32 1
  %41 = load i64, i64* %3, align 8
  store i64 %41, i64* %40, align 8
  %42 = getelementptr inbounds %struct.edge, %struct.edge* %5, i32 0, i32 2
  %43 = load i64, i64* %4, align 8
  store i64 %43, i64* %42, align 8
  call void @_ZNSt6vectorI4edgeSaIS0_EE9push_backEOS0_(%"class.std::vector"* %37, %struct.edge* dereferenceable(24) %5)
  %44 = load i64, i64* %2, align 8
  %45 = getelementptr inbounds [200010 x %"class.std::vector"], [200010 x %"class.std::vector"]* @g, i64 0, i64 %44
  %46 = getelementptr inbounds %struct.edge, %struct.edge* %6, i32 0, i32 0
  %47 = load i64, i64* %1, align 8
  store i64 %47, i64* %46, align 8
  %48 = getelementptr inbounds %struct.edge, %struct.edge* %6, i32 0, i32 1
  %49 = load i64, i64* %3, align 8
  store i64 %49, i64* %48, align 8
  %50 = getelementptr inbounds %struct.edge, %struct.edge* %6, i32 0, i32 2
  %51 = load i64, i64* %4, align 8
  store i64 %51, i64* %50, align 8
  call void @_ZNSt6vectorI4edgeSaIS0_EE9push_backEOS0_(%"class.std::vector"* %45, %struct.edge* dereferenceable(24) %6)
  br label %52

52:                                               ; preds = %27
  %53 = add nsw i64 %.0, 1
  br label %24

54:                                               ; preds = %24
  call void @_ZNSt14priority_queueI5stateSt6vectorIS0_SaIS0_EESt4lessIS0_EEC2IS3_vEEv(%"class.std::priority_queue"* %7)
  %55 = getelementptr inbounds %struct.state, %struct.state* %8, i32 0, i32 0
  %56 = load i64, i64* @S, align 8
  store i64 %56, i64* %55, align 8
  %57 = getelementptr inbounds %struct.state, %struct.state* %8, i32 0, i32 1
  store i64 0, i64* %57, align 8
  invoke void @_ZNSt14priority_queueI5stateSt6vectorIS0_SaIS0_EESt4lessIS0_EE4pushEOS0_(%"class.std::priority_queue"* %7, %struct.state* dereferenceable(16) %8)
          to label %58 unwind label %66

58:                                               ; preds = %54
  br label %59

59:                                               ; preds = %64, %58
  %.02 = phi i64 [ 0, %58 ], [ %65, %64 ]
  %60 = load i64, i64* @N, align 8
  %61 = icmp slt i64 %.02, %60
  br i1 %61, label %62, label %70

62:                                               ; preds = %59
  %63 = getelementptr inbounds [200010 x i64], [200010 x i64]* @dist, i64 0, i64 %.02
  store i64 5000000000000000000, i64* %63, align 8
  br label %64

64:                                               ; preds = %62
  %65 = add nsw i64 %.02, 1
  br label %59

66:                                               ; preds = %168, %163, %160, %158, %124, %105, %77, %75, %71, %54
  %67 = landingpad { i8*, i32 }
          cleanup
  %68 = extractvalue { i8*, i32 } %67, 0
  %69 = extractvalue { i8*, i32 } %67, 1
  call void @_ZNSt14priority_queueI5stateSt6vectorIS0_SaIS0_EESt4lessIS0_EED2Ev(%"class.std::priority_queue"* %7) #3
  br label %172

70:                                               ; preds = %59
  br label %71

71:                                               ; preds = %151, %87, %70
  %72 = invoke i64 @_ZNKSt14priority_queueI5stateSt6vectorIS0_SaIS0_EESt4lessIS0_EE4sizeEv(%"class.std::priority_queue"* %7)
          to label %73 unwind label %66

73:                                               ; preds = %71
  %74 = icmp ne i64 %72, 0
  br i1 %74, label %75, label %152

75:                                               ; preds = %73
  %76 = invoke dereferenceable(16) %struct.state* @_ZNKSt14priority_queueI5stateSt6vectorIS0_SaIS0_EESt4lessIS0_EE3topEv(%"class.std::priority_queue"* %7)
          to label %77 unwind label %66

77:                                               ; preds = %75
  %78 = bitcast %struct.state* %9 to i8*
  %79 = bitcast %struct.state* %76 to i8*
  call void @llvm.memcpy.p0i8.p0i8.i64(i8* align 8 %78, i8* align 8 %79, i64 16, i1 false)
  invoke void @_ZNSt14priority_queueI5stateSt6vectorIS0_SaIS0_EESt4lessIS0_EE3popEv(%"class.std::priority_queue"* %7)
          to label %80 unwind label %66

80:                                               ; preds = %77
  %81 = getelementptr inbounds %struct.state, %struct.state* %9, i32 0, i32 0
  %82 = load i64, i64* %81, align 8
  %83 = getelementptr inbounds [200010 x i64], [200010 x i64]* @dist, i64 0, i64 %82
  %84 = load i64, i64* %83, align 8
  %85 = sitofp i64 %84 to double
  %86 = fcmp une double %85, 5.000000e+18
  br i1 %86, label %87, label %88

87:                                               ; preds = %80
  br label %71

88:                                               ; preds = %80
  %89 = getelementptr inbounds %struct.state, %struct.state* %9, i32 0, i32 1
  %90 = load i64, i64* %89, align 8
  %91 = getelementptr inbounds %struct.state, %struct.state* %9, i32 0, i32 0
  %92 = load i64, i64* %91, align 8
  %93 = getelementptr inbounds [200010 x i64], [200010 x i64]* @dist, i64 0, i64 %92
  store i64 %90, i64* %93, align 8
  %94 = getelementptr inbounds %struct.state, %struct.state* %9, i32 0, i32 0
  %95 = load i64, i64* %94, align 8
  %96 = getelementptr inbounds %struct.state, %struct.state* %9, i32 0, i32 1
  %97 = load i64, i64* %96, align 8
  %98 = getelementptr inbounds [200010 x %"class.std::vector"], [200010 x %"class.std::vector"]* @g, i64 0, i64 %95
  %99 = call %struct.edge* @_ZNSt6vectorI4edgeSaIS0_EE5beginEv(%"class.std::vector"* %98) #3
  %100 = getelementptr inbounds %"class.__gnu_cxx::__normal_iterator", %"class.__gnu_cxx::__normal_iterator"* %10, i32 0, i32 0
  store %struct.edge* %99, %struct.edge** %100, align 8
  %101 = call %struct.edge* @_ZNSt6vectorI4edgeSaIS0_EE3endEv(%"class.std::vector"* %98) #3
  %102 = getelementptr inbounds %"class.__gnu_cxx::__normal_iterator", %"class.__gnu_cxx::__normal_iterator"* %11, i32 0, i32 0
  store %struct.edge* %101, %struct.edge** %102, align 8
  br label %103

103:                                              ; preds = %149, %88
  %104 = call zeroext i1 @_ZN9__gnu_cxxneIP4edgeSt6vectorIS1_SaIS1_EEEEbRKNS_17__normal_iteratorIT_T0_EESB_(%"class.__gnu_cxx::__normal_iterator"* dereferenceable(8) %10, %"class.__gnu_cxx::__normal_iterator"* dereferenceable(8) %11) #3
  br i1 %104, label %105, label %151

105:                                              ; preds = %103
  %106 = call dereferenceable(24) %struct.edge* @_ZNK9__gnu_cxx17__normal_iteratorIP4edgeSt6vectorIS1_SaIS1_EEEdeEv(%"class.__gnu_cxx::__normal_iterator"* %10) #3
  %107 = bitcast %struct.edge* %12 to i8*
  %108 = bitcast %struct.edge* %106 to i8*
  call void @llvm.memcpy.p0i8.p0i8.i64(i8* align 8 %107, i8* align 8 %108, i64 24, i1 false)
  store i64 0, i64* %13, align 8
  %109 = getelementptr inbounds %struct.edge, %struct.edge* %12, i32 0, i32 2
  %110 = load i64, i64* %109, align 8
  %111 = sitofp i64 %110 to double
  %112 = call double @sqrt(double %111) #3
  %113 = call double @llvm.floor.f64(double %112)
  %114 = fptosi double %113 to i64
  %115 = getelementptr inbounds %struct.edge, %struct.edge* %12, i32 0, i32 1
  %116 = load i64, i64* %115, align 8
  %117 = sub nsw i64 %114, %116
  %118 = sub nsw i64 %117, %97
  store i64 %118, i64* %14, align 8
  %119 = invoke dereferenceable(8) i64* @_ZSt3maxIxERKT_S2_S2_(i64* dereferenceable(8) %13, i64* dereferenceable(8) %14)
          to label %120 unwind label %66

120:                                              ; preds = %105
  %121 = load i64, i64* %119, align 8
  br label %122

122:                                              ; preds = %146, %120
  %.01 = phi i64 [ 0, %120 ], [ %147, %146 ]
  %123 = icmp slt i64 %.01, 3
  br i1 %123, label %124, label %148

124:                                              ; preds = %122
  %125 = add nsw i64 %121, %.01
  %126 = getelementptr inbounds %struct.state, %struct.state* %15, i32 0, i32 0
  %127 = getelementptr inbounds %struct.edge, %struct.edge* %12, i32 0, i32 0
  %128 = load i64, i64* %127, align 8
  store i64 %128, i64* %126, align 8
  %129 = getelementptr inbounds %struct.state, %struct.state* %15, i32 0, i32 1
  %130 = add nsw i64 %97, %125
  %131 = getelementptr inbounds %struct.edge, %struct.edge* %12, i32 0, i32 2
  %132 = load i64, i64* %131, align 8
  %133 = add nsw i64 %132, %97
  %134 = add nsw i64 %133, %125
  %135 = getelementptr inbounds %struct.edge, %struct.edge* %12, i32 0, i32 1
  %136 = load i64, i64* %135, align 8
  %137 = add nsw i64 %134, %136
  %138 = sub nsw i64 %137, 1
  %139 = add nsw i64 %97, %125
  %140 = getelementptr inbounds %struct.edge, %struct.edge* %12, i32 0, i32 1
  %141 = load i64, i64* %140, align 8
  %142 = add nsw i64 %139, %141
  %143 = sdiv i64 %138, %142
  %144 = add nsw i64 %130, %143
  store i64 %144, i64* %129, align 8
  invoke void @_ZNSt14priority_queueI5stateSt6vectorIS0_SaIS0_EESt4lessIS0_EE4pushEOS0_(%"class.std::priority_queue"* %7, %struct.state* dereferenceable(16) %15)
          to label %145 unwind label %66

145:                                              ; preds = %124
  br label %146

146:                                              ; preds = %145
  %147 = add nsw i64 %.01, 1
  br label %122

148:                                              ; preds = %122
  br label %149

149:                                              ; preds = %148
  %150 = call dereferenceable(8) %"class.__gnu_cxx::__normal_iterator"* @_ZN9__gnu_cxx17__normal_iteratorIP4edgeSt6vectorIS1_SaIS1_EEEppEv(%"class.__gnu_cxx::__normal_iterator"* %10) #3
  br label %103

151:                                              ; preds = %103
  br label %71

152:                                              ; preds = %73
  %153 = load i64, i64* @G, align 8
  %154 = getelementptr inbounds [200010 x i64], [200010 x i64]* @dist, i64 0, i64 %153
  %155 = load i64, i64* %154, align 8
  %156 = sitofp i64 %155 to double
  %157 = fcmp oeq double %156, 5.000000e+18
  br i1 %157, label %158, label %163

158:                                              ; preds = %152
  %159 = invoke dereferenceable(272) %"class.std::basic_ostream"* @_ZNSolsEi(%"class.std::basic_ostream"* @_ZSt4cout, i32 -1)
          to label %160 unwind label %66

160:                                              ; preds = %158
  %161 = invoke dereferenceable(272) %"class.std::basic_ostream"* @_ZNSolsEPFRSoS_E(%"class.std::basic_ostream"* %159, %"class.std::basic_ostream"* (%"class.std::basic_ostream"*)* @_ZSt4endlIcSt11char_traitsIcEERSt13basic_ostreamIT_T0_ES6_)
          to label %162 unwind label %66

162:                                              ; preds = %160
  br label %171

163:                                              ; preds = %152
  %164 = load i64, i64* @G, align 8
  %165 = getelementptr inbounds [200010 x i64], [200010 x i64]* @dist, i64 0, i64 %164
  %166 = load i64, i64* %165, align 8
  %167 = invoke dereferenceable(272) %"class.std::basic_ostream"* @_ZNSolsEx(%"class.std::basic_ostream"* @_ZSt4cout, i64 %166)
          to label %168 unwind label %66

168:                                              ; preds = %163
  %169 = invoke dereferenceable(272) %"class.std::basic_ostream"* @_ZNSolsEPFRSoS_E(%"class.std::basic_ostream"* %167, %"class.std::basic_ostream"* (%"class.std::basic_ostream"*)* @_ZSt4endlIcSt11char_traitsIcEERSt13basic_ostreamIT_T0_ES6_)
          to label %170 unwind label %66

170:                                              ; preds = %168
  br label %171

171:                                              ; preds = %170, %162
  call void @_ZNSt14priority_queueI5stateSt6vectorIS0_SaIS0_EESt4lessIS0_EED2Ev(%"class.std::priority_queue"* %7) #3
  ret i32 0

172:                                              ; preds = %66
  %173 = insertvalue { i8*, i32 } undef, i8* %68, 0
  %174 = insertvalue { i8*, i32 } %173, i32 %69, 1
  resume { i8*, i32 } %174
}

declare dereferenceable(280) %"class.std::basic_istream"* @_ZNSirsERx(%"class.std::basic_istream"*, i64* dereferenceable(8)) #1

; Function Attrs: noinline uwtable
define linkonce_odr void @_ZNSt6vectorI4edgeSaIS0_EE9push_backEOS0_(%"class.std::vector"* %0, %struct.edge* dereferenceable(24) %1) #0 comdat align 2 {
  %3 = call dereferenceable(24) %struct.edge* @_ZSt4moveIR4edgeEONSt16remove_referenceIT_E4typeEOS3_(%struct.edge* dereferenceable(24) %1) #3
  call void @_ZNSt6vectorI4edgeSaIS0_EE12emplace_backIJS0_EEEvDpOT_(%"class.std::vector"* %0, %struct.edge* dereferenceable(24) %3)
  ret void
}

; Function Attrs: noinline nounwind uwtable
define linkonce_odr void @_ZNSt14priority_queueI5stateSt6vectorIS0_SaIS0_EESt4lessIS0_EEC2IS3_vEEv(%"class.std::priority_queue"* %0) unnamed_addr #4 comdat align 2 {
  %2 = getelementptr inbounds %"class.std::priority_queue", %"class.std::priority_queue"* %0, i32 0, i32 0
  call void @_ZNSt6vectorI5stateSaIS0_EEC2Ev(%"class.std::vector.0"* %2) #3
  %3 = getelementptr inbounds %"class.std::priority_queue", %"class.std::priority_queue"* %0, i32 0, i32 1
  ret void
}

; Function Attrs: noinline uwtable
define linkonce_odr void @_ZNSt14priority_queueI5stateSt6vectorIS0_SaIS0_EESt4lessIS0_EE4pushEOS0_(%"class.std::priority_queue"* %0, %struct.state* dereferenceable(16) %1) #0 comdat align 2 {
  %3 = alloca %"class.__gnu_cxx::__normal_iterator.5", align 8
  %4 = alloca %"class.__gnu_cxx::__normal_iterator.5", align 8
  %5 = getelementptr inbounds %"class.std::priority_queue", %"class.std::priority_queue"* %0, i32 0, i32 0
  %6 = call dereferenceable(16) %struct.state* @_ZSt4moveIR5stateEONSt16remove_referenceIT_E4typeEOS3_(%struct.state* dereferenceable(16) %1) #3
  call void @_ZNSt6vectorI5stateSaIS0_EE9push_backEOS0_(%"class.std::vector.0"* %5, %struct.state* dereferenceable(16) %6)
  %7 = getelementptr inbounds %"class.std::priority_queue", %"class.std::priority_queue"* %0, i32 0, i32 0
  %8 = call %struct.state* @_ZNSt6vectorI5stateSaIS0_EE5beginEv(%"class.std::vector.0"* %7) #3
  %9 = getelementptr inbounds %"class.__gnu_cxx::__normal_iterator.5", %"class.__gnu_cxx::__normal_iterator.5"* %3, i32 0, i32 0
  store %struct.state* %8, %struct.state** %9, align 8
  %10 = getelementptr inbounds %"class.std::priority_queue", %"class.std::priority_queue"* %0, i32 0, i32 0
  %11 = call %struct.state* @_ZNSt6vectorI5stateSaIS0_EE3endEv(%"class.std::vector.0"* %10) #3
  %12 = getelementptr inbounds %"class.__gnu_cxx::__normal_iterator.5", %"class.__gnu_cxx::__normal_iterator.5"* %4, i32 0, i32 0
  store %struct.state* %11, %struct.state** %12, align 8
  %13 = getelementptr inbounds %"class.std::priority_queue", %"class.std::priority_queue"* %0, i32 0, i32 1
  %14 = getelementptr inbounds %"class.__gnu_cxx::__normal_iterator.5", %"class.__gnu_cxx::__normal_iterator.5"* %3, i32 0, i32 0
  %15 = load %struct.state*, %struct.state** %14, align 8
  %16 = getelementptr inbounds %"class.__gnu_cxx::__normal_iterator.5", %"class.__gnu_cxx::__normal_iterator.5"* %4, i32 0, i32 0
  %17 = load %struct.state*, %struct.state** %16, align 8
  call void @_ZSt9push_heapIN9__gnu_cxx17__normal_iteratorIP5stateSt6vectorIS2_SaIS2_EEEESt4lessIS2_EEvT_SA_T0_(%struct.state* %15, %struct.state* %17)
  ret void
}

declare i32 @__gxx_personality_v0(...)

; Function Attrs: noinline nounwind uwtable
define linkonce_odr i64 @_ZNKSt14priority_queueI5stateSt6vectorIS0_SaIS0_EESt4lessIS0_EE4sizeEv(%"class.std::priority_queue"* %0) #4 comdat align 2 {
  %2 = getelementptr inbounds %"class.std::priority_queue", %"class.std::priority_queue"* %0, i32 0, i32 0
  %3 = call i64 @_ZNKSt6vectorI5stateSaIS0_EE4sizeEv(%"class.std::vector.0"* %2) #3
  ret i64 %3
}

; Function Attrs: noinline nounwind uwtable
define linkonce_odr dereferenceable(16) %struct.state* @_ZNKSt14priority_queueI5stateSt6vectorIS0_SaIS0_EESt4lessIS0_EE3topEv(%"class.std::priority_queue"* %0) #4 comdat align 2 {
  %2 = getelementptr inbounds %"class.std::priority_queue", %"class.std::priority_queue"* %0, i32 0, i32 0
  %3 = call dereferenceable(16) %struct.state* @_ZNKSt6vectorI5stateSaIS0_EE5frontEv(%"class.std::vector.0"* %2) #3
  ret %struct.state* %3
}

; Function Attrs: noinline uwtable
define linkonce_odr void @_ZNSt14priority_queueI5stateSt6vectorIS0_SaIS0_EESt4lessIS0_EE3popEv(%"class.std::priority_queue"* %0) #0 comdat align 2 {
  %2 = alloca %"class.__gnu_cxx::__normal_iterator.5", align 8
  %3 = alloca %"class.__gnu_cxx::__normal_iterator.5", align 8
  %4 = getelementptr inbounds %"class.std::priority_queue", %"class.std::priority_queue"* %0, i32 0, i32 0
  %5 = call %struct.state* @_ZNSt6vectorI5stateSaIS0_EE5beginEv(%"class.std::vector.0"* %4) #3
  %6 = getelementptr inbounds %"class.__gnu_cxx::__normal_iterator.5", %"class.__gnu_cxx::__normal_iterator.5"* %2, i32 0, i32 0
  store %struct.state* %5, %struct.state** %6, align 8
  %7 = getelementptr inbounds %"class.std::priority_queue", %"class.std::priority_queue"* %0, i32 0, i32 0
  %8 = call %struct.state* @_ZNSt6vectorI5stateSaIS0_EE3endEv(%"class.std::vector.0"* %7) #3
  %9 = getelementptr inbounds %"class.__gnu_cxx::__normal_iterator.5", %"class.__gnu_cxx::__normal_iterator.5"* %3, i32 0, i32 0
  store %struct.state* %8, %struct.state** %9, align 8
  %10 = getelementptr inbounds %"class.std::priority_queue", %"class.std::priority_queue"* %0, i32 0, i32 1
  %11 = getelementptr inbounds %"class.__gnu_cxx::__normal_iterator.5", %"class.__gnu_cxx::__normal_iterator.5"* %2, i32 0, i32 0
  %12 = load %struct.state*, %struct.state** %11, align 8
  %13 = getelementptr inbounds %"class.__gnu_cxx::__normal_iterator.5", %"class.__gnu_cxx::__normal_iterator.5"* %3, i32 0, i32 0
  %14 = load %struct.state*, %struct.state** %13, align 8
  call void @_ZSt8pop_heapIN9__gnu_cxx17__normal_iteratorIP5stateSt6vectorIS2_SaIS2_EEEESt4lessIS2_EEvT_SA_T0_(%struct.state* %12, %struct.state* %14)
  %15 = getelementptr inbounds %"class.std::priority_queue", %"class.std::priority_queue"* %0, i32 0, i32 0
  call void @_ZNSt6vectorI5stateSaIS0_EE8pop_backEv(%"class.std::vector.0"* %15) #3
  ret void
}

; Function Attrs: noinline nounwind uwtable
define linkonce_odr %struct.edge* @_ZNSt6vectorI4edgeSaIS0_EE5beginEv(%"class.std::vector"* %0) #4 comdat align 2 {
  %2 = alloca %"class.__gnu_cxx::__normal_iterator", align 8
  %3 = bitcast %"class.std::vector"* %0 to %"struct.std::_Vector_base"*
  %4 = getelementptr inbounds %"struct.std::_Vector_base", %"struct.std::_Vector_base"* %3, i32 0, i32 0
  %5 = getelementptr inbounds %"struct.std::_Vector_base<edge, std::allocator<edge> >::_Vector_impl", %"struct.std::_Vector_base<edge, std::allocator<edge> >::_Vector_impl"* %4, i32 0, i32 0
  call void @_ZN9__gnu_cxx17__normal_iteratorIP4edgeSt6vectorIS1_SaIS1_EEEC2ERKS2_(%"class.__gnu_cxx::__normal_iterator"* %2, %struct.edge** dereferenceable(8) %5) #3
  %6 = getelementptr inbounds %"class.__gnu_cxx::__normal_iterator", %"class.__gnu_cxx::__normal_iterator"* %2, i32 0, i32 0
  %7 = load %struct.edge*, %struct.edge** %6, align 8
  ret %struct.edge* %7
}

; Function Attrs: noinline nounwind uwtable
define linkonce_odr %struct.edge* @_ZNSt6vectorI4edgeSaIS0_EE3endEv(%"class.std::vector"* %0) #4 comdat align 2 {
  %2 = alloca %"class.__gnu_cxx::__normal_iterator", align 8
  %3 = bitcast %"class.std::vector"* %0 to %"struct.std::_Vector_base"*
  %4 = getelementptr inbounds %"struct.std::_Vector_base", %"struct.std::_Vector_base"* %3, i32 0, i32 0
  %5 = getelementptr inbounds %"struct.std::_Vector_base<edge, std::allocator<edge> >::_Vector_impl", %"struct.std::_Vector_base<edge, std::allocator<edge> >::_Vector_impl"* %4, i32 0, i32 1
  call void @_ZN9__gnu_cxx17__normal_iteratorIP4edgeSt6vectorIS1_SaIS1_EEEC2ERKS2_(%"class.__gnu_cxx::__normal_iterator"* %2, %struct.edge** dereferenceable(8) %5) #3
  %6 = getelementptr inbounds %"class.__gnu_cxx::__normal_iterator", %"class.__gnu_cxx::__normal_iterator"* %2, i32 0, i32 0
  %7 = load %struct.edge*, %struct.edge** %6, align 8
  ret %struct.edge* %7
}

; Function Attrs: noinline nounwind uwtable
define linkonce_odr zeroext i1 @_ZN9__gnu_cxxneIP4edgeSt6vectorIS1_SaIS1_EEEEbRKNS_17__normal_iteratorIT_T0_EESB_(%"class.__gnu_cxx::__normal_iterator"* dereferenceable(8) %0, %"class.__gnu_cxx::__normal_iterator"* dereferenceable(8) %1) #4 comdat {
  %3 = call dereferenceable(8) %struct.edge** @_ZNK9__gnu_cxx17__normal_iteratorIP4edgeSt6vectorIS1_SaIS1_EEE4baseEv(%"class.__gnu_cxx::__normal_iterator"* %0) #3
  %4 = load %struct.edge*, %struct.edge** %3, align 8
  %5 = call dereferenceable(8) %struct.edge** @_ZNK9__gnu_cxx17__normal_iteratorIP4edgeSt6vectorIS1_SaIS1_EEE4baseEv(%"class.__gnu_cxx::__normal_iterator"* %1) #3
  %6 = load %struct.edge*, %struct.edge** %5, align 8
  %7 = icmp ne %struct.edge* %4, %6
  ret i1 %7
}

; Function Attrs: noinline nounwind uwtable
define linkonce_odr dereferenceable(24) %struct.edge* @_ZNK9__gnu_cxx17__normal_iteratorIP4edgeSt6vectorIS1_SaIS1_EEEdeEv(%"class.__gnu_cxx::__normal_iterator"* %0) #4 comdat align 2 {
  %2 = getelementptr inbounds %"class.__gnu_cxx::__normal_iterator", %"class.__gnu_cxx::__normal_iterator"* %0, i32 0, i32 0
  %3 = load %struct.edge*, %struct.edge** %2, align 8
  ret %struct.edge* %3
}

; Function Attrs: noinline nounwind uwtable
define linkonce_odr dereferenceable(8) i64* @_ZSt3maxIxERKT_S2_S2_(i64* dereferenceable(8) %0, i64* dereferenceable(8) %1) #4 comdat {
  %3 = load i64, i64* %0, align 8
  %4 = load i64, i64* %1, align 8
  %5 = icmp slt i64 %3, %4
  br i1 %5, label %6, label %7

6:                                                ; preds = %2
  br label %8

7:                                                ; preds = %2
  br label %8

8:                                                ; preds = %7, %6
  %.0 = phi i64* [ %1, %6 ], [ %0, %7 ]
  ret i64* %.0
}

; Function Attrs: nounwind
declare double @sqrt(double) #2

; Function Attrs: nocallback nofree nosync nounwind readnone speculatable willreturn
declare double @llvm.floor.f64(double) #6

; Function Attrs: noinline nounwind uwtable
define linkonce_odr dereferenceable(8) %"class.__gnu_cxx::__normal_iterator"* @_ZN9__gnu_cxx17__normal_iteratorIP4edgeSt6vectorIS1_SaIS1_EEEppEv(%"class.__gnu_cxx::__normal_iterator"* %0) #4 comdat align 2 {
  %2 = getelementptr inbounds %"class.__gnu_cxx::__normal_iterator", %"class.__gnu_cxx::__normal_iterator"* %0, i32 0, i32 0
  %3 = load %struct.edge*, %struct.edge** %2, align 8
  %4 = getelementptr inbounds %struct.edge, %struct.edge* %3, i32 1
  store %struct.edge* %4, %struct.edge** %2, align 8
  ret %"class.__gnu_cxx::__normal_iterator"* %0
}

declare dereferenceable(272) %"class.std::basic_ostream"* @_ZNSolsEi(%"class.std::basic_ostream"*, i32) #1

declare dereferenceable(272) %"class.std::basic_ostream"* @_ZNSolsEPFRSoS_E(%"class.std::basic_ostream"*, %"class.std::basic_ostream"* (%"class.std::basic_ostream"*)*) #1

declare dereferenceable(272) %"class.std::basic_ostream"* @_ZSt4endlIcSt11char_traitsIcEERSt13basic_ostreamIT_T0_ES6_(%"class.std::basic_ostream"* dereferenceable(272)) #1

declare dereferenceable(272) %"class.std::basic_ostream"* @_ZNSolsEx(%"class.std::basic_ostream"*, i64) #1

; Function Attrs: noinline nounwind uwtable
define linkonce_odr void @_ZNSt14priority_queueI5stateSt6vectorIS0_SaIS0_EESt4lessIS0_EED2Ev(%"class.std::priority_queue"* %0) unnamed_addr #4 comdat align 2 {
  %2 = getelementptr inbounds %"class.std::priority_queue", %"class.std::priority_queue"* %0, i32 0, i32 0
  call void @_ZNSt6vectorI5stateSaIS0_EED2Ev(%"class.std::vector.0"* %2) #3
  ret void
}

; Function Attrs: noinline nounwind uwtable
define linkonce_odr void @_ZNSt6vectorI5stateSaIS0_EED2Ev(%"class.std::vector.0"* %0) unnamed_addr #4 comdat align 2 personality i8* bitcast (i32 (...)* @__gxx_personality_v0 to i8*) {
  %2 = bitcast %"class.std::vector.0"* %0 to %"struct.std::_Vector_base.1"*
  %3 = getelementptr inbounds %"struct.std::_Vector_base.1", %"struct.std::_Vector_base.1"* %2, i32 0, i32 0
  %4 = getelementptr inbounds %"struct.std::_Vector_base<state, std::allocator<state> >::_Vector_impl", %"struct.std::_Vector_base<state, std::allocator<state> >::_Vector_impl"* %3, i32 0, i32 0
  %5 = load %struct.state*, %struct.state** %4, align 8
  %6 = bitcast %"class.std::vector.0"* %0 to %"struct.std::_Vector_base.1"*
  %7 = getelementptr inbounds %"struct.std::_Vector_base.1", %"struct.std::_Vector_base.1"* %6, i32 0, i32 0
  %8 = getelementptr inbounds %"struct.std::_Vector_base<state, std::allocator<state> >::_Vector_impl", %"struct.std::_Vector_base<state, std::allocator<state> >::_Vector_impl"* %7, i32 0, i32 1
  %9 = load %struct.state*, %struct.state** %8, align 8
  %10 = bitcast %"class.std::vector.0"* %0 to %"struct.std::_Vector_base.1"*
  %11 = call dereferenceable(1) %"class.std::allocator.2"* @_ZNSt12_Vector_baseI5stateSaIS0_EE19_M_get_Tp_allocatorEv(%"struct.std::_Vector_base.1"* %10) #3
  invoke void @_ZSt8_DestroyIP5stateS0_EvT_S2_RSaIT0_E(%struct.state* %5, %struct.state* %9, %"class.std::allocator.2"* dereferenceable(1) %11)
          to label %12 unwind label %14

12:                                               ; preds = %1
  %13 = bitcast %"class.std::vector.0"* %0 to %"struct.std::_Vector_base.1"*
  call void @_ZNSt12_Vector_baseI5stateSaIS0_EED2Ev(%"struct.std::_Vector_base.1"* %13) #3
  ret void

14:                                               ; preds = %1
  %15 = landingpad { i8*, i32 }
          catch i8* null
  %16 = extractvalue { i8*, i32 } %15, 0
  %17 = extractvalue { i8*, i32 } %15, 1
  %18 = bitcast %"class.std::vector.0"* %0 to %"struct.std::_Vector_base.1"*
  call void @_ZNSt12_Vector_baseI5stateSaIS0_EED2Ev(%"struct.std::_Vector_base.1"* %18) #3
  br label %19

19:                                               ; preds = %14
  call void @__clang_call_terminate(i8* %16) #12
  unreachable
}

; Function Attrs: noinline uwtable
define linkonce_odr void @_ZSt8_DestroyIP5stateS0_EvT_S2_RSaIT0_E(%struct.state* %0, %struct.state* %1, %"class.std::allocator.2"* dereferenceable(1) %2) #0 comdat {
  call void @_ZSt8_DestroyIP5stateEvT_S2_(%struct.state* %0, %struct.state* %1)
  ret void
}

; Function Attrs: noinline nounwind uwtable
define linkonce_odr dereferenceable(1) %"class.std::allocator.2"* @_ZNSt12_Vector_baseI5stateSaIS0_EE19_M_get_Tp_allocatorEv(%"struct.std::_Vector_base.1"* %0) #4 comdat align 2 {
  %2 = getelementptr inbounds %"struct.std::_Vector_base.1", %"struct.std::_Vector_base.1"* %0, i32 0, i32 0
  %3 = bitcast %"struct.std::_Vector_base<state, std::allocator<state> >::_Vector_impl"* %2 to %"class.std::allocator.2"*
  ret %"class.std::allocator.2"* %3
}

; Function Attrs: noinline nounwind uwtable
define linkonce_odr void @_ZNSt12_Vector_baseI5stateSaIS0_EED2Ev(%"struct.std::_Vector_base.1"* %0) unnamed_addr #4 comdat align 2 personality i8* bitcast (i32 (...)* @__gxx_personality_v0 to i8*) {
  %2 = getelementptr inbounds %"struct.std::_Vector_base.1", %"struct.std::_Vector_base.1"* %0, i32 0, i32 0
  %3 = getelementptr inbounds %"struct.std::_Vector_base<state, std::allocator<state> >::_Vector_impl", %"struct.std::_Vector_base<state, std::allocator<state> >::_Vector_impl"* %2, i32 0, i32 0
  %4 = load %struct.state*, %struct.state** %3, align 8
  %5 = getelementptr inbounds %"struct.std::_Vector_base.1", %"struct.std::_Vector_base.1"* %0, i32 0, i32 0
  %6 = getelementptr inbounds %"struct.std::_Vector_base<state, std::allocator<state> >::_Vector_impl", %"struct.std::_Vector_base<state, std::allocator<state> >::_Vector_impl"* %5, i32 0, i32 2
  %7 = load %struct.state*, %struct.state** %6, align 8
  %8 = getelementptr inbounds %"struct.std::_Vector_base.1", %"struct.std::_Vector_base.1"* %0, i32 0, i32 0
  %9 = getelementptr inbounds %"struct.std::_Vector_base<state, std::allocator<state> >::_Vector_impl", %"struct.std::_Vector_base<state, std::allocator<state> >::_Vector_impl"* %8, i32 0, i32 0
  %10 = load %struct.state*, %struct.state** %9, align 8
  %11 = ptrtoint %struct.state* %7 to i64
  %12 = ptrtoint %struct.state* %10 to i64
  %13 = sub i64 %11, %12
  %14 = sdiv exact i64 %13, 16
  invoke void @_ZNSt12_Vector_baseI5stateSaIS0_EE13_M_deallocateEPS0_m(%"struct.std::_Vector_base.1"* %0, %struct.state* %4, i64 %14)
          to label %15 unwind label %17

15:                                               ; preds = %1
  %16 = getelementptr inbounds %"struct.std::_Vector_base.1", %"struct.std::_Vector_base.1"* %0, i32 0, i32 0
  call void @_ZNSt12_Vector_baseI5stateSaIS0_EE12_Vector_implD2Ev(%"struct.std::_Vector_base<state, std::allocator<state> >::_Vector_impl"* %16) #3
  ret void

17:                                               ; preds = %1
  %18 = landingpad { i8*, i32 }
          catch i8* null
  %19 = extractvalue { i8*, i32 } %18, 0
  %20 = extractvalue { i8*, i32 } %18, 1
  %21 = getelementptr inbounds %"struct.std::_Vector_base.1", %"struct.std::_Vector_base.1"* %0, i32 0, i32 0
  call void @_ZNSt12_Vector_baseI5stateSaIS0_EE12_Vector_implD2Ev(%"struct.std::_Vector_base<state, std::allocator<state> >::_Vector_impl"* %21) #3
  br label %22

22:                                               ; preds = %17
  call void @__clang_call_terminate(i8* %19) #12
  unreachable
}

; Function Attrs: noinline noreturn nounwind
define linkonce_odr hidden void @__clang_call_terminate(i8* %0) #7 comdat {
  %2 = call i8* @__cxa_begin_catch(i8* %0) #3
  call void @_ZSt9terminatev() #12
  unreachable
}

declare i8* @__cxa_begin_catch(i8*)

declare void @_ZSt9terminatev()

; Function Attrs: noinline uwtable
define linkonce_odr void @_ZSt8_DestroyIP5stateEvT_S2_(%struct.state* %0, %struct.state* %1) #0 comdat {
  call void @_ZNSt12_Destroy_auxILb1EE9__destroyIP5stateEEvT_S4_(%struct.state* %0, %struct.state* %1)
  ret void
}

; Function Attrs: noinline nounwind uwtable
define linkonce_odr void @_ZNSt12_Destroy_auxILb1EE9__destroyIP5stateEEvT_S4_(%struct.state* %0, %struct.state* %1) #4 comdat align 2 {
  ret void
}

; Function Attrs: noinline uwtable
define linkonce_odr void @_ZNSt12_Vector_baseI5stateSaIS0_EE13_M_deallocateEPS0_m(%"struct.std::_Vector_base.1"* %0, %struct.state* %1, i64 %2) #0 comdat align 2 {
  %4 = icmp ne %struct.state* %1, null
  br i1 %4, label %5, label %8

5:                                                ; preds = %3
  %6 = getelementptr inbounds %"struct.std::_Vector_base.1", %"struct.std::_Vector_base.1"* %0, i32 0, i32 0
  %7 = bitcast %"struct.std::_Vector_base<state, std::allocator<state> >::_Vector_impl"* %6 to %"class.std::allocator.2"*
  call void @_ZNSt16allocator_traitsISaI5stateEE10deallocateERS1_PS0_m(%"class.std::allocator.2"* dereferenceable(1) %7, %struct.state* %1, i64 %2)
  br label %8

8:                                                ; preds = %5, %3
  ret void
}

; Function Attrs: noinline nounwind uwtable
define linkonce_odr void @_ZNSt12_Vector_baseI5stateSaIS0_EE12_Vector_implD2Ev(%"struct.std::_Vector_base<state, std::allocator<state> >::_Vector_impl"* %0) unnamed_addr #4 comdat align 2 {
  %2 = bitcast %"struct.std::_Vector_base<state, std::allocator<state> >::_Vector_impl"* %0 to %"class.std::allocator.2"*
  call void @_ZNSaI5stateED2Ev(%"class.std::allocator.2"* %2) #3
  ret void
}

; Function Attrs: noinline uwtable
define linkonce_odr void @_ZNSt16allocator_traitsISaI5stateEE10deallocateERS1_PS0_m(%"class.std::allocator.2"* dereferenceable(1) %0, %struct.state* %1, i64 %2) #0 comdat align 2 {
  %4 = bitcast %"class.std::allocator.2"* %0 to %"class.__gnu_cxx::new_allocator.3"*
  call void @_ZN9__gnu_cxx13new_allocatorI5stateE10deallocateEPS1_m(%"class.__gnu_cxx::new_allocator.3"* %4, %struct.state* %1, i64 %2)
  ret void
}

; Function Attrs: noinline nounwind uwtable
define linkonce_odr void @_ZN9__gnu_cxx13new_allocatorI5stateE10deallocateEPS1_m(%"class.__gnu_cxx::new_allocator.3"* %0, %struct.state* %1, i64 %2) #4 comdat align 2 {
  %4 = bitcast %struct.state* %1 to i8*
  call void @_ZdlPv(i8* %4) #3
  ret void
}

; Function Attrs: nobuiltin nounwind
declare void @_ZdlPv(i8*) #8

; Function Attrs: noinline nounwind uwtable
define linkonce_odr void @_ZNSaI5stateED2Ev(%"class.std::allocator.2"* %0) unnamed_addr #4 comdat align 2 {
  %2 = bitcast %"class.std::allocator.2"* %0 to %"class.__gnu_cxx::new_allocator.3"*
  call void @_ZN9__gnu_cxx13new_allocatorI5stateED2Ev(%"class.__gnu_cxx::new_allocator.3"* %2) #3
  ret void
}

; Function Attrs: noinline nounwind uwtable
define linkonce_odr void @_ZN9__gnu_cxx13new_allocatorI5stateED2Ev(%"class.__gnu_cxx::new_allocator.3"* %0) unnamed_addr #4 comdat align 2 {
  ret void
}

; Function Attrs: noinline uwtable
define linkonce_odr void @_ZNSt12_Vector_baseI4edgeSaIS0_EEC2Ev(%"struct.std::_Vector_base"* %0) unnamed_addr #0 comdat align 2 {
  %2 = getelementptr inbounds %"struct.std::_Vector_base", %"struct.std::_Vector_base"* %0, i32 0, i32 0
  call void @_ZNSt12_Vector_baseI4edgeSaIS0_EE12_Vector_implC2Ev(%"struct.std::_Vector_base<edge, std::allocator<edge> >::_Vector_impl"* %2)
  ret void
}

; Function Attrs: noinline nounwind uwtable
define linkonce_odr void @_ZNSt12_Vector_baseI4edgeSaIS0_EE12_Vector_implC2Ev(%"struct.std::_Vector_base<edge, std::allocator<edge> >::_Vector_impl"* %0) unnamed_addr #4 comdat align 2 {
  %2 = bitcast %"struct.std::_Vector_base<edge, std::allocator<edge> >::_Vector_impl"* %0 to %"class.std::allocator"*
  call void @_ZNSaI4edgeEC2Ev(%"class.std::allocator"* %2) #3
  %3 = getelementptr inbounds %"struct.std::_Vector_base<edge, std::allocator<edge> >::_Vector_impl", %"struct.std::_Vector_base<edge, std::allocator<edge> >::_Vector_impl"* %0, i32 0, i32 0
  store %struct.edge* null, %struct.edge** %3, align 8
  %4 = getelementptr inbounds %"struct.std::_Vector_base<edge, std::allocator<edge> >::_Vector_impl", %"struct.std::_Vector_base<edge, std::allocator<edge> >::_Vector_impl"* %0, i32 0, i32 1
  store %struct.edge* null, %struct.edge** %4, align 8
  %5 = getelementptr inbounds %"struct.std::_Vector_base<edge, std::allocator<edge> >::_Vector_impl", %"struct.std::_Vector_base<edge, std::allocator<edge> >::_Vector_impl"* %0, i32 0, i32 2
  store %struct.edge* null, %struct.edge** %5, align 8
  ret void
}

; Function Attrs: noinline nounwind uwtable
define linkonce_odr void @_ZNSaI4edgeEC2Ev(%"class.std::allocator"* %0) unnamed_addr #4 comdat align 2 {
  %2 = bitcast %"class.std::allocator"* %0 to %"class.__gnu_cxx::new_allocator"*
  call void @_ZN9__gnu_cxx13new_allocatorI4edgeEC2Ev(%"class.__gnu_cxx::new_allocator"* %2) #3
  ret void
}

; Function Attrs: noinline nounwind uwtable
define linkonce_odr void @_ZN9__gnu_cxx13new_allocatorI4edgeEC2Ev(%"class.__gnu_cxx::new_allocator"* %0) unnamed_addr #4 comdat align 2 {
  ret void
}

; Function Attrs: noinline uwtable
define linkonce_odr void @_ZSt8_DestroyIP4edgeS0_EvT_S2_RSaIT0_E(%struct.edge* %0, %struct.edge* %1, %"class.std::allocator"* dereferenceable(1) %2) #0 comdat {
  call void @_ZSt8_DestroyIP4edgeEvT_S2_(%struct.edge* %0, %struct.edge* %1)
  ret void
}

; Function Attrs: noinline nounwind uwtable
define linkonce_odr dereferenceable(1) %"class.std::allocator"* @_ZNSt12_Vector_baseI4edgeSaIS0_EE19_M_get_Tp_allocatorEv(%"struct.std::_Vector_base"* %0) #4 comdat align 2 {
  %2 = getelementptr inbounds %"struct.std::_Vector_base", %"struct.std::_Vector_base"* %0, i32 0, i32 0
  %3 = bitcast %"struct.std::_Vector_base<edge, std::allocator<edge> >::_Vector_impl"* %2 to %"class.std::allocator"*
  ret %"class.std::allocator"* %3
}

; Function Attrs: noinline nounwind uwtable
define linkonce_odr void @_ZNSt12_Vector_baseI4edgeSaIS0_EED2Ev(%"struct.std::_Vector_base"* %0) unnamed_addr #4 comdat align 2 personality i8* bitcast (i32 (...)* @__gxx_personality_v0 to i8*) {
  %2 = getelementptr inbounds %"struct.std::_Vector_base", %"struct.std::_Vector_base"* %0, i32 0, i32 0
  %3 = getelementptr inbounds %"struct.std::_Vector_base<edge, std::allocator<edge> >::_Vector_impl", %"struct.std::_Vector_base<edge, std::allocator<edge> >::_Vector_impl"* %2, i32 0, i32 0
  %4 = load %struct.edge*, %struct.edge** %3, align 8
  %5 = getelementptr inbounds %"struct.std::_Vector_base", %"struct.std::_Vector_base"* %0, i32 0, i32 0
  %6 = getelementptr inbounds %"struct.std::_Vector_base<edge, std::allocator<edge> >::_Vector_impl", %"struct.std::_Vector_base<edge, std::allocator<edge> >::_Vector_impl"* %5, i32 0, i32 2
  %7 = load %struct.edge*, %struct.edge** %6, align 8
  %8 = getelementptr inbounds %"struct.std::_Vector_base", %"struct.std::_Vector_base"* %0, i32 0, i32 0
  %9 = getelementptr inbounds %"struct.std::_Vector_base<edge, std::allocator<edge> >::_Vector_impl", %"struct.std::_Vector_base<edge, std::allocator<edge> >::_Vector_impl"* %8, i32 0, i32 0
  %10 = load %struct.edge*, %struct.edge** %9, align 8
  %11 = ptrtoint %struct.edge* %7 to i64
  %12 = ptrtoint %struct.edge* %10 to i64
  %13 = sub i64 %11, %12
  %14 = sdiv exact i64 %13, 24
  invoke void @_ZNSt12_Vector_baseI4edgeSaIS0_EE13_M_deallocateEPS0_m(%"struct.std::_Vector_base"* %0, %struct.edge* %4, i64 %14)
          to label %15 unwind label %17

15:                                               ; preds = %1
  %16 = getelementptr inbounds %"struct.std::_Vector_base", %"struct.std::_Vector_base"* %0, i32 0, i32 0
  call void @_ZNSt12_Vector_baseI4edgeSaIS0_EE12_Vector_implD2Ev(%"struct.std::_Vector_base<edge, std::allocator<edge> >::_Vector_impl"* %16) #3
  ret void

17:                                               ; preds = %1
  %18 = landingpad { i8*, i32 }
          catch i8* null
  %19 = extractvalue { i8*, i32 } %18, 0
  %20 = extractvalue { i8*, i32 } %18, 1
  %21 = getelementptr inbounds %"struct.std::_Vector_base", %"struct.std::_Vector_base"* %0, i32 0, i32 0
  call void @_ZNSt12_Vector_baseI4edgeSaIS0_EE12_Vector_implD2Ev(%"struct.std::_Vector_base<edge, std::allocator<edge> >::_Vector_impl"* %21) #3
  br label %22

22:                                               ; preds = %17
  call void @__clang_call_terminate(i8* %19) #12
  unreachable
}

; Function Attrs: noinline uwtable
define linkonce_odr void @_ZSt8_DestroyIP4edgeEvT_S2_(%struct.edge* %0, %struct.edge* %1) #0 comdat {
  call void @_ZNSt12_Destroy_auxILb1EE9__destroyIP4edgeEEvT_S4_(%struct.edge* %0, %struct.edge* %1)
  ret void
}

; Function Attrs: noinline nounwind uwtable
define linkonce_odr void @_ZNSt12_Destroy_auxILb1EE9__destroyIP4edgeEEvT_S4_(%struct.edge* %0, %struct.edge* %1) #4 comdat align 2 {
  ret void
}

; Function Attrs: noinline uwtable
define linkonce_odr void @_ZNSt12_Vector_baseI4edgeSaIS0_EE13_M_deallocateEPS0_m(%"struct.std::_Vector_base"* %0, %struct.edge* %1, i64 %2) #0 comdat align 2 {
  %4 = icmp ne %struct.edge* %1, null
  br i1 %4, label %5, label %8

5:                                                ; preds = %3
  %6 = getelementptr inbounds %"struct.std::_Vector_base", %"struct.std::_Vector_base"* %0, i32 0, i32 0
  %7 = bitcast %"struct.std::_Vector_base<edge, std::allocator<edge> >::_Vector_impl"* %6 to %"class.std::allocator"*
  call void @_ZNSt16allocator_traitsISaI4edgeEE10deallocateERS1_PS0_m(%"class.std::allocator"* dereferenceable(1) %7, %struct.edge* %1, i64 %2)
  br label %8

8:                                                ; preds = %5, %3
  ret void
}

; Function Attrs: noinline nounwind uwtable
define linkonce_odr void @_ZNSt12_Vector_baseI4edgeSaIS0_EE12_Vector_implD2Ev(%"struct.std::_Vector_base<edge, std::allocator<edge> >::_Vector_impl"* %0) unnamed_addr #4 comdat align 2 {
  %2 = bitcast %"struct.std::_Vector_base<edge, std::allocator<edge> >::_Vector_impl"* %0 to %"class.std::allocator"*
  call void @_ZNSaI4edgeED2Ev(%"class.std::allocator"* %2) #3
  ret void
}

; Function Attrs: noinline uwtable
define linkonce_odr void @_ZNSt16allocator_traitsISaI4edgeEE10deallocateERS1_PS0_m(%"class.std::allocator"* dereferenceable(1) %0, %struct.edge* %1, i64 %2) #0 comdat align 2 {
  %4 = bitcast %"class.std::allocator"* %0 to %"class.__gnu_cxx::new_allocator"*
  call void @_ZN9__gnu_cxx13new_allocatorI4edgeE10deallocateEPS1_m(%"class.__gnu_cxx::new_allocator"* %4, %struct.edge* %1, i64 %2)
  ret void
}

; Function Attrs: noinline nounwind uwtable
define linkonce_odr void @_ZN9__gnu_cxx13new_allocatorI4edgeE10deallocateEPS1_m(%"class.__gnu_cxx::new_allocator"* %0, %struct.edge* %1, i64 %2) #4 comdat align 2 {
  %4 = bitcast %struct.edge* %1 to i8*
  call void @_ZdlPv(i8* %4) #3
  ret void
}

; Function Attrs: noinline nounwind uwtable
define linkonce_odr void @_ZNSaI4edgeED2Ev(%"class.std::allocator"* %0) unnamed_addr #4 comdat align 2 {
  %2 = bitcast %"class.std::allocator"* %0 to %"class.__gnu_cxx::new_allocator"*
  call void @_ZN9__gnu_cxx13new_allocatorI4edgeED2Ev(%"class.__gnu_cxx::new_allocator"* %2) #3
  ret void
}

; Function Attrs: noinline nounwind uwtable
define linkonce_odr void @_ZN9__gnu_cxx13new_allocatorI4edgeED2Ev(%"class.__gnu_cxx::new_allocator"* %0) unnamed_addr #4 comdat align 2 {
  ret void
}

; Function Attrs: noinline uwtable
define linkonce_odr void @_ZNSt6vectorI4edgeSaIS0_EE12emplace_backIJS0_EEEvDpOT_(%"class.std::vector"* %0, %struct.edge* dereferenceable(24) %1) #0 comdat align 2 {
  %3 = alloca %"class.__gnu_cxx::__normal_iterator", align 8
  %4 = bitcast %"class.std::vector"* %0 to %"struct.std::_Vector_base"*
  %5 = getelementptr inbounds %"struct.std::_Vector_base", %"struct.std::_Vector_base"* %4, i32 0, i32 0
  %6 = getelementptr inbounds %"struct.std::_Vector_base<edge, std::allocator<edge> >::_Vector_impl", %"struct.std::_Vector_base<edge, std::allocator<edge> >::_Vector_impl"* %5, i32 0, i32 1
  %7 = load %struct.edge*, %struct.edge** %6, align 8
  %8 = bitcast %"class.std::vector"* %0 to %"struct.std::_Vector_base"*
  %9 = getelementptr inbounds %"struct.std::_Vector_base", %"struct.std::_Vector_base"* %8, i32 0, i32 0
  %10 = getelementptr inbounds %"struct.std::_Vector_base<edge, std::allocator<edge> >::_Vector_impl", %"struct.std::_Vector_base<edge, std::allocator<edge> >::_Vector_impl"* %9, i32 0, i32 2
  %11 = load %struct.edge*, %struct.edge** %10, align 8
  %12 = icmp ne %struct.edge* %7, %11
  br i1 %12, label %13, label %27

13:                                               ; preds = %2
  %14 = bitcast %"class.std::vector"* %0 to %"struct.std::_Vector_base"*
  %15 = getelementptr inbounds %"struct.std::_Vector_base", %"struct.std::_Vector_base"* %14, i32 0, i32 0
  %16 = bitcast %"struct.std::_Vector_base<edge, std::allocator<edge> >::_Vector_impl"* %15 to %"class.std::allocator"*
  %17 = bitcast %"class.std::vector"* %0 to %"struct.std::_Vector_base"*
  %18 = getelementptr inbounds %"struct.std::_Vector_base", %"struct.std::_Vector_base"* %17, i32 0, i32 0
  %19 = getelementptr inbounds %"struct.std::_Vector_base<edge, std::allocator<edge> >::_Vector_impl", %"struct.std::_Vector_base<edge, std::allocator<edge> >::_Vector_impl"* %18, i32 0, i32 1
  %20 = load %struct.edge*, %struct.edge** %19, align 8
  %21 = call dereferenceable(24) %struct.edge* @_ZSt7forwardI4edgeEOT_RNSt16remove_referenceIS1_E4typeE(%struct.edge* dereferenceable(24) %1) #3
  call void @_ZNSt16allocator_traitsISaI4edgeEE9constructIS0_JS0_EEEvRS1_PT_DpOT0_(%"class.std::allocator"* dereferenceable(1) %16, %struct.edge* %20, %struct.edge* dereferenceable(24) %21)
  %22 = bitcast %"class.std::vector"* %0 to %"struct.std::_Vector_base"*
  %23 = getelementptr inbounds %"struct.std::_Vector_base", %"struct.std::_Vector_base"* %22, i32 0, i32 0
  %24 = getelementptr inbounds %"struct.std::_Vector_base<edge, std::allocator<edge> >::_Vector_impl", %"struct.std::_Vector_base<edge, std::allocator<edge> >::_Vector_impl"* %23, i32 0, i32 1
  %25 = load %struct.edge*, %struct.edge** %24, align 8
  %26 = getelementptr inbounds %struct.edge, %struct.edge* %25, i32 1
  store %struct.edge* %26, %struct.edge** %24, align 8
  br label %33

27:                                               ; preds = %2
  %28 = call %struct.edge* @_ZNSt6vectorI4edgeSaIS0_EE3endEv(%"class.std::vector"* %0) #3
  %29 = getelementptr inbounds %"class.__gnu_cxx::__normal_iterator", %"class.__gnu_cxx::__normal_iterator"* %3, i32 0, i32 0
  store %struct.edge* %28, %struct.edge** %29, align 8
  %30 = call dereferenceable(24) %struct.edge* @_ZSt7forwardI4edgeEOT_RNSt16remove_referenceIS1_E4typeE(%struct.edge* dereferenceable(24) %1) #3
  %31 = getelementptr inbounds %"class.__gnu_cxx::__normal_iterator", %"class.__gnu_cxx::__normal_iterator"* %3, i32 0, i32 0
  %32 = load %struct.edge*, %struct.edge** %31, align 8
  call void @_ZNSt6vectorI4edgeSaIS0_EE17_M_realloc_insertIJS0_EEEvN9__gnu_cxx17__normal_iteratorIPS0_S2_EEDpOT_(%"class.std::vector"* %0, %struct.edge* %32, %struct.edge* dereferenceable(24) %30)
  br label %33

33:                                               ; preds = %27, %13
  ret void
}

; Function Attrs: noinline nounwind uwtable
define linkonce_odr dereferenceable(24) %struct.edge* @_ZSt4moveIR4edgeEONSt16remove_referenceIT_E4typeEOS3_(%struct.edge* dereferenceable(24) %0) #4 comdat {
  ret %struct.edge* %0
}

; Function Attrs: noinline uwtable
define linkonce_odr void @_ZNSt16allocator_traitsISaI4edgeEE9constructIS0_JS0_EEEvRS1_PT_DpOT0_(%"class.std::allocator"* dereferenceable(1) %0, %struct.edge* %1, %struct.edge* dereferenceable(24) %2) #0 comdat align 2 {
  %4 = bitcast %"class.std::allocator"* %0 to %"class.__gnu_cxx::new_allocator"*
  %5 = call dereferenceable(24) %struct.edge* @_ZSt7forwardI4edgeEOT_RNSt16remove_referenceIS1_E4typeE(%struct.edge* dereferenceable(24) %2) #3
  call void @_ZN9__gnu_cxx13new_allocatorI4edgeE9constructIS1_JS1_EEEvPT_DpOT0_(%"class.__gnu_cxx::new_allocator"* %4, %struct.edge* %1, %struct.edge* dereferenceable(24) %5)
  ret void
}

; Function Attrs: noinline nounwind uwtable
define linkonce_odr dereferenceable(24) %struct.edge* @_ZSt7forwardI4edgeEOT_RNSt16remove_referenceIS1_E4typeE(%struct.edge* dereferenceable(24) %0) #4 comdat {
  ret %struct.edge* %0
}

; Function Attrs: noinline uwtable
define linkonce_odr void @_ZNSt6vectorI4edgeSaIS0_EE17_M_realloc_insertIJS0_EEEvN9__gnu_cxx17__normal_iteratorIPS0_S2_EEDpOT_(%"class.std::vector"* %0, %struct.edge* %1, %struct.edge* dereferenceable(24) %2) #0 comdat align 2 personality i8* bitcast (i32 (...)* @__gxx_personality_v0 to i8*) {
  %4 = alloca %"class.__gnu_cxx::__normal_iterator", align 8
  %5 = alloca %"class.__gnu_cxx::__normal_iterator", align 8
  %6 = getelementptr inbounds %"class.__gnu_cxx::__normal_iterator", %"class.__gnu_cxx::__normal_iterator"* %4, i32 0, i32 0
  store %struct.edge* %1, %struct.edge** %6, align 8
  %7 = call i64 @_ZNKSt6vectorI4edgeSaIS0_EE12_M_check_lenEmPKc(%"class.std::vector"* %0, i64 1, i8* getelementptr inbounds ([26 x i8], [26 x i8]* @.str, i32 0, i32 0))
  %8 = bitcast %"class.std::vector"* %0 to %"struct.std::_Vector_base"*
  %9 = getelementptr inbounds %"struct.std::_Vector_base", %"struct.std::_Vector_base"* %8, i32 0, i32 0
  %10 = getelementptr inbounds %"struct.std::_Vector_base<edge, std::allocator<edge> >::_Vector_impl", %"struct.std::_Vector_base<edge, std::allocator<edge> >::_Vector_impl"* %9, i32 0, i32 0
  %11 = load %struct.edge*, %struct.edge** %10, align 8
  %12 = bitcast %"class.std::vector"* %0 to %"struct.std::_Vector_base"*
  %13 = getelementptr inbounds %"struct.std::_Vector_base", %"struct.std::_Vector_base"* %12, i32 0, i32 0
  %14 = getelementptr inbounds %"struct.std::_Vector_base<edge, std::allocator<edge> >::_Vector_impl", %"struct.std::_Vector_base<edge, std::allocator<edge> >::_Vector_impl"* %13, i32 0, i32 1
  %15 = load %struct.edge*, %struct.edge** %14, align 8
  %16 = call %struct.edge* @_ZNSt6vectorI4edgeSaIS0_EE5beginEv(%"class.std::vector"* %0) #3
  %17 = getelementptr inbounds %"class.__gnu_cxx::__normal_iterator", %"class.__gnu_cxx::__normal_iterator"* %5, i32 0, i32 0
  store %struct.edge* %16, %struct.edge** %17, align 8
  %18 = call i64 @_ZN9__gnu_cxxmiIP4edgeSt6vectorIS1_SaIS1_EEEENS_17__normal_iteratorIT_T0_E15difference_typeERKS9_SC_(%"class.__gnu_cxx::__normal_iterator"* dereferenceable(8) %4, %"class.__gnu_cxx::__normal_iterator"* dereferenceable(8) %5) #3
  %19 = bitcast %"class.std::vector"* %0 to %"struct.std::_Vector_base"*
  %20 = call %struct.edge* @_ZNSt12_Vector_baseI4edgeSaIS0_EE11_M_allocateEm(%"struct.std::_Vector_base"* %19, i64 %7)
  %21 = bitcast %"class.std::vector"* %0 to %"struct.std::_Vector_base"*
  %22 = getelementptr inbounds %"struct.std::_Vector_base", %"struct.std::_Vector_base"* %21, i32 0, i32 0
  %23 = bitcast %"struct.std::_Vector_base<edge, std::allocator<edge> >::_Vector_impl"* %22 to %"class.std::allocator"*
  %24 = getelementptr inbounds %struct.edge, %struct.edge* %20, i64 %18
  %25 = call dereferenceable(24) %struct.edge* @_ZSt7forwardI4edgeEOT_RNSt16remove_referenceIS1_E4typeE(%struct.edge* dereferenceable(24) %2) #3
  invoke void @_ZNSt16allocator_traitsISaI4edgeEE9constructIS0_JS0_EEEvRS1_PT_DpOT0_(%"class.std::allocator"* dereferenceable(1) %23, %struct.edge* %24, %struct.edge* dereferenceable(24) %25)
          to label %26 unwind label %40

26:                                               ; preds = %3
  %27 = call dereferenceable(8) %struct.edge** @_ZNK9__gnu_cxx17__normal_iteratorIP4edgeSt6vectorIS1_SaIS1_EEE4baseEv(%"class.__gnu_cxx::__normal_iterator"* %4) #3
  %28 = load %struct.edge*, %struct.edge** %27, align 8
  %29 = bitcast %"class.std::vector"* %0 to %"struct.std::_Vector_base"*
  %30 = call dereferenceable(1) %"class.std::allocator"* @_ZNSt12_Vector_baseI4edgeSaIS0_EE19_M_get_Tp_allocatorEv(%"struct.std::_Vector_base"* %29) #3
  %31 = invoke %struct.edge* @_ZSt34__uninitialized_move_if_noexcept_aIP4edgeS1_SaIS0_EET0_T_S4_S3_RT1_(%struct.edge* %11, %struct.edge* %28, %struct.edge* %20, %"class.std::allocator"* dereferenceable(1) %30)
          to label %32 unwind label %40

32:                                               ; preds = %26
  %33 = getelementptr inbounds %struct.edge, %struct.edge* %31, i32 1
  %34 = call dereferenceable(8) %struct.edge** @_ZNK9__gnu_cxx17__normal_iteratorIP4edgeSt6vectorIS1_SaIS1_EEE4baseEv(%"class.__gnu_cxx::__normal_iterator"* %4) #3
  %35 = load %struct.edge*, %struct.edge** %34, align 8
  %36 = bitcast %"class.std::vector"* %0 to %"struct.std::_Vector_base"*
  %37 = call dereferenceable(1) %"class.std::allocator"* @_ZNSt12_Vector_baseI4edgeSaIS0_EE19_M_get_Tp_allocatorEv(%"struct.std::_Vector_base"* %36) #3
  %38 = invoke %struct.edge* @_ZSt34__uninitialized_move_if_noexcept_aIP4edgeS1_SaIS0_EET0_T_S4_S3_RT1_(%struct.edge* %35, %struct.edge* %15, %struct.edge* %33, %"class.std::allocator"* dereferenceable(1) %37)
          to label %39 unwind label %40

39:                                               ; preds = %32
  br label %65

40:                                               ; preds = %32, %26, %3
  %.0 = phi %struct.edge* [ %33, %32 ], [ null, %26 ], [ %20, %3 ]
  %41 = landingpad { i8*, i32 }
          catch i8* null
  %42 = extractvalue { i8*, i32 } %41, 0
  %43 = extractvalue { i8*, i32 } %41, 1
  br label %44

44:                                               ; preds = %40
  %45 = call i8* @__cxa_begin_catch(i8* %42) #3
  %46 = icmp ne %struct.edge* %.0, null
  br i1 %46, label %57, label %47

47:                                               ; preds = %44
  %48 = bitcast %"class.std::vector"* %0 to %"struct.std::_Vector_base"*
  %49 = getelementptr inbounds %"struct.std::_Vector_base", %"struct.std::_Vector_base"* %48, i32 0, i32 0
  %50 = bitcast %"struct.std::_Vector_base<edge, std::allocator<edge> >::_Vector_impl"* %49 to %"class.std::allocator"*
  %51 = getelementptr inbounds %struct.edge, %struct.edge* %20, i64 %18
  invoke void @_ZNSt16allocator_traitsISaI4edgeEE7destroyIS0_EEvRS1_PT_(%"class.std::allocator"* dereferenceable(1) %50, %struct.edge* %51)
          to label %52 unwind label %53

52:                                               ; preds = %47
  br label %61

53:                                               ; preds = %63, %61, %57, %47
  %54 = landingpad { i8*, i32 }
          cleanup
  %55 = extractvalue { i8*, i32 } %54, 0
  %56 = extractvalue { i8*, i32 } %54, 1
  invoke void @__cxa_end_catch()
          to label %64 unwind label %90

57:                                               ; preds = %44
  %58 = bitcast %"class.std::vector"* %0 to %"struct.std::_Vector_base"*
  %59 = call dereferenceable(1) %"class.std::allocator"* @_ZNSt12_Vector_baseI4edgeSaIS0_EE19_M_get_Tp_allocatorEv(%"struct.std::_Vector_base"* %58) #3
  invoke void @_ZSt8_DestroyIP4edgeS0_EvT_S2_RSaIT0_E(%struct.edge* %20, %struct.edge* %.0, %"class.std::allocator"* dereferenceable(1) %59)
          to label %60 unwind label %53

60:                                               ; preds = %57
  br label %61

61:                                               ; preds = %60, %52
  %62 = bitcast %"class.std::vector"* %0 to %"struct.std::_Vector_base"*
  invoke void @_ZNSt12_Vector_baseI4edgeSaIS0_EE13_M_deallocateEPS0_m(%"struct.std::_Vector_base"* %62, %struct.edge* %20, i64 %7)
          to label %63 unwind label %53

63:                                               ; preds = %61
  invoke void @__cxa_rethrow() #13
          to label %93 unwind label %53

64:                                               ; preds = %53
  br label %87

65:                                               ; preds = %39
  %66 = bitcast %"class.std::vector"* %0 to %"struct.std::_Vector_base"*
  %67 = call dereferenceable(1) %"class.std::allocator"* @_ZNSt12_Vector_baseI4edgeSaIS0_EE19_M_get_Tp_allocatorEv(%"struct.std::_Vector_base"* %66) #3
  call void @_ZSt8_DestroyIP4edgeS0_EvT_S2_RSaIT0_E(%struct.edge* %11, %struct.edge* %15, %"class.std::allocator"* dereferenceable(1) %67)
  %68 = bitcast %"class.std::vector"* %0 to %"struct.std::_Vector_base"*
  %69 = bitcast %"class.std::vector"* %0 to %"struct.std::_Vector_base"*
  %70 = getelementptr inbounds %"struct.std::_Vector_base", %"struct.std::_Vector_base"* %69, i32 0, i32 0
  %71 = getelementptr inbounds %"struct.std::_Vector_base<edge, std::allocator<edge> >::_Vector_impl", %"struct.std::_Vector_base<edge, std::allocator<edge> >::_Vector_impl"* %70, i32 0, i32 2
  %72 = load %struct.edge*, %struct.edge** %71, align 8
  %73 = ptrtoint %struct.edge* %72 to i64
  %74 = ptrtoint %struct.edge* %11 to i64
  %75 = sub i64 %73, %74
  %76 = sdiv exact i64 %75, 24
  call void @_ZNSt12_Vector_baseI4edgeSaIS0_EE13_M_deallocateEPS0_m(%"struct.std::_Vector_base"* %68, %struct.edge* %11, i64 %76)
  %77 = bitcast %"class.std::vector"* %0 to %"struct.std::_Vector_base"*
  %78 = getelementptr inbounds %"struct.std::_Vector_base", %"struct.std::_Vector_base"* %77, i32 0, i32 0
  %79 = getelementptr inbounds %"struct.std::_Vector_base<edge, std::allocator<edge> >::_Vector_impl", %"struct.std::_Vector_base<edge, std::allocator<edge> >::_Vector_impl"* %78, i32 0, i32 0
  store %struct.edge* %20, %struct.edge** %79, align 8
  %80 = bitcast %"class.std::vector"* %0 to %"struct.std::_Vector_base"*
  %81 = getelementptr inbounds %"struct.std::_Vector_base", %"struct.std::_Vector_base"* %80, i32 0, i32 0
  %82 = getelementptr inbounds %"struct.std::_Vector_base<edge, std::allocator<edge> >::_Vector_impl", %"struct.std::_Vector_base<edge, std::allocator<edge> >::_Vector_impl"* %81, i32 0, i32 1
  store %struct.edge* %38, %struct.edge** %82, align 8
  %83 = getelementptr inbounds %struct.edge, %struct.edge* %20, i64 %7
  %84 = bitcast %"class.std::vector"* %0 to %"struct.std::_Vector_base"*
  %85 = getelementptr inbounds %"struct.std::_Vector_base", %"struct.std::_Vector_base"* %84, i32 0, i32 0
  %86 = getelementptr inbounds %"struct.std::_Vector_base<edge, std::allocator<edge> >::_Vector_impl", %"struct.std::_Vector_base<edge, std::allocator<edge> >::_Vector_impl"* %85, i32 0, i32 2
  store %struct.edge* %83, %struct.edge** %86, align 8
  ret void

87:                                               ; preds = %64
  %88 = insertvalue { i8*, i32 } undef, i8* %55, 0
  %89 = insertvalue { i8*, i32 } %88, i32 %56, 1
  resume { i8*, i32 } %89

90:                                               ; preds = %53
  %91 = landingpad { i8*, i32 }
          catch i8* null
  %92 = extractvalue { i8*, i32 } %91, 0
  call void @__clang_call_terminate(i8* %92) #12
  unreachable

93:                                               ; preds = %63
  unreachable
}

; Function Attrs: noinline nounwind uwtable
define linkonce_odr void @_ZN9__gnu_cxx13new_allocatorI4edgeE9constructIS1_JS1_EEEvPT_DpOT0_(%"class.__gnu_cxx::new_allocator"* %0, %struct.edge* %1, %struct.edge* dereferenceable(24) %2) #4 comdat align 2 {
  %4 = bitcast %struct.edge* %1 to i8*
  %5 = bitcast i8* %4 to %struct.edge*
  %6 = call dereferenceable(24) %struct.edge* @_ZSt7forwardI4edgeEOT_RNSt16remove_referenceIS1_E4typeE(%struct.edge* dereferenceable(24) %2) #3
  %7 = bitcast %struct.edge* %5 to i8*
  %8 = bitcast %struct.edge* %6 to i8*
  call void @llvm.memcpy.p0i8.p0i8.i64(i8* align 8 %7, i8* align 8 %8, i64 24, i1 false)
  ret void
}

; Function Attrs: noinline uwtable
define linkonce_odr i64 @_ZNKSt6vectorI4edgeSaIS0_EE12_M_check_lenEmPKc(%"class.std::vector"* %0, i64 %1, i8* %2) #0 comdat align 2 {
  %4 = alloca i64, align 8
  %5 = alloca i64, align 8
  store i64 %1, i64* %4, align 8
  %6 = call i64 @_ZNKSt6vectorI4edgeSaIS0_EE8max_sizeEv(%"class.std::vector"* %0) #3
  %7 = call i64 @_ZNKSt6vectorI4edgeSaIS0_EE4sizeEv(%"class.std::vector"* %0) #3
  %8 = sub i64 %6, %7
  %9 = load i64, i64* %4, align 8
  %10 = icmp ult i64 %8, %9
  br i1 %10, label %11, label %12

11:                                               ; preds = %3
  call void @_ZSt20__throw_length_errorPKc(i8* %2) #13
  unreachable

12:                                               ; preds = %3
  %13 = call i64 @_ZNKSt6vectorI4edgeSaIS0_EE4sizeEv(%"class.std::vector"* %0) #3
  %14 = call i64 @_ZNKSt6vectorI4edgeSaIS0_EE4sizeEv(%"class.std::vector"* %0) #3
  store i64 %14, i64* %5, align 8
  %15 = call dereferenceable(8) i64* @_ZSt3maxImERKT_S2_S2_(i64* dereferenceable(8) %5, i64* dereferenceable(8) %4)
  %16 = load i64, i64* %15, align 8
  %17 = add i64 %13, %16
  %18 = call i64 @_ZNKSt6vectorI4edgeSaIS0_EE4sizeEv(%"class.std::vector"* %0) #3
  %19 = icmp ult i64 %17, %18
  br i1 %19, label %23, label %20

20:                                               ; preds = %12
  %21 = call i64 @_ZNKSt6vectorI4edgeSaIS0_EE8max_sizeEv(%"class.std::vector"* %0) #3
  %22 = icmp ugt i64 %17, %21
  br i1 %22, label %23, label %25

23:                                               ; preds = %20, %12
  %24 = call i64 @_ZNKSt6vectorI4edgeSaIS0_EE8max_sizeEv(%"class.std::vector"* %0) #3
  br label %26

25:                                               ; preds = %20
  br label %26

26:                                               ; preds = %25, %23
  %27 = phi i64 [ %24, %23 ], [ %17, %25 ]
  ret i64 %27
}

; Function Attrs: noinline nounwind uwtable
define linkonce_odr i64 @_ZN9__gnu_cxxmiIP4edgeSt6vectorIS1_SaIS1_EEEENS_17__normal_iteratorIT_T0_E15difference_typeERKS9_SC_(%"class.__gnu_cxx::__normal_iterator"* dereferenceable(8) %0, %"class.__gnu_cxx::__normal_iterator"* dereferenceable(8) %1) #4 comdat {
  %3 = call dereferenceable(8) %struct.edge** @_ZNK9__gnu_cxx17__normal_iteratorIP4edgeSt6vectorIS1_SaIS1_EEE4baseEv(%"class.__gnu_cxx::__normal_iterator"* %0) #3
  %4 = load %struct.edge*, %struct.edge** %3, align 8
  %5 = call dereferenceable(8) %struct.edge** @_ZNK9__gnu_cxx17__normal_iteratorIP4edgeSt6vectorIS1_SaIS1_EEE4baseEv(%"class.__gnu_cxx::__normal_iterator"* %1) #3
  %6 = load %struct.edge*, %struct.edge** %5, align 8
  %7 = ptrtoint %struct.edge* %4 to i64
  %8 = ptrtoint %struct.edge* %6 to i64
  %9 = sub i64 %7, %8
  %10 = sdiv exact i64 %9, 24
  ret i64 %10
}

; Function Attrs: noinline uwtable
define linkonce_odr %struct.edge* @_ZNSt12_Vector_baseI4edgeSaIS0_EE11_M_allocateEm(%"struct.std::_Vector_base"* %0, i64 %1) #0 comdat align 2 {
  %3 = icmp ne i64 %1, 0
  br i1 %3, label %4, label %8

4:                                                ; preds = %2
  %5 = getelementptr inbounds %"struct.std::_Vector_base", %"struct.std::_Vector_base"* %0, i32 0, i32 0
  %6 = bitcast %"struct.std::_Vector_base<edge, std::allocator<edge> >::_Vector_impl"* %5 to %"class.std::allocator"*
  %7 = call %struct.edge* @_ZNSt16allocator_traitsISaI4edgeEE8allocateERS1_m(%"class.std::allocator"* dereferenceable(1) %6, i64 %1)
  br label %9

8:                                                ; preds = %2
  br label %9

9:                                                ; preds = %8, %4
  %10 = phi %struct.edge* [ %7, %4 ], [ null, %8 ]
  ret %struct.edge* %10
}

; Function Attrs: noinline uwtable
define linkonce_odr %struct.edge* @_ZSt34__uninitialized_move_if_noexcept_aIP4edgeS1_SaIS0_EET0_T_S4_S3_RT1_(%struct.edge* %0, %struct.edge* %1, %struct.edge* %2, %"class.std::allocator"* dereferenceable(1) %3) #0 comdat {
  %5 = alloca %"class.std::move_iterator", align 8
  %6 = alloca %"class.std::move_iterator", align 8
  %7 = call %struct.edge* @_ZSt32__make_move_if_noexcept_iteratorI4edgeSt13move_iteratorIPS0_EET0_PT_(%struct.edge* %0)
  %8 = getelementptr inbounds %"class.std::move_iterator", %"class.std::move_iterator"* %5, i32 0, i32 0
  store %struct.edge* %7, %struct.edge** %8, align 8
  %9 = call %struct.edge* @_ZSt32__make_move_if_noexcept_iteratorI4edgeSt13move_iteratorIPS0_EET0_PT_(%struct.edge* %1)
  %10 = getelementptr inbounds %"class.std::move_iterator", %"class.std::move_iterator"* %6, i32 0, i32 0
  store %struct.edge* %9, %struct.edge** %10, align 8
  %11 = getelementptr inbounds %"class.std::move_iterator", %"class.std::move_iterator"* %5, i32 0, i32 0
  %12 = load %struct.edge*, %struct.edge** %11, align 8
  %13 = getelementptr inbounds %"class.std::move_iterator", %"class.std::move_iterator"* %6, i32 0, i32 0
  %14 = load %struct.edge*, %struct.edge** %13, align 8
  %15 = call %struct.edge* @_ZSt22__uninitialized_copy_aISt13move_iteratorIP4edgeES2_S1_ET0_T_S5_S4_RSaIT1_E(%struct.edge* %12, %struct.edge* %14, %struct.edge* %2, %"class.std::allocator"* dereferenceable(1) %3)
  ret %struct.edge* %15
}

; Function Attrs: noinline nounwind uwtable
define linkonce_odr dereferenceable(8) %struct.edge** @_ZNK9__gnu_cxx17__normal_iteratorIP4edgeSt6vectorIS1_SaIS1_EEE4baseEv(%"class.__gnu_cxx::__normal_iterator"* %0) #4 comdat align 2 {
  %2 = getelementptr inbounds %"class.__gnu_cxx::__normal_iterator", %"class.__gnu_cxx::__normal_iterator"* %0, i32 0, i32 0
  ret %struct.edge** %2
}

; Function Attrs: noinline uwtable
define linkonce_odr void @_ZNSt16allocator_traitsISaI4edgeEE7destroyIS0_EEvRS1_PT_(%"class.std::allocator"* dereferenceable(1) %0, %struct.edge* %1) #0 comdat align 2 {
  %3 = bitcast %"class.std::allocator"* %0 to %"class.__gnu_cxx::new_allocator"*
  call void @_ZN9__gnu_cxx13new_allocatorI4edgeE7destroyIS1_EEvPT_(%"class.__gnu_cxx::new_allocator"* %3, %struct.edge* %1)
  ret void
}

declare void @__cxa_rethrow()

declare void @__cxa_end_catch()

; Function Attrs: noinline nounwind uwtable
define linkonce_odr i64 @_ZNKSt6vectorI4edgeSaIS0_EE8max_sizeEv(%"class.std::vector"* %0) #4 comdat align 2 {
  %2 = bitcast %"class.std::vector"* %0 to %"struct.std::_Vector_base"*
  %3 = call dereferenceable(1) %"class.std::allocator"* @_ZNKSt12_Vector_baseI4edgeSaIS0_EE19_M_get_Tp_allocatorEv(%"struct.std::_Vector_base"* %2) #3
  %4 = call i64 @_ZNSt16allocator_traitsISaI4edgeEE8max_sizeERKS1_(%"class.std::allocator"* dereferenceable(1) %3) #3
  ret i64 %4
}

; Function Attrs: noinline nounwind uwtable
define linkonce_odr i64 @_ZNKSt6vectorI4edgeSaIS0_EE4sizeEv(%"class.std::vector"* %0) #4 comdat align 2 {
  %2 = bitcast %"class.std::vector"* %0 to %"struct.std::_Vector_base"*
  %3 = getelementptr inbounds %"struct.std::_Vector_base", %"struct.std::_Vector_base"* %2, i32 0, i32 0
  %4 = getelementptr inbounds %"struct.std::_Vector_base<edge, std::allocator<edge> >::_Vector_impl", %"struct.std::_Vector_base<edge, std::allocator<edge> >::_Vector_impl"* %3, i32 0, i32 1
  %5 = load %struct.edge*, %struct.edge** %4, align 8
  %6 = bitcast %"class.std::vector"* %0 to %"struct.std::_Vector_base"*
  %7 = getelementptr inbounds %"struct.std::_Vector_base", %"struct.std::_Vector_base"* %6, i32 0, i32 0
  %8 = getelementptr inbounds %"struct.std::_Vector_base<edge, std::allocator<edge> >::_Vector_impl", %"struct.std::_Vector_base<edge, std::allocator<edge> >::_Vector_impl"* %7, i32 0, i32 0
  %9 = load %struct.edge*, %struct.edge** %8, align 8
  %10 = ptrtoint %struct.edge* %5 to i64
  %11 = ptrtoint %struct.edge* %9 to i64
  %12 = sub i64 %10, %11
  %13 = sdiv exact i64 %12, 24
  ret i64 %13
}

; Function Attrs: noreturn
declare void @_ZSt20__throw_length_errorPKc(i8*) #9

; Function Attrs: noinline nounwind uwtable
define linkonce_odr dereferenceable(8) i64* @_ZSt3maxImERKT_S2_S2_(i64* dereferenceable(8) %0, i64* dereferenceable(8) %1) #4 comdat {
  %3 = load i64, i64* %0, align 8
  %4 = load i64, i64* %1, align 8
  %5 = icmp ult i64 %3, %4
  br i1 %5, label %6, label %7

6:                                                ; preds = %2
  br label %8

7:                                                ; preds = %2
  br label %8

8:                                                ; preds = %7, %6
  %.0 = phi i64* [ %1, %6 ], [ %0, %7 ]
  ret i64* %.0
}

; Function Attrs: noinline nounwind uwtable
define linkonce_odr i64 @_ZNSt16allocator_traitsISaI4edgeEE8max_sizeERKS1_(%"class.std::allocator"* dereferenceable(1) %0) #4 comdat align 2 {
  %2 = bitcast %"class.std::allocator"* %0 to %"class.__gnu_cxx::new_allocator"*
  %3 = call i64 @_ZNK9__gnu_cxx13new_allocatorI4edgeE8max_sizeEv(%"class.__gnu_cxx::new_allocator"* %2) #3
  ret i64 %3
}

; Function Attrs: noinline nounwind uwtable
define linkonce_odr dereferenceable(1) %"class.std::allocator"* @_ZNKSt12_Vector_baseI4edgeSaIS0_EE19_M_get_Tp_allocatorEv(%"struct.std::_Vector_base"* %0) #4 comdat align 2 {
  %2 = getelementptr inbounds %"struct.std::_Vector_base", %"struct.std::_Vector_base"* %0, i32 0, i32 0
  %3 = bitcast %"struct.std::_Vector_base<edge, std::allocator<edge> >::_Vector_impl"* %2 to %"class.std::allocator"*
  ret %"class.std::allocator"* %3
}

; Function Attrs: noinline nounwind uwtable
define linkonce_odr i64 @_ZNK9__gnu_cxx13new_allocatorI4edgeE8max_sizeEv(%"class.__gnu_cxx::new_allocator"* %0) #4 comdat align 2 {
  ret i64 768614336404564650
}

; Function Attrs: noinline uwtable
define linkonce_odr %struct.edge* @_ZNSt16allocator_traitsISaI4edgeEE8allocateERS1_m(%"class.std::allocator"* dereferenceable(1) %0, i64 %1) #0 comdat align 2 {
  %3 = bitcast %"class.std::allocator"* %0 to %"class.__gnu_cxx::new_allocator"*
  %4 = call %struct.edge* @_ZN9__gnu_cxx13new_allocatorI4edgeE8allocateEmPKv(%"class.__gnu_cxx::new_allocator"* %3, i64 %1, i8* null)
  ret %struct.edge* %4
}

; Function Attrs: noinline uwtable
define linkonce_odr %struct.edge* @_ZN9__gnu_cxx13new_allocatorI4edgeE8allocateEmPKv(%"class.__gnu_cxx::new_allocator"* %0, i64 %1, i8* %2) #0 comdat align 2 {
  %4 = call i64 @_ZNK9__gnu_cxx13new_allocatorI4edgeE8max_sizeEv(%"class.__gnu_cxx::new_allocator"* %0) #3
  %5 = icmp ugt i64 %1, %4
  br i1 %5, label %6, label %7

6:                                                ; preds = %3
  call void @_ZSt17__throw_bad_allocv() #13
  unreachable

7:                                                ; preds = %3
  %8 = mul i64 %1, 24
  %9 = call i8* @_Znwm(i64 %8)
  %10 = bitcast i8* %9 to %struct.edge*
  ret %struct.edge* %10
}

; Function Attrs: noreturn
declare void @_ZSt17__throw_bad_allocv() #9

; Function Attrs: nobuiltin
declare noalias i8* @_Znwm(i64) #10

; Function Attrs: noinline uwtable
define linkonce_odr %struct.edge* @_ZSt22__uninitialized_copy_aISt13move_iteratorIP4edgeES2_S1_ET0_T_S5_S4_RSaIT1_E(%struct.edge* %0, %struct.edge* %1, %struct.edge* %2, %"class.std::allocator"* dereferenceable(1) %3) #0 comdat {
  %5 = alloca %"class.std::move_iterator", align 8
  %6 = alloca %"class.std::move_iterator", align 8
  %7 = alloca %"class.std::move_iterator", align 8
  %8 = alloca %"class.std::move_iterator", align 8
  %9 = getelementptr inbounds %"class.std::move_iterator", %"class.std::move_iterator"* %5, i32 0, i32 0
  store %struct.edge* %0, %struct.edge** %9, align 8
  %10 = getelementptr inbounds %"class.std::move_iterator", %"class.std::move_iterator"* %6, i32 0, i32 0
  store %struct.edge* %1, %struct.edge** %10, align 8
  %11 = bitcast %"class.std::move_iterator"* %7 to i8*
  %12 = bitcast %"class.std::move_iterator"* %5 to i8*
  call void @llvm.memcpy.p0i8.p0i8.i64(i8* align 8 %11, i8* align 8 %12, i64 8, i1 false)
  %13 = bitcast %"class.std::move_iterator"* %8 to i8*
  %14 = bitcast %"class.std::move_iterator"* %6 to i8*
  call void @llvm.memcpy.p0i8.p0i8.i64(i8* align 8 %13, i8* align 8 %14, i64 8, i1 false)
  %15 = getelementptr inbounds %"class.std::move_iterator", %"class.std::move_iterator"* %7, i32 0, i32 0
  %16 = load %struct.edge*, %struct.edge** %15, align 8
  %17 = getelementptr inbounds %"class.std::move_iterator", %"class.std::move_iterator"* %8, i32 0, i32 0
  %18 = load %struct.edge*, %struct.edge** %17, align 8
  %19 = call %struct.edge* @_ZSt18uninitialized_copyISt13move_iteratorIP4edgeES2_ET0_T_S5_S4_(%struct.edge* %16, %struct.edge* %18, %struct.edge* %2)
  ret %struct.edge* %19
}

; Function Attrs: noinline uwtable
define linkonce_odr %struct.edge* @_ZSt32__make_move_if_noexcept_iteratorI4edgeSt13move_iteratorIPS0_EET0_PT_(%struct.edge* %0) #0 comdat {
  %2 = alloca %"class.std::move_iterator", align 8
  call void @_ZNSt13move_iteratorIP4edgeEC2ES1_(%"class.std::move_iterator"* %2, %struct.edge* %0)
  %3 = getelementptr inbounds %"class.std::move_iterator", %"class.std::move_iterator"* %2, i32 0, i32 0
  %4 = load %struct.edge*, %struct.edge** %3, align 8
  ret %struct.edge* %4
}

; Function Attrs: noinline uwtable
define linkonce_odr %struct.edge* @_ZSt18uninitialized_copyISt13move_iteratorIP4edgeES2_ET0_T_S5_S4_(%struct.edge* %0, %struct.edge* %1, %struct.edge* %2) #0 comdat {
  %4 = alloca %"class.std::move_iterator", align 8
  %5 = alloca %"class.std::move_iterator", align 8
  %6 = alloca %"class.std::move_iterator", align 8
  %7 = alloca %"class.std::move_iterator", align 8
  %8 = getelementptr inbounds %"class.std::move_iterator", %"class.std::move_iterator"* %4, i32 0, i32 0
  store %struct.edge* %0, %struct.edge** %8, align 8
  %9 = getelementptr inbounds %"class.std::move_iterator", %"class.std::move_iterator"* %5, i32 0, i32 0
  store %struct.edge* %1, %struct.edge** %9, align 8
  %10 = bitcast %"class.std::move_iterator"* %6 to i8*
  %11 = bitcast %"class.std::move_iterator"* %4 to i8*
  call void @llvm.memcpy.p0i8.p0i8.i64(i8* align 8 %10, i8* align 8 %11, i64 8, i1 false)
  %12 = bitcast %"class.std::move_iterator"* %7 to i8*
  %13 = bitcast %"class.std::move_iterator"* %5 to i8*
  call void @llvm.memcpy.p0i8.p0i8.i64(i8* align 8 %12, i8* align 8 %13, i64 8, i1 false)
  %14 = getelementptr inbounds %"class.std::move_iterator", %"class.std::move_iterator"* %6, i32 0, i32 0
  %15 = load %struct.edge*, %struct.edge** %14, align 8
  %16 = getelementptr inbounds %"class.std::move_iterator", %"class.std::move_iterator"* %7, i32 0, i32 0
  %17 = load %struct.edge*, %struct.edge** %16, align 8
  %18 = call %struct.edge* @_ZNSt20__uninitialized_copyILb1EE13__uninit_copyISt13move_iteratorIP4edgeES4_EET0_T_S7_S6_(%struct.edge* %15, %struct.edge* %17, %struct.edge* %2)
  ret %struct.edge* %18
}

; Function Attrs: noinline uwtable
define linkonce_odr %struct.edge* @_ZNSt20__uninitialized_copyILb1EE13__uninit_copyISt13move_iteratorIP4edgeES4_EET0_T_S7_S6_(%struct.edge* %0, %struct.edge* %1, %struct.edge* %2) #0 comdat align 2 {
  %4 = alloca %"class.std::move_iterator", align 8
  %5 = alloca %"class.std::move_iterator", align 8
  %6 = alloca %"class.std::move_iterator", align 8
  %7 = alloca %"class.std::move_iterator", align 8
  %8 = getelementptr inbounds %"class.std::move_iterator", %"class.std::move_iterator"* %4, i32 0, i32 0
  store %struct.edge* %0, %struct.edge** %8, align 8
  %9 = getelementptr inbounds %"class.std::move_iterator", %"class.std::move_iterator"* %5, i32 0, i32 0
  store %struct.edge* %1, %struct.edge** %9, align 8
  %10 = bitcast %"class.std::move_iterator"* %6 to i8*
  %11 = bitcast %"class.std::move_iterator"* %4 to i8*
  call void @llvm.memcpy.p0i8.p0i8.i64(i8* align 8 %10, i8* align 8 %11, i64 8, i1 false)
  %12 = bitcast %"class.std::move_iterator"* %7 to i8*
  %13 = bitcast %"class.std::move_iterator"* %5 to i8*
  call void @llvm.memcpy.p0i8.p0i8.i64(i8* align 8 %12, i8* align 8 %13, i64 8, i1 false)
  %14 = getelementptr inbounds %"class.std::move_iterator", %"class.std::move_iterator"* %6, i32 0, i32 0
  %15 = load %struct.edge*, %struct.edge** %14, align 8
  %16 = getelementptr inbounds %"class.std::move_iterator", %"class.std::move_iterator"* %7, i32 0, i32 0
  %17 = load %struct.edge*, %struct.edge** %16, align 8
  %18 = call %struct.edge* @_ZSt4copyISt13move_iteratorIP4edgeES2_ET0_T_S5_S4_(%struct.edge* %15, %struct.edge* %17, %struct.edge* %2)
  ret %struct.edge* %18
}

; Function Attrs: noinline uwtable
define linkonce_odr %struct.edge* @_ZSt4copyISt13move_iteratorIP4edgeES2_ET0_T_S5_S4_(%struct.edge* %0, %struct.edge* %1, %struct.edge* %2) #0 comdat {
  %4 = alloca %"class.std::move_iterator", align 8
  %5 = alloca %"class.std::move_iterator", align 8
  %6 = alloca %"class.std::move_iterator", align 8
  %7 = alloca %"class.std::move_iterator", align 8
  %8 = getelementptr inbounds %"class.std::move_iterator", %"class.std::move_iterator"* %4, i32 0, i32 0
  store %struct.edge* %0, %struct.edge** %8, align 8
  %9 = getelementptr inbounds %"class.std::move_iterator", %"class.std::move_iterator"* %5, i32 0, i32 0
  store %struct.edge* %1, %struct.edge** %9, align 8
  %10 = bitcast %"class.std::move_iterator"* %6 to i8*
  %11 = bitcast %"class.std::move_iterator"* %4 to i8*
  call void @llvm.memcpy.p0i8.p0i8.i64(i8* align 8 %10, i8* align 8 %11, i64 8, i1 false)
  %12 = getelementptr inbounds %"class.std::move_iterator", %"class.std::move_iterator"* %6, i32 0, i32 0
  %13 = load %struct.edge*, %struct.edge** %12, align 8
  %14 = call %struct.edge* @_ZSt12__miter_baseIP4edgeEDTcl12__miter_basecldtfp_4baseEEESt13move_iteratorIT_E(%struct.edge* %13)
  %15 = bitcast %"class.std::move_iterator"* %7 to i8*
  %16 = bitcast %"class.std::move_iterator"* %5 to i8*
  call void @llvm.memcpy.p0i8.p0i8.i64(i8* align 8 %15, i8* align 8 %16, i64 8, i1 false)
  %17 = getelementptr inbounds %"class.std::move_iterator", %"class.std::move_iterator"* %7, i32 0, i32 0
  %18 = load %struct.edge*, %struct.edge** %17, align 8
  %19 = call %struct.edge* @_ZSt12__miter_baseIP4edgeEDTcl12__miter_basecldtfp_4baseEEESt13move_iteratorIT_E(%struct.edge* %18)
  %20 = call %struct.edge* @_ZSt14__copy_move_a2ILb1EP4edgeS1_ET1_T0_S3_S2_(%struct.edge* %14, %struct.edge* %19, %struct.edge* %2)
  ret %struct.edge* %20
}

; Function Attrs: noinline uwtable
define linkonce_odr %struct.edge* @_ZSt14__copy_move_a2ILb1EP4edgeS1_ET1_T0_S3_S2_(%struct.edge* %0, %struct.edge* %1, %struct.edge* %2) #0 comdat {
  %4 = call %struct.edge* @_ZSt12__niter_baseIP4edgeET_S2_(%struct.edge* %0)
  %5 = call %struct.edge* @_ZSt12__niter_baseIP4edgeET_S2_(%struct.edge* %1)
  %6 = call %struct.edge* @_ZSt12__niter_baseIP4edgeET_S2_(%struct.edge* %2)
  %7 = call %struct.edge* @_ZSt13__copy_move_aILb1EP4edgeS1_ET1_T0_S3_S2_(%struct.edge* %4, %struct.edge* %5, %struct.edge* %6)
  ret %struct.edge* %7
}

; Function Attrs: noinline uwtable
define linkonce_odr %struct.edge* @_ZSt12__miter_baseIP4edgeEDTcl12__miter_basecldtfp_4baseEEESt13move_iteratorIT_E(%struct.edge* %0) #0 comdat {
  %2 = alloca %"class.std::move_iterator", align 8
  %3 = getelementptr inbounds %"class.std::move_iterator", %"class.std::move_iterator"* %2, i32 0, i32 0
  store %struct.edge* %0, %struct.edge** %3, align 8
  %4 = call %struct.edge* @_ZNKSt13move_iteratorIP4edgeE4baseEv(%"class.std::move_iterator"* %2)
  %5 = call %struct.edge* @_ZSt12__miter_baseIP4edgeET_S2_(%struct.edge* %4)
  ret %struct.edge* %5
}

; Function Attrs: noinline uwtable
define linkonce_odr %struct.edge* @_ZSt13__copy_move_aILb1EP4edgeS1_ET1_T0_S3_S2_(%struct.edge* %0, %struct.edge* %1, %struct.edge* %2) #0 comdat {
  %4 = call %struct.edge* @_ZNSt11__copy_moveILb1ELb1ESt26random_access_iterator_tagE8__copy_mI4edgeEEPT_PKS4_S7_S5_(%struct.edge* %0, %struct.edge* %1, %struct.edge* %2)
  ret %struct.edge* %4
}

; Function Attrs: noinline nounwind uwtable
define linkonce_odr %struct.edge* @_ZSt12__niter_baseIP4edgeET_S2_(%struct.edge* %0) #4 comdat {
  ret %struct.edge* %0
}

; Function Attrs: noinline nounwind uwtable
define linkonce_odr %struct.edge* @_ZNSt11__copy_moveILb1ELb1ESt26random_access_iterator_tagE8__copy_mI4edgeEEPT_PKS4_S7_S5_(%struct.edge* %0, %struct.edge* %1, %struct.edge* %2) #4 comdat align 2 {
  %4 = ptrtoint %struct.edge* %1 to i64
  %5 = ptrtoint %struct.edge* %0 to i64
  %6 = sub i64 %4, %5
  %7 = sdiv exact i64 %6, 24
  %8 = icmp ne i64 %7, 0
  br i1 %8, label %9, label %13

9:                                                ; preds = %3
  %10 = bitcast %struct.edge* %2 to i8*
  %11 = bitcast %struct.edge* %0 to i8*
  %12 = mul i64 24, %7
  call void @llvm.memmove.p0i8.p0i8.i64(i8* align 8 %10, i8* align 8 %11, i64 %12, i1 false)
  br label %13

13:                                               ; preds = %9, %3
  %14 = getelementptr inbounds %struct.edge, %struct.edge* %2, i64 %7
  ret %struct.edge* %14
}

; Function Attrs: noinline nounwind uwtable
define linkonce_odr %struct.edge* @_ZSt12__miter_baseIP4edgeET_S2_(%struct.edge* %0) #4 comdat {
  ret %struct.edge* %0
}

; Function Attrs: noinline nounwind uwtable
define linkonce_odr %struct.edge* @_ZNKSt13move_iteratorIP4edgeE4baseEv(%"class.std::move_iterator"* %0) #4 comdat align 2 {
  %2 = getelementptr inbounds %"class.std::move_iterator", %"class.std::move_iterator"* %0, i32 0, i32 0
  %3 = load %struct.edge*, %struct.edge** %2, align 8
  ret %struct.edge* %3
}

; Function Attrs: noinline nounwind uwtable
define linkonce_odr void @_ZNSt13move_iteratorIP4edgeEC2ES1_(%"class.std::move_iterator"* %0, %struct.edge* %1) unnamed_addr #4 comdat align 2 {
  %3 = getelementptr inbounds %"class.std::move_iterator", %"class.std::move_iterator"* %0, i32 0, i32 0
  store %struct.edge* %1, %struct.edge** %3, align 8
  ret void
}

; Function Attrs: noinline nounwind uwtable
define linkonce_odr void @_ZN9__gnu_cxx13new_allocatorI4edgeE7destroyIS1_EEvPT_(%"class.__gnu_cxx::new_allocator"* %0, %struct.edge* %1) #4 comdat align 2 {
  ret void
}

; Function Attrs: noinline nounwind uwtable
define linkonce_odr void @_ZNSt6vectorI5stateSaIS0_EEC2Ev(%"class.std::vector.0"* %0) unnamed_addr #4 comdat align 2 personality i8* bitcast (i32 (...)* @__gxx_personality_v0 to i8*) {
  %2 = bitcast %"class.std::vector.0"* %0 to %"struct.std::_Vector_base.1"*
  invoke void @_ZNSt12_Vector_baseI5stateSaIS0_EEC2Ev(%"struct.std::_Vector_base.1"* %2)
          to label %3 unwind label %4

3:                                                ; preds = %1
  ret void

4:                                                ; preds = %1
  %5 = landingpad { i8*, i32 }
          catch i8* null
  %6 = extractvalue { i8*, i32 } %5, 0
  call void @__clang_call_terminate(i8* %6) #12
  unreachable
}

; Function Attrs: noinline uwtable
define linkonce_odr void @_ZNSt12_Vector_baseI5stateSaIS0_EEC2Ev(%"struct.std::_Vector_base.1"* %0) unnamed_addr #0 comdat align 2 {
  %2 = getelementptr inbounds %"struct.std::_Vector_base.1", %"struct.std::_Vector_base.1"* %0, i32 0, i32 0
  call void @_ZNSt12_Vector_baseI5stateSaIS0_EE12_Vector_implC2Ev(%"struct.std::_Vector_base<state, std::allocator<state> >::_Vector_impl"* %2)
  ret void
}

; Function Attrs: noinline nounwind uwtable
define linkonce_odr void @_ZNSt12_Vector_baseI5stateSaIS0_EE12_Vector_implC2Ev(%"struct.std::_Vector_base<state, std::allocator<state> >::_Vector_impl"* %0) unnamed_addr #4 comdat align 2 {
  %2 = bitcast %"struct.std::_Vector_base<state, std::allocator<state> >::_Vector_impl"* %0 to %"class.std::allocator.2"*
  call void @_ZNSaI5stateEC2Ev(%"class.std::allocator.2"* %2) #3
  %3 = getelementptr inbounds %"struct.std::_Vector_base<state, std::allocator<state> >::_Vector_impl", %"struct.std::_Vector_base<state, std::allocator<state> >::_Vector_impl"* %0, i32 0, i32 0
  store %struct.state* null, %struct.state** %3, align 8
  %4 = getelementptr inbounds %"struct.std::_Vector_base<state, std::allocator<state> >::_Vector_impl", %"struct.std::_Vector_base<state, std::allocator<state> >::_Vector_impl"* %0, i32 0, i32 1
  store %struct.state* null, %struct.state** %4, align 8
  %5 = getelementptr inbounds %"struct.std::_Vector_base<state, std::allocator<state> >::_Vector_impl", %"struct.std::_Vector_base<state, std::allocator<state> >::_Vector_impl"* %0, i32 0, i32 2
  store %struct.state* null, %struct.state** %5, align 8
  ret void
}

; Function Attrs: noinline nounwind uwtable
define linkonce_odr void @_ZNSaI5stateEC2Ev(%"class.std::allocator.2"* %0) unnamed_addr #4 comdat align 2 {
  %2 = bitcast %"class.std::allocator.2"* %0 to %"class.__gnu_cxx::new_allocator.3"*
  call void @_ZN9__gnu_cxx13new_allocatorI5stateEC2Ev(%"class.__gnu_cxx::new_allocator.3"* %2) #3
  ret void
}

; Function Attrs: noinline nounwind uwtable
define linkonce_odr void @_ZN9__gnu_cxx13new_allocatorI5stateEC2Ev(%"class.__gnu_cxx::new_allocator.3"* %0) unnamed_addr #4 comdat align 2 {
  ret void
}

; Function Attrs: noinline uwtable
define linkonce_odr void @_ZNSt6vectorI5stateSaIS0_EE9push_backEOS0_(%"class.std::vector.0"* %0, %struct.state* dereferenceable(16) %1) #0 comdat align 2 {
  %3 = call dereferenceable(16) %struct.state* @_ZSt4moveIR5stateEONSt16remove_referenceIT_E4typeEOS3_(%struct.state* dereferenceable(16) %1) #3
  call void @_ZNSt6vectorI5stateSaIS0_EE12emplace_backIJS0_EEEvDpOT_(%"class.std::vector.0"* %0, %struct.state* dereferenceable(16) %3)
  ret void
}

; Function Attrs: noinline nounwind uwtable
define linkonce_odr dereferenceable(16) %struct.state* @_ZSt4moveIR5stateEONSt16remove_referenceIT_E4typeEOS3_(%struct.state* dereferenceable(16) %0) #4 comdat {
  ret %struct.state* %0
}

; Function Attrs: noinline uwtable
define linkonce_odr void @_ZSt9push_heapIN9__gnu_cxx17__normal_iteratorIP5stateSt6vectorIS2_SaIS2_EEEESt4lessIS2_EEvT_SA_T0_(%struct.state* %0, %struct.state* %1) #0 comdat {
  %3 = alloca %"class.__gnu_cxx::__normal_iterator.5", align 8
  %4 = alloca %"class.__gnu_cxx::__normal_iterator.5", align 8
  %5 = alloca %"struct.std::less", align 1
  %6 = alloca %"struct.__gnu_cxx::__ops::_Iter_comp_val", align 1
  %7 = alloca %struct.state, align 8
  %8 = alloca %"class.__gnu_cxx::__normal_iterator.5", align 8
  %9 = alloca %"class.__gnu_cxx::__normal_iterator.5", align 8
  %10 = alloca %struct.state, align 8
  %11 = getelementptr inbounds %"class.__gnu_cxx::__normal_iterator.5", %"class.__gnu_cxx::__normal_iterator.5"* %3, i32 0, i32 0
  store %struct.state* %0, %struct.state** %11, align 8
  %12 = getelementptr inbounds %"class.__gnu_cxx::__normal_iterator.5", %"class.__gnu_cxx::__normal_iterator.5"* %4, i32 0, i32 0
  store %struct.state* %1, %struct.state** %12, align 8
  %13 = call dereferenceable(1) %"struct.std::less"* @_ZSt4moveIRSt4lessI5stateEEONSt16remove_referenceIT_E4typeEOS5_(%"struct.std::less"* dereferenceable(1) %5) #3
  call void @_ZN9__gnu_cxx5__ops14_Iter_comp_valISt4lessI5stateEEC2ES4_(%"struct.__gnu_cxx::__ops::_Iter_comp_val"* %6)
  %14 = call %struct.state* @_ZNK9__gnu_cxx17__normal_iteratorIP5stateSt6vectorIS1_SaIS1_EEEmiEl(%"class.__gnu_cxx::__normal_iterator.5"* %4, i64 1) #3
  %15 = getelementptr inbounds %"class.__gnu_cxx::__normal_iterator.5", %"class.__gnu_cxx::__normal_iterator.5"* %8, i32 0, i32 0
  store %struct.state* %14, %struct.state** %15, align 8
  %16 = call dereferenceable(16) %struct.state* @_ZNK9__gnu_cxx17__normal_iteratorIP5stateSt6vectorIS1_SaIS1_EEEdeEv(%"class.__gnu_cxx::__normal_iterator.5"* %8) #3
  %17 = call dereferenceable(16) %struct.state* @_ZSt4moveIR5stateEONSt16remove_referenceIT_E4typeEOS3_(%struct.state* dereferenceable(16) %16) #3
  %18 = bitcast %struct.state* %7 to i8*
  %19 = bitcast %struct.state* %17 to i8*
  call void @llvm.memcpy.p0i8.p0i8.i64(i8* align 8 %18, i8* align 8 %19, i64 16, i1 false)
  %20 = bitcast %"class.__gnu_cxx::__normal_iterator.5"* %9 to i8*
  %21 = bitcast %"class.__gnu_cxx::__normal_iterator.5"* %3 to i8*
  call void @llvm.memcpy.p0i8.p0i8.i64(i8* align 8 %20, i8* align 8 %21, i64 8, i1 false)
  %22 = call i64 @_ZN9__gnu_cxxmiIP5stateSt6vectorIS1_SaIS1_EEEENS_17__normal_iteratorIT_T0_E15difference_typeERKS9_SC_(%"class.__gnu_cxx::__normal_iterator.5"* dereferenceable(8) %4, %"class.__gnu_cxx::__normal_iterator.5"* dereferenceable(8) %3) #3
  %23 = sub nsw i64 %22, 1
  %24 = call dereferenceable(16) %struct.state* @_ZSt4moveIR5stateEONSt16remove_referenceIT_E4typeEOS3_(%struct.state* dereferenceable(16) %7) #3
  %25 = bitcast %struct.state* %10 to i8*
  %26 = bitcast %struct.state* %24 to i8*
  call void @llvm.memcpy.p0i8.p0i8.i64(i8* align 8 %25, i8* align 8 %26, i64 16, i1 false)
  %27 = getelementptr inbounds %"class.__gnu_cxx::__normal_iterator.5", %"class.__gnu_cxx::__normal_iterator.5"* %9, i32 0, i32 0
  %28 = load %struct.state*, %struct.state** %27, align 8
  %29 = bitcast %struct.state* %10 to { i64, i64 }*
  %30 = getelementptr inbounds { i64, i64 }, { i64, i64 }* %29, i32 0, i32 0
  %31 = load i64, i64* %30, align 8
  %32 = getelementptr inbounds { i64, i64 }, { i64, i64 }* %29, i32 0, i32 1
  %33 = load i64, i64* %32, align 8
  call void @_ZSt11__push_heapIN9__gnu_cxx17__normal_iteratorIP5stateSt6vectorIS2_SaIS2_EEEElS2_NS0_5__ops14_Iter_comp_valISt4lessIS2_EEEEvT_T0_SE_T1_RT2_(%struct.state* %28, i64 %23, i64 0, i64 %31, i64 %33, %"struct.__gnu_cxx::__ops::_Iter_comp_val"* dereferenceable(1) %6)
  ret void
}

; Function Attrs: noinline nounwind uwtable
define linkonce_odr %struct.state* @_ZNSt6vectorI5stateSaIS0_EE5beginEv(%"class.std::vector.0"* %0) #4 comdat align 2 {
  %2 = alloca %"class.__gnu_cxx::__normal_iterator.5", align 8
  %3 = bitcast %"class.std::vector.0"* %0 to %"struct.std::_Vector_base.1"*
  %4 = getelementptr inbounds %"struct.std::_Vector_base.1", %"struct.std::_Vector_base.1"* %3, i32 0, i32 0
  %5 = getelementptr inbounds %"struct.std::_Vector_base<state, std::allocator<state> >::_Vector_impl", %"struct.std::_Vector_base<state, std::allocator<state> >::_Vector_impl"* %4, i32 0, i32 0
  call void @_ZN9__gnu_cxx17__normal_iteratorIP5stateSt6vectorIS1_SaIS1_EEEC2ERKS2_(%"class.__gnu_cxx::__normal_iterator.5"* %2, %struct.state** dereferenceable(8) %5) #3
  %6 = getelementptr inbounds %"class.__gnu_cxx::__normal_iterator.5", %"class.__gnu_cxx::__normal_iterator.5"* %2, i32 0, i32 0
  %7 = load %struct.state*, %struct.state** %6, align 8
  ret %struct.state* %7
}

; Function Attrs: noinline nounwind uwtable
define linkonce_odr %struct.state* @_ZNSt6vectorI5stateSaIS0_EE3endEv(%"class.std::vector.0"* %0) #4 comdat align 2 {
  %2 = alloca %"class.__gnu_cxx::__normal_iterator.5", align 8
  %3 = bitcast %"class.std::vector.0"* %0 to %"struct.std::_Vector_base.1"*
  %4 = getelementptr inbounds %"struct.std::_Vector_base.1", %"struct.std::_Vector_base.1"* %3, i32 0, i32 0
  %5 = getelementptr inbounds %"struct.std::_Vector_base<state, std::allocator<state> >::_Vector_impl", %"struct.std::_Vector_base<state, std::allocator<state> >::_Vector_impl"* %4, i32 0, i32 1
  call void @_ZN9__gnu_cxx17__normal_iteratorIP5stateSt6vectorIS1_SaIS1_EEEC2ERKS2_(%"class.__gnu_cxx::__normal_iterator.5"* %2, %struct.state** dereferenceable(8) %5) #3
  %6 = getelementptr inbounds %"class.__gnu_cxx::__normal_iterator.5", %"class.__gnu_cxx::__normal_iterator.5"* %2, i32 0, i32 0
  %7 = load %struct.state*, %struct.state** %6, align 8
  ret %struct.state* %7
}

; Function Attrs: noinline uwtable
define linkonce_odr void @_ZNSt6vectorI5stateSaIS0_EE12emplace_backIJS0_EEEvDpOT_(%"class.std::vector.0"* %0, %struct.state* dereferenceable(16) %1) #0 comdat align 2 {
  %3 = alloca %"class.__gnu_cxx::__normal_iterator.5", align 8
  %4 = bitcast %"class.std::vector.0"* %0 to %"struct.std::_Vector_base.1"*
  %5 = getelementptr inbounds %"struct.std::_Vector_base.1", %"struct.std::_Vector_base.1"* %4, i32 0, i32 0
  %6 = getelementptr inbounds %"struct.std::_Vector_base<state, std::allocator<state> >::_Vector_impl", %"struct.std::_Vector_base<state, std::allocator<state> >::_Vector_impl"* %5, i32 0, i32 1
  %7 = load %struct.state*, %struct.state** %6, align 8
  %8 = bitcast %"class.std::vector.0"* %0 to %"struct.std::_Vector_base.1"*
  %9 = getelementptr inbounds %"struct.std::_Vector_base.1", %"struct.std::_Vector_base.1"* %8, i32 0, i32 0
  %10 = getelementptr inbounds %"struct.std::_Vector_base<state, std::allocator<state> >::_Vector_impl", %"struct.std::_Vector_base<state, std::allocator<state> >::_Vector_impl"* %9, i32 0, i32 2
  %11 = load %struct.state*, %struct.state** %10, align 8
  %12 = icmp ne %struct.state* %7, %11
  br i1 %12, label %13, label %27

13:                                               ; preds = %2
  %14 = bitcast %"class.std::vector.0"* %0 to %"struct.std::_Vector_base.1"*
  %15 = getelementptr inbounds %"struct.std::_Vector_base.1", %"struct.std::_Vector_base.1"* %14, i32 0, i32 0
  %16 = bitcast %"struct.std::_Vector_base<state, std::allocator<state> >::_Vector_impl"* %15 to %"class.std::allocator.2"*
  %17 = bitcast %"class.std::vector.0"* %0 to %"struct.std::_Vector_base.1"*
  %18 = getelementptr inbounds %"struct.std::_Vector_base.1", %"struct.std::_Vector_base.1"* %17, i32 0, i32 0
  %19 = getelementptr inbounds %"struct.std::_Vector_base<state, std::allocator<state> >::_Vector_impl", %"struct.std::_Vector_base<state, std::allocator<state> >::_Vector_impl"* %18, i32 0, i32 1
  %20 = load %struct.state*, %struct.state** %19, align 8
  %21 = call dereferenceable(16) %struct.state* @_ZSt7forwardI5stateEOT_RNSt16remove_referenceIS1_E4typeE(%struct.state* dereferenceable(16) %1) #3
  call void @_ZNSt16allocator_traitsISaI5stateEE9constructIS0_JS0_EEEvRS1_PT_DpOT0_(%"class.std::allocator.2"* dereferenceable(1) %16, %struct.state* %20, %struct.state* dereferenceable(16) %21)
  %22 = bitcast %"class.std::vector.0"* %0 to %"struct.std::_Vector_base.1"*
  %23 = getelementptr inbounds %"struct.std::_Vector_base.1", %"struct.std::_Vector_base.1"* %22, i32 0, i32 0
  %24 = getelementptr inbounds %"struct.std::_Vector_base<state, std::allocator<state> >::_Vector_impl", %"struct.std::_Vector_base<state, std::allocator<state> >::_Vector_impl"* %23, i32 0, i32 1
  %25 = load %struct.state*, %struct.state** %24, align 8
  %26 = getelementptr inbounds %struct.state, %struct.state* %25, i32 1
  store %struct.state* %26, %struct.state** %24, align 8
  br label %33

27:                                               ; preds = %2
  %28 = call %struct.state* @_ZNSt6vectorI5stateSaIS0_EE3endEv(%"class.std::vector.0"* %0) #3
  %29 = getelementptr inbounds %"class.__gnu_cxx::__normal_iterator.5", %"class.__gnu_cxx::__normal_iterator.5"* %3, i32 0, i32 0
  store %struct.state* %28, %struct.state** %29, align 8
  %30 = call dereferenceable(16) %struct.state* @_ZSt7forwardI5stateEOT_RNSt16remove_referenceIS1_E4typeE(%struct.state* dereferenceable(16) %1) #3
  %31 = getelementptr inbounds %"class.__gnu_cxx::__normal_iterator.5", %"class.__gnu_cxx::__normal_iterator.5"* %3, i32 0, i32 0
  %32 = load %struct.state*, %struct.state** %31, align 8
  call void @_ZNSt6vectorI5stateSaIS0_EE17_M_realloc_insertIJS0_EEEvN9__gnu_cxx17__normal_iteratorIPS0_S2_EEDpOT_(%"class.std::vector.0"* %0, %struct.state* %32, %struct.state* dereferenceable(16) %30)
  br label %33

33:                                               ; preds = %27, %13
  ret void
}

; Function Attrs: noinline uwtable
define linkonce_odr void @_ZNSt16allocator_traitsISaI5stateEE9constructIS0_JS0_EEEvRS1_PT_DpOT0_(%"class.std::allocator.2"* dereferenceable(1) %0, %struct.state* %1, %struct.state* dereferenceable(16) %2) #0 comdat align 2 {
  %4 = bitcast %"class.std::allocator.2"* %0 to %"class.__gnu_cxx::new_allocator.3"*
  %5 = call dereferenceable(16) %struct.state* @_ZSt7forwardI5stateEOT_RNSt16remove_referenceIS1_E4typeE(%struct.state* dereferenceable(16) %2) #3
  call void @_ZN9__gnu_cxx13new_allocatorI5stateE9constructIS1_JS1_EEEvPT_DpOT0_(%"class.__gnu_cxx::new_allocator.3"* %4, %struct.state* %1, %struct.state* dereferenceable(16) %5)
  ret void
}

; Function Attrs: noinline nounwind uwtable
define linkonce_odr dereferenceable(16) %struct.state* @_ZSt7forwardI5stateEOT_RNSt16remove_referenceIS1_E4typeE(%struct.state* dereferenceable(16) %0) #4 comdat {
  ret %struct.state* %0
}

; Function Attrs: noinline uwtable
define linkonce_odr void @_ZNSt6vectorI5stateSaIS0_EE17_M_realloc_insertIJS0_EEEvN9__gnu_cxx17__normal_iteratorIPS0_S2_EEDpOT_(%"class.std::vector.0"* %0, %struct.state* %1, %struct.state* dereferenceable(16) %2) #0 comdat align 2 personality i8* bitcast (i32 (...)* @__gxx_personality_v0 to i8*) {
  %4 = alloca %"class.__gnu_cxx::__normal_iterator.5", align 8
  %5 = alloca %"class.__gnu_cxx::__normal_iterator.5", align 8
  %6 = getelementptr inbounds %"class.__gnu_cxx::__normal_iterator.5", %"class.__gnu_cxx::__normal_iterator.5"* %4, i32 0, i32 0
  store %struct.state* %1, %struct.state** %6, align 8
  %7 = call i64 @_ZNKSt6vectorI5stateSaIS0_EE12_M_check_lenEmPKc(%"class.std::vector.0"* %0, i64 1, i8* getelementptr inbounds ([26 x i8], [26 x i8]* @.str, i32 0, i32 0))
  %8 = bitcast %"class.std::vector.0"* %0 to %"struct.std::_Vector_base.1"*
  %9 = getelementptr inbounds %"struct.std::_Vector_base.1", %"struct.std::_Vector_base.1"* %8, i32 0, i32 0
  %10 = getelementptr inbounds %"struct.std::_Vector_base<state, std::allocator<state> >::_Vector_impl", %"struct.std::_Vector_base<state, std::allocator<state> >::_Vector_impl"* %9, i32 0, i32 0
  %11 = load %struct.state*, %struct.state** %10, align 8
  %12 = bitcast %"class.std::vector.0"* %0 to %"struct.std::_Vector_base.1"*
  %13 = getelementptr inbounds %"struct.std::_Vector_base.1", %"struct.std::_Vector_base.1"* %12, i32 0, i32 0
  %14 = getelementptr inbounds %"struct.std::_Vector_base<state, std::allocator<state> >::_Vector_impl", %"struct.std::_Vector_base<state, std::allocator<state> >::_Vector_impl"* %13, i32 0, i32 1
  %15 = load %struct.state*, %struct.state** %14, align 8
  %16 = call %struct.state* @_ZNSt6vectorI5stateSaIS0_EE5beginEv(%"class.std::vector.0"* %0) #3
  %17 = getelementptr inbounds %"class.__gnu_cxx::__normal_iterator.5", %"class.__gnu_cxx::__normal_iterator.5"* %5, i32 0, i32 0
  store %struct.state* %16, %struct.state** %17, align 8
  %18 = call i64 @_ZN9__gnu_cxxmiIP5stateSt6vectorIS1_SaIS1_EEEENS_17__normal_iteratorIT_T0_E15difference_typeERKS9_SC_(%"class.__gnu_cxx::__normal_iterator.5"* dereferenceable(8) %4, %"class.__gnu_cxx::__normal_iterator.5"* dereferenceable(8) %5) #3
  %19 = bitcast %"class.std::vector.0"* %0 to %"struct.std::_Vector_base.1"*
  %20 = call %struct.state* @_ZNSt12_Vector_baseI5stateSaIS0_EE11_M_allocateEm(%"struct.std::_Vector_base.1"* %19, i64 %7)
  %21 = bitcast %"class.std::vector.0"* %0 to %"struct.std::_Vector_base.1"*
  %22 = getelementptr inbounds %"struct.std::_Vector_base.1", %"struct.std::_Vector_base.1"* %21, i32 0, i32 0
  %23 = bitcast %"struct.std::_Vector_base<state, std::allocator<state> >::_Vector_impl"* %22 to %"class.std::allocator.2"*
  %24 = getelementptr inbounds %struct.state, %struct.state* %20, i64 %18
  %25 = call dereferenceable(16) %struct.state* @_ZSt7forwardI5stateEOT_RNSt16remove_referenceIS1_E4typeE(%struct.state* dereferenceable(16) %2) #3
  invoke void @_ZNSt16allocator_traitsISaI5stateEE9constructIS0_JS0_EEEvRS1_PT_DpOT0_(%"class.std::allocator.2"* dereferenceable(1) %23, %struct.state* %24, %struct.state* dereferenceable(16) %25)
          to label %26 unwind label %40

26:                                               ; preds = %3
  %27 = call dereferenceable(8) %struct.state** @_ZNK9__gnu_cxx17__normal_iteratorIP5stateSt6vectorIS1_SaIS1_EEE4baseEv(%"class.__gnu_cxx::__normal_iterator.5"* %4) #3
  %28 = load %struct.state*, %struct.state** %27, align 8
  %29 = bitcast %"class.std::vector.0"* %0 to %"struct.std::_Vector_base.1"*
  %30 = call dereferenceable(1) %"class.std::allocator.2"* @_ZNSt12_Vector_baseI5stateSaIS0_EE19_M_get_Tp_allocatorEv(%"struct.std::_Vector_base.1"* %29) #3
  %31 = invoke %struct.state* @_ZSt34__uninitialized_move_if_noexcept_aIP5stateS1_SaIS0_EET0_T_S4_S3_RT1_(%struct.state* %11, %struct.state* %28, %struct.state* %20, %"class.std::allocator.2"* dereferenceable(1) %30)
          to label %32 unwind label %40

32:                                               ; preds = %26
  %33 = getelementptr inbounds %struct.state, %struct.state* %31, i32 1
  %34 = call dereferenceable(8) %struct.state** @_ZNK9__gnu_cxx17__normal_iteratorIP5stateSt6vectorIS1_SaIS1_EEE4baseEv(%"class.__gnu_cxx::__normal_iterator.5"* %4) #3
  %35 = load %struct.state*, %struct.state** %34, align 8
  %36 = bitcast %"class.std::vector.0"* %0 to %"struct.std::_Vector_base.1"*
  %37 = call dereferenceable(1) %"class.std::allocator.2"* @_ZNSt12_Vector_baseI5stateSaIS0_EE19_M_get_Tp_allocatorEv(%"struct.std::_Vector_base.1"* %36) #3
  %38 = invoke %struct.state* @_ZSt34__uninitialized_move_if_noexcept_aIP5stateS1_SaIS0_EET0_T_S4_S3_RT1_(%struct.state* %35, %struct.state* %15, %struct.state* %33, %"class.std::allocator.2"* dereferenceable(1) %37)
          to label %39 unwind label %40

39:                                               ; preds = %32
  br label %65

40:                                               ; preds = %32, %26, %3
  %.0 = phi %struct.state* [ %33, %32 ], [ null, %26 ], [ %20, %3 ]
  %41 = landingpad { i8*, i32 }
          catch i8* null
  %42 = extractvalue { i8*, i32 } %41, 0
  %43 = extractvalue { i8*, i32 } %41, 1
  br label %44

44:                                               ; preds = %40
  %45 = call i8* @__cxa_begin_catch(i8* %42) #3
  %46 = icmp ne %struct.state* %.0, null
  br i1 %46, label %57, label %47

47:                                               ; preds = %44
  %48 = bitcast %"class.std::vector.0"* %0 to %"struct.std::_Vector_base.1"*
  %49 = getelementptr inbounds %"struct.std::_Vector_base.1", %"struct.std::_Vector_base.1"* %48, i32 0, i32 0
  %50 = bitcast %"struct.std::_Vector_base<state, std::allocator<state> >::_Vector_impl"* %49 to %"class.std::allocator.2"*
  %51 = getelementptr inbounds %struct.state, %struct.state* %20, i64 %18
  invoke void @_ZNSt16allocator_traitsISaI5stateEE7destroyIS0_EEvRS1_PT_(%"class.std::allocator.2"* dereferenceable(1) %50, %struct.state* %51)
          to label %52 unwind label %53

52:                                               ; preds = %47
  br label %61

53:                                               ; preds = %63, %61, %57, %47
  %54 = landingpad { i8*, i32 }
          cleanup
  %55 = extractvalue { i8*, i32 } %54, 0
  %56 = extractvalue { i8*, i32 } %54, 1
  invoke void @__cxa_end_catch()
          to label %64 unwind label %90

57:                                               ; preds = %44
  %58 = bitcast %"class.std::vector.0"* %0 to %"struct.std::_Vector_base.1"*
  %59 = call dereferenceable(1) %"class.std::allocator.2"* @_ZNSt12_Vector_baseI5stateSaIS0_EE19_M_get_Tp_allocatorEv(%"struct.std::_Vector_base.1"* %58) #3
  invoke void @_ZSt8_DestroyIP5stateS0_EvT_S2_RSaIT0_E(%struct.state* %20, %struct.state* %.0, %"class.std::allocator.2"* dereferenceable(1) %59)
          to label %60 unwind label %53

60:                                               ; preds = %57
  br label %61

61:                                               ; preds = %60, %52
  %62 = bitcast %"class.std::vector.0"* %0 to %"struct.std::_Vector_base.1"*
  invoke void @_ZNSt12_Vector_baseI5stateSaIS0_EE13_M_deallocateEPS0_m(%"struct.std::_Vector_base.1"* %62, %struct.state* %20, i64 %7)
          to label %63 unwind label %53

63:                                               ; preds = %61
  invoke void @__cxa_rethrow() #13
          to label %93 unwind label %53

64:                                               ; preds = %53
  br label %87

65:                                               ; preds = %39
  %66 = bitcast %"class.std::vector.0"* %0 to %"struct.std::_Vector_base.1"*
  %67 = call dereferenceable(1) %"class.std::allocator.2"* @_ZNSt12_Vector_baseI5stateSaIS0_EE19_M_get_Tp_allocatorEv(%"struct.std::_Vector_base.1"* %66) #3
  call void @_ZSt8_DestroyIP5stateS0_EvT_S2_RSaIT0_E(%struct.state* %11, %struct.state* %15, %"class.std::allocator.2"* dereferenceable(1) %67)
  %68 = bitcast %"class.std::vector.0"* %0 to %"struct.std::_Vector_base.1"*
  %69 = bitcast %"class.std::vector.0"* %0 to %"struct.std::_Vector_base.1"*
  %70 = getelementptr inbounds %"struct.std::_Vector_base.1", %"struct.std::_Vector_base.1"* %69, i32 0, i32 0
  %71 = getelementptr inbounds %"struct.std::_Vector_base<state, std::allocator<state> >::_Vector_impl", %"struct.std::_Vector_base<state, std::allocator<state> >::_Vector_impl"* %70, i32 0, i32 2
  %72 = load %struct.state*, %struct.state** %71, align 8
  %73 = ptrtoint %struct.state* %72 to i64
  %74 = ptrtoint %struct.state* %11 to i64
  %75 = sub i64 %73, %74
  %76 = sdiv exact i64 %75, 16
  call void @_ZNSt12_Vector_baseI5stateSaIS0_EE13_M_deallocateEPS0_m(%"struct.std::_Vector_base.1"* %68, %struct.state* %11, i64 %76)
  %77 = bitcast %"class.std::vector.0"* %0 to %"struct.std::_Vector_base.1"*
  %78 = getelementptr inbounds %"struct.std::_Vector_base.1", %"struct.std::_Vector_base.1"* %77, i32 0, i32 0
  %79 = getelementptr inbounds %"struct.std::_Vector_base<state, std::allocator<state> >::_Vector_impl", %"struct.std::_Vector_base<state, std::allocator<state> >::_Vector_impl"* %78, i32 0, i32 0
  store %struct.state* %20, %struct.state** %79, align 8
  %80 = bitcast %"class.std::vector.0"* %0 to %"struct.std::_Vector_base.1"*
  %81 = getelementptr inbounds %"struct.std::_Vector_base.1", %"struct.std::_Vector_base.1"* %80, i32 0, i32 0
  %82 = getelementptr inbounds %"struct.std::_Vector_base<state, std::allocator<state> >::_Vector_impl", %"struct.std::_Vector_base<state, std::allocator<state> >::_Vector_impl"* %81, i32 0, i32 1
  store %struct.state* %38, %struct.state** %82, align 8
  %83 = getelementptr inbounds %struct.state, %struct.state* %20, i64 %7
  %84 = bitcast %"class.std::vector.0"* %0 to %"struct.std::_Vector_base.1"*
  %85 = getelementptr inbounds %"struct.std::_Vector_base.1", %"struct.std::_Vector_base.1"* %84, i32 0, i32 0
  %86 = getelementptr inbounds %"struct.std::_Vector_base<state, std::allocator<state> >::_Vector_impl", %"struct.std::_Vector_base<state, std::allocator<state> >::_Vector_impl"* %85, i32 0, i32 2
  store %struct.state* %83, %struct.state** %86, align 8
  ret void

87:                                               ; preds = %64
  %88 = insertvalue { i8*, i32 } undef, i8* %55, 0
  %89 = insertvalue { i8*, i32 } %88, i32 %56, 1
  resume { i8*, i32 } %89

90:                                               ; preds = %53
  %91 = landingpad { i8*, i32 }
          catch i8* null
  %92 = extractvalue { i8*, i32 } %91, 0
  call void @__clang_call_terminate(i8* %92) #12
  unreachable

93:                                               ; preds = %63
  unreachable
}

; Function Attrs: noinline nounwind uwtable
define linkonce_odr void @_ZN9__gnu_cxx13new_allocatorI5stateE9constructIS1_JS1_EEEvPT_DpOT0_(%"class.__gnu_cxx::new_allocator.3"* %0, %struct.state* %1, %struct.state* dereferenceable(16) %2) #4 comdat align 2 {
  %4 = bitcast %struct.state* %1 to i8*
  %5 = bitcast i8* %4 to %struct.state*
  %6 = call dereferenceable(16) %struct.state* @_ZSt7forwardI5stateEOT_RNSt16remove_referenceIS1_E4typeE(%struct.state* dereferenceable(16) %2) #3
  %7 = bitcast %struct.state* %5 to i8*
  %8 = bitcast %struct.state* %6 to i8*
  call void @llvm.memcpy.p0i8.p0i8.i64(i8* align 8 %7, i8* align 8 %8, i64 16, i1 false)
  ret void
}

; Function Attrs: noinline uwtable
define linkonce_odr i64 @_ZNKSt6vectorI5stateSaIS0_EE12_M_check_lenEmPKc(%"class.std::vector.0"* %0, i64 %1, i8* %2) #0 comdat align 2 {
  %4 = alloca i64, align 8
  %5 = alloca i64, align 8
  store i64 %1, i64* %4, align 8
  %6 = call i64 @_ZNKSt6vectorI5stateSaIS0_EE8max_sizeEv(%"class.std::vector.0"* %0) #3
  %7 = call i64 @_ZNKSt6vectorI5stateSaIS0_EE4sizeEv(%"class.std::vector.0"* %0) #3
  %8 = sub i64 %6, %7
  %9 = load i64, i64* %4, align 8
  %10 = icmp ult i64 %8, %9
  br i1 %10, label %11, label %12

11:                                               ; preds = %3
  call void @_ZSt20__throw_length_errorPKc(i8* %2) #13
  unreachable

12:                                               ; preds = %3
  %13 = call i64 @_ZNKSt6vectorI5stateSaIS0_EE4sizeEv(%"class.std::vector.0"* %0) #3
  %14 = call i64 @_ZNKSt6vectorI5stateSaIS0_EE4sizeEv(%"class.std::vector.0"* %0) #3
  store i64 %14, i64* %5, align 8
  %15 = call dereferenceable(8) i64* @_ZSt3maxImERKT_S2_S2_(i64* dereferenceable(8) %5, i64* dereferenceable(8) %4)
  %16 = load i64, i64* %15, align 8
  %17 = add i64 %13, %16
  %18 = call i64 @_ZNKSt6vectorI5stateSaIS0_EE4sizeEv(%"class.std::vector.0"* %0) #3
  %19 = icmp ult i64 %17, %18
  br i1 %19, label %23, label %20

20:                                               ; preds = %12
  %21 = call i64 @_ZNKSt6vectorI5stateSaIS0_EE8max_sizeEv(%"class.std::vector.0"* %0) #3
  %22 = icmp ugt i64 %17, %21
  br i1 %22, label %23, label %25

23:                                               ; preds = %20, %12
  %24 = call i64 @_ZNKSt6vectorI5stateSaIS0_EE8max_sizeEv(%"class.std::vector.0"* %0) #3
  br label %26

25:                                               ; preds = %20
  br label %26

26:                                               ; preds = %25, %23
  %27 = phi i64 [ %24, %23 ], [ %17, %25 ]
  ret i64 %27
}

; Function Attrs: noinline nounwind uwtable
define linkonce_odr i64 @_ZN9__gnu_cxxmiIP5stateSt6vectorIS1_SaIS1_EEEENS_17__normal_iteratorIT_T0_E15difference_typeERKS9_SC_(%"class.__gnu_cxx::__normal_iterator.5"* dereferenceable(8) %0, %"class.__gnu_cxx::__normal_iterator.5"* dereferenceable(8) %1) #4 comdat {
  %3 = call dereferenceable(8) %struct.state** @_ZNK9__gnu_cxx17__normal_iteratorIP5stateSt6vectorIS1_SaIS1_EEE4baseEv(%"class.__gnu_cxx::__normal_iterator.5"* %0) #3
  %4 = load %struct.state*, %struct.state** %3, align 8
  %5 = call dereferenceable(8) %struct.state** @_ZNK9__gnu_cxx17__normal_iteratorIP5stateSt6vectorIS1_SaIS1_EEE4baseEv(%"class.__gnu_cxx::__normal_iterator.5"* %1) #3
  %6 = load %struct.state*, %struct.state** %5, align 8
  %7 = ptrtoint %struct.state* %4 to i64
  %8 = ptrtoint %struct.state* %6 to i64
  %9 = sub i64 %7, %8
  %10 = sdiv exact i64 %9, 16
  ret i64 %10
}

; Function Attrs: noinline uwtable
define linkonce_odr %struct.state* @_ZNSt12_Vector_baseI5stateSaIS0_EE11_M_allocateEm(%"struct.std::_Vector_base.1"* %0, i64 %1) #0 comdat align 2 {
  %3 = icmp ne i64 %1, 0
  br i1 %3, label %4, label %8

4:                                                ; preds = %2
  %5 = getelementptr inbounds %"struct.std::_Vector_base.1", %"struct.std::_Vector_base.1"* %0, i32 0, i32 0
  %6 = bitcast %"struct.std::_Vector_base<state, std::allocator<state> >::_Vector_impl"* %5 to %"class.std::allocator.2"*
  %7 = call %struct.state* @_ZNSt16allocator_traitsISaI5stateEE8allocateERS1_m(%"class.std::allocator.2"* dereferenceable(1) %6, i64 %1)
  br label %9

8:                                                ; preds = %2
  br label %9

9:                                                ; preds = %8, %4
  %10 = phi %struct.state* [ %7, %4 ], [ null, %8 ]
  ret %struct.state* %10
}

; Function Attrs: noinline uwtable
define linkonce_odr %struct.state* @_ZSt34__uninitialized_move_if_noexcept_aIP5stateS1_SaIS0_EET0_T_S4_S3_RT1_(%struct.state* %0, %struct.state* %1, %struct.state* %2, %"class.std::allocator.2"* dereferenceable(1) %3) #0 comdat {
  %5 = alloca %"class.std::move_iterator.6", align 8
  %6 = alloca %"class.std::move_iterator.6", align 8
  %7 = call %struct.state* @_ZSt32__make_move_if_noexcept_iteratorI5stateSt13move_iteratorIPS0_EET0_PT_(%struct.state* %0)
  %8 = getelementptr inbounds %"class.std::move_iterator.6", %"class.std::move_iterator.6"* %5, i32 0, i32 0
  store %struct.state* %7, %struct.state** %8, align 8
  %9 = call %struct.state* @_ZSt32__make_move_if_noexcept_iteratorI5stateSt13move_iteratorIPS0_EET0_PT_(%struct.state* %1)
  %10 = getelementptr inbounds %"class.std::move_iterator.6", %"class.std::move_iterator.6"* %6, i32 0, i32 0
  store %struct.state* %9, %struct.state** %10, align 8
  %11 = getelementptr inbounds %"class.std::move_iterator.6", %"class.std::move_iterator.6"* %5, i32 0, i32 0
  %12 = load %struct.state*, %struct.state** %11, align 8
  %13 = getelementptr inbounds %"class.std::move_iterator.6", %"class.std::move_iterator.6"* %6, i32 0, i32 0
  %14 = load %struct.state*, %struct.state** %13, align 8
  %15 = call %struct.state* @_ZSt22__uninitialized_copy_aISt13move_iteratorIP5stateES2_S1_ET0_T_S5_S4_RSaIT1_E(%struct.state* %12, %struct.state* %14, %struct.state* %2, %"class.std::allocator.2"* dereferenceable(1) %3)
  ret %struct.state* %15
}

; Function Attrs: noinline nounwind uwtable
define linkonce_odr dereferenceable(8) %struct.state** @_ZNK9__gnu_cxx17__normal_iteratorIP5stateSt6vectorIS1_SaIS1_EEE4baseEv(%"class.__gnu_cxx::__normal_iterator.5"* %0) #4 comdat align 2 {
  %2 = getelementptr inbounds %"class.__gnu_cxx::__normal_iterator.5", %"class.__gnu_cxx::__normal_iterator.5"* %0, i32 0, i32 0
  ret %struct.state** %2
}

; Function Attrs: noinline uwtable
define linkonce_odr void @_ZNSt16allocator_traitsISaI5stateEE7destroyIS0_EEvRS1_PT_(%"class.std::allocator.2"* dereferenceable(1) %0, %struct.state* %1) #0 comdat align 2 {
  %3 = bitcast %"class.std::allocator.2"* %0 to %"class.__gnu_cxx::new_allocator.3"*
  call void @_ZN9__gnu_cxx13new_allocatorI5stateE7destroyIS1_EEvPT_(%"class.__gnu_cxx::new_allocator.3"* %3, %struct.state* %1)
  ret void
}

; Function Attrs: noinline nounwind uwtable
define linkonce_odr i64 @_ZNKSt6vectorI5stateSaIS0_EE8max_sizeEv(%"class.std::vector.0"* %0) #4 comdat align 2 {
  %2 = bitcast %"class.std::vector.0"* %0 to %"struct.std::_Vector_base.1"*
  %3 = call dereferenceable(1) %"class.std::allocator.2"* @_ZNKSt12_Vector_baseI5stateSaIS0_EE19_M_get_Tp_allocatorEv(%"struct.std::_Vector_base.1"* %2) #3
  %4 = call i64 @_ZNSt16allocator_traitsISaI5stateEE8max_sizeERKS1_(%"class.std::allocator.2"* dereferenceable(1) %3) #3
  ret i64 %4
}

; Function Attrs: noinline nounwind uwtable
define linkonce_odr i64 @_ZNKSt6vectorI5stateSaIS0_EE4sizeEv(%"class.std::vector.0"* %0) #4 comdat align 2 {
  %2 = bitcast %"class.std::vector.0"* %0 to %"struct.std::_Vector_base.1"*
  %3 = getelementptr inbounds %"struct.std::_Vector_base.1", %"struct.std::_Vector_base.1"* %2, i32 0, i32 0
  %4 = getelementptr inbounds %"struct.std::_Vector_base<state, std::allocator<state> >::_Vector_impl", %"struct.std::_Vector_base<state, std::allocator<state> >::_Vector_impl"* %3, i32 0, i32 1
  %5 = load %struct.state*, %struct.state** %4, align 8
  %6 = bitcast %"class.std::vector.0"* %0 to %"struct.std::_Vector_base.1"*
  %7 = getelementptr inbounds %"struct.std::_Vector_base.1", %"struct.std::_Vector_base.1"* %6, i32 0, i32 0
  %8 = getelementptr inbounds %"struct.std::_Vector_base<state, std::allocator<state> >::_Vector_impl", %"struct.std::_Vector_base<state, std::allocator<state> >::_Vector_impl"* %7, i32 0, i32 0
  %9 = load %struct.state*, %struct.state** %8, align 8
  %10 = ptrtoint %struct.state* %5 to i64
  %11 = ptrtoint %struct.state* %9 to i64
  %12 = sub i64 %10, %11
  %13 = sdiv exact i64 %12, 16
  ret i64 %13
}

; Function Attrs: noinline nounwind uwtable
define linkonce_odr i64 @_ZNSt16allocator_traitsISaI5stateEE8max_sizeERKS1_(%"class.std::allocator.2"* dereferenceable(1) %0) #4 comdat align 2 {
  %2 = bitcast %"class.std::allocator.2"* %0 to %"class.__gnu_cxx::new_allocator.3"*
  %3 = call i64 @_ZNK9__gnu_cxx13new_allocatorI5stateE8max_sizeEv(%"class.__gnu_cxx::new_allocator.3"* %2) #3
  ret i64 %3
}

; Function Attrs: noinline nounwind uwtable
define linkonce_odr dereferenceable(1) %"class.std::allocator.2"* @_ZNKSt12_Vector_baseI5stateSaIS0_EE19_M_get_Tp_allocatorEv(%"struct.std::_Vector_base.1"* %0) #4 comdat align 2 {
  %2 = getelementptr inbounds %"struct.std::_Vector_base.1", %"struct.std::_Vector_base.1"* %0, i32 0, i32 0
  %3 = bitcast %"struct.std::_Vector_base<state, std::allocator<state> >::_Vector_impl"* %2 to %"class.std::allocator.2"*
  ret %"class.std::allocator.2"* %3
}

; Function Attrs: noinline nounwind uwtable
define linkonce_odr i64 @_ZNK9__gnu_cxx13new_allocatorI5stateE8max_sizeEv(%"class.__gnu_cxx::new_allocator.3"* %0) #4 comdat align 2 {
  ret i64 1152921504606846975
}

; Function Attrs: noinline uwtable
define linkonce_odr %struct.state* @_ZNSt16allocator_traitsISaI5stateEE8allocateERS1_m(%"class.std::allocator.2"* dereferenceable(1) %0, i64 %1) #0 comdat align 2 {
  %3 = bitcast %"class.std::allocator.2"* %0 to %"class.__gnu_cxx::new_allocator.3"*
  %4 = call %struct.state* @_ZN9__gnu_cxx13new_allocatorI5stateE8allocateEmPKv(%"class.__gnu_cxx::new_allocator.3"* %3, i64 %1, i8* null)
  ret %struct.state* %4
}

; Function Attrs: noinline uwtable
define linkonce_odr %struct.state* @_ZN9__gnu_cxx13new_allocatorI5stateE8allocateEmPKv(%"class.__gnu_cxx::new_allocator.3"* %0, i64 %1, i8* %2) #0 comdat align 2 {
  %4 = call i64 @_ZNK9__gnu_cxx13new_allocatorI5stateE8max_sizeEv(%"class.__gnu_cxx::new_allocator.3"* %0) #3
  %5 = icmp ugt i64 %1, %4
  br i1 %5, label %6, label %7

6:                                                ; preds = %3
  call void @_ZSt17__throw_bad_allocv() #13
  unreachable

7:                                                ; preds = %3
  %8 = mul i64 %1, 16
  %9 = call i8* @_Znwm(i64 %8)
  %10 = bitcast i8* %9 to %struct.state*
  ret %struct.state* %10
}

; Function Attrs: noinline uwtable
define linkonce_odr %struct.state* @_ZSt22__uninitialized_copy_aISt13move_iteratorIP5stateES2_S1_ET0_T_S5_S4_RSaIT1_E(%struct.state* %0, %struct.state* %1, %struct.state* %2, %"class.std::allocator.2"* dereferenceable(1) %3) #0 comdat {
  %5 = alloca %"class.std::move_iterator.6", align 8
  %6 = alloca %"class.std::move_iterator.6", align 8
  %7 = alloca %"class.std::move_iterator.6", align 8
  %8 = alloca %"class.std::move_iterator.6", align 8
  %9 = getelementptr inbounds %"class.std::move_iterator.6", %"class.std::move_iterator.6"* %5, i32 0, i32 0
  store %struct.state* %0, %struct.state** %9, align 8
  %10 = getelementptr inbounds %"class.std::move_iterator.6", %"class.std::move_iterator.6"* %6, i32 0, i32 0
  store %struct.state* %1, %struct.state** %10, align 8
  %11 = bitcast %"class.std::move_iterator.6"* %7 to i8*
  %12 = bitcast %"class.std::move_iterator.6"* %5 to i8*
  call void @llvm.memcpy.p0i8.p0i8.i64(i8* align 8 %11, i8* align 8 %12, i64 8, i1 false)
  %13 = bitcast %"class.std::move_iterator.6"* %8 to i8*
  %14 = bitcast %"class.std::move_iterator.6"* %6 to i8*
  call void @llvm.memcpy.p0i8.p0i8.i64(i8* align 8 %13, i8* align 8 %14, i64 8, i1 false)
  %15 = getelementptr inbounds %"class.std::move_iterator.6", %"class.std::move_iterator.6"* %7, i32 0, i32 0
  %16 = load %struct.state*, %struct.state** %15, align 8
  %17 = getelementptr inbounds %"class.std::move_iterator.6", %"class.std::move_iterator.6"* %8, i32 0, i32 0
  %18 = load %struct.state*, %struct.state** %17, align 8
  %19 = call %struct.state* @_ZSt18uninitialized_copyISt13move_iteratorIP5stateES2_ET0_T_S5_S4_(%struct.state* %16, %struct.state* %18, %struct.state* %2)
  ret %struct.state* %19
}

; Function Attrs: noinline uwtable
define linkonce_odr %struct.state* @_ZSt32__make_move_if_noexcept_iteratorI5stateSt13move_iteratorIPS0_EET0_PT_(%struct.state* %0) #0 comdat {
  %2 = alloca %"class.std::move_iterator.6", align 8
  call void @_ZNSt13move_iteratorIP5stateEC2ES1_(%"class.std::move_iterator.6"* %2, %struct.state* %0)
  %3 = getelementptr inbounds %"class.std::move_iterator.6", %"class.std::move_iterator.6"* %2, i32 0, i32 0
  %4 = load %struct.state*, %struct.state** %3, align 8
  ret %struct.state* %4
}

; Function Attrs: noinline uwtable
define linkonce_odr %struct.state* @_ZSt18uninitialized_copyISt13move_iteratorIP5stateES2_ET0_T_S5_S4_(%struct.state* %0, %struct.state* %1, %struct.state* %2) #0 comdat {
  %4 = alloca %"class.std::move_iterator.6", align 8
  %5 = alloca %"class.std::move_iterator.6", align 8
  %6 = alloca %"class.std::move_iterator.6", align 8
  %7 = alloca %"class.std::move_iterator.6", align 8
  %8 = getelementptr inbounds %"class.std::move_iterator.6", %"class.std::move_iterator.6"* %4, i32 0, i32 0
  store %struct.state* %0, %struct.state** %8, align 8
  %9 = getelementptr inbounds %"class.std::move_iterator.6", %"class.std::move_iterator.6"* %5, i32 0, i32 0
  store %struct.state* %1, %struct.state** %9, align 8
  %10 = bitcast %"class.std::move_iterator.6"* %6 to i8*
  %11 = bitcast %"class.std::move_iterator.6"* %4 to i8*
  call void @llvm.memcpy.p0i8.p0i8.i64(i8* align 8 %10, i8* align 8 %11, i64 8, i1 false)
  %12 = bitcast %"class.std::move_iterator.6"* %7 to i8*
  %13 = bitcast %"class.std::move_iterator.6"* %5 to i8*
  call void @llvm.memcpy.p0i8.p0i8.i64(i8* align 8 %12, i8* align 8 %13, i64 8, i1 false)
  %14 = getelementptr inbounds %"class.std::move_iterator.6", %"class.std::move_iterator.6"* %6, i32 0, i32 0
  %15 = load %struct.state*, %struct.state** %14, align 8
  %16 = getelementptr inbounds %"class.std::move_iterator.6", %"class.std::move_iterator.6"* %7, i32 0, i32 0
  %17 = load %struct.state*, %struct.state** %16, align 8
  %18 = call %struct.state* @_ZNSt20__uninitialized_copyILb1EE13__uninit_copyISt13move_iteratorIP5stateES4_EET0_T_S7_S6_(%struct.state* %15, %struct.state* %17, %struct.state* %2)
  ret %struct.state* %18
}

; Function Attrs: noinline uwtable
define linkonce_odr %struct.state* @_ZNSt20__uninitialized_copyILb1EE13__uninit_copyISt13move_iteratorIP5stateES4_EET0_T_S7_S6_(%struct.state* %0, %struct.state* %1, %struct.state* %2) #0 comdat align 2 {
  %4 = alloca %"class.std::move_iterator.6", align 8
  %5 = alloca %"class.std::move_iterator.6", align 8
  %6 = alloca %"class.std::move_iterator.6", align 8
  %7 = alloca %"class.std::move_iterator.6", align 8
  %8 = getelementptr inbounds %"class.std::move_iterator.6", %"class.std::move_iterator.6"* %4, i32 0, i32 0
  store %struct.state* %0, %struct.state** %8, align 8
  %9 = getelementptr inbounds %"class.std::move_iterator.6", %"class.std::move_iterator.6"* %5, i32 0, i32 0
  store %struct.state* %1, %struct.state** %9, align 8
  %10 = bitcast %"class.std::move_iterator.6"* %6 to i8*
  %11 = bitcast %"class.std::move_iterator.6"* %4 to i8*
  call void @llvm.memcpy.p0i8.p0i8.i64(i8* align 8 %10, i8* align 8 %11, i64 8, i1 false)
  %12 = bitcast %"class.std::move_iterator.6"* %7 to i8*
  %13 = bitcast %"class.std::move_iterator.6"* %5 to i8*
  call void @llvm.memcpy.p0i8.p0i8.i64(i8* align 8 %12, i8* align 8 %13, i64 8, i1 false)
  %14 = getelementptr inbounds %"class.std::move_iterator.6", %"class.std::move_iterator.6"* %6, i32 0, i32 0
  %15 = load %struct.state*, %struct.state** %14, align 8
  %16 = getelementptr inbounds %"class.std::move_iterator.6", %"class.std::move_iterator.6"* %7, i32 0, i32 0
  %17 = load %struct.state*, %struct.state** %16, align 8
  %18 = call %struct.state* @_ZSt4copyISt13move_iteratorIP5stateES2_ET0_T_S5_S4_(%struct.state* %15, %struct.state* %17, %struct.state* %2)
  ret %struct.state* %18
}

; Function Attrs: noinline uwtable
define linkonce_odr %struct.state* @_ZSt4copyISt13move_iteratorIP5stateES2_ET0_T_S5_S4_(%struct.state* %0, %struct.state* %1, %struct.state* %2) #0 comdat {
  %4 = alloca %"class.std::move_iterator.6", align 8
  %5 = alloca %"class.std::move_iterator.6", align 8
  %6 = alloca %"class.std::move_iterator.6", align 8
  %7 = alloca %"class.std::move_iterator.6", align 8
  %8 = getelementptr inbounds %"class.std::move_iterator.6", %"class.std::move_iterator.6"* %4, i32 0, i32 0
  store %struct.state* %0, %struct.state** %8, align 8
  %9 = getelementptr inbounds %"class.std::move_iterator.6", %"class.std::move_iterator.6"* %5, i32 0, i32 0
  store %struct.state* %1, %struct.state** %9, align 8
  %10 = bitcast %"class.std::move_iterator.6"* %6 to i8*
  %11 = bitcast %"class.std::move_iterator.6"* %4 to i8*
  call void @llvm.memcpy.p0i8.p0i8.i64(i8* align 8 %10, i8* align 8 %11, i64 8, i1 false)
  %12 = getelementptr inbounds %"class.std::move_iterator.6", %"class.std::move_iterator.6"* %6, i32 0, i32 0
  %13 = load %struct.state*, %struct.state** %12, align 8
  %14 = call %struct.state* @_ZSt12__miter_baseIP5stateEDTcl12__miter_basecldtfp_4baseEEESt13move_iteratorIT_E(%struct.state* %13)
  %15 = bitcast %"class.std::move_iterator.6"* %7 to i8*
  %16 = bitcast %"class.std::move_iterator.6"* %5 to i8*
  call void @llvm.memcpy.p0i8.p0i8.i64(i8* align 8 %15, i8* align 8 %16, i64 8, i1 false)
  %17 = getelementptr inbounds %"class.std::move_iterator.6", %"class.std::move_iterator.6"* %7, i32 0, i32 0
  %18 = load %struct.state*, %struct.state** %17, align 8
  %19 = call %struct.state* @_ZSt12__miter_baseIP5stateEDTcl12__miter_basecldtfp_4baseEEESt13move_iteratorIT_E(%struct.state* %18)
  %20 = call %struct.state* @_ZSt14__copy_move_a2ILb1EP5stateS1_ET1_T0_S3_S2_(%struct.state* %14, %struct.state* %19, %struct.state* %2)
  ret %struct.state* %20
}

; Function Attrs: noinline uwtable
define linkonce_odr %struct.state* @_ZSt14__copy_move_a2ILb1EP5stateS1_ET1_T0_S3_S2_(%struct.state* %0, %struct.state* %1, %struct.state* %2) #0 comdat {
  %4 = call %struct.state* @_ZSt12__niter_baseIP5stateET_S2_(%struct.state* %0)
  %5 = call %struct.state* @_ZSt12__niter_baseIP5stateET_S2_(%struct.state* %1)
  %6 = call %struct.state* @_ZSt12__niter_baseIP5stateET_S2_(%struct.state* %2)
  %7 = call %struct.state* @_ZSt13__copy_move_aILb1EP5stateS1_ET1_T0_S3_S2_(%struct.state* %4, %struct.state* %5, %struct.state* %6)
  ret %struct.state* %7
}

; Function Attrs: noinline uwtable
define linkonce_odr %struct.state* @_ZSt12__miter_baseIP5stateEDTcl12__miter_basecldtfp_4baseEEESt13move_iteratorIT_E(%struct.state* %0) #0 comdat {
  %2 = alloca %"class.std::move_iterator.6", align 8
  %3 = getelementptr inbounds %"class.std::move_iterator.6", %"class.std::move_iterator.6"* %2, i32 0, i32 0
  store %struct.state* %0, %struct.state** %3, align 8
  %4 = call %struct.state* @_ZNKSt13move_iteratorIP5stateE4baseEv(%"class.std::move_iterator.6"* %2)
  %5 = call %struct.state* @_ZSt12__miter_baseIP5stateET_S2_(%struct.state* %4)
  ret %struct.state* %5
}

; Function Attrs: noinline uwtable
define linkonce_odr %struct.state* @_ZSt13__copy_move_aILb1EP5stateS1_ET1_T0_S3_S2_(%struct.state* %0, %struct.state* %1, %struct.state* %2) #0 comdat {
  %4 = call %struct.state* @_ZNSt11__copy_moveILb1ELb1ESt26random_access_iterator_tagE8__copy_mI5stateEEPT_PKS4_S7_S5_(%struct.state* %0, %struct.state* %1, %struct.state* %2)
  ret %struct.state* %4
}

; Function Attrs: noinline nounwind uwtable
define linkonce_odr %struct.state* @_ZSt12__niter_baseIP5stateET_S2_(%struct.state* %0) #4 comdat {
  ret %struct.state* %0
}

; Function Attrs: noinline nounwind uwtable
define linkonce_odr %struct.state* @_ZNSt11__copy_moveILb1ELb1ESt26random_access_iterator_tagE8__copy_mI5stateEEPT_PKS4_S7_S5_(%struct.state* %0, %struct.state* %1, %struct.state* %2) #4 comdat align 2 {
  %4 = ptrtoint %struct.state* %1 to i64
  %5 = ptrtoint %struct.state* %0 to i64
  %6 = sub i64 %4, %5
  %7 = sdiv exact i64 %6, 16
  %8 = icmp ne i64 %7, 0
  br i1 %8, label %9, label %13

9:                                                ; preds = %3
  %10 = bitcast %struct.state* %2 to i8*
  %11 = bitcast %struct.state* %0 to i8*
  %12 = mul i64 16, %7
  call void @llvm.memmove.p0i8.p0i8.i64(i8* align 8 %10, i8* align 8 %11, i64 %12, i1 false)
  br label %13

13:                                               ; preds = %9, %3
  %14 = getelementptr inbounds %struct.state, %struct.state* %2, i64 %7
  ret %struct.state* %14
}

; Function Attrs: noinline nounwind uwtable
define linkonce_odr %struct.state* @_ZSt12__miter_baseIP5stateET_S2_(%struct.state* %0) #4 comdat {
  ret %struct.state* %0
}

; Function Attrs: noinline nounwind uwtable
define linkonce_odr %struct.state* @_ZNKSt13move_iteratorIP5stateE4baseEv(%"class.std::move_iterator.6"* %0) #4 comdat align 2 {
  %2 = getelementptr inbounds %"class.std::move_iterator.6", %"class.std::move_iterator.6"* %0, i32 0, i32 0
  %3 = load %struct.state*, %struct.state** %2, align 8
  ret %struct.state* %3
}

; Function Attrs: noinline nounwind uwtable
define linkonce_odr void @_ZNSt13move_iteratorIP5stateEC2ES1_(%"class.std::move_iterator.6"* %0, %struct.state* %1) unnamed_addr #4 comdat align 2 {
  %3 = getelementptr inbounds %"class.std::move_iterator.6", %"class.std::move_iterator.6"* %0, i32 0, i32 0
  store %struct.state* %1, %struct.state** %3, align 8
  ret void
}

; Function Attrs: noinline nounwind uwtable
define linkonce_odr void @_ZN9__gnu_cxx13new_allocatorI5stateE7destroyIS1_EEvPT_(%"class.__gnu_cxx::new_allocator.3"* %0, %struct.state* %1) #4 comdat align 2 {
  ret void
}

; Function Attrs: noinline nounwind uwtable
define linkonce_odr dereferenceable(1) %"struct.std::less"* @_ZSt4moveIRSt4lessI5stateEEONSt16remove_referenceIT_E4typeEOS5_(%"struct.std::less"* dereferenceable(1) %0) #4 comdat {
  ret %"struct.std::less"* %0
}

; Function Attrs: noinline nounwind uwtable
define linkonce_odr void @_ZN9__gnu_cxx5__ops14_Iter_comp_valISt4lessI5stateEEC2ES4_(%"struct.__gnu_cxx::__ops::_Iter_comp_val"* %0) unnamed_addr #4 comdat align 2 {
  %2 = alloca %"struct.std::less", align 1
  %3 = getelementptr inbounds %"struct.__gnu_cxx::__ops::_Iter_comp_val", %"struct.__gnu_cxx::__ops::_Iter_comp_val"* %0, i32 0, i32 0
  %4 = call dereferenceable(1) %"struct.std::less"* @_ZSt4moveIRSt4lessI5stateEEONSt16remove_referenceIT_E4typeEOS5_(%"struct.std::less"* dereferenceable(1) %2) #3
  ret void
}

; Function Attrs: noinline nounwind uwtable
define linkonce_odr %struct.state* @_ZNK9__gnu_cxx17__normal_iteratorIP5stateSt6vectorIS1_SaIS1_EEEmiEl(%"class.__gnu_cxx::__normal_iterator.5"* %0, i64 %1) #4 comdat align 2 {
  %3 = alloca %"class.__gnu_cxx::__normal_iterator.5", align 8
  %4 = alloca %struct.state*, align 8
  %5 = getelementptr inbounds %"class.__gnu_cxx::__normal_iterator.5", %"class.__gnu_cxx::__normal_iterator.5"* %0, i32 0, i32 0
  %6 = load %struct.state*, %struct.state** %5, align 8
  %7 = sub i64 0, %1
  %8 = getelementptr inbounds %struct.state, %struct.state* %6, i64 %7
  store %struct.state* %8, %struct.state** %4, align 8
  call void @_ZN9__gnu_cxx17__normal_iteratorIP5stateSt6vectorIS1_SaIS1_EEEC2ERKS2_(%"class.__gnu_cxx::__normal_iterator.5"* %3, %struct.state** dereferenceable(8) %4) #3
  %9 = getelementptr inbounds %"class.__gnu_cxx::__normal_iterator.5", %"class.__gnu_cxx::__normal_iterator.5"* %3, i32 0, i32 0
  %10 = load %struct.state*, %struct.state** %9, align 8
  ret %struct.state* %10
}

; Function Attrs: noinline nounwind uwtable
define linkonce_odr dereferenceable(16) %struct.state* @_ZNK9__gnu_cxx17__normal_iteratorIP5stateSt6vectorIS1_SaIS1_EEEdeEv(%"class.__gnu_cxx::__normal_iterator.5"* %0) #4 comdat align 2 {
  %2 = getelementptr inbounds %"class.__gnu_cxx::__normal_iterator.5", %"class.__gnu_cxx::__normal_iterator.5"* %0, i32 0, i32 0
  %3 = load %struct.state*, %struct.state** %2, align 8
  ret %struct.state* %3
}

; Function Attrs: noinline uwtable
define linkonce_odr void @_ZSt11__push_heapIN9__gnu_cxx17__normal_iteratorIP5stateSt6vectorIS2_SaIS2_EEEElS2_NS0_5__ops14_Iter_comp_valISt4lessIS2_EEEEvT_T0_SE_T1_RT2_(%struct.state* %0, i64 %1, i64 %2, i64 %3, i64 %4, %"struct.__gnu_cxx::__ops::_Iter_comp_val"* dereferenceable(1) %5) #0 comdat {
  %7 = alloca %"class.__gnu_cxx::__normal_iterator.5", align 8
  %8 = alloca %struct.state, align 8
  %9 = alloca %"class.__gnu_cxx::__normal_iterator.5", align 8
  %10 = alloca %"class.__gnu_cxx::__normal_iterator.5", align 8
  %11 = alloca %"class.__gnu_cxx::__normal_iterator.5", align 8
  %12 = alloca %"class.__gnu_cxx::__normal_iterator.5", align 8
  %13 = getelementptr inbounds %"class.__gnu_cxx::__normal_iterator.5", %"class.__gnu_cxx::__normal_iterator.5"* %7, i32 0, i32 0
  store %struct.state* %0, %struct.state** %13, align 8
  %14 = bitcast %struct.state* %8 to { i64, i64 }*
  %15 = getelementptr inbounds { i64, i64 }, { i64, i64 }* %14, i32 0, i32 0
  store i64 %3, i64* %15, align 8
  %16 = getelementptr inbounds { i64, i64 }, { i64, i64 }* %14, i32 0, i32 1
  store i64 %4, i64* %16, align 8
  %17 = sub nsw i64 %1, 1
  %18 = sdiv i64 %17, 2
  br label %19

19:                                               ; preds = %29, %6
  %.01 = phi i64 [ %18, %6 ], [ %40, %29 ]
  %.0 = phi i64 [ %1, %6 ], [ %.01, %29 ]
  %20 = icmp sgt i64 %.0, %2
  br i1 %20, label %21, label %27

21:                                               ; preds = %19
  %22 = call %struct.state* @_ZNK9__gnu_cxx17__normal_iteratorIP5stateSt6vectorIS1_SaIS1_EEEplEl(%"class.__gnu_cxx::__normal_iterator.5"* %7, i64 %.01) #3
  %23 = getelementptr inbounds %"class.__gnu_cxx::__normal_iterator.5", %"class.__gnu_cxx::__normal_iterator.5"* %9, i32 0, i32 0
  store %struct.state* %22, %struct.state** %23, align 8
  %24 = getelementptr inbounds %"class.__gnu_cxx::__normal_iterator.5", %"class.__gnu_cxx::__normal_iterator.5"* %9, i32 0, i32 0
  %25 = load %struct.state*, %struct.state** %24, align 8
  %26 = call zeroext i1 @_ZN9__gnu_cxx5__ops14_Iter_comp_valISt4lessI5stateEEclINS_17__normal_iteratorIPS3_St6vectorIS3_SaIS3_EEEES3_EEbT_RT0_(%"struct.__gnu_cxx::__ops::_Iter_comp_val"* %5, %struct.state* %25, %struct.state* dereferenceable(16) %8)
  br label %27

27:                                               ; preds = %21, %19
  %28 = phi i1 [ false, %19 ], [ %26, %21 ]
  br i1 %28, label %29, label %41

29:                                               ; preds = %27
  %30 = call %struct.state* @_ZNK9__gnu_cxx17__normal_iteratorIP5stateSt6vectorIS1_SaIS1_EEEplEl(%"class.__gnu_cxx::__normal_iterator.5"* %7, i64 %.01) #3
  %31 = getelementptr inbounds %"class.__gnu_cxx::__normal_iterator.5", %"class.__gnu_cxx::__normal_iterator.5"* %10, i32 0, i32 0
  store %struct.state* %30, %struct.state** %31, align 8
  %32 = call dereferenceable(16) %struct.state* @_ZNK9__gnu_cxx17__normal_iteratorIP5stateSt6vectorIS1_SaIS1_EEEdeEv(%"class.__gnu_cxx::__normal_iterator.5"* %10) #3
  %33 = call dereferenceable(16) %struct.state* @_ZSt4moveIR5stateEONSt16remove_referenceIT_E4typeEOS3_(%struct.state* dereferenceable(16) %32) #3
  %34 = call %struct.state* @_ZNK9__gnu_cxx17__normal_iteratorIP5stateSt6vectorIS1_SaIS1_EEEplEl(%"class.__gnu_cxx::__normal_iterator.5"* %7, i64 %.0) #3
  %35 = getelementptr inbounds %"class.__gnu_cxx::__normal_iterator.5", %"class.__gnu_cxx::__normal_iterator.5"* %11, i32 0, i32 0
  store %struct.state* %34, %struct.state** %35, align 8
  %36 = call dereferenceable(16) %struct.state* @_ZNK9__gnu_cxx17__normal_iteratorIP5stateSt6vectorIS1_SaIS1_EEEdeEv(%"class.__gnu_cxx::__normal_iterator.5"* %11) #3
  %37 = bitcast %struct.state* %36 to i8*
  %38 = bitcast %struct.state* %33 to i8*
  call void @llvm.memcpy.p0i8.p0i8.i64(i8* align 8 %37, i8* align 8 %38, i64 16, i1 false)
  %39 = sub nsw i64 %.01, 1
  %40 = sdiv i64 %39, 2
  br label %19

41:                                               ; preds = %27
  %42 = call dereferenceable(16) %struct.state* @_ZSt4moveIR5stateEONSt16remove_referenceIT_E4typeEOS3_(%struct.state* dereferenceable(16) %8) #3
  %43 = call %struct.state* @_ZNK9__gnu_cxx17__normal_iteratorIP5stateSt6vectorIS1_SaIS1_EEEplEl(%"class.__gnu_cxx::__normal_iterator.5"* %7, i64 %.0) #3
  %44 = getelementptr inbounds %"class.__gnu_cxx::__normal_iterator.5", %"class.__gnu_cxx::__normal_iterator.5"* %12, i32 0, i32 0
  store %struct.state* %43, %struct.state** %44, align 8
  %45 = call dereferenceable(16) %struct.state* @_ZNK9__gnu_cxx17__normal_iteratorIP5stateSt6vectorIS1_SaIS1_EEEdeEv(%"class.__gnu_cxx::__normal_iterator.5"* %12) #3
  %46 = bitcast %struct.state* %45 to i8*
  %47 = bitcast %struct.state* %42 to i8*
  call void @llvm.memcpy.p0i8.p0i8.i64(i8* align 8 %46, i8* align 8 %47, i64 16, i1 false)
  ret void
}

; Function Attrs: noinline nounwind uwtable
define linkonce_odr void @_ZN9__gnu_cxx17__normal_iteratorIP5stateSt6vectorIS1_SaIS1_EEEC2ERKS2_(%"class.__gnu_cxx::__normal_iterator.5"* %0, %struct.state** dereferenceable(8) %1) unnamed_addr #4 comdat align 2 {
  %3 = getelementptr inbounds %"class.__gnu_cxx::__normal_iterator.5", %"class.__gnu_cxx::__normal_iterator.5"* %0, i32 0, i32 0
  %4 = load %struct.state*, %struct.state** %1, align 8
  store %struct.state* %4, %struct.state** %3, align 8
  ret void
}

; Function Attrs: noinline uwtable
define linkonce_odr zeroext i1 @_ZN9__gnu_cxx5__ops14_Iter_comp_valISt4lessI5stateEEclINS_17__normal_iteratorIPS3_St6vectorIS3_SaIS3_EEEES3_EEbT_RT0_(%"struct.__gnu_cxx::__ops::_Iter_comp_val"* %0, %struct.state* %1, %struct.state* dereferenceable(16) %2) #0 comdat align 2 {
  %4 = alloca %"class.__gnu_cxx::__normal_iterator.5", align 8
  %5 = getelementptr inbounds %"class.__gnu_cxx::__normal_iterator.5", %"class.__gnu_cxx::__normal_iterator.5"* %4, i32 0, i32 0
  store %struct.state* %1, %struct.state** %5, align 8
  %6 = getelementptr inbounds %"struct.__gnu_cxx::__ops::_Iter_comp_val", %"struct.__gnu_cxx::__ops::_Iter_comp_val"* %0, i32 0, i32 0
  %7 = call dereferenceable(16) %struct.state* @_ZNK9__gnu_cxx17__normal_iteratorIP5stateSt6vectorIS1_SaIS1_EEEdeEv(%"class.__gnu_cxx::__normal_iterator.5"* %4) #3
  %8 = call zeroext i1 @_ZNKSt4lessI5stateEclERKS0_S3_(%"struct.std::less"* %6, %struct.state* dereferenceable(16) %7, %struct.state* dereferenceable(16) %2)
  ret i1 %8
}

; Function Attrs: noinline nounwind uwtable
define linkonce_odr %struct.state* @_ZNK9__gnu_cxx17__normal_iteratorIP5stateSt6vectorIS1_SaIS1_EEEplEl(%"class.__gnu_cxx::__normal_iterator.5"* %0, i64 %1) #4 comdat align 2 {
  %3 = alloca %"class.__gnu_cxx::__normal_iterator.5", align 8
  %4 = alloca %struct.state*, align 8
  %5 = getelementptr inbounds %"class.__gnu_cxx::__normal_iterator.5", %"class.__gnu_cxx::__normal_iterator.5"* %0, i32 0, i32 0
  %6 = load %struct.state*, %struct.state** %5, align 8
  %7 = getelementptr inbounds %struct.state, %struct.state* %6, i64 %1
  store %struct.state* %7, %struct.state** %4, align 8
  call void @_ZN9__gnu_cxx17__normal_iteratorIP5stateSt6vectorIS1_SaIS1_EEEC2ERKS2_(%"class.__gnu_cxx::__normal_iterator.5"* %3, %struct.state** dereferenceable(8) %4) #3
  %8 = getelementptr inbounds %"class.__gnu_cxx::__normal_iterator.5", %"class.__gnu_cxx::__normal_iterator.5"* %3, i32 0, i32 0
  %9 = load %struct.state*, %struct.state** %8, align 8
  ret %struct.state* %9
}

; Function Attrs: noinline nounwind uwtable
define linkonce_odr zeroext i1 @_ZNKSt4lessI5stateEclERKS0_S3_(%"struct.std::less"* %0, %struct.state* dereferenceable(16) %1, %struct.state* dereferenceable(16) %2) #4 comdat align 2 {
  %4 = call zeroext i1 @_ZltRK5stateS1_(%struct.state* dereferenceable(16) %1, %struct.state* dereferenceable(16) %2)
  ret i1 %4
}

; Function Attrs: noinline nounwind uwtable
define linkonce_odr dereferenceable(16) %struct.state* @_ZNKSt6vectorI5stateSaIS0_EE5frontEv(%"class.std::vector.0"* %0) #4 comdat align 2 {
  %2 = alloca %"class.__gnu_cxx::__normal_iterator.7", align 8
  %3 = call %struct.state* @_ZNKSt6vectorI5stateSaIS0_EE5beginEv(%"class.std::vector.0"* %0) #3
  %4 = getelementptr inbounds %"class.__gnu_cxx::__normal_iterator.7", %"class.__gnu_cxx::__normal_iterator.7"* %2, i32 0, i32 0
  store %struct.state* %3, %struct.state** %4, align 8
  %5 = call dereferenceable(16) %struct.state* @_ZNK9__gnu_cxx17__normal_iteratorIPK5stateSt6vectorIS1_SaIS1_EEEdeEv(%"class.__gnu_cxx::__normal_iterator.7"* %2) #3
  ret %struct.state* %5
}

; Function Attrs: noinline nounwind uwtable
define linkonce_odr %struct.state* @_ZNKSt6vectorI5stateSaIS0_EE5beginEv(%"class.std::vector.0"* %0) #4 comdat align 2 {
  %2 = alloca %"class.__gnu_cxx::__normal_iterator.7", align 8
  %3 = alloca %struct.state*, align 8
  %4 = bitcast %"class.std::vector.0"* %0 to %"struct.std::_Vector_base.1"*
  %5 = getelementptr inbounds %"struct.std::_Vector_base.1", %"struct.std::_Vector_base.1"* %4, i32 0, i32 0
  %6 = getelementptr inbounds %"struct.std::_Vector_base<state, std::allocator<state> >::_Vector_impl", %"struct.std::_Vector_base<state, std::allocator<state> >::_Vector_impl"* %5, i32 0, i32 0
  %7 = load %struct.state*, %struct.state** %6, align 8
  store %struct.state* %7, %struct.state** %3, align 8
  call void @_ZN9__gnu_cxx17__normal_iteratorIPK5stateSt6vectorIS1_SaIS1_EEEC2ERKS3_(%"class.__gnu_cxx::__normal_iterator.7"* %2, %struct.state** dereferenceable(8) %3) #3
  %8 = getelementptr inbounds %"class.__gnu_cxx::__normal_iterator.7", %"class.__gnu_cxx::__normal_iterator.7"* %2, i32 0, i32 0
  %9 = load %struct.state*, %struct.state** %8, align 8
  ret %struct.state* %9
}

; Function Attrs: noinline nounwind uwtable
define linkonce_odr dereferenceable(16) %struct.state* @_ZNK9__gnu_cxx17__normal_iteratorIPK5stateSt6vectorIS1_SaIS1_EEEdeEv(%"class.__gnu_cxx::__normal_iterator.7"* %0) #4 comdat align 2 {
  %2 = getelementptr inbounds %"class.__gnu_cxx::__normal_iterator.7", %"class.__gnu_cxx::__normal_iterator.7"* %0, i32 0, i32 0
  %3 = load %struct.state*, %struct.state** %2, align 8
  ret %struct.state* %3
}

; Function Attrs: noinline nounwind uwtable
define linkonce_odr void @_ZN9__gnu_cxx17__normal_iteratorIPK5stateSt6vectorIS1_SaIS1_EEEC2ERKS3_(%"class.__gnu_cxx::__normal_iterator.7"* %0, %struct.state** dereferenceable(8) %1) unnamed_addr #4 comdat align 2 {
  %3 = getelementptr inbounds %"class.__gnu_cxx::__normal_iterator.7", %"class.__gnu_cxx::__normal_iterator.7"* %0, i32 0, i32 0
  %4 = load %struct.state*, %struct.state** %1, align 8
  store %struct.state* %4, %struct.state** %3, align 8
  ret void
}

; Function Attrs: noinline uwtable
define linkonce_odr void @_ZSt8pop_heapIN9__gnu_cxx17__normal_iteratorIP5stateSt6vectorIS2_SaIS2_EEEESt4lessIS2_EEvT_SA_T0_(%struct.state* %0, %struct.state* %1) #0 comdat {
  %3 = alloca %"class.__gnu_cxx::__normal_iterator.5", align 8
  %4 = alloca %"class.__gnu_cxx::__normal_iterator.5", align 8
  %5 = alloca %"struct.std::less", align 1
  %6 = alloca %"struct.__gnu_cxx::__ops::_Iter_comp_iter", align 1
  %7 = alloca %"class.__gnu_cxx::__normal_iterator.5", align 8
  %8 = alloca %"class.__gnu_cxx::__normal_iterator.5", align 8
  %9 = alloca %"class.__gnu_cxx::__normal_iterator.5", align 8
  %10 = getelementptr inbounds %"class.__gnu_cxx::__normal_iterator.5", %"class.__gnu_cxx::__normal_iterator.5"* %3, i32 0, i32 0
  store %struct.state* %0, %struct.state** %10, align 8
  %11 = getelementptr inbounds %"class.__gnu_cxx::__normal_iterator.5", %"class.__gnu_cxx::__normal_iterator.5"* %4, i32 0, i32 0
  store %struct.state* %1, %struct.state** %11, align 8
  %12 = call i64 @_ZN9__gnu_cxxmiIP5stateSt6vectorIS1_SaIS1_EEEENS_17__normal_iteratorIT_T0_E15difference_typeERKS9_SC_(%"class.__gnu_cxx::__normal_iterator.5"* dereferenceable(8) %4, %"class.__gnu_cxx::__normal_iterator.5"* dereferenceable(8) %3) #3
  %13 = icmp sgt i64 %12, 1
  br i1 %13, label %14, label %29

14:                                               ; preds = %2
  %15 = call dereferenceable(1) %"struct.std::less"* @_ZSt4moveIRSt4lessI5stateEEONSt16remove_referenceIT_E4typeEOS5_(%"struct.std::less"* dereferenceable(1) %5) #3
  call void @_ZN9__gnu_cxx5__ops15_Iter_comp_iterISt4lessI5stateEEC2ES4_(%"struct.__gnu_cxx::__ops::_Iter_comp_iter"* %6)
  %16 = call dereferenceable(8) %"class.__gnu_cxx::__normal_iterator.5"* @_ZN9__gnu_cxx17__normal_iteratorIP5stateSt6vectorIS1_SaIS1_EEEmmEv(%"class.__gnu_cxx::__normal_iterator.5"* %4) #3
  %17 = bitcast %"class.__gnu_cxx::__normal_iterator.5"* %7 to i8*
  %18 = bitcast %"class.__gnu_cxx::__normal_iterator.5"* %3 to i8*
  call void @llvm.memcpy.p0i8.p0i8.i64(i8* align 8 %17, i8* align 8 %18, i64 8, i1 false)
  %19 = bitcast %"class.__gnu_cxx::__normal_iterator.5"* %8 to i8*
  %20 = bitcast %"class.__gnu_cxx::__normal_iterator.5"* %4 to i8*
  call void @llvm.memcpy.p0i8.p0i8.i64(i8* align 8 %19, i8* align 8 %20, i64 8, i1 false)
  %21 = bitcast %"class.__gnu_cxx::__normal_iterator.5"* %9 to i8*
  %22 = bitcast %"class.__gnu_cxx::__normal_iterator.5"* %4 to i8*
  call void @llvm.memcpy.p0i8.p0i8.i64(i8* align 8 %21, i8* align 8 %22, i64 8, i1 false)
  %23 = getelementptr inbounds %"class.__gnu_cxx::__normal_iterator.5", %"class.__gnu_cxx::__normal_iterator.5"* %7, i32 0, i32 0
  %24 = load %struct.state*, %struct.state** %23, align 8
  %25 = getelementptr inbounds %"class.__gnu_cxx::__normal_iterator.5", %"class.__gnu_cxx::__normal_iterator.5"* %8, i32 0, i32 0
  %26 = load %struct.state*, %struct.state** %25, align 8
  %27 = getelementptr inbounds %"class.__gnu_cxx::__normal_iterator.5", %"class.__gnu_cxx::__normal_iterator.5"* %9, i32 0, i32 0
  %28 = load %struct.state*, %struct.state** %27, align 8
  call void @_ZSt10__pop_heapIN9__gnu_cxx17__normal_iteratorIP5stateSt6vectorIS2_SaIS2_EEEENS0_5__ops15_Iter_comp_iterISt4lessIS2_EEEEvT_SD_SD_RT0_(%struct.state* %24, %struct.state* %26, %struct.state* %28, %"struct.__gnu_cxx::__ops::_Iter_comp_iter"* dereferenceable(1) %6)
  br label %29

29:                                               ; preds = %14, %2
  ret void
}

; Function Attrs: noinline nounwind uwtable
define linkonce_odr void @_ZNSt6vectorI5stateSaIS0_EE8pop_backEv(%"class.std::vector.0"* %0) #4 comdat align 2 personality i8* bitcast (i32 (...)* @__gxx_personality_v0 to i8*) {
  %2 = bitcast %"class.std::vector.0"* %0 to %"struct.std::_Vector_base.1"*
  %3 = getelementptr inbounds %"struct.std::_Vector_base.1", %"struct.std::_Vector_base.1"* %2, i32 0, i32 0
  %4 = getelementptr inbounds %"struct.std::_Vector_base<state, std::allocator<state> >::_Vector_impl", %"struct.std::_Vector_base<state, std::allocator<state> >::_Vector_impl"* %3, i32 0, i32 1
  %5 = load %struct.state*, %struct.state** %4, align 8
  %6 = getelementptr inbounds %struct.state, %struct.state* %5, i32 -1
  store %struct.state* %6, %struct.state** %4, align 8
  %7 = bitcast %"class.std::vector.0"* %0 to %"struct.std::_Vector_base.1"*
  %8 = getelementptr inbounds %"struct.std::_Vector_base.1", %"struct.std::_Vector_base.1"* %7, i32 0, i32 0
  %9 = bitcast %"struct.std::_Vector_base<state, std::allocator<state> >::_Vector_impl"* %8 to %"class.std::allocator.2"*
  %10 = bitcast %"class.std::vector.0"* %0 to %"struct.std::_Vector_base.1"*
  %11 = getelementptr inbounds %"struct.std::_Vector_base.1", %"struct.std::_Vector_base.1"* %10, i32 0, i32 0
  %12 = getelementptr inbounds %"struct.std::_Vector_base<state, std::allocator<state> >::_Vector_impl", %"struct.std::_Vector_base<state, std::allocator<state> >::_Vector_impl"* %11, i32 0, i32 1
  %13 = load %struct.state*, %struct.state** %12, align 8
  invoke void @_ZNSt16allocator_traitsISaI5stateEE7destroyIS0_EEvRS1_PT_(%"class.std::allocator.2"* dereferenceable(1) %9, %struct.state* %13)
          to label %14 unwind label %15

14:                                               ; preds = %1
  ret void

15:                                               ; preds = %1
  %16 = landingpad { i8*, i32 }
          catch i8* null
  %17 = extractvalue { i8*, i32 } %16, 0
  call void @__clang_call_terminate(i8* %17) #12
  unreachable
}

; Function Attrs: noinline nounwind uwtable
define linkonce_odr void @_ZN9__gnu_cxx5__ops15_Iter_comp_iterISt4lessI5stateEEC2ES4_(%"struct.__gnu_cxx::__ops::_Iter_comp_iter"* %0) unnamed_addr #4 comdat align 2 {
  %2 = alloca %"struct.std::less", align 1
  %3 = getelementptr inbounds %"struct.__gnu_cxx::__ops::_Iter_comp_iter", %"struct.__gnu_cxx::__ops::_Iter_comp_iter"* %0, i32 0, i32 0
  %4 = call dereferenceable(1) %"struct.std::less"* @_ZSt4moveIRSt4lessI5stateEEONSt16remove_referenceIT_E4typeEOS5_(%"struct.std::less"* dereferenceable(1) %2) #3
  ret void
}

; Function Attrs: noinline nounwind uwtable
define linkonce_odr dereferenceable(8) %"class.__gnu_cxx::__normal_iterator.5"* @_ZN9__gnu_cxx17__normal_iteratorIP5stateSt6vectorIS1_SaIS1_EEEmmEv(%"class.__gnu_cxx::__normal_iterator.5"* %0) #4 comdat align 2 {
  %2 = getelementptr inbounds %"class.__gnu_cxx::__normal_iterator.5", %"class.__gnu_cxx::__normal_iterator.5"* %0, i32 0, i32 0
  %3 = load %struct.state*, %struct.state** %2, align 8
  %4 = getelementptr inbounds %struct.state, %struct.state* %3, i32 -1
  store %struct.state* %4, %struct.state** %2, align 8
  ret %"class.__gnu_cxx::__normal_iterator.5"* %0
}

; Function Attrs: noinline uwtable
define linkonce_odr void @_ZSt10__pop_heapIN9__gnu_cxx17__normal_iteratorIP5stateSt6vectorIS2_SaIS2_EEEENS0_5__ops15_Iter_comp_iterISt4lessIS2_EEEEvT_SD_SD_RT0_(%struct.state* %0, %struct.state* %1, %struct.state* %2, %"struct.__gnu_cxx::__ops::_Iter_comp_iter"* dereferenceable(1) %3) #0 comdat {
  %5 = alloca %"class.__gnu_cxx::__normal_iterator.5", align 8
  %6 = alloca %"class.__gnu_cxx::__normal_iterator.5", align 8
  %7 = alloca %"class.__gnu_cxx::__normal_iterator.5", align 8
  %8 = alloca %struct.state, align 8
  %9 = alloca %"class.__gnu_cxx::__normal_iterator.5", align 8
  %10 = alloca %struct.state, align 8
  %11 = alloca %"struct.__gnu_cxx::__ops::_Iter_comp_iter", align 1
  %12 = getelementptr inbounds %"class.__gnu_cxx::__normal_iterator.5", %"class.__gnu_cxx::__normal_iterator.5"* %5, i32 0, i32 0
  store %struct.state* %0, %struct.state** %12, align 8
  %13 = getelementptr inbounds %"class.__gnu_cxx::__normal_iterator.5", %"class.__gnu_cxx::__normal_iterator.5"* %6, i32 0, i32 0
  store %struct.state* %1, %struct.state** %13, align 8
  %14 = getelementptr inbounds %"class.__gnu_cxx::__normal_iterator.5", %"class.__gnu_cxx::__normal_iterator.5"* %7, i32 0, i32 0
  store %struct.state* %2, %struct.state** %14, align 8
  %15 = call dereferenceable(16) %struct.state* @_ZNK9__gnu_cxx17__normal_iteratorIP5stateSt6vectorIS1_SaIS1_EEEdeEv(%"class.__gnu_cxx::__normal_iterator.5"* %7) #3
  %16 = call dereferenceable(16) %struct.state* @_ZSt4moveIR5stateEONSt16remove_referenceIT_E4typeEOS3_(%struct.state* dereferenceable(16) %15) #3
  %17 = bitcast %struct.state* %8 to i8*
  %18 = bitcast %struct.state* %16 to i8*
  call void @llvm.memcpy.p0i8.p0i8.i64(i8* align 8 %17, i8* align 8 %18, i64 16, i1 false)
  %19 = call dereferenceable(16) %struct.state* @_ZNK9__gnu_cxx17__normal_iteratorIP5stateSt6vectorIS1_SaIS1_EEEdeEv(%"class.__gnu_cxx::__normal_iterator.5"* %5) #3
  %20 = call dereferenceable(16) %struct.state* @_ZSt4moveIR5stateEONSt16remove_referenceIT_E4typeEOS3_(%struct.state* dereferenceable(16) %19) #3
  %21 = call dereferenceable(16) %struct.state* @_ZNK9__gnu_cxx17__normal_iteratorIP5stateSt6vectorIS1_SaIS1_EEEdeEv(%"class.__gnu_cxx::__normal_iterator.5"* %7) #3
  %22 = bitcast %struct.state* %21 to i8*
  %23 = bitcast %struct.state* %20 to i8*
  call void @llvm.memcpy.p0i8.p0i8.i64(i8* align 8 %22, i8* align 8 %23, i64 16, i1 false)
  %24 = bitcast %"class.__gnu_cxx::__normal_iterator.5"* %9 to i8*
  %25 = bitcast %"class.__gnu_cxx::__normal_iterator.5"* %5 to i8*
  call void @llvm.memcpy.p0i8.p0i8.i64(i8* align 8 %24, i8* align 8 %25, i64 8, i1 false)
  %26 = call i64 @_ZN9__gnu_cxxmiIP5stateSt6vectorIS1_SaIS1_EEEENS_17__normal_iteratorIT_T0_E15difference_typeERKS9_SC_(%"class.__gnu_cxx::__normal_iterator.5"* dereferenceable(8) %6, %"class.__gnu_cxx::__normal_iterator.5"* dereferenceable(8) %5) #3
  %27 = call dereferenceable(16) %struct.state* @_ZSt4moveIR5stateEONSt16remove_referenceIT_E4typeEOS3_(%struct.state* dereferenceable(16) %8) #3
  %28 = bitcast %struct.state* %10 to i8*
  %29 = bitcast %struct.state* %27 to i8*
  call void @llvm.memcpy.p0i8.p0i8.i64(i8* align 8 %28, i8* align 8 %29, i64 16, i1 false)
  %30 = bitcast %"struct.__gnu_cxx::__ops::_Iter_comp_iter"* %11 to i8*
  %31 = bitcast %"struct.__gnu_cxx::__ops::_Iter_comp_iter"* %3 to i8*
  call void @llvm.memcpy.p0i8.p0i8.i64(i8* align 1 %30, i8* align 1 %31, i64 1, i1 false)
  %32 = getelementptr inbounds %"class.__gnu_cxx::__normal_iterator.5", %"class.__gnu_cxx::__normal_iterator.5"* %9, i32 0, i32 0
  %33 = load %struct.state*, %struct.state** %32, align 8
  %34 = bitcast %struct.state* %10 to { i64, i64 }*
  %35 = getelementptr inbounds { i64, i64 }, { i64, i64 }* %34, i32 0, i32 0
  %36 = load i64, i64* %35, align 8
  %37 = getelementptr inbounds { i64, i64 }, { i64, i64 }* %34, i32 0, i32 1
  %38 = load i64, i64* %37, align 8
  call void @_ZSt13__adjust_heapIN9__gnu_cxx17__normal_iteratorIP5stateSt6vectorIS2_SaIS2_EEEElS2_NS0_5__ops15_Iter_comp_iterISt4lessIS2_EEEEvT_T0_SE_T1_T2_(%struct.state* %33, i64 0, i64 %26, i64 %36, i64 %38)
  ret void
}

; Function Attrs: noinline uwtable
define linkonce_odr void @_ZSt13__adjust_heapIN9__gnu_cxx17__normal_iteratorIP5stateSt6vectorIS2_SaIS2_EEEElS2_NS0_5__ops15_Iter_comp_iterISt4lessIS2_EEEEvT_T0_SE_T1_T2_(%struct.state* %0, i64 %1, i64 %2, i64 %3, i64 %4) #0 comdat {
  %6 = alloca %"class.__gnu_cxx::__normal_iterator.5", align 8
  %7 = alloca %struct.state, align 8
  %8 = alloca %"struct.__gnu_cxx::__ops::_Iter_comp_iter", align 1
  %9 = alloca %"class.__gnu_cxx::__normal_iterator.5", align 8
  %10 = alloca %"class.__gnu_cxx::__normal_iterator.5", align 8
  %11 = alloca %"class.__gnu_cxx::__normal_iterator.5", align 8
  %12 = alloca %"class.__gnu_cxx::__normal_iterator.5", align 8
  %13 = alloca %"class.__gnu_cxx::__normal_iterator.5", align 8
  %14 = alloca %"class.__gnu_cxx::__normal_iterator.5", align 8
  %15 = alloca %"struct.__gnu_cxx::__ops::_Iter_comp_val", align 1
  %16 = alloca %"class.__gnu_cxx::__normal_iterator.5", align 8
  %17 = alloca %struct.state, align 8
  %18 = getelementptr inbounds %"class.__gnu_cxx::__normal_iterator.5", %"class.__gnu_cxx::__normal_iterator.5"* %6, i32 0, i32 0
  store %struct.state* %0, %struct.state** %18, align 8
  %19 = bitcast %struct.state* %7 to { i64, i64 }*
  %20 = getelementptr inbounds { i64, i64 }, { i64, i64 }* %19, i32 0, i32 0
  store i64 %3, i64* %20, align 8
  %21 = getelementptr inbounds { i64, i64 }, { i64, i64 }* %19, i32 0, i32 1
  store i64 %4, i64* %21, align 8
  br label %22

22:                                               ; preds = %41, %5
  %.01 = phi i64 [ %1, %5 ], [ %.12, %41 ]
  %.0 = phi i64 [ %1, %5 ], [ %.12, %41 ]
  %23 = sub nsw i64 %2, 1
  %24 = sdiv i64 %23, 2
  %25 = icmp slt i64 %.01, %24
  br i1 %25, label %26, label %51

26:                                               ; preds = %22
  %27 = add nsw i64 %.01, 1
  %28 = mul nsw i64 2, %27
  %29 = call %struct.state* @_ZNK9__gnu_cxx17__normal_iteratorIP5stateSt6vectorIS1_SaIS1_EEEplEl(%"class.__gnu_cxx::__normal_iterator.5"* %6, i64 %28) #3
  %30 = getelementptr inbounds %"class.__gnu_cxx::__normal_iterator.5", %"class.__gnu_cxx::__normal_iterator.5"* %9, i32 0, i32 0
  store %struct.state* %29, %struct.state** %30, align 8
  %31 = sub nsw i64 %28, 1
  %32 = call %struct.state* @_ZNK9__gnu_cxx17__normal_iteratorIP5stateSt6vectorIS1_SaIS1_EEEplEl(%"class.__gnu_cxx::__normal_iterator.5"* %6, i64 %31) #3
  %33 = getelementptr inbounds %"class.__gnu_cxx::__normal_iterator.5", %"class.__gnu_cxx::__normal_iterator.5"* %10, i32 0, i32 0
  store %struct.state* %32, %struct.state** %33, align 8
  %34 = getelementptr inbounds %"class.__gnu_cxx::__normal_iterator.5", %"class.__gnu_cxx::__normal_iterator.5"* %9, i32 0, i32 0
  %35 = load %struct.state*, %struct.state** %34, align 8
  %36 = getelementptr inbounds %"class.__gnu_cxx::__normal_iterator.5", %"class.__gnu_cxx::__normal_iterator.5"* %10, i32 0, i32 0
  %37 = load %struct.state*, %struct.state** %36, align 8
  %38 = call zeroext i1 @_ZN9__gnu_cxx5__ops15_Iter_comp_iterISt4lessI5stateEEclINS_17__normal_iteratorIPS3_St6vectorIS3_SaIS3_EEEESC_EEbT_T0_(%"struct.__gnu_cxx::__ops::_Iter_comp_iter"* %8, %struct.state* %35, %struct.state* %37)
  br i1 %38, label %39, label %41

39:                                               ; preds = %26
  %40 = add nsw i64 %28, -1
  br label %41

41:                                               ; preds = %39, %26
  %.12 = phi i64 [ %40, %39 ], [ %28, %26 ]
  %42 = call %struct.state* @_ZNK9__gnu_cxx17__normal_iteratorIP5stateSt6vectorIS1_SaIS1_EEEplEl(%"class.__gnu_cxx::__normal_iterator.5"* %6, i64 %.12) #3
  %43 = getelementptr inbounds %"class.__gnu_cxx::__normal_iterator.5", %"class.__gnu_cxx::__normal_iterator.5"* %11, i32 0, i32 0
  store %struct.state* %42, %struct.state** %43, align 8
  %44 = call dereferenceable(16) %struct.state* @_ZNK9__gnu_cxx17__normal_iteratorIP5stateSt6vectorIS1_SaIS1_EEEdeEv(%"class.__gnu_cxx::__normal_iterator.5"* %11) #3
  %45 = call dereferenceable(16) %struct.state* @_ZSt4moveIR5stateEONSt16remove_referenceIT_E4typeEOS3_(%struct.state* dereferenceable(16) %44) #3
  %46 = call %struct.state* @_ZNK9__gnu_cxx17__normal_iteratorIP5stateSt6vectorIS1_SaIS1_EEEplEl(%"class.__gnu_cxx::__normal_iterator.5"* %6, i64 %.0) #3
  %47 = getelementptr inbounds %"class.__gnu_cxx::__normal_iterator.5", %"class.__gnu_cxx::__normal_iterator.5"* %12, i32 0, i32 0
  store %struct.state* %46, %struct.state** %47, align 8
  %48 = call dereferenceable(16) %struct.state* @_ZNK9__gnu_cxx17__normal_iteratorIP5stateSt6vectorIS1_SaIS1_EEEdeEv(%"class.__gnu_cxx::__normal_iterator.5"* %12) #3
  %49 = bitcast %struct.state* %48 to i8*
  %50 = bitcast %struct.state* %45 to i8*
  call void @llvm.memcpy.p0i8.p0i8.i64(i8* align 8 %49, i8* align 8 %50, i64 16, i1 false)
  br label %22

51:                                               ; preds = %22
  %52 = and i64 %2, 1
  %53 = icmp eq i64 %52, 0
  br i1 %53, label %54, label %72

54:                                               ; preds = %51
  %55 = sub nsw i64 %2, 2
  %56 = sdiv i64 %55, 2
  %57 = icmp eq i64 %.01, %56
  br i1 %57, label %58, label %72

58:                                               ; preds = %54
  %59 = add nsw i64 %.01, 1
  %60 = mul nsw i64 2, %59
  %61 = sub nsw i64 %60, 1
  %62 = call %struct.state* @_ZNK9__gnu_cxx17__normal_iteratorIP5stateSt6vectorIS1_SaIS1_EEEplEl(%"class.__gnu_cxx::__normal_iterator.5"* %6, i64 %61) #3
  %63 = getelementptr inbounds %"class.__gnu_cxx::__normal_iterator.5", %"class.__gnu_cxx::__normal_iterator.5"* %13, i32 0, i32 0
  store %struct.state* %62, %struct.state** %63, align 8
  %64 = call dereferenceable(16) %struct.state* @_ZNK9__gnu_cxx17__normal_iteratorIP5stateSt6vectorIS1_SaIS1_EEEdeEv(%"class.__gnu_cxx::__normal_iterator.5"* %13) #3
  %65 = call dereferenceable(16) %struct.state* @_ZSt4moveIR5stateEONSt16remove_referenceIT_E4typeEOS3_(%struct.state* dereferenceable(16) %64) #3
  %66 = call %struct.state* @_ZNK9__gnu_cxx17__normal_iteratorIP5stateSt6vectorIS1_SaIS1_EEEplEl(%"class.__gnu_cxx::__normal_iterator.5"* %6, i64 %.0) #3
  %67 = getelementptr inbounds %"class.__gnu_cxx::__normal_iterator.5", %"class.__gnu_cxx::__normal_iterator.5"* %14, i32 0, i32 0
  store %struct.state* %66, %struct.state** %67, align 8
  %68 = call dereferenceable(16) %struct.state* @_ZNK9__gnu_cxx17__normal_iteratorIP5stateSt6vectorIS1_SaIS1_EEEdeEv(%"class.__gnu_cxx::__normal_iterator.5"* %14) #3
  %69 = bitcast %struct.state* %68 to i8*
  %70 = bitcast %struct.state* %65 to i8*
  call void @llvm.memcpy.p0i8.p0i8.i64(i8* align 8 %69, i8* align 8 %70, i64 16, i1 false)
  %71 = sub nsw i64 %60, 1
  br label %72

72:                                               ; preds = %58, %54, %51
  %.1 = phi i64 [ %71, %58 ], [ %.0, %54 ], [ %.0, %51 ]
  %73 = call dereferenceable(1) %"struct.__gnu_cxx::__ops::_Iter_comp_iter"* @_ZSt4moveIRN9__gnu_cxx5__ops15_Iter_comp_iterISt4lessI5stateEEEEONSt16remove_referenceIT_E4typeEOS9_(%"struct.__gnu_cxx::__ops::_Iter_comp_iter"* dereferenceable(1) %8) #3
  call void @_ZN9__gnu_cxx5__ops14_Iter_comp_valISt4lessI5stateEEC2EONS0_15_Iter_comp_iterIS4_EE(%"struct.__gnu_cxx::__ops::_Iter_comp_val"* %15, %"struct.__gnu_cxx::__ops::_Iter_comp_iter"* dereferenceable(1) %73)
  %74 = bitcast %"class.__gnu_cxx::__normal_iterator.5"* %16 to i8*
  %75 = bitcast %"class.__gnu_cxx::__normal_iterator.5"* %6 to i8*
  call void @llvm.memcpy.p0i8.p0i8.i64(i8* align 8 %74, i8* align 8 %75, i64 8, i1 false)
  %76 = call dereferenceable(16) %struct.state* @_ZSt4moveIR5stateEONSt16remove_referenceIT_E4typeEOS3_(%struct.state* dereferenceable(16) %7) #3
  %77 = bitcast %struct.state* %17 to i8*
  %78 = bitcast %struct.state* %76 to i8*
  call void @llvm.memcpy.p0i8.p0i8.i64(i8* align 8 %77, i8* align 8 %78, i64 16, i1 false)
  %79 = getelementptr inbounds %"class.__gnu_cxx::__normal_iterator.5", %"class.__gnu_cxx::__normal_iterator.5"* %16, i32 0, i32 0
  %80 = load %struct.state*, %struct.state** %79, align 8
  %81 = bitcast %struct.state* %17 to { i64, i64 }*
  %82 = getelementptr inbounds { i64, i64 }, { i64, i64 }* %81, i32 0, i32 0
  %83 = load i64, i64* %82, align 8
  %84 = getelementptr inbounds { i64, i64 }, { i64, i64 }* %81, i32 0, i32 1
  %85 = load i64, i64* %84, align 8
  call void @_ZSt11__push_heapIN9__gnu_cxx17__normal_iteratorIP5stateSt6vectorIS2_SaIS2_EEEElS2_NS0_5__ops14_Iter_comp_valISt4lessIS2_EEEEvT_T0_SE_T1_RT2_(%struct.state* %80, i64 %.1, i64 %1, i64 %83, i64 %85, %"struct.__gnu_cxx::__ops::_Iter_comp_val"* dereferenceable(1) %15)
  ret void
}

; Function Attrs: noinline nounwind uwtable
define linkonce_odr zeroext i1 @_ZN9__gnu_cxx5__ops15_Iter_comp_iterISt4lessI5stateEEclINS_17__normal_iteratorIPS3_St6vectorIS3_SaIS3_EEEESC_EEbT_T0_(%"struct.__gnu_cxx::__ops::_Iter_comp_iter"* %0, %struct.state* %1, %struct.state* %2) #4 comdat align 2 {
  %4 = alloca %"class.__gnu_cxx::__normal_iterator.5", align 8
  %5 = alloca %"class.__gnu_cxx::__normal_iterator.5", align 8
  %6 = getelementptr inbounds %"class.__gnu_cxx::__normal_iterator.5", %"class.__gnu_cxx::__normal_iterator.5"* %4, i32 0, i32 0
  store %struct.state* %1, %struct.state** %6, align 8
  %7 = getelementptr inbounds %"class.__gnu_cxx::__normal_iterator.5", %"class.__gnu_cxx::__normal_iterator.5"* %5, i32 0, i32 0
  store %struct.state* %2, %struct.state** %7, align 8
  %8 = getelementptr inbounds %"struct.__gnu_cxx::__ops::_Iter_comp_iter", %"struct.__gnu_cxx::__ops::_Iter_comp_iter"* %0, i32 0, i32 0
  %9 = call dereferenceable(16) %struct.state* @_ZNK9__gnu_cxx17__normal_iteratorIP5stateSt6vectorIS1_SaIS1_EEEdeEv(%"class.__gnu_cxx::__normal_iterator.5"* %4) #3
  %10 = call dereferenceable(16) %struct.state* @_ZNK9__gnu_cxx17__normal_iteratorIP5stateSt6vectorIS1_SaIS1_EEEdeEv(%"class.__gnu_cxx::__normal_iterator.5"* %5) #3
  %11 = call zeroext i1 @_ZNKSt4lessI5stateEclERKS0_S3_(%"struct.std::less"* %8, %struct.state* dereferenceable(16) %9, %struct.state* dereferenceable(16) %10)
  ret i1 %11
}

; Function Attrs: noinline nounwind uwtable
define linkonce_odr dereferenceable(1) %"struct.__gnu_cxx::__ops::_Iter_comp_iter"* @_ZSt4moveIRN9__gnu_cxx5__ops15_Iter_comp_iterISt4lessI5stateEEEEONSt16remove_referenceIT_E4typeEOS9_(%"struct.__gnu_cxx::__ops::_Iter_comp_iter"* dereferenceable(1) %0) #4 comdat {
  ret %"struct.__gnu_cxx::__ops::_Iter_comp_iter"* %0
}

; Function Attrs: noinline nounwind uwtable
define linkonce_odr void @_ZN9__gnu_cxx5__ops14_Iter_comp_valISt4lessI5stateEEC2EONS0_15_Iter_comp_iterIS4_EE(%"struct.__gnu_cxx::__ops::_Iter_comp_val"* %0, %"struct.__gnu_cxx::__ops::_Iter_comp_iter"* dereferenceable(1) %1) unnamed_addr #4 comdat align 2 {
  %3 = getelementptr inbounds %"struct.__gnu_cxx::__ops::_Iter_comp_val", %"struct.__gnu_cxx::__ops::_Iter_comp_val"* %0, i32 0, i32 0
  %4 = getelementptr inbounds %"struct.__gnu_cxx::__ops::_Iter_comp_iter", %"struct.__gnu_cxx::__ops::_Iter_comp_iter"* %1, i32 0, i32 0
  %5 = call dereferenceable(1) %"struct.std::less"* @_ZSt4moveIRSt4lessI5stateEEONSt16remove_referenceIT_E4typeEOS5_(%"struct.std::less"* dereferenceable(1) %4) #3
  ret void
}

; Function Attrs: noinline nounwind uwtable
define linkonce_odr void @_ZN9__gnu_cxx17__normal_iteratorIP4edgeSt6vectorIS1_SaIS1_EEEC2ERKS2_(%"class.__gnu_cxx::__normal_iterator"* %0, %struct.edge** dereferenceable(8) %1) unnamed_addr #4 comdat align 2 {
  %3 = getelementptr inbounds %"class.__gnu_cxx::__normal_iterator", %"class.__gnu_cxx::__normal_iterator"* %0, i32 0, i32 0
  %4 = load %struct.edge*, %struct.edge** %1, align 8
  store %struct.edge* %4, %struct.edge** %3, align 8
  ret void
}

; Function Attrs: noinline uwtable
define internal void @_GLOBAL__sub_I_s426525857.cpp() #0 section ".text.startup" {
  call void @__cxx_global_var_init()
  call void @__cxx_global_var_init.1()
  ret void
}

; Function Attrs: argmemonly nocallback nofree nounwind willreturn
declare void @llvm.memcpy.p0i8.p0i8.i64(i8* noalias nocapture writeonly, i8* noalias nocapture readonly, i64, i1 immarg) #11

; Function Attrs: argmemonly nocallback nofree nounwind willreturn
declare void @llvm.memmove.p0i8.p0i8.i64(i8* nocapture writeonly, i8* nocapture readonly, i64, i1 immarg) #11

attributes #0 = { noinline uwtable "correctly-rounded-divide-sqrt-fp-math"="false" "disable-tail-calls"="false" "less-precise-fpmad"="false" "no-frame-pointer-elim"="true" "no-frame-pointer-elim-non-leaf" "no-infs-fp-math"="false" "no-jump-tables"="false" "no-nans-fp-math"="false" "no-signed-zeros-fp-math"="false" "no-trapping-math"="false" "stack-protector-buffer-size"="8" "target-cpu"="x86-64" "target-features"="+fxsr,+mmx,+sse,+sse2,+x87" "unsafe-fp-math"="false" "use-soft-float"="false" }
attributes #1 = { "correctly-rounded-divide-sqrt-fp-math"="false" "disable-tail-calls"="false" "less-precise-fpmad"="false" "no-frame-pointer-elim"="true" "no-frame-pointer-elim-non-leaf" "no-infs-fp-math"="false" "no-nans-fp-math"="false" "no-signed-zeros-fp-math"="false" "no-trapping-math"="false" "stack-protector-buffer-size"="8" "target-cpu"="x86-64" "target-features"="+fxsr,+mmx,+sse,+sse2,+x87" "unsafe-fp-math"="false" "use-soft-float"="false" }
attributes #2 = { nounwind "correctly-rounded-divide-sqrt-fp-math"="false" "disable-tail-calls"="false" "less-precise-fpmad"="false" "no-frame-pointer-elim"="true" "no-frame-pointer-elim-non-leaf" "no-infs-fp-math"="false" "no-nans-fp-math"="false" "no-signed-zeros-fp-math"="false" "no-trapping-math"="false" "stack-protector-buffer-size"="8" "target-cpu"="x86-64" "target-features"="+fxsr,+mmx,+sse,+sse2,+x87" "unsafe-fp-math"="false" "use-soft-float"="false" }
attributes #3 = { nounwind }
attributes #4 = { noinline nounwind uwtable "correctly-rounded-divide-sqrt-fp-math"="false" "disable-tail-calls"="false" "less-precise-fpmad"="false" "no-frame-pointer-elim"="true" "no-frame-pointer-elim-non-leaf" "no-infs-fp-math"="false" "no-jump-tables"="false" "no-nans-fp-math"="false" "no-signed-zeros-fp-math"="false" "no-trapping-math"="false" "stack-protector-buffer-size"="8" "target-cpu"="x86-64" "target-features"="+fxsr,+mmx,+sse,+sse2,+x87" "unsafe-fp-math"="false" "use-soft-float"="false" }
attributes #5 = { noinline norecurse uwtable "correctly-rounded-divide-sqrt-fp-math"="false" "disable-tail-calls"="false" "less-precise-fpmad"="false" "no-frame-pointer-elim"="true" "no-frame-pointer-elim-non-leaf" "no-infs-fp-math"="false" "no-jump-tables"="false" "no-nans-fp-math"="false" "no-signed-zeros-fp-math"="false" "no-trapping-math"="false" "stack-protector-buffer-size"="8" "target-cpu"="x86-64" "target-features"="+fxsr,+mmx,+sse,+sse2,+x87" "unsafe-fp-math"="false" "use-soft-float"="false" }
attributes #6 = { nocallback nofree nosync nounwind readnone speculatable willreturn }
attributes #7 = { noinline noreturn nounwind }
attributes #8 = { nobuiltin nounwind "correctly-rounded-divide-sqrt-fp-math"="false" "disable-tail-calls"="false" "less-precise-fpmad"="false" "no-frame-pointer-elim"="true" "no-frame-pointer-elim-non-leaf" "no-infs-fp-math"="false" "no-nans-fp-math"="false" "no-signed-zeros-fp-math"="false" "no-trapping-math"="false" "stack-protector-buffer-size"="8" "target-cpu"="x86-64" "target-features"="+fxsr,+mmx,+sse,+sse2,+x87" "unsafe-fp-math"="false" "use-soft-float"="false" }
attributes #9 = { noreturn "correctly-rounded-divide-sqrt-fp-math"="false" "disable-tail-calls"="false" "less-precise-fpmad"="false" "no-frame-pointer-elim"="true" "no-frame-pointer-elim-non-leaf" "no-infs-fp-math"="false" "no-nans-fp-math"="false" "no-signed-zeros-fp-math"="false" "no-trapping-math"="false" "stack-protector-buffer-size"="8" "target-cpu"="x86-64" "target-features"="+fxsr,+mmx,+sse,+sse2,+x87" "unsafe-fp-math"="false" "use-soft-float"="false" }
attributes #10 = { nobuiltin "correctly-rounded-divide-sqrt-fp-math"="false" "disable-tail-calls"="false" "less-precise-fpmad"="false" "no-frame-pointer-elim"="true" "no-frame-pointer-elim-non-leaf" "no-infs-fp-math"="false" "no-nans-fp-math"="false" "no-signed-zeros-fp-math"="false" "no-trapping-math"="false" "stack-protector-buffer-size"="8" "target-cpu"="x86-64" "target-features"="+fxsr,+mmx,+sse,+sse2,+x87" "unsafe-fp-math"="false" "use-soft-float"="false" }
attributes #11 = { argmemonly nocallback nofree nounwind willreturn }
attributes #12 = { noreturn nounwind }
attributes #13 = { noreturn }

!llvm.module.flags = !{!0}
!llvm.ident = !{!1}

!0 = !{i32 1, !"wchar_size", i32 4}
!1 = !{!"clang version 6.0.0-1ubuntu2 (tags/RELEASE_600/final)"}
