; ModuleID = '/home/pedro/tcc/exDataset/codenet/data/selection/p02119/s507968744.ll'
source_filename = "/home/pedro/tcc/exDataset/codenet/data/selection/p02119/s507968744.cpp"
target datalayout = "e-m:e-i64:64-f80:128-n8:16:32:64-S128"
target triple = "x86_64-pc-linux-gnu"

%"class.std::ios_base::Init" = type { i8 }
%"class.std::basic_istream" = type { i32 (...)**, i64, %"class.std::basic_ios" }
%"class.std::basic_ios" = type { %"class.std::ios_base", %"class.std::basic_ostream"*, i8, i8, %"class.std::basic_streambuf"*, %"class.std::ctype"*, %"class.std::num_put"*, %"class.std::num_get"* }
%"class.std::ios_base" = type { i32 (...)**, i64, i64, i32, i32, i32, %"struct.std::ios_base::_Callback_list"*, %"struct.std::ios_base::_Words", [8 x %"struct.std::ios_base::_Words"], i32, %"struct.std::ios_base::_Words"*, %"class.std::locale" }
%"struct.std::ios_base::_Callback_list" = type { %"struct.std::ios_base::_Callback_list"*, void (i32, %"class.std::ios_base"*, i32)*, i32, i32 }
%"struct.std::ios_base::_Words" = type { i8*, i64 }
%"class.std::locale" = type { %"class.std::locale::_Impl"* }
%"class.std::locale::_Impl" = type { i32, %"class.std::locale::facet"**, i64, %"class.std::locale::facet"**, i8** }
%"class.std::locale::facet" = type <{ i32 (...)**, i32, [4 x i8] }>
%"class.std::basic_ostream" = type { i32 (...)**, %"class.std::basic_ios" }
%"class.std::basic_streambuf" = type { i32 (...)**, i8*, i8*, i8*, i8*, i8*, i8*, %"class.std::locale" }
%"class.std::ctype" = type <{ %"class.std::locale::facet.base", [4 x i8], %struct.__locale_struct*, i8, [7 x i8], i32*, i32*, i16*, i8, [256 x i8], [256 x i8], i8, [6 x i8] }>
%"class.std::locale::facet.base" = type <{ i32 (...)**, i32 }>
%struct.__locale_struct = type { [13 x %struct.__locale_data*], i16*, i32*, i32*, [13 x i8*] }
%struct.__locale_data = type opaque
%"class.std::num_put" = type { %"class.std::locale::facet.base", [4 x i8] }
%"class.std::num_get" = type { %"class.std::locale::facet.base", [4 x i8] }
%struct.BipartiteMatching = type { %"class.std::vector", i64, %"class.std::vector.0", %"class.std::vector.0" }
%"class.std::vector" = type { %"struct.std::_Vector_base" }
%"struct.std::_Vector_base" = type { %"struct.std::_Vector_base<std::vector<long long, std::allocator<long long> >, std::allocator<std::vector<long long, std::allocator<long long> > > >::_Vector_impl" }
%"struct.std::_Vector_base<std::vector<long long, std::allocator<long long> >, std::allocator<std::vector<long long, std::allocator<long long> > > >::_Vector_impl" = type { %"class.std::vector.0"*, %"class.std::vector.0"*, %"class.std::vector.0"* }
%"class.std::vector.0" = type { %"struct.std::_Vector_base.1" }
%"struct.std::_Vector_base.1" = type { %"struct.std::_Vector_base<long long, std::allocator<long long> >::_Vector_impl" }
%"struct.std::_Vector_base<long long, std::allocator<long long> >::_Vector_impl" = type { i64*, i64*, i64* }
%"class.__gnu_cxx::__normal_iterator" = type { i64* }
%"class.std::allocator.2" = type { i8 }
%"class.std::allocator" = type { i8 }
%"class.__gnu_cxx::new_allocator" = type { i8 }
%"class.__gnu_cxx::new_allocator.3" = type { i8 }
%"class.std::move_iterator" = type { %"class.std::vector.0"* }
%"struct.std::vector<long long, std::allocator<long long> >::_Temporary_value" = type { %"class.std::vector.0"*, %"union.std::aligned_storage<8, 8>::type" }
%"union.std::aligned_storage<8, 8>::type" = type { [8 x i8] }
%"class.std::move_iterator.5" = type { i64* }

$_ZN17BipartiteMatchingC2Ex = comdat any

$_ZN17BipartiteMatching8add_edgeExx = comdat any

$_ZN17BipartiteMatching4calcEx = comdat any

$_ZN17BipartiteMatchingD2Ev = comdat any

$_ZNSt6vectorIS_IxSaIxEESaIS1_EEC2Ev = comdat any

$_ZNSt6vectorIxSaIxEEC2Ev = comdat any

$_ZN17BipartiteMatching4initEv = comdat any

$_ZNSt6vectorIxSaIxEED2Ev = comdat any

$_ZNSt6vectorIS_IxSaIxEESaIS1_EED2Ev = comdat any

$_ZNSt12_Vector_baseISt6vectorIxSaIxEESaIS2_EEC2Ev = comdat any

$__clang_call_terminate = comdat any

$_ZNSt12_Vector_baseISt6vectorIxSaIxEESaIS2_EE12_Vector_implC2Ev = comdat any

$_ZNSaISt6vectorIxSaIxEEEC2Ev = comdat any

$_ZN9__gnu_cxx13new_allocatorISt6vectorIxSaIxEEEC2Ev = comdat any

$_ZNSt12_Vector_baseIxSaIxEEC2Ev = comdat any

$_ZNSt12_Vector_baseIxSaIxEE12_Vector_implC2Ev = comdat any

$_ZNSaIxEC2Ev = comdat any

$_ZN9__gnu_cxx13new_allocatorIxEC2Ev = comdat any

$_ZNKSt6vectorIS_IxSaIxEESaIS1_EE4sizeEv = comdat any

$_ZNSt6vectorIS_IxSaIxEESaIS1_EEixEm = comdat any

$_ZNSt6vectorIxSaIxEE5clearEv = comdat any

$_ZNSt6vectorIS_IxSaIxEESaIS1_EE5clearEv = comdat any

$_ZNSt6vectorIS_IxSaIxEESaIS1_EE6resizeEm = comdat any

$_ZNSt6vectorIxSaIxEE6resizeEmRKx = comdat any

$_ZNSt6vectorIxSaIxEE15_M_erase_at_endEPx = comdat any

$_ZSt8_DestroyIPxxEvT_S1_RSaIT0_E = comdat any

$_ZNSt12_Vector_baseIxSaIxEE19_M_get_Tp_allocatorEv = comdat any

$_ZSt8_DestroyIPxEvT_S1_ = comdat any

$_ZNSt12_Destroy_auxILb1EE9__destroyIPxEEvT_S3_ = comdat any

$_ZNSt6vectorIS_IxSaIxEESaIS1_EE15_M_erase_at_endEPS1_ = comdat any

$_ZSt8_DestroyIPSt6vectorIxSaIxEES2_EvT_S4_RSaIT0_E = comdat any

$_ZNSt12_Vector_baseISt6vectorIxSaIxEESaIS2_EE19_M_get_Tp_allocatorEv = comdat any

$_ZSt8_DestroyIPSt6vectorIxSaIxEEEvT_S4_ = comdat any

$_ZNSt12_Destroy_auxILb0EE9__destroyIPSt6vectorIxSaIxEEEEvT_S6_ = comdat any

$_ZSt8_DestroyISt6vectorIxSaIxEEEvPT_ = comdat any

$_ZSt11__addressofISt6vectorIxSaIxEEEPT_RS3_ = comdat any

$_ZNSt6vectorIS_IxSaIxEESaIS1_EE17_M_default_appendEm = comdat any

$_ZNKSt6vectorIS_IxSaIxEESaIS1_EE8max_sizeEv = comdat any

$_ZSt27__uninitialized_default_n_aIPSt6vectorIxSaIxEEmS2_ET_S4_T0_RSaIT1_E = comdat any

$_ZNKSt6vectorIS_IxSaIxEESaIS1_EE12_M_check_lenEmPKc = comdat any

$_ZNSt12_Vector_baseISt6vectorIxSaIxEESaIS2_EE11_M_allocateEm = comdat any

$_ZSt34__uninitialized_move_if_noexcept_aIPSt6vectorIxSaIxEES3_SaIS2_EET0_T_S6_S5_RT1_ = comdat any

$_ZNSt12_Vector_baseISt6vectorIxSaIxEESaIS2_EE13_M_deallocateEPS2_m = comdat any

$_ZNSt16allocator_traitsISaISt6vectorIxSaIxEEEE8max_sizeERKS3_ = comdat any

$_ZNKSt12_Vector_baseISt6vectorIxSaIxEESaIS2_EE19_M_get_Tp_allocatorEv = comdat any

$_ZNK9__gnu_cxx13new_allocatorISt6vectorIxSaIxEEE8max_sizeEv = comdat any

$_ZSt25__uninitialized_default_nIPSt6vectorIxSaIxEEmET_S4_T0_ = comdat any

$_ZNSt27__uninitialized_default_n_1ILb0EE18__uninit_default_nIPSt6vectorIxSaIxEEmEET_S6_T0_ = comdat any

$_ZSt10_ConstructISt6vectorIxSaIxEEJEEvPT_DpOT0_ = comdat any

$_ZSt3maxImERKT_S2_S2_ = comdat any

$_ZNSt16allocator_traitsISaISt6vectorIxSaIxEEEE8allocateERS3_m = comdat any

$_ZN9__gnu_cxx13new_allocatorISt6vectorIxSaIxEEE8allocateEmPKv = comdat any

$_ZSt22__uninitialized_copy_aISt13move_iteratorIPSt6vectorIxSaIxEEES4_S3_ET0_T_S7_S6_RSaIT1_E = comdat any

$_ZSt32__make_move_if_noexcept_iteratorISt6vectorIxSaIxEESt13move_iteratorIPS2_EET0_PT_ = comdat any

$_ZSt18uninitialized_copyISt13move_iteratorIPSt6vectorIxSaIxEEES4_ET0_T_S7_S6_ = comdat any

$_ZNSt20__uninitialized_copyILb0EE13__uninit_copyISt13move_iteratorIPSt6vectorIxSaIxEEES6_EET0_T_S9_S8_ = comdat any

$_ZStneIPSt6vectorIxSaIxEEEbRKSt13move_iteratorIT_ES8_ = comdat any

$_ZSt10_ConstructISt6vectorIxSaIxEEJS2_EEvPT_DpOT0_ = comdat any

$_ZNKSt13move_iteratorIPSt6vectorIxSaIxEEEdeEv = comdat any

$_ZNSt13move_iteratorIPSt6vectorIxSaIxEEEppEv = comdat any

$_ZSteqIPSt6vectorIxSaIxEEEbRKSt13move_iteratorIT_ES8_ = comdat any

$_ZNKSt13move_iteratorIPSt6vectorIxSaIxEEE4baseEv = comdat any

$_ZSt7forwardISt6vectorIxSaIxEEEOT_RNSt16remove_referenceIS3_E4typeE = comdat any

$_ZNSt6vectorIxSaIxEEC2EOS1_ = comdat any

$_ZSt4moveIRSt6vectorIxSaIxEEEONSt16remove_referenceIT_E4typeEOS5_ = comdat any

$_ZNSt12_Vector_baseIxSaIxEEC2EOS1_ = comdat any

$_ZSt4moveIRSaIxEEONSt16remove_referenceIT_E4typeEOS3_ = comdat any

$_ZNSt12_Vector_baseIxSaIxEE12_Vector_implC2EOS0_ = comdat any

$_ZNSt12_Vector_baseIxSaIxEE12_Vector_impl12_M_swap_dataERS2_ = comdat any

$_ZNSaIxEC2ERKS_ = comdat any

$_ZN9__gnu_cxx13new_allocatorIxEC2ERKS1_ = comdat any

$_ZSt4swapIPxENSt9enable_ifIXsr6__and_ISt6__not_ISt15__is_tuple_likeIT_EESt21is_move_constructibleIS4_ESt18is_move_assignableIS4_EEE5valueEvE4typeERS4_SD_ = comdat any

$_ZSt4moveIRPxEONSt16remove_referenceIT_E4typeEOS3_ = comdat any

$_ZNSt13move_iteratorIPSt6vectorIxSaIxEEEC2ES3_ = comdat any

$_ZNSt16allocator_traitsISaISt6vectorIxSaIxEEEE10deallocateERS3_PS2_m = comdat any

$_ZN9__gnu_cxx13new_allocatorISt6vectorIxSaIxEEE10deallocateEPS3_m = comdat any

$_ZNKSt6vectorIxSaIxEE4sizeEv = comdat any

$_ZNSt6vectorIxSaIxEE14_M_fill_insertEN9__gnu_cxx17__normal_iteratorIPxS1_EEmRKx = comdat any

$_ZNSt6vectorIxSaIxEE3endEv = comdat any

$_ZNSt6vectorIxSaIxEE16_Temporary_valueC2IJRKxEEEPS1_DpOT_ = comdat any

$_ZNSt6vectorIxSaIxEE16_Temporary_value6_M_valEv = comdat any

$_ZN9__gnu_cxxmiIPxSt6vectorIxSaIxEEEENS_17__normal_iteratorIT_T0_E15difference_typeERKS8_SB_ = comdat any

$_ZSt22__uninitialized_move_aIPxS0_SaIxEET0_T_S3_S2_RT1_ = comdat any

$_ZSt13move_backwardIPxS0_ET0_T_S2_S1_ = comdat any

$_ZNK9__gnu_cxx17__normal_iteratorIPxSt6vectorIxSaIxEEE4baseEv = comdat any

$_ZSt4fillIPxxEvT_S1_RKT0_ = comdat any

$_ZSt24__uninitialized_fill_n_aIPxmxxET_S1_T0_RKT1_RSaIT2_E = comdat any

$_ZNSt6vectorIxSaIxEE16_Temporary_valueD2Ev = comdat any

$_ZNKSt6vectorIxSaIxEE12_M_check_lenEmPKc = comdat any

$_ZNSt6vectorIxSaIxEE5beginEv = comdat any

$_ZNSt12_Vector_baseIxSaIxEE11_M_allocateEm = comdat any

$_ZSt34__uninitialized_move_if_noexcept_aIPxS0_SaIxEET0_T_S3_S2_RT1_ = comdat any

$_ZNSt12_Vector_baseIxSaIxEE13_M_deallocateEPxm = comdat any

$_ZNSt16allocator_traitsISaIxEE9constructIxJRKxEEEvRS0_PT_DpOT0_ = comdat any

$_ZNSt6vectorIxSaIxEE16_Temporary_value6_M_ptrEv = comdat any

$_ZSt7forwardIRKxEOT_RNSt16remove_referenceIS2_E4typeE = comdat any

$_ZN9__gnu_cxx13new_allocatorIxE9constructIxJRKxEEEvPT_DpOT0_ = comdat any

$_ZSt22__uninitialized_copy_aISt13move_iteratorIPxES1_xET0_T_S4_S3_RSaIT1_E = comdat any

$_ZSt18make_move_iteratorIPxESt13move_iteratorIT_ES2_ = comdat any

$_ZSt18uninitialized_copyISt13move_iteratorIPxES1_ET0_T_S4_S3_ = comdat any

$_ZNSt20__uninitialized_copyILb1EE13__uninit_copyISt13move_iteratorIPxES3_EET0_T_S6_S5_ = comdat any

$_ZSt4copyISt13move_iteratorIPxES1_ET0_T_S4_S3_ = comdat any

$_ZSt14__copy_move_a2ILb1EPxS0_ET1_T0_S2_S1_ = comdat any

$_ZSt12__miter_baseIPxEDTcl12__miter_basecldtfp_4baseEEESt13move_iteratorIT_E = comdat any

$_ZSt13__copy_move_aILb1EPxS0_ET1_T0_S2_S1_ = comdat any

$_ZSt12__niter_baseIPxET_S1_ = comdat any

$_ZNSt11__copy_moveILb1ELb1ESt26random_access_iterator_tagE8__copy_mIxEEPT_PKS3_S6_S4_ = comdat any

$_ZSt12__miter_baseIPxET_S1_ = comdat any

$_ZNKSt13move_iteratorIPxE4baseEv = comdat any

$_ZNSt13move_iteratorIPxEC2ES0_ = comdat any

$_ZSt23__copy_move_backward_a2ILb1EPxS0_ET1_T0_S2_S1_ = comdat any

$_ZSt22__copy_move_backward_aILb1EPxS0_ET1_T0_S2_S1_ = comdat any

$_ZNSt20__copy_move_backwardILb1ELb1ESt26random_access_iterator_tagE13__copy_move_bIxEEPT_PKS3_S6_S4_ = comdat any

$_ZSt8__fill_aIPxxEN9__gnu_cxx11__enable_ifIXsr11__is_scalarIT0_EE7__valueEvE6__typeET_S6_RKS3_ = comdat any

$_ZSt20uninitialized_fill_nIPxmxET_S1_T0_RKT1_ = comdat any

$_ZNSt22__uninitialized_fill_nILb1EE15__uninit_fill_nIPxmxEET_S3_T0_RKT1_ = comdat any

$_ZSt6fill_nIPxmxET_S1_T0_RKT1_ = comdat any

$_ZSt10__fill_n_aIPxmxEN9__gnu_cxx11__enable_ifIXsr11__is_scalarIT1_EE7__valueET_E6__typeES4_T0_RKS3_ = comdat any

$_ZNSt16allocator_traitsISaIxEE7destroyIxEEvRS0_PT_ = comdat any

$_ZN9__gnu_cxx13new_allocatorIxE7destroyIxEEvPT_ = comdat any

$_ZNKSt6vectorIxSaIxEE8max_sizeEv = comdat any

$_ZNSt16allocator_traitsISaIxEE8max_sizeERKS0_ = comdat any

$_ZNKSt12_Vector_baseIxSaIxEE19_M_get_Tp_allocatorEv = comdat any

$_ZNK9__gnu_cxx13new_allocatorIxE8max_sizeEv = comdat any

$_ZN9__gnu_cxx17__normal_iteratorIPxSt6vectorIxSaIxEEEC2ERKS1_ = comdat any

$_ZNSt16allocator_traitsISaIxEE8allocateERS0_m = comdat any

$_ZN9__gnu_cxx13new_allocatorIxE8allocateEmPKv = comdat any

$_ZSt32__make_move_if_noexcept_iteratorIxSt13move_iteratorIPxEET0_PT_ = comdat any

$_ZNSt16allocator_traitsISaIxEE10deallocateERS0_Pxm = comdat any

$_ZN9__gnu_cxx13new_allocatorIxE10deallocateEPxm = comdat any

$_ZNSt12_Vector_baseIxSaIxEED2Ev = comdat any

$_ZNSt12_Vector_baseIxSaIxEE12_Vector_implD2Ev = comdat any

$_ZNSaIxED2Ev = comdat any

$_ZN9__gnu_cxx13new_allocatorIxED2Ev = comdat any

$_ZNSt12_Vector_baseISt6vectorIxSaIxEESaIS2_EED2Ev = comdat any

$_ZNSt12_Vector_baseISt6vectorIxSaIxEESaIS2_EE12_Vector_implD2Ev = comdat any

$_ZNSaISt6vectorIxSaIxEEED2Ev = comdat any

$_ZN9__gnu_cxx13new_allocatorISt6vectorIxSaIxEEED2Ev = comdat any

$_ZNSt6vectorIxSaIxEE9push_backERKx = comdat any

$_ZNSt6vectorIxSaIxEE17_M_realloc_insertIJRKxEEEvN9__gnu_cxx17__normal_iteratorIPxS1_EEDpOT_ = comdat any

$_ZSt4fillIN9__gnu_cxx17__normal_iteratorIPxSt6vectorIxSaIxEEEEiEvT_S7_RKT0_ = comdat any

$_ZN17BipartiteMatching3dfsEx = comdat any

$_ZSt8__fill_aIPxiEN9__gnu_cxx11__enable_ifIXsr11__is_scalarIT0_EE7__valueEvE6__typeET_S6_RKS3_ = comdat any

$_ZSt12__niter_baseIPxSt6vectorIxSaIxEEET_N9__gnu_cxx17__normal_iteratorIS4_T0_EE = comdat any

$_ZNSt6vectorIxSaIxEEixEm = comdat any

@_ZStL8__ioinit = internal global %"class.std::ios_base::Init" zeroinitializer, align 1
@__dso_handle = external hidden global i8
@_ZSt3cin = external global %"class.std::basic_istream", align 8
@_ZSt4cout = external global %"class.std::basic_ostream", align 8
@.str = private unnamed_addr constant [26 x i8] c"vector::_M_default_append\00", align 1
@.str.1 = private unnamed_addr constant [23 x i8] c"vector::_M_fill_insert\00", align 1
@.str.2 = private unnamed_addr constant [26 x i8] c"vector::_M_realloc_insert\00", align 1
@llvm.global_ctors = appending global [1 x { i32, void ()*, i8* }] [{ i32, void ()*, i8* } { i32 65535, void ()* @_GLOBAL__sub_I_s507968744.cpp, i8* null }]

; Function Attrs: noinline uwtable
define internal void @__cxx_global_var_init() #0 section ".text.startup" {
  call void @_ZNSt8ios_base4InitC1Ev(%"class.std::ios_base::Init"* @_ZStL8__ioinit)
  %1 = call i32 @__cxa_atexit(void (i8*)* bitcast (void (%"class.std::ios_base::Init"*)* @_ZNSt8ios_base4InitD1Ev to void (i8*)*), i8* getelementptr inbounds (%"class.std::ios_base::Init", %"class.std::ios_base::Init"* @_ZStL8__ioinit, i32 0, i32 0), i8* @__dso_handle) #3
  ret void
}

declare void @_ZNSt8ios_base4InitC1Ev(%"class.std::ios_base::Init"*) unnamed_addr #1

; Function Attrs: nounwind
declare void @_ZNSt8ios_base4InitD1Ev(%"class.std::ios_base::Init"*) unnamed_addr #2

; Function Attrs: nounwind
declare i32 @__cxa_atexit(void (i8*)*, i8*, i8*) #3

; Function Attrs: noinline norecurse uwtable
define i32 @main() #4 personality i8* bitcast (i32 (...)* @__gxx_personality_v0 to i8*) {
  %1 = alloca i64, align 8
  %2 = alloca %struct.BipartiteMatching, align 8
  %3 = alloca i64, align 8
  %4 = call dereferenceable(280) %"class.std::basic_istream"* @_ZNSirsERx(%"class.std::basic_istream"* @_ZSt3cin, i64* dereferenceable(8) %1)
  %5 = load i64, i64* %1, align 8
  %6 = add nsw i64 %5, 1
  call void @_ZN17BipartiteMatchingC2Ex(%struct.BipartiteMatching* %2, i64 %6)
  br label %7

7:                                                ; preds = %22, %0
  %.01 = phi i64 [ 1, %0 ], [ %23, %22 ]
  %.0 = phi i64 [ 0, %0 ], [ %17, %22 ]
  %8 = load i64, i64* %1, align 8
  %9 = icmp sle i64 %.01, %8
  br i1 %9, label %10, label %28

10:                                               ; preds = %7
  %11 = invoke dereferenceable(280) %"class.std::basic_istream"* @_ZNSirsERx(%"class.std::basic_istream"* @_ZSt3cin, i64* dereferenceable(8) %3)
          to label %12 unwind label %24

12:                                               ; preds = %10
  %13 = load i64, i64* %3, align 8
  invoke void @_ZN17BipartiteMatching8add_edgeExx(%struct.BipartiteMatching* %2, i64 %13, i64 %.01)
          to label %14 unwind label %24

14:                                               ; preds = %12
  %15 = invoke i64 @_ZN17BipartiteMatching4calcEx(%struct.BipartiteMatching* %2, i64 %.01)
          to label %16 unwind label %24

16:                                               ; preds = %14
  %17 = add nsw i64 %.0, %15
  %18 = invoke dereferenceable(272) %"class.std::basic_ostream"* @_ZNSolsEx(%"class.std::basic_ostream"* @_ZSt4cout, i64 %17)
          to label %19 unwind label %24

19:                                               ; preds = %16
  %20 = invoke dereferenceable(272) %"class.std::basic_ostream"* @_ZNSolsEPFRSoS_E(%"class.std::basic_ostream"* %18, %"class.std::basic_ostream"* (%"class.std::basic_ostream"*)* @_ZSt4endlIcSt11char_traitsIcEERSt13basic_ostreamIT_T0_ES6_)
          to label %21 unwind label %24

21:                                               ; preds = %19
  br label %22

22:                                               ; preds = %21
  %23 = add nsw i64 %.01, 1
  br label %7

24:                                               ; preds = %19, %16, %14, %12, %10
  %25 = landingpad { i8*, i32 }
          cleanup
  %26 = extractvalue { i8*, i32 } %25, 0
  %27 = extractvalue { i8*, i32 } %25, 1
  call void @_ZN17BipartiteMatchingD2Ev(%struct.BipartiteMatching* %2) #3
  br label %29

28:                                               ; preds = %7
  call void @_ZN17BipartiteMatchingD2Ev(%struct.BipartiteMatching* %2) #3
  ret i32 0

29:                                               ; preds = %24
  %30 = insertvalue { i8*, i32 } undef, i8* %26, 0
  %31 = insertvalue { i8*, i32 } %30, i32 %27, 1
  resume { i8*, i32 } %31
}

declare dereferenceable(280) %"class.std::basic_istream"* @_ZNSirsERx(%"class.std::basic_istream"*, i64* dereferenceable(8)) #1

; Function Attrs: noinline uwtable
define linkonce_odr void @_ZN17BipartiteMatchingC2Ex(%struct.BipartiteMatching* %0, i64 %1) unnamed_addr #0 comdat align 2 personality i8* bitcast (i32 (...)* @__gxx_personality_v0 to i8*) {
  %3 = getelementptr inbounds %struct.BipartiteMatching, %struct.BipartiteMatching* %0, i32 0, i32 0
  call void @_ZNSt6vectorIS_IxSaIxEESaIS1_EEC2Ev(%"class.std::vector"* %3) #3
  %4 = getelementptr inbounds %struct.BipartiteMatching, %struct.BipartiteMatching* %0, i32 0, i32 1
  store i64 %1, i64* %4, align 8
  %5 = getelementptr inbounds %struct.BipartiteMatching, %struct.BipartiteMatching* %0, i32 0, i32 2
  call void @_ZNSt6vectorIxSaIxEEC2Ev(%"class.std::vector.0"* %5) #3
  %6 = getelementptr inbounds %struct.BipartiteMatching, %struct.BipartiteMatching* %0, i32 0, i32 3
  call void @_ZNSt6vectorIxSaIxEEC2Ev(%"class.std::vector.0"* %6) #3
  invoke void @_ZN17BipartiteMatching4initEv(%struct.BipartiteMatching* %0)
          to label %7 unwind label %8

7:                                                ; preds = %2
  ret void

8:                                                ; preds = %2
  %9 = landingpad { i8*, i32 }
          cleanup
  %10 = extractvalue { i8*, i32 } %9, 0
  %11 = extractvalue { i8*, i32 } %9, 1
  call void @_ZNSt6vectorIxSaIxEED2Ev(%"class.std::vector.0"* %6) #3
  call void @_ZNSt6vectorIxSaIxEED2Ev(%"class.std::vector.0"* %5) #3
  call void @_ZNSt6vectorIS_IxSaIxEESaIS1_EED2Ev(%"class.std::vector"* %3) #3
  br label %12

12:                                               ; preds = %8
  %13 = insertvalue { i8*, i32 } undef, i8* %10, 0
  %14 = insertvalue { i8*, i32 } %13, i32 %11, 1
  resume { i8*, i32 } %14
}

declare i32 @__gxx_personality_v0(...)

; Function Attrs: noinline uwtable
define linkonce_odr void @_ZN17BipartiteMatching8add_edgeExx(%struct.BipartiteMatching* %0, i64 %1, i64 %2) #0 comdat align 2 {
  %4 = alloca i64, align 8
  %5 = alloca i64, align 8
  store i64 %1, i64* %4, align 8
  store i64 %2, i64* %5, align 8
  %6 = getelementptr inbounds %struct.BipartiteMatching, %struct.BipartiteMatching* %0, i32 0, i32 0
  %7 = load i64, i64* %4, align 8
  %8 = call dereferenceable(24) %"class.std::vector.0"* @_ZNSt6vectorIS_IxSaIxEESaIS1_EEixEm(%"class.std::vector"* %6, i64 %7) #3
  call void @_ZNSt6vectorIxSaIxEE9push_backERKx(%"class.std::vector.0"* %8, i64* dereferenceable(8) %5)
  %9 = getelementptr inbounds %struct.BipartiteMatching, %struct.BipartiteMatching* %0, i32 0, i32 0
  %10 = load i64, i64* %5, align 8
  %11 = call dereferenceable(24) %"class.std::vector.0"* @_ZNSt6vectorIS_IxSaIxEESaIS1_EEixEm(%"class.std::vector"* %9, i64 %10) #3
  call void @_ZNSt6vectorIxSaIxEE9push_backERKx(%"class.std::vector.0"* %11, i64* dereferenceable(8) %4)
  ret void
}

; Function Attrs: noinline uwtable
define linkonce_odr i64 @_ZN17BipartiteMatching4calcEx(%struct.BipartiteMatching* %0, i64 %1) #0 comdat align 2 {
  %3 = alloca %"class.__gnu_cxx::__normal_iterator", align 8
  %4 = alloca %"class.__gnu_cxx::__normal_iterator", align 8
  %5 = alloca i32, align 4
  %6 = getelementptr inbounds %struct.BipartiteMatching, %struct.BipartiteMatching* %0, i32 0, i32 3
  %7 = call i64* @_ZNSt6vectorIxSaIxEE5beginEv(%"class.std::vector.0"* %6) #3
  %8 = getelementptr inbounds %"class.__gnu_cxx::__normal_iterator", %"class.__gnu_cxx::__normal_iterator"* %3, i32 0, i32 0
  store i64* %7, i64** %8, align 8
  %9 = getelementptr inbounds %struct.BipartiteMatching, %struct.BipartiteMatching* %0, i32 0, i32 3
  %10 = call i64* @_ZNSt6vectorIxSaIxEE3endEv(%"class.std::vector.0"* %9) #3
  %11 = getelementptr inbounds %"class.__gnu_cxx::__normal_iterator", %"class.__gnu_cxx::__normal_iterator"* %4, i32 0, i32 0
  store i64* %10, i64** %11, align 8
  store i32 0, i32* %5, align 4
  %12 = getelementptr inbounds %"class.__gnu_cxx::__normal_iterator", %"class.__gnu_cxx::__normal_iterator"* %3, i32 0, i32 0
  %13 = load i64*, i64** %12, align 8
  %14 = getelementptr inbounds %"class.__gnu_cxx::__normal_iterator", %"class.__gnu_cxx::__normal_iterator"* %4, i32 0, i32 0
  %15 = load i64*, i64** %14, align 8
  call void @_ZSt4fillIN9__gnu_cxx17__normal_iteratorIPxSt6vectorIxSaIxEEEEiEvT_S7_RKT0_(i64* %13, i64* %15, i32* dereferenceable(4) %5)
  %16 = call zeroext i1 @_ZN17BipartiteMatching3dfsEx(%struct.BipartiteMatching* %0, i64 %1)
  br i1 %16, label %17, label %19

17:                                               ; preds = %2
  %18 = add nsw i64 0, 1
  br label %19

19:                                               ; preds = %17, %2
  %.0 = phi i64 [ %18, %17 ], [ 0, %2 ]
  ret i64 %.0
}

declare dereferenceable(272) %"class.std::basic_ostream"* @_ZNSolsEx(%"class.std::basic_ostream"*, i64) #1

declare dereferenceable(272) %"class.std::basic_ostream"* @_ZNSolsEPFRSoS_E(%"class.std::basic_ostream"*, %"class.std::basic_ostream"* (%"class.std::basic_ostream"*)*) #1

declare dereferenceable(272) %"class.std::basic_ostream"* @_ZSt4endlIcSt11char_traitsIcEERSt13basic_ostreamIT_T0_ES6_(%"class.std::basic_ostream"* dereferenceable(272)) #1

; Function Attrs: noinline nounwind uwtable
define linkonce_odr void @_ZN17BipartiteMatchingD2Ev(%struct.BipartiteMatching* %0) unnamed_addr #5 comdat align 2 {
  %2 = getelementptr inbounds %struct.BipartiteMatching, %struct.BipartiteMatching* %0, i32 0, i32 3
  call void @_ZNSt6vectorIxSaIxEED2Ev(%"class.std::vector.0"* %2) #3
  %3 = getelementptr inbounds %struct.BipartiteMatching, %struct.BipartiteMatching* %0, i32 0, i32 2
  call void @_ZNSt6vectorIxSaIxEED2Ev(%"class.std::vector.0"* %3) #3
  %4 = getelementptr inbounds %struct.BipartiteMatching, %struct.BipartiteMatching* %0, i32 0, i32 0
  call void @_ZNSt6vectorIS_IxSaIxEESaIS1_EED2Ev(%"class.std::vector"* %4) #3
  ret void
}

; Function Attrs: noinline nounwind uwtable
define linkonce_odr void @_ZNSt6vectorIS_IxSaIxEESaIS1_EEC2Ev(%"class.std::vector"* %0) unnamed_addr #5 comdat align 2 personality i8* bitcast (i32 (...)* @__gxx_personality_v0 to i8*) {
  %2 = bitcast %"class.std::vector"* %0 to %"struct.std::_Vector_base"*
  invoke void @_ZNSt12_Vector_baseISt6vectorIxSaIxEESaIS2_EEC2Ev(%"struct.std::_Vector_base"* %2)
          to label %3 unwind label %4

3:                                                ; preds = %1
  ret void

4:                                                ; preds = %1
  %5 = landingpad { i8*, i32 }
          catch i8* null
  %6 = extractvalue { i8*, i32 } %5, 0
  call void @__clang_call_terminate(i8* %6) #12
  unreachable
}

; Function Attrs: noinline nounwind uwtable
define linkonce_odr void @_ZNSt6vectorIxSaIxEEC2Ev(%"class.std::vector.0"* %0) unnamed_addr #5 comdat align 2 personality i8* bitcast (i32 (...)* @__gxx_personality_v0 to i8*) {
  %2 = bitcast %"class.std::vector.0"* %0 to %"struct.std::_Vector_base.1"*
  invoke void @_ZNSt12_Vector_baseIxSaIxEEC2Ev(%"struct.std::_Vector_base.1"* %2)
          to label %3 unwind label %4

3:                                                ; preds = %1
  ret void

4:                                                ; preds = %1
  %5 = landingpad { i8*, i32 }
          catch i8* null
  %6 = extractvalue { i8*, i32 } %5, 0
  call void @__clang_call_terminate(i8* %6) #12
  unreachable
}

; Function Attrs: noinline uwtable
define linkonce_odr void @_ZN17BipartiteMatching4initEv(%struct.BipartiteMatching* %0) #0 comdat align 2 {
  %2 = alloca i64, align 8
  %3 = alloca i64, align 8
  br label %4

4:                                                ; preds = %11, %1
  %.0 = phi i64 [ 0, %1 ], [ %12, %11 ]
  %5 = getelementptr inbounds %struct.BipartiteMatching, %struct.BipartiteMatching* %0, i32 0, i32 0
  %6 = call i64 @_ZNKSt6vectorIS_IxSaIxEESaIS1_EE4sizeEv(%"class.std::vector"* %5) #3
  %7 = icmp slt i64 %.0, %6
  br i1 %7, label %8, label %13

8:                                                ; preds = %4
  %9 = getelementptr inbounds %struct.BipartiteMatching, %struct.BipartiteMatching* %0, i32 0, i32 0
  %10 = call dereferenceable(24) %"class.std::vector.0"* @_ZNSt6vectorIS_IxSaIxEESaIS1_EEixEm(%"class.std::vector"* %9, i64 %.0) #3
  call void @_ZNSt6vectorIxSaIxEE5clearEv(%"class.std::vector.0"* %10) #3
  br label %11

11:                                               ; preds = %8
  %12 = add nsw i64 %.0, 1
  br label %4

13:                                               ; preds = %4
  %14 = getelementptr inbounds %struct.BipartiteMatching, %struct.BipartiteMatching* %0, i32 0, i32 0
  call void @_ZNSt6vectorIS_IxSaIxEESaIS1_EE5clearEv(%"class.std::vector"* %14) #3
  %15 = getelementptr inbounds %struct.BipartiteMatching, %struct.BipartiteMatching* %0, i32 0, i32 2
  call void @_ZNSt6vectorIxSaIxEE5clearEv(%"class.std::vector.0"* %15) #3
  %16 = getelementptr inbounds %struct.BipartiteMatching, %struct.BipartiteMatching* %0, i32 0, i32 3
  call void @_ZNSt6vectorIxSaIxEE5clearEv(%"class.std::vector.0"* %16) #3
  %17 = getelementptr inbounds %struct.BipartiteMatching, %struct.BipartiteMatching* %0, i32 0, i32 0
  %18 = getelementptr inbounds %struct.BipartiteMatching, %struct.BipartiteMatching* %0, i32 0, i32 1
  %19 = load i64, i64* %18, align 8
  call void @_ZNSt6vectorIS_IxSaIxEESaIS1_EE6resizeEm(%"class.std::vector"* %17, i64 %19)
  %20 = getelementptr inbounds %struct.BipartiteMatching, %struct.BipartiteMatching* %0, i32 0, i32 2
  %21 = getelementptr inbounds %struct.BipartiteMatching, %struct.BipartiteMatching* %0, i32 0, i32 1
  %22 = load i64, i64* %21, align 8
  store i64 -1, i64* %2, align 8
  call void @_ZNSt6vectorIxSaIxEE6resizeEmRKx(%"class.std::vector.0"* %20, i64 %22, i64* dereferenceable(8) %2)
  %23 = getelementptr inbounds %struct.BipartiteMatching, %struct.BipartiteMatching* %0, i32 0, i32 3
  %24 = getelementptr inbounds %struct.BipartiteMatching, %struct.BipartiteMatching* %0, i32 0, i32 1
  %25 = load i64, i64* %24, align 8
  store i64 0, i64* %3, align 8
  call void @_ZNSt6vectorIxSaIxEE6resizeEmRKx(%"class.std::vector.0"* %23, i64 %25, i64* dereferenceable(8) %3)
  ret void
}

; Function Attrs: noinline nounwind uwtable
define linkonce_odr void @_ZNSt6vectorIxSaIxEED2Ev(%"class.std::vector.0"* %0) unnamed_addr #5 comdat align 2 personality i8* bitcast (i32 (...)* @__gxx_personality_v0 to i8*) {
  %2 = bitcast %"class.std::vector.0"* %0 to %"struct.std::_Vector_base.1"*
  %3 = getelementptr inbounds %"struct.std::_Vector_base.1", %"struct.std::_Vector_base.1"* %2, i32 0, i32 0
  %4 = getelementptr inbounds %"struct.std::_Vector_base<long long, std::allocator<long long> >::_Vector_impl", %"struct.std::_Vector_base<long long, std::allocator<long long> >::_Vector_impl"* %3, i32 0, i32 0
  %5 = load i64*, i64** %4, align 8
  %6 = bitcast %"class.std::vector.0"* %0 to %"struct.std::_Vector_base.1"*
  %7 = getelementptr inbounds %"struct.std::_Vector_base.1", %"struct.std::_Vector_base.1"* %6, i32 0, i32 0
  %8 = getelementptr inbounds %"struct.std::_Vector_base<long long, std::allocator<long long> >::_Vector_impl", %"struct.std::_Vector_base<long long, std::allocator<long long> >::_Vector_impl"* %7, i32 0, i32 1
  %9 = load i64*, i64** %8, align 8
  %10 = bitcast %"class.std::vector.0"* %0 to %"struct.std::_Vector_base.1"*
  %11 = call dereferenceable(1) %"class.std::allocator.2"* @_ZNSt12_Vector_baseIxSaIxEE19_M_get_Tp_allocatorEv(%"struct.std::_Vector_base.1"* %10) #3
  invoke void @_ZSt8_DestroyIPxxEvT_S1_RSaIT0_E(i64* %5, i64* %9, %"class.std::allocator.2"* dereferenceable(1) %11)
          to label %12 unwind label %14

12:                                               ; preds = %1
  %13 = bitcast %"class.std::vector.0"* %0 to %"struct.std::_Vector_base.1"*
  call void @_ZNSt12_Vector_baseIxSaIxEED2Ev(%"struct.std::_Vector_base.1"* %13) #3
  ret void

14:                                               ; preds = %1
  %15 = landingpad { i8*, i32 }
          catch i8* null
  %16 = extractvalue { i8*, i32 } %15, 0
  %17 = extractvalue { i8*, i32 } %15, 1
  %18 = bitcast %"class.std::vector.0"* %0 to %"struct.std::_Vector_base.1"*
  call void @_ZNSt12_Vector_baseIxSaIxEED2Ev(%"struct.std::_Vector_base.1"* %18) #3
  br label %19

19:                                               ; preds = %14
  call void @__clang_call_terminate(i8* %16) #12
  unreachable
}

; Function Attrs: noinline nounwind uwtable
define linkonce_odr void @_ZNSt6vectorIS_IxSaIxEESaIS1_EED2Ev(%"class.std::vector"* %0) unnamed_addr #5 comdat align 2 personality i8* bitcast (i32 (...)* @__gxx_personality_v0 to i8*) {
  %2 = bitcast %"class.std::vector"* %0 to %"struct.std::_Vector_base"*
  %3 = getelementptr inbounds %"struct.std::_Vector_base", %"struct.std::_Vector_base"* %2, i32 0, i32 0
  %4 = getelementptr inbounds %"struct.std::_Vector_base<std::vector<long long, std::allocator<long long> >, std::allocator<std::vector<long long, std::allocator<long long> > > >::_Vector_impl", %"struct.std::_Vector_base<std::vector<long long, std::allocator<long long> >, std::allocator<std::vector<long long, std::allocator<long long> > > >::_Vector_impl"* %3, i32 0, i32 0
  %5 = load %"class.std::vector.0"*, %"class.std::vector.0"** %4, align 8
  %6 = bitcast %"class.std::vector"* %0 to %"struct.std::_Vector_base"*
  %7 = getelementptr inbounds %"struct.std::_Vector_base", %"struct.std::_Vector_base"* %6, i32 0, i32 0
  %8 = getelementptr inbounds %"struct.std::_Vector_base<std::vector<long long, std::allocator<long long> >, std::allocator<std::vector<long long, std::allocator<long long> > > >::_Vector_impl", %"struct.std::_Vector_base<std::vector<long long, std::allocator<long long> >, std::allocator<std::vector<long long, std::allocator<long long> > > >::_Vector_impl"* %7, i32 0, i32 1
  %9 = load %"class.std::vector.0"*, %"class.std::vector.0"** %8, align 8
  %10 = bitcast %"class.std::vector"* %0 to %"struct.std::_Vector_base"*
  %11 = call dereferenceable(1) %"class.std::allocator"* @_ZNSt12_Vector_baseISt6vectorIxSaIxEESaIS2_EE19_M_get_Tp_allocatorEv(%"struct.std::_Vector_base"* %10) #3
  invoke void @_ZSt8_DestroyIPSt6vectorIxSaIxEES2_EvT_S4_RSaIT0_E(%"class.std::vector.0"* %5, %"class.std::vector.0"* %9, %"class.std::allocator"* dereferenceable(1) %11)
          to label %12 unwind label %14

12:                                               ; preds = %1
  %13 = bitcast %"class.std::vector"* %0 to %"struct.std::_Vector_base"*
  call void @_ZNSt12_Vector_baseISt6vectorIxSaIxEESaIS2_EED2Ev(%"struct.std::_Vector_base"* %13) #3
  ret void

14:                                               ; preds = %1
  %15 = landingpad { i8*, i32 }
          catch i8* null
  %16 = extractvalue { i8*, i32 } %15, 0
  %17 = extractvalue { i8*, i32 } %15, 1
  %18 = bitcast %"class.std::vector"* %0 to %"struct.std::_Vector_base"*
  call void @_ZNSt12_Vector_baseISt6vectorIxSaIxEESaIS2_EED2Ev(%"struct.std::_Vector_base"* %18) #3
  br label %19

19:                                               ; preds = %14
  call void @__clang_call_terminate(i8* %16) #12
  unreachable
}

; Function Attrs: noinline uwtable
define linkonce_odr void @_ZNSt12_Vector_baseISt6vectorIxSaIxEESaIS2_EEC2Ev(%"struct.std::_Vector_base"* %0) unnamed_addr #0 comdat align 2 {
  %2 = getelementptr inbounds %"struct.std::_Vector_base", %"struct.std::_Vector_base"* %0, i32 0, i32 0
  call void @_ZNSt12_Vector_baseISt6vectorIxSaIxEESaIS2_EE12_Vector_implC2Ev(%"struct.std::_Vector_base<std::vector<long long, std::allocator<long long> >, std::allocator<std::vector<long long, std::allocator<long long> > > >::_Vector_impl"* %2)
  ret void
}

; Function Attrs: noinline noreturn nounwind
define linkonce_odr hidden void @__clang_call_terminate(i8* %0) #6 comdat {
  %2 = call i8* @__cxa_begin_catch(i8* %0) #3
  call void @_ZSt9terminatev() #12
  unreachable
}

declare i8* @__cxa_begin_catch(i8*)

declare void @_ZSt9terminatev()

; Function Attrs: noinline nounwind uwtable
define linkonce_odr void @_ZNSt12_Vector_baseISt6vectorIxSaIxEESaIS2_EE12_Vector_implC2Ev(%"struct.std::_Vector_base<std::vector<long long, std::allocator<long long> >, std::allocator<std::vector<long long, std::allocator<long long> > > >::_Vector_impl"* %0) unnamed_addr #5 comdat align 2 {
  %2 = bitcast %"struct.std::_Vector_base<std::vector<long long, std::allocator<long long> >, std::allocator<std::vector<long long, std::allocator<long long> > > >::_Vector_impl"* %0 to %"class.std::allocator"*
  call void @_ZNSaISt6vectorIxSaIxEEEC2Ev(%"class.std::allocator"* %2) #3
  %3 = getelementptr inbounds %"struct.std::_Vector_base<std::vector<long long, std::allocator<long long> >, std::allocator<std::vector<long long, std::allocator<long long> > > >::_Vector_impl", %"struct.std::_Vector_base<std::vector<long long, std::allocator<long long> >, std::allocator<std::vector<long long, std::allocator<long long> > > >::_Vector_impl"* %0, i32 0, i32 0
  store %"class.std::vector.0"* null, %"class.std::vector.0"** %3, align 8
  %4 = getelementptr inbounds %"struct.std::_Vector_base<std::vector<long long, std::allocator<long long> >, std::allocator<std::vector<long long, std::allocator<long long> > > >::_Vector_impl", %"struct.std::_Vector_base<std::vector<long long, std::allocator<long long> >, std::allocator<std::vector<long long, std::allocator<long long> > > >::_Vector_impl"* %0, i32 0, i32 1
  store %"class.std::vector.0"* null, %"class.std::vector.0"** %4, align 8
  %5 = getelementptr inbounds %"struct.std::_Vector_base<std::vector<long long, std::allocator<long long> >, std::allocator<std::vector<long long, std::allocator<long long> > > >::_Vector_impl", %"struct.std::_Vector_base<std::vector<long long, std::allocator<long long> >, std::allocator<std::vector<long long, std::allocator<long long> > > >::_Vector_impl"* %0, i32 0, i32 2
  store %"class.std::vector.0"* null, %"class.std::vector.0"** %5, align 8
  ret void
}

; Function Attrs: noinline nounwind uwtable
define linkonce_odr void @_ZNSaISt6vectorIxSaIxEEEC2Ev(%"class.std::allocator"* %0) unnamed_addr #5 comdat align 2 {
  %2 = bitcast %"class.std::allocator"* %0 to %"class.__gnu_cxx::new_allocator"*
  call void @_ZN9__gnu_cxx13new_allocatorISt6vectorIxSaIxEEEC2Ev(%"class.__gnu_cxx::new_allocator"* %2) #3
  ret void
}

; Function Attrs: noinline nounwind uwtable
define linkonce_odr void @_ZN9__gnu_cxx13new_allocatorISt6vectorIxSaIxEEEC2Ev(%"class.__gnu_cxx::new_allocator"* %0) unnamed_addr #5 comdat align 2 {
  ret void
}

; Function Attrs: noinline uwtable
define linkonce_odr void @_ZNSt12_Vector_baseIxSaIxEEC2Ev(%"struct.std::_Vector_base.1"* %0) unnamed_addr #0 comdat align 2 {
  %2 = getelementptr inbounds %"struct.std::_Vector_base.1", %"struct.std::_Vector_base.1"* %0, i32 0, i32 0
  call void @_ZNSt12_Vector_baseIxSaIxEE12_Vector_implC2Ev(%"struct.std::_Vector_base<long long, std::allocator<long long> >::_Vector_impl"* %2)
  ret void
}

; Function Attrs: noinline nounwind uwtable
define linkonce_odr void @_ZNSt12_Vector_baseIxSaIxEE12_Vector_implC2Ev(%"struct.std::_Vector_base<long long, std::allocator<long long> >::_Vector_impl"* %0) unnamed_addr #5 comdat align 2 {
  %2 = bitcast %"struct.std::_Vector_base<long long, std::allocator<long long> >::_Vector_impl"* %0 to %"class.std::allocator.2"*
  call void @_ZNSaIxEC2Ev(%"class.std::allocator.2"* %2) #3
  %3 = getelementptr inbounds %"struct.std::_Vector_base<long long, std::allocator<long long> >::_Vector_impl", %"struct.std::_Vector_base<long long, std::allocator<long long> >::_Vector_impl"* %0, i32 0, i32 0
  store i64* null, i64** %3, align 8
  %4 = getelementptr inbounds %"struct.std::_Vector_base<long long, std::allocator<long long> >::_Vector_impl", %"struct.std::_Vector_base<long long, std::allocator<long long> >::_Vector_impl"* %0, i32 0, i32 1
  store i64* null, i64** %4, align 8
  %5 = getelementptr inbounds %"struct.std::_Vector_base<long long, std::allocator<long long> >::_Vector_impl", %"struct.std::_Vector_base<long long, std::allocator<long long> >::_Vector_impl"* %0, i32 0, i32 2
  store i64* null, i64** %5, align 8
  ret void
}

; Function Attrs: noinline nounwind uwtable
define linkonce_odr void @_ZNSaIxEC2Ev(%"class.std::allocator.2"* %0) unnamed_addr #5 comdat align 2 {
  %2 = bitcast %"class.std::allocator.2"* %0 to %"class.__gnu_cxx::new_allocator.3"*
  call void @_ZN9__gnu_cxx13new_allocatorIxEC2Ev(%"class.__gnu_cxx::new_allocator.3"* %2) #3
  ret void
}

; Function Attrs: noinline nounwind uwtable
define linkonce_odr void @_ZN9__gnu_cxx13new_allocatorIxEC2Ev(%"class.__gnu_cxx::new_allocator.3"* %0) unnamed_addr #5 comdat align 2 {
  ret void
}

; Function Attrs: noinline nounwind uwtable
define linkonce_odr i64 @_ZNKSt6vectorIS_IxSaIxEESaIS1_EE4sizeEv(%"class.std::vector"* %0) #5 comdat align 2 {
  %2 = bitcast %"class.std::vector"* %0 to %"struct.std::_Vector_base"*
  %3 = getelementptr inbounds %"struct.std::_Vector_base", %"struct.std::_Vector_base"* %2, i32 0, i32 0
  %4 = getelementptr inbounds %"struct.std::_Vector_base<std::vector<long long, std::allocator<long long> >, std::allocator<std::vector<long long, std::allocator<long long> > > >::_Vector_impl", %"struct.std::_Vector_base<std::vector<long long, std::allocator<long long> >, std::allocator<std::vector<long long, std::allocator<long long> > > >::_Vector_impl"* %3, i32 0, i32 1
  %5 = load %"class.std::vector.0"*, %"class.std::vector.0"** %4, align 8
  %6 = bitcast %"class.std::vector"* %0 to %"struct.std::_Vector_base"*
  %7 = getelementptr inbounds %"struct.std::_Vector_base", %"struct.std::_Vector_base"* %6, i32 0, i32 0
  %8 = getelementptr inbounds %"struct.std::_Vector_base<std::vector<long long, std::allocator<long long> >, std::allocator<std::vector<long long, std::allocator<long long> > > >::_Vector_impl", %"struct.std::_Vector_base<std::vector<long long, std::allocator<long long> >, std::allocator<std::vector<long long, std::allocator<long long> > > >::_Vector_impl"* %7, i32 0, i32 0
  %9 = load %"class.std::vector.0"*, %"class.std::vector.0"** %8, align 8
  %10 = ptrtoint %"class.std::vector.0"* %5 to i64
  %11 = ptrtoint %"class.std::vector.0"* %9 to i64
  %12 = sub i64 %10, %11
  %13 = sdiv exact i64 %12, 24
  ret i64 %13
}

; Function Attrs: noinline nounwind uwtable
define linkonce_odr dereferenceable(24) %"class.std::vector.0"* @_ZNSt6vectorIS_IxSaIxEESaIS1_EEixEm(%"class.std::vector"* %0, i64 %1) #5 comdat align 2 {
  %3 = bitcast %"class.std::vector"* %0 to %"struct.std::_Vector_base"*
  %4 = getelementptr inbounds %"struct.std::_Vector_base", %"struct.std::_Vector_base"* %3, i32 0, i32 0
  %5 = getelementptr inbounds %"struct.std::_Vector_base<std::vector<long long, std::allocator<long long> >, std::allocator<std::vector<long long, std::allocator<long long> > > >::_Vector_impl", %"struct.std::_Vector_base<std::vector<long long, std::allocator<long long> >, std::allocator<std::vector<long long, std::allocator<long long> > > >::_Vector_impl"* %4, i32 0, i32 0
  %6 = load %"class.std::vector.0"*, %"class.std::vector.0"** %5, align 8
  %7 = getelementptr inbounds %"class.std::vector.0", %"class.std::vector.0"* %6, i64 %1
  ret %"class.std::vector.0"* %7
}

; Function Attrs: noinline nounwind uwtable
define linkonce_odr void @_ZNSt6vectorIxSaIxEE5clearEv(%"class.std::vector.0"* %0) #5 comdat align 2 {
  %2 = bitcast %"class.std::vector.0"* %0 to %"struct.std::_Vector_base.1"*
  %3 = getelementptr inbounds %"struct.std::_Vector_base.1", %"struct.std::_Vector_base.1"* %2, i32 0, i32 0
  %4 = getelementptr inbounds %"struct.std::_Vector_base<long long, std::allocator<long long> >::_Vector_impl", %"struct.std::_Vector_base<long long, std::allocator<long long> >::_Vector_impl"* %3, i32 0, i32 0
  %5 = load i64*, i64** %4, align 8
  call void @_ZNSt6vectorIxSaIxEE15_M_erase_at_endEPx(%"class.std::vector.0"* %0, i64* %5) #3
  ret void
}

; Function Attrs: noinline nounwind uwtable
define linkonce_odr void @_ZNSt6vectorIS_IxSaIxEESaIS1_EE5clearEv(%"class.std::vector"* %0) #5 comdat align 2 {
  %2 = bitcast %"class.std::vector"* %0 to %"struct.std::_Vector_base"*
  %3 = getelementptr inbounds %"struct.std::_Vector_base", %"struct.std::_Vector_base"* %2, i32 0, i32 0
  %4 = getelementptr inbounds %"struct.std::_Vector_base<std::vector<long long, std::allocator<long long> >, std::allocator<std::vector<long long, std::allocator<long long> > > >::_Vector_impl", %"struct.std::_Vector_base<std::vector<long long, std::allocator<long long> >, std::allocator<std::vector<long long, std::allocator<long long> > > >::_Vector_impl"* %3, i32 0, i32 0
  %5 = load %"class.std::vector.0"*, %"class.std::vector.0"** %4, align 8
  call void @_ZNSt6vectorIS_IxSaIxEESaIS1_EE15_M_erase_at_endEPS1_(%"class.std::vector"* %0, %"class.std::vector.0"* %5) #3
  ret void
}

; Function Attrs: noinline uwtable
define linkonce_odr void @_ZNSt6vectorIS_IxSaIxEESaIS1_EE6resizeEm(%"class.std::vector"* %0, i64 %1) #0 comdat align 2 {
  %3 = call i64 @_ZNKSt6vectorIS_IxSaIxEESaIS1_EE4sizeEv(%"class.std::vector"* %0) #3
  %4 = icmp ugt i64 %1, %3
  br i1 %4, label %5, label %8

5:                                                ; preds = %2
  %6 = call i64 @_ZNKSt6vectorIS_IxSaIxEESaIS1_EE4sizeEv(%"class.std::vector"* %0) #3
  %7 = sub i64 %1, %6
  call void @_ZNSt6vectorIS_IxSaIxEESaIS1_EE17_M_default_appendEm(%"class.std::vector"* %0, i64 %7)
  br label %18

8:                                                ; preds = %2
  %9 = call i64 @_ZNKSt6vectorIS_IxSaIxEESaIS1_EE4sizeEv(%"class.std::vector"* %0) #3
  %10 = icmp ult i64 %1, %9
  br i1 %10, label %11, label %17

11:                                               ; preds = %8
  %12 = bitcast %"class.std::vector"* %0 to %"struct.std::_Vector_base"*
  %13 = getelementptr inbounds %"struct.std::_Vector_base", %"struct.std::_Vector_base"* %12, i32 0, i32 0
  %14 = getelementptr inbounds %"struct.std::_Vector_base<std::vector<long long, std::allocator<long long> >, std::allocator<std::vector<long long, std::allocator<long long> > > >::_Vector_impl", %"struct.std::_Vector_base<std::vector<long long, std::allocator<long long> >, std::allocator<std::vector<long long, std::allocator<long long> > > >::_Vector_impl"* %13, i32 0, i32 0
  %15 = load %"class.std::vector.0"*, %"class.std::vector.0"** %14, align 8
  %16 = getelementptr inbounds %"class.std::vector.0", %"class.std::vector.0"* %15, i64 %1
  call void @_ZNSt6vectorIS_IxSaIxEESaIS1_EE15_M_erase_at_endEPS1_(%"class.std::vector"* %0, %"class.std::vector.0"* %16) #3
  br label %17

17:                                               ; preds = %11, %8
  br label %18

18:                                               ; preds = %17, %5
  ret void
}

; Function Attrs: noinline uwtable
define linkonce_odr void @_ZNSt6vectorIxSaIxEE6resizeEmRKx(%"class.std::vector.0"* %0, i64 %1, i64* dereferenceable(8) %2) #0 comdat align 2 {
  %4 = alloca %"class.__gnu_cxx::__normal_iterator", align 8
  %5 = call i64 @_ZNKSt6vectorIxSaIxEE4sizeEv(%"class.std::vector.0"* %0) #3
  %6 = icmp ugt i64 %1, %5
  br i1 %6, label %7, label %14

7:                                                ; preds = %3
  %8 = call i64* @_ZNSt6vectorIxSaIxEE3endEv(%"class.std::vector.0"* %0) #3
  %9 = getelementptr inbounds %"class.__gnu_cxx::__normal_iterator", %"class.__gnu_cxx::__normal_iterator"* %4, i32 0, i32 0
  store i64* %8, i64** %9, align 8
  %10 = call i64 @_ZNKSt6vectorIxSaIxEE4sizeEv(%"class.std::vector.0"* %0) #3
  %11 = sub i64 %1, %10
  %12 = getelementptr inbounds %"class.__gnu_cxx::__normal_iterator", %"class.__gnu_cxx::__normal_iterator"* %4, i32 0, i32 0
  %13 = load i64*, i64** %12, align 8
  call void @_ZNSt6vectorIxSaIxEE14_M_fill_insertEN9__gnu_cxx17__normal_iteratorIPxS1_EEmRKx(%"class.std::vector.0"* %0, i64* %13, i64 %11, i64* dereferenceable(8) %2)
  br label %24

14:                                               ; preds = %3
  %15 = call i64 @_ZNKSt6vectorIxSaIxEE4sizeEv(%"class.std::vector.0"* %0) #3
  %16 = icmp ult i64 %1, %15
  br i1 %16, label %17, label %23

17:                                               ; preds = %14
  %18 = bitcast %"class.std::vector.0"* %0 to %"struct.std::_Vector_base.1"*
  %19 = getelementptr inbounds %"struct.std::_Vector_base.1", %"struct.std::_Vector_base.1"* %18, i32 0, i32 0
  %20 = getelementptr inbounds %"struct.std::_Vector_base<long long, std::allocator<long long> >::_Vector_impl", %"struct.std::_Vector_base<long long, std::allocator<long long> >::_Vector_impl"* %19, i32 0, i32 0
  %21 = load i64*, i64** %20, align 8
  %22 = getelementptr inbounds i64, i64* %21, i64 %1
  call void @_ZNSt6vectorIxSaIxEE15_M_erase_at_endEPx(%"class.std::vector.0"* %0, i64* %22) #3
  br label %23

23:                                               ; preds = %17, %14
  br label %24

24:                                               ; preds = %23, %7
  ret void
}

; Function Attrs: noinline nounwind uwtable
define linkonce_odr void @_ZNSt6vectorIxSaIxEE15_M_erase_at_endEPx(%"class.std::vector.0"* %0, i64* %1) #5 comdat align 2 personality i8* bitcast (i32 (...)* @__gxx_personality_v0 to i8*) {
  %3 = bitcast %"class.std::vector.0"* %0 to %"struct.std::_Vector_base.1"*
  %4 = getelementptr inbounds %"struct.std::_Vector_base.1", %"struct.std::_Vector_base.1"* %3, i32 0, i32 0
  %5 = getelementptr inbounds %"struct.std::_Vector_base<long long, std::allocator<long long> >::_Vector_impl", %"struct.std::_Vector_base<long long, std::allocator<long long> >::_Vector_impl"* %4, i32 0, i32 1
  %6 = load i64*, i64** %5, align 8
  %7 = ptrtoint i64* %6 to i64
  %8 = ptrtoint i64* %1 to i64
  %9 = sub i64 %7, %8
  %10 = sdiv exact i64 %9, 8
  %11 = icmp ne i64 %10, 0
  br i1 %11, label %12, label %23

12:                                               ; preds = %2
  %13 = bitcast %"class.std::vector.0"* %0 to %"struct.std::_Vector_base.1"*
  %14 = getelementptr inbounds %"struct.std::_Vector_base.1", %"struct.std::_Vector_base.1"* %13, i32 0, i32 0
  %15 = getelementptr inbounds %"struct.std::_Vector_base<long long, std::allocator<long long> >::_Vector_impl", %"struct.std::_Vector_base<long long, std::allocator<long long> >::_Vector_impl"* %14, i32 0, i32 1
  %16 = load i64*, i64** %15, align 8
  %17 = bitcast %"class.std::vector.0"* %0 to %"struct.std::_Vector_base.1"*
  %18 = call dereferenceable(1) %"class.std::allocator.2"* @_ZNSt12_Vector_baseIxSaIxEE19_M_get_Tp_allocatorEv(%"struct.std::_Vector_base.1"* %17) #3
  invoke void @_ZSt8_DestroyIPxxEvT_S1_RSaIT0_E(i64* %1, i64* %16, %"class.std::allocator.2"* dereferenceable(1) %18)
          to label %19 unwind label %24

19:                                               ; preds = %12
  %20 = bitcast %"class.std::vector.0"* %0 to %"struct.std::_Vector_base.1"*
  %21 = getelementptr inbounds %"struct.std::_Vector_base.1", %"struct.std::_Vector_base.1"* %20, i32 0, i32 0
  %22 = getelementptr inbounds %"struct.std::_Vector_base<long long, std::allocator<long long> >::_Vector_impl", %"struct.std::_Vector_base<long long, std::allocator<long long> >::_Vector_impl"* %21, i32 0, i32 1
  store i64* %1, i64** %22, align 8
  br label %23

23:                                               ; preds = %19, %2
  ret void

24:                                               ; preds = %12
  %25 = landingpad { i8*, i32 }
          catch i8* null
  %26 = extractvalue { i8*, i32 } %25, 0
  call void @__clang_call_terminate(i8* %26) #12
  unreachable
}

; Function Attrs: noinline uwtable
define linkonce_odr void @_ZSt8_DestroyIPxxEvT_S1_RSaIT0_E(i64* %0, i64* %1, %"class.std::allocator.2"* dereferenceable(1) %2) #0 comdat {
  call void @_ZSt8_DestroyIPxEvT_S1_(i64* %0, i64* %1)
  ret void
}

; Function Attrs: noinline nounwind uwtable
define linkonce_odr dereferenceable(1) %"class.std::allocator.2"* @_ZNSt12_Vector_baseIxSaIxEE19_M_get_Tp_allocatorEv(%"struct.std::_Vector_base.1"* %0) #5 comdat align 2 {
  %2 = getelementptr inbounds %"struct.std::_Vector_base.1", %"struct.std::_Vector_base.1"* %0, i32 0, i32 0
  %3 = bitcast %"struct.std::_Vector_base<long long, std::allocator<long long> >::_Vector_impl"* %2 to %"class.std::allocator.2"*
  ret %"class.std::allocator.2"* %3
}

; Function Attrs: noinline uwtable
define linkonce_odr void @_ZSt8_DestroyIPxEvT_S1_(i64* %0, i64* %1) #0 comdat {
  call void @_ZNSt12_Destroy_auxILb1EE9__destroyIPxEEvT_S3_(i64* %0, i64* %1)
  ret void
}

; Function Attrs: noinline nounwind uwtable
define linkonce_odr void @_ZNSt12_Destroy_auxILb1EE9__destroyIPxEEvT_S3_(i64* %0, i64* %1) #5 comdat align 2 {
  ret void
}

; Function Attrs: noinline nounwind uwtable
define linkonce_odr void @_ZNSt6vectorIS_IxSaIxEESaIS1_EE15_M_erase_at_endEPS1_(%"class.std::vector"* %0, %"class.std::vector.0"* %1) #5 comdat align 2 personality i8* bitcast (i32 (...)* @__gxx_personality_v0 to i8*) {
  %3 = bitcast %"class.std::vector"* %0 to %"struct.std::_Vector_base"*
  %4 = getelementptr inbounds %"struct.std::_Vector_base", %"struct.std::_Vector_base"* %3, i32 0, i32 0
  %5 = getelementptr inbounds %"struct.std::_Vector_base<std::vector<long long, std::allocator<long long> >, std::allocator<std::vector<long long, std::allocator<long long> > > >::_Vector_impl", %"struct.std::_Vector_base<std::vector<long long, std::allocator<long long> >, std::allocator<std::vector<long long, std::allocator<long long> > > >::_Vector_impl"* %4, i32 0, i32 1
  %6 = load %"class.std::vector.0"*, %"class.std::vector.0"** %5, align 8
  %7 = ptrtoint %"class.std::vector.0"* %6 to i64
  %8 = ptrtoint %"class.std::vector.0"* %1 to i64
  %9 = sub i64 %7, %8
  %10 = sdiv exact i64 %9, 24
  %11 = icmp ne i64 %10, 0
  br i1 %11, label %12, label %23

12:                                               ; preds = %2
  %13 = bitcast %"class.std::vector"* %0 to %"struct.std::_Vector_base"*
  %14 = getelementptr inbounds %"struct.std::_Vector_base", %"struct.std::_Vector_base"* %13, i32 0, i32 0
  %15 = getelementptr inbounds %"struct.std::_Vector_base<std::vector<long long, std::allocator<long long> >, std::allocator<std::vector<long long, std::allocator<long long> > > >::_Vector_impl", %"struct.std::_Vector_base<std::vector<long long, std::allocator<long long> >, std::allocator<std::vector<long long, std::allocator<long long> > > >::_Vector_impl"* %14, i32 0, i32 1
  %16 = load %"class.std::vector.0"*, %"class.std::vector.0"** %15, align 8
  %17 = bitcast %"class.std::vector"* %0 to %"struct.std::_Vector_base"*
  %18 = call dereferenceable(1) %"class.std::allocator"* @_ZNSt12_Vector_baseISt6vectorIxSaIxEESaIS2_EE19_M_get_Tp_allocatorEv(%"struct.std::_Vector_base"* %17) #3
  invoke void @_ZSt8_DestroyIPSt6vectorIxSaIxEES2_EvT_S4_RSaIT0_E(%"class.std::vector.0"* %1, %"class.std::vector.0"* %16, %"class.std::allocator"* dereferenceable(1) %18)
          to label %19 unwind label %24

19:                                               ; preds = %12
  %20 = bitcast %"class.std::vector"* %0 to %"struct.std::_Vector_base"*
  %21 = getelementptr inbounds %"struct.std::_Vector_base", %"struct.std::_Vector_base"* %20, i32 0, i32 0
  %22 = getelementptr inbounds %"struct.std::_Vector_base<std::vector<long long, std::allocator<long long> >, std::allocator<std::vector<long long, std::allocator<long long> > > >::_Vector_impl", %"struct.std::_Vector_base<std::vector<long long, std::allocator<long long> >, std::allocator<std::vector<long long, std::allocator<long long> > > >::_Vector_impl"* %21, i32 0, i32 1
  store %"class.std::vector.0"* %1, %"class.std::vector.0"** %22, align 8
  br label %23

23:                                               ; preds = %19, %2
  ret void

24:                                               ; preds = %12
  %25 = landingpad { i8*, i32 }
          catch i8* null
  %26 = extractvalue { i8*, i32 } %25, 0
  call void @__clang_call_terminate(i8* %26) #12
  unreachable
}

; Function Attrs: noinline uwtable
define linkonce_odr void @_ZSt8_DestroyIPSt6vectorIxSaIxEES2_EvT_S4_RSaIT0_E(%"class.std::vector.0"* %0, %"class.std::vector.0"* %1, %"class.std::allocator"* dereferenceable(1) %2) #0 comdat {
  call void @_ZSt8_DestroyIPSt6vectorIxSaIxEEEvT_S4_(%"class.std::vector.0"* %0, %"class.std::vector.0"* %1)
  ret void
}

; Function Attrs: noinline nounwind uwtable
define linkonce_odr dereferenceable(1) %"class.std::allocator"* @_ZNSt12_Vector_baseISt6vectorIxSaIxEESaIS2_EE19_M_get_Tp_allocatorEv(%"struct.std::_Vector_base"* %0) #5 comdat align 2 {
  %2 = getelementptr inbounds %"struct.std::_Vector_base", %"struct.std::_Vector_base"* %0, i32 0, i32 0
  %3 = bitcast %"struct.std::_Vector_base<std::vector<long long, std::allocator<long long> >, std::allocator<std::vector<long long, std::allocator<long long> > > >::_Vector_impl"* %2 to %"class.std::allocator"*
  ret %"class.std::allocator"* %3
}

; Function Attrs: noinline uwtable
define linkonce_odr void @_ZSt8_DestroyIPSt6vectorIxSaIxEEEvT_S4_(%"class.std::vector.0"* %0, %"class.std::vector.0"* %1) #0 comdat {
  call void @_ZNSt12_Destroy_auxILb0EE9__destroyIPSt6vectorIxSaIxEEEEvT_S6_(%"class.std::vector.0"* %0, %"class.std::vector.0"* %1)
  ret void
}

; Function Attrs: noinline uwtable
define linkonce_odr void @_ZNSt12_Destroy_auxILb0EE9__destroyIPSt6vectorIxSaIxEEEEvT_S6_(%"class.std::vector.0"* %0, %"class.std::vector.0"* %1) #0 comdat align 2 {
  br label %3

3:                                                ; preds = %7, %2
  %.0 = phi %"class.std::vector.0"* [ %0, %2 ], [ %8, %7 ]
  %4 = icmp ne %"class.std::vector.0"* %.0, %1
  br i1 %4, label %5, label %9

5:                                                ; preds = %3
  %6 = call %"class.std::vector.0"* @_ZSt11__addressofISt6vectorIxSaIxEEEPT_RS3_(%"class.std::vector.0"* dereferenceable(24) %.0) #3
  call void @_ZSt8_DestroyISt6vectorIxSaIxEEEvPT_(%"class.std::vector.0"* %6)
  br label %7

7:                                                ; preds = %5
  %8 = getelementptr inbounds %"class.std::vector.0", %"class.std::vector.0"* %.0, i32 1
  br label %3

9:                                                ; preds = %3
  ret void
}

; Function Attrs: noinline nounwind uwtable
define linkonce_odr void @_ZSt8_DestroyISt6vectorIxSaIxEEEvPT_(%"class.std::vector.0"* %0) #5 comdat {
  call void @_ZNSt6vectorIxSaIxEED2Ev(%"class.std::vector.0"* %0) #3
  ret void
}

; Function Attrs: noinline nounwind uwtable
define linkonce_odr %"class.std::vector.0"* @_ZSt11__addressofISt6vectorIxSaIxEEEPT_RS3_(%"class.std::vector.0"* dereferenceable(24) %0) #5 comdat {
  ret %"class.std::vector.0"* %0
}

; Function Attrs: noinline uwtable
define linkonce_odr void @_ZNSt6vectorIS_IxSaIxEESaIS1_EE17_M_default_appendEm(%"class.std::vector"* %0, i64 %1) #0 comdat align 2 personality i8* bitcast (i32 (...)* @__gxx_personality_v0 to i8*) {
  %3 = icmp ne i64 %1, 0
  br i1 %3, label %4, label %121

4:                                                ; preds = %2
  %5 = call i64 @_ZNKSt6vectorIS_IxSaIxEESaIS1_EE4sizeEv(%"class.std::vector"* %0) #3
  %6 = bitcast %"class.std::vector"* %0 to %"struct.std::_Vector_base"*
  %7 = getelementptr inbounds %"struct.std::_Vector_base", %"struct.std::_Vector_base"* %6, i32 0, i32 0
  %8 = getelementptr inbounds %"struct.std::_Vector_base<std::vector<long long, std::allocator<long long> >, std::allocator<std::vector<long long, std::allocator<long long> > > >::_Vector_impl", %"struct.std::_Vector_base<std::vector<long long, std::allocator<long long> >, std::allocator<std::vector<long long, std::allocator<long long> > > >::_Vector_impl"* %7, i32 0, i32 2
  %9 = load %"class.std::vector.0"*, %"class.std::vector.0"** %8, align 8
  %10 = bitcast %"class.std::vector"* %0 to %"struct.std::_Vector_base"*
  %11 = getelementptr inbounds %"struct.std::_Vector_base", %"struct.std::_Vector_base"* %10, i32 0, i32 0
  %12 = getelementptr inbounds %"struct.std::_Vector_base<std::vector<long long, std::allocator<long long> >, std::allocator<std::vector<long long, std::allocator<long long> > > >::_Vector_impl", %"struct.std::_Vector_base<std::vector<long long, std::allocator<long long> >, std::allocator<std::vector<long long, std::allocator<long long> > > >::_Vector_impl"* %11, i32 0, i32 1
  %13 = load %"class.std::vector.0"*, %"class.std::vector.0"** %12, align 8
  %14 = ptrtoint %"class.std::vector.0"* %9 to i64
  %15 = ptrtoint %"class.std::vector.0"* %13 to i64
  %16 = sub i64 %14, %15
  %17 = sdiv exact i64 %16, 24
  %18 = call i64 @_ZNKSt6vectorIS_IxSaIxEESaIS1_EE8max_sizeEv(%"class.std::vector"* %0) #3
  %19 = icmp ugt i64 %5, %18
  br i1 %19, label %24, label %20

20:                                               ; preds = %4
  %21 = call i64 @_ZNKSt6vectorIS_IxSaIxEESaIS1_EE8max_sizeEv(%"class.std::vector"* %0) #3
  %22 = sub i64 %21, %5
  %23 = icmp ugt i64 %17, %22
  br i1 %23, label %24, label %25

24:                                               ; preds = %20, %4
  unreachable

25:                                               ; preds = %20
  %26 = icmp uge i64 %17, %1
  br i1 %26, label %27, label %38

27:                                               ; preds = %25
  %28 = bitcast %"class.std::vector"* %0 to %"struct.std::_Vector_base"*
  %29 = getelementptr inbounds %"struct.std::_Vector_base", %"struct.std::_Vector_base"* %28, i32 0, i32 0
  %30 = getelementptr inbounds %"struct.std::_Vector_base<std::vector<long long, std::allocator<long long> >, std::allocator<std::vector<long long, std::allocator<long long> > > >::_Vector_impl", %"struct.std::_Vector_base<std::vector<long long, std::allocator<long long> >, std::allocator<std::vector<long long, std::allocator<long long> > > >::_Vector_impl"* %29, i32 0, i32 1
  %31 = load %"class.std::vector.0"*, %"class.std::vector.0"** %30, align 8
  %32 = bitcast %"class.std::vector"* %0 to %"struct.std::_Vector_base"*
  %33 = call dereferenceable(1) %"class.std::allocator"* @_ZNSt12_Vector_baseISt6vectorIxSaIxEESaIS2_EE19_M_get_Tp_allocatorEv(%"struct.std::_Vector_base"* %32) #3
  %34 = call %"class.std::vector.0"* @_ZSt27__uninitialized_default_n_aIPSt6vectorIxSaIxEEmS2_ET_S4_T0_RSaIT1_E(%"class.std::vector.0"* %31, i64 %1, %"class.std::allocator"* dereferenceable(1) %33)
  %35 = bitcast %"class.std::vector"* %0 to %"struct.std::_Vector_base"*
  %36 = getelementptr inbounds %"struct.std::_Vector_base", %"struct.std::_Vector_base"* %35, i32 0, i32 0
  %37 = getelementptr inbounds %"struct.std::_Vector_base<std::vector<long long, std::allocator<long long> >, std::allocator<std::vector<long long, std::allocator<long long> > > >::_Vector_impl", %"struct.std::_Vector_base<std::vector<long long, std::allocator<long long> >, std::allocator<std::vector<long long, std::allocator<long long> > > >::_Vector_impl"* %36, i32 0, i32 1
  store %"class.std::vector.0"* %34, %"class.std::vector.0"** %37, align 8
  br label %120

38:                                               ; preds = %25
  %39 = call i64 @_ZNKSt6vectorIS_IxSaIxEESaIS1_EE12_M_check_lenEmPKc(%"class.std::vector"* %0, i64 %1, i8* getelementptr inbounds ([26 x i8], [26 x i8]* @.str, i32 0, i32 0))
  %40 = bitcast %"class.std::vector"* %0 to %"struct.std::_Vector_base"*
  %41 = call %"class.std::vector.0"* @_ZNSt12_Vector_baseISt6vectorIxSaIxEESaIS2_EE11_M_allocateEm(%"struct.std::_Vector_base"* %40, i64 %39)
  %42 = getelementptr inbounds %"class.std::vector.0", %"class.std::vector.0"* %41, i64 %5
  %43 = bitcast %"class.std::vector"* %0 to %"struct.std::_Vector_base"*
  %44 = call dereferenceable(1) %"class.std::allocator"* @_ZNSt12_Vector_baseISt6vectorIxSaIxEESaIS2_EE19_M_get_Tp_allocatorEv(%"struct.std::_Vector_base"* %43) #3
  %45 = invoke %"class.std::vector.0"* @_ZSt27__uninitialized_default_n_aIPSt6vectorIxSaIxEEmS2_ET_S4_T0_RSaIT1_E(%"class.std::vector.0"* %42, i64 %1, %"class.std::allocator"* dereferenceable(1) %44)
          to label %46 unwind label %60

46:                                               ; preds = %38
  %47 = getelementptr inbounds %"class.std::vector.0", %"class.std::vector.0"* %41, i64 %5
  %48 = bitcast %"class.std::vector"* %0 to %"struct.std::_Vector_base"*
  %49 = getelementptr inbounds %"struct.std::_Vector_base", %"struct.std::_Vector_base"* %48, i32 0, i32 0
  %50 = getelementptr inbounds %"struct.std::_Vector_base<std::vector<long long, std::allocator<long long> >, std::allocator<std::vector<long long, std::allocator<long long> > > >::_Vector_impl", %"struct.std::_Vector_base<std::vector<long long, std::allocator<long long> >, std::allocator<std::vector<long long, std::allocator<long long> > > >::_Vector_impl"* %49, i32 0, i32 0
  %51 = load %"class.std::vector.0"*, %"class.std::vector.0"** %50, align 8
  %52 = bitcast %"class.std::vector"* %0 to %"struct.std::_Vector_base"*
  %53 = getelementptr inbounds %"struct.std::_Vector_base", %"struct.std::_Vector_base"* %52, i32 0, i32 0
  %54 = getelementptr inbounds %"struct.std::_Vector_base<std::vector<long long, std::allocator<long long> >, std::allocator<std::vector<long long, std::allocator<long long> > > >::_Vector_impl", %"struct.std::_Vector_base<std::vector<long long, std::allocator<long long> >, std::allocator<std::vector<long long, std::allocator<long long> > > >::_Vector_impl"* %53, i32 0, i32 1
  %55 = load %"class.std::vector.0"*, %"class.std::vector.0"** %54, align 8
  %56 = bitcast %"class.std::vector"* %0 to %"struct.std::_Vector_base"*
  %57 = call dereferenceable(1) %"class.std::allocator"* @_ZNSt12_Vector_baseISt6vectorIxSaIxEESaIS2_EE19_M_get_Tp_allocatorEv(%"struct.std::_Vector_base"* %56) #3
  %58 = invoke %"class.std::vector.0"* @_ZSt34__uninitialized_move_if_noexcept_aIPSt6vectorIxSaIxEES3_SaIS2_EET0_T_S6_S5_RT1_(%"class.std::vector.0"* %51, %"class.std::vector.0"* %55, %"class.std::vector.0"* %41, %"class.std::allocator"* dereferenceable(1) %57)
          to label %59 unwind label %60

59:                                               ; preds = %46
  br label %80

60:                                               ; preds = %46, %38
  %.0 = phi %"class.std::vector.0"* [ %47, %46 ], [ null, %38 ]
  %61 = landingpad { i8*, i32 }
          catch i8* null
  %62 = extractvalue { i8*, i32 } %61, 0
  %63 = extractvalue { i8*, i32 } %61, 1
  br label %64

64:                                               ; preds = %60
  %65 = call i8* @__cxa_begin_catch(i8* %62) #3
  %66 = icmp ne %"class.std::vector.0"* %.0, null
  br i1 %66, label %67, label %76

67:                                               ; preds = %64
  %68 = getelementptr inbounds %"class.std::vector.0", %"class.std::vector.0"* %.0, i64 %1
  %69 = bitcast %"class.std::vector"* %0 to %"struct.std::_Vector_base"*
  %70 = call dereferenceable(1) %"class.std::allocator"* @_ZNSt12_Vector_baseISt6vectorIxSaIxEESaIS2_EE19_M_get_Tp_allocatorEv(%"struct.std::_Vector_base"* %69) #3
  invoke void @_ZSt8_DestroyIPSt6vectorIxSaIxEES2_EvT_S4_RSaIT0_E(%"class.std::vector.0"* %.0, %"class.std::vector.0"* %68, %"class.std::allocator"* dereferenceable(1) %70)
          to label %71 unwind label %72

71:                                               ; preds = %67
  br label %76

72:                                               ; preds = %78, %76, %67
  %73 = landingpad { i8*, i32 }
          cleanup
  %74 = extractvalue { i8*, i32 } %73, 0
  %75 = extractvalue { i8*, i32 } %73, 1
  invoke void @__cxa_end_catch()
          to label %79 unwind label %125

76:                                               ; preds = %71, %64
  %77 = bitcast %"class.std::vector"* %0 to %"struct.std::_Vector_base"*
  invoke void @_ZNSt12_Vector_baseISt6vectorIxSaIxEESaIS2_EE13_M_deallocateEPS2_m(%"struct.std::_Vector_base"* %77, %"class.std::vector.0"* %41, i64 %39)
          to label %78 unwind label %72

78:                                               ; preds = %76
  invoke void @__cxa_rethrow() #13
          to label %128 unwind label %72

79:                                               ; preds = %72
  br label %122

80:                                               ; preds = %59
  %81 = bitcast %"class.std::vector"* %0 to %"struct.std::_Vector_base"*
  %82 = getelementptr inbounds %"struct.std::_Vector_base", %"struct.std::_Vector_base"* %81, i32 0, i32 0
  %83 = getelementptr inbounds %"struct.std::_Vector_base<std::vector<long long, std::allocator<long long> >, std::allocator<std::vector<long long, std::allocator<long long> > > >::_Vector_impl", %"struct.std::_Vector_base<std::vector<long long, std::allocator<long long> >, std::allocator<std::vector<long long, std::allocator<long long> > > >::_Vector_impl"* %82, i32 0, i32 0
  %84 = load %"class.std::vector.0"*, %"class.std::vector.0"** %83, align 8
  %85 = bitcast %"class.std::vector"* %0 to %"struct.std::_Vector_base"*
  %86 = getelementptr inbounds %"struct.std::_Vector_base", %"struct.std::_Vector_base"* %85, i32 0, i32 0
  %87 = getelementptr inbounds %"struct.std::_Vector_base<std::vector<long long, std::allocator<long long> >, std::allocator<std::vector<long long, std::allocator<long long> > > >::_Vector_impl", %"struct.std::_Vector_base<std::vector<long long, std::allocator<long long> >, std::allocator<std::vector<long long, std::allocator<long long> > > >::_Vector_impl"* %86, i32 0, i32 1
  %88 = load %"class.std::vector.0"*, %"class.std::vector.0"** %87, align 8
  %89 = bitcast %"class.std::vector"* %0 to %"struct.std::_Vector_base"*
  %90 = call dereferenceable(1) %"class.std::allocator"* @_ZNSt12_Vector_baseISt6vectorIxSaIxEESaIS2_EE19_M_get_Tp_allocatorEv(%"struct.std::_Vector_base"* %89) #3
  call void @_ZSt8_DestroyIPSt6vectorIxSaIxEES2_EvT_S4_RSaIT0_E(%"class.std::vector.0"* %84, %"class.std::vector.0"* %88, %"class.std::allocator"* dereferenceable(1) %90)
  %91 = bitcast %"class.std::vector"* %0 to %"struct.std::_Vector_base"*
  %92 = bitcast %"class.std::vector"* %0 to %"struct.std::_Vector_base"*
  %93 = getelementptr inbounds %"struct.std::_Vector_base", %"struct.std::_Vector_base"* %92, i32 0, i32 0
  %94 = getelementptr inbounds %"struct.std::_Vector_base<std::vector<long long, std::allocator<long long> >, std::allocator<std::vector<long long, std::allocator<long long> > > >::_Vector_impl", %"struct.std::_Vector_base<std::vector<long long, std::allocator<long long> >, std::allocator<std::vector<long long, std::allocator<long long> > > >::_Vector_impl"* %93, i32 0, i32 0
  %95 = load %"class.std::vector.0"*, %"class.std::vector.0"** %94, align 8
  %96 = bitcast %"class.std::vector"* %0 to %"struct.std::_Vector_base"*
  %97 = getelementptr inbounds %"struct.std::_Vector_base", %"struct.std::_Vector_base"* %96, i32 0, i32 0
  %98 = getelementptr inbounds %"struct.std::_Vector_base<std::vector<long long, std::allocator<long long> >, std::allocator<std::vector<long long, std::allocator<long long> > > >::_Vector_impl", %"struct.std::_Vector_base<std::vector<long long, std::allocator<long long> >, std::allocator<std::vector<long long, std::allocator<long long> > > >::_Vector_impl"* %97, i32 0, i32 2
  %99 = load %"class.std::vector.0"*, %"class.std::vector.0"** %98, align 8
  %100 = bitcast %"class.std::vector"* %0 to %"struct.std::_Vector_base"*
  %101 = getelementptr inbounds %"struct.std::_Vector_base", %"struct.std::_Vector_base"* %100, i32 0, i32 0
  %102 = getelementptr inbounds %"struct.std::_Vector_base<std::vector<long long, std::allocator<long long> >, std::allocator<std::vector<long long, std::allocator<long long> > > >::_Vector_impl", %"struct.std::_Vector_base<std::vector<long long, std::allocator<long long> >, std::allocator<std::vector<long long, std::allocator<long long> > > >::_Vector_impl"* %101, i32 0, i32 0
  %103 = load %"class.std::vector.0"*, %"class.std::vector.0"** %102, align 8
  %104 = ptrtoint %"class.std::vector.0"* %99 to i64
  %105 = ptrtoint %"class.std::vector.0"* %103 to i64
  %106 = sub i64 %104, %105
  %107 = sdiv exact i64 %106, 24
  call void @_ZNSt12_Vector_baseISt6vectorIxSaIxEESaIS2_EE13_M_deallocateEPS2_m(%"struct.std::_Vector_base"* %91, %"class.std::vector.0"* %95, i64 %107)
  %108 = bitcast %"class.std::vector"* %0 to %"struct.std::_Vector_base"*
  %109 = getelementptr inbounds %"struct.std::_Vector_base", %"struct.std::_Vector_base"* %108, i32 0, i32 0
  %110 = getelementptr inbounds %"struct.std::_Vector_base<std::vector<long long, std::allocator<long long> >, std::allocator<std::vector<long long, std::allocator<long long> > > >::_Vector_impl", %"struct.std::_Vector_base<std::vector<long long, std::allocator<long long> >, std::allocator<std::vector<long long, std::allocator<long long> > > >::_Vector_impl"* %109, i32 0, i32 0
  store %"class.std::vector.0"* %41, %"class.std::vector.0"** %110, align 8
  %111 = getelementptr inbounds %"class.std::vector.0", %"class.std::vector.0"* %41, i64 %5
  %112 = getelementptr inbounds %"class.std::vector.0", %"class.std::vector.0"* %111, i64 %1
  %113 = bitcast %"class.std::vector"* %0 to %"struct.std::_Vector_base"*
  %114 = getelementptr inbounds %"struct.std::_Vector_base", %"struct.std::_Vector_base"* %113, i32 0, i32 0
  %115 = getelementptr inbounds %"struct.std::_Vector_base<std::vector<long long, std::allocator<long long> >, std::allocator<std::vector<long long, std::allocator<long long> > > >::_Vector_impl", %"struct.std::_Vector_base<std::vector<long long, std::allocator<long long> >, std::allocator<std::vector<long long, std::allocator<long long> > > >::_Vector_impl"* %114, i32 0, i32 1
  store %"class.std::vector.0"* %112, %"class.std::vector.0"** %115, align 8
  %116 = getelementptr inbounds %"class.std::vector.0", %"class.std::vector.0"* %41, i64 %39
  %117 = bitcast %"class.std::vector"* %0 to %"struct.std::_Vector_base"*
  %118 = getelementptr inbounds %"struct.std::_Vector_base", %"struct.std::_Vector_base"* %117, i32 0, i32 0
  %119 = getelementptr inbounds %"struct.std::_Vector_base<std::vector<long long, std::allocator<long long> >, std::allocator<std::vector<long long, std::allocator<long long> > > >::_Vector_impl", %"struct.std::_Vector_base<std::vector<long long, std::allocator<long long> >, std::allocator<std::vector<long long, std::allocator<long long> > > >::_Vector_impl"* %118, i32 0, i32 2
  store %"class.std::vector.0"* %116, %"class.std::vector.0"** %119, align 8
  br label %120

120:                                              ; preds = %80, %27
  br label %121

121:                                              ; preds = %120, %2
  ret void

122:                                              ; preds = %79
  %123 = insertvalue { i8*, i32 } undef, i8* %74, 0
  %124 = insertvalue { i8*, i32 } %123, i32 %75, 1
  resume { i8*, i32 } %124

125:                                              ; preds = %72
  %126 = landingpad { i8*, i32 }
          catch i8* null
  %127 = extractvalue { i8*, i32 } %126, 0
  call void @__clang_call_terminate(i8* %127) #12
  unreachable

128:                                              ; preds = %78
  unreachable
}

; Function Attrs: noinline nounwind uwtable
define linkonce_odr i64 @_ZNKSt6vectorIS_IxSaIxEESaIS1_EE8max_sizeEv(%"class.std::vector"* %0) #5 comdat align 2 {
  %2 = bitcast %"class.std::vector"* %0 to %"struct.std::_Vector_base"*
  %3 = call dereferenceable(1) %"class.std::allocator"* @_ZNKSt12_Vector_baseISt6vectorIxSaIxEESaIS2_EE19_M_get_Tp_allocatorEv(%"struct.std::_Vector_base"* %2) #3
  %4 = call i64 @_ZNSt16allocator_traitsISaISt6vectorIxSaIxEEEE8max_sizeERKS3_(%"class.std::allocator"* dereferenceable(1) %3) #3
  ret i64 %4
}

; Function Attrs: noinline uwtable
define linkonce_odr %"class.std::vector.0"* @_ZSt27__uninitialized_default_n_aIPSt6vectorIxSaIxEEmS2_ET_S4_T0_RSaIT1_E(%"class.std::vector.0"* %0, i64 %1, %"class.std::allocator"* dereferenceable(1) %2) #0 comdat {
  %4 = call %"class.std::vector.0"* @_ZSt25__uninitialized_default_nIPSt6vectorIxSaIxEEmET_S4_T0_(%"class.std::vector.0"* %0, i64 %1)
  ret %"class.std::vector.0"* %4
}

; Function Attrs: noinline uwtable
define linkonce_odr i64 @_ZNKSt6vectorIS_IxSaIxEESaIS1_EE12_M_check_lenEmPKc(%"class.std::vector"* %0, i64 %1, i8* %2) #0 comdat align 2 {
  %4 = alloca i64, align 8
  %5 = alloca i64, align 8
  store i64 %1, i64* %4, align 8
  %6 = call i64 @_ZNKSt6vectorIS_IxSaIxEESaIS1_EE8max_sizeEv(%"class.std::vector"* %0) #3
  %7 = call i64 @_ZNKSt6vectorIS_IxSaIxEESaIS1_EE4sizeEv(%"class.std::vector"* %0) #3
  %8 = sub i64 %6, %7
  %9 = load i64, i64* %4, align 8
  %10 = icmp ult i64 %8, %9
  br i1 %10, label %11, label %12

11:                                               ; preds = %3
  call void @_ZSt20__throw_length_errorPKc(i8* %2) #13
  unreachable

12:                                               ; preds = %3
  %13 = call i64 @_ZNKSt6vectorIS_IxSaIxEESaIS1_EE4sizeEv(%"class.std::vector"* %0) #3
  %14 = call i64 @_ZNKSt6vectorIS_IxSaIxEESaIS1_EE4sizeEv(%"class.std::vector"* %0) #3
  store i64 %14, i64* %5, align 8
  %15 = call dereferenceable(8) i64* @_ZSt3maxImERKT_S2_S2_(i64* dereferenceable(8) %5, i64* dereferenceable(8) %4)
  %16 = load i64, i64* %15, align 8
  %17 = add i64 %13, %16
  %18 = call i64 @_ZNKSt6vectorIS_IxSaIxEESaIS1_EE4sizeEv(%"class.std::vector"* %0) #3
  %19 = icmp ult i64 %17, %18
  br i1 %19, label %23, label %20

20:                                               ; preds = %12
  %21 = call i64 @_ZNKSt6vectorIS_IxSaIxEESaIS1_EE8max_sizeEv(%"class.std::vector"* %0) #3
  %22 = icmp ugt i64 %17, %21
  br i1 %22, label %23, label %25

23:                                               ; preds = %20, %12
  %24 = call i64 @_ZNKSt6vectorIS_IxSaIxEESaIS1_EE8max_sizeEv(%"class.std::vector"* %0) #3
  br label %26

25:                                               ; preds = %20
  br label %26

26:                                               ; preds = %25, %23
  %27 = phi i64 [ %24, %23 ], [ %17, %25 ]
  ret i64 %27
}

; Function Attrs: noinline uwtable
define linkonce_odr %"class.std::vector.0"* @_ZNSt12_Vector_baseISt6vectorIxSaIxEESaIS2_EE11_M_allocateEm(%"struct.std::_Vector_base"* %0, i64 %1) #0 comdat align 2 {
  %3 = icmp ne i64 %1, 0
  br i1 %3, label %4, label %8

4:                                                ; preds = %2
  %5 = getelementptr inbounds %"struct.std::_Vector_base", %"struct.std::_Vector_base"* %0, i32 0, i32 0
  %6 = bitcast %"struct.std::_Vector_base<std::vector<long long, std::allocator<long long> >, std::allocator<std::vector<long long, std::allocator<long long> > > >::_Vector_impl"* %5 to %"class.std::allocator"*
  %7 = call %"class.std::vector.0"* @_ZNSt16allocator_traitsISaISt6vectorIxSaIxEEEE8allocateERS3_m(%"class.std::allocator"* dereferenceable(1) %6, i64 %1)
  br label %9

8:                                                ; preds = %2
  br label %9

9:                                                ; preds = %8, %4
  %10 = phi %"class.std::vector.0"* [ %7, %4 ], [ null, %8 ]
  ret %"class.std::vector.0"* %10
}

; Function Attrs: noinline uwtable
define linkonce_odr %"class.std::vector.0"* @_ZSt34__uninitialized_move_if_noexcept_aIPSt6vectorIxSaIxEES3_SaIS2_EET0_T_S6_S5_RT1_(%"class.std::vector.0"* %0, %"class.std::vector.0"* %1, %"class.std::vector.0"* %2, %"class.std::allocator"* dereferenceable(1) %3) #0 comdat {
  %5 = alloca %"class.std::move_iterator", align 8
  %6 = alloca %"class.std::move_iterator", align 8
  %7 = call %"class.std::vector.0"* @_ZSt32__make_move_if_noexcept_iteratorISt6vectorIxSaIxEESt13move_iteratorIPS2_EET0_PT_(%"class.std::vector.0"* %0)
  %8 = getelementptr inbounds %"class.std::move_iterator", %"class.std::move_iterator"* %5, i32 0, i32 0
  store %"class.std::vector.0"* %7, %"class.std::vector.0"** %8, align 8
  %9 = call %"class.std::vector.0"* @_ZSt32__make_move_if_noexcept_iteratorISt6vectorIxSaIxEESt13move_iteratorIPS2_EET0_PT_(%"class.std::vector.0"* %1)
  %10 = getelementptr inbounds %"class.std::move_iterator", %"class.std::move_iterator"* %6, i32 0, i32 0
  store %"class.std::vector.0"* %9, %"class.std::vector.0"** %10, align 8
  %11 = getelementptr inbounds %"class.std::move_iterator", %"class.std::move_iterator"* %5, i32 0, i32 0
  %12 = load %"class.std::vector.0"*, %"class.std::vector.0"** %11, align 8
  %13 = getelementptr inbounds %"class.std::move_iterator", %"class.std::move_iterator"* %6, i32 0, i32 0
  %14 = load %"class.std::vector.0"*, %"class.std::vector.0"** %13, align 8
  %15 = call %"class.std::vector.0"* @_ZSt22__uninitialized_copy_aISt13move_iteratorIPSt6vectorIxSaIxEEES4_S3_ET0_T_S7_S6_RSaIT1_E(%"class.std::vector.0"* %12, %"class.std::vector.0"* %14, %"class.std::vector.0"* %2, %"class.std::allocator"* dereferenceable(1) %3)
  ret %"class.std::vector.0"* %15
}

; Function Attrs: noinline uwtable
define linkonce_odr void @_ZNSt12_Vector_baseISt6vectorIxSaIxEESaIS2_EE13_M_deallocateEPS2_m(%"struct.std::_Vector_base"* %0, %"class.std::vector.0"* %1, i64 %2) #0 comdat align 2 {
  %4 = icmp ne %"class.std::vector.0"* %1, null
  br i1 %4, label %5, label %8

5:                                                ; preds = %3
  %6 = getelementptr inbounds %"struct.std::_Vector_base", %"struct.std::_Vector_base"* %0, i32 0, i32 0
  %7 = bitcast %"struct.std::_Vector_base<std::vector<long long, std::allocator<long long> >, std::allocator<std::vector<long long, std::allocator<long long> > > >::_Vector_impl"* %6 to %"class.std::allocator"*
  call void @_ZNSt16allocator_traitsISaISt6vectorIxSaIxEEEE10deallocateERS3_PS2_m(%"class.std::allocator"* dereferenceable(1) %7, %"class.std::vector.0"* %1, i64 %2)
  br label %8

8:                                                ; preds = %5, %3
  ret void
}

declare void @__cxa_rethrow()

declare void @__cxa_end_catch()

; Function Attrs: noinline nounwind uwtable
define linkonce_odr i64 @_ZNSt16allocator_traitsISaISt6vectorIxSaIxEEEE8max_sizeERKS3_(%"class.std::allocator"* dereferenceable(1) %0) #5 comdat align 2 {
  %2 = bitcast %"class.std::allocator"* %0 to %"class.__gnu_cxx::new_allocator"*
  %3 = call i64 @_ZNK9__gnu_cxx13new_allocatorISt6vectorIxSaIxEEE8max_sizeEv(%"class.__gnu_cxx::new_allocator"* %2) #3
  ret i64 %3
}

; Function Attrs: noinline nounwind uwtable
define linkonce_odr dereferenceable(1) %"class.std::allocator"* @_ZNKSt12_Vector_baseISt6vectorIxSaIxEESaIS2_EE19_M_get_Tp_allocatorEv(%"struct.std::_Vector_base"* %0) #5 comdat align 2 {
  %2 = getelementptr inbounds %"struct.std::_Vector_base", %"struct.std::_Vector_base"* %0, i32 0, i32 0
  %3 = bitcast %"struct.std::_Vector_base<std::vector<long long, std::allocator<long long> >, std::allocator<std::vector<long long, std::allocator<long long> > > >::_Vector_impl"* %2 to %"class.std::allocator"*
  ret %"class.std::allocator"* %3
}

; Function Attrs: noinline nounwind uwtable
define linkonce_odr i64 @_ZNK9__gnu_cxx13new_allocatorISt6vectorIxSaIxEEE8max_sizeEv(%"class.__gnu_cxx::new_allocator"* %0) #5 comdat align 2 {
  ret i64 768614336404564650
}

; Function Attrs: noinline uwtable
define linkonce_odr %"class.std::vector.0"* @_ZSt25__uninitialized_default_nIPSt6vectorIxSaIxEEmET_S4_T0_(%"class.std::vector.0"* %0, i64 %1) #0 comdat {
  %3 = call %"class.std::vector.0"* @_ZNSt27__uninitialized_default_n_1ILb0EE18__uninit_default_nIPSt6vectorIxSaIxEEmEET_S6_T0_(%"class.std::vector.0"* %0, i64 %1)
  ret %"class.std::vector.0"* %3
}

; Function Attrs: noinline uwtable
define linkonce_odr %"class.std::vector.0"* @_ZNSt27__uninitialized_default_n_1ILb0EE18__uninit_default_nIPSt6vectorIxSaIxEEmEET_S6_T0_(%"class.std::vector.0"* %0, i64 %1) #0 comdat align 2 personality i8* bitcast (i32 (...)* @__gxx_personality_v0 to i8*) {
  br label %3

3:                                                ; preds = %8, %2
  %.01 = phi %"class.std::vector.0"* [ %0, %2 ], [ %10, %8 ]
  %.0 = phi i64 [ %1, %2 ], [ %9, %8 ]
  %4 = icmp ugt i64 %.0, 0
  br i1 %4, label %5, label %18

5:                                                ; preds = %3
  %6 = call %"class.std::vector.0"* @_ZSt11__addressofISt6vectorIxSaIxEEEPT_RS3_(%"class.std::vector.0"* dereferenceable(24) %.01) #3
  invoke void @_ZSt10_ConstructISt6vectorIxSaIxEEJEEvPT_DpOT0_(%"class.std::vector.0"* %6)
          to label %7 unwind label %11

7:                                                ; preds = %5
  br label %8

8:                                                ; preds = %7
  %9 = add i64 %.0, -1
  %10 = getelementptr inbounds %"class.std::vector.0", %"class.std::vector.0"* %.01, i32 1
  br label %3

11:                                               ; preds = %5
  %12 = landingpad { i8*, i32 }
          catch i8* null
  %13 = extractvalue { i8*, i32 } %12, 0
  %14 = extractvalue { i8*, i32 } %12, 1
  br label %15

15:                                               ; preds = %11
  %16 = call i8* @__cxa_begin_catch(i8* %13) #3
  invoke void @_ZSt8_DestroyIPSt6vectorIxSaIxEEEvT_S4_(%"class.std::vector.0"* %0, %"class.std::vector.0"* %.01)
          to label %17 unwind label %19

17:                                               ; preds = %15
  invoke void @__cxa_rethrow() #13
          to label %31 unwind label %19

18:                                               ; preds = %3
  ret %"class.std::vector.0"* %.01

19:                                               ; preds = %17, %15
  %20 = landingpad { i8*, i32 }
          cleanup
  %21 = extractvalue { i8*, i32 } %20, 0
  %22 = extractvalue { i8*, i32 } %20, 1
  invoke void @__cxa_end_catch()
          to label %23 unwind label %28

23:                                               ; preds = %19
  br label %25

24:                                               ; No predecessors!
  call void @llvm.trap()
  unreachable

25:                                               ; preds = %23
  %26 = insertvalue { i8*, i32 } undef, i8* %21, 0
  %27 = insertvalue { i8*, i32 } %26, i32 %22, 1
  resume { i8*, i32 } %27

28:                                               ; preds = %19
  %29 = landingpad { i8*, i32 }
          catch i8* null
  %30 = extractvalue { i8*, i32 } %29, 0
  call void @__clang_call_terminate(i8* %30) #12
  unreachable

31:                                               ; preds = %17
  unreachable
}

; Function Attrs: noinline nounwind uwtable
define linkonce_odr void @_ZSt10_ConstructISt6vectorIxSaIxEEJEEvPT_DpOT0_(%"class.std::vector.0"* %0) #5 comdat {
  %2 = bitcast %"class.std::vector.0"* %0 to i8*
  %3 = bitcast i8* %2 to %"class.std::vector.0"*
  call void @_ZNSt6vectorIxSaIxEEC2Ev(%"class.std::vector.0"* %3) #3
  ret void
}

; Function Attrs: cold noreturn nounwind
declare void @llvm.trap() #7

; Function Attrs: noreturn
declare void @_ZSt20__throw_length_errorPKc(i8*) #8

; Function Attrs: noinline nounwind uwtable
define linkonce_odr dereferenceable(8) i64* @_ZSt3maxImERKT_S2_S2_(i64* dereferenceable(8) %0, i64* dereferenceable(8) %1) #5 comdat {
  %3 = load i64, i64* %0, align 8
  %4 = load i64, i64* %1, align 8
  %5 = icmp ult i64 %3, %4
  br i1 %5, label %6, label %7

6:                                                ; preds = %2
  br label %8

7:                                                ; preds = %2
  br label %8

8:                                                ; preds = %7, %6
  %.0 = phi i64* [ %1, %6 ], [ %0, %7 ]
  ret i64* %.0
}

; Function Attrs: noinline uwtable
define linkonce_odr %"class.std::vector.0"* @_ZNSt16allocator_traitsISaISt6vectorIxSaIxEEEE8allocateERS3_m(%"class.std::allocator"* dereferenceable(1) %0, i64 %1) #0 comdat align 2 {
  %3 = bitcast %"class.std::allocator"* %0 to %"class.__gnu_cxx::new_allocator"*
  %4 = call %"class.std::vector.0"* @_ZN9__gnu_cxx13new_allocatorISt6vectorIxSaIxEEE8allocateEmPKv(%"class.__gnu_cxx::new_allocator"* %3, i64 %1, i8* null)
  ret %"class.std::vector.0"* %4
}

; Function Attrs: noinline uwtable
define linkonce_odr %"class.std::vector.0"* @_ZN9__gnu_cxx13new_allocatorISt6vectorIxSaIxEEE8allocateEmPKv(%"class.__gnu_cxx::new_allocator"* %0, i64 %1, i8* %2) #0 comdat align 2 {
  %4 = call i64 @_ZNK9__gnu_cxx13new_allocatorISt6vectorIxSaIxEEE8max_sizeEv(%"class.__gnu_cxx::new_allocator"* %0) #3
  %5 = icmp ugt i64 %1, %4
  br i1 %5, label %6, label %7

6:                                                ; preds = %3
  call void @_ZSt17__throw_bad_allocv() #13
  unreachable

7:                                                ; preds = %3
  %8 = mul i64 %1, 24
  %9 = call i8* @_Znwm(i64 %8)
  %10 = bitcast i8* %9 to %"class.std::vector.0"*
  ret %"class.std::vector.0"* %10
}

; Function Attrs: noreturn
declare void @_ZSt17__throw_bad_allocv() #8

; Function Attrs: nobuiltin
declare noalias i8* @_Znwm(i64) #9

; Function Attrs: noinline uwtable
define linkonce_odr %"class.std::vector.0"* @_ZSt22__uninitialized_copy_aISt13move_iteratorIPSt6vectorIxSaIxEEES4_S3_ET0_T_S7_S6_RSaIT1_E(%"class.std::vector.0"* %0, %"class.std::vector.0"* %1, %"class.std::vector.0"* %2, %"class.std::allocator"* dereferenceable(1) %3) #0 comdat {
  %5 = alloca %"class.std::move_iterator", align 8
  %6 = alloca %"class.std::move_iterator", align 8
  %7 = alloca %"class.std::move_iterator", align 8
  %8 = alloca %"class.std::move_iterator", align 8
  %9 = getelementptr inbounds %"class.std::move_iterator", %"class.std::move_iterator"* %5, i32 0, i32 0
  store %"class.std::vector.0"* %0, %"class.std::vector.0"** %9, align 8
  %10 = getelementptr inbounds %"class.std::move_iterator", %"class.std::move_iterator"* %6, i32 0, i32 0
  store %"class.std::vector.0"* %1, %"class.std::vector.0"** %10, align 8
  %11 = bitcast %"class.std::move_iterator"* %7 to i8*
  %12 = bitcast %"class.std::move_iterator"* %5 to i8*
  call void @llvm.memcpy.p0i8.p0i8.i64(i8* align 8 %11, i8* align 8 %12, i64 8, i1 false)
  %13 = bitcast %"class.std::move_iterator"* %8 to i8*
  %14 = bitcast %"class.std::move_iterator"* %6 to i8*
  call void @llvm.memcpy.p0i8.p0i8.i64(i8* align 8 %13, i8* align 8 %14, i64 8, i1 false)
  %15 = getelementptr inbounds %"class.std::move_iterator", %"class.std::move_iterator"* %7, i32 0, i32 0
  %16 = load %"class.std::vector.0"*, %"class.std::vector.0"** %15, align 8
  %17 = getelementptr inbounds %"class.std::move_iterator", %"class.std::move_iterator"* %8, i32 0, i32 0
  %18 = load %"class.std::vector.0"*, %"class.std::vector.0"** %17, align 8
  %19 = call %"class.std::vector.0"* @_ZSt18uninitialized_copyISt13move_iteratorIPSt6vectorIxSaIxEEES4_ET0_T_S7_S6_(%"class.std::vector.0"* %16, %"class.std::vector.0"* %18, %"class.std::vector.0"* %2)
  ret %"class.std::vector.0"* %19
}

; Function Attrs: noinline uwtable
define linkonce_odr %"class.std::vector.0"* @_ZSt32__make_move_if_noexcept_iteratorISt6vectorIxSaIxEESt13move_iteratorIPS2_EET0_PT_(%"class.std::vector.0"* %0) #0 comdat {
  %2 = alloca %"class.std::move_iterator", align 8
  call void @_ZNSt13move_iteratorIPSt6vectorIxSaIxEEEC2ES3_(%"class.std::move_iterator"* %2, %"class.std::vector.0"* %0)
  %3 = getelementptr inbounds %"class.std::move_iterator", %"class.std::move_iterator"* %2, i32 0, i32 0
  %4 = load %"class.std::vector.0"*, %"class.std::vector.0"** %3, align 8
  ret %"class.std::vector.0"* %4
}

; Function Attrs: noinline uwtable
define linkonce_odr %"class.std::vector.0"* @_ZSt18uninitialized_copyISt13move_iteratorIPSt6vectorIxSaIxEEES4_ET0_T_S7_S6_(%"class.std::vector.0"* %0, %"class.std::vector.0"* %1, %"class.std::vector.0"* %2) #0 comdat {
  %4 = alloca %"class.std::move_iterator", align 8
  %5 = alloca %"class.std::move_iterator", align 8
  %6 = alloca %"class.std::move_iterator", align 8
  %7 = alloca %"class.std::move_iterator", align 8
  %8 = getelementptr inbounds %"class.std::move_iterator", %"class.std::move_iterator"* %4, i32 0, i32 0
  store %"class.std::vector.0"* %0, %"class.std::vector.0"** %8, align 8
  %9 = getelementptr inbounds %"class.std::move_iterator", %"class.std::move_iterator"* %5, i32 0, i32 0
  store %"class.std::vector.0"* %1, %"class.std::vector.0"** %9, align 8
  %10 = bitcast %"class.std::move_iterator"* %6 to i8*
  %11 = bitcast %"class.std::move_iterator"* %4 to i8*
  call void @llvm.memcpy.p0i8.p0i8.i64(i8* align 8 %10, i8* align 8 %11, i64 8, i1 false)
  %12 = bitcast %"class.std::move_iterator"* %7 to i8*
  %13 = bitcast %"class.std::move_iterator"* %5 to i8*
  call void @llvm.memcpy.p0i8.p0i8.i64(i8* align 8 %12, i8* align 8 %13, i64 8, i1 false)
  %14 = getelementptr inbounds %"class.std::move_iterator", %"class.std::move_iterator"* %6, i32 0, i32 0
  %15 = load %"class.std::vector.0"*, %"class.std::vector.0"** %14, align 8
  %16 = getelementptr inbounds %"class.std::move_iterator", %"class.std::move_iterator"* %7, i32 0, i32 0
  %17 = load %"class.std::vector.0"*, %"class.std::vector.0"** %16, align 8
  %18 = call %"class.std::vector.0"* @_ZNSt20__uninitialized_copyILb0EE13__uninit_copyISt13move_iteratorIPSt6vectorIxSaIxEEES6_EET0_T_S9_S8_(%"class.std::vector.0"* %15, %"class.std::vector.0"* %17, %"class.std::vector.0"* %2)
  ret %"class.std::vector.0"* %18
}

; Function Attrs: noinline uwtable
define linkonce_odr %"class.std::vector.0"* @_ZNSt20__uninitialized_copyILb0EE13__uninit_copyISt13move_iteratorIPSt6vectorIxSaIxEEES6_EET0_T_S9_S8_(%"class.std::vector.0"* %0, %"class.std::vector.0"* %1, %"class.std::vector.0"* %2) #0 comdat align 2 personality i8* bitcast (i32 (...)* @__gxx_personality_v0 to i8*) {
  %4 = alloca %"class.std::move_iterator", align 8
  %5 = alloca %"class.std::move_iterator", align 8
  %6 = getelementptr inbounds %"class.std::move_iterator", %"class.std::move_iterator"* %4, i32 0, i32 0
  store %"class.std::vector.0"* %0, %"class.std::vector.0"** %6, align 8
  %7 = getelementptr inbounds %"class.std::move_iterator", %"class.std::move_iterator"* %5, i32 0, i32 0
  store %"class.std::vector.0"* %1, %"class.std::vector.0"** %7, align 8
  br label %8

8:                                                ; preds = %18, %3
  %.0 = phi %"class.std::vector.0"* [ %2, %3 ], [ %19, %18 ]
  %9 = invoke zeroext i1 @_ZStneIPSt6vectorIxSaIxEEEbRKSt13move_iteratorIT_ES8_(%"class.std::move_iterator"* dereferenceable(8) %4, %"class.std::move_iterator"* dereferenceable(8) %5)
          to label %10 unwind label %20

10:                                               ; preds = %8
  br i1 %9, label %11, label %27

11:                                               ; preds = %10
  %12 = call %"class.std::vector.0"* @_ZSt11__addressofISt6vectorIxSaIxEEEPT_RS3_(%"class.std::vector.0"* dereferenceable(24) %.0) #3
  %13 = invoke dereferenceable(24) %"class.std::vector.0"* @_ZNKSt13move_iteratorIPSt6vectorIxSaIxEEEdeEv(%"class.std::move_iterator"* %4)
          to label %14 unwind label %20

14:                                               ; preds = %11
  invoke void @_ZSt10_ConstructISt6vectorIxSaIxEEJS2_EEvPT_DpOT0_(%"class.std::vector.0"* %12, %"class.std::vector.0"* dereferenceable(24) %13)
          to label %15 unwind label %20

15:                                               ; preds = %14
  br label %16

16:                                               ; preds = %15
  %17 = invoke dereferenceable(8) %"class.std::move_iterator"* @_ZNSt13move_iteratorIPSt6vectorIxSaIxEEEppEv(%"class.std::move_iterator"* %4)
          to label %18 unwind label %20

18:                                               ; preds = %16
  %19 = getelementptr inbounds %"class.std::vector.0", %"class.std::vector.0"* %.0, i32 1
  br label %8

20:                                               ; preds = %16, %14, %11, %8
  %21 = landingpad { i8*, i32 }
          catch i8* null
  %22 = extractvalue { i8*, i32 } %21, 0
  %23 = extractvalue { i8*, i32 } %21, 1
  br label %24

24:                                               ; preds = %20
  %25 = call i8* @__cxa_begin_catch(i8* %22) #3
  invoke void @_ZSt8_DestroyIPSt6vectorIxSaIxEEEvT_S4_(%"class.std::vector.0"* %2, %"class.std::vector.0"* %.0)
          to label %26 unwind label %28

26:                                               ; preds = %24
  invoke void @__cxa_rethrow() #13
          to label %40 unwind label %28

27:                                               ; preds = %10
  ret %"class.std::vector.0"* %.0

28:                                               ; preds = %26, %24
  %29 = landingpad { i8*, i32 }
          cleanup
  %30 = extractvalue { i8*, i32 } %29, 0
  %31 = extractvalue { i8*, i32 } %29, 1
  invoke void @__cxa_end_catch()
          to label %32 unwind label %37

32:                                               ; preds = %28
  br label %34

33:                                               ; No predecessors!
  call void @llvm.trap()
  unreachable

34:                                               ; preds = %32
  %35 = insertvalue { i8*, i32 } undef, i8* %30, 0
  %36 = insertvalue { i8*, i32 } %35, i32 %31, 1
  resume { i8*, i32 } %36

37:                                               ; preds = %28
  %38 = landingpad { i8*, i32 }
          catch i8* null
  %39 = extractvalue { i8*, i32 } %38, 0
  call void @__clang_call_terminate(i8* %39) #12
  unreachable

40:                                               ; preds = %26
  unreachable
}

; Function Attrs: noinline uwtable
define linkonce_odr zeroext i1 @_ZStneIPSt6vectorIxSaIxEEEbRKSt13move_iteratorIT_ES8_(%"class.std::move_iterator"* dereferenceable(8) %0, %"class.std::move_iterator"* dereferenceable(8) %1) #0 comdat {
  %3 = call zeroext i1 @_ZSteqIPSt6vectorIxSaIxEEEbRKSt13move_iteratorIT_ES8_(%"class.std::move_iterator"* dereferenceable(8) %0, %"class.std::move_iterator"* dereferenceable(8) %1)
  %4 = xor i1 %3, true
  ret i1 %4
}

; Function Attrs: noinline nounwind uwtable
define linkonce_odr void @_ZSt10_ConstructISt6vectorIxSaIxEEJS2_EEvPT_DpOT0_(%"class.std::vector.0"* %0, %"class.std::vector.0"* dereferenceable(24) %1) #5 comdat {
  %3 = bitcast %"class.std::vector.0"* %0 to i8*
  %4 = bitcast i8* %3 to %"class.std::vector.0"*
  %5 = call dereferenceable(24) %"class.std::vector.0"* @_ZSt7forwardISt6vectorIxSaIxEEEOT_RNSt16remove_referenceIS3_E4typeE(%"class.std::vector.0"* dereferenceable(24) %1) #3
  call void @_ZNSt6vectorIxSaIxEEC2EOS1_(%"class.std::vector.0"* %4, %"class.std::vector.0"* dereferenceable(24) %5) #3
  ret void
}

; Function Attrs: noinline nounwind uwtable
define linkonce_odr dereferenceable(24) %"class.std::vector.0"* @_ZNKSt13move_iteratorIPSt6vectorIxSaIxEEEdeEv(%"class.std::move_iterator"* %0) #5 comdat align 2 {
  %2 = getelementptr inbounds %"class.std::move_iterator", %"class.std::move_iterator"* %0, i32 0, i32 0
  %3 = load %"class.std::vector.0"*, %"class.std::vector.0"** %2, align 8
  ret %"class.std::vector.0"* %3
}

; Function Attrs: noinline nounwind uwtable
define linkonce_odr dereferenceable(8) %"class.std::move_iterator"* @_ZNSt13move_iteratorIPSt6vectorIxSaIxEEEppEv(%"class.std::move_iterator"* %0) #5 comdat align 2 {
  %2 = getelementptr inbounds %"class.std::move_iterator", %"class.std::move_iterator"* %0, i32 0, i32 0
  %3 = load %"class.std::vector.0"*, %"class.std::vector.0"** %2, align 8
  %4 = getelementptr inbounds %"class.std::vector.0", %"class.std::vector.0"* %3, i32 1
  store %"class.std::vector.0"* %4, %"class.std::vector.0"** %2, align 8
  ret %"class.std::move_iterator"* %0
}

; Function Attrs: noinline uwtable
define linkonce_odr zeroext i1 @_ZSteqIPSt6vectorIxSaIxEEEbRKSt13move_iteratorIT_ES8_(%"class.std::move_iterator"* dereferenceable(8) %0, %"class.std::move_iterator"* dereferenceable(8) %1) #0 comdat {
  %3 = call %"class.std::vector.0"* @_ZNKSt13move_iteratorIPSt6vectorIxSaIxEEE4baseEv(%"class.std::move_iterator"* %0)
  %4 = call %"class.std::vector.0"* @_ZNKSt13move_iteratorIPSt6vectorIxSaIxEEE4baseEv(%"class.std::move_iterator"* %1)
  %5 = icmp eq %"class.std::vector.0"* %3, %4
  ret i1 %5
}

; Function Attrs: noinline nounwind uwtable
define linkonce_odr %"class.std::vector.0"* @_ZNKSt13move_iteratorIPSt6vectorIxSaIxEEE4baseEv(%"class.std::move_iterator"* %0) #5 comdat align 2 {
  %2 = getelementptr inbounds %"class.std::move_iterator", %"class.std::move_iterator"* %0, i32 0, i32 0
  %3 = load %"class.std::vector.0"*, %"class.std::vector.0"** %2, align 8
  ret %"class.std::vector.0"* %3
}

; Function Attrs: noinline nounwind uwtable
define linkonce_odr dereferenceable(24) %"class.std::vector.0"* @_ZSt7forwardISt6vectorIxSaIxEEEOT_RNSt16remove_referenceIS3_E4typeE(%"class.std::vector.0"* dereferenceable(24) %0) #5 comdat {
  ret %"class.std::vector.0"* %0
}

; Function Attrs: noinline nounwind uwtable
define linkonce_odr void @_ZNSt6vectorIxSaIxEEC2EOS1_(%"class.std::vector.0"* %0, %"class.std::vector.0"* dereferenceable(24) %1) unnamed_addr #5 comdat align 2 {
  %3 = bitcast %"class.std::vector.0"* %0 to %"struct.std::_Vector_base.1"*
  %4 = call dereferenceable(24) %"class.std::vector.0"* @_ZSt4moveIRSt6vectorIxSaIxEEEONSt16remove_referenceIT_E4typeEOS5_(%"class.std::vector.0"* dereferenceable(24) %1) #3
  %5 = bitcast %"class.std::vector.0"* %4 to %"struct.std::_Vector_base.1"*
  call void @_ZNSt12_Vector_baseIxSaIxEEC2EOS1_(%"struct.std::_Vector_base.1"* %3, %"struct.std::_Vector_base.1"* dereferenceable(24) %5) #3
  ret void
}

; Function Attrs: noinline nounwind uwtable
define linkonce_odr dereferenceable(24) %"class.std::vector.0"* @_ZSt4moveIRSt6vectorIxSaIxEEEONSt16remove_referenceIT_E4typeEOS5_(%"class.std::vector.0"* dereferenceable(24) %0) #5 comdat {
  ret %"class.std::vector.0"* %0
}

; Function Attrs: noinline nounwind uwtable
define linkonce_odr void @_ZNSt12_Vector_baseIxSaIxEEC2EOS1_(%"struct.std::_Vector_base.1"* %0, %"struct.std::_Vector_base.1"* dereferenceable(24) %1) unnamed_addr #5 comdat align 2 {
  %3 = getelementptr inbounds %"struct.std::_Vector_base.1", %"struct.std::_Vector_base.1"* %0, i32 0, i32 0
  %4 = call dereferenceable(1) %"class.std::allocator.2"* @_ZNSt12_Vector_baseIxSaIxEE19_M_get_Tp_allocatorEv(%"struct.std::_Vector_base.1"* %1) #3
  %5 = call dereferenceable(1) %"class.std::allocator.2"* @_ZSt4moveIRSaIxEEONSt16remove_referenceIT_E4typeEOS3_(%"class.std::allocator.2"* dereferenceable(1) %4) #3
  call void @_ZNSt12_Vector_baseIxSaIxEE12_Vector_implC2EOS0_(%"struct.std::_Vector_base<long long, std::allocator<long long> >::_Vector_impl"* %3, %"class.std::allocator.2"* dereferenceable(1) %5) #3
  %6 = getelementptr inbounds %"struct.std::_Vector_base.1", %"struct.std::_Vector_base.1"* %0, i32 0, i32 0
  %7 = getelementptr inbounds %"struct.std::_Vector_base.1", %"struct.std::_Vector_base.1"* %1, i32 0, i32 0
  call void @_ZNSt12_Vector_baseIxSaIxEE12_Vector_impl12_M_swap_dataERS2_(%"struct.std::_Vector_base<long long, std::allocator<long long> >::_Vector_impl"* %6, %"struct.std::_Vector_base<long long, std::allocator<long long> >::_Vector_impl"* dereferenceable(24) %7) #3
  ret void
}

; Function Attrs: noinline nounwind uwtable
define linkonce_odr dereferenceable(1) %"class.std::allocator.2"* @_ZSt4moveIRSaIxEEONSt16remove_referenceIT_E4typeEOS3_(%"class.std::allocator.2"* dereferenceable(1) %0) #5 comdat {
  ret %"class.std::allocator.2"* %0
}

; Function Attrs: noinline nounwind uwtable
define linkonce_odr void @_ZNSt12_Vector_baseIxSaIxEE12_Vector_implC2EOS0_(%"struct.std::_Vector_base<long long, std::allocator<long long> >::_Vector_impl"* %0, %"class.std::allocator.2"* dereferenceable(1) %1) unnamed_addr #5 comdat align 2 {
  %3 = bitcast %"struct.std::_Vector_base<long long, std::allocator<long long> >::_Vector_impl"* %0 to %"class.std::allocator.2"*
  %4 = call dereferenceable(1) %"class.std::allocator.2"* @_ZSt4moveIRSaIxEEONSt16remove_referenceIT_E4typeEOS3_(%"class.std::allocator.2"* dereferenceable(1) %1) #3
  call void @_ZNSaIxEC2ERKS_(%"class.std::allocator.2"* %3, %"class.std::allocator.2"* dereferenceable(1) %4) #3
  %5 = getelementptr inbounds %"struct.std::_Vector_base<long long, std::allocator<long long> >::_Vector_impl", %"struct.std::_Vector_base<long long, std::allocator<long long> >::_Vector_impl"* %0, i32 0, i32 0
  store i64* null, i64** %5, align 8
  %6 = getelementptr inbounds %"struct.std::_Vector_base<long long, std::allocator<long long> >::_Vector_impl", %"struct.std::_Vector_base<long long, std::allocator<long long> >::_Vector_impl"* %0, i32 0, i32 1
  store i64* null, i64** %6, align 8
  %7 = getelementptr inbounds %"struct.std::_Vector_base<long long, std::allocator<long long> >::_Vector_impl", %"struct.std::_Vector_base<long long, std::allocator<long long> >::_Vector_impl"* %0, i32 0, i32 2
  store i64* null, i64** %7, align 8
  ret void
}

; Function Attrs: noinline nounwind uwtable
define linkonce_odr void @_ZNSt12_Vector_baseIxSaIxEE12_Vector_impl12_M_swap_dataERS2_(%"struct.std::_Vector_base<long long, std::allocator<long long> >::_Vector_impl"* %0, %"struct.std::_Vector_base<long long, std::allocator<long long> >::_Vector_impl"* dereferenceable(24) %1) #5 comdat align 2 {
  %3 = getelementptr inbounds %"struct.std::_Vector_base<long long, std::allocator<long long> >::_Vector_impl", %"struct.std::_Vector_base<long long, std::allocator<long long> >::_Vector_impl"* %0, i32 0, i32 0
  %4 = getelementptr inbounds %"struct.std::_Vector_base<long long, std::allocator<long long> >::_Vector_impl", %"struct.std::_Vector_base<long long, std::allocator<long long> >::_Vector_impl"* %1, i32 0, i32 0
  call void @_ZSt4swapIPxENSt9enable_ifIXsr6__and_ISt6__not_ISt15__is_tuple_likeIT_EESt21is_move_constructibleIS4_ESt18is_move_assignableIS4_EEE5valueEvE4typeERS4_SD_(i64** dereferenceable(8) %3, i64** dereferenceable(8) %4) #3
  %5 = getelementptr inbounds %"struct.std::_Vector_base<long long, std::allocator<long long> >::_Vector_impl", %"struct.std::_Vector_base<long long, std::allocator<long long> >::_Vector_impl"* %0, i32 0, i32 1
  %6 = getelementptr inbounds %"struct.std::_Vector_base<long long, std::allocator<long long> >::_Vector_impl", %"struct.std::_Vector_base<long long, std::allocator<long long> >::_Vector_impl"* %1, i32 0, i32 1
  call void @_ZSt4swapIPxENSt9enable_ifIXsr6__and_ISt6__not_ISt15__is_tuple_likeIT_EESt21is_move_constructibleIS4_ESt18is_move_assignableIS4_EEE5valueEvE4typeERS4_SD_(i64** dereferenceable(8) %5, i64** dereferenceable(8) %6) #3
  %7 = getelementptr inbounds %"struct.std::_Vector_base<long long, std::allocator<long long> >::_Vector_impl", %"struct.std::_Vector_base<long long, std::allocator<long long> >::_Vector_impl"* %0, i32 0, i32 2
  %8 = getelementptr inbounds %"struct.std::_Vector_base<long long, std::allocator<long long> >::_Vector_impl", %"struct.std::_Vector_base<long long, std::allocator<long long> >::_Vector_impl"* %1, i32 0, i32 2
  call void @_ZSt4swapIPxENSt9enable_ifIXsr6__and_ISt6__not_ISt15__is_tuple_likeIT_EESt21is_move_constructibleIS4_ESt18is_move_assignableIS4_EEE5valueEvE4typeERS4_SD_(i64** dereferenceable(8) %7, i64** dereferenceable(8) %8) #3
  ret void
}

; Function Attrs: noinline nounwind uwtable
define linkonce_odr void @_ZNSaIxEC2ERKS_(%"class.std::allocator.2"* %0, %"class.std::allocator.2"* dereferenceable(1) %1) unnamed_addr #5 comdat align 2 {
  %3 = bitcast %"class.std::allocator.2"* %0 to %"class.__gnu_cxx::new_allocator.3"*
  %4 = bitcast %"class.std::allocator.2"* %1 to %"class.__gnu_cxx::new_allocator.3"*
  call void @_ZN9__gnu_cxx13new_allocatorIxEC2ERKS1_(%"class.__gnu_cxx::new_allocator.3"* %3, %"class.__gnu_cxx::new_allocator.3"* dereferenceable(1) %4) #3
  ret void
}

; Function Attrs: noinline nounwind uwtable
define linkonce_odr void @_ZN9__gnu_cxx13new_allocatorIxEC2ERKS1_(%"class.__gnu_cxx::new_allocator.3"* %0, %"class.__gnu_cxx::new_allocator.3"* dereferenceable(1) %1) unnamed_addr #5 comdat align 2 {
  ret void
}

; Function Attrs: noinline nounwind uwtable
define linkonce_odr void @_ZSt4swapIPxENSt9enable_ifIXsr6__and_ISt6__not_ISt15__is_tuple_likeIT_EESt21is_move_constructibleIS4_ESt18is_move_assignableIS4_EEE5valueEvE4typeERS4_SD_(i64** dereferenceable(8) %0, i64** dereferenceable(8) %1) #5 comdat {
  %3 = alloca i64*, align 8
  %4 = call dereferenceable(8) i64** @_ZSt4moveIRPxEONSt16remove_referenceIT_E4typeEOS3_(i64** dereferenceable(8) %0) #3
  %5 = load i64*, i64** %4, align 8
  store i64* %5, i64** %3, align 8
  %6 = call dereferenceable(8) i64** @_ZSt4moveIRPxEONSt16remove_referenceIT_E4typeEOS3_(i64** dereferenceable(8) %1) #3
  %7 = load i64*, i64** %6, align 8
  store i64* %7, i64** %0, align 8
  %8 = call dereferenceable(8) i64** @_ZSt4moveIRPxEONSt16remove_referenceIT_E4typeEOS3_(i64** dereferenceable(8) %3) #3
  %9 = load i64*, i64** %8, align 8
  store i64* %9, i64** %1, align 8
  ret void
}

; Function Attrs: noinline nounwind uwtable
define linkonce_odr dereferenceable(8) i64** @_ZSt4moveIRPxEONSt16remove_referenceIT_E4typeEOS3_(i64** dereferenceable(8) %0) #5 comdat {
  ret i64** %0
}

; Function Attrs: noinline nounwind uwtable
define linkonce_odr void @_ZNSt13move_iteratorIPSt6vectorIxSaIxEEEC2ES3_(%"class.std::move_iterator"* %0, %"class.std::vector.0"* %1) unnamed_addr #5 comdat align 2 {
  %3 = getelementptr inbounds %"class.std::move_iterator", %"class.std::move_iterator"* %0, i32 0, i32 0
  store %"class.std::vector.0"* %1, %"class.std::vector.0"** %3, align 8
  ret void
}

; Function Attrs: noinline uwtable
define linkonce_odr void @_ZNSt16allocator_traitsISaISt6vectorIxSaIxEEEE10deallocateERS3_PS2_m(%"class.std::allocator"* dereferenceable(1) %0, %"class.std::vector.0"* %1, i64 %2) #0 comdat align 2 {
  %4 = bitcast %"class.std::allocator"* %0 to %"class.__gnu_cxx::new_allocator"*
  call void @_ZN9__gnu_cxx13new_allocatorISt6vectorIxSaIxEEE10deallocateEPS3_m(%"class.__gnu_cxx::new_allocator"* %4, %"class.std::vector.0"* %1, i64 %2)
  ret void
}

; Function Attrs: noinline nounwind uwtable
define linkonce_odr void @_ZN9__gnu_cxx13new_allocatorISt6vectorIxSaIxEEE10deallocateEPS3_m(%"class.__gnu_cxx::new_allocator"* %0, %"class.std::vector.0"* %1, i64 %2) #5 comdat align 2 {
  %4 = bitcast %"class.std::vector.0"* %1 to i8*
  call void @_ZdlPv(i8* %4) #3
  ret void
}

; Function Attrs: nobuiltin nounwind
declare void @_ZdlPv(i8*) #10

; Function Attrs: noinline nounwind uwtable
define linkonce_odr i64 @_ZNKSt6vectorIxSaIxEE4sizeEv(%"class.std::vector.0"* %0) #5 comdat align 2 {
  %2 = bitcast %"class.std::vector.0"* %0 to %"struct.std::_Vector_base.1"*
  %3 = getelementptr inbounds %"struct.std::_Vector_base.1", %"struct.std::_Vector_base.1"* %2, i32 0, i32 0
  %4 = getelementptr inbounds %"struct.std::_Vector_base<long long, std::allocator<long long> >::_Vector_impl", %"struct.std::_Vector_base<long long, std::allocator<long long> >::_Vector_impl"* %3, i32 0, i32 1
  %5 = load i64*, i64** %4, align 8
  %6 = bitcast %"class.std::vector.0"* %0 to %"struct.std::_Vector_base.1"*
  %7 = getelementptr inbounds %"struct.std::_Vector_base.1", %"struct.std::_Vector_base.1"* %6, i32 0, i32 0
  %8 = getelementptr inbounds %"struct.std::_Vector_base<long long, std::allocator<long long> >::_Vector_impl", %"struct.std::_Vector_base<long long, std::allocator<long long> >::_Vector_impl"* %7, i32 0, i32 0
  %9 = load i64*, i64** %8, align 8
  %10 = ptrtoint i64* %5 to i64
  %11 = ptrtoint i64* %9 to i64
  %12 = sub i64 %10, %11
  %13 = sdiv exact i64 %12, 8
  ret i64 %13
}

; Function Attrs: noinline uwtable
define linkonce_odr void @_ZNSt6vectorIxSaIxEE14_M_fill_insertEN9__gnu_cxx17__normal_iteratorIPxS1_EEmRKx(%"class.std::vector.0"* %0, i64* %1, i64 %2, i64* dereferenceable(8) %3) #0 comdat align 2 personality i8* bitcast (i32 (...)* @__gxx_personality_v0 to i8*) {
  %5 = alloca %"class.__gnu_cxx::__normal_iterator", align 8
  %6 = alloca %"struct.std::vector<long long, std::allocator<long long> >::_Temporary_value", align 8
  %7 = alloca %"class.__gnu_cxx::__normal_iterator", align 8
  %8 = alloca %"class.__gnu_cxx::__normal_iterator", align 8
  %9 = getelementptr inbounds %"class.__gnu_cxx::__normal_iterator", %"class.__gnu_cxx::__normal_iterator"* %5, i32 0, i32 0
  store i64* %1, i64** %9, align 8
  %10 = icmp ne i64 %2, 0
  br i1 %10, label %11, label %206

11:                                               ; preds = %4
  %12 = bitcast %"class.std::vector.0"* %0 to %"struct.std::_Vector_base.1"*
  %13 = getelementptr inbounds %"struct.std::_Vector_base.1", %"struct.std::_Vector_base.1"* %12, i32 0, i32 0
  %14 = getelementptr inbounds %"struct.std::_Vector_base<long long, std::allocator<long long> >::_Vector_impl", %"struct.std::_Vector_base<long long, std::allocator<long long> >::_Vector_impl"* %13, i32 0, i32 2
  %15 = load i64*, i64** %14, align 8
  %16 = bitcast %"class.std::vector.0"* %0 to %"struct.std::_Vector_base.1"*
  %17 = getelementptr inbounds %"struct.std::_Vector_base.1", %"struct.std::_Vector_base.1"* %16, i32 0, i32 0
  %18 = getelementptr inbounds %"struct.std::_Vector_base<long long, std::allocator<long long> >::_Vector_impl", %"struct.std::_Vector_base<long long, std::allocator<long long> >::_Vector_impl"* %17, i32 0, i32 1
  %19 = load i64*, i64** %18, align 8
  %20 = ptrtoint i64* %15 to i64
  %21 = ptrtoint i64* %19 to i64
  %22 = sub i64 %20, %21
  %23 = sdiv exact i64 %22, 8
  %24 = icmp uge i64 %23, %2
  br i1 %24, label %25, label %108

25:                                               ; preds = %11
  call void @_ZNSt6vectorIxSaIxEE16_Temporary_valueC2IJRKxEEEPS1_DpOT_(%"struct.std::vector<long long, std::allocator<long long> >::_Temporary_value"* %6, %"class.std::vector.0"* %0, i64* dereferenceable(8) %3)
  %26 = invoke dereferenceable(8) i64* @_ZNSt6vectorIxSaIxEE16_Temporary_value6_M_valEv(%"struct.std::vector<long long, std::allocator<long long> >::_Temporary_value"* %6)
          to label %27 unwind label %72

27:                                               ; preds = %25
  %28 = call i64* @_ZNSt6vectorIxSaIxEE3endEv(%"class.std::vector.0"* %0) #3
  %29 = getelementptr inbounds %"class.__gnu_cxx::__normal_iterator", %"class.__gnu_cxx::__normal_iterator"* %7, i32 0, i32 0
  store i64* %28, i64** %29, align 8
  %30 = call i64 @_ZN9__gnu_cxxmiIPxSt6vectorIxSaIxEEEENS_17__normal_iteratorIT_T0_E15difference_typeERKS8_SB_(%"class.__gnu_cxx::__normal_iterator"* dereferenceable(8) %7, %"class.__gnu_cxx::__normal_iterator"* dereferenceable(8) %5) #3
  %31 = bitcast %"class.std::vector.0"* %0 to %"struct.std::_Vector_base.1"*
  %32 = getelementptr inbounds %"struct.std::_Vector_base.1", %"struct.std::_Vector_base.1"* %31, i32 0, i32 0
  %33 = getelementptr inbounds %"struct.std::_Vector_base<long long, std::allocator<long long> >::_Vector_impl", %"struct.std::_Vector_base<long long, std::allocator<long long> >::_Vector_impl"* %32, i32 0, i32 1
  %34 = load i64*, i64** %33, align 8
  %35 = icmp ugt i64 %30, %2
  br i1 %35, label %36, label %76

36:                                               ; preds = %27
  %37 = bitcast %"class.std::vector.0"* %0 to %"struct.std::_Vector_base.1"*
  %38 = getelementptr inbounds %"struct.std::_Vector_base.1", %"struct.std::_Vector_base.1"* %37, i32 0, i32 0
  %39 = getelementptr inbounds %"struct.std::_Vector_base<long long, std::allocator<long long> >::_Vector_impl", %"struct.std::_Vector_base<long long, std::allocator<long long> >::_Vector_impl"* %38, i32 0, i32 1
  %40 = load i64*, i64** %39, align 8
  %41 = sub i64 0, %2
  %42 = getelementptr inbounds i64, i64* %40, i64 %41
  %43 = bitcast %"class.std::vector.0"* %0 to %"struct.std::_Vector_base.1"*
  %44 = getelementptr inbounds %"struct.std::_Vector_base.1", %"struct.std::_Vector_base.1"* %43, i32 0, i32 0
  %45 = getelementptr inbounds %"struct.std::_Vector_base<long long, std::allocator<long long> >::_Vector_impl", %"struct.std::_Vector_base<long long, std::allocator<long long> >::_Vector_impl"* %44, i32 0, i32 1
  %46 = load i64*, i64** %45, align 8
  %47 = bitcast %"class.std::vector.0"* %0 to %"struct.std::_Vector_base.1"*
  %48 = getelementptr inbounds %"struct.std::_Vector_base.1", %"struct.std::_Vector_base.1"* %47, i32 0, i32 0
  %49 = getelementptr inbounds %"struct.std::_Vector_base<long long, std::allocator<long long> >::_Vector_impl", %"struct.std::_Vector_base<long long, std::allocator<long long> >::_Vector_impl"* %48, i32 0, i32 1
  %50 = load i64*, i64** %49, align 8
  %51 = bitcast %"class.std::vector.0"* %0 to %"struct.std::_Vector_base.1"*
  %52 = call dereferenceable(1) %"class.std::allocator.2"* @_ZNSt12_Vector_baseIxSaIxEE19_M_get_Tp_allocatorEv(%"struct.std::_Vector_base.1"* %51) #3
  %53 = invoke i64* @_ZSt22__uninitialized_move_aIPxS0_SaIxEET0_T_S3_S2_RT1_(i64* %42, i64* %46, i64* %50, %"class.std::allocator.2"* dereferenceable(1) %52)
          to label %54 unwind label %72

54:                                               ; preds = %36
  %55 = bitcast %"class.std::vector.0"* %0 to %"struct.std::_Vector_base.1"*
  %56 = getelementptr inbounds %"struct.std::_Vector_base.1", %"struct.std::_Vector_base.1"* %55, i32 0, i32 0
  %57 = getelementptr inbounds %"struct.std::_Vector_base<long long, std::allocator<long long> >::_Vector_impl", %"struct.std::_Vector_base<long long, std::allocator<long long> >::_Vector_impl"* %56, i32 0, i32 1
  %58 = load i64*, i64** %57, align 8
  %59 = getelementptr inbounds i64, i64* %58, i64 %2
  store i64* %59, i64** %57, align 8
  %60 = call dereferenceable(8) i64** @_ZNK9__gnu_cxx17__normal_iteratorIPxSt6vectorIxSaIxEEE4baseEv(%"class.__gnu_cxx::__normal_iterator"* %5) #3
  %61 = load i64*, i64** %60, align 8
  %62 = sub i64 0, %2
  %63 = getelementptr inbounds i64, i64* %34, i64 %62
  %64 = invoke i64* @_ZSt13move_backwardIPxS0_ET0_T_S2_S1_(i64* %61, i64* %63, i64* %34)
          to label %65 unwind label %72

65:                                               ; preds = %54
  %66 = call dereferenceable(8) i64** @_ZNK9__gnu_cxx17__normal_iteratorIPxSt6vectorIxSaIxEEE4baseEv(%"class.__gnu_cxx::__normal_iterator"* %5) #3
  %67 = load i64*, i64** %66, align 8
  %68 = call dereferenceable(8) i64** @_ZNK9__gnu_cxx17__normal_iteratorIPxSt6vectorIxSaIxEEE4baseEv(%"class.__gnu_cxx::__normal_iterator"* %5) #3
  %69 = load i64*, i64** %68, align 8
  %70 = getelementptr inbounds i64, i64* %69, i64 %2
  invoke void @_ZSt4fillIPxxEvT_S1_RKT0_(i64* %67, i64* %70, i64* dereferenceable(8) %26)
          to label %71 unwind label %72

71:                                               ; preds = %65
  br label %107

72:                                               ; preds = %98, %85, %76, %65, %54, %36, %25
  %73 = landingpad { i8*, i32 }
          cleanup
  %74 = extractvalue { i8*, i32 } %73, 0
  %75 = extractvalue { i8*, i32 } %73, 1
  call void @_ZNSt6vectorIxSaIxEE16_Temporary_valueD2Ev(%"struct.std::vector<long long, std::allocator<long long> >::_Temporary_value"* %6) #3
  br label %207

76:                                               ; preds = %27
  %77 = bitcast %"class.std::vector.0"* %0 to %"struct.std::_Vector_base.1"*
  %78 = getelementptr inbounds %"struct.std::_Vector_base.1", %"struct.std::_Vector_base.1"* %77, i32 0, i32 0
  %79 = getelementptr inbounds %"struct.std::_Vector_base<long long, std::allocator<long long> >::_Vector_impl", %"struct.std::_Vector_base<long long, std::allocator<long long> >::_Vector_impl"* %78, i32 0, i32 1
  %80 = load i64*, i64** %79, align 8
  %81 = sub i64 %2, %30
  %82 = bitcast %"class.std::vector.0"* %0 to %"struct.std::_Vector_base.1"*
  %83 = call dereferenceable(1) %"class.std::allocator.2"* @_ZNSt12_Vector_baseIxSaIxEE19_M_get_Tp_allocatorEv(%"struct.std::_Vector_base.1"* %82) #3
  %84 = invoke i64* @_ZSt24__uninitialized_fill_n_aIPxmxxET_S1_T0_RKT1_RSaIT2_E(i64* %80, i64 %81, i64* dereferenceable(8) %26, %"class.std::allocator.2"* dereferenceable(1) %83)
          to label %85 unwind label %72

85:                                               ; preds = %76
  %86 = bitcast %"class.std::vector.0"* %0 to %"struct.std::_Vector_base.1"*
  %87 = getelementptr inbounds %"struct.std::_Vector_base.1", %"struct.std::_Vector_base.1"* %86, i32 0, i32 0
  %88 = getelementptr inbounds %"struct.std::_Vector_base<long long, std::allocator<long long> >::_Vector_impl", %"struct.std::_Vector_base<long long, std::allocator<long long> >::_Vector_impl"* %87, i32 0, i32 1
  store i64* %84, i64** %88, align 8
  %89 = call dereferenceable(8) i64** @_ZNK9__gnu_cxx17__normal_iteratorIPxSt6vectorIxSaIxEEE4baseEv(%"class.__gnu_cxx::__normal_iterator"* %5) #3
  %90 = load i64*, i64** %89, align 8
  %91 = bitcast %"class.std::vector.0"* %0 to %"struct.std::_Vector_base.1"*
  %92 = getelementptr inbounds %"struct.std::_Vector_base.1", %"struct.std::_Vector_base.1"* %91, i32 0, i32 0
  %93 = getelementptr inbounds %"struct.std::_Vector_base<long long, std::allocator<long long> >::_Vector_impl", %"struct.std::_Vector_base<long long, std::allocator<long long> >::_Vector_impl"* %92, i32 0, i32 1
  %94 = load i64*, i64** %93, align 8
  %95 = bitcast %"class.std::vector.0"* %0 to %"struct.std::_Vector_base.1"*
  %96 = call dereferenceable(1) %"class.std::allocator.2"* @_ZNSt12_Vector_baseIxSaIxEE19_M_get_Tp_allocatorEv(%"struct.std::_Vector_base.1"* %95) #3
  %97 = invoke i64* @_ZSt22__uninitialized_move_aIPxS0_SaIxEET0_T_S3_S2_RT1_(i64* %90, i64* %34, i64* %94, %"class.std::allocator.2"* dereferenceable(1) %96)
          to label %98 unwind label %72

98:                                               ; preds = %85
  %99 = bitcast %"class.std::vector.0"* %0 to %"struct.std::_Vector_base.1"*
  %100 = getelementptr inbounds %"struct.std::_Vector_base.1", %"struct.std::_Vector_base.1"* %99, i32 0, i32 0
  %101 = getelementptr inbounds %"struct.std::_Vector_base<long long, std::allocator<long long> >::_Vector_impl", %"struct.std::_Vector_base<long long, std::allocator<long long> >::_Vector_impl"* %100, i32 0, i32 1
  %102 = load i64*, i64** %101, align 8
  %103 = getelementptr inbounds i64, i64* %102, i64 %30
  store i64* %103, i64** %101, align 8
  %104 = call dereferenceable(8) i64** @_ZNK9__gnu_cxx17__normal_iteratorIPxSt6vectorIxSaIxEEE4baseEv(%"class.__gnu_cxx::__normal_iterator"* %5) #3
  %105 = load i64*, i64** %104, align 8
  invoke void @_ZSt4fillIPxxEvT_S1_RKT0_(i64* %105, i64* %34, i64* dereferenceable(8) %26)
          to label %106 unwind label %72

106:                                              ; preds = %98
  br label %107

107:                                              ; preds = %106, %71
  call void @_ZNSt6vectorIxSaIxEE16_Temporary_valueD2Ev(%"struct.std::vector<long long, std::allocator<long long> >::_Temporary_value"* %6) #3
  br label %205

108:                                              ; preds = %11
  %109 = call i64 @_ZNKSt6vectorIxSaIxEE12_M_check_lenEmPKc(%"class.std::vector.0"* %0, i64 %2, i8* getelementptr inbounds ([23 x i8], [23 x i8]* @.str.1, i32 0, i32 0))
  %110 = call i64* @_ZNSt6vectorIxSaIxEE5beginEv(%"class.std::vector.0"* %0) #3
  %111 = getelementptr inbounds %"class.__gnu_cxx::__normal_iterator", %"class.__gnu_cxx::__normal_iterator"* %8, i32 0, i32 0
  store i64* %110, i64** %111, align 8
  %112 = call i64 @_ZN9__gnu_cxxmiIPxSt6vectorIxSaIxEEEENS_17__normal_iteratorIT_T0_E15difference_typeERKS8_SB_(%"class.__gnu_cxx::__normal_iterator"* dereferenceable(8) %5, %"class.__gnu_cxx::__normal_iterator"* dereferenceable(8) %8) #3
  %113 = bitcast %"class.std::vector.0"* %0 to %"struct.std::_Vector_base.1"*
  %114 = call i64* @_ZNSt12_Vector_baseIxSaIxEE11_M_allocateEm(%"struct.std::_Vector_base.1"* %113, i64 %109)
  %115 = getelementptr inbounds i64, i64* %114, i64 %112
  %116 = bitcast %"class.std::vector.0"* %0 to %"struct.std::_Vector_base.1"*
  %117 = call dereferenceable(1) %"class.std::allocator.2"* @_ZNSt12_Vector_baseIxSaIxEE19_M_get_Tp_allocatorEv(%"struct.std::_Vector_base.1"* %116) #3
  %118 = invoke i64* @_ZSt24__uninitialized_fill_n_aIPxmxxET_S1_T0_RKT1_RSaIT2_E(i64* %115, i64 %2, i64* dereferenceable(8) %3, %"class.std::allocator.2"* dereferenceable(1) %117)
          to label %119 unwind label %141

119:                                              ; preds = %108
  %120 = bitcast %"class.std::vector.0"* %0 to %"struct.std::_Vector_base.1"*
  %121 = getelementptr inbounds %"struct.std::_Vector_base.1", %"struct.std::_Vector_base.1"* %120, i32 0, i32 0
  %122 = getelementptr inbounds %"struct.std::_Vector_base<long long, std::allocator<long long> >::_Vector_impl", %"struct.std::_Vector_base<long long, std::allocator<long long> >::_Vector_impl"* %121, i32 0, i32 0
  %123 = load i64*, i64** %122, align 8
  %124 = call dereferenceable(8) i64** @_ZNK9__gnu_cxx17__normal_iteratorIPxSt6vectorIxSaIxEEE4baseEv(%"class.__gnu_cxx::__normal_iterator"* %5) #3
  %125 = load i64*, i64** %124, align 8
  %126 = bitcast %"class.std::vector.0"* %0 to %"struct.std::_Vector_base.1"*
  %127 = call dereferenceable(1) %"class.std::allocator.2"* @_ZNSt12_Vector_baseIxSaIxEE19_M_get_Tp_allocatorEv(%"struct.std::_Vector_base.1"* %126) #3
  %128 = invoke i64* @_ZSt34__uninitialized_move_if_noexcept_aIPxS0_SaIxEET0_T_S3_S2_RT1_(i64* %123, i64* %125, i64* %114, %"class.std::allocator.2"* dereferenceable(1) %127)
          to label %129 unwind label %141

129:                                              ; preds = %119
  %130 = getelementptr inbounds i64, i64* %128, i64 %2
  %131 = call dereferenceable(8) i64** @_ZNK9__gnu_cxx17__normal_iteratorIPxSt6vectorIxSaIxEEE4baseEv(%"class.__gnu_cxx::__normal_iterator"* %5) #3
  %132 = load i64*, i64** %131, align 8
  %133 = bitcast %"class.std::vector.0"* %0 to %"struct.std::_Vector_base.1"*
  %134 = getelementptr inbounds %"struct.std::_Vector_base.1", %"struct.std::_Vector_base.1"* %133, i32 0, i32 0
  %135 = getelementptr inbounds %"struct.std::_Vector_base<long long, std::allocator<long long> >::_Vector_impl", %"struct.std::_Vector_base<long long, std::allocator<long long> >::_Vector_impl"* %134, i32 0, i32 1
  %136 = load i64*, i64** %135, align 8
  %137 = bitcast %"class.std::vector.0"* %0 to %"struct.std::_Vector_base.1"*
  %138 = call dereferenceable(1) %"class.std::allocator.2"* @_ZNSt12_Vector_baseIxSaIxEE19_M_get_Tp_allocatorEv(%"struct.std::_Vector_base.1"* %137) #3
  %139 = invoke i64* @_ZSt34__uninitialized_move_if_noexcept_aIPxS0_SaIxEET0_T_S3_S2_RT1_(i64* %132, i64* %136, i64* %130, %"class.std::allocator.2"* dereferenceable(1) %138)
          to label %140 unwind label %141

140:                                              ; preds = %129
  br label %167

141:                                              ; preds = %129, %119, %108
  %.0 = phi i64* [ %130, %129 ], [ null, %119 ], [ %114, %108 ]
  %142 = landingpad { i8*, i32 }
          catch i8* null
  %143 = extractvalue { i8*, i32 } %142, 0
  %144 = extractvalue { i8*, i32 } %142, 1
  br label %145

145:                                              ; preds = %141
  %146 = call i8* @__cxa_begin_catch(i8* %143) #3
  %147 = icmp ne i64* %.0, null
  br i1 %147, label %159, label %148

148:                                              ; preds = %145
  %149 = getelementptr inbounds i64, i64* %114, i64 %112
  %150 = getelementptr inbounds i64, i64* %114, i64 %112
  %151 = getelementptr inbounds i64, i64* %150, i64 %2
  %152 = bitcast %"class.std::vector.0"* %0 to %"struct.std::_Vector_base.1"*
  %153 = call dereferenceable(1) %"class.std::allocator.2"* @_ZNSt12_Vector_baseIxSaIxEE19_M_get_Tp_allocatorEv(%"struct.std::_Vector_base.1"* %152) #3
  invoke void @_ZSt8_DestroyIPxxEvT_S1_RSaIT0_E(i64* %149, i64* %151, %"class.std::allocator.2"* dereferenceable(1) %153)
          to label %154 unwind label %155

154:                                              ; preds = %148
  br label %163

155:                                              ; preds = %165, %163, %159, %148
  %156 = landingpad { i8*, i32 }
          cleanup
  %157 = extractvalue { i8*, i32 } %156, 0
  %158 = extractvalue { i8*, i32 } %156, 1
  invoke void @__cxa_end_catch()
          to label %166 unwind label %210

159:                                              ; preds = %145
  %160 = bitcast %"class.std::vector.0"* %0 to %"struct.std::_Vector_base.1"*
  %161 = call dereferenceable(1) %"class.std::allocator.2"* @_ZNSt12_Vector_baseIxSaIxEE19_M_get_Tp_allocatorEv(%"struct.std::_Vector_base.1"* %160) #3
  invoke void @_ZSt8_DestroyIPxxEvT_S1_RSaIT0_E(i64* %114, i64* %.0, %"class.std::allocator.2"* dereferenceable(1) %161)
          to label %162 unwind label %155

162:                                              ; preds = %159
  br label %163

163:                                              ; preds = %162, %154
  %164 = bitcast %"class.std::vector.0"* %0 to %"struct.std::_Vector_base.1"*
  invoke void @_ZNSt12_Vector_baseIxSaIxEE13_M_deallocateEPxm(%"struct.std::_Vector_base.1"* %164, i64* %114, i64 %109)
          to label %165 unwind label %155

165:                                              ; preds = %163
  invoke void @__cxa_rethrow() #13
          to label %213 unwind label %155

166:                                              ; preds = %155
  br label %207

167:                                              ; preds = %140
  %168 = bitcast %"class.std::vector.0"* %0 to %"struct.std::_Vector_base.1"*
  %169 = getelementptr inbounds %"struct.std::_Vector_base.1", %"struct.std::_Vector_base.1"* %168, i32 0, i32 0
  %170 = getelementptr inbounds %"struct.std::_Vector_base<long long, std::allocator<long long> >::_Vector_impl", %"struct.std::_Vector_base<long long, std::allocator<long long> >::_Vector_impl"* %169, i32 0, i32 0
  %171 = load i64*, i64** %170, align 8
  %172 = bitcast %"class.std::vector.0"* %0 to %"struct.std::_Vector_base.1"*
  %173 = getelementptr inbounds %"struct.std::_Vector_base.1", %"struct.std::_Vector_base.1"* %172, i32 0, i32 0
  %174 = getelementptr inbounds %"struct.std::_Vector_base<long long, std::allocator<long long> >::_Vector_impl", %"struct.std::_Vector_base<long long, std::allocator<long long> >::_Vector_impl"* %173, i32 0, i32 1
  %175 = load i64*, i64** %174, align 8
  %176 = bitcast %"class.std::vector.0"* %0 to %"struct.std::_Vector_base.1"*
  %177 = call dereferenceable(1) %"class.std::allocator.2"* @_ZNSt12_Vector_baseIxSaIxEE19_M_get_Tp_allocatorEv(%"struct.std::_Vector_base.1"* %176) #3
  call void @_ZSt8_DestroyIPxxEvT_S1_RSaIT0_E(i64* %171, i64* %175, %"class.std::allocator.2"* dereferenceable(1) %177)
  %178 = bitcast %"class.std::vector.0"* %0 to %"struct.std::_Vector_base.1"*
  %179 = bitcast %"class.std::vector.0"* %0 to %"struct.std::_Vector_base.1"*
  %180 = getelementptr inbounds %"struct.std::_Vector_base.1", %"struct.std::_Vector_base.1"* %179, i32 0, i32 0
  %181 = getelementptr inbounds %"struct.std::_Vector_base<long long, std::allocator<long long> >::_Vector_impl", %"struct.std::_Vector_base<long long, std::allocator<long long> >::_Vector_impl"* %180, i32 0, i32 0
  %182 = load i64*, i64** %181, align 8
  %183 = bitcast %"class.std::vector.0"* %0 to %"struct.std::_Vector_base.1"*
  %184 = getelementptr inbounds %"struct.std::_Vector_base.1", %"struct.std::_Vector_base.1"* %183, i32 0, i32 0
  %185 = getelementptr inbounds %"struct.std::_Vector_base<long long, std::allocator<long long> >::_Vector_impl", %"struct.std::_Vector_base<long long, std::allocator<long long> >::_Vector_impl"* %184, i32 0, i32 2
  %186 = load i64*, i64** %185, align 8
  %187 = bitcast %"class.std::vector.0"* %0 to %"struct.std::_Vector_base.1"*
  %188 = getelementptr inbounds %"struct.std::_Vector_base.1", %"struct.std::_Vector_base.1"* %187, i32 0, i32 0
  %189 = getelementptr inbounds %"struct.std::_Vector_base<long long, std::allocator<long long> >::_Vector_impl", %"struct.std::_Vector_base<long long, std::allocator<long long> >::_Vector_impl"* %188, i32 0, i32 0
  %190 = load i64*, i64** %189, align 8
  %191 = ptrtoint i64* %186 to i64
  %192 = ptrtoint i64* %190 to i64
  %193 = sub i64 %191, %192
  %194 = sdiv exact i64 %193, 8
  call void @_ZNSt12_Vector_baseIxSaIxEE13_M_deallocateEPxm(%"struct.std::_Vector_base.1"* %178, i64* %182, i64 %194)
  %195 = bitcast %"class.std::vector.0"* %0 to %"struct.std::_Vector_base.1"*
  %196 = getelementptr inbounds %"struct.std::_Vector_base.1", %"struct.std::_Vector_base.1"* %195, i32 0, i32 0
  %197 = getelementptr inbounds %"struct.std::_Vector_base<long long, std::allocator<long long> >::_Vector_impl", %"struct.std::_Vector_base<long long, std::allocator<long long> >::_Vector_impl"* %196, i32 0, i32 0
  store i64* %114, i64** %197, align 8
  %198 = bitcast %"class.std::vector.0"* %0 to %"struct.std::_Vector_base.1"*
  %199 = getelementptr inbounds %"struct.std::_Vector_base.1", %"struct.std::_Vector_base.1"* %198, i32 0, i32 0
  %200 = getelementptr inbounds %"struct.std::_Vector_base<long long, std::allocator<long long> >::_Vector_impl", %"struct.std::_Vector_base<long long, std::allocator<long long> >::_Vector_impl"* %199, i32 0, i32 1
  store i64* %139, i64** %200, align 8
  %201 = getelementptr inbounds i64, i64* %114, i64 %109
  %202 = bitcast %"class.std::vector.0"* %0 to %"struct.std::_Vector_base.1"*
  %203 = getelementptr inbounds %"struct.std::_Vector_base.1", %"struct.std::_Vector_base.1"* %202, i32 0, i32 0
  %204 = getelementptr inbounds %"struct.std::_Vector_base<long long, std::allocator<long long> >::_Vector_impl", %"struct.std::_Vector_base<long long, std::allocator<long long> >::_Vector_impl"* %203, i32 0, i32 2
  store i64* %201, i64** %204, align 8
  br label %205

205:                                              ; preds = %167, %107
  br label %206

206:                                              ; preds = %205, %4
  ret void

207:                                              ; preds = %166, %72
  %.02 = phi i8* [ %74, %72 ], [ %157, %166 ]
  %.01 = phi i32 [ %75, %72 ], [ %158, %166 ]
  %208 = insertvalue { i8*, i32 } undef, i8* %.02, 0
  %209 = insertvalue { i8*, i32 } %208, i32 %.01, 1
  resume { i8*, i32 } %209

210:                                              ; preds = %155
  %211 = landingpad { i8*, i32 }
          catch i8* null
  %212 = extractvalue { i8*, i32 } %211, 0
  call void @__clang_call_terminate(i8* %212) #12
  unreachable

213:                                              ; preds = %165
  unreachable
}

; Function Attrs: noinline nounwind uwtable
define linkonce_odr i64* @_ZNSt6vectorIxSaIxEE3endEv(%"class.std::vector.0"* %0) #5 comdat align 2 {
  %2 = alloca %"class.__gnu_cxx::__normal_iterator", align 8
  %3 = bitcast %"class.std::vector.0"* %0 to %"struct.std::_Vector_base.1"*
  %4 = getelementptr inbounds %"struct.std::_Vector_base.1", %"struct.std::_Vector_base.1"* %3, i32 0, i32 0
  %5 = getelementptr inbounds %"struct.std::_Vector_base<long long, std::allocator<long long> >::_Vector_impl", %"struct.std::_Vector_base<long long, std::allocator<long long> >::_Vector_impl"* %4, i32 0, i32 1
  call void @_ZN9__gnu_cxx17__normal_iteratorIPxSt6vectorIxSaIxEEEC2ERKS1_(%"class.__gnu_cxx::__normal_iterator"* %2, i64** dereferenceable(8) %5) #3
  %6 = getelementptr inbounds %"class.__gnu_cxx::__normal_iterator", %"class.__gnu_cxx::__normal_iterator"* %2, i32 0, i32 0
  %7 = load i64*, i64** %6, align 8
  ret i64* %7
}

; Function Attrs: noinline uwtable
define linkonce_odr void @_ZNSt6vectorIxSaIxEE16_Temporary_valueC2IJRKxEEEPS1_DpOT_(%"struct.std::vector<long long, std::allocator<long long> >::_Temporary_value"* %0, %"class.std::vector.0"* %1, i64* dereferenceable(8) %2) unnamed_addr #0 comdat align 2 {
  %4 = getelementptr inbounds %"struct.std::vector<long long, std::allocator<long long> >::_Temporary_value", %"struct.std::vector<long long, std::allocator<long long> >::_Temporary_value"* %0, i32 0, i32 0
  store %"class.std::vector.0"* %1, %"class.std::vector.0"** %4, align 8
  %5 = getelementptr inbounds %"struct.std::vector<long long, std::allocator<long long> >::_Temporary_value", %"struct.std::vector<long long, std::allocator<long long> >::_Temporary_value"* %0, i32 0, i32 1
  %6 = getelementptr inbounds %"struct.std::vector<long long, std::allocator<long long> >::_Temporary_value", %"struct.std::vector<long long, std::allocator<long long> >::_Temporary_value"* %0, i32 0, i32 0
  %7 = load %"class.std::vector.0"*, %"class.std::vector.0"** %6, align 8
  %8 = bitcast %"class.std::vector.0"* %7 to %"struct.std::_Vector_base.1"*
  %9 = getelementptr inbounds %"struct.std::_Vector_base.1", %"struct.std::_Vector_base.1"* %8, i32 0, i32 0
  %10 = bitcast %"struct.std::_Vector_base<long long, std::allocator<long long> >::_Vector_impl"* %9 to %"class.std::allocator.2"*
  %11 = call i64* @_ZNSt6vectorIxSaIxEE16_Temporary_value6_M_ptrEv(%"struct.std::vector<long long, std::allocator<long long> >::_Temporary_value"* %0)
  %12 = call dereferenceable(8) i64* @_ZSt7forwardIRKxEOT_RNSt16remove_referenceIS2_E4typeE(i64* dereferenceable(8) %2) #3
  call void @_ZNSt16allocator_traitsISaIxEE9constructIxJRKxEEEvRS0_PT_DpOT0_(%"class.std::allocator.2"* dereferenceable(1) %10, i64* %11, i64* dereferenceable(8) %12)
  ret void
}

; Function Attrs: noinline nounwind uwtable
define linkonce_odr dereferenceable(8) i64* @_ZNSt6vectorIxSaIxEE16_Temporary_value6_M_valEv(%"struct.std::vector<long long, std::allocator<long long> >::_Temporary_value"* %0) #5 comdat align 2 {
  %2 = call i64* @_ZNSt6vectorIxSaIxEE16_Temporary_value6_M_ptrEv(%"struct.std::vector<long long, std::allocator<long long> >::_Temporary_value"* %0)
  ret i64* %2
}

; Function Attrs: noinline nounwind uwtable
define linkonce_odr i64 @_ZN9__gnu_cxxmiIPxSt6vectorIxSaIxEEEENS_17__normal_iteratorIT_T0_E15difference_typeERKS8_SB_(%"class.__gnu_cxx::__normal_iterator"* dereferenceable(8) %0, %"class.__gnu_cxx::__normal_iterator"* dereferenceable(8) %1) #5 comdat {
  %3 = call dereferenceable(8) i64** @_ZNK9__gnu_cxx17__normal_iteratorIPxSt6vectorIxSaIxEEE4baseEv(%"class.__gnu_cxx::__normal_iterator"* %0) #3
  %4 = load i64*, i64** %3, align 8
  %5 = call dereferenceable(8) i64** @_ZNK9__gnu_cxx17__normal_iteratorIPxSt6vectorIxSaIxEEE4baseEv(%"class.__gnu_cxx::__normal_iterator"* %1) #3
  %6 = load i64*, i64** %5, align 8
  %7 = ptrtoint i64* %4 to i64
  %8 = ptrtoint i64* %6 to i64
  %9 = sub i64 %7, %8
  %10 = sdiv exact i64 %9, 8
  ret i64 %10
}

; Function Attrs: noinline uwtable
define linkonce_odr i64* @_ZSt22__uninitialized_move_aIPxS0_SaIxEET0_T_S3_S2_RT1_(i64* %0, i64* %1, i64* %2, %"class.std::allocator.2"* dereferenceable(1) %3) #0 comdat {
  %5 = alloca %"class.std::move_iterator.5", align 8
  %6 = alloca %"class.std::move_iterator.5", align 8
  %7 = call i64* @_ZSt18make_move_iteratorIPxESt13move_iteratorIT_ES2_(i64* %0)
  %8 = getelementptr inbounds %"class.std::move_iterator.5", %"class.std::move_iterator.5"* %5, i32 0, i32 0
  store i64* %7, i64** %8, align 8
  %9 = call i64* @_ZSt18make_move_iteratorIPxESt13move_iteratorIT_ES2_(i64* %1)
  %10 = getelementptr inbounds %"class.std::move_iterator.5", %"class.std::move_iterator.5"* %6, i32 0, i32 0
  store i64* %9, i64** %10, align 8
  %11 = getelementptr inbounds %"class.std::move_iterator.5", %"class.std::move_iterator.5"* %5, i32 0, i32 0
  %12 = load i64*, i64** %11, align 8
  %13 = getelementptr inbounds %"class.std::move_iterator.5", %"class.std::move_iterator.5"* %6, i32 0, i32 0
  %14 = load i64*, i64** %13, align 8
  %15 = call i64* @_ZSt22__uninitialized_copy_aISt13move_iteratorIPxES1_xET0_T_S4_S3_RSaIT1_E(i64* %12, i64* %14, i64* %2, %"class.std::allocator.2"* dereferenceable(1) %3)
  ret i64* %15
}

; Function Attrs: noinline uwtable
define linkonce_odr i64* @_ZSt13move_backwardIPxS0_ET0_T_S2_S1_(i64* %0, i64* %1, i64* %2) #0 comdat {
  %4 = call i64* @_ZSt12__miter_baseIPxET_S1_(i64* %0)
  %5 = call i64* @_ZSt12__miter_baseIPxET_S1_(i64* %1)
  %6 = call i64* @_ZSt23__copy_move_backward_a2ILb1EPxS0_ET1_T0_S2_S1_(i64* %4, i64* %5, i64* %2)
  ret i64* %6
}

; Function Attrs: noinline nounwind uwtable
define linkonce_odr dereferenceable(8) i64** @_ZNK9__gnu_cxx17__normal_iteratorIPxSt6vectorIxSaIxEEE4baseEv(%"class.__gnu_cxx::__normal_iterator"* %0) #5 comdat align 2 {
  %2 = getelementptr inbounds %"class.__gnu_cxx::__normal_iterator", %"class.__gnu_cxx::__normal_iterator"* %0, i32 0, i32 0
  ret i64** %2
}

; Function Attrs: noinline uwtable
define linkonce_odr void @_ZSt4fillIPxxEvT_S1_RKT0_(i64* %0, i64* %1, i64* dereferenceable(8) %2) #0 comdat {
  %4 = call i64* @_ZSt12__niter_baseIPxET_S1_(i64* %0)
  %5 = call i64* @_ZSt12__niter_baseIPxET_S1_(i64* %1)
  call void @_ZSt8__fill_aIPxxEN9__gnu_cxx11__enable_ifIXsr11__is_scalarIT0_EE7__valueEvE6__typeET_S6_RKS3_(i64* %4, i64* %5, i64* dereferenceable(8) %2)
  ret void
}

; Function Attrs: noinline uwtable
define linkonce_odr i64* @_ZSt24__uninitialized_fill_n_aIPxmxxET_S1_T0_RKT1_RSaIT2_E(i64* %0, i64 %1, i64* dereferenceable(8) %2, %"class.std::allocator.2"* dereferenceable(1) %3) #0 comdat {
  %5 = call i64* @_ZSt20uninitialized_fill_nIPxmxET_S1_T0_RKT1_(i64* %0, i64 %1, i64* dereferenceable(8) %2)
  ret i64* %5
}

; Function Attrs: noinline nounwind uwtable
define linkonce_odr void @_ZNSt6vectorIxSaIxEE16_Temporary_valueD2Ev(%"struct.std::vector<long long, std::allocator<long long> >::_Temporary_value"* %0) unnamed_addr #5 comdat align 2 personality i8* bitcast (i32 (...)* @__gxx_personality_v0 to i8*) {
  %2 = getelementptr inbounds %"struct.std::vector<long long, std::allocator<long long> >::_Temporary_value", %"struct.std::vector<long long, std::allocator<long long> >::_Temporary_value"* %0, i32 0, i32 0
  %3 = load %"class.std::vector.0"*, %"class.std::vector.0"** %2, align 8
  %4 = bitcast %"class.std::vector.0"* %3 to %"struct.std::_Vector_base.1"*
  %5 = getelementptr inbounds %"struct.std::_Vector_base.1", %"struct.std::_Vector_base.1"* %4, i32 0, i32 0
  %6 = bitcast %"struct.std::_Vector_base<long long, std::allocator<long long> >::_Vector_impl"* %5 to %"class.std::allocator.2"*
  %7 = invoke i64* @_ZNSt6vectorIxSaIxEE16_Temporary_value6_M_ptrEv(%"struct.std::vector<long long, std::allocator<long long> >::_Temporary_value"* %0)
          to label %8 unwind label %10

8:                                                ; preds = %1
  invoke void @_ZNSt16allocator_traitsISaIxEE7destroyIxEEvRS0_PT_(%"class.std::allocator.2"* dereferenceable(1) %6, i64* %7)
          to label %9 unwind label %10

9:                                                ; preds = %8
  ret void

10:                                               ; preds = %8, %1
  %11 = landingpad { i8*, i32 }
          catch i8* null
  %12 = extractvalue { i8*, i32 } %11, 0
  call void @__clang_call_terminate(i8* %12) #12
  unreachable
}

; Function Attrs: noinline uwtable
define linkonce_odr i64 @_ZNKSt6vectorIxSaIxEE12_M_check_lenEmPKc(%"class.std::vector.0"* %0, i64 %1, i8* %2) #0 comdat align 2 {
  %4 = alloca i64, align 8
  %5 = alloca i64, align 8
  store i64 %1, i64* %4, align 8
  %6 = call i64 @_ZNKSt6vectorIxSaIxEE8max_sizeEv(%"class.std::vector.0"* %0) #3
  %7 = call i64 @_ZNKSt6vectorIxSaIxEE4sizeEv(%"class.std::vector.0"* %0) #3
  %8 = sub i64 %6, %7
  %9 = load i64, i64* %4, align 8
  %10 = icmp ult i64 %8, %9
  br i1 %10, label %11, label %12

11:                                               ; preds = %3
  call void @_ZSt20__throw_length_errorPKc(i8* %2) #13
  unreachable

12:                                               ; preds = %3
  %13 = call i64 @_ZNKSt6vectorIxSaIxEE4sizeEv(%"class.std::vector.0"* %0) #3
  %14 = call i64 @_ZNKSt6vectorIxSaIxEE4sizeEv(%"class.std::vector.0"* %0) #3
  store i64 %14, i64* %5, align 8
  %15 = call dereferenceable(8) i64* @_ZSt3maxImERKT_S2_S2_(i64* dereferenceable(8) %5, i64* dereferenceable(8) %4)
  %16 = load i64, i64* %15, align 8
  %17 = add i64 %13, %16
  %18 = call i64 @_ZNKSt6vectorIxSaIxEE4sizeEv(%"class.std::vector.0"* %0) #3
  %19 = icmp ult i64 %17, %18
  br i1 %19, label %23, label %20

20:                                               ; preds = %12
  %21 = call i64 @_ZNKSt6vectorIxSaIxEE8max_sizeEv(%"class.std::vector.0"* %0) #3
  %22 = icmp ugt i64 %17, %21
  br i1 %22, label %23, label %25

23:                                               ; preds = %20, %12
  %24 = call i64 @_ZNKSt6vectorIxSaIxEE8max_sizeEv(%"class.std::vector.0"* %0) #3
  br label %26

25:                                               ; preds = %20
  br label %26

26:                                               ; preds = %25, %23
  %27 = phi i64 [ %24, %23 ], [ %17, %25 ]
  ret i64 %27
}

; Function Attrs: noinline nounwind uwtable
define linkonce_odr i64* @_ZNSt6vectorIxSaIxEE5beginEv(%"class.std::vector.0"* %0) #5 comdat align 2 {
  %2 = alloca %"class.__gnu_cxx::__normal_iterator", align 8
  %3 = bitcast %"class.std::vector.0"* %0 to %"struct.std::_Vector_base.1"*
  %4 = getelementptr inbounds %"struct.std::_Vector_base.1", %"struct.std::_Vector_base.1"* %3, i32 0, i32 0
  %5 = getelementptr inbounds %"struct.std::_Vector_base<long long, std::allocator<long long> >::_Vector_impl", %"struct.std::_Vector_base<long long, std::allocator<long long> >::_Vector_impl"* %4, i32 0, i32 0
  call void @_ZN9__gnu_cxx17__normal_iteratorIPxSt6vectorIxSaIxEEEC2ERKS1_(%"class.__gnu_cxx::__normal_iterator"* %2, i64** dereferenceable(8) %5) #3
  %6 = getelementptr inbounds %"class.__gnu_cxx::__normal_iterator", %"class.__gnu_cxx::__normal_iterator"* %2, i32 0, i32 0
  %7 = load i64*, i64** %6, align 8
  ret i64* %7
}

; Function Attrs: noinline uwtable
define linkonce_odr i64* @_ZNSt12_Vector_baseIxSaIxEE11_M_allocateEm(%"struct.std::_Vector_base.1"* %0, i64 %1) #0 comdat align 2 {
  %3 = icmp ne i64 %1, 0
  br i1 %3, label %4, label %8

4:                                                ; preds = %2
  %5 = getelementptr inbounds %"struct.std::_Vector_base.1", %"struct.std::_Vector_base.1"* %0, i32 0, i32 0
  %6 = bitcast %"struct.std::_Vector_base<long long, std::allocator<long long> >::_Vector_impl"* %5 to %"class.std::allocator.2"*
  %7 = call i64* @_ZNSt16allocator_traitsISaIxEE8allocateERS0_m(%"class.std::allocator.2"* dereferenceable(1) %6, i64 %1)
  br label %9

8:                                                ; preds = %2
  br label %9

9:                                                ; preds = %8, %4
  %10 = phi i64* [ %7, %4 ], [ null, %8 ]
  ret i64* %10
}

; Function Attrs: noinline uwtable
define linkonce_odr i64* @_ZSt34__uninitialized_move_if_noexcept_aIPxS0_SaIxEET0_T_S3_S2_RT1_(i64* %0, i64* %1, i64* %2, %"class.std::allocator.2"* dereferenceable(1) %3) #0 comdat {
  %5 = alloca %"class.std::move_iterator.5", align 8
  %6 = alloca %"class.std::move_iterator.5", align 8
  %7 = call i64* @_ZSt32__make_move_if_noexcept_iteratorIxSt13move_iteratorIPxEET0_PT_(i64* %0)
  %8 = getelementptr inbounds %"class.std::move_iterator.5", %"class.std::move_iterator.5"* %5, i32 0, i32 0
  store i64* %7, i64** %8, align 8
  %9 = call i64* @_ZSt32__make_move_if_noexcept_iteratorIxSt13move_iteratorIPxEET0_PT_(i64* %1)
  %10 = getelementptr inbounds %"class.std::move_iterator.5", %"class.std::move_iterator.5"* %6, i32 0, i32 0
  store i64* %9, i64** %10, align 8
  %11 = getelementptr inbounds %"class.std::move_iterator.5", %"class.std::move_iterator.5"* %5, i32 0, i32 0
  %12 = load i64*, i64** %11, align 8
  %13 = getelementptr inbounds %"class.std::move_iterator.5", %"class.std::move_iterator.5"* %6, i32 0, i32 0
  %14 = load i64*, i64** %13, align 8
  %15 = call i64* @_ZSt22__uninitialized_copy_aISt13move_iteratorIPxES1_xET0_T_S4_S3_RSaIT1_E(i64* %12, i64* %14, i64* %2, %"class.std::allocator.2"* dereferenceable(1) %3)
  ret i64* %15
}

; Function Attrs: noinline uwtable
define linkonce_odr void @_ZNSt12_Vector_baseIxSaIxEE13_M_deallocateEPxm(%"struct.std::_Vector_base.1"* %0, i64* %1, i64 %2) #0 comdat align 2 {
  %4 = icmp ne i64* %1, null
  br i1 %4, label %5, label %8

5:                                                ; preds = %3
  %6 = getelementptr inbounds %"struct.std::_Vector_base.1", %"struct.std::_Vector_base.1"* %0, i32 0, i32 0
  %7 = bitcast %"struct.std::_Vector_base<long long, std::allocator<long long> >::_Vector_impl"* %6 to %"class.std::allocator.2"*
  call void @_ZNSt16allocator_traitsISaIxEE10deallocateERS0_Pxm(%"class.std::allocator.2"* dereferenceable(1) %7, i64* %1, i64 %2)
  br label %8

8:                                                ; preds = %5, %3
  ret void
}

; Function Attrs: noinline uwtable
define linkonce_odr void @_ZNSt16allocator_traitsISaIxEE9constructIxJRKxEEEvRS0_PT_DpOT0_(%"class.std::allocator.2"* dereferenceable(1) %0, i64* %1, i64* dereferenceable(8) %2) #0 comdat align 2 {
  %4 = bitcast %"class.std::allocator.2"* %0 to %"class.__gnu_cxx::new_allocator.3"*
  %5 = call dereferenceable(8) i64* @_ZSt7forwardIRKxEOT_RNSt16remove_referenceIS2_E4typeE(i64* dereferenceable(8) %2) #3
  call void @_ZN9__gnu_cxx13new_allocatorIxE9constructIxJRKxEEEvPT_DpOT0_(%"class.__gnu_cxx::new_allocator.3"* %4, i64* %1, i64* dereferenceable(8) %5)
  ret void
}

; Function Attrs: noinline nounwind uwtable
define linkonce_odr i64* @_ZNSt6vectorIxSaIxEE16_Temporary_value6_M_ptrEv(%"struct.std::vector<long long, std::allocator<long long> >::_Temporary_value"* %0) #5 comdat align 2 {
  %2 = getelementptr inbounds %"struct.std::vector<long long, std::allocator<long long> >::_Temporary_value", %"struct.std::vector<long long, std::allocator<long long> >::_Temporary_value"* %0, i32 0, i32 1
  %3 = bitcast %"union.std::aligned_storage<8, 8>::type"* %2 to i64*
  ret i64* %3
}

; Function Attrs: noinline nounwind uwtable
define linkonce_odr dereferenceable(8) i64* @_ZSt7forwardIRKxEOT_RNSt16remove_referenceIS2_E4typeE(i64* dereferenceable(8) %0) #5 comdat {
  ret i64* %0
}

; Function Attrs: noinline nounwind uwtable
define linkonce_odr void @_ZN9__gnu_cxx13new_allocatorIxE9constructIxJRKxEEEvPT_DpOT0_(%"class.__gnu_cxx::new_allocator.3"* %0, i64* %1, i64* dereferenceable(8) %2) #5 comdat align 2 {
  %4 = bitcast i64* %1 to i8*
  %5 = bitcast i8* %4 to i64*
  %6 = call dereferenceable(8) i64* @_ZSt7forwardIRKxEOT_RNSt16remove_referenceIS2_E4typeE(i64* dereferenceable(8) %2) #3
  %7 = load i64, i64* %6, align 8
  store i64 %7, i64* %5, align 8
  ret void
}

; Function Attrs: noinline uwtable
define linkonce_odr i64* @_ZSt22__uninitialized_copy_aISt13move_iteratorIPxES1_xET0_T_S4_S3_RSaIT1_E(i64* %0, i64* %1, i64* %2, %"class.std::allocator.2"* dereferenceable(1) %3) #0 comdat {
  %5 = alloca %"class.std::move_iterator.5", align 8
  %6 = alloca %"class.std::move_iterator.5", align 8
  %7 = alloca %"class.std::move_iterator.5", align 8
  %8 = alloca %"class.std::move_iterator.5", align 8
  %9 = getelementptr inbounds %"class.std::move_iterator.5", %"class.std::move_iterator.5"* %5, i32 0, i32 0
  store i64* %0, i64** %9, align 8
  %10 = getelementptr inbounds %"class.std::move_iterator.5", %"class.std::move_iterator.5"* %6, i32 0, i32 0
  store i64* %1, i64** %10, align 8
  %11 = bitcast %"class.std::move_iterator.5"* %7 to i8*
  %12 = bitcast %"class.std::move_iterator.5"* %5 to i8*
  call void @llvm.memcpy.p0i8.p0i8.i64(i8* align 8 %11, i8* align 8 %12, i64 8, i1 false)
  %13 = bitcast %"class.std::move_iterator.5"* %8 to i8*
  %14 = bitcast %"class.std::move_iterator.5"* %6 to i8*
  call void @llvm.memcpy.p0i8.p0i8.i64(i8* align 8 %13, i8* align 8 %14, i64 8, i1 false)
  %15 = getelementptr inbounds %"class.std::move_iterator.5", %"class.std::move_iterator.5"* %7, i32 0, i32 0
  %16 = load i64*, i64** %15, align 8
  %17 = getelementptr inbounds %"class.std::move_iterator.5", %"class.std::move_iterator.5"* %8, i32 0, i32 0
  %18 = load i64*, i64** %17, align 8
  %19 = call i64* @_ZSt18uninitialized_copyISt13move_iteratorIPxES1_ET0_T_S4_S3_(i64* %16, i64* %18, i64* %2)
  ret i64* %19
}

; Function Attrs: noinline uwtable
define linkonce_odr i64* @_ZSt18make_move_iteratorIPxESt13move_iteratorIT_ES2_(i64* %0) #0 comdat {
  %2 = alloca %"class.std::move_iterator.5", align 8
  call void @_ZNSt13move_iteratorIPxEC2ES0_(%"class.std::move_iterator.5"* %2, i64* %0)
  %3 = getelementptr inbounds %"class.std::move_iterator.5", %"class.std::move_iterator.5"* %2, i32 0, i32 0
  %4 = load i64*, i64** %3, align 8
  ret i64* %4
}

; Function Attrs: noinline uwtable
define linkonce_odr i64* @_ZSt18uninitialized_copyISt13move_iteratorIPxES1_ET0_T_S4_S3_(i64* %0, i64* %1, i64* %2) #0 comdat {
  %4 = alloca %"class.std::move_iterator.5", align 8
  %5 = alloca %"class.std::move_iterator.5", align 8
  %6 = alloca %"class.std::move_iterator.5", align 8
  %7 = alloca %"class.std::move_iterator.5", align 8
  %8 = getelementptr inbounds %"class.std::move_iterator.5", %"class.std::move_iterator.5"* %4, i32 0, i32 0
  store i64* %0, i64** %8, align 8
  %9 = getelementptr inbounds %"class.std::move_iterator.5", %"class.std::move_iterator.5"* %5, i32 0, i32 0
  store i64* %1, i64** %9, align 8
  %10 = bitcast %"class.std::move_iterator.5"* %6 to i8*
  %11 = bitcast %"class.std::move_iterator.5"* %4 to i8*
  call void @llvm.memcpy.p0i8.p0i8.i64(i8* align 8 %10, i8* align 8 %11, i64 8, i1 false)
  %12 = bitcast %"class.std::move_iterator.5"* %7 to i8*
  %13 = bitcast %"class.std::move_iterator.5"* %5 to i8*
  call void @llvm.memcpy.p0i8.p0i8.i64(i8* align 8 %12, i8* align 8 %13, i64 8, i1 false)
  %14 = getelementptr inbounds %"class.std::move_iterator.5", %"class.std::move_iterator.5"* %6, i32 0, i32 0
  %15 = load i64*, i64** %14, align 8
  %16 = getelementptr inbounds %"class.std::move_iterator.5", %"class.std::move_iterator.5"* %7, i32 0, i32 0
  %17 = load i64*, i64** %16, align 8
  %18 = call i64* @_ZNSt20__uninitialized_copyILb1EE13__uninit_copyISt13move_iteratorIPxES3_EET0_T_S6_S5_(i64* %15, i64* %17, i64* %2)
  ret i64* %18
}

; Function Attrs: noinline uwtable
define linkonce_odr i64* @_ZNSt20__uninitialized_copyILb1EE13__uninit_copyISt13move_iteratorIPxES3_EET0_T_S6_S5_(i64* %0, i64* %1, i64* %2) #0 comdat align 2 {
  %4 = alloca %"class.std::move_iterator.5", align 8
  %5 = alloca %"class.std::move_iterator.5", align 8
  %6 = alloca %"class.std::move_iterator.5", align 8
  %7 = alloca %"class.std::move_iterator.5", align 8
  %8 = getelementptr inbounds %"class.std::move_iterator.5", %"class.std::move_iterator.5"* %4, i32 0, i32 0
  store i64* %0, i64** %8, align 8
  %9 = getelementptr inbounds %"class.std::move_iterator.5", %"class.std::move_iterator.5"* %5, i32 0, i32 0
  store i64* %1, i64** %9, align 8
  %10 = bitcast %"class.std::move_iterator.5"* %6 to i8*
  %11 = bitcast %"class.std::move_iterator.5"* %4 to i8*
  call void @llvm.memcpy.p0i8.p0i8.i64(i8* align 8 %10, i8* align 8 %11, i64 8, i1 false)
  %12 = bitcast %"class.std::move_iterator.5"* %7 to i8*
  %13 = bitcast %"class.std::move_iterator.5"* %5 to i8*
  call void @llvm.memcpy.p0i8.p0i8.i64(i8* align 8 %12, i8* align 8 %13, i64 8, i1 false)
  %14 = getelementptr inbounds %"class.std::move_iterator.5", %"class.std::move_iterator.5"* %6, i32 0, i32 0
  %15 = load i64*, i64** %14, align 8
  %16 = getelementptr inbounds %"class.std::move_iterator.5", %"class.std::move_iterator.5"* %7, i32 0, i32 0
  %17 = load i64*, i64** %16, align 8
  %18 = call i64* @_ZSt4copyISt13move_iteratorIPxES1_ET0_T_S4_S3_(i64* %15, i64* %17, i64* %2)
  ret i64* %18
}

; Function Attrs: noinline uwtable
define linkonce_odr i64* @_ZSt4copyISt13move_iteratorIPxES1_ET0_T_S4_S3_(i64* %0, i64* %1, i64* %2) #0 comdat {
  %4 = alloca %"class.std::move_iterator.5", align 8
  %5 = alloca %"class.std::move_iterator.5", align 8
  %6 = alloca %"class.std::move_iterator.5", align 8
  %7 = alloca %"class.std::move_iterator.5", align 8
  %8 = getelementptr inbounds %"class.std::move_iterator.5", %"class.std::move_iterator.5"* %4, i32 0, i32 0
  store i64* %0, i64** %8, align 8
  %9 = getelementptr inbounds %"class.std::move_iterator.5", %"class.std::move_iterator.5"* %5, i32 0, i32 0
  store i64* %1, i64** %9, align 8
  %10 = bitcast %"class.std::move_iterator.5"* %6 to i8*
  %11 = bitcast %"class.std::move_iterator.5"* %4 to i8*
  call void @llvm.memcpy.p0i8.p0i8.i64(i8* align 8 %10, i8* align 8 %11, i64 8, i1 false)
  %12 = getelementptr inbounds %"class.std::move_iterator.5", %"class.std::move_iterator.5"* %6, i32 0, i32 0
  %13 = load i64*, i64** %12, align 8
  %14 = call i64* @_ZSt12__miter_baseIPxEDTcl12__miter_basecldtfp_4baseEEESt13move_iteratorIT_E(i64* %13)
  %15 = bitcast %"class.std::move_iterator.5"* %7 to i8*
  %16 = bitcast %"class.std::move_iterator.5"* %5 to i8*
  call void @llvm.memcpy.p0i8.p0i8.i64(i8* align 8 %15, i8* align 8 %16, i64 8, i1 false)
  %17 = getelementptr inbounds %"class.std::move_iterator.5", %"class.std::move_iterator.5"* %7, i32 0, i32 0
  %18 = load i64*, i64** %17, align 8
  %19 = call i64* @_ZSt12__miter_baseIPxEDTcl12__miter_basecldtfp_4baseEEESt13move_iteratorIT_E(i64* %18)
  %20 = call i64* @_ZSt14__copy_move_a2ILb1EPxS0_ET1_T0_S2_S1_(i64* %14, i64* %19, i64* %2)
  ret i64* %20
}

; Function Attrs: noinline uwtable
define linkonce_odr i64* @_ZSt14__copy_move_a2ILb1EPxS0_ET1_T0_S2_S1_(i64* %0, i64* %1, i64* %2) #0 comdat {
  %4 = call i64* @_ZSt12__niter_baseIPxET_S1_(i64* %0)
  %5 = call i64* @_ZSt12__niter_baseIPxET_S1_(i64* %1)
  %6 = call i64* @_ZSt12__niter_baseIPxET_S1_(i64* %2)
  %7 = call i64* @_ZSt13__copy_move_aILb1EPxS0_ET1_T0_S2_S1_(i64* %4, i64* %5, i64* %6)
  ret i64* %7
}

; Function Attrs: noinline uwtable
define linkonce_odr i64* @_ZSt12__miter_baseIPxEDTcl12__miter_basecldtfp_4baseEEESt13move_iteratorIT_E(i64* %0) #0 comdat {
  %2 = alloca %"class.std::move_iterator.5", align 8
  %3 = getelementptr inbounds %"class.std::move_iterator.5", %"class.std::move_iterator.5"* %2, i32 0, i32 0
  store i64* %0, i64** %3, align 8
  %4 = call i64* @_ZNKSt13move_iteratorIPxE4baseEv(%"class.std::move_iterator.5"* %2)
  %5 = call i64* @_ZSt12__miter_baseIPxET_S1_(i64* %4)
  ret i64* %5
}

; Function Attrs: noinline uwtable
define linkonce_odr i64* @_ZSt13__copy_move_aILb1EPxS0_ET1_T0_S2_S1_(i64* %0, i64* %1, i64* %2) #0 comdat {
  %4 = call i64* @_ZNSt11__copy_moveILb1ELb1ESt26random_access_iterator_tagE8__copy_mIxEEPT_PKS3_S6_S4_(i64* %0, i64* %1, i64* %2)
  ret i64* %4
}

; Function Attrs: noinline nounwind uwtable
define linkonce_odr i64* @_ZSt12__niter_baseIPxET_S1_(i64* %0) #5 comdat {
  ret i64* %0
}

; Function Attrs: noinline nounwind uwtable
define linkonce_odr i64* @_ZNSt11__copy_moveILb1ELb1ESt26random_access_iterator_tagE8__copy_mIxEEPT_PKS3_S6_S4_(i64* %0, i64* %1, i64* %2) #5 comdat align 2 {
  %4 = ptrtoint i64* %1 to i64
  %5 = ptrtoint i64* %0 to i64
  %6 = sub i64 %4, %5
  %7 = sdiv exact i64 %6, 8
  %8 = icmp ne i64 %7, 0
  br i1 %8, label %9, label %13

9:                                                ; preds = %3
  %10 = bitcast i64* %2 to i8*
  %11 = bitcast i64* %0 to i8*
  %12 = mul i64 8, %7
  call void @llvm.memmove.p0i8.p0i8.i64(i8* align 8 %10, i8* align 8 %11, i64 %12, i1 false)
  br label %13

13:                                               ; preds = %9, %3
  %14 = getelementptr inbounds i64, i64* %2, i64 %7
  ret i64* %14
}

; Function Attrs: noinline nounwind uwtable
define linkonce_odr i64* @_ZSt12__miter_baseIPxET_S1_(i64* %0) #5 comdat {
  ret i64* %0
}

; Function Attrs: noinline nounwind uwtable
define linkonce_odr i64* @_ZNKSt13move_iteratorIPxE4baseEv(%"class.std::move_iterator.5"* %0) #5 comdat align 2 {
  %2 = getelementptr inbounds %"class.std::move_iterator.5", %"class.std::move_iterator.5"* %0, i32 0, i32 0
  %3 = load i64*, i64** %2, align 8
  ret i64* %3
}

; Function Attrs: noinline nounwind uwtable
define linkonce_odr void @_ZNSt13move_iteratorIPxEC2ES0_(%"class.std::move_iterator.5"* %0, i64* %1) unnamed_addr #5 comdat align 2 {
  %3 = getelementptr inbounds %"class.std::move_iterator.5", %"class.std::move_iterator.5"* %0, i32 0, i32 0
  store i64* %1, i64** %3, align 8
  ret void
}

; Function Attrs: noinline uwtable
define linkonce_odr i64* @_ZSt23__copy_move_backward_a2ILb1EPxS0_ET1_T0_S2_S1_(i64* %0, i64* %1, i64* %2) #0 comdat {
  %4 = call i64* @_ZSt12__niter_baseIPxET_S1_(i64* %0)
  %5 = call i64* @_ZSt12__niter_baseIPxET_S1_(i64* %1)
  %6 = call i64* @_ZSt12__niter_baseIPxET_S1_(i64* %2)
  %7 = call i64* @_ZSt22__copy_move_backward_aILb1EPxS0_ET1_T0_S2_S1_(i64* %4, i64* %5, i64* %6)
  ret i64* %7
}

; Function Attrs: noinline uwtable
define linkonce_odr i64* @_ZSt22__copy_move_backward_aILb1EPxS0_ET1_T0_S2_S1_(i64* %0, i64* %1, i64* %2) #0 comdat {
  %4 = call i64* @_ZNSt20__copy_move_backwardILb1ELb1ESt26random_access_iterator_tagE13__copy_move_bIxEEPT_PKS3_S6_S4_(i64* %0, i64* %1, i64* %2)
  ret i64* %4
}

; Function Attrs: noinline nounwind uwtable
define linkonce_odr i64* @_ZNSt20__copy_move_backwardILb1ELb1ESt26random_access_iterator_tagE13__copy_move_bIxEEPT_PKS3_S6_S4_(i64* %0, i64* %1, i64* %2) #5 comdat align 2 {
  %4 = ptrtoint i64* %1 to i64
  %5 = ptrtoint i64* %0 to i64
  %6 = sub i64 %4, %5
  %7 = sdiv exact i64 %6, 8
  %8 = icmp ne i64 %7, 0
  br i1 %8, label %9, label %15

9:                                                ; preds = %3
  %10 = sub i64 0, %7
  %11 = getelementptr inbounds i64, i64* %2, i64 %10
  %12 = bitcast i64* %11 to i8*
  %13 = bitcast i64* %0 to i8*
  %14 = mul i64 8, %7
  call void @llvm.memmove.p0i8.p0i8.i64(i8* align 8 %12, i8* align 8 %13, i64 %14, i1 false)
  br label %15

15:                                               ; preds = %9, %3
  %16 = sub i64 0, %7
  %17 = getelementptr inbounds i64, i64* %2, i64 %16
  ret i64* %17
}

; Function Attrs: noinline nounwind uwtable
define linkonce_odr void @_ZSt8__fill_aIPxxEN9__gnu_cxx11__enable_ifIXsr11__is_scalarIT0_EE7__valueEvE6__typeET_S6_RKS3_(i64* %0, i64* %1, i64* dereferenceable(8) %2) #5 comdat {
  %4 = load i64, i64* %2, align 8
  br label %5

5:                                                ; preds = %8, %3
  %.0 = phi i64* [ %0, %3 ], [ %9, %8 ]
  %6 = icmp ne i64* %.0, %1
  br i1 %6, label %7, label %10

7:                                                ; preds = %5
  store i64 %4, i64* %.0, align 8
  br label %8

8:                                                ; preds = %7
  %9 = getelementptr inbounds i64, i64* %.0, i32 1
  br label %5

10:                                               ; preds = %5
  ret void
}

; Function Attrs: noinline uwtable
define linkonce_odr i64* @_ZSt20uninitialized_fill_nIPxmxET_S1_T0_RKT1_(i64* %0, i64 %1, i64* dereferenceable(8) %2) #0 comdat {
  %4 = call i64* @_ZNSt22__uninitialized_fill_nILb1EE15__uninit_fill_nIPxmxEET_S3_T0_RKT1_(i64* %0, i64 %1, i64* dereferenceable(8) %2)
  ret i64* %4
}

; Function Attrs: noinline uwtable
define linkonce_odr i64* @_ZNSt22__uninitialized_fill_nILb1EE15__uninit_fill_nIPxmxEET_S3_T0_RKT1_(i64* %0, i64 %1, i64* dereferenceable(8) %2) #0 comdat align 2 {
  %4 = call i64* @_ZSt6fill_nIPxmxET_S1_T0_RKT1_(i64* %0, i64 %1, i64* dereferenceable(8) %2)
  ret i64* %4
}

; Function Attrs: noinline uwtable
define linkonce_odr i64* @_ZSt6fill_nIPxmxET_S1_T0_RKT1_(i64* %0, i64 %1, i64* dereferenceable(8) %2) #0 comdat {
  %4 = call i64* @_ZSt12__niter_baseIPxET_S1_(i64* %0)
  %5 = call i64* @_ZSt10__fill_n_aIPxmxEN9__gnu_cxx11__enable_ifIXsr11__is_scalarIT1_EE7__valueET_E6__typeES4_T0_RKS3_(i64* %4, i64 %1, i64* dereferenceable(8) %2)
  ret i64* %5
}

; Function Attrs: noinline nounwind uwtable
define linkonce_odr i64* @_ZSt10__fill_n_aIPxmxEN9__gnu_cxx11__enable_ifIXsr11__is_scalarIT1_EE7__valueET_E6__typeES4_T0_RKS3_(i64* %0, i64 %1, i64* dereferenceable(8) %2) #5 comdat {
  %4 = load i64, i64* %2, align 8
  br label %5

5:                                                ; preds = %8, %3
  %.01 = phi i64 [ %1, %3 ], [ %9, %8 ]
  %.0 = phi i64* [ %0, %3 ], [ %10, %8 ]
  %6 = icmp ugt i64 %.01, 0
  br i1 %6, label %7, label %11

7:                                                ; preds = %5
  store i64 %4, i64* %.0, align 8
  br label %8

8:                                                ; preds = %7
  %9 = add i64 %.01, -1
  %10 = getelementptr inbounds i64, i64* %.0, i32 1
  br label %5

11:                                               ; preds = %5
  ret i64* %.0
}

; Function Attrs: noinline uwtable
define linkonce_odr void @_ZNSt16allocator_traitsISaIxEE7destroyIxEEvRS0_PT_(%"class.std::allocator.2"* dereferenceable(1) %0, i64* %1) #0 comdat align 2 {
  %3 = bitcast %"class.std::allocator.2"* %0 to %"class.__gnu_cxx::new_allocator.3"*
  call void @_ZN9__gnu_cxx13new_allocatorIxE7destroyIxEEvPT_(%"class.__gnu_cxx::new_allocator.3"* %3, i64* %1)
  ret void
}

; Function Attrs: noinline nounwind uwtable
define linkonce_odr void @_ZN9__gnu_cxx13new_allocatorIxE7destroyIxEEvPT_(%"class.__gnu_cxx::new_allocator.3"* %0, i64* %1) #5 comdat align 2 {
  ret void
}

; Function Attrs: noinline nounwind uwtable
define linkonce_odr i64 @_ZNKSt6vectorIxSaIxEE8max_sizeEv(%"class.std::vector.0"* %0) #5 comdat align 2 {
  %2 = bitcast %"class.std::vector.0"* %0 to %"struct.std::_Vector_base.1"*
  %3 = call dereferenceable(1) %"class.std::allocator.2"* @_ZNKSt12_Vector_baseIxSaIxEE19_M_get_Tp_allocatorEv(%"struct.std::_Vector_base.1"* %2) #3
  %4 = call i64 @_ZNSt16allocator_traitsISaIxEE8max_sizeERKS0_(%"class.std::allocator.2"* dereferenceable(1) %3) #3
  ret i64 %4
}

; Function Attrs: noinline nounwind uwtable
define linkonce_odr i64 @_ZNSt16allocator_traitsISaIxEE8max_sizeERKS0_(%"class.std::allocator.2"* dereferenceable(1) %0) #5 comdat align 2 {
  %2 = bitcast %"class.std::allocator.2"* %0 to %"class.__gnu_cxx::new_allocator.3"*
  %3 = call i64 @_ZNK9__gnu_cxx13new_allocatorIxE8max_sizeEv(%"class.__gnu_cxx::new_allocator.3"* %2) #3
  ret i64 %3
}

; Function Attrs: noinline nounwind uwtable
define linkonce_odr dereferenceable(1) %"class.std::allocator.2"* @_ZNKSt12_Vector_baseIxSaIxEE19_M_get_Tp_allocatorEv(%"struct.std::_Vector_base.1"* %0) #5 comdat align 2 {
  %2 = getelementptr inbounds %"struct.std::_Vector_base.1", %"struct.std::_Vector_base.1"* %0, i32 0, i32 0
  %3 = bitcast %"struct.std::_Vector_base<long long, std::allocator<long long> >::_Vector_impl"* %2 to %"class.std::allocator.2"*
  ret %"class.std::allocator.2"* %3
}

; Function Attrs: noinline nounwind uwtable
define linkonce_odr i64 @_ZNK9__gnu_cxx13new_allocatorIxE8max_sizeEv(%"class.__gnu_cxx::new_allocator.3"* %0) #5 comdat align 2 {
  ret i64 2305843009213693951
}

; Function Attrs: noinline nounwind uwtable
define linkonce_odr void @_ZN9__gnu_cxx17__normal_iteratorIPxSt6vectorIxSaIxEEEC2ERKS1_(%"class.__gnu_cxx::__normal_iterator"* %0, i64** dereferenceable(8) %1) unnamed_addr #5 comdat align 2 {
  %3 = getelementptr inbounds %"class.__gnu_cxx::__normal_iterator", %"class.__gnu_cxx::__normal_iterator"* %0, i32 0, i32 0
  %4 = load i64*, i64** %1, align 8
  store i64* %4, i64** %3, align 8
  ret void
}

; Function Attrs: noinline uwtable
define linkonce_odr i64* @_ZNSt16allocator_traitsISaIxEE8allocateERS0_m(%"class.std::allocator.2"* dereferenceable(1) %0, i64 %1) #0 comdat align 2 {
  %3 = bitcast %"class.std::allocator.2"* %0 to %"class.__gnu_cxx::new_allocator.3"*
  %4 = call i64* @_ZN9__gnu_cxx13new_allocatorIxE8allocateEmPKv(%"class.__gnu_cxx::new_allocator.3"* %3, i64 %1, i8* null)
  ret i64* %4
}

; Function Attrs: noinline uwtable
define linkonce_odr i64* @_ZN9__gnu_cxx13new_allocatorIxE8allocateEmPKv(%"class.__gnu_cxx::new_allocator.3"* %0, i64 %1, i8* %2) #0 comdat align 2 {
  %4 = call i64 @_ZNK9__gnu_cxx13new_allocatorIxE8max_sizeEv(%"class.__gnu_cxx::new_allocator.3"* %0) #3
  %5 = icmp ugt i64 %1, %4
  br i1 %5, label %6, label %7

6:                                                ; preds = %3
  call void @_ZSt17__throw_bad_allocv() #13
  unreachable

7:                                                ; preds = %3
  %8 = mul i64 %1, 8
  %9 = call i8* @_Znwm(i64 %8)
  %10 = bitcast i8* %9 to i64*
  ret i64* %10
}

; Function Attrs: noinline uwtable
define linkonce_odr i64* @_ZSt32__make_move_if_noexcept_iteratorIxSt13move_iteratorIPxEET0_PT_(i64* %0) #0 comdat {
  %2 = alloca %"class.std::move_iterator.5", align 8
  call void @_ZNSt13move_iteratorIPxEC2ES0_(%"class.std::move_iterator.5"* %2, i64* %0)
  %3 = getelementptr inbounds %"class.std::move_iterator.5", %"class.std::move_iterator.5"* %2, i32 0, i32 0
  %4 = load i64*, i64** %3, align 8
  ret i64* %4
}

; Function Attrs: noinline uwtable
define linkonce_odr void @_ZNSt16allocator_traitsISaIxEE10deallocateERS0_Pxm(%"class.std::allocator.2"* dereferenceable(1) %0, i64* %1, i64 %2) #0 comdat align 2 {
  %4 = bitcast %"class.std::allocator.2"* %0 to %"class.__gnu_cxx::new_allocator.3"*
  call void @_ZN9__gnu_cxx13new_allocatorIxE10deallocateEPxm(%"class.__gnu_cxx::new_allocator.3"* %4, i64* %1, i64 %2)
  ret void
}

; Function Attrs: noinline nounwind uwtable
define linkonce_odr void @_ZN9__gnu_cxx13new_allocatorIxE10deallocateEPxm(%"class.__gnu_cxx::new_allocator.3"* %0, i64* %1, i64 %2) #5 comdat align 2 {
  %4 = bitcast i64* %1 to i8*
  call void @_ZdlPv(i8* %4) #3
  ret void
}

; Function Attrs: noinline nounwind uwtable
define linkonce_odr void @_ZNSt12_Vector_baseIxSaIxEED2Ev(%"struct.std::_Vector_base.1"* %0) unnamed_addr #5 comdat align 2 personality i8* bitcast (i32 (...)* @__gxx_personality_v0 to i8*) {
  %2 = getelementptr inbounds %"struct.std::_Vector_base.1", %"struct.std::_Vector_base.1"* %0, i32 0, i32 0
  %3 = getelementptr inbounds %"struct.std::_Vector_base<long long, std::allocator<long long> >::_Vector_impl", %"struct.std::_Vector_base<long long, std::allocator<long long> >::_Vector_impl"* %2, i32 0, i32 0
  %4 = load i64*, i64** %3, align 8
  %5 = getelementptr inbounds %"struct.std::_Vector_base.1", %"struct.std::_Vector_base.1"* %0, i32 0, i32 0
  %6 = getelementptr inbounds %"struct.std::_Vector_base<long long, std::allocator<long long> >::_Vector_impl", %"struct.std::_Vector_base<long long, std::allocator<long long> >::_Vector_impl"* %5, i32 0, i32 2
  %7 = load i64*, i64** %6, align 8
  %8 = getelementptr inbounds %"struct.std::_Vector_base.1", %"struct.std::_Vector_base.1"* %0, i32 0, i32 0
  %9 = getelementptr inbounds %"struct.std::_Vector_base<long long, std::allocator<long long> >::_Vector_impl", %"struct.std::_Vector_base<long long, std::allocator<long long> >::_Vector_impl"* %8, i32 0, i32 0
  %10 = load i64*, i64** %9, align 8
  %11 = ptrtoint i64* %7 to i64
  %12 = ptrtoint i64* %10 to i64
  %13 = sub i64 %11, %12
  %14 = sdiv exact i64 %13, 8
  invoke void @_ZNSt12_Vector_baseIxSaIxEE13_M_deallocateEPxm(%"struct.std::_Vector_base.1"* %0, i64* %4, i64 %14)
          to label %15 unwind label %17

15:                                               ; preds = %1
  %16 = getelementptr inbounds %"struct.std::_Vector_base.1", %"struct.std::_Vector_base.1"* %0, i32 0, i32 0
  call void @_ZNSt12_Vector_baseIxSaIxEE12_Vector_implD2Ev(%"struct.std::_Vector_base<long long, std::allocator<long long> >::_Vector_impl"* %16) #3
  ret void

17:                                               ; preds = %1
  %18 = landingpad { i8*, i32 }
          catch i8* null
  %19 = extractvalue { i8*, i32 } %18, 0
  %20 = extractvalue { i8*, i32 } %18, 1
  %21 = getelementptr inbounds %"struct.std::_Vector_base.1", %"struct.std::_Vector_base.1"* %0, i32 0, i32 0
  call void @_ZNSt12_Vector_baseIxSaIxEE12_Vector_implD2Ev(%"struct.std::_Vector_base<long long, std::allocator<long long> >::_Vector_impl"* %21) #3
  br label %22

22:                                               ; preds = %17
  call void @__clang_call_terminate(i8* %19) #12
  unreachable
}

; Function Attrs: noinline nounwind uwtable
define linkonce_odr void @_ZNSt12_Vector_baseIxSaIxEE12_Vector_implD2Ev(%"struct.std::_Vector_base<long long, std::allocator<long long> >::_Vector_impl"* %0) unnamed_addr #5 comdat align 2 {
  %2 = bitcast %"struct.std::_Vector_base<long long, std::allocator<long long> >::_Vector_impl"* %0 to %"class.std::allocator.2"*
  call void @_ZNSaIxED2Ev(%"class.std::allocator.2"* %2) #3
  ret void
}

; Function Attrs: noinline nounwind uwtable
define linkonce_odr void @_ZNSaIxED2Ev(%"class.std::allocator.2"* %0) unnamed_addr #5 comdat align 2 {
  %2 = bitcast %"class.std::allocator.2"* %0 to %"class.__gnu_cxx::new_allocator.3"*
  call void @_ZN9__gnu_cxx13new_allocatorIxED2Ev(%"class.__gnu_cxx::new_allocator.3"* %2) #3
  ret void
}

; Function Attrs: noinline nounwind uwtable
define linkonce_odr void @_ZN9__gnu_cxx13new_allocatorIxED2Ev(%"class.__gnu_cxx::new_allocator.3"* %0) unnamed_addr #5 comdat align 2 {
  ret void
}

; Function Attrs: noinline nounwind uwtable
define linkonce_odr void @_ZNSt12_Vector_baseISt6vectorIxSaIxEESaIS2_EED2Ev(%"struct.std::_Vector_base"* %0) unnamed_addr #5 comdat align 2 personality i8* bitcast (i32 (...)* @__gxx_personality_v0 to i8*) {
  %2 = getelementptr inbounds %"struct.std::_Vector_base", %"struct.std::_Vector_base"* %0, i32 0, i32 0
  %3 = getelementptr inbounds %"struct.std::_Vector_base<std::vector<long long, std::allocator<long long> >, std::allocator<std::vector<long long, std::allocator<long long> > > >::_Vector_impl", %"struct.std::_Vector_base<std::vector<long long, std::allocator<long long> >, std::allocator<std::vector<long long, std::allocator<long long> > > >::_Vector_impl"* %2, i32 0, i32 0
  %4 = load %"class.std::vector.0"*, %"class.std::vector.0"** %3, align 8
  %5 = getelementptr inbounds %"struct.std::_Vector_base", %"struct.std::_Vector_base"* %0, i32 0, i32 0
  %6 = getelementptr inbounds %"struct.std::_Vector_base<std::vector<long long, std::allocator<long long> >, std::allocator<std::vector<long long, std::allocator<long long> > > >::_Vector_impl", %"struct.std::_Vector_base<std::vector<long long, std::allocator<long long> >, std::allocator<std::vector<long long, std::allocator<long long> > > >::_Vector_impl"* %5, i32 0, i32 2
  %7 = load %"class.std::vector.0"*, %"class.std::vector.0"** %6, align 8
  %8 = getelementptr inbounds %"struct.std::_Vector_base", %"struct.std::_Vector_base"* %0, i32 0, i32 0
  %9 = getelementptr inbounds %"struct.std::_Vector_base<std::vector<long long, std::allocator<long long> >, std::allocator<std::vector<long long, std::allocator<long long> > > >::_Vector_impl", %"struct.std::_Vector_base<std::vector<long long, std::allocator<long long> >, std::allocator<std::vector<long long, std::allocator<long long> > > >::_Vector_impl"* %8, i32 0, i32 0
  %10 = load %"class.std::vector.0"*, %"class.std::vector.0"** %9, align 8
  %11 = ptrtoint %"class.std::vector.0"* %7 to i64
  %12 = ptrtoint %"class.std::vector.0"* %10 to i64
  %13 = sub i64 %11, %12
  %14 = sdiv exact i64 %13, 24
  invoke void @_ZNSt12_Vector_baseISt6vectorIxSaIxEESaIS2_EE13_M_deallocateEPS2_m(%"struct.std::_Vector_base"* %0, %"class.std::vector.0"* %4, i64 %14)
          to label %15 unwind label %17

15:                                               ; preds = %1
  %16 = getelementptr inbounds %"struct.std::_Vector_base", %"struct.std::_Vector_base"* %0, i32 0, i32 0
  call void @_ZNSt12_Vector_baseISt6vectorIxSaIxEESaIS2_EE12_Vector_implD2Ev(%"struct.std::_Vector_base<std::vector<long long, std::allocator<long long> >, std::allocator<std::vector<long long, std::allocator<long long> > > >::_Vector_impl"* %16) #3
  ret void

17:                                               ; preds = %1
  %18 = landingpad { i8*, i32 }
          catch i8* null
  %19 = extractvalue { i8*, i32 } %18, 0
  %20 = extractvalue { i8*, i32 } %18, 1
  %21 = getelementptr inbounds %"struct.std::_Vector_base", %"struct.std::_Vector_base"* %0, i32 0, i32 0
  call void @_ZNSt12_Vector_baseISt6vectorIxSaIxEESaIS2_EE12_Vector_implD2Ev(%"struct.std::_Vector_base<std::vector<long long, std::allocator<long long> >, std::allocator<std::vector<long long, std::allocator<long long> > > >::_Vector_impl"* %21) #3
  br label %22

22:                                               ; preds = %17
  call void @__clang_call_terminate(i8* %19) #12
  unreachable
}

; Function Attrs: noinline nounwind uwtable
define linkonce_odr void @_ZNSt12_Vector_baseISt6vectorIxSaIxEESaIS2_EE12_Vector_implD2Ev(%"struct.std::_Vector_base<std::vector<long long, std::allocator<long long> >, std::allocator<std::vector<long long, std::allocator<long long> > > >::_Vector_impl"* %0) unnamed_addr #5 comdat align 2 {
  %2 = bitcast %"struct.std::_Vector_base<std::vector<long long, std::allocator<long long> >, std::allocator<std::vector<long long, std::allocator<long long> > > >::_Vector_impl"* %0 to %"class.std::allocator"*
  call void @_ZNSaISt6vectorIxSaIxEEED2Ev(%"class.std::allocator"* %2) #3
  ret void
}

; Function Attrs: noinline nounwind uwtable
define linkonce_odr void @_ZNSaISt6vectorIxSaIxEEED2Ev(%"class.std::allocator"* %0) unnamed_addr #5 comdat align 2 {
  %2 = bitcast %"class.std::allocator"* %0 to %"class.__gnu_cxx::new_allocator"*
  call void @_ZN9__gnu_cxx13new_allocatorISt6vectorIxSaIxEEED2Ev(%"class.__gnu_cxx::new_allocator"* %2) #3
  ret void
}

; Function Attrs: noinline nounwind uwtable
define linkonce_odr void @_ZN9__gnu_cxx13new_allocatorISt6vectorIxSaIxEEED2Ev(%"class.__gnu_cxx::new_allocator"* %0) unnamed_addr #5 comdat align 2 {
  ret void
}

; Function Attrs: noinline uwtable
define linkonce_odr void @_ZNSt6vectorIxSaIxEE9push_backERKx(%"class.std::vector.0"* %0, i64* dereferenceable(8) %1) #0 comdat align 2 {
  %3 = alloca %"class.__gnu_cxx::__normal_iterator", align 8
  %4 = bitcast %"class.std::vector.0"* %0 to %"struct.std::_Vector_base.1"*
  %5 = getelementptr inbounds %"struct.std::_Vector_base.1", %"struct.std::_Vector_base.1"* %4, i32 0, i32 0
  %6 = getelementptr inbounds %"struct.std::_Vector_base<long long, std::allocator<long long> >::_Vector_impl", %"struct.std::_Vector_base<long long, std::allocator<long long> >::_Vector_impl"* %5, i32 0, i32 1
  %7 = load i64*, i64** %6, align 8
  %8 = bitcast %"class.std::vector.0"* %0 to %"struct.std::_Vector_base.1"*
  %9 = getelementptr inbounds %"struct.std::_Vector_base.1", %"struct.std::_Vector_base.1"* %8, i32 0, i32 0
  %10 = getelementptr inbounds %"struct.std::_Vector_base<long long, std::allocator<long long> >::_Vector_impl", %"struct.std::_Vector_base<long long, std::allocator<long long> >::_Vector_impl"* %9, i32 0, i32 2
  %11 = load i64*, i64** %10, align 8
  %12 = icmp ne i64* %7, %11
  br i1 %12, label %13, label %26

13:                                               ; preds = %2
  %14 = bitcast %"class.std::vector.0"* %0 to %"struct.std::_Vector_base.1"*
  %15 = getelementptr inbounds %"struct.std::_Vector_base.1", %"struct.std::_Vector_base.1"* %14, i32 0, i32 0
  %16 = bitcast %"struct.std::_Vector_base<long long, std::allocator<long long> >::_Vector_impl"* %15 to %"class.std::allocator.2"*
  %17 = bitcast %"class.std::vector.0"* %0 to %"struct.std::_Vector_base.1"*
  %18 = getelementptr inbounds %"struct.std::_Vector_base.1", %"struct.std::_Vector_base.1"* %17, i32 0, i32 0
  %19 = getelementptr inbounds %"struct.std::_Vector_base<long long, std::allocator<long long> >::_Vector_impl", %"struct.std::_Vector_base<long long, std::allocator<long long> >::_Vector_impl"* %18, i32 0, i32 1
  %20 = load i64*, i64** %19, align 8
  call void @_ZNSt16allocator_traitsISaIxEE9constructIxJRKxEEEvRS0_PT_DpOT0_(%"class.std::allocator.2"* dereferenceable(1) %16, i64* %20, i64* dereferenceable(8) %1)
  %21 = bitcast %"class.std::vector.0"* %0 to %"struct.std::_Vector_base.1"*
  %22 = getelementptr inbounds %"struct.std::_Vector_base.1", %"struct.std::_Vector_base.1"* %21, i32 0, i32 0
  %23 = getelementptr inbounds %"struct.std::_Vector_base<long long, std::allocator<long long> >::_Vector_impl", %"struct.std::_Vector_base<long long, std::allocator<long long> >::_Vector_impl"* %22, i32 0, i32 1
  %24 = load i64*, i64** %23, align 8
  %25 = getelementptr inbounds i64, i64* %24, i32 1
  store i64* %25, i64** %23, align 8
  br label %31

26:                                               ; preds = %2
  %27 = call i64* @_ZNSt6vectorIxSaIxEE3endEv(%"class.std::vector.0"* %0) #3
  %28 = getelementptr inbounds %"class.__gnu_cxx::__normal_iterator", %"class.__gnu_cxx::__normal_iterator"* %3, i32 0, i32 0
  store i64* %27, i64** %28, align 8
  %29 = getelementptr inbounds %"class.__gnu_cxx::__normal_iterator", %"class.__gnu_cxx::__normal_iterator"* %3, i32 0, i32 0
  %30 = load i64*, i64** %29, align 8
  call void @_ZNSt6vectorIxSaIxEE17_M_realloc_insertIJRKxEEEvN9__gnu_cxx17__normal_iteratorIPxS1_EEDpOT_(%"class.std::vector.0"* %0, i64* %30, i64* dereferenceable(8) %1)
  br label %31

31:                                               ; preds = %26, %13
  ret void
}

; Function Attrs: noinline uwtable
define linkonce_odr void @_ZNSt6vectorIxSaIxEE17_M_realloc_insertIJRKxEEEvN9__gnu_cxx17__normal_iteratorIPxS1_EEDpOT_(%"class.std::vector.0"* %0, i64* %1, i64* dereferenceable(8) %2) #0 comdat align 2 personality i8* bitcast (i32 (...)* @__gxx_personality_v0 to i8*) {
  %4 = alloca %"class.__gnu_cxx::__normal_iterator", align 8
  %5 = alloca %"class.__gnu_cxx::__normal_iterator", align 8
  %6 = getelementptr inbounds %"class.__gnu_cxx::__normal_iterator", %"class.__gnu_cxx::__normal_iterator"* %4, i32 0, i32 0
  store i64* %1, i64** %6, align 8
  %7 = call i64 @_ZNKSt6vectorIxSaIxEE12_M_check_lenEmPKc(%"class.std::vector.0"* %0, i64 1, i8* getelementptr inbounds ([26 x i8], [26 x i8]* @.str.2, i32 0, i32 0))
  %8 = bitcast %"class.std::vector.0"* %0 to %"struct.std::_Vector_base.1"*
  %9 = getelementptr inbounds %"struct.std::_Vector_base.1", %"struct.std::_Vector_base.1"* %8, i32 0, i32 0
  %10 = getelementptr inbounds %"struct.std::_Vector_base<long long, std::allocator<long long> >::_Vector_impl", %"struct.std::_Vector_base<long long, std::allocator<long long> >::_Vector_impl"* %9, i32 0, i32 0
  %11 = load i64*, i64** %10, align 8
  %12 = bitcast %"class.std::vector.0"* %0 to %"struct.std::_Vector_base.1"*
  %13 = getelementptr inbounds %"struct.std::_Vector_base.1", %"struct.std::_Vector_base.1"* %12, i32 0, i32 0
  %14 = getelementptr inbounds %"struct.std::_Vector_base<long long, std::allocator<long long> >::_Vector_impl", %"struct.std::_Vector_base<long long, std::allocator<long long> >::_Vector_impl"* %13, i32 0, i32 1
  %15 = load i64*, i64** %14, align 8
  %16 = call i64* @_ZNSt6vectorIxSaIxEE5beginEv(%"class.std::vector.0"* %0) #3
  %17 = getelementptr inbounds %"class.__gnu_cxx::__normal_iterator", %"class.__gnu_cxx::__normal_iterator"* %5, i32 0, i32 0
  store i64* %16, i64** %17, align 8
  %18 = call i64 @_ZN9__gnu_cxxmiIPxSt6vectorIxSaIxEEEENS_17__normal_iteratorIT_T0_E15difference_typeERKS8_SB_(%"class.__gnu_cxx::__normal_iterator"* dereferenceable(8) %4, %"class.__gnu_cxx::__normal_iterator"* dereferenceable(8) %5) #3
  %19 = bitcast %"class.std::vector.0"* %0 to %"struct.std::_Vector_base.1"*
  %20 = call i64* @_ZNSt12_Vector_baseIxSaIxEE11_M_allocateEm(%"struct.std::_Vector_base.1"* %19, i64 %7)
  %21 = bitcast %"class.std::vector.0"* %0 to %"struct.std::_Vector_base.1"*
  %22 = getelementptr inbounds %"struct.std::_Vector_base.1", %"struct.std::_Vector_base.1"* %21, i32 0, i32 0
  %23 = bitcast %"struct.std::_Vector_base<long long, std::allocator<long long> >::_Vector_impl"* %22 to %"class.std::allocator.2"*
  %24 = getelementptr inbounds i64, i64* %20, i64 %18
  %25 = call dereferenceable(8) i64* @_ZSt7forwardIRKxEOT_RNSt16remove_referenceIS2_E4typeE(i64* dereferenceable(8) %2) #3
  invoke void @_ZNSt16allocator_traitsISaIxEE9constructIxJRKxEEEvRS0_PT_DpOT0_(%"class.std::allocator.2"* dereferenceable(1) %23, i64* %24, i64* dereferenceable(8) %25)
          to label %26 unwind label %40

26:                                               ; preds = %3
  %27 = call dereferenceable(8) i64** @_ZNK9__gnu_cxx17__normal_iteratorIPxSt6vectorIxSaIxEEE4baseEv(%"class.__gnu_cxx::__normal_iterator"* %4) #3
  %28 = load i64*, i64** %27, align 8
  %29 = bitcast %"class.std::vector.0"* %0 to %"struct.std::_Vector_base.1"*
  %30 = call dereferenceable(1) %"class.std::allocator.2"* @_ZNSt12_Vector_baseIxSaIxEE19_M_get_Tp_allocatorEv(%"struct.std::_Vector_base.1"* %29) #3
  %31 = invoke i64* @_ZSt34__uninitialized_move_if_noexcept_aIPxS0_SaIxEET0_T_S3_S2_RT1_(i64* %11, i64* %28, i64* %20, %"class.std::allocator.2"* dereferenceable(1) %30)
          to label %32 unwind label %40

32:                                               ; preds = %26
  %33 = getelementptr inbounds i64, i64* %31, i32 1
  %34 = call dereferenceable(8) i64** @_ZNK9__gnu_cxx17__normal_iteratorIPxSt6vectorIxSaIxEEE4baseEv(%"class.__gnu_cxx::__normal_iterator"* %4) #3
  %35 = load i64*, i64** %34, align 8
  %36 = bitcast %"class.std::vector.0"* %0 to %"struct.std::_Vector_base.1"*
  %37 = call dereferenceable(1) %"class.std::allocator.2"* @_ZNSt12_Vector_baseIxSaIxEE19_M_get_Tp_allocatorEv(%"struct.std::_Vector_base.1"* %36) #3
  %38 = invoke i64* @_ZSt34__uninitialized_move_if_noexcept_aIPxS0_SaIxEET0_T_S3_S2_RT1_(i64* %35, i64* %15, i64* %33, %"class.std::allocator.2"* dereferenceable(1) %37)
          to label %39 unwind label %40

39:                                               ; preds = %32
  br label %65

40:                                               ; preds = %32, %26, %3
  %.0 = phi i64* [ %33, %32 ], [ null, %26 ], [ %20, %3 ]
  %41 = landingpad { i8*, i32 }
          catch i8* null
  %42 = extractvalue { i8*, i32 } %41, 0
  %43 = extractvalue { i8*, i32 } %41, 1
  br label %44

44:                                               ; preds = %40
  %45 = call i8* @__cxa_begin_catch(i8* %42) #3
  %46 = icmp ne i64* %.0, null
  br i1 %46, label %57, label %47

47:                                               ; preds = %44
  %48 = bitcast %"class.std::vector.0"* %0 to %"struct.std::_Vector_base.1"*
  %49 = getelementptr inbounds %"struct.std::_Vector_base.1", %"struct.std::_Vector_base.1"* %48, i32 0, i32 0
  %50 = bitcast %"struct.std::_Vector_base<long long, std::allocator<long long> >::_Vector_impl"* %49 to %"class.std::allocator.2"*
  %51 = getelementptr inbounds i64, i64* %20, i64 %18
  invoke void @_ZNSt16allocator_traitsISaIxEE7destroyIxEEvRS0_PT_(%"class.std::allocator.2"* dereferenceable(1) %50, i64* %51)
          to label %52 unwind label %53

52:                                               ; preds = %47
  br label %61

53:                                               ; preds = %63, %61, %57, %47
  %54 = landingpad { i8*, i32 }
          cleanup
  %55 = extractvalue { i8*, i32 } %54, 0
  %56 = extractvalue { i8*, i32 } %54, 1
  invoke void @__cxa_end_catch()
          to label %64 unwind label %90

57:                                               ; preds = %44
  %58 = bitcast %"class.std::vector.0"* %0 to %"struct.std::_Vector_base.1"*
  %59 = call dereferenceable(1) %"class.std::allocator.2"* @_ZNSt12_Vector_baseIxSaIxEE19_M_get_Tp_allocatorEv(%"struct.std::_Vector_base.1"* %58) #3
  invoke void @_ZSt8_DestroyIPxxEvT_S1_RSaIT0_E(i64* %20, i64* %.0, %"class.std::allocator.2"* dereferenceable(1) %59)
          to label %60 unwind label %53

60:                                               ; preds = %57
  br label %61

61:                                               ; preds = %60, %52
  %62 = bitcast %"class.std::vector.0"* %0 to %"struct.std::_Vector_base.1"*
  invoke void @_ZNSt12_Vector_baseIxSaIxEE13_M_deallocateEPxm(%"struct.std::_Vector_base.1"* %62, i64* %20, i64 %7)
          to label %63 unwind label %53

63:                                               ; preds = %61
  invoke void @__cxa_rethrow() #13
          to label %93 unwind label %53

64:                                               ; preds = %53
  br label %87

65:                                               ; preds = %39
  %66 = bitcast %"class.std::vector.0"* %0 to %"struct.std::_Vector_base.1"*
  %67 = call dereferenceable(1) %"class.std::allocator.2"* @_ZNSt12_Vector_baseIxSaIxEE19_M_get_Tp_allocatorEv(%"struct.std::_Vector_base.1"* %66) #3
  call void @_ZSt8_DestroyIPxxEvT_S1_RSaIT0_E(i64* %11, i64* %15, %"class.std::allocator.2"* dereferenceable(1) %67)
  %68 = bitcast %"class.std::vector.0"* %0 to %"struct.std::_Vector_base.1"*
  %69 = bitcast %"class.std::vector.0"* %0 to %"struct.std::_Vector_base.1"*
  %70 = getelementptr inbounds %"struct.std::_Vector_base.1", %"struct.std::_Vector_base.1"* %69, i32 0, i32 0
  %71 = getelementptr inbounds %"struct.std::_Vector_base<long long, std::allocator<long long> >::_Vector_impl", %"struct.std::_Vector_base<long long, std::allocator<long long> >::_Vector_impl"* %70, i32 0, i32 2
  %72 = load i64*, i64** %71, align 8
  %73 = ptrtoint i64* %72 to i64
  %74 = ptrtoint i64* %11 to i64
  %75 = sub i64 %73, %74
  %76 = sdiv exact i64 %75, 8
  call void @_ZNSt12_Vector_baseIxSaIxEE13_M_deallocateEPxm(%"struct.std::_Vector_base.1"* %68, i64* %11, i64 %76)
  %77 = bitcast %"class.std::vector.0"* %0 to %"struct.std::_Vector_base.1"*
  %78 = getelementptr inbounds %"struct.std::_Vector_base.1", %"struct.std::_Vector_base.1"* %77, i32 0, i32 0
  %79 = getelementptr inbounds %"struct.std::_Vector_base<long long, std::allocator<long long> >::_Vector_impl", %"struct.std::_Vector_base<long long, std::allocator<long long> >::_Vector_impl"* %78, i32 0, i32 0
  store i64* %20, i64** %79, align 8
  %80 = bitcast %"class.std::vector.0"* %0 to %"struct.std::_Vector_base.1"*
  %81 = getelementptr inbounds %"struct.std::_Vector_base.1", %"struct.std::_Vector_base.1"* %80, i32 0, i32 0
  %82 = getelementptr inbounds %"struct.std::_Vector_base<long long, std::allocator<long long> >::_Vector_impl", %"struct.std::_Vector_base<long long, std::allocator<long long> >::_Vector_impl"* %81, i32 0, i32 1
  store i64* %38, i64** %82, align 8
  %83 = getelementptr inbounds i64, i64* %20, i64 %7
  %84 = bitcast %"class.std::vector.0"* %0 to %"struct.std::_Vector_base.1"*
  %85 = getelementptr inbounds %"struct.std::_Vector_base.1", %"struct.std::_Vector_base.1"* %84, i32 0, i32 0
  %86 = getelementptr inbounds %"struct.std::_Vector_base<long long, std::allocator<long long> >::_Vector_impl", %"struct.std::_Vector_base<long long, std::allocator<long long> >::_Vector_impl"* %85, i32 0, i32 2
  store i64* %83, i64** %86, align 8
  ret void

87:                                               ; preds = %64
  %88 = insertvalue { i8*, i32 } undef, i8* %55, 0
  %89 = insertvalue { i8*, i32 } %88, i32 %56, 1
  resume { i8*, i32 } %89

90:                                               ; preds = %53
  %91 = landingpad { i8*, i32 }
          catch i8* null
  %92 = extractvalue { i8*, i32 } %91, 0
  call void @__clang_call_terminate(i8* %92) #12
  unreachable

93:                                               ; preds = %63
  unreachable
}

; Function Attrs: noinline uwtable
define linkonce_odr void @_ZSt4fillIN9__gnu_cxx17__normal_iteratorIPxSt6vectorIxSaIxEEEEiEvT_S7_RKT0_(i64* %0, i64* %1, i32* dereferenceable(4) %2) #0 comdat {
  %4 = alloca %"class.__gnu_cxx::__normal_iterator", align 8
  %5 = alloca %"class.__gnu_cxx::__normal_iterator", align 8
  %6 = alloca %"class.__gnu_cxx::__normal_iterator", align 8
  %7 = alloca %"class.__gnu_cxx::__normal_iterator", align 8
  %8 = getelementptr inbounds %"class.__gnu_cxx::__normal_iterator", %"class.__gnu_cxx::__normal_iterator"* %4, i32 0, i32 0
  store i64* %0, i64** %8, align 8
  %9 = getelementptr inbounds %"class.__gnu_cxx::__normal_iterator", %"class.__gnu_cxx::__normal_iterator"* %5, i32 0, i32 0
  store i64* %1, i64** %9, align 8
  %10 = bitcast %"class.__gnu_cxx::__normal_iterator"* %6 to i8*
  %11 = bitcast %"class.__gnu_cxx::__normal_iterator"* %4 to i8*
  call void @llvm.memcpy.p0i8.p0i8.i64(i8* align 8 %10, i8* align 8 %11, i64 8, i1 false)
  %12 = getelementptr inbounds %"class.__gnu_cxx::__normal_iterator", %"class.__gnu_cxx::__normal_iterator"* %6, i32 0, i32 0
  %13 = load i64*, i64** %12, align 8
  %14 = call i64* @_ZSt12__niter_baseIPxSt6vectorIxSaIxEEET_N9__gnu_cxx17__normal_iteratorIS4_T0_EE(i64* %13)
  %15 = bitcast %"class.__gnu_cxx::__normal_iterator"* %7 to i8*
  %16 = bitcast %"class.__gnu_cxx::__normal_iterator"* %5 to i8*
  call void @llvm.memcpy.p0i8.p0i8.i64(i8* align 8 %15, i8* align 8 %16, i64 8, i1 false)
  %17 = getelementptr inbounds %"class.__gnu_cxx::__normal_iterator", %"class.__gnu_cxx::__normal_iterator"* %7, i32 0, i32 0
  %18 = load i64*, i64** %17, align 8
  %19 = call i64* @_ZSt12__niter_baseIPxSt6vectorIxSaIxEEET_N9__gnu_cxx17__normal_iteratorIS4_T0_EE(i64* %18)
  call void @_ZSt8__fill_aIPxiEN9__gnu_cxx11__enable_ifIXsr11__is_scalarIT0_EE7__valueEvE6__typeET_S6_RKS3_(i64* %14, i64* %19, i32* dereferenceable(4) %2)
  ret void
}

; Function Attrs: noinline uwtable
define linkonce_odr zeroext i1 @_ZN17BipartiteMatching3dfsEx(%struct.BipartiteMatching* %0, i64 %1) #0 comdat align 2 {
  %3 = getelementptr inbounds %struct.BipartiteMatching, %struct.BipartiteMatching* %0, i32 0, i32 3
  %4 = call dereferenceable(8) i64* @_ZNSt6vectorIxSaIxEEixEm(%"class.std::vector.0"* %3, i64 %1) #3
  store i64 1, i64* %4, align 8
  br label %5

5:                                                ; preds = %32, %2
  %.01 = phi i64 [ 0, %2 ], [ %33, %32 ]
  %6 = getelementptr inbounds %struct.BipartiteMatching, %struct.BipartiteMatching* %0, i32 0, i32 0
  %7 = call dereferenceable(24) %"class.std::vector.0"* @_ZNSt6vectorIS_IxSaIxEESaIS1_EEixEm(%"class.std::vector"* %6, i64 %1) #3
  %8 = call i64 @_ZNKSt6vectorIxSaIxEE4sizeEv(%"class.std::vector.0"* %7) #3
  %9 = icmp slt i64 %.01, %8
  br i1 %9, label %10, label %34

10:                                               ; preds = %5
  %11 = getelementptr inbounds %struct.BipartiteMatching, %struct.BipartiteMatching* %0, i32 0, i32 0
  %12 = call dereferenceable(24) %"class.std::vector.0"* @_ZNSt6vectorIS_IxSaIxEESaIS1_EEixEm(%"class.std::vector"* %11, i64 %1) #3
  %13 = call dereferenceable(8) i64* @_ZNSt6vectorIxSaIxEEixEm(%"class.std::vector.0"* %12, i64 %.01) #3
  %14 = load i64, i64* %13, align 8
  %15 = getelementptr inbounds %struct.BipartiteMatching, %struct.BipartiteMatching* %0, i32 0, i32 2
  %16 = call dereferenceable(8) i64* @_ZNSt6vectorIxSaIxEEixEm(%"class.std::vector.0"* %15, i64 %14) #3
  %17 = load i64, i64* %16, align 8
  %18 = icmp slt i64 %17, 0
  br i1 %18, label %26, label %19

19:                                               ; preds = %10
  %20 = getelementptr inbounds %struct.BipartiteMatching, %struct.BipartiteMatching* %0, i32 0, i32 3
  %21 = call dereferenceable(8) i64* @_ZNSt6vectorIxSaIxEEixEm(%"class.std::vector.0"* %20, i64 %17) #3
  %22 = load i64, i64* %21, align 8
  %23 = icmp ne i64 %22, 0
  br i1 %23, label %31, label %24

24:                                               ; preds = %19
  %25 = call zeroext i1 @_ZN17BipartiteMatching3dfsEx(%struct.BipartiteMatching* %0, i64 %17)
  br i1 %25, label %26, label %31

26:                                               ; preds = %24, %10
  %27 = getelementptr inbounds %struct.BipartiteMatching, %struct.BipartiteMatching* %0, i32 0, i32 2
  %28 = call dereferenceable(8) i64* @_ZNSt6vectorIxSaIxEEixEm(%"class.std::vector.0"* %27, i64 %1) #3
  store i64 %14, i64* %28, align 8
  %29 = getelementptr inbounds %struct.BipartiteMatching, %struct.BipartiteMatching* %0, i32 0, i32 2
  %30 = call dereferenceable(8) i64* @_ZNSt6vectorIxSaIxEEixEm(%"class.std::vector.0"* %29, i64 %14) #3
  store i64 %1, i64* %30, align 8
  br label %35

31:                                               ; preds = %24, %19
  br label %32

32:                                               ; preds = %31
  %33 = add nsw i64 %.01, 1
  br label %5

34:                                               ; preds = %5
  br label %35

35:                                               ; preds = %34, %26
  %.0 = phi i1 [ true, %26 ], [ false, %34 ]
  ret i1 %.0
}

; Function Attrs: noinline nounwind uwtable
define linkonce_odr void @_ZSt8__fill_aIPxiEN9__gnu_cxx11__enable_ifIXsr11__is_scalarIT0_EE7__valueEvE6__typeET_S6_RKS3_(i64* %0, i64* %1, i32* dereferenceable(4) %2) #5 comdat {
  %4 = load i32, i32* %2, align 4
  br label %5

5:                                                ; preds = %9, %3
  %.0 = phi i64* [ %0, %3 ], [ %10, %9 ]
  %6 = icmp ne i64* %.0, %1
  br i1 %6, label %7, label %11

7:                                                ; preds = %5
  %8 = sext i32 %4 to i64
  store i64 %8, i64* %.0, align 8
  br label %9

9:                                                ; preds = %7
  %10 = getelementptr inbounds i64, i64* %.0, i32 1
  br label %5

11:                                               ; preds = %5
  ret void
}

; Function Attrs: noinline nounwind uwtable
define linkonce_odr i64* @_ZSt12__niter_baseIPxSt6vectorIxSaIxEEET_N9__gnu_cxx17__normal_iteratorIS4_T0_EE(i64* %0) #5 comdat {
  %2 = alloca %"class.__gnu_cxx::__normal_iterator", align 8
  %3 = getelementptr inbounds %"class.__gnu_cxx::__normal_iterator", %"class.__gnu_cxx::__normal_iterator"* %2, i32 0, i32 0
  store i64* %0, i64** %3, align 8
  %4 = call dereferenceable(8) i64** @_ZNK9__gnu_cxx17__normal_iteratorIPxSt6vectorIxSaIxEEE4baseEv(%"class.__gnu_cxx::__normal_iterator"* %2) #3
  %5 = load i64*, i64** %4, align 8
  ret i64* %5
}

; Function Attrs: noinline nounwind uwtable
define linkonce_odr dereferenceable(8) i64* @_ZNSt6vectorIxSaIxEEixEm(%"class.std::vector.0"* %0, i64 %1) #5 comdat align 2 {
  %3 = bitcast %"class.std::vector.0"* %0 to %"struct.std::_Vector_base.1"*
  %4 = getelementptr inbounds %"struct.std::_Vector_base.1", %"struct.std::_Vector_base.1"* %3, i32 0, i32 0
  %5 = getelementptr inbounds %"struct.std::_Vector_base<long long, std::allocator<long long> >::_Vector_impl", %"struct.std::_Vector_base<long long, std::allocator<long long> >::_Vector_impl"* %4, i32 0, i32 0
  %6 = load i64*, i64** %5, align 8
  %7 = getelementptr inbounds i64, i64* %6, i64 %1
  ret i64* %7
}

; Function Attrs: noinline uwtable
define internal void @_GLOBAL__sub_I_s507968744.cpp() #0 section ".text.startup" {
  call void @__cxx_global_var_init()
  ret void
}

; Function Attrs: argmemonly nocallback nofree nounwind willreturn
declare void @llvm.memcpy.p0i8.p0i8.i64(i8* noalias nocapture writeonly, i8* noalias nocapture readonly, i64, i1 immarg) #11

; Function Attrs: argmemonly nocallback nofree nounwind willreturn
declare void @llvm.memmove.p0i8.p0i8.i64(i8* nocapture writeonly, i8* nocapture readonly, i64, i1 immarg) #11

attributes #0 = { noinline uwtable "correctly-rounded-divide-sqrt-fp-math"="false" "disable-tail-calls"="false" "less-precise-fpmad"="false" "no-frame-pointer-elim"="true" "no-frame-pointer-elim-non-leaf" "no-infs-fp-math"="false" "no-jump-tables"="false" "no-nans-fp-math"="false" "no-signed-zeros-fp-math"="false" "no-trapping-math"="false" "stack-protector-buffer-size"="8" "target-cpu"="x86-64" "target-features"="+fxsr,+mmx,+sse,+sse2,+x87" "unsafe-fp-math"="false" "use-soft-float"="false" }
attributes #1 = { "correctly-rounded-divide-sqrt-fp-math"="false" "disable-tail-calls"="false" "less-precise-fpmad"="false" "no-frame-pointer-elim"="true" "no-frame-pointer-elim-non-leaf" "no-infs-fp-math"="false" "no-nans-fp-math"="false" "no-signed-zeros-fp-math"="false" "no-trapping-math"="false" "stack-protector-buffer-size"="8" "target-cpu"="x86-64" "target-features"="+fxsr,+mmx,+sse,+sse2,+x87" "unsafe-fp-math"="false" "use-soft-float"="false" }
attributes #2 = { nounwind "correctly-rounded-divide-sqrt-fp-math"="false" "disable-tail-calls"="false" "less-precise-fpmad"="false" "no-frame-pointer-elim"="true" "no-frame-pointer-elim-non-leaf" "no-infs-fp-math"="false" "no-nans-fp-math"="false" "no-signed-zeros-fp-math"="false" "no-trapping-math"="false" "stack-protector-buffer-size"="8" "target-cpu"="x86-64" "target-features"="+fxsr,+mmx,+sse,+sse2,+x87" "unsafe-fp-math"="false" "use-soft-float"="false" }
attributes #3 = { nounwind }
attributes #4 = { noinline norecurse uwtable "correctly-rounded-divide-sqrt-fp-math"="false" "disable-tail-calls"="false" "less-precise-fpmad"="false" "no-frame-pointer-elim"="true" "no-frame-pointer-elim-non-leaf" "no-infs-fp-math"="false" "no-jump-tables"="false" "no-nans-fp-math"="false" "no-signed-zeros-fp-math"="false" "no-trapping-math"="false" "stack-protector-buffer-size"="8" "target-cpu"="x86-64" "target-features"="+fxsr,+mmx,+sse,+sse2,+x87" "unsafe-fp-math"="false" "use-soft-float"="false" }
attributes #5 = { noinline nounwind uwtable "correctly-rounded-divide-sqrt-fp-math"="false" "disable-tail-calls"="false" "less-precise-fpmad"="false" "no-frame-pointer-elim"="true" "no-frame-pointer-elim-non-leaf" "no-infs-fp-math"="false" "no-jump-tables"="false" "no-nans-fp-math"="false" "no-signed-zeros-fp-math"="false" "no-trapping-math"="false" "stack-protector-buffer-size"="8" "target-cpu"="x86-64" "target-features"="+fxsr,+mmx,+sse,+sse2,+x87" "unsafe-fp-math"="false" "use-soft-float"="false" }
attributes #6 = { noinline noreturn nounwind }
attributes #7 = { cold noreturn nounwind }
attributes #8 = { noreturn "correctly-rounded-divide-sqrt-fp-math"="false" "disable-tail-calls"="false" "less-precise-fpmad"="false" "no-frame-pointer-elim"="true" "no-frame-pointer-elim-non-leaf" "no-infs-fp-math"="false" "no-nans-fp-math"="false" "no-signed-zeros-fp-math"="false" "no-trapping-math"="false" "stack-protector-buffer-size"="8" "target-cpu"="x86-64" "target-features"="+fxsr,+mmx,+sse,+sse2,+x87" "unsafe-fp-math"="false" "use-soft-float"="false" }
attributes #9 = { nobuiltin "correctly-rounded-divide-sqrt-fp-math"="false" "disable-tail-calls"="false" "less-precise-fpmad"="false" "no-frame-pointer-elim"="true" "no-frame-pointer-elim-non-leaf" "no-infs-fp-math"="false" "no-nans-fp-math"="false" "no-signed-zeros-fp-math"="false" "no-trapping-math"="false" "stack-protector-buffer-size"="8" "target-cpu"="x86-64" "target-features"="+fxsr,+mmx,+sse,+sse2,+x87" "unsafe-fp-math"="false" "use-soft-float"="false" }
attributes #10 = { nobuiltin nounwind "correctly-rounded-divide-sqrt-fp-math"="false" "disable-tail-calls"="false" "less-precise-fpmad"="false" "no-frame-pointer-elim"="true" "no-frame-pointer-elim-non-leaf" "no-infs-fp-math"="false" "no-nans-fp-math"="false" "no-signed-zeros-fp-math"="false" "no-trapping-math"="false" "stack-protector-buffer-size"="8" "target-cpu"="x86-64" "target-features"="+fxsr,+mmx,+sse,+sse2,+x87" "unsafe-fp-math"="false" "use-soft-float"="false" }
attributes #11 = { argmemonly nocallback nofree nounwind willreturn }
attributes #12 = { noreturn nounwind }
attributes #13 = { noreturn }

!llvm.module.flags = !{!0}
!llvm.ident = !{!1}

!0 = !{i32 1, !"wchar_size", i32 4}
!1 = !{!"clang version 6.0.0-1ubuntu2 (tags/RELEASE_600/final)"}
