; ModuleID = '/home/pedro/tcc/exDataset/codenet/data/selection/p02799/s054500487.ll'
source_filename = "/home/pedro/tcc/exDataset/codenet/data/selection/p02799/s054500487.cpp"
target datalayout = "e-m:e-i64:64-f80:128-n8:16:32:64-S128"
target triple = "x86_64-pc-linux-gnu"

%"class.std::ios_base::Init" = type { i8 }
%"class.std::vector" = type { %"struct.std::_Vector_base" }
%"struct.std::_Vector_base" = type { %"struct.std::_Vector_base<std::vector<Edge, std::allocator<Edge> >, std::allocator<std::vector<Edge, std::allocator<Edge> > > >::_Vector_impl" }
%"struct.std::_Vector_base<std::vector<Edge, std::allocator<Edge> >, std::allocator<std::vector<Edge, std::allocator<Edge> > > >::_Vector_impl" = type { %"class.std::vector.0"*, %"class.std::vector.0"*, %"class.std::vector.0"* }
%"class.std::vector.0" = type { %"struct.std::_Vector_base.1" }
%"struct.std::_Vector_base.1" = type { %"struct.std::_Vector_base<Edge, std::allocator<Edge> >::_Vector_impl" }
%"struct.std::_Vector_base<Edge, std::allocator<Edge> >::_Vector_impl" = type { %struct.Edge*, %struct.Edge*, %struct.Edge* }
%struct.Edge = type { i64, i64 }
%"class.std::basic_istream" = type { i32 (...)**, i64, %"class.std::basic_ios" }
%"class.std::basic_ios" = type { %"class.std::ios_base", %"class.std::basic_ostream"*, i8, i8, %"class.std::basic_streambuf"*, %"class.std::ctype"*, %"class.std::num_put"*, %"class.std::num_get"* }
%"class.std::ios_base" = type { i32 (...)**, i64, i64, i32, i32, i32, %"struct.std::ios_base::_Callback_list"*, %"struct.std::ios_base::_Words", [8 x %"struct.std::ios_base::_Words"], i32, %"struct.std::ios_base::_Words"*, %"class.std::locale" }
%"struct.std::ios_base::_Callback_list" = type { %"struct.std::ios_base::_Callback_list"*, void (i32, %"class.std::ios_base"*, i32)*, i32, i32 }
%"struct.std::ios_base::_Words" = type { i8*, i64 }
%"class.std::locale" = type { %"class.std::locale::_Impl"* }
%"class.std::locale::_Impl" = type { i32, %"class.std::locale::facet"**, i64, %"class.std::locale::facet"**, i8** }
%"class.std::locale::facet" = type <{ i32 (...)**, i32, [4 x i8] }>
%"class.std::basic_ostream" = type { i32 (...)**, %"class.std::basic_ios" }
%"class.std::basic_streambuf" = type { i32 (...)**, i8*, i8*, i8*, i8*, i8*, i8*, %"class.std::locale" }
%"class.std::ctype" = type <{ %"class.std::locale::facet.base", [4 x i8], %struct.__locale_struct*, i8, [7 x i8], i32*, i32*, i16*, i8, [256 x i8], [256 x i8], i8, [6 x i8] }>
%"class.std::locale::facet.base" = type <{ i32 (...)**, i32 }>
%struct.__locale_struct = type { [13 x %struct.__locale_data*], i16*, i32*, i32*, [13 x i8*] }
%struct.__locale_data = type opaque
%"class.std::num_put" = type { %"class.std::locale::facet.base", [4 x i8] }
%"class.std::num_get" = type { %"class.std::locale::facet.base", [4 x i8] }
%"class.std::allocator" = type { i8 }
%"class.__gnu_cxx::new_allocator" = type { i8 }
%"class.std::__cxx11::basic_string" = type { %"struct.std::__cxx11::basic_string<char, std::char_traits<char>, std::allocator<char> >::_Alloc_hider", i64, %union.anon }
%"struct.std::__cxx11::basic_string<char, std::char_traits<char>, std::allocator<char> >::_Alloc_hider" = type { i8* }
%union.anon = type { i64, [8 x i8] }
%"class.std::allocator.5" = type { i8 }
%"class.std::priority_queue" = type <{ %"class.std::vector.8", %"struct.std::greater", [7 x i8] }>
%"class.std::vector.8" = type { %"struct.std::_Vector_base.9" }
%"struct.std::_Vector_base.9" = type { %"struct.std::_Vector_base<std::pair<long long, long long>, std::allocator<std::pair<long long, long long> > >::_Vector_impl" }
%"struct.std::_Vector_base<std::pair<long long, long long>, std::allocator<std::pair<long long, long long> > >::_Vector_impl" = type { %"struct.std::pair"*, %"struct.std::pair"*, %"struct.std::pair"* }
%"struct.std::pair" = type { i64, i64 }
%"struct.std::greater" = type { i8 }
%"class.__gnu_cxx::__normal_iterator" = type { %struct.Edge* }
%"class.__gnu_cxx::__normal_iterator.13" = type { %"struct.std::pair"* }
%"class.std::allocator.2" = type { i8 }
%"struct.__gnu_cxx::__ops::_Iter_equals_val" = type { i8* }
%"class.std::allocator.10" = type { i8 }
%"class.__gnu_cxx::new_allocator.11" = type { i8 }
%"class.__gnu_cxx::new_allocator.3" = type { i8 }
%"struct.__gnu_cxx::__ops::_Iter_comp_val" = type { %"struct.std::greater" }
%"class.std::__pair_base" = type { i8 }
%"class.std::move_iterator" = type { %"struct.std::pair"* }
%"class.std::move_iterator.14" = type { %struct.Edge* }
%"class.__gnu_cxx::__normal_iterator.15" = type { %"struct.std::pair"* }
%"struct.__gnu_cxx::__ops::_Iter_comp_iter" = type { %"struct.std::greater" }

$_ZNSaISt6vectorI4EdgeSaIS0_EEEC2Ev = comdat any

$_ZNSt6vectorIS_I4EdgeSaIS0_EESaIS2_EEC2EmRKS3_ = comdat any

$_ZNSaISt6vectorI4EdgeSaIS0_EEED2Ev = comdat any

$_ZNSt6vectorIS_I4EdgeSaIS0_EESaIS2_EED2Ev = comdat any

$_ZNSt14priority_queueISt4pairIxxESt6vectorIS1_SaIS1_EESt7greaterIS1_EEC2IS4_vEEv = comdat any

$_ZSt6fill_nIPxiiET_S1_T0_RKT1_ = comdat any

$_ZNSt14priority_queueISt4pairIxxESt6vectorIS1_SaIS1_EESt7greaterIS1_EE7emplaceIJRxS9_EEEvDpOT_ = comdat any

$_ZNSt6vectorIS_I4EdgeSaIS0_EESaIS2_EEixEm = comdat any

$_ZNSt6vectorI4EdgeSaIS0_EE12emplace_backIJRxRiEEEvDpOT_ = comdat any

$_ZNKSt14priority_queueISt4pairIxxESt6vectorIS1_SaIS1_EESt7greaterIS1_EE5emptyEv = comdat any

$_ZNKSt14priority_queueISt4pairIxxESt6vectorIS1_SaIS1_EESt7greaterIS1_EE3topEv = comdat any

$_ZNSt14priority_queueISt4pairIxxESt6vectorIS1_SaIS1_EESt7greaterIS1_EE3popEv = comdat any

$_ZNSt6vectorI4EdgeSaIS0_EE5beginEv = comdat any

$_ZNSt6vectorI4EdgeSaIS0_EE3endEv = comdat any

$_ZN9__gnu_cxxneIP4EdgeSt6vectorIS1_SaIS1_EEEEbRKNS_17__normal_iteratorIT_T0_EESB_ = comdat any

$_ZNK9__gnu_cxx17__normal_iteratorIP4EdgeSt6vectorIS1_SaIS1_EEEdeEv = comdat any

$_ZN9__gnu_cxx17__normal_iteratorIP4EdgeSt6vectorIS1_SaIS1_EEEppEv = comdat any

$_ZSt5countIPbbENSt15iterator_traitsIT_E15difference_typeES2_S2_RKT0_ = comdat any

$_ZNSt14priority_queueISt4pairIxxESt6vectorIS1_SaIS1_EESt7greaterIS1_EED2Ev = comdat any

$_ZNSt6vectorISt4pairIxxESaIS1_EED2Ev = comdat any

$_ZSt8_DestroyIPSt4pairIxxES1_EvT_S3_RSaIT0_E = comdat any

$_ZNSt12_Vector_baseISt4pairIxxESaIS1_EE19_M_get_Tp_allocatorEv = comdat any

$_ZNSt12_Vector_baseISt4pairIxxESaIS1_EED2Ev = comdat any

$__clang_call_terminate = comdat any

$_ZSt8_DestroyIPSt4pairIxxEEvT_S3_ = comdat any

$_ZNSt12_Destroy_auxILb1EE9__destroyIPSt4pairIxxEEEvT_S5_ = comdat any

$_ZNSt12_Vector_baseISt4pairIxxESaIS1_EE13_M_deallocateEPS1_m = comdat any

$_ZNSt12_Vector_baseISt4pairIxxESaIS1_EE12_Vector_implD2Ev = comdat any

$_ZNSt16allocator_traitsISaISt4pairIxxEEE10deallocateERS2_PS1_m = comdat any

$_ZN9__gnu_cxx13new_allocatorISt4pairIxxEE10deallocateEPS2_m = comdat any

$_ZNSaISt4pairIxxEED2Ev = comdat any

$_ZN9__gnu_cxx13new_allocatorISt4pairIxxEED2Ev = comdat any

$_ZN9__gnu_cxx13new_allocatorISt6vectorI4EdgeSaIS2_EEEC2Ev = comdat any

$_ZN9__gnu_cxx13new_allocatorISt6vectorI4EdgeSaIS2_EEED2Ev = comdat any

$_ZNSt12_Vector_baseISt6vectorI4EdgeSaIS1_EESaIS3_EEC2EmRKS4_ = comdat any

$_ZNSt6vectorIS_I4EdgeSaIS0_EESaIS2_EE21_M_default_initializeEm = comdat any

$_ZNSt12_Vector_baseISt6vectorI4EdgeSaIS1_EESaIS3_EED2Ev = comdat any

$_ZNSt12_Vector_baseISt6vectorI4EdgeSaIS1_EESaIS3_EE12_Vector_implC2ERKS4_ = comdat any

$_ZNSt12_Vector_baseISt6vectorI4EdgeSaIS1_EESaIS3_EE17_M_create_storageEm = comdat any

$_ZNSt12_Vector_baseISt6vectorI4EdgeSaIS1_EESaIS3_EE12_Vector_implD2Ev = comdat any

$_ZNSaISt6vectorI4EdgeSaIS0_EEEC2ERKS3_ = comdat any

$_ZN9__gnu_cxx13new_allocatorISt6vectorI4EdgeSaIS2_EEEC2ERKS5_ = comdat any

$_ZNSt12_Vector_baseISt6vectorI4EdgeSaIS1_EESaIS3_EE11_M_allocateEm = comdat any

$_ZNSt16allocator_traitsISaISt6vectorI4EdgeSaIS1_EEEE8allocateERS4_m = comdat any

$_ZN9__gnu_cxx13new_allocatorISt6vectorI4EdgeSaIS2_EEE8allocateEmPKv = comdat any

$_ZNK9__gnu_cxx13new_allocatorISt6vectorI4EdgeSaIS2_EEE8max_sizeEv = comdat any

$_ZSt27__uninitialized_default_n_aIPSt6vectorI4EdgeSaIS1_EEmS3_ET_S5_T0_RSaIT1_E = comdat any

$_ZNSt12_Vector_baseISt6vectorI4EdgeSaIS1_EESaIS3_EE19_M_get_Tp_allocatorEv = comdat any

$_ZSt25__uninitialized_default_nIPSt6vectorI4EdgeSaIS1_EEmET_S5_T0_ = comdat any

$_ZNSt27__uninitialized_default_n_1ILb0EE18__uninit_default_nIPSt6vectorI4EdgeSaIS3_EEmEET_S7_T0_ = comdat any

$_ZSt10_ConstructISt6vectorI4EdgeSaIS1_EEJEEvPT_DpOT0_ = comdat any

$_ZSt11__addressofISt6vectorI4EdgeSaIS1_EEEPT_RS4_ = comdat any

$_ZSt8_DestroyIPSt6vectorI4EdgeSaIS1_EEEvT_S5_ = comdat any

$_ZNSt6vectorI4EdgeSaIS0_EEC2Ev = comdat any

$_ZNSt12_Vector_baseI4EdgeSaIS0_EEC2Ev = comdat any

$_ZNSt12_Vector_baseI4EdgeSaIS0_EE12_Vector_implC2Ev = comdat any

$_ZNSaI4EdgeEC2Ev = comdat any

$_ZN9__gnu_cxx13new_allocatorI4EdgeEC2Ev = comdat any

$_ZNSt12_Destroy_auxILb0EE9__destroyIPSt6vectorI4EdgeSaIS3_EEEEvT_S7_ = comdat any

$_ZSt8_DestroyISt6vectorI4EdgeSaIS1_EEEvPT_ = comdat any

$_ZNSt6vectorI4EdgeSaIS0_EED2Ev = comdat any

$_ZSt8_DestroyIP4EdgeS0_EvT_S2_RSaIT0_E = comdat any

$_ZNSt12_Vector_baseI4EdgeSaIS0_EE19_M_get_Tp_allocatorEv = comdat any

$_ZNSt12_Vector_baseI4EdgeSaIS0_EED2Ev = comdat any

$_ZSt8_DestroyIP4EdgeEvT_S2_ = comdat any

$_ZNSt12_Destroy_auxILb1EE9__destroyIP4EdgeEEvT_S4_ = comdat any

$_ZNSt12_Vector_baseI4EdgeSaIS0_EE13_M_deallocateEPS0_m = comdat any

$_ZNSt12_Vector_baseI4EdgeSaIS0_EE12_Vector_implD2Ev = comdat any

$_ZNSt16allocator_traitsISaI4EdgeEE10deallocateERS1_PS0_m = comdat any

$_ZN9__gnu_cxx13new_allocatorI4EdgeE10deallocateEPS1_m = comdat any

$_ZNSaI4EdgeED2Ev = comdat any

$_ZN9__gnu_cxx13new_allocatorI4EdgeED2Ev = comdat any

$_ZNSt12_Vector_baseISt6vectorI4EdgeSaIS1_EESaIS3_EE13_M_deallocateEPS3_m = comdat any

$_ZNSt16allocator_traitsISaISt6vectorI4EdgeSaIS1_EEEE10deallocateERS4_PS3_m = comdat any

$_ZN9__gnu_cxx13new_allocatorISt6vectorI4EdgeSaIS2_EEE10deallocateEPS4_m = comdat any

$_ZSt8_DestroyIPSt6vectorI4EdgeSaIS1_EES3_EvT_S5_RSaIT0_E = comdat any

$_ZNSt6vectorISt4pairIxxESaIS1_EEC2Ev = comdat any

$_ZNSt12_Vector_baseISt4pairIxxESaIS1_EEC2Ev = comdat any

$_ZNSt12_Vector_baseISt4pairIxxESaIS1_EE12_Vector_implC2Ev = comdat any

$_ZNSaISt4pairIxxEEC2Ev = comdat any

$_ZN9__gnu_cxx13new_allocatorISt4pairIxxEEC2Ev = comdat any

$_ZSt10__fill_n_aIPxiiEN9__gnu_cxx11__enable_ifIXsr11__is_scalarIT1_EE7__valueET_E6__typeES4_T0_RKS3_ = comdat any

$_ZSt12__niter_baseIPxET_S1_ = comdat any

$_ZNSt6vectorISt4pairIxxESaIS1_EE12emplace_backIJRxS5_EEEvDpOT_ = comdat any

$_ZSt7forwardIRxEOT_RNSt16remove_referenceIS1_E4typeE = comdat any

$_ZSt9push_heapIN9__gnu_cxx17__normal_iteratorIPSt4pairIxxESt6vectorIS3_SaIS3_EEEESt7greaterIS3_EEvT_SB_T0_ = comdat any

$_ZNSt6vectorISt4pairIxxESaIS1_EE5beginEv = comdat any

$_ZNSt6vectorISt4pairIxxESaIS1_EE3endEv = comdat any

$_ZNSt16allocator_traitsISaISt4pairIxxEEE9constructIS1_JRxS5_EEEvRS2_PT_DpOT0_ = comdat any

$_ZNSt6vectorISt4pairIxxESaIS1_EE17_M_realloc_insertIJRxS5_EEEvN9__gnu_cxx17__normal_iteratorIPS1_S3_EEDpOT_ = comdat any

$_ZN9__gnu_cxx13new_allocatorISt4pairIxxEE9constructIS2_JRxS5_EEEvPT_DpOT0_ = comdat any

$_ZNSt4pairIxxEC2IRxS2_Lb1EEEOT_OT0_ = comdat any

$_ZNKSt6vectorISt4pairIxxESaIS1_EE12_M_check_lenEmPKc = comdat any

$_ZN9__gnu_cxxmiIPSt4pairIxxESt6vectorIS2_SaIS2_EEEENS_17__normal_iteratorIT_T0_E15difference_typeERKSA_SD_ = comdat any

$_ZNSt12_Vector_baseISt4pairIxxESaIS1_EE11_M_allocateEm = comdat any

$_ZSt34__uninitialized_move_if_noexcept_aIPSt4pairIxxES2_SaIS1_EET0_T_S5_S4_RT1_ = comdat any

$_ZNK9__gnu_cxx17__normal_iteratorIPSt4pairIxxESt6vectorIS2_SaIS2_EEE4baseEv = comdat any

$_ZNSt16allocator_traitsISaISt4pairIxxEEE7destroyIS1_EEvRS2_PT_ = comdat any

$_ZNKSt6vectorISt4pairIxxESaIS1_EE8max_sizeEv = comdat any

$_ZNKSt6vectorISt4pairIxxESaIS1_EE4sizeEv = comdat any

$_ZSt3maxImERKT_S2_S2_ = comdat any

$_ZNSt16allocator_traitsISaISt4pairIxxEEE8max_sizeERKS2_ = comdat any

$_ZNKSt12_Vector_baseISt4pairIxxESaIS1_EE19_M_get_Tp_allocatorEv = comdat any

$_ZNK9__gnu_cxx13new_allocatorISt4pairIxxEE8max_sizeEv = comdat any

$_ZNSt16allocator_traitsISaISt4pairIxxEEE8allocateERS2_m = comdat any

$_ZN9__gnu_cxx13new_allocatorISt4pairIxxEE8allocateEmPKv = comdat any

$_ZSt22__uninitialized_copy_aISt13move_iteratorIPSt4pairIxxEES3_S2_ET0_T_S6_S5_RSaIT1_E = comdat any

$_ZSt32__make_move_if_noexcept_iteratorISt4pairIxxESt13move_iteratorIPS1_EET0_PT_ = comdat any

$_ZSt18uninitialized_copyISt13move_iteratorIPSt4pairIxxEES3_ET0_T_S6_S5_ = comdat any

$_ZNSt20__uninitialized_copyILb0EE13__uninit_copyISt13move_iteratorIPSt4pairIxxEES5_EET0_T_S8_S7_ = comdat any

$_ZStneIPSt4pairIxxEEbRKSt13move_iteratorIT_ES7_ = comdat any

$_ZSt10_ConstructISt4pairIxxEJS1_EEvPT_DpOT0_ = comdat any

$_ZSt11__addressofISt4pairIxxEEPT_RS2_ = comdat any

$_ZNKSt13move_iteratorIPSt4pairIxxEEdeEv = comdat any

$_ZNSt13move_iteratorIPSt4pairIxxEEppEv = comdat any

$_ZSteqIPSt4pairIxxEEbRKSt13move_iteratorIT_ES7_ = comdat any

$_ZNKSt13move_iteratorIPSt4pairIxxEE4baseEv = comdat any

$_ZSt7forwardISt4pairIxxEEOT_RNSt16remove_referenceIS2_E4typeE = comdat any

$_ZNSt13move_iteratorIPSt4pairIxxEEC2ES2_ = comdat any

$_ZN9__gnu_cxx13new_allocatorISt4pairIxxEE7destroyIS2_EEvPT_ = comdat any

$_ZSt4moveIRSt7greaterISt4pairIxxEEEONSt16remove_referenceIT_E4typeEOS6_ = comdat any

$_ZN9__gnu_cxx5__ops14_Iter_comp_valISt7greaterISt4pairIxxEEEC2ES5_ = comdat any

$_ZSt4moveIRSt4pairIxxEEONSt16remove_referenceIT_E4typeEOS4_ = comdat any

$_ZNK9__gnu_cxx17__normal_iteratorIPSt4pairIxxESt6vectorIS2_SaIS2_EEEmiEl = comdat any

$_ZNK9__gnu_cxx17__normal_iteratorIPSt4pairIxxESt6vectorIS2_SaIS2_EEEdeEv = comdat any

$_ZSt11__push_heapIN9__gnu_cxx17__normal_iteratorIPSt4pairIxxESt6vectorIS3_SaIS3_EEEElS3_NS0_5__ops14_Iter_comp_valISt7greaterIS3_EEEEvT_T0_SF_T1_RT2_ = comdat any

$_ZN9__gnu_cxx17__normal_iteratorIPSt4pairIxxESt6vectorIS2_SaIS2_EEEC2ERKS3_ = comdat any

$_ZN9__gnu_cxx5__ops14_Iter_comp_valISt7greaterISt4pairIxxEEEclINS_17__normal_iteratorIPS4_St6vectorIS4_SaIS4_EEEES4_EEbT_RT0_ = comdat any

$_ZNK9__gnu_cxx17__normal_iteratorIPSt4pairIxxESt6vectorIS2_SaIS2_EEEplEl = comdat any

$_ZNSt4pairIxxEaSEOS0_ = comdat any

$_ZNKSt7greaterISt4pairIxxEEclERKS1_S4_ = comdat any

$_ZStgtIxxEbRKSt4pairIT_T0_ES5_ = comdat any

$_ZStltIxxEbRKSt4pairIT_T0_ES5_ = comdat any

$_ZSt7forwardIxEOT_RNSt16remove_referenceIS0_E4typeE = comdat any

$_ZNSt16allocator_traitsISaI4EdgeEE9constructIS0_JRxRiEEEvRS1_PT_DpOT0_ = comdat any

$_ZSt7forwardIRiEOT_RNSt16remove_referenceIS1_E4typeE = comdat any

$_ZNSt6vectorI4EdgeSaIS0_EE17_M_realloc_insertIJRxRiEEEvN9__gnu_cxx17__normal_iteratorIPS0_S2_EEDpOT_ = comdat any

$_ZN9__gnu_cxx13new_allocatorI4EdgeE9constructIS1_JRxRiEEEvPT_DpOT0_ = comdat any

$_ZN4EdgeC2Eii = comdat any

$_ZNKSt6vectorI4EdgeSaIS0_EE12_M_check_lenEmPKc = comdat any

$_ZN9__gnu_cxxmiIP4EdgeSt6vectorIS1_SaIS1_EEEENS_17__normal_iteratorIT_T0_E15difference_typeERKS9_SC_ = comdat any

$_ZNSt12_Vector_baseI4EdgeSaIS0_EE11_M_allocateEm = comdat any

$_ZSt34__uninitialized_move_if_noexcept_aIP4EdgeS1_SaIS0_EET0_T_S4_S3_RT1_ = comdat any

$_ZNK9__gnu_cxx17__normal_iteratorIP4EdgeSt6vectorIS1_SaIS1_EEE4baseEv = comdat any

$_ZNSt16allocator_traitsISaI4EdgeEE7destroyIS0_EEvRS1_PT_ = comdat any

$_ZNKSt6vectorI4EdgeSaIS0_EE8max_sizeEv = comdat any

$_ZNKSt6vectorI4EdgeSaIS0_EE4sizeEv = comdat any

$_ZNSt16allocator_traitsISaI4EdgeEE8max_sizeERKS1_ = comdat any

$_ZNKSt12_Vector_baseI4EdgeSaIS0_EE19_M_get_Tp_allocatorEv = comdat any

$_ZNK9__gnu_cxx13new_allocatorI4EdgeE8max_sizeEv = comdat any

$_ZNSt16allocator_traitsISaI4EdgeEE8allocateERS1_m = comdat any

$_ZN9__gnu_cxx13new_allocatorI4EdgeE8allocateEmPKv = comdat any

$_ZSt22__uninitialized_copy_aISt13move_iteratorIP4EdgeES2_S1_ET0_T_S5_S4_RSaIT1_E = comdat any

$_ZSt32__make_move_if_noexcept_iteratorI4EdgeSt13move_iteratorIPS0_EET0_PT_ = comdat any

$_ZSt18uninitialized_copyISt13move_iteratorIP4EdgeES2_ET0_T_S5_S4_ = comdat any

$_ZNSt20__uninitialized_copyILb0EE13__uninit_copyISt13move_iteratorIP4EdgeES4_EET0_T_S7_S6_ = comdat any

$_ZStneIP4EdgeEbRKSt13move_iteratorIT_ES6_ = comdat any

$_ZSt10_ConstructI4EdgeJS0_EEvPT_DpOT0_ = comdat any

$_ZSt11__addressofI4EdgeEPT_RS1_ = comdat any

$_ZNKSt13move_iteratorIP4EdgeEdeEv = comdat any

$_ZNSt13move_iteratorIP4EdgeEppEv = comdat any

$_ZSteqIP4EdgeEbRKSt13move_iteratorIT_ES6_ = comdat any

$_ZNKSt13move_iteratorIP4EdgeE4baseEv = comdat any

$_ZSt7forwardI4EdgeEOT_RNSt16remove_referenceIS1_E4typeE = comdat any

$_ZNSt13move_iteratorIP4EdgeEC2ES1_ = comdat any

$_ZN9__gnu_cxx13new_allocatorI4EdgeE7destroyIS1_EEvPT_ = comdat any

$_ZNKSt6vectorISt4pairIxxESaIS1_EE5emptyEv = comdat any

$_ZN9__gnu_cxxeqIPKSt4pairIxxESt6vectorIS2_SaIS2_EEEEbRKNS_17__normal_iteratorIT_T0_EESD_ = comdat any

$_ZNKSt6vectorISt4pairIxxESaIS1_EE5beginEv = comdat any

$_ZNKSt6vectorISt4pairIxxESaIS1_EE3endEv = comdat any

$_ZNK9__gnu_cxx17__normal_iteratorIPKSt4pairIxxESt6vectorIS2_SaIS2_EEE4baseEv = comdat any

$_ZN9__gnu_cxx17__normal_iteratorIPKSt4pairIxxESt6vectorIS2_SaIS2_EEEC2ERKS4_ = comdat any

$_ZNKSt6vectorISt4pairIxxESaIS1_EE5frontEv = comdat any

$_ZNK9__gnu_cxx17__normal_iteratorIPKSt4pairIxxESt6vectorIS2_SaIS2_EEEdeEv = comdat any

$_ZSt8pop_heapIN9__gnu_cxx17__normal_iteratorIPSt4pairIxxESt6vectorIS3_SaIS3_EEEESt7greaterIS3_EEvT_SB_T0_ = comdat any

$_ZNSt6vectorISt4pairIxxESaIS1_EE8pop_backEv = comdat any

$_ZN9__gnu_cxx5__ops15_Iter_comp_iterISt7greaterISt4pairIxxEEEC2ES5_ = comdat any

$_ZN9__gnu_cxx17__normal_iteratorIPSt4pairIxxESt6vectorIS2_SaIS2_EEEmmEv = comdat any

$_ZSt10__pop_heapIN9__gnu_cxx17__normal_iteratorIPSt4pairIxxESt6vectorIS3_SaIS3_EEEENS0_5__ops15_Iter_comp_iterISt7greaterIS3_EEEEvT_SE_SE_RT0_ = comdat any

$_ZSt13__adjust_heapIN9__gnu_cxx17__normal_iteratorIPSt4pairIxxESt6vectorIS3_SaIS3_EEEElS3_NS0_5__ops15_Iter_comp_iterISt7greaterIS3_EEEEvT_T0_SF_T1_T2_ = comdat any

$_ZN9__gnu_cxx5__ops15_Iter_comp_iterISt7greaterISt4pairIxxEEEclINS_17__normal_iteratorIPS4_St6vectorIS4_SaIS4_EEEESD_EEbT_T0_ = comdat any

$_ZSt4moveIRN9__gnu_cxx5__ops15_Iter_comp_iterISt7greaterISt4pairIxxEEEEEONSt16remove_referenceIT_E4typeEOSA_ = comdat any

$_ZN9__gnu_cxx5__ops14_Iter_comp_valISt7greaterISt4pairIxxEEEC2EONS0_15_Iter_comp_iterIS5_EE = comdat any

$_ZN9__gnu_cxx17__normal_iteratorIP4EdgeSt6vectorIS1_SaIS1_EEEC2ERKS2_ = comdat any

$_ZSt10__count_ifIPbN9__gnu_cxx5__ops16_Iter_equals_valIKbEEENSt15iterator_traitsIT_E15difference_typeES7_S7_T0_ = comdat any

$_ZN9__gnu_cxx5__ops17__iter_equals_valIKbEENS0_16_Iter_equals_valIT_EERS4_ = comdat any

$_ZN9__gnu_cxx5__ops16_Iter_equals_valIKbEclIPbEEbT_ = comdat any

$_ZN9__gnu_cxx5__ops16_Iter_equals_valIKbEC2ERS2_ = comdat any

@_ZStL8__ioinit = internal global %"class.std::ios_base::Init" zeroinitializer, align 1
@__dso_handle = external hidden global i8
@G = global %"class.std::vector" zeroinitializer, align 8
@N = global i64 0, align 8
@M = global i64 0, align 8
@D = global [100005 x i64] zeroinitializer, align 16
@U = global [200005 x i64] zeroinitializer, align 16
@V = global [200005 x i64] zeroinitializer, align 16
@ans = global [200005 x i64] zeroinitializer, align 16
@flag = global [100005 x i1] zeroinitializer, align 16
@_ZSt3cin = external global %"class.std::basic_istream", align 8
@_ZSt4cout = external global %"class.std::basic_ostream", align 8
@.str = private unnamed_addr constant [26 x i8] c"vector::_M_realloc_insert\00", align 1
@llvm.global_ctors = appending global [1 x { i32, void ()*, i8* }] [{ i32, void ()*, i8* } { i32 65535, void ()* @_GLOBAL__sub_I_s054500487.cpp, i8* null }]

; Function Attrs: noinline uwtable
define internal void @__cxx_global_var_init() #0 section ".text.startup" {
  call void @_ZNSt8ios_base4InitC1Ev(%"class.std::ios_base::Init"* @_ZStL8__ioinit)
  %1 = call i32 @__cxa_atexit(void (i8*)* bitcast (void (%"class.std::ios_base::Init"*)* @_ZNSt8ios_base4InitD1Ev to void (i8*)*), i8* getelementptr inbounds (%"class.std::ios_base::Init", %"class.std::ios_base::Init"* @_ZStL8__ioinit, i32 0, i32 0), i8* @__dso_handle) #3
  ret void
}

declare void @_ZNSt8ios_base4InitC1Ev(%"class.std::ios_base::Init"*) unnamed_addr #1

; Function Attrs: nounwind
declare void @_ZNSt8ios_base4InitD1Ev(%"class.std::ios_base::Init"*) unnamed_addr #2

; Function Attrs: nounwind
declare i32 @__cxa_atexit(void (i8*)*, i8*, i8*) #3

; Function Attrs: noinline uwtable
define internal void @__cxx_global_var_init.1() #0 section ".text.startup" personality i8* bitcast (i32 (...)* @__gxx_personality_v0 to i8*) {
  %1 = alloca %"class.std::allocator", align 1
  call void @_ZNSaISt6vectorI4EdgeSaIS0_EEEC2Ev(%"class.std::allocator"* %1) #3
  invoke void @_ZNSt6vectorIS_I4EdgeSaIS0_EESaIS2_EEC2EmRKS3_(%"class.std::vector"* @G, i64 100005, %"class.std::allocator"* dereferenceable(1) %1)
          to label %2 unwind label %4

2:                                                ; preds = %0
  call void @_ZNSaISt6vectorI4EdgeSaIS0_EEED2Ev(%"class.std::allocator"* %1) #3
  %3 = call i32 @__cxa_atexit(void (i8*)* bitcast (void (%"class.std::vector"*)* @_ZNSt6vectorIS_I4EdgeSaIS0_EESaIS2_EED2Ev to void (i8*)*), i8* bitcast (%"class.std::vector"* @G to i8*), i8* @__dso_handle) #3
  ret void

4:                                                ; preds = %0
  %5 = landingpad { i8*, i32 }
          cleanup
  %6 = extractvalue { i8*, i32 } %5, 0
  %7 = extractvalue { i8*, i32 } %5, 1
  call void @_ZNSaISt6vectorI4EdgeSaIS0_EEED2Ev(%"class.std::allocator"* %1) #3
  br label %8

8:                                                ; preds = %4
  %9 = insertvalue { i8*, i32 } undef, i8* %6, 0
  %10 = insertvalue { i8*, i32 } %9, i32 %7, 1
  resume { i8*, i32 } %10
}

; Function Attrs: noinline nounwind uwtable
define linkonce_odr void @_ZNSaISt6vectorI4EdgeSaIS0_EEEC2Ev(%"class.std::allocator"* %0) unnamed_addr #4 comdat align 2 {
  %2 = bitcast %"class.std::allocator"* %0 to %"class.__gnu_cxx::new_allocator"*
  call void @_ZN9__gnu_cxx13new_allocatorISt6vectorI4EdgeSaIS2_EEEC2Ev(%"class.__gnu_cxx::new_allocator"* %2) #3
  ret void
}

; Function Attrs: noinline uwtable
define linkonce_odr void @_ZNSt6vectorIS_I4EdgeSaIS0_EESaIS2_EEC2EmRKS3_(%"class.std::vector"* %0, i64 %1, %"class.std::allocator"* dereferenceable(1) %2) unnamed_addr #0 comdat align 2 personality i8* bitcast (i32 (...)* @__gxx_personality_v0 to i8*) {
  %4 = bitcast %"class.std::vector"* %0 to %"struct.std::_Vector_base"*
  call void @_ZNSt12_Vector_baseISt6vectorI4EdgeSaIS1_EESaIS3_EEC2EmRKS4_(%"struct.std::_Vector_base"* %4, i64 %1, %"class.std::allocator"* dereferenceable(1) %2)
  invoke void @_ZNSt6vectorIS_I4EdgeSaIS0_EESaIS2_EE21_M_default_initializeEm(%"class.std::vector"* %0, i64 %1)
          to label %5 unwind label %6

5:                                                ; preds = %3
  ret void

6:                                                ; preds = %3
  %7 = landingpad { i8*, i32 }
          cleanup
  %8 = extractvalue { i8*, i32 } %7, 0
  %9 = extractvalue { i8*, i32 } %7, 1
  %10 = bitcast %"class.std::vector"* %0 to %"struct.std::_Vector_base"*
  call void @_ZNSt12_Vector_baseISt6vectorI4EdgeSaIS1_EESaIS3_EED2Ev(%"struct.std::_Vector_base"* %10) #3
  br label %11

11:                                               ; preds = %6
  %12 = insertvalue { i8*, i32 } undef, i8* %8, 0
  %13 = insertvalue { i8*, i32 } %12, i32 %9, 1
  resume { i8*, i32 } %13
}

declare i32 @__gxx_personality_v0(...)

; Function Attrs: noinline nounwind uwtable
define linkonce_odr void @_ZNSaISt6vectorI4EdgeSaIS0_EEED2Ev(%"class.std::allocator"* %0) unnamed_addr #4 comdat align 2 {
  %2 = bitcast %"class.std::allocator"* %0 to %"class.__gnu_cxx::new_allocator"*
  call void @_ZN9__gnu_cxx13new_allocatorISt6vectorI4EdgeSaIS2_EEED2Ev(%"class.__gnu_cxx::new_allocator"* %2) #3
  ret void
}

; Function Attrs: noinline nounwind uwtable
define linkonce_odr void @_ZNSt6vectorIS_I4EdgeSaIS0_EESaIS2_EED2Ev(%"class.std::vector"* %0) unnamed_addr #4 comdat align 2 personality i8* bitcast (i32 (...)* @__gxx_personality_v0 to i8*) {
  %2 = bitcast %"class.std::vector"* %0 to %"struct.std::_Vector_base"*
  %3 = getelementptr inbounds %"struct.std::_Vector_base", %"struct.std::_Vector_base"* %2, i32 0, i32 0
  %4 = getelementptr inbounds %"struct.std::_Vector_base<std::vector<Edge, std::allocator<Edge> >, std::allocator<std::vector<Edge, std::allocator<Edge> > > >::_Vector_impl", %"struct.std::_Vector_base<std::vector<Edge, std::allocator<Edge> >, std::allocator<std::vector<Edge, std::allocator<Edge> > > >::_Vector_impl"* %3, i32 0, i32 0
  %5 = load %"class.std::vector.0"*, %"class.std::vector.0"** %4, align 8
  %6 = bitcast %"class.std::vector"* %0 to %"struct.std::_Vector_base"*
  %7 = getelementptr inbounds %"struct.std::_Vector_base", %"struct.std::_Vector_base"* %6, i32 0, i32 0
  %8 = getelementptr inbounds %"struct.std::_Vector_base<std::vector<Edge, std::allocator<Edge> >, std::allocator<std::vector<Edge, std::allocator<Edge> > > >::_Vector_impl", %"struct.std::_Vector_base<std::vector<Edge, std::allocator<Edge> >, std::allocator<std::vector<Edge, std::allocator<Edge> > > >::_Vector_impl"* %7, i32 0, i32 1
  %9 = load %"class.std::vector.0"*, %"class.std::vector.0"** %8, align 8
  %10 = bitcast %"class.std::vector"* %0 to %"struct.std::_Vector_base"*
  %11 = call dereferenceable(1) %"class.std::allocator"* @_ZNSt12_Vector_baseISt6vectorI4EdgeSaIS1_EESaIS3_EE19_M_get_Tp_allocatorEv(%"struct.std::_Vector_base"* %10) #3
  invoke void @_ZSt8_DestroyIPSt6vectorI4EdgeSaIS1_EES3_EvT_S5_RSaIT0_E(%"class.std::vector.0"* %5, %"class.std::vector.0"* %9, %"class.std::allocator"* dereferenceable(1) %11)
          to label %12 unwind label %14

12:                                               ; preds = %1
  %13 = bitcast %"class.std::vector"* %0 to %"struct.std::_Vector_base"*
  call void @_ZNSt12_Vector_baseISt6vectorI4EdgeSaIS1_EESaIS3_EED2Ev(%"struct.std::_Vector_base"* %13) #3
  ret void

14:                                               ; preds = %1
  %15 = landingpad { i8*, i32 }
          catch i8* null
  %16 = extractvalue { i8*, i32 } %15, 0
  %17 = extractvalue { i8*, i32 } %15, 1
  %18 = bitcast %"class.std::vector"* %0 to %"struct.std::_Vector_base"*
  call void @_ZNSt12_Vector_baseISt6vectorI4EdgeSaIS1_EESaIS3_EED2Ev(%"struct.std::_Vector_base"* %18) #3
  br label %19

19:                                               ; preds = %14
  call void @__clang_call_terminate(i8* %16) #12
  unreachable
}

; Function Attrs: noinline norecurse uwtable
define i32 @main() #5 personality i8* bitcast (i32 (...)* @__gxx_personality_v0 to i8*) {
  %1 = alloca %"class.std::__cxx11::basic_string", align 8
  %2 = alloca %"class.std::allocator.5", align 1
  %3 = alloca [256 x i8], align 16
  %4 = alloca %"class.std::priority_queue", align 8
  %5 = alloca i32, align 4
  %6 = alloca i32, align 4
  %7 = alloca %"struct.std::pair", align 8
  %8 = alloca %"class.__gnu_cxx::__normal_iterator", align 8
  %9 = alloca %"class.__gnu_cxx::__normal_iterator", align 8
  %10 = alloca i8, align 1
  %11 = call dereferenceable(280) %"class.std::basic_istream"* @_ZNSirsERx(%"class.std::basic_istream"* @_ZSt3cin, i64* dereferenceable(8) @N)
  %12 = call dereferenceable(280) %"class.std::basic_istream"* @_ZNSirsERx(%"class.std::basic_istream"* %11, i64* dereferenceable(8) @M)
  %13 = load i64, i64* @N, align 8
  call void @_ZNSaIcEC1Ev(%"class.std::allocator.5"* %2) #3
  invoke void @_ZNSt7__cxx1112basic_stringIcSt11char_traitsIcESaIcEEC1EmcRKS3_(%"class.std::__cxx11::basic_string"* %1, i64 %13, i8 signext 46, %"class.std::allocator.5"* dereferenceable(1) %2)
          to label %14 unwind label %26

14:                                               ; preds = %0
  call void @_ZNSaIcED1Ev(%"class.std::allocator.5"* %2) #3
  br label %15

15:                                               ; preds = %24, %14
  %.04 = phi i32 [ 0, %14 ], [ %25, %24 ]
  %16 = sext i32 %.04 to i64
  %17 = load i64, i64* @N, align 8
  %18 = icmp slt i64 %16, %17
  br i1 %18, label %19, label %34

19:                                               ; preds = %15
  %20 = sext i32 %.04 to i64
  %21 = getelementptr inbounds [100005 x i64], [100005 x i64]* @D, i64 0, i64 %20
  %22 = invoke dereferenceable(280) %"class.std::basic_istream"* @_ZNSirsERx(%"class.std::basic_istream"* @_ZSt3cin, i64* dereferenceable(8) %21)
          to label %23 unwind label %30

23:                                               ; preds = %19
  br label %24

24:                                               ; preds = %23
  %25 = add nsw i32 %.04, 1
  br label %15

26:                                               ; preds = %0
  %27 = landingpad { i8*, i32 }
          cleanup
  %28 = extractvalue { i8*, i32 } %27, 0
  %29 = extractvalue { i8*, i32 } %27, 1
  call void @_ZNSaIcED1Ev(%"class.std::allocator.5"* %2) #3
  br label %336

30:                                               ; preds = %34, %19
  %31 = landingpad { i8*, i32 }
          cleanup
  %32 = extractvalue { i8*, i32 } %31, 0
  %33 = extractvalue { i8*, i32 } %31, 1
  br label %335

34:                                               ; preds = %15
  %35 = getelementptr inbounds [256 x i8], [256 x i8]* %3, i64 0, i64 66
  store i8 87, i8* %35, align 2
  %36 = getelementptr inbounds [256 x i8], [256 x i8]* %3, i64 0, i64 87
  store i8 66, i8* %36, align 1
  invoke void @_ZNSt14priority_queueISt4pairIxxESt6vectorIS1_SaIS1_EESt7greaterIS1_EEC2IS4_vEEv(%"class.std::priority_queue"* %4)
          to label %37 unwind label %30

37:                                               ; preds = %34
  store i32 1000000000, i32* %5, align 4
  %38 = invoke i64* @_ZSt6fill_nIPxiiET_S1_T0_RKT1_(i64* getelementptr inbounds ([200005 x i64], [200005 x i64]* @ans, i32 0, i32 0), i32 200005, i32* dereferenceable(4) %5)
          to label %39 unwind label %112

39:                                               ; preds = %37
  store i32 0, i32* %6, align 4
  br label %40

40:                                               ; preds = %230, %39
  %41 = load i32, i32* %6, align 4
  %42 = sext i32 %41 to i64
  %43 = load i64, i64* @M, align 8
  %44 = icmp slt i64 %42, %43
  br i1 %44, label %45, label %233

45:                                               ; preds = %40
  %46 = load i32, i32* %6, align 4
  %47 = sext i32 %46 to i64
  %48 = getelementptr inbounds [200005 x i64], [200005 x i64]* @U, i64 0, i64 %47
  %49 = invoke dereferenceable(280) %"class.std::basic_istream"* @_ZNSirsERx(%"class.std::basic_istream"* @_ZSt3cin, i64* dereferenceable(8) %48)
          to label %50 unwind label %112

50:                                               ; preds = %45
  %51 = load i32, i32* %6, align 4
  %52 = sext i32 %51 to i64
  %53 = getelementptr inbounds [200005 x i64], [200005 x i64]* @V, i64 0, i64 %52
  %54 = invoke dereferenceable(280) %"class.std::basic_istream"* @_ZNSirsERx(%"class.std::basic_istream"* %49, i64* dereferenceable(8) %53)
          to label %55 unwind label %112

55:                                               ; preds = %50
  %56 = load i32, i32* %6, align 4
  %57 = sext i32 %56 to i64
  %58 = getelementptr inbounds [200005 x i64], [200005 x i64]* @V, i64 0, i64 %57
  %59 = load i64, i64* %58, align 8
  %60 = add nsw i64 %59, -1
  store i64 %60, i64* %58, align 8
  %61 = load i32, i32* %6, align 4
  %62 = sext i32 %61 to i64
  %63 = getelementptr inbounds [200005 x i64], [200005 x i64]* @U, i64 0, i64 %62
  %64 = load i64, i64* %63, align 8
  %65 = add nsw i64 %64, -1
  store i64 %65, i64* %63, align 8
  %66 = load i32, i32* %6, align 4
  %67 = sext i32 %66 to i64
  %68 = getelementptr inbounds [200005 x i64], [200005 x i64]* @U, i64 0, i64 %67
  %69 = load i64, i64* %68, align 8
  %70 = getelementptr inbounds [100005 x i64], [100005 x i64]* @D, i64 0, i64 %69
  %71 = load i64, i64* %70, align 8
  %72 = load i32, i32* %6, align 4
  %73 = sext i32 %72 to i64
  %74 = getelementptr inbounds [200005 x i64], [200005 x i64]* @V, i64 0, i64 %73
  %75 = load i64, i64* %74, align 8
  %76 = getelementptr inbounds [100005 x i64], [100005 x i64]* @D, i64 0, i64 %75
  %77 = load i64, i64* %76, align 8
  %78 = icmp eq i64 %71, %77
  br i1 %78, label %79, label %210

79:                                               ; preds = %55
  %80 = load i32, i32* %6, align 4
  %81 = sext i32 %80 to i64
  %82 = getelementptr inbounds [200005 x i64], [200005 x i64]* @U, i64 0, i64 %81
  %83 = load i64, i64* %82, align 8
  %84 = invoke dereferenceable(1) i8* @_ZNSt7__cxx1112basic_stringIcSt11char_traitsIcESaIcEEixEm(%"class.std::__cxx11::basic_string"* %1, i64 %83)
          to label %85 unwind label %112

85:                                               ; preds = %79
  %86 = load i8, i8* %84, align 1
  %87 = sext i8 %86 to i32
  %88 = icmp eq i32 %87, 46
  br i1 %88, label %89, label %116

89:                                               ; preds = %85
  %90 = load i32, i32* %6, align 4
  %91 = sext i32 %90 to i64
  %92 = getelementptr inbounds [200005 x i64], [200005 x i64]* @V, i64 0, i64 %91
  %93 = load i64, i64* %92, align 8
  %94 = invoke dereferenceable(1) i8* @_ZNSt7__cxx1112basic_stringIcSt11char_traitsIcESaIcEEixEm(%"class.std::__cxx11::basic_string"* %1, i64 %93)
          to label %95 unwind label %112

95:                                               ; preds = %89
  %96 = load i8, i8* %94, align 1
  %97 = sext i8 %96 to i32
  %98 = icmp eq i32 %97, 46
  br i1 %98, label %99, label %116

99:                                               ; preds = %95
  %100 = load i32, i32* %6, align 4
  %101 = sext i32 %100 to i64
  %102 = getelementptr inbounds [200005 x i64], [200005 x i64]* @U, i64 0, i64 %101
  %103 = load i64, i64* %102, align 8
  %104 = invoke dereferenceable(1) i8* @_ZNSt7__cxx1112basic_stringIcSt11char_traitsIcESaIcEEixEm(%"class.std::__cxx11::basic_string"* %1, i64 %103)
          to label %105 unwind label %112

105:                                              ; preds = %99
  store i8 66, i8* %104, align 1
  %106 = load i32, i32* %6, align 4
  %107 = sext i32 %106 to i64
  %108 = getelementptr inbounds [200005 x i64], [200005 x i64]* @V, i64 0, i64 %107
  %109 = load i64, i64* %108, align 8
  %110 = invoke dereferenceable(1) i8* @_ZNSt7__cxx1112basic_stringIcSt11char_traitsIcESaIcEEixEm(%"class.std::__cxx11::basic_string"* %1, i64 %109)
          to label %111 unwind label %112

111:                                              ; preds = %105
  store i8 87, i8* %110, align 1
  br label %172

112:                                              ; preds = %328, %323, %316, %314, %311, %309, %300, %290, %285, %270, %240, %238, %234, %219, %210, %200, %172, %159, %153, %143, %132, %126, %116, %105, %99, %89, %79, %50, %45, %37
  %113 = landingpad { i8*, i32 }
          cleanup
  %114 = extractvalue { i8*, i32 } %113, 0
  %115 = extractvalue { i8*, i32 } %113, 1
  call void @_ZNSt14priority_queueISt4pairIxxESt6vectorIS1_SaIS1_EESt7greaterIS1_EED2Ev(%"class.std::priority_queue"* %4) #3
  br label %335

116:                                              ; preds = %95, %85
  %117 = load i32, i32* %6, align 4
  %118 = sext i32 %117 to i64
  %119 = getelementptr inbounds [200005 x i64], [200005 x i64]* @U, i64 0, i64 %118
  %120 = load i64, i64* %119, align 8
  %121 = invoke dereferenceable(1) i8* @_ZNSt7__cxx1112basic_stringIcSt11char_traitsIcESaIcEEixEm(%"class.std::__cxx11::basic_string"* %1, i64 %120)
          to label %122 unwind label %112

122:                                              ; preds = %116
  %123 = load i8, i8* %121, align 1
  %124 = sext i8 %123 to i32
  %125 = icmp ne i32 %124, 46
  br i1 %125, label %126, label %143

126:                                              ; preds = %122
  %127 = load i32, i32* %6, align 4
  %128 = sext i32 %127 to i64
  %129 = getelementptr inbounds [200005 x i64], [200005 x i64]* @U, i64 0, i64 %128
  %130 = load i64, i64* %129, align 8
  %131 = invoke dereferenceable(1) i8* @_ZNSt7__cxx1112basic_stringIcSt11char_traitsIcESaIcEEixEm(%"class.std::__cxx11::basic_string"* %1, i64 %130)
          to label %132 unwind label %112

132:                                              ; preds = %126
  %133 = load i8, i8* %131, align 1
  %134 = sext i8 %133 to i64
  %135 = getelementptr inbounds [256 x i8], [256 x i8]* %3, i64 0, i64 %134
  %136 = load i8, i8* %135, align 1
  %137 = load i32, i32* %6, align 4
  %138 = sext i32 %137 to i64
  %139 = getelementptr inbounds [200005 x i64], [200005 x i64]* @V, i64 0, i64 %138
  %140 = load i64, i64* %139, align 8
  %141 = invoke dereferenceable(1) i8* @_ZNSt7__cxx1112basic_stringIcSt11char_traitsIcESaIcEEixEm(%"class.std::__cxx11::basic_string"* %1, i64 %140)
          to label %142 unwind label %112

142:                                              ; preds = %132
  store i8 %136, i8* %141, align 1
  br label %171

143:                                              ; preds = %122
  %144 = load i32, i32* %6, align 4
  %145 = sext i32 %144 to i64
  %146 = getelementptr inbounds [200005 x i64], [200005 x i64]* @V, i64 0, i64 %145
  %147 = load i64, i64* %146, align 8
  %148 = invoke dereferenceable(1) i8* @_ZNSt7__cxx1112basic_stringIcSt11char_traitsIcESaIcEEixEm(%"class.std::__cxx11::basic_string"* %1, i64 %147)
          to label %149 unwind label %112

149:                                              ; preds = %143
  %150 = load i8, i8* %148, align 1
  %151 = sext i8 %150 to i32
  %152 = icmp ne i32 %151, 46
  br i1 %152, label %153, label %170

153:                                              ; preds = %149
  %154 = load i32, i32* %6, align 4
  %155 = sext i32 %154 to i64
  %156 = getelementptr inbounds [200005 x i64], [200005 x i64]* @V, i64 0, i64 %155
  %157 = load i64, i64* %156, align 8
  %158 = invoke dereferenceable(1) i8* @_ZNSt7__cxx1112basic_stringIcSt11char_traitsIcESaIcEEixEm(%"class.std::__cxx11::basic_string"* %1, i64 %157)
          to label %159 unwind label %112

159:                                              ; preds = %153
  %160 = load i8, i8* %158, align 1
  %161 = sext i8 %160 to i64
  %162 = getelementptr inbounds [256 x i8], [256 x i8]* %3, i64 0, i64 %161
  %163 = load i8, i8* %162, align 1
  %164 = load i32, i32* %6, align 4
  %165 = sext i32 %164 to i64
  %166 = getelementptr inbounds [200005 x i64], [200005 x i64]* @U, i64 0, i64 %165
  %167 = load i64, i64* %166, align 8
  %168 = invoke dereferenceable(1) i8* @_ZNSt7__cxx1112basic_stringIcSt11char_traitsIcESaIcEEixEm(%"class.std::__cxx11::basic_string"* %1, i64 %167)
          to label %169 unwind label %112

169:                                              ; preds = %159
  store i8 %163, i8* %168, align 1
  br label %170

170:                                              ; preds = %169, %149
  br label %171

171:                                              ; preds = %170, %142
  br label %172

172:                                              ; preds = %171, %111
  %173 = load i32, i32* %6, align 4
  %174 = sext i32 %173 to i64
  %175 = getelementptr inbounds [200005 x i64], [200005 x i64]* @U, i64 0, i64 %174
  %176 = load i64, i64* %175, align 8
  %177 = getelementptr inbounds [100005 x i64], [100005 x i64]* @D, i64 0, i64 %176
  %178 = load i64, i64* %177, align 8
  %179 = load i32, i32* %6, align 4
  %180 = sext i32 %179 to i64
  %181 = getelementptr inbounds [200005 x i64], [200005 x i64]* @ans, i64 0, i64 %180
  store i64 %178, i64* %181, align 8
  %182 = load i32, i32* %6, align 4
  %183 = sext i32 %182 to i64
  %184 = getelementptr inbounds [200005 x i64], [200005 x i64]* @U, i64 0, i64 %183
  %185 = load i64, i64* %184, align 8
  %186 = getelementptr inbounds [100005 x i8], [100005 x i8]* bitcast ([100005 x i1]* @flag to [100005 x i8]*), i64 0, i64 %185
  store i8 1, i8* %186, align 1
  %187 = load i32, i32* %6, align 4
  %188 = sext i32 %187 to i64
  %189 = getelementptr inbounds [200005 x i64], [200005 x i64]* @V, i64 0, i64 %188
  %190 = load i64, i64* %189, align 8
  %191 = getelementptr inbounds [100005 x i8], [100005 x i8]* bitcast ([100005 x i1]* @flag to [100005 x i8]*), i64 0, i64 %190
  store i8 1, i8* %191, align 1
  %192 = load i32, i32* %6, align 4
  %193 = sext i32 %192 to i64
  %194 = getelementptr inbounds [200005 x i64], [200005 x i64]* @U, i64 0, i64 %193
  %195 = load i64, i64* %194, align 8
  %196 = getelementptr inbounds [100005 x i64], [100005 x i64]* @D, i64 0, i64 %195
  %197 = load i32, i32* %6, align 4
  %198 = sext i32 %197 to i64
  %199 = getelementptr inbounds [200005 x i64], [200005 x i64]* @U, i64 0, i64 %198
  invoke void @_ZNSt14priority_queueISt4pairIxxESt6vectorIS1_SaIS1_EESt7greaterIS1_EE7emplaceIJRxS9_EEEvDpOT_(%"class.std::priority_queue"* %4, i64* dereferenceable(8) %196, i64* dereferenceable(8) %199)
          to label %200 unwind label %112

200:                                              ; preds = %172
  %201 = load i32, i32* %6, align 4
  %202 = sext i32 %201 to i64
  %203 = getelementptr inbounds [200005 x i64], [200005 x i64]* @U, i64 0, i64 %202
  %204 = load i64, i64* %203, align 8
  %205 = getelementptr inbounds [100005 x i64], [100005 x i64]* @D, i64 0, i64 %204
  %206 = load i32, i32* %6, align 4
  %207 = sext i32 %206 to i64
  %208 = getelementptr inbounds [200005 x i64], [200005 x i64]* @V, i64 0, i64 %207
  invoke void @_ZNSt14priority_queueISt4pairIxxESt6vectorIS1_SaIS1_EESt7greaterIS1_EE7emplaceIJRxS9_EEEvDpOT_(%"class.std::priority_queue"* %4, i64* dereferenceable(8) %205, i64* dereferenceable(8) %208)
          to label %209 unwind label %112

209:                                              ; preds = %200
  br label %229

210:                                              ; preds = %55
  %211 = load i32, i32* %6, align 4
  %212 = sext i32 %211 to i64
  %213 = getelementptr inbounds [200005 x i64], [200005 x i64]* @U, i64 0, i64 %212
  %214 = load i64, i64* %213, align 8
  %215 = call dereferenceable(24) %"class.std::vector.0"* @_ZNSt6vectorIS_I4EdgeSaIS0_EESaIS2_EEixEm(%"class.std::vector"* @G, i64 %214) #3
  %216 = load i32, i32* %6, align 4
  %217 = sext i32 %216 to i64
  %218 = getelementptr inbounds [200005 x i64], [200005 x i64]* @V, i64 0, i64 %217
  invoke void @_ZNSt6vectorI4EdgeSaIS0_EE12emplace_backIJRxRiEEEvDpOT_(%"class.std::vector.0"* %215, i64* dereferenceable(8) %218, i32* dereferenceable(4) %6)
          to label %219 unwind label %112

219:                                              ; preds = %210
  %220 = load i32, i32* %6, align 4
  %221 = sext i32 %220 to i64
  %222 = getelementptr inbounds [200005 x i64], [200005 x i64]* @V, i64 0, i64 %221
  %223 = load i64, i64* %222, align 8
  %224 = call dereferenceable(24) %"class.std::vector.0"* @_ZNSt6vectorIS_I4EdgeSaIS0_EESaIS2_EEixEm(%"class.std::vector"* @G, i64 %223) #3
  %225 = load i32, i32* %6, align 4
  %226 = sext i32 %225 to i64
  %227 = getelementptr inbounds [200005 x i64], [200005 x i64]* @U, i64 0, i64 %226
  invoke void @_ZNSt6vectorI4EdgeSaIS0_EE12emplace_backIJRxRiEEEvDpOT_(%"class.std::vector.0"* %224, i64* dereferenceable(8) %227, i32* dereferenceable(4) %6)
          to label %228 unwind label %112

228:                                              ; preds = %219
  br label %229

229:                                              ; preds = %228, %209
  br label %230

230:                                              ; preds = %229
  %231 = load i32, i32* %6, align 4
  %232 = add nsw i32 %231, 1
  store i32 %232, i32* %6, align 4
  br label %40

233:                                              ; preds = %40
  br label %234

234:                                              ; preds = %299, %233
  %235 = invoke zeroext i1 @_ZNKSt14priority_queueISt4pairIxxESt6vectorIS1_SaIS1_EESt7greaterIS1_EE5emptyEv(%"class.std::priority_queue"* %4)
          to label %236 unwind label %112

236:                                              ; preds = %234
  %237 = xor i1 %235, true
  br i1 %237, label %238, label %300

238:                                              ; preds = %236
  %239 = invoke dereferenceable(16) %"struct.std::pair"* @_ZNKSt14priority_queueISt4pairIxxESt6vectorIS1_SaIS1_EESt7greaterIS1_EE3topEv(%"class.std::priority_queue"* %4)
          to label %240 unwind label %112

240:                                              ; preds = %238
  %241 = bitcast %"struct.std::pair"* %7 to i8*
  %242 = bitcast %"struct.std::pair"* %239 to i8*
  call void @llvm.memcpy.p0i8.p0i8.i64(i8* align 8 %241, i8* align 8 %242, i64 16, i1 false)
  invoke void @_ZNSt14priority_queueISt4pairIxxESt6vectorIS1_SaIS1_EESt7greaterIS1_EE3popEv(%"class.std::priority_queue"* %4)
          to label %243 unwind label %112

243:                                              ; preds = %240
  %244 = getelementptr inbounds %"struct.std::pair", %"struct.std::pair"* %7, i32 0, i32 1
  %245 = load i64, i64* %244, align 8
  %246 = call dereferenceable(24) %"class.std::vector.0"* @_ZNSt6vectorIS_I4EdgeSaIS0_EESaIS2_EEixEm(%"class.std::vector"* @G, i64 %245) #3
  %247 = call %struct.Edge* @_ZNSt6vectorI4EdgeSaIS0_EE5beginEv(%"class.std::vector.0"* %246) #3
  %248 = getelementptr inbounds %"class.__gnu_cxx::__normal_iterator", %"class.__gnu_cxx::__normal_iterator"* %8, i32 0, i32 0
  store %struct.Edge* %247, %struct.Edge** %248, align 8
  %249 = call %struct.Edge* @_ZNSt6vectorI4EdgeSaIS0_EE3endEv(%"class.std::vector.0"* %246) #3
  %250 = getelementptr inbounds %"class.__gnu_cxx::__normal_iterator", %"class.__gnu_cxx::__normal_iterator"* %9, i32 0, i32 0
  store %struct.Edge* %249, %struct.Edge** %250, align 8
  br label %251

251:                                              ; preds = %297, %243
  %252 = call zeroext i1 @_ZN9__gnu_cxxneIP4EdgeSt6vectorIS1_SaIS1_EEEEbRKNS_17__normal_iteratorIT_T0_EESB_(%"class.__gnu_cxx::__normal_iterator"* dereferenceable(8) %8, %"class.__gnu_cxx::__normal_iterator"* dereferenceable(8) %9) #3
  br i1 %252, label %253, label %299

253:                                              ; preds = %251
  %254 = call dereferenceable(16) %struct.Edge* @_ZNK9__gnu_cxx17__normal_iteratorIP4EdgeSt6vectorIS1_SaIS1_EEEdeEv(%"class.__gnu_cxx::__normal_iterator"* %8) #3
  %255 = getelementptr inbounds %struct.Edge, %struct.Edge* %254, i32 0, i32 0
  %256 = load i64, i64* %255, align 8
  %257 = getelementptr inbounds [100005 x i8], [100005 x i8]* bitcast ([100005 x i1]* @flag to [100005 x i8]*), i64 0, i64 %256
  %258 = load i8, i8* %257, align 1
  %259 = trunc i8 %258 to i1
  %260 = zext i1 %259 to i32
  %261 = icmp eq i32 %260, 0
  br i1 %261, label %262, label %296

262:                                              ; preds = %253
  %263 = getelementptr inbounds %struct.Edge, %struct.Edge* %254, i32 0, i32 0
  %264 = load i64, i64* %263, align 8
  %265 = getelementptr inbounds [100005 x i64], [100005 x i64]* @D, i64 0, i64 %264
  %266 = load i64, i64* %265, align 8
  %267 = getelementptr inbounds [100005 x i64], [100005 x i64]* @D, i64 0, i64 %245
  %268 = load i64, i64* %267, align 8
  %269 = icmp sgt i64 %266, %268
  br i1 %269, label %270, label %296

270:                                              ; preds = %262
  %271 = getelementptr inbounds %struct.Edge, %struct.Edge* %254, i32 0, i32 0
  %272 = load i64, i64* %271, align 8
  %273 = getelementptr inbounds [100005 x i64], [100005 x i64]* @D, i64 0, i64 %272
  %274 = load i64, i64* %273, align 8
  %275 = getelementptr inbounds [100005 x i64], [100005 x i64]* @D, i64 0, i64 %245
  %276 = load i64, i64* %275, align 8
  %277 = sub nsw i64 %274, %276
  %278 = getelementptr inbounds %struct.Edge, %struct.Edge* %254, i32 0, i32 1
  %279 = load i64, i64* %278, align 8
  %280 = getelementptr inbounds [200005 x i64], [200005 x i64]* @ans, i64 0, i64 %279
  store i64 %277, i64* %280, align 8
  %281 = getelementptr inbounds %struct.Edge, %struct.Edge* %254, i32 0, i32 0
  %282 = load i64, i64* %281, align 8
  %283 = getelementptr inbounds [100005 x i8], [100005 x i8]* bitcast ([100005 x i1]* @flag to [100005 x i8]*), i64 0, i64 %282
  store i8 1, i8* %283, align 1
  %284 = invoke dereferenceable(1) i8* @_ZNSt7__cxx1112basic_stringIcSt11char_traitsIcESaIcEEixEm(%"class.std::__cxx11::basic_string"* %1, i64 %245)
          to label %285 unwind label %112

285:                                              ; preds = %270
  %286 = load i8, i8* %284, align 1
  %287 = getelementptr inbounds %struct.Edge, %struct.Edge* %254, i32 0, i32 0
  %288 = load i64, i64* %287, align 8
  %289 = invoke dereferenceable(1) i8* @_ZNSt7__cxx1112basic_stringIcSt11char_traitsIcESaIcEEixEm(%"class.std::__cxx11::basic_string"* %1, i64 %288)
          to label %290 unwind label %112

290:                                              ; preds = %285
  store i8 %286, i8* %289, align 1
  %291 = getelementptr inbounds %struct.Edge, %struct.Edge* %254, i32 0, i32 0
  %292 = load i64, i64* %291, align 8
  %293 = getelementptr inbounds [100005 x i64], [100005 x i64]* @D, i64 0, i64 %292
  %294 = getelementptr inbounds %struct.Edge, %struct.Edge* %254, i32 0, i32 0
  invoke void @_ZNSt14priority_queueISt4pairIxxESt6vectorIS1_SaIS1_EESt7greaterIS1_EE7emplaceIJRxS9_EEEvDpOT_(%"class.std::priority_queue"* %4, i64* dereferenceable(8) %293, i64* dereferenceable(8) %294)
          to label %295 unwind label %112

295:                                              ; preds = %290
  br label %296

296:                                              ; preds = %295, %262, %253
  br label %297

297:                                              ; preds = %296
  %298 = call dereferenceable(8) %"class.__gnu_cxx::__normal_iterator"* @_ZN9__gnu_cxx17__normal_iteratorIP4EdgeSt6vectorIS1_SaIS1_EEEppEv(%"class.__gnu_cxx::__normal_iterator"* %8) #3
  br label %251

299:                                              ; preds = %251
  br label %234

300:                                              ; preds = %236
  %301 = load i64, i64* @N, align 8
  %302 = getelementptr inbounds i8, i8* getelementptr inbounds ([100005 x i8], [100005 x i8]* bitcast ([100005 x i1]* @flag to [100005 x i8]*), i32 0, i32 0), i64 %301
  store i8 1, i8* %10, align 1
  %303 = invoke i64 @_ZSt5countIPbbENSt15iterator_traitsIT_E15difference_typeES2_S2_RKT0_(i8* getelementptr inbounds ([100005 x i8], [100005 x i8]* bitcast ([100005 x i1]* @flag to [100005 x i8]*), i32 0, i32 0), i8* %302, i8* dereferenceable(1) %10)
          to label %304 unwind label %112

304:                                              ; preds = %300
  %305 = trunc i64 %303 to i32
  %306 = sext i32 %305 to i64
  %307 = load i64, i64* @N, align 8
  %308 = icmp slt i64 %306, %307
  br i1 %308, label %309, label %314

309:                                              ; preds = %304
  %310 = invoke dereferenceable(272) %"class.std::basic_ostream"* @_ZNSolsEi(%"class.std::basic_ostream"* @_ZSt4cout, i32 -1)
          to label %311 unwind label %112

311:                                              ; preds = %309
  %312 = invoke dereferenceable(272) %"class.std::basic_ostream"* @_ZNSolsEPFRSoS_E(%"class.std::basic_ostream"* %310, %"class.std::basic_ostream"* (%"class.std::basic_ostream"*)* @_ZSt4endlIcSt11char_traitsIcEERSt13basic_ostreamIT_T0_ES6_)
          to label %313 unwind label %112

313:                                              ; preds = %311
  br label %334

314:                                              ; preds = %304
  %315 = invoke dereferenceable(272) %"class.std::basic_ostream"* @_ZStlsIcSt11char_traitsIcESaIcEERSt13basic_ostreamIT_T0_ES7_RKNSt7__cxx1112basic_stringIS4_S5_T1_EE(%"class.std::basic_ostream"* dereferenceable(272) @_ZSt4cout, %"class.std::__cxx11::basic_string"* dereferenceable(32) %1)
          to label %316 unwind label %112

316:                                              ; preds = %314
  %317 = invoke dereferenceable(272) %"class.std::basic_ostream"* @_ZNSolsEPFRSoS_E(%"class.std::basic_ostream"* %315, %"class.std::basic_ostream"* (%"class.std::basic_ostream"*)* @_ZSt4endlIcSt11char_traitsIcEERSt13basic_ostreamIT_T0_ES6_)
          to label %318 unwind label %112

318:                                              ; preds = %316
  br label %319

319:                                              ; preds = %331, %318
  %.05 = phi i32 [ 0, %318 ], [ %332, %331 ]
  %320 = sext i32 %.05 to i64
  %321 = load i64, i64* @M, align 8
  %322 = icmp slt i64 %320, %321
  br i1 %322, label %323, label %333

323:                                              ; preds = %319
  %324 = sext i32 %.05 to i64
  %325 = getelementptr inbounds [200005 x i64], [200005 x i64]* @ans, i64 0, i64 %324
  %326 = load i64, i64* %325, align 8
  %327 = invoke dereferenceable(272) %"class.std::basic_ostream"* @_ZNSolsEx(%"class.std::basic_ostream"* @_ZSt4cout, i64 %326)
          to label %328 unwind label %112

328:                                              ; preds = %323
  %329 = invoke dereferenceable(272) %"class.std::basic_ostream"* @_ZStlsISt11char_traitsIcEERSt13basic_ostreamIcT_ES5_c(%"class.std::basic_ostream"* dereferenceable(272) %327, i8 signext 10)
          to label %330 unwind label %112

330:                                              ; preds = %328
  br label %331

331:                                              ; preds = %330
  %332 = add nsw i32 %.05, 1
  br label %319

333:                                              ; preds = %319
  br label %334

334:                                              ; preds = %333, %313
  call void @_ZNSt14priority_queueISt4pairIxxESt6vectorIS1_SaIS1_EESt7greaterIS1_EED2Ev(%"class.std::priority_queue"* %4) #3
  call void @_ZNSt7__cxx1112basic_stringIcSt11char_traitsIcESaIcEED1Ev(%"class.std::__cxx11::basic_string"* %1) #3
  ret i32 0

335:                                              ; preds = %112, %30
  %.02 = phi i32 [ %33, %30 ], [ %115, %112 ]
  %.01 = phi i8* [ %32, %30 ], [ %114, %112 ]
  call void @_ZNSt7__cxx1112basic_stringIcSt11char_traitsIcESaIcEED1Ev(%"class.std::__cxx11::basic_string"* %1) #3
  br label %336

336:                                              ; preds = %335, %26
  %.13 = phi i32 [ %.02, %335 ], [ %29, %26 ]
  %.1 = phi i8* [ %.01, %335 ], [ %28, %26 ]
  %337 = insertvalue { i8*, i32 } undef, i8* %.1, 0
  %338 = insertvalue { i8*, i32 } %337, i32 %.13, 1
  resume { i8*, i32 } %338
}

declare dereferenceable(280) %"class.std::basic_istream"* @_ZNSirsERx(%"class.std::basic_istream"*, i64* dereferenceable(8)) #1

; Function Attrs: nounwind
declare void @_ZNSaIcEC1Ev(%"class.std::allocator.5"*) unnamed_addr #2

declare void @_ZNSt7__cxx1112basic_stringIcSt11char_traitsIcESaIcEEC1EmcRKS3_(%"class.std::__cxx11::basic_string"*, i64, i8 signext, %"class.std::allocator.5"* dereferenceable(1)) unnamed_addr #1

; Function Attrs: nounwind
declare void @_ZNSaIcED1Ev(%"class.std::allocator.5"*) unnamed_addr #2

; Function Attrs: noinline nounwind uwtable
define linkonce_odr void @_ZNSt14priority_queueISt4pairIxxESt6vectorIS1_SaIS1_EESt7greaterIS1_EEC2IS4_vEEv(%"class.std::priority_queue"* %0) unnamed_addr #4 comdat align 2 {
  %2 = getelementptr inbounds %"class.std::priority_queue", %"class.std::priority_queue"* %0, i32 0, i32 0
  call void @_ZNSt6vectorISt4pairIxxESaIS1_EEC2Ev(%"class.std::vector.8"* %2) #3
  %3 = getelementptr inbounds %"class.std::priority_queue", %"class.std::priority_queue"* %0, i32 0, i32 1
  ret void
}

; Function Attrs: noinline uwtable
define linkonce_odr i64* @_ZSt6fill_nIPxiiET_S1_T0_RKT1_(i64* %0, i32 %1, i32* dereferenceable(4) %2) #0 comdat {
  %4 = call i64* @_ZSt12__niter_baseIPxET_S1_(i64* %0)
  %5 = call i64* @_ZSt10__fill_n_aIPxiiEN9__gnu_cxx11__enable_ifIXsr11__is_scalarIT1_EE7__valueET_E6__typeES4_T0_RKS3_(i64* %4, i32 %1, i32* dereferenceable(4) %2)
  ret i64* %5
}

declare dereferenceable(1) i8* @_ZNSt7__cxx1112basic_stringIcSt11char_traitsIcESaIcEEixEm(%"class.std::__cxx11::basic_string"*, i64) #1

; Function Attrs: noinline uwtable
define linkonce_odr void @_ZNSt14priority_queueISt4pairIxxESt6vectorIS1_SaIS1_EESt7greaterIS1_EE7emplaceIJRxS9_EEEvDpOT_(%"class.std::priority_queue"* %0, i64* dereferenceable(8) %1, i64* dereferenceable(8) %2) #0 comdat align 2 {
  %4 = alloca %"class.__gnu_cxx::__normal_iterator.13", align 8
  %5 = alloca %"class.__gnu_cxx::__normal_iterator.13", align 8
  %6 = getelementptr inbounds %"class.std::priority_queue", %"class.std::priority_queue"* %0, i32 0, i32 0
  %7 = call dereferenceable(8) i64* @_ZSt7forwardIRxEOT_RNSt16remove_referenceIS1_E4typeE(i64* dereferenceable(8) %1) #3
  %8 = call dereferenceable(8) i64* @_ZSt7forwardIRxEOT_RNSt16remove_referenceIS1_E4typeE(i64* dereferenceable(8) %2) #3
  call void @_ZNSt6vectorISt4pairIxxESaIS1_EE12emplace_backIJRxS5_EEEvDpOT_(%"class.std::vector.8"* %6, i64* dereferenceable(8) %7, i64* dereferenceable(8) %8)
  %9 = getelementptr inbounds %"class.std::priority_queue", %"class.std::priority_queue"* %0, i32 0, i32 0
  %10 = call %"struct.std::pair"* @_ZNSt6vectorISt4pairIxxESaIS1_EE5beginEv(%"class.std::vector.8"* %9) #3
  %11 = getelementptr inbounds %"class.__gnu_cxx::__normal_iterator.13", %"class.__gnu_cxx::__normal_iterator.13"* %4, i32 0, i32 0
  store %"struct.std::pair"* %10, %"struct.std::pair"** %11, align 8
  %12 = getelementptr inbounds %"class.std::priority_queue", %"class.std::priority_queue"* %0, i32 0, i32 0
  %13 = call %"struct.std::pair"* @_ZNSt6vectorISt4pairIxxESaIS1_EE3endEv(%"class.std::vector.8"* %12) #3
  %14 = getelementptr inbounds %"class.__gnu_cxx::__normal_iterator.13", %"class.__gnu_cxx::__normal_iterator.13"* %5, i32 0, i32 0
  store %"struct.std::pair"* %13, %"struct.std::pair"** %14, align 8
  %15 = getelementptr inbounds %"class.std::priority_queue", %"class.std::priority_queue"* %0, i32 0, i32 1
  %16 = getelementptr inbounds %"class.__gnu_cxx::__normal_iterator.13", %"class.__gnu_cxx::__normal_iterator.13"* %4, i32 0, i32 0
  %17 = load %"struct.std::pair"*, %"struct.std::pair"** %16, align 8
  %18 = getelementptr inbounds %"class.__gnu_cxx::__normal_iterator.13", %"class.__gnu_cxx::__normal_iterator.13"* %5, i32 0, i32 0
  %19 = load %"struct.std::pair"*, %"struct.std::pair"** %18, align 8
  call void @_ZSt9push_heapIN9__gnu_cxx17__normal_iteratorIPSt4pairIxxESt6vectorIS3_SaIS3_EEEESt7greaterIS3_EEvT_SB_T0_(%"struct.std::pair"* %17, %"struct.std::pair"* %19)
  ret void
}

; Function Attrs: noinline nounwind uwtable
define linkonce_odr dereferenceable(24) %"class.std::vector.0"* @_ZNSt6vectorIS_I4EdgeSaIS0_EESaIS2_EEixEm(%"class.std::vector"* %0, i64 %1) #4 comdat align 2 {
  %3 = bitcast %"class.std::vector"* %0 to %"struct.std::_Vector_base"*
  %4 = getelementptr inbounds %"struct.std::_Vector_base", %"struct.std::_Vector_base"* %3, i32 0, i32 0
  %5 = getelementptr inbounds %"struct.std::_Vector_base<std::vector<Edge, std::allocator<Edge> >, std::allocator<std::vector<Edge, std::allocator<Edge> > > >::_Vector_impl", %"struct.std::_Vector_base<std::vector<Edge, std::allocator<Edge> >, std::allocator<std::vector<Edge, std::allocator<Edge> > > >::_Vector_impl"* %4, i32 0, i32 0
  %6 = load %"class.std::vector.0"*, %"class.std::vector.0"** %5, align 8
  %7 = getelementptr inbounds %"class.std::vector.0", %"class.std::vector.0"* %6, i64 %1
  ret %"class.std::vector.0"* %7
}

; Function Attrs: noinline uwtable
define linkonce_odr void @_ZNSt6vectorI4EdgeSaIS0_EE12emplace_backIJRxRiEEEvDpOT_(%"class.std::vector.0"* %0, i64* dereferenceable(8) %1, i32* dereferenceable(4) %2) #0 comdat align 2 {
  %4 = alloca %"class.__gnu_cxx::__normal_iterator", align 8
  %5 = bitcast %"class.std::vector.0"* %0 to %"struct.std::_Vector_base.1"*
  %6 = getelementptr inbounds %"struct.std::_Vector_base.1", %"struct.std::_Vector_base.1"* %5, i32 0, i32 0
  %7 = getelementptr inbounds %"struct.std::_Vector_base<Edge, std::allocator<Edge> >::_Vector_impl", %"struct.std::_Vector_base<Edge, std::allocator<Edge> >::_Vector_impl"* %6, i32 0, i32 1
  %8 = load %struct.Edge*, %struct.Edge** %7, align 8
  %9 = bitcast %"class.std::vector.0"* %0 to %"struct.std::_Vector_base.1"*
  %10 = getelementptr inbounds %"struct.std::_Vector_base.1", %"struct.std::_Vector_base.1"* %9, i32 0, i32 0
  %11 = getelementptr inbounds %"struct.std::_Vector_base<Edge, std::allocator<Edge> >::_Vector_impl", %"struct.std::_Vector_base<Edge, std::allocator<Edge> >::_Vector_impl"* %10, i32 0, i32 2
  %12 = load %struct.Edge*, %struct.Edge** %11, align 8
  %13 = icmp ne %struct.Edge* %8, %12
  br i1 %13, label %14, label %29

14:                                               ; preds = %3
  %15 = bitcast %"class.std::vector.0"* %0 to %"struct.std::_Vector_base.1"*
  %16 = getelementptr inbounds %"struct.std::_Vector_base.1", %"struct.std::_Vector_base.1"* %15, i32 0, i32 0
  %17 = bitcast %"struct.std::_Vector_base<Edge, std::allocator<Edge> >::_Vector_impl"* %16 to %"class.std::allocator.2"*
  %18 = bitcast %"class.std::vector.0"* %0 to %"struct.std::_Vector_base.1"*
  %19 = getelementptr inbounds %"struct.std::_Vector_base.1", %"struct.std::_Vector_base.1"* %18, i32 0, i32 0
  %20 = getelementptr inbounds %"struct.std::_Vector_base<Edge, std::allocator<Edge> >::_Vector_impl", %"struct.std::_Vector_base<Edge, std::allocator<Edge> >::_Vector_impl"* %19, i32 0, i32 1
  %21 = load %struct.Edge*, %struct.Edge** %20, align 8
  %22 = call dereferenceable(8) i64* @_ZSt7forwardIRxEOT_RNSt16remove_referenceIS1_E4typeE(i64* dereferenceable(8) %1) #3
  %23 = call dereferenceable(4) i32* @_ZSt7forwardIRiEOT_RNSt16remove_referenceIS1_E4typeE(i32* dereferenceable(4) %2) #3
  call void @_ZNSt16allocator_traitsISaI4EdgeEE9constructIS0_JRxRiEEEvRS1_PT_DpOT0_(%"class.std::allocator.2"* dereferenceable(1) %17, %struct.Edge* %21, i64* dereferenceable(8) %22, i32* dereferenceable(4) %23)
  %24 = bitcast %"class.std::vector.0"* %0 to %"struct.std::_Vector_base.1"*
  %25 = getelementptr inbounds %"struct.std::_Vector_base.1", %"struct.std::_Vector_base.1"* %24, i32 0, i32 0
  %26 = getelementptr inbounds %"struct.std::_Vector_base<Edge, std::allocator<Edge> >::_Vector_impl", %"struct.std::_Vector_base<Edge, std::allocator<Edge> >::_Vector_impl"* %25, i32 0, i32 1
  %27 = load %struct.Edge*, %struct.Edge** %26, align 8
  %28 = getelementptr inbounds %struct.Edge, %struct.Edge* %27, i32 1
  store %struct.Edge* %28, %struct.Edge** %26, align 8
  br label %36

29:                                               ; preds = %3
  %30 = call %struct.Edge* @_ZNSt6vectorI4EdgeSaIS0_EE3endEv(%"class.std::vector.0"* %0) #3
  %31 = getelementptr inbounds %"class.__gnu_cxx::__normal_iterator", %"class.__gnu_cxx::__normal_iterator"* %4, i32 0, i32 0
  store %struct.Edge* %30, %struct.Edge** %31, align 8
  %32 = call dereferenceable(8) i64* @_ZSt7forwardIRxEOT_RNSt16remove_referenceIS1_E4typeE(i64* dereferenceable(8) %1) #3
  %33 = call dereferenceable(4) i32* @_ZSt7forwardIRiEOT_RNSt16remove_referenceIS1_E4typeE(i32* dereferenceable(4) %2) #3
  %34 = getelementptr inbounds %"class.__gnu_cxx::__normal_iterator", %"class.__gnu_cxx::__normal_iterator"* %4, i32 0, i32 0
  %35 = load %struct.Edge*, %struct.Edge** %34, align 8
  call void @_ZNSt6vectorI4EdgeSaIS0_EE17_M_realloc_insertIJRxRiEEEvN9__gnu_cxx17__normal_iteratorIPS0_S2_EEDpOT_(%"class.std::vector.0"* %0, %struct.Edge* %35, i64* dereferenceable(8) %32, i32* dereferenceable(4) %33)
  br label %36

36:                                               ; preds = %29, %14
  ret void
}

; Function Attrs: noinline nounwind uwtable
define linkonce_odr zeroext i1 @_ZNKSt14priority_queueISt4pairIxxESt6vectorIS1_SaIS1_EESt7greaterIS1_EE5emptyEv(%"class.std::priority_queue"* %0) #4 comdat align 2 {
  %2 = getelementptr inbounds %"class.std::priority_queue", %"class.std::priority_queue"* %0, i32 0, i32 0
  %3 = call zeroext i1 @_ZNKSt6vectorISt4pairIxxESaIS1_EE5emptyEv(%"class.std::vector.8"* %2) #3
  ret i1 %3
}

; Function Attrs: noinline nounwind uwtable
define linkonce_odr dereferenceable(16) %"struct.std::pair"* @_ZNKSt14priority_queueISt4pairIxxESt6vectorIS1_SaIS1_EESt7greaterIS1_EE3topEv(%"class.std::priority_queue"* %0) #4 comdat align 2 {
  %2 = getelementptr inbounds %"class.std::priority_queue", %"class.std::priority_queue"* %0, i32 0, i32 0
  %3 = call dereferenceable(16) %"struct.std::pair"* @_ZNKSt6vectorISt4pairIxxESaIS1_EE5frontEv(%"class.std::vector.8"* %2) #3
  ret %"struct.std::pair"* %3
}

; Function Attrs: noinline uwtable
define linkonce_odr void @_ZNSt14priority_queueISt4pairIxxESt6vectorIS1_SaIS1_EESt7greaterIS1_EE3popEv(%"class.std::priority_queue"* %0) #0 comdat align 2 {
  %2 = alloca %"class.__gnu_cxx::__normal_iterator.13", align 8
  %3 = alloca %"class.__gnu_cxx::__normal_iterator.13", align 8
  %4 = getelementptr inbounds %"class.std::priority_queue", %"class.std::priority_queue"* %0, i32 0, i32 0
  %5 = call %"struct.std::pair"* @_ZNSt6vectorISt4pairIxxESaIS1_EE5beginEv(%"class.std::vector.8"* %4) #3
  %6 = getelementptr inbounds %"class.__gnu_cxx::__normal_iterator.13", %"class.__gnu_cxx::__normal_iterator.13"* %2, i32 0, i32 0
  store %"struct.std::pair"* %5, %"struct.std::pair"** %6, align 8
  %7 = getelementptr inbounds %"class.std::priority_queue", %"class.std::priority_queue"* %0, i32 0, i32 0
  %8 = call %"struct.std::pair"* @_ZNSt6vectorISt4pairIxxESaIS1_EE3endEv(%"class.std::vector.8"* %7) #3
  %9 = getelementptr inbounds %"class.__gnu_cxx::__normal_iterator.13", %"class.__gnu_cxx::__normal_iterator.13"* %3, i32 0, i32 0
  store %"struct.std::pair"* %8, %"struct.std::pair"** %9, align 8
  %10 = getelementptr inbounds %"class.std::priority_queue", %"class.std::priority_queue"* %0, i32 0, i32 1
  %11 = getelementptr inbounds %"class.__gnu_cxx::__normal_iterator.13", %"class.__gnu_cxx::__normal_iterator.13"* %2, i32 0, i32 0
  %12 = load %"struct.std::pair"*, %"struct.std::pair"** %11, align 8
  %13 = getelementptr inbounds %"class.__gnu_cxx::__normal_iterator.13", %"class.__gnu_cxx::__normal_iterator.13"* %3, i32 0, i32 0
  %14 = load %"struct.std::pair"*, %"struct.std::pair"** %13, align 8
  call void @_ZSt8pop_heapIN9__gnu_cxx17__normal_iteratorIPSt4pairIxxESt6vectorIS3_SaIS3_EEEESt7greaterIS3_EEvT_SB_T0_(%"struct.std::pair"* %12, %"struct.std::pair"* %14)
  %15 = getelementptr inbounds %"class.std::priority_queue", %"class.std::priority_queue"* %0, i32 0, i32 0
  call void @_ZNSt6vectorISt4pairIxxESaIS1_EE8pop_backEv(%"class.std::vector.8"* %15) #3
  ret void
}

; Function Attrs: noinline nounwind uwtable
define linkonce_odr %struct.Edge* @_ZNSt6vectorI4EdgeSaIS0_EE5beginEv(%"class.std::vector.0"* %0) #4 comdat align 2 {
  %2 = alloca %"class.__gnu_cxx::__normal_iterator", align 8
  %3 = bitcast %"class.std::vector.0"* %0 to %"struct.std::_Vector_base.1"*
  %4 = getelementptr inbounds %"struct.std::_Vector_base.1", %"struct.std::_Vector_base.1"* %3, i32 0, i32 0
  %5 = getelementptr inbounds %"struct.std::_Vector_base<Edge, std::allocator<Edge> >::_Vector_impl", %"struct.std::_Vector_base<Edge, std::allocator<Edge> >::_Vector_impl"* %4, i32 0, i32 0
  call void @_ZN9__gnu_cxx17__normal_iteratorIP4EdgeSt6vectorIS1_SaIS1_EEEC2ERKS2_(%"class.__gnu_cxx::__normal_iterator"* %2, %struct.Edge** dereferenceable(8) %5) #3
  %6 = getelementptr inbounds %"class.__gnu_cxx::__normal_iterator", %"class.__gnu_cxx::__normal_iterator"* %2, i32 0, i32 0
  %7 = load %struct.Edge*, %struct.Edge** %6, align 8
  ret %struct.Edge* %7
}

; Function Attrs: noinline nounwind uwtable
define linkonce_odr %struct.Edge* @_ZNSt6vectorI4EdgeSaIS0_EE3endEv(%"class.std::vector.0"* %0) #4 comdat align 2 {
  %2 = alloca %"class.__gnu_cxx::__normal_iterator", align 8
  %3 = bitcast %"class.std::vector.0"* %0 to %"struct.std::_Vector_base.1"*
  %4 = getelementptr inbounds %"struct.std::_Vector_base.1", %"struct.std::_Vector_base.1"* %3, i32 0, i32 0
  %5 = getelementptr inbounds %"struct.std::_Vector_base<Edge, std::allocator<Edge> >::_Vector_impl", %"struct.std::_Vector_base<Edge, std::allocator<Edge> >::_Vector_impl"* %4, i32 0, i32 1
  call void @_ZN9__gnu_cxx17__normal_iteratorIP4EdgeSt6vectorIS1_SaIS1_EEEC2ERKS2_(%"class.__gnu_cxx::__normal_iterator"* %2, %struct.Edge** dereferenceable(8) %5) #3
  %6 = getelementptr inbounds %"class.__gnu_cxx::__normal_iterator", %"class.__gnu_cxx::__normal_iterator"* %2, i32 0, i32 0
  %7 = load %struct.Edge*, %struct.Edge** %6, align 8
  ret %struct.Edge* %7
}

; Function Attrs: noinline nounwind uwtable
define linkonce_odr zeroext i1 @_ZN9__gnu_cxxneIP4EdgeSt6vectorIS1_SaIS1_EEEEbRKNS_17__normal_iteratorIT_T0_EESB_(%"class.__gnu_cxx::__normal_iterator"* dereferenceable(8) %0, %"class.__gnu_cxx::__normal_iterator"* dereferenceable(8) %1) #4 comdat {
  %3 = call dereferenceable(8) %struct.Edge** @_ZNK9__gnu_cxx17__normal_iteratorIP4EdgeSt6vectorIS1_SaIS1_EEE4baseEv(%"class.__gnu_cxx::__normal_iterator"* %0) #3
  %4 = load %struct.Edge*, %struct.Edge** %3, align 8
  %5 = call dereferenceable(8) %struct.Edge** @_ZNK9__gnu_cxx17__normal_iteratorIP4EdgeSt6vectorIS1_SaIS1_EEE4baseEv(%"class.__gnu_cxx::__normal_iterator"* %1) #3
  %6 = load %struct.Edge*, %struct.Edge** %5, align 8
  %7 = icmp ne %struct.Edge* %4, %6
  ret i1 %7
}

; Function Attrs: noinline nounwind uwtable
define linkonce_odr dereferenceable(16) %struct.Edge* @_ZNK9__gnu_cxx17__normal_iteratorIP4EdgeSt6vectorIS1_SaIS1_EEEdeEv(%"class.__gnu_cxx::__normal_iterator"* %0) #4 comdat align 2 {
  %2 = getelementptr inbounds %"class.__gnu_cxx::__normal_iterator", %"class.__gnu_cxx::__normal_iterator"* %0, i32 0, i32 0
  %3 = load %struct.Edge*, %struct.Edge** %2, align 8
  ret %struct.Edge* %3
}

; Function Attrs: noinline nounwind uwtable
define linkonce_odr dereferenceable(8) %"class.__gnu_cxx::__normal_iterator"* @_ZN9__gnu_cxx17__normal_iteratorIP4EdgeSt6vectorIS1_SaIS1_EEEppEv(%"class.__gnu_cxx::__normal_iterator"* %0) #4 comdat align 2 {
  %2 = getelementptr inbounds %"class.__gnu_cxx::__normal_iterator", %"class.__gnu_cxx::__normal_iterator"* %0, i32 0, i32 0
  %3 = load %struct.Edge*, %struct.Edge** %2, align 8
  %4 = getelementptr inbounds %struct.Edge, %struct.Edge* %3, i32 1
  store %struct.Edge* %4, %struct.Edge** %2, align 8
  ret %"class.__gnu_cxx::__normal_iterator"* %0
}

; Function Attrs: noinline uwtable
define linkonce_odr i64 @_ZSt5countIPbbENSt15iterator_traitsIT_E15difference_typeES2_S2_RKT0_(i8* %0, i8* %1, i8* dereferenceable(1) %2) #0 comdat {
  %4 = alloca %"struct.__gnu_cxx::__ops::_Iter_equals_val", align 8
  %5 = call i8* @_ZN9__gnu_cxx5__ops17__iter_equals_valIKbEENS0_16_Iter_equals_valIT_EERS4_(i8* dereferenceable(1) %2)
  %6 = getelementptr inbounds %"struct.__gnu_cxx::__ops::_Iter_equals_val", %"struct.__gnu_cxx::__ops::_Iter_equals_val"* %4, i32 0, i32 0
  store i8* %5, i8** %6, align 8
  %7 = getelementptr inbounds %"struct.__gnu_cxx::__ops::_Iter_equals_val", %"struct.__gnu_cxx::__ops::_Iter_equals_val"* %4, i32 0, i32 0
  %8 = load i8*, i8** %7, align 8
  %9 = call i64 @_ZSt10__count_ifIPbN9__gnu_cxx5__ops16_Iter_equals_valIKbEEENSt15iterator_traitsIT_E15difference_typeES7_S7_T0_(i8* %0, i8* %1, i8* %8)
  ret i64 %9
}

declare dereferenceable(272) %"class.std::basic_ostream"* @_ZNSolsEi(%"class.std::basic_ostream"*, i32) #1

declare dereferenceable(272) %"class.std::basic_ostream"* @_ZNSolsEPFRSoS_E(%"class.std::basic_ostream"*, %"class.std::basic_ostream"* (%"class.std::basic_ostream"*)*) #1

declare dereferenceable(272) %"class.std::basic_ostream"* @_ZSt4endlIcSt11char_traitsIcEERSt13basic_ostreamIT_T0_ES6_(%"class.std::basic_ostream"* dereferenceable(272)) #1

declare dereferenceable(272) %"class.std::basic_ostream"* @_ZStlsIcSt11char_traitsIcESaIcEERSt13basic_ostreamIT_T0_ES7_RKNSt7__cxx1112basic_stringIS4_S5_T1_EE(%"class.std::basic_ostream"* dereferenceable(272), %"class.std::__cxx11::basic_string"* dereferenceable(32)) #1

declare dereferenceable(272) %"class.std::basic_ostream"* @_ZStlsISt11char_traitsIcEERSt13basic_ostreamIcT_ES5_c(%"class.std::basic_ostream"* dereferenceable(272), i8 signext) #1

declare dereferenceable(272) %"class.std::basic_ostream"* @_ZNSolsEx(%"class.std::basic_ostream"*, i64) #1

; Function Attrs: noinline nounwind uwtable
define linkonce_odr void @_ZNSt14priority_queueISt4pairIxxESt6vectorIS1_SaIS1_EESt7greaterIS1_EED2Ev(%"class.std::priority_queue"* %0) unnamed_addr #4 comdat align 2 {
  %2 = getelementptr inbounds %"class.std::priority_queue", %"class.std::priority_queue"* %0, i32 0, i32 0
  call void @_ZNSt6vectorISt4pairIxxESaIS1_EED2Ev(%"class.std::vector.8"* %2) #3
  ret void
}

; Function Attrs: nounwind
declare void @_ZNSt7__cxx1112basic_stringIcSt11char_traitsIcESaIcEED1Ev(%"class.std::__cxx11::basic_string"*) unnamed_addr #2

; Function Attrs: noinline nounwind uwtable
define linkonce_odr void @_ZNSt6vectorISt4pairIxxESaIS1_EED2Ev(%"class.std::vector.8"* %0) unnamed_addr #4 comdat align 2 personality i8* bitcast (i32 (...)* @__gxx_personality_v0 to i8*) {
  %2 = bitcast %"class.std::vector.8"* %0 to %"struct.std::_Vector_base.9"*
  %3 = getelementptr inbounds %"struct.std::_Vector_base.9", %"struct.std::_Vector_base.9"* %2, i32 0, i32 0
  %4 = getelementptr inbounds %"struct.std::_Vector_base<std::pair<long long, long long>, std::allocator<std::pair<long long, long long> > >::_Vector_impl", %"struct.std::_Vector_base<std::pair<long long, long long>, std::allocator<std::pair<long long, long long> > >::_Vector_impl"* %3, i32 0, i32 0
  %5 = load %"struct.std::pair"*, %"struct.std::pair"** %4, align 8
  %6 = bitcast %"class.std::vector.8"* %0 to %"struct.std::_Vector_base.9"*
  %7 = getelementptr inbounds %"struct.std::_Vector_base.9", %"struct.std::_Vector_base.9"* %6, i32 0, i32 0
  %8 = getelementptr inbounds %"struct.std::_Vector_base<std::pair<long long, long long>, std::allocator<std::pair<long long, long long> > >::_Vector_impl", %"struct.std::_Vector_base<std::pair<long long, long long>, std::allocator<std::pair<long long, long long> > >::_Vector_impl"* %7, i32 0, i32 1
  %9 = load %"struct.std::pair"*, %"struct.std::pair"** %8, align 8
  %10 = bitcast %"class.std::vector.8"* %0 to %"struct.std::_Vector_base.9"*
  %11 = call dereferenceable(1) %"class.std::allocator.10"* @_ZNSt12_Vector_baseISt4pairIxxESaIS1_EE19_M_get_Tp_allocatorEv(%"struct.std::_Vector_base.9"* %10) #3
  invoke void @_ZSt8_DestroyIPSt4pairIxxES1_EvT_S3_RSaIT0_E(%"struct.std::pair"* %5, %"struct.std::pair"* %9, %"class.std::allocator.10"* dereferenceable(1) %11)
          to label %12 unwind label %14

12:                                               ; preds = %1
  %13 = bitcast %"class.std::vector.8"* %0 to %"struct.std::_Vector_base.9"*
  call void @_ZNSt12_Vector_baseISt4pairIxxESaIS1_EED2Ev(%"struct.std::_Vector_base.9"* %13) #3
  ret void

14:                                               ; preds = %1
  %15 = landingpad { i8*, i32 }
          catch i8* null
  %16 = extractvalue { i8*, i32 } %15, 0
  %17 = extractvalue { i8*, i32 } %15, 1
  %18 = bitcast %"class.std::vector.8"* %0 to %"struct.std::_Vector_base.9"*
  call void @_ZNSt12_Vector_baseISt4pairIxxESaIS1_EED2Ev(%"struct.std::_Vector_base.9"* %18) #3
  br label %19

19:                                               ; preds = %14
  call void @__clang_call_terminate(i8* %16) #12
  unreachable
}

; Function Attrs: noinline uwtable
define linkonce_odr void @_ZSt8_DestroyIPSt4pairIxxES1_EvT_S3_RSaIT0_E(%"struct.std::pair"* %0, %"struct.std::pair"* %1, %"class.std::allocator.10"* dereferenceable(1) %2) #0 comdat {
  call void @_ZSt8_DestroyIPSt4pairIxxEEvT_S3_(%"struct.std::pair"* %0, %"struct.std::pair"* %1)
  ret void
}

; Function Attrs: noinline nounwind uwtable
define linkonce_odr dereferenceable(1) %"class.std::allocator.10"* @_ZNSt12_Vector_baseISt4pairIxxESaIS1_EE19_M_get_Tp_allocatorEv(%"struct.std::_Vector_base.9"* %0) #4 comdat align 2 {
  %2 = getelementptr inbounds %"struct.std::_Vector_base.9", %"struct.std::_Vector_base.9"* %0, i32 0, i32 0
  %3 = bitcast %"struct.std::_Vector_base<std::pair<long long, long long>, std::allocator<std::pair<long long, long long> > >::_Vector_impl"* %2 to %"class.std::allocator.10"*
  ret %"class.std::allocator.10"* %3
}

; Function Attrs: noinline nounwind uwtable
define linkonce_odr void @_ZNSt12_Vector_baseISt4pairIxxESaIS1_EED2Ev(%"struct.std::_Vector_base.9"* %0) unnamed_addr #4 comdat align 2 personality i8* bitcast (i32 (...)* @__gxx_personality_v0 to i8*) {
  %2 = getelementptr inbounds %"struct.std::_Vector_base.9", %"struct.std::_Vector_base.9"* %0, i32 0, i32 0
  %3 = getelementptr inbounds %"struct.std::_Vector_base<std::pair<long long, long long>, std::allocator<std::pair<long long, long long> > >::_Vector_impl", %"struct.std::_Vector_base<std::pair<long long, long long>, std::allocator<std::pair<long long, long long> > >::_Vector_impl"* %2, i32 0, i32 0
  %4 = load %"struct.std::pair"*, %"struct.std::pair"** %3, align 8
  %5 = getelementptr inbounds %"struct.std::_Vector_base.9", %"struct.std::_Vector_base.9"* %0, i32 0, i32 0
  %6 = getelementptr inbounds %"struct.std::_Vector_base<std::pair<long long, long long>, std::allocator<std::pair<long long, long long> > >::_Vector_impl", %"struct.std::_Vector_base<std::pair<long long, long long>, std::allocator<std::pair<long long, long long> > >::_Vector_impl"* %5, i32 0, i32 2
  %7 = load %"struct.std::pair"*, %"struct.std::pair"** %6, align 8
  %8 = getelementptr inbounds %"struct.std::_Vector_base.9", %"struct.std::_Vector_base.9"* %0, i32 0, i32 0
  %9 = getelementptr inbounds %"struct.std::_Vector_base<std::pair<long long, long long>, std::allocator<std::pair<long long, long long> > >::_Vector_impl", %"struct.std::_Vector_base<std::pair<long long, long long>, std::allocator<std::pair<long long, long long> > >::_Vector_impl"* %8, i32 0, i32 0
  %10 = load %"struct.std::pair"*, %"struct.std::pair"** %9, align 8
  %11 = ptrtoint %"struct.std::pair"* %7 to i64
  %12 = ptrtoint %"struct.std::pair"* %10 to i64
  %13 = sub i64 %11, %12
  %14 = sdiv exact i64 %13, 16
  invoke void @_ZNSt12_Vector_baseISt4pairIxxESaIS1_EE13_M_deallocateEPS1_m(%"struct.std::_Vector_base.9"* %0, %"struct.std::pair"* %4, i64 %14)
          to label %15 unwind label %17

15:                                               ; preds = %1
  %16 = getelementptr inbounds %"struct.std::_Vector_base.9", %"struct.std::_Vector_base.9"* %0, i32 0, i32 0
  call void @_ZNSt12_Vector_baseISt4pairIxxESaIS1_EE12_Vector_implD2Ev(%"struct.std::_Vector_base<std::pair<long long, long long>, std::allocator<std::pair<long long, long long> > >::_Vector_impl"* %16) #3
  ret void

17:                                               ; preds = %1
  %18 = landingpad { i8*, i32 }
          catch i8* null
  %19 = extractvalue { i8*, i32 } %18, 0
  %20 = extractvalue { i8*, i32 } %18, 1
  %21 = getelementptr inbounds %"struct.std::_Vector_base.9", %"struct.std::_Vector_base.9"* %0, i32 0, i32 0
  call void @_ZNSt12_Vector_baseISt4pairIxxESaIS1_EE12_Vector_implD2Ev(%"struct.std::_Vector_base<std::pair<long long, long long>, std::allocator<std::pair<long long, long long> > >::_Vector_impl"* %21) #3
  br label %22

22:                                               ; preds = %17
  call void @__clang_call_terminate(i8* %19) #12
  unreachable
}

; Function Attrs: noinline noreturn nounwind
define linkonce_odr hidden void @__clang_call_terminate(i8* %0) #6 comdat {
  %2 = call i8* @__cxa_begin_catch(i8* %0) #3
  call void @_ZSt9terminatev() #12
  unreachable
}

declare i8* @__cxa_begin_catch(i8*)

declare void @_ZSt9terminatev()

; Function Attrs: noinline uwtable
define linkonce_odr void @_ZSt8_DestroyIPSt4pairIxxEEvT_S3_(%"struct.std::pair"* %0, %"struct.std::pair"* %1) #0 comdat {
  call void @_ZNSt12_Destroy_auxILb1EE9__destroyIPSt4pairIxxEEEvT_S5_(%"struct.std::pair"* %0, %"struct.std::pair"* %1)
  ret void
}

; Function Attrs: noinline nounwind uwtable
define linkonce_odr void @_ZNSt12_Destroy_auxILb1EE9__destroyIPSt4pairIxxEEEvT_S5_(%"struct.std::pair"* %0, %"struct.std::pair"* %1) #4 comdat align 2 {
  ret void
}

; Function Attrs: noinline uwtable
define linkonce_odr void @_ZNSt12_Vector_baseISt4pairIxxESaIS1_EE13_M_deallocateEPS1_m(%"struct.std::_Vector_base.9"* %0, %"struct.std::pair"* %1, i64 %2) #0 comdat align 2 {
  %4 = icmp ne %"struct.std::pair"* %1, null
  br i1 %4, label %5, label %8

5:                                                ; preds = %3
  %6 = getelementptr inbounds %"struct.std::_Vector_base.9", %"struct.std::_Vector_base.9"* %0, i32 0, i32 0
  %7 = bitcast %"struct.std::_Vector_base<std::pair<long long, long long>, std::allocator<std::pair<long long, long long> > >::_Vector_impl"* %6 to %"class.std::allocator.10"*
  call void @_ZNSt16allocator_traitsISaISt4pairIxxEEE10deallocateERS2_PS1_m(%"class.std::allocator.10"* dereferenceable(1) %7, %"struct.std::pair"* %1, i64 %2)
  br label %8

8:                                                ; preds = %5, %3
  ret void
}

; Function Attrs: noinline nounwind uwtable
define linkonce_odr void @_ZNSt12_Vector_baseISt4pairIxxESaIS1_EE12_Vector_implD2Ev(%"struct.std::_Vector_base<std::pair<long long, long long>, std::allocator<std::pair<long long, long long> > >::_Vector_impl"* %0) unnamed_addr #4 comdat align 2 {
  %2 = bitcast %"struct.std::_Vector_base<std::pair<long long, long long>, std::allocator<std::pair<long long, long long> > >::_Vector_impl"* %0 to %"class.std::allocator.10"*
  call void @_ZNSaISt4pairIxxEED2Ev(%"class.std::allocator.10"* %2) #3
  ret void
}

; Function Attrs: noinline uwtable
define linkonce_odr void @_ZNSt16allocator_traitsISaISt4pairIxxEEE10deallocateERS2_PS1_m(%"class.std::allocator.10"* dereferenceable(1) %0, %"struct.std::pair"* %1, i64 %2) #0 comdat align 2 {
  %4 = bitcast %"class.std::allocator.10"* %0 to %"class.__gnu_cxx::new_allocator.11"*
  call void @_ZN9__gnu_cxx13new_allocatorISt4pairIxxEE10deallocateEPS2_m(%"class.__gnu_cxx::new_allocator.11"* %4, %"struct.std::pair"* %1, i64 %2)
  ret void
}

; Function Attrs: noinline nounwind uwtable
define linkonce_odr void @_ZN9__gnu_cxx13new_allocatorISt4pairIxxEE10deallocateEPS2_m(%"class.__gnu_cxx::new_allocator.11"* %0, %"struct.std::pair"* %1, i64 %2) #4 comdat align 2 {
  %4 = bitcast %"struct.std::pair"* %1 to i8*
  call void @_ZdlPv(i8* %4) #3
  ret void
}

; Function Attrs: nobuiltin nounwind
declare void @_ZdlPv(i8*) #7

; Function Attrs: noinline nounwind uwtable
define linkonce_odr void @_ZNSaISt4pairIxxEED2Ev(%"class.std::allocator.10"* %0) unnamed_addr #4 comdat align 2 {
  %2 = bitcast %"class.std::allocator.10"* %0 to %"class.__gnu_cxx::new_allocator.11"*
  call void @_ZN9__gnu_cxx13new_allocatorISt4pairIxxEED2Ev(%"class.__gnu_cxx::new_allocator.11"* %2) #3
  ret void
}

; Function Attrs: noinline nounwind uwtable
define linkonce_odr void @_ZN9__gnu_cxx13new_allocatorISt4pairIxxEED2Ev(%"class.__gnu_cxx::new_allocator.11"* %0) unnamed_addr #4 comdat align 2 {
  ret void
}

; Function Attrs: noinline nounwind uwtable
define linkonce_odr void @_ZN9__gnu_cxx13new_allocatorISt6vectorI4EdgeSaIS2_EEEC2Ev(%"class.__gnu_cxx::new_allocator"* %0) unnamed_addr #4 comdat align 2 {
  ret void
}

; Function Attrs: noinline nounwind uwtable
define linkonce_odr void @_ZN9__gnu_cxx13new_allocatorISt6vectorI4EdgeSaIS2_EEED2Ev(%"class.__gnu_cxx::new_allocator"* %0) unnamed_addr #4 comdat align 2 {
  ret void
}

; Function Attrs: noinline uwtable
define linkonce_odr void @_ZNSt12_Vector_baseISt6vectorI4EdgeSaIS1_EESaIS3_EEC2EmRKS4_(%"struct.std::_Vector_base"* %0, i64 %1, %"class.std::allocator"* dereferenceable(1) %2) unnamed_addr #0 comdat align 2 personality i8* bitcast (i32 (...)* @__gxx_personality_v0 to i8*) {
  %4 = getelementptr inbounds %"struct.std::_Vector_base", %"struct.std::_Vector_base"* %0, i32 0, i32 0
  call void @_ZNSt12_Vector_baseISt6vectorI4EdgeSaIS1_EESaIS3_EE12_Vector_implC2ERKS4_(%"struct.std::_Vector_base<std::vector<Edge, std::allocator<Edge> >, std::allocator<std::vector<Edge, std::allocator<Edge> > > >::_Vector_impl"* %4, %"class.std::allocator"* dereferenceable(1) %2) #3
  invoke void @_ZNSt12_Vector_baseISt6vectorI4EdgeSaIS1_EESaIS3_EE17_M_create_storageEm(%"struct.std::_Vector_base"* %0, i64 %1)
          to label %5 unwind label %6

5:                                                ; preds = %3
  ret void

6:                                                ; preds = %3
  %7 = landingpad { i8*, i32 }
          cleanup
  %8 = extractvalue { i8*, i32 } %7, 0
  %9 = extractvalue { i8*, i32 } %7, 1
  call void @_ZNSt12_Vector_baseISt6vectorI4EdgeSaIS1_EESaIS3_EE12_Vector_implD2Ev(%"struct.std::_Vector_base<std::vector<Edge, std::allocator<Edge> >, std::allocator<std::vector<Edge, std::allocator<Edge> > > >::_Vector_impl"* %4) #3
  br label %10

10:                                               ; preds = %6
  %11 = insertvalue { i8*, i32 } undef, i8* %8, 0
  %12 = insertvalue { i8*, i32 } %11, i32 %9, 1
  resume { i8*, i32 } %12
}

; Function Attrs: noinline uwtable
define linkonce_odr void @_ZNSt6vectorIS_I4EdgeSaIS0_EESaIS2_EE21_M_default_initializeEm(%"class.std::vector"* %0, i64 %1) #0 comdat align 2 {
  %3 = bitcast %"class.std::vector"* %0 to %"struct.std::_Vector_base"*
  %4 = getelementptr inbounds %"struct.std::_Vector_base", %"struct.std::_Vector_base"* %3, i32 0, i32 0
  %5 = getelementptr inbounds %"struct.std::_Vector_base<std::vector<Edge, std::allocator<Edge> >, std::allocator<std::vector<Edge, std::allocator<Edge> > > >::_Vector_impl", %"struct.std::_Vector_base<std::vector<Edge, std::allocator<Edge> >, std::allocator<std::vector<Edge, std::allocator<Edge> > > >::_Vector_impl"* %4, i32 0, i32 0
  %6 = load %"class.std::vector.0"*, %"class.std::vector.0"** %5, align 8
  %7 = bitcast %"class.std::vector"* %0 to %"struct.std::_Vector_base"*
  %8 = call dereferenceable(1) %"class.std::allocator"* @_ZNSt12_Vector_baseISt6vectorI4EdgeSaIS1_EESaIS3_EE19_M_get_Tp_allocatorEv(%"struct.std::_Vector_base"* %7) #3
  %9 = call %"class.std::vector.0"* @_ZSt27__uninitialized_default_n_aIPSt6vectorI4EdgeSaIS1_EEmS3_ET_S5_T0_RSaIT1_E(%"class.std::vector.0"* %6, i64 %1, %"class.std::allocator"* dereferenceable(1) %8)
  %10 = bitcast %"class.std::vector"* %0 to %"struct.std::_Vector_base"*
  %11 = getelementptr inbounds %"struct.std::_Vector_base", %"struct.std::_Vector_base"* %10, i32 0, i32 0
  %12 = getelementptr inbounds %"struct.std::_Vector_base<std::vector<Edge, std::allocator<Edge> >, std::allocator<std::vector<Edge, std::allocator<Edge> > > >::_Vector_impl", %"struct.std::_Vector_base<std::vector<Edge, std::allocator<Edge> >, std::allocator<std::vector<Edge, std::allocator<Edge> > > >::_Vector_impl"* %11, i32 0, i32 1
  store %"class.std::vector.0"* %9, %"class.std::vector.0"** %12, align 8
  ret void
}

; Function Attrs: noinline nounwind uwtable
define linkonce_odr void @_ZNSt12_Vector_baseISt6vectorI4EdgeSaIS1_EESaIS3_EED2Ev(%"struct.std::_Vector_base"* %0) unnamed_addr #4 comdat align 2 personality i8* bitcast (i32 (...)* @__gxx_personality_v0 to i8*) {
  %2 = getelementptr inbounds %"struct.std::_Vector_base", %"struct.std::_Vector_base"* %0, i32 0, i32 0
  %3 = getelementptr inbounds %"struct.std::_Vector_base<std::vector<Edge, std::allocator<Edge> >, std::allocator<std::vector<Edge, std::allocator<Edge> > > >::_Vector_impl", %"struct.std::_Vector_base<std::vector<Edge, std::allocator<Edge> >, std::allocator<std::vector<Edge, std::allocator<Edge> > > >::_Vector_impl"* %2, i32 0, i32 0
  %4 = load %"class.std::vector.0"*, %"class.std::vector.0"** %3, align 8
  %5 = getelementptr inbounds %"struct.std::_Vector_base", %"struct.std::_Vector_base"* %0, i32 0, i32 0
  %6 = getelementptr inbounds %"struct.std::_Vector_base<std::vector<Edge, std::allocator<Edge> >, std::allocator<std::vector<Edge, std::allocator<Edge> > > >::_Vector_impl", %"struct.std::_Vector_base<std::vector<Edge, std::allocator<Edge> >, std::allocator<std::vector<Edge, std::allocator<Edge> > > >::_Vector_impl"* %5, i32 0, i32 2
  %7 = load %"class.std::vector.0"*, %"class.std::vector.0"** %6, align 8
  %8 = getelementptr inbounds %"struct.std::_Vector_base", %"struct.std::_Vector_base"* %0, i32 0, i32 0
  %9 = getelementptr inbounds %"struct.std::_Vector_base<std::vector<Edge, std::allocator<Edge> >, std::allocator<std::vector<Edge, std::allocator<Edge> > > >::_Vector_impl", %"struct.std::_Vector_base<std::vector<Edge, std::allocator<Edge> >, std::allocator<std::vector<Edge, std::allocator<Edge> > > >::_Vector_impl"* %8, i32 0, i32 0
  %10 = load %"class.std::vector.0"*, %"class.std::vector.0"** %9, align 8
  %11 = ptrtoint %"class.std::vector.0"* %7 to i64
  %12 = ptrtoint %"class.std::vector.0"* %10 to i64
  %13 = sub i64 %11, %12
  %14 = sdiv exact i64 %13, 24
  invoke void @_ZNSt12_Vector_baseISt6vectorI4EdgeSaIS1_EESaIS3_EE13_M_deallocateEPS3_m(%"struct.std::_Vector_base"* %0, %"class.std::vector.0"* %4, i64 %14)
          to label %15 unwind label %17

15:                                               ; preds = %1
  %16 = getelementptr inbounds %"struct.std::_Vector_base", %"struct.std::_Vector_base"* %0, i32 0, i32 0
  call void @_ZNSt12_Vector_baseISt6vectorI4EdgeSaIS1_EESaIS3_EE12_Vector_implD2Ev(%"struct.std::_Vector_base<std::vector<Edge, std::allocator<Edge> >, std::allocator<std::vector<Edge, std::allocator<Edge> > > >::_Vector_impl"* %16) #3
  ret void

17:                                               ; preds = %1
  %18 = landingpad { i8*, i32 }
          catch i8* null
  %19 = extractvalue { i8*, i32 } %18, 0
  %20 = extractvalue { i8*, i32 } %18, 1
  %21 = getelementptr inbounds %"struct.std::_Vector_base", %"struct.std::_Vector_base"* %0, i32 0, i32 0
  call void @_ZNSt12_Vector_baseISt6vectorI4EdgeSaIS1_EESaIS3_EE12_Vector_implD2Ev(%"struct.std::_Vector_base<std::vector<Edge, std::allocator<Edge> >, std::allocator<std::vector<Edge, std::allocator<Edge> > > >::_Vector_impl"* %21) #3
  br label %22

22:                                               ; preds = %17
  call void @__clang_call_terminate(i8* %19) #12
  unreachable
}

; Function Attrs: noinline nounwind uwtable
define linkonce_odr void @_ZNSt12_Vector_baseISt6vectorI4EdgeSaIS1_EESaIS3_EE12_Vector_implC2ERKS4_(%"struct.std::_Vector_base<std::vector<Edge, std::allocator<Edge> >, std::allocator<std::vector<Edge, std::allocator<Edge> > > >::_Vector_impl"* %0, %"class.std::allocator"* dereferenceable(1) %1) unnamed_addr #4 comdat align 2 {
  %3 = bitcast %"struct.std::_Vector_base<std::vector<Edge, std::allocator<Edge> >, std::allocator<std::vector<Edge, std::allocator<Edge> > > >::_Vector_impl"* %0 to %"class.std::allocator"*
  call void @_ZNSaISt6vectorI4EdgeSaIS0_EEEC2ERKS3_(%"class.std::allocator"* %3, %"class.std::allocator"* dereferenceable(1) %1) #3
  %4 = getelementptr inbounds %"struct.std::_Vector_base<std::vector<Edge, std::allocator<Edge> >, std::allocator<std::vector<Edge, std::allocator<Edge> > > >::_Vector_impl", %"struct.std::_Vector_base<std::vector<Edge, std::allocator<Edge> >, std::allocator<std::vector<Edge, std::allocator<Edge> > > >::_Vector_impl"* %0, i32 0, i32 0
  store %"class.std::vector.0"* null, %"class.std::vector.0"** %4, align 8
  %5 = getelementptr inbounds %"struct.std::_Vector_base<std::vector<Edge, std::allocator<Edge> >, std::allocator<std::vector<Edge, std::allocator<Edge> > > >::_Vector_impl", %"struct.std::_Vector_base<std::vector<Edge, std::allocator<Edge> >, std::allocator<std::vector<Edge, std::allocator<Edge> > > >::_Vector_impl"* %0, i32 0, i32 1
  store %"class.std::vector.0"* null, %"class.std::vector.0"** %5, align 8
  %6 = getelementptr inbounds %"struct.std::_Vector_base<std::vector<Edge, std::allocator<Edge> >, std::allocator<std::vector<Edge, std::allocator<Edge> > > >::_Vector_impl", %"struct.std::_Vector_base<std::vector<Edge, std::allocator<Edge> >, std::allocator<std::vector<Edge, std::allocator<Edge> > > >::_Vector_impl"* %0, i32 0, i32 2
  store %"class.std::vector.0"* null, %"class.std::vector.0"** %6, align 8
  ret void
}

; Function Attrs: noinline uwtable
define linkonce_odr void @_ZNSt12_Vector_baseISt6vectorI4EdgeSaIS1_EESaIS3_EE17_M_create_storageEm(%"struct.std::_Vector_base"* %0, i64 %1) #0 comdat align 2 {
  %3 = call %"class.std::vector.0"* @_ZNSt12_Vector_baseISt6vectorI4EdgeSaIS1_EESaIS3_EE11_M_allocateEm(%"struct.std::_Vector_base"* %0, i64 %1)
  %4 = getelementptr inbounds %"struct.std::_Vector_base", %"struct.std::_Vector_base"* %0, i32 0, i32 0
  %5 = getelementptr inbounds %"struct.std::_Vector_base<std::vector<Edge, std::allocator<Edge> >, std::allocator<std::vector<Edge, std::allocator<Edge> > > >::_Vector_impl", %"struct.std::_Vector_base<std::vector<Edge, std::allocator<Edge> >, std::allocator<std::vector<Edge, std::allocator<Edge> > > >::_Vector_impl"* %4, i32 0, i32 0
  store %"class.std::vector.0"* %3, %"class.std::vector.0"** %5, align 8
  %6 = getelementptr inbounds %"struct.std::_Vector_base", %"struct.std::_Vector_base"* %0, i32 0, i32 0
  %7 = getelementptr inbounds %"struct.std::_Vector_base<std::vector<Edge, std::allocator<Edge> >, std::allocator<std::vector<Edge, std::allocator<Edge> > > >::_Vector_impl", %"struct.std::_Vector_base<std::vector<Edge, std::allocator<Edge> >, std::allocator<std::vector<Edge, std::allocator<Edge> > > >::_Vector_impl"* %6, i32 0, i32 0
  %8 = load %"class.std::vector.0"*, %"class.std::vector.0"** %7, align 8
  %9 = getelementptr inbounds %"struct.std::_Vector_base", %"struct.std::_Vector_base"* %0, i32 0, i32 0
  %10 = getelementptr inbounds %"struct.std::_Vector_base<std::vector<Edge, std::allocator<Edge> >, std::allocator<std::vector<Edge, std::allocator<Edge> > > >::_Vector_impl", %"struct.std::_Vector_base<std::vector<Edge, std::allocator<Edge> >, std::allocator<std::vector<Edge, std::allocator<Edge> > > >::_Vector_impl"* %9, i32 0, i32 1
  store %"class.std::vector.0"* %8, %"class.std::vector.0"** %10, align 8
  %11 = getelementptr inbounds %"struct.std::_Vector_base", %"struct.std::_Vector_base"* %0, i32 0, i32 0
  %12 = getelementptr inbounds %"struct.std::_Vector_base<std::vector<Edge, std::allocator<Edge> >, std::allocator<std::vector<Edge, std::allocator<Edge> > > >::_Vector_impl", %"struct.std::_Vector_base<std::vector<Edge, std::allocator<Edge> >, std::allocator<std::vector<Edge, std::allocator<Edge> > > >::_Vector_impl"* %11, i32 0, i32 0
  %13 = load %"class.std::vector.0"*, %"class.std::vector.0"** %12, align 8
  %14 = getelementptr inbounds %"class.std::vector.0", %"class.std::vector.0"* %13, i64 %1
  %15 = getelementptr inbounds %"struct.std::_Vector_base", %"struct.std::_Vector_base"* %0, i32 0, i32 0
  %16 = getelementptr inbounds %"struct.std::_Vector_base<std::vector<Edge, std::allocator<Edge> >, std::allocator<std::vector<Edge, std::allocator<Edge> > > >::_Vector_impl", %"struct.std::_Vector_base<std::vector<Edge, std::allocator<Edge> >, std::allocator<std::vector<Edge, std::allocator<Edge> > > >::_Vector_impl"* %15, i32 0, i32 2
  store %"class.std::vector.0"* %14, %"class.std::vector.0"** %16, align 8
  ret void
}

; Function Attrs: noinline nounwind uwtable
define linkonce_odr void @_ZNSt12_Vector_baseISt6vectorI4EdgeSaIS1_EESaIS3_EE12_Vector_implD2Ev(%"struct.std::_Vector_base<std::vector<Edge, std::allocator<Edge> >, std::allocator<std::vector<Edge, std::allocator<Edge> > > >::_Vector_impl"* %0) unnamed_addr #4 comdat align 2 {
  %2 = bitcast %"struct.std::_Vector_base<std::vector<Edge, std::allocator<Edge> >, std::allocator<std::vector<Edge, std::allocator<Edge> > > >::_Vector_impl"* %0 to %"class.std::allocator"*
  call void @_ZNSaISt6vectorI4EdgeSaIS0_EEED2Ev(%"class.std::allocator"* %2) #3
  ret void
}

; Function Attrs: noinline nounwind uwtable
define linkonce_odr void @_ZNSaISt6vectorI4EdgeSaIS0_EEEC2ERKS3_(%"class.std::allocator"* %0, %"class.std::allocator"* dereferenceable(1) %1) unnamed_addr #4 comdat align 2 {
  %3 = bitcast %"class.std::allocator"* %0 to %"class.__gnu_cxx::new_allocator"*
  %4 = bitcast %"class.std::allocator"* %1 to %"class.__gnu_cxx::new_allocator"*
  call void @_ZN9__gnu_cxx13new_allocatorISt6vectorI4EdgeSaIS2_EEEC2ERKS5_(%"class.__gnu_cxx::new_allocator"* %3, %"class.__gnu_cxx::new_allocator"* dereferenceable(1) %4) #3
  ret void
}

; Function Attrs: noinline nounwind uwtable
define linkonce_odr void @_ZN9__gnu_cxx13new_allocatorISt6vectorI4EdgeSaIS2_EEEC2ERKS5_(%"class.__gnu_cxx::new_allocator"* %0, %"class.__gnu_cxx::new_allocator"* dereferenceable(1) %1) unnamed_addr #4 comdat align 2 {
  ret void
}

; Function Attrs: noinline uwtable
define linkonce_odr %"class.std::vector.0"* @_ZNSt12_Vector_baseISt6vectorI4EdgeSaIS1_EESaIS3_EE11_M_allocateEm(%"struct.std::_Vector_base"* %0, i64 %1) #0 comdat align 2 {
  %3 = icmp ne i64 %1, 0
  br i1 %3, label %4, label %8

4:                                                ; preds = %2
  %5 = getelementptr inbounds %"struct.std::_Vector_base", %"struct.std::_Vector_base"* %0, i32 0, i32 0
  %6 = bitcast %"struct.std::_Vector_base<std::vector<Edge, std::allocator<Edge> >, std::allocator<std::vector<Edge, std::allocator<Edge> > > >::_Vector_impl"* %5 to %"class.std::allocator"*
  %7 = call %"class.std::vector.0"* @_ZNSt16allocator_traitsISaISt6vectorI4EdgeSaIS1_EEEE8allocateERS4_m(%"class.std::allocator"* dereferenceable(1) %6, i64 %1)
  br label %9

8:                                                ; preds = %2
  br label %9

9:                                                ; preds = %8, %4
  %10 = phi %"class.std::vector.0"* [ %7, %4 ], [ null, %8 ]
  ret %"class.std::vector.0"* %10
}

; Function Attrs: noinline uwtable
define linkonce_odr %"class.std::vector.0"* @_ZNSt16allocator_traitsISaISt6vectorI4EdgeSaIS1_EEEE8allocateERS4_m(%"class.std::allocator"* dereferenceable(1) %0, i64 %1) #0 comdat align 2 {
  %3 = bitcast %"class.std::allocator"* %0 to %"class.__gnu_cxx::new_allocator"*
  %4 = call %"class.std::vector.0"* @_ZN9__gnu_cxx13new_allocatorISt6vectorI4EdgeSaIS2_EEE8allocateEmPKv(%"class.__gnu_cxx::new_allocator"* %3, i64 %1, i8* null)
  ret %"class.std::vector.0"* %4
}

; Function Attrs: noinline uwtable
define linkonce_odr %"class.std::vector.0"* @_ZN9__gnu_cxx13new_allocatorISt6vectorI4EdgeSaIS2_EEE8allocateEmPKv(%"class.__gnu_cxx::new_allocator"* %0, i64 %1, i8* %2) #0 comdat align 2 {
  %4 = call i64 @_ZNK9__gnu_cxx13new_allocatorISt6vectorI4EdgeSaIS2_EEE8max_sizeEv(%"class.__gnu_cxx::new_allocator"* %0) #3
  %5 = icmp ugt i64 %1, %4
  br i1 %5, label %6, label %7

6:                                                ; preds = %3
  call void @_ZSt17__throw_bad_allocv() #13
  unreachable

7:                                                ; preds = %3
  %8 = mul i64 %1, 24
  %9 = call i8* @_Znwm(i64 %8)
  %10 = bitcast i8* %9 to %"class.std::vector.0"*
  ret %"class.std::vector.0"* %10
}

; Function Attrs: noinline nounwind uwtable
define linkonce_odr i64 @_ZNK9__gnu_cxx13new_allocatorISt6vectorI4EdgeSaIS2_EEE8max_sizeEv(%"class.__gnu_cxx::new_allocator"* %0) #4 comdat align 2 {
  ret i64 768614336404564650
}

; Function Attrs: noreturn
declare void @_ZSt17__throw_bad_allocv() #8

; Function Attrs: nobuiltin
declare noalias i8* @_Znwm(i64) #9

; Function Attrs: noinline uwtable
define linkonce_odr %"class.std::vector.0"* @_ZSt27__uninitialized_default_n_aIPSt6vectorI4EdgeSaIS1_EEmS3_ET_S5_T0_RSaIT1_E(%"class.std::vector.0"* %0, i64 %1, %"class.std::allocator"* dereferenceable(1) %2) #0 comdat {
  %4 = call %"class.std::vector.0"* @_ZSt25__uninitialized_default_nIPSt6vectorI4EdgeSaIS1_EEmET_S5_T0_(%"class.std::vector.0"* %0, i64 %1)
  ret %"class.std::vector.0"* %4
}

; Function Attrs: noinline nounwind uwtable
define linkonce_odr dereferenceable(1) %"class.std::allocator"* @_ZNSt12_Vector_baseISt6vectorI4EdgeSaIS1_EESaIS3_EE19_M_get_Tp_allocatorEv(%"struct.std::_Vector_base"* %0) #4 comdat align 2 {
  %2 = getelementptr inbounds %"struct.std::_Vector_base", %"struct.std::_Vector_base"* %0, i32 0, i32 0
  %3 = bitcast %"struct.std::_Vector_base<std::vector<Edge, std::allocator<Edge> >, std::allocator<std::vector<Edge, std::allocator<Edge> > > >::_Vector_impl"* %2 to %"class.std::allocator"*
  ret %"class.std::allocator"* %3
}

; Function Attrs: noinline uwtable
define linkonce_odr %"class.std::vector.0"* @_ZSt25__uninitialized_default_nIPSt6vectorI4EdgeSaIS1_EEmET_S5_T0_(%"class.std::vector.0"* %0, i64 %1) #0 comdat {
  %3 = call %"class.std::vector.0"* @_ZNSt27__uninitialized_default_n_1ILb0EE18__uninit_default_nIPSt6vectorI4EdgeSaIS3_EEmEET_S7_T0_(%"class.std::vector.0"* %0, i64 %1)
  ret %"class.std::vector.0"* %3
}

; Function Attrs: noinline uwtable
define linkonce_odr %"class.std::vector.0"* @_ZNSt27__uninitialized_default_n_1ILb0EE18__uninit_default_nIPSt6vectorI4EdgeSaIS3_EEmEET_S7_T0_(%"class.std::vector.0"* %0, i64 %1) #0 comdat align 2 personality i8* bitcast (i32 (...)* @__gxx_personality_v0 to i8*) {
  br label %3

3:                                                ; preds = %8, %2
  %.01 = phi %"class.std::vector.0"* [ %0, %2 ], [ %10, %8 ]
  %.0 = phi i64 [ %1, %2 ], [ %9, %8 ]
  %4 = icmp ugt i64 %.0, 0
  br i1 %4, label %5, label %18

5:                                                ; preds = %3
  %6 = call %"class.std::vector.0"* @_ZSt11__addressofISt6vectorI4EdgeSaIS1_EEEPT_RS4_(%"class.std::vector.0"* dereferenceable(24) %.01) #3
  invoke void @_ZSt10_ConstructISt6vectorI4EdgeSaIS1_EEJEEvPT_DpOT0_(%"class.std::vector.0"* %6)
          to label %7 unwind label %11

7:                                                ; preds = %5
  br label %8

8:                                                ; preds = %7
  %9 = add i64 %.0, -1
  %10 = getelementptr inbounds %"class.std::vector.0", %"class.std::vector.0"* %.01, i32 1
  br label %3

11:                                               ; preds = %5
  %12 = landingpad { i8*, i32 }
          catch i8* null
  %13 = extractvalue { i8*, i32 } %12, 0
  %14 = extractvalue { i8*, i32 } %12, 1
  br label %15

15:                                               ; preds = %11
  %16 = call i8* @__cxa_begin_catch(i8* %13) #3
  invoke void @_ZSt8_DestroyIPSt6vectorI4EdgeSaIS1_EEEvT_S5_(%"class.std::vector.0"* %0, %"class.std::vector.0"* %.01)
          to label %17 unwind label %19

17:                                               ; preds = %15
  invoke void @__cxa_rethrow() #13
          to label %31 unwind label %19

18:                                               ; preds = %3
  ret %"class.std::vector.0"* %.01

19:                                               ; preds = %17, %15
  %20 = landingpad { i8*, i32 }
          cleanup
  %21 = extractvalue { i8*, i32 } %20, 0
  %22 = extractvalue { i8*, i32 } %20, 1
  invoke void @__cxa_end_catch()
          to label %23 unwind label %28

23:                                               ; preds = %19
  br label %25

24:                                               ; No predecessors!
  call void @llvm.trap()
  unreachable

25:                                               ; preds = %23
  %26 = insertvalue { i8*, i32 } undef, i8* %21, 0
  %27 = insertvalue { i8*, i32 } %26, i32 %22, 1
  resume { i8*, i32 } %27

28:                                               ; preds = %19
  %29 = landingpad { i8*, i32 }
          catch i8* null
  %30 = extractvalue { i8*, i32 } %29, 0
  call void @__clang_call_terminate(i8* %30) #12
  unreachable

31:                                               ; preds = %17
  unreachable
}

; Function Attrs: noinline nounwind uwtable
define linkonce_odr void @_ZSt10_ConstructISt6vectorI4EdgeSaIS1_EEJEEvPT_DpOT0_(%"class.std::vector.0"* %0) #4 comdat {
  %2 = bitcast %"class.std::vector.0"* %0 to i8*
  %3 = bitcast i8* %2 to %"class.std::vector.0"*
  call void @_ZNSt6vectorI4EdgeSaIS0_EEC2Ev(%"class.std::vector.0"* %3) #3
  ret void
}

; Function Attrs: noinline nounwind uwtable
define linkonce_odr %"class.std::vector.0"* @_ZSt11__addressofISt6vectorI4EdgeSaIS1_EEEPT_RS4_(%"class.std::vector.0"* dereferenceable(24) %0) #4 comdat {
  ret %"class.std::vector.0"* %0
}

; Function Attrs: noinline uwtable
define linkonce_odr void @_ZSt8_DestroyIPSt6vectorI4EdgeSaIS1_EEEvT_S5_(%"class.std::vector.0"* %0, %"class.std::vector.0"* %1) #0 comdat {
  call void @_ZNSt12_Destroy_auxILb0EE9__destroyIPSt6vectorI4EdgeSaIS3_EEEEvT_S7_(%"class.std::vector.0"* %0, %"class.std::vector.0"* %1)
  ret void
}

declare void @__cxa_rethrow()

declare void @__cxa_end_catch()

; Function Attrs: cold noreturn nounwind
declare void @llvm.trap() #10

; Function Attrs: noinline nounwind uwtable
define linkonce_odr void @_ZNSt6vectorI4EdgeSaIS0_EEC2Ev(%"class.std::vector.0"* %0) unnamed_addr #4 comdat align 2 personality i8* bitcast (i32 (...)* @__gxx_personality_v0 to i8*) {
  %2 = bitcast %"class.std::vector.0"* %0 to %"struct.std::_Vector_base.1"*
  invoke void @_ZNSt12_Vector_baseI4EdgeSaIS0_EEC2Ev(%"struct.std::_Vector_base.1"* %2)
          to label %3 unwind label %4

3:                                                ; preds = %1
  ret void

4:                                                ; preds = %1
  %5 = landingpad { i8*, i32 }
          catch i8* null
  %6 = extractvalue { i8*, i32 } %5, 0
  call void @__clang_call_terminate(i8* %6) #12
  unreachable
}

; Function Attrs: noinline uwtable
define linkonce_odr void @_ZNSt12_Vector_baseI4EdgeSaIS0_EEC2Ev(%"struct.std::_Vector_base.1"* %0) unnamed_addr #0 comdat align 2 {
  %2 = getelementptr inbounds %"struct.std::_Vector_base.1", %"struct.std::_Vector_base.1"* %0, i32 0, i32 0
  call void @_ZNSt12_Vector_baseI4EdgeSaIS0_EE12_Vector_implC2Ev(%"struct.std::_Vector_base<Edge, std::allocator<Edge> >::_Vector_impl"* %2)
  ret void
}

; Function Attrs: noinline nounwind uwtable
define linkonce_odr void @_ZNSt12_Vector_baseI4EdgeSaIS0_EE12_Vector_implC2Ev(%"struct.std::_Vector_base<Edge, std::allocator<Edge> >::_Vector_impl"* %0) unnamed_addr #4 comdat align 2 {
  %2 = bitcast %"struct.std::_Vector_base<Edge, std::allocator<Edge> >::_Vector_impl"* %0 to %"class.std::allocator.2"*
  call void @_ZNSaI4EdgeEC2Ev(%"class.std::allocator.2"* %2) #3
  %3 = getelementptr inbounds %"struct.std::_Vector_base<Edge, std::allocator<Edge> >::_Vector_impl", %"struct.std::_Vector_base<Edge, std::allocator<Edge> >::_Vector_impl"* %0, i32 0, i32 0
  store %struct.Edge* null, %struct.Edge** %3, align 8
  %4 = getelementptr inbounds %"struct.std::_Vector_base<Edge, std::allocator<Edge> >::_Vector_impl", %"struct.std::_Vector_base<Edge, std::allocator<Edge> >::_Vector_impl"* %0, i32 0, i32 1
  store %struct.Edge* null, %struct.Edge** %4, align 8
  %5 = getelementptr inbounds %"struct.std::_Vector_base<Edge, std::allocator<Edge> >::_Vector_impl", %"struct.std::_Vector_base<Edge, std::allocator<Edge> >::_Vector_impl"* %0, i32 0, i32 2
  store %struct.Edge* null, %struct.Edge** %5, align 8
  ret void
}

; Function Attrs: noinline nounwind uwtable
define linkonce_odr void @_ZNSaI4EdgeEC2Ev(%"class.std::allocator.2"* %0) unnamed_addr #4 comdat align 2 {
  %2 = bitcast %"class.std::allocator.2"* %0 to %"class.__gnu_cxx::new_allocator.3"*
  call void @_ZN9__gnu_cxx13new_allocatorI4EdgeEC2Ev(%"class.__gnu_cxx::new_allocator.3"* %2) #3
  ret void
}

; Function Attrs: noinline nounwind uwtable
define linkonce_odr void @_ZN9__gnu_cxx13new_allocatorI4EdgeEC2Ev(%"class.__gnu_cxx::new_allocator.3"* %0) unnamed_addr #4 comdat align 2 {
  ret void
}

; Function Attrs: noinline uwtable
define linkonce_odr void @_ZNSt12_Destroy_auxILb0EE9__destroyIPSt6vectorI4EdgeSaIS3_EEEEvT_S7_(%"class.std::vector.0"* %0, %"class.std::vector.0"* %1) #0 comdat align 2 {
  br label %3

3:                                                ; preds = %7, %2
  %.0 = phi %"class.std::vector.0"* [ %0, %2 ], [ %8, %7 ]
  %4 = icmp ne %"class.std::vector.0"* %.0, %1
  br i1 %4, label %5, label %9

5:                                                ; preds = %3
  %6 = call %"class.std::vector.0"* @_ZSt11__addressofISt6vectorI4EdgeSaIS1_EEEPT_RS4_(%"class.std::vector.0"* dereferenceable(24) %.0) #3
  call void @_ZSt8_DestroyISt6vectorI4EdgeSaIS1_EEEvPT_(%"class.std::vector.0"* %6)
  br label %7

7:                                                ; preds = %5
  %8 = getelementptr inbounds %"class.std::vector.0", %"class.std::vector.0"* %.0, i32 1
  br label %3

9:                                                ; preds = %3
  ret void
}

; Function Attrs: noinline nounwind uwtable
define linkonce_odr void @_ZSt8_DestroyISt6vectorI4EdgeSaIS1_EEEvPT_(%"class.std::vector.0"* %0) #4 comdat {
  call void @_ZNSt6vectorI4EdgeSaIS0_EED2Ev(%"class.std::vector.0"* %0) #3
  ret void
}

; Function Attrs: noinline nounwind uwtable
define linkonce_odr void @_ZNSt6vectorI4EdgeSaIS0_EED2Ev(%"class.std::vector.0"* %0) unnamed_addr #4 comdat align 2 personality i8* bitcast (i32 (...)* @__gxx_personality_v0 to i8*) {
  %2 = bitcast %"class.std::vector.0"* %0 to %"struct.std::_Vector_base.1"*
  %3 = getelementptr inbounds %"struct.std::_Vector_base.1", %"struct.std::_Vector_base.1"* %2, i32 0, i32 0
  %4 = getelementptr inbounds %"struct.std::_Vector_base<Edge, std::allocator<Edge> >::_Vector_impl", %"struct.std::_Vector_base<Edge, std::allocator<Edge> >::_Vector_impl"* %3, i32 0, i32 0
  %5 = load %struct.Edge*, %struct.Edge** %4, align 8
  %6 = bitcast %"class.std::vector.0"* %0 to %"struct.std::_Vector_base.1"*
  %7 = getelementptr inbounds %"struct.std::_Vector_base.1", %"struct.std::_Vector_base.1"* %6, i32 0, i32 0
  %8 = getelementptr inbounds %"struct.std::_Vector_base<Edge, std::allocator<Edge> >::_Vector_impl", %"struct.std::_Vector_base<Edge, std::allocator<Edge> >::_Vector_impl"* %7, i32 0, i32 1
  %9 = load %struct.Edge*, %struct.Edge** %8, align 8
  %10 = bitcast %"class.std::vector.0"* %0 to %"struct.std::_Vector_base.1"*
  %11 = call dereferenceable(1) %"class.std::allocator.2"* @_ZNSt12_Vector_baseI4EdgeSaIS0_EE19_M_get_Tp_allocatorEv(%"struct.std::_Vector_base.1"* %10) #3
  invoke void @_ZSt8_DestroyIP4EdgeS0_EvT_S2_RSaIT0_E(%struct.Edge* %5, %struct.Edge* %9, %"class.std::allocator.2"* dereferenceable(1) %11)
          to label %12 unwind label %14

12:                                               ; preds = %1
  %13 = bitcast %"class.std::vector.0"* %0 to %"struct.std::_Vector_base.1"*
  call void @_ZNSt12_Vector_baseI4EdgeSaIS0_EED2Ev(%"struct.std::_Vector_base.1"* %13) #3
  ret void

14:                                               ; preds = %1
  %15 = landingpad { i8*, i32 }
          catch i8* null
  %16 = extractvalue { i8*, i32 } %15, 0
  %17 = extractvalue { i8*, i32 } %15, 1
  %18 = bitcast %"class.std::vector.0"* %0 to %"struct.std::_Vector_base.1"*
  call void @_ZNSt12_Vector_baseI4EdgeSaIS0_EED2Ev(%"struct.std::_Vector_base.1"* %18) #3
  br label %19

19:                                               ; preds = %14
  call void @__clang_call_terminate(i8* %16) #12
  unreachable
}

; Function Attrs: noinline uwtable
define linkonce_odr void @_ZSt8_DestroyIP4EdgeS0_EvT_S2_RSaIT0_E(%struct.Edge* %0, %struct.Edge* %1, %"class.std::allocator.2"* dereferenceable(1) %2) #0 comdat {
  call void @_ZSt8_DestroyIP4EdgeEvT_S2_(%struct.Edge* %0, %struct.Edge* %1)
  ret void
}

; Function Attrs: noinline nounwind uwtable
define linkonce_odr dereferenceable(1) %"class.std::allocator.2"* @_ZNSt12_Vector_baseI4EdgeSaIS0_EE19_M_get_Tp_allocatorEv(%"struct.std::_Vector_base.1"* %0) #4 comdat align 2 {
  %2 = getelementptr inbounds %"struct.std::_Vector_base.1", %"struct.std::_Vector_base.1"* %0, i32 0, i32 0
  %3 = bitcast %"struct.std::_Vector_base<Edge, std::allocator<Edge> >::_Vector_impl"* %2 to %"class.std::allocator.2"*
  ret %"class.std::allocator.2"* %3
}

; Function Attrs: noinline nounwind uwtable
define linkonce_odr void @_ZNSt12_Vector_baseI4EdgeSaIS0_EED2Ev(%"struct.std::_Vector_base.1"* %0) unnamed_addr #4 comdat align 2 personality i8* bitcast (i32 (...)* @__gxx_personality_v0 to i8*) {
  %2 = getelementptr inbounds %"struct.std::_Vector_base.1", %"struct.std::_Vector_base.1"* %0, i32 0, i32 0
  %3 = getelementptr inbounds %"struct.std::_Vector_base<Edge, std::allocator<Edge> >::_Vector_impl", %"struct.std::_Vector_base<Edge, std::allocator<Edge> >::_Vector_impl"* %2, i32 0, i32 0
  %4 = load %struct.Edge*, %struct.Edge** %3, align 8
  %5 = getelementptr inbounds %"struct.std::_Vector_base.1", %"struct.std::_Vector_base.1"* %0, i32 0, i32 0
  %6 = getelementptr inbounds %"struct.std::_Vector_base<Edge, std::allocator<Edge> >::_Vector_impl", %"struct.std::_Vector_base<Edge, std::allocator<Edge> >::_Vector_impl"* %5, i32 0, i32 2
  %7 = load %struct.Edge*, %struct.Edge** %6, align 8
  %8 = getelementptr inbounds %"struct.std::_Vector_base.1", %"struct.std::_Vector_base.1"* %0, i32 0, i32 0
  %9 = getelementptr inbounds %"struct.std::_Vector_base<Edge, std::allocator<Edge> >::_Vector_impl", %"struct.std::_Vector_base<Edge, std::allocator<Edge> >::_Vector_impl"* %8, i32 0, i32 0
  %10 = load %struct.Edge*, %struct.Edge** %9, align 8
  %11 = ptrtoint %struct.Edge* %7 to i64
  %12 = ptrtoint %struct.Edge* %10 to i64
  %13 = sub i64 %11, %12
  %14 = sdiv exact i64 %13, 16
  invoke void @_ZNSt12_Vector_baseI4EdgeSaIS0_EE13_M_deallocateEPS0_m(%"struct.std::_Vector_base.1"* %0, %struct.Edge* %4, i64 %14)
          to label %15 unwind label %17

15:                                               ; preds = %1
  %16 = getelementptr inbounds %"struct.std::_Vector_base.1", %"struct.std::_Vector_base.1"* %0, i32 0, i32 0
  call void @_ZNSt12_Vector_baseI4EdgeSaIS0_EE12_Vector_implD2Ev(%"struct.std::_Vector_base<Edge, std::allocator<Edge> >::_Vector_impl"* %16) #3
  ret void

17:                                               ; preds = %1
  %18 = landingpad { i8*, i32 }
          catch i8* null
  %19 = extractvalue { i8*, i32 } %18, 0
  %20 = extractvalue { i8*, i32 } %18, 1
  %21 = getelementptr inbounds %"struct.std::_Vector_base.1", %"struct.std::_Vector_base.1"* %0, i32 0, i32 0
  call void @_ZNSt12_Vector_baseI4EdgeSaIS0_EE12_Vector_implD2Ev(%"struct.std::_Vector_base<Edge, std::allocator<Edge> >::_Vector_impl"* %21) #3
  br label %22

22:                                               ; preds = %17
  call void @__clang_call_terminate(i8* %19) #12
  unreachable
}

; Function Attrs: noinline uwtable
define linkonce_odr void @_ZSt8_DestroyIP4EdgeEvT_S2_(%struct.Edge* %0, %struct.Edge* %1) #0 comdat {
  call void @_ZNSt12_Destroy_auxILb1EE9__destroyIP4EdgeEEvT_S4_(%struct.Edge* %0, %struct.Edge* %1)
  ret void
}

; Function Attrs: noinline nounwind uwtable
define linkonce_odr void @_ZNSt12_Destroy_auxILb1EE9__destroyIP4EdgeEEvT_S4_(%struct.Edge* %0, %struct.Edge* %1) #4 comdat align 2 {
  ret void
}

; Function Attrs: noinline uwtable
define linkonce_odr void @_ZNSt12_Vector_baseI4EdgeSaIS0_EE13_M_deallocateEPS0_m(%"struct.std::_Vector_base.1"* %0, %struct.Edge* %1, i64 %2) #0 comdat align 2 {
  %4 = icmp ne %struct.Edge* %1, null
  br i1 %4, label %5, label %8

5:                                                ; preds = %3
  %6 = getelementptr inbounds %"struct.std::_Vector_base.1", %"struct.std::_Vector_base.1"* %0, i32 0, i32 0
  %7 = bitcast %"struct.std::_Vector_base<Edge, std::allocator<Edge> >::_Vector_impl"* %6 to %"class.std::allocator.2"*
  call void @_ZNSt16allocator_traitsISaI4EdgeEE10deallocateERS1_PS0_m(%"class.std::allocator.2"* dereferenceable(1) %7, %struct.Edge* %1, i64 %2)
  br label %8

8:                                                ; preds = %5, %3
  ret void
}

; Function Attrs: noinline nounwind uwtable
define linkonce_odr void @_ZNSt12_Vector_baseI4EdgeSaIS0_EE12_Vector_implD2Ev(%"struct.std::_Vector_base<Edge, std::allocator<Edge> >::_Vector_impl"* %0) unnamed_addr #4 comdat align 2 {
  %2 = bitcast %"struct.std::_Vector_base<Edge, std::allocator<Edge> >::_Vector_impl"* %0 to %"class.std::allocator.2"*
  call void @_ZNSaI4EdgeED2Ev(%"class.std::allocator.2"* %2) #3
  ret void
}

; Function Attrs: noinline uwtable
define linkonce_odr void @_ZNSt16allocator_traitsISaI4EdgeEE10deallocateERS1_PS0_m(%"class.std::allocator.2"* dereferenceable(1) %0, %struct.Edge* %1, i64 %2) #0 comdat align 2 {
  %4 = bitcast %"class.std::allocator.2"* %0 to %"class.__gnu_cxx::new_allocator.3"*
  call void @_ZN9__gnu_cxx13new_allocatorI4EdgeE10deallocateEPS1_m(%"class.__gnu_cxx::new_allocator.3"* %4, %struct.Edge* %1, i64 %2)
  ret void
}

; Function Attrs: noinline nounwind uwtable
define linkonce_odr void @_ZN9__gnu_cxx13new_allocatorI4EdgeE10deallocateEPS1_m(%"class.__gnu_cxx::new_allocator.3"* %0, %struct.Edge* %1, i64 %2) #4 comdat align 2 {
  %4 = bitcast %struct.Edge* %1 to i8*
  call void @_ZdlPv(i8* %4) #3
  ret void
}

; Function Attrs: noinline nounwind uwtable
define linkonce_odr void @_ZNSaI4EdgeED2Ev(%"class.std::allocator.2"* %0) unnamed_addr #4 comdat align 2 {
  %2 = bitcast %"class.std::allocator.2"* %0 to %"class.__gnu_cxx::new_allocator.3"*
  call void @_ZN9__gnu_cxx13new_allocatorI4EdgeED2Ev(%"class.__gnu_cxx::new_allocator.3"* %2) #3
  ret void
}

; Function Attrs: noinline nounwind uwtable
define linkonce_odr void @_ZN9__gnu_cxx13new_allocatorI4EdgeED2Ev(%"class.__gnu_cxx::new_allocator.3"* %0) unnamed_addr #4 comdat align 2 {
  ret void
}

; Function Attrs: noinline uwtable
define linkonce_odr void @_ZNSt12_Vector_baseISt6vectorI4EdgeSaIS1_EESaIS3_EE13_M_deallocateEPS3_m(%"struct.std::_Vector_base"* %0, %"class.std::vector.0"* %1, i64 %2) #0 comdat align 2 {
  %4 = icmp ne %"class.std::vector.0"* %1, null
  br i1 %4, label %5, label %8

5:                                                ; preds = %3
  %6 = getelementptr inbounds %"struct.std::_Vector_base", %"struct.std::_Vector_base"* %0, i32 0, i32 0
  %7 = bitcast %"struct.std::_Vector_base<std::vector<Edge, std::allocator<Edge> >, std::allocator<std::vector<Edge, std::allocator<Edge> > > >::_Vector_impl"* %6 to %"class.std::allocator"*
  call void @_ZNSt16allocator_traitsISaISt6vectorI4EdgeSaIS1_EEEE10deallocateERS4_PS3_m(%"class.std::allocator"* dereferenceable(1) %7, %"class.std::vector.0"* %1, i64 %2)
  br label %8

8:                                                ; preds = %5, %3
  ret void
}

; Function Attrs: noinline uwtable
define linkonce_odr void @_ZNSt16allocator_traitsISaISt6vectorI4EdgeSaIS1_EEEE10deallocateERS4_PS3_m(%"class.std::allocator"* dereferenceable(1) %0, %"class.std::vector.0"* %1, i64 %2) #0 comdat align 2 {
  %4 = bitcast %"class.std::allocator"* %0 to %"class.__gnu_cxx::new_allocator"*
  call void @_ZN9__gnu_cxx13new_allocatorISt6vectorI4EdgeSaIS2_EEE10deallocateEPS4_m(%"class.__gnu_cxx::new_allocator"* %4, %"class.std::vector.0"* %1, i64 %2)
  ret void
}

; Function Attrs: noinline nounwind uwtable
define linkonce_odr void @_ZN9__gnu_cxx13new_allocatorISt6vectorI4EdgeSaIS2_EEE10deallocateEPS4_m(%"class.__gnu_cxx::new_allocator"* %0, %"class.std::vector.0"* %1, i64 %2) #4 comdat align 2 {
  %4 = bitcast %"class.std::vector.0"* %1 to i8*
  call void @_ZdlPv(i8* %4) #3
  ret void
}

; Function Attrs: noinline uwtable
define linkonce_odr void @_ZSt8_DestroyIPSt6vectorI4EdgeSaIS1_EES3_EvT_S5_RSaIT0_E(%"class.std::vector.0"* %0, %"class.std::vector.0"* %1, %"class.std::allocator"* dereferenceable(1) %2) #0 comdat {
  call void @_ZSt8_DestroyIPSt6vectorI4EdgeSaIS1_EEEvT_S5_(%"class.std::vector.0"* %0, %"class.std::vector.0"* %1)
  ret void
}

; Function Attrs: noinline nounwind uwtable
define linkonce_odr void @_ZNSt6vectorISt4pairIxxESaIS1_EEC2Ev(%"class.std::vector.8"* %0) unnamed_addr #4 comdat align 2 personality i8* bitcast (i32 (...)* @__gxx_personality_v0 to i8*) {
  %2 = bitcast %"class.std::vector.8"* %0 to %"struct.std::_Vector_base.9"*
  invoke void @_ZNSt12_Vector_baseISt4pairIxxESaIS1_EEC2Ev(%"struct.std::_Vector_base.9"* %2)
          to label %3 unwind label %4

3:                                                ; preds = %1
  ret void

4:                                                ; preds = %1
  %5 = landingpad { i8*, i32 }
          catch i8* null
  %6 = extractvalue { i8*, i32 } %5, 0
  call void @__clang_call_terminate(i8* %6) #12
  unreachable
}

; Function Attrs: noinline uwtable
define linkonce_odr void @_ZNSt12_Vector_baseISt4pairIxxESaIS1_EEC2Ev(%"struct.std::_Vector_base.9"* %0) unnamed_addr #0 comdat align 2 {
  %2 = getelementptr inbounds %"struct.std::_Vector_base.9", %"struct.std::_Vector_base.9"* %0, i32 0, i32 0
  call void @_ZNSt12_Vector_baseISt4pairIxxESaIS1_EE12_Vector_implC2Ev(%"struct.std::_Vector_base<std::pair<long long, long long>, std::allocator<std::pair<long long, long long> > >::_Vector_impl"* %2)
  ret void
}

; Function Attrs: noinline nounwind uwtable
define linkonce_odr void @_ZNSt12_Vector_baseISt4pairIxxESaIS1_EE12_Vector_implC2Ev(%"struct.std::_Vector_base<std::pair<long long, long long>, std::allocator<std::pair<long long, long long> > >::_Vector_impl"* %0) unnamed_addr #4 comdat align 2 {
  %2 = bitcast %"struct.std::_Vector_base<std::pair<long long, long long>, std::allocator<std::pair<long long, long long> > >::_Vector_impl"* %0 to %"class.std::allocator.10"*
  call void @_ZNSaISt4pairIxxEEC2Ev(%"class.std::allocator.10"* %2) #3
  %3 = getelementptr inbounds %"struct.std::_Vector_base<std::pair<long long, long long>, std::allocator<std::pair<long long, long long> > >::_Vector_impl", %"struct.std::_Vector_base<std::pair<long long, long long>, std::allocator<std::pair<long long, long long> > >::_Vector_impl"* %0, i32 0, i32 0
  store %"struct.std::pair"* null, %"struct.std::pair"** %3, align 8
  %4 = getelementptr inbounds %"struct.std::_Vector_base<std::pair<long long, long long>, std::allocator<std::pair<long long, long long> > >::_Vector_impl", %"struct.std::_Vector_base<std::pair<long long, long long>, std::allocator<std::pair<long long, long long> > >::_Vector_impl"* %0, i32 0, i32 1
  store %"struct.std::pair"* null, %"struct.std::pair"** %4, align 8
  %5 = getelementptr inbounds %"struct.std::_Vector_base<std::pair<long long, long long>, std::allocator<std::pair<long long, long long> > >::_Vector_impl", %"struct.std::_Vector_base<std::pair<long long, long long>, std::allocator<std::pair<long long, long long> > >::_Vector_impl"* %0, i32 0, i32 2
  store %"struct.std::pair"* null, %"struct.std::pair"** %5, align 8
  ret void
}

; Function Attrs: noinline nounwind uwtable
define linkonce_odr void @_ZNSaISt4pairIxxEEC2Ev(%"class.std::allocator.10"* %0) unnamed_addr #4 comdat align 2 {
  %2 = bitcast %"class.std::allocator.10"* %0 to %"class.__gnu_cxx::new_allocator.11"*
  call void @_ZN9__gnu_cxx13new_allocatorISt4pairIxxEEC2Ev(%"class.__gnu_cxx::new_allocator.11"* %2) #3
  ret void
}

; Function Attrs: noinline nounwind uwtable
define linkonce_odr void @_ZN9__gnu_cxx13new_allocatorISt4pairIxxEEC2Ev(%"class.__gnu_cxx::new_allocator.11"* %0) unnamed_addr #4 comdat align 2 {
  ret void
}

; Function Attrs: noinline nounwind uwtable
define linkonce_odr i64* @_ZSt10__fill_n_aIPxiiEN9__gnu_cxx11__enable_ifIXsr11__is_scalarIT1_EE7__valueET_E6__typeES4_T0_RKS3_(i64* %0, i32 %1, i32* dereferenceable(4) %2) #4 comdat {
  %4 = load i32, i32* %2, align 4
  br label %5

5:                                                ; preds = %9, %3
  %.01 = phi i32 [ %1, %3 ], [ %10, %9 ]
  %.0 = phi i64* [ %0, %3 ], [ %11, %9 ]
  %6 = icmp sgt i32 %.01, 0
  br i1 %6, label %7, label %12

7:                                                ; preds = %5
  %8 = sext i32 %4 to i64
  store i64 %8, i64* %.0, align 8
  br label %9

9:                                                ; preds = %7
  %10 = add nsw i32 %.01, -1
  %11 = getelementptr inbounds i64, i64* %.0, i32 1
  br label %5

12:                                               ; preds = %5
  ret i64* %.0
}

; Function Attrs: noinline nounwind uwtable
define linkonce_odr i64* @_ZSt12__niter_baseIPxET_S1_(i64* %0) #4 comdat {
  ret i64* %0
}

; Function Attrs: noinline uwtable
define linkonce_odr void @_ZNSt6vectorISt4pairIxxESaIS1_EE12emplace_backIJRxS5_EEEvDpOT_(%"class.std::vector.8"* %0, i64* dereferenceable(8) %1, i64* dereferenceable(8) %2) #0 comdat align 2 {
  %4 = alloca %"class.__gnu_cxx::__normal_iterator.13", align 8
  %5 = bitcast %"class.std::vector.8"* %0 to %"struct.std::_Vector_base.9"*
  %6 = getelementptr inbounds %"struct.std::_Vector_base.9", %"struct.std::_Vector_base.9"* %5, i32 0, i32 0
  %7 = getelementptr inbounds %"struct.std::_Vector_base<std::pair<long long, long long>, std::allocator<std::pair<long long, long long> > >::_Vector_impl", %"struct.std::_Vector_base<std::pair<long long, long long>, std::allocator<std::pair<long long, long long> > >::_Vector_impl"* %6, i32 0, i32 1
  %8 = load %"struct.std::pair"*, %"struct.std::pair"** %7, align 8
  %9 = bitcast %"class.std::vector.8"* %0 to %"struct.std::_Vector_base.9"*
  %10 = getelementptr inbounds %"struct.std::_Vector_base.9", %"struct.std::_Vector_base.9"* %9, i32 0, i32 0
  %11 = getelementptr inbounds %"struct.std::_Vector_base<std::pair<long long, long long>, std::allocator<std::pair<long long, long long> > >::_Vector_impl", %"struct.std::_Vector_base<std::pair<long long, long long>, std::allocator<std::pair<long long, long long> > >::_Vector_impl"* %10, i32 0, i32 2
  %12 = load %"struct.std::pair"*, %"struct.std::pair"** %11, align 8
  %13 = icmp ne %"struct.std::pair"* %8, %12
  br i1 %13, label %14, label %29

14:                                               ; preds = %3
  %15 = bitcast %"class.std::vector.8"* %0 to %"struct.std::_Vector_base.9"*
  %16 = getelementptr inbounds %"struct.std::_Vector_base.9", %"struct.std::_Vector_base.9"* %15, i32 0, i32 0
  %17 = bitcast %"struct.std::_Vector_base<std::pair<long long, long long>, std::allocator<std::pair<long long, long long> > >::_Vector_impl"* %16 to %"class.std::allocator.10"*
  %18 = bitcast %"class.std::vector.8"* %0 to %"struct.std::_Vector_base.9"*
  %19 = getelementptr inbounds %"struct.std::_Vector_base.9", %"struct.std::_Vector_base.9"* %18, i32 0, i32 0
  %20 = getelementptr inbounds %"struct.std::_Vector_base<std::pair<long long, long long>, std::allocator<std::pair<long long, long long> > >::_Vector_impl", %"struct.std::_Vector_base<std::pair<long long, long long>, std::allocator<std::pair<long long, long long> > >::_Vector_impl"* %19, i32 0, i32 1
  %21 = load %"struct.std::pair"*, %"struct.std::pair"** %20, align 8
  %22 = call dereferenceable(8) i64* @_ZSt7forwardIRxEOT_RNSt16remove_referenceIS1_E4typeE(i64* dereferenceable(8) %1) #3
  %23 = call dereferenceable(8) i64* @_ZSt7forwardIRxEOT_RNSt16remove_referenceIS1_E4typeE(i64* dereferenceable(8) %2) #3
  call void @_ZNSt16allocator_traitsISaISt4pairIxxEEE9constructIS1_JRxS5_EEEvRS2_PT_DpOT0_(%"class.std::allocator.10"* dereferenceable(1) %17, %"struct.std::pair"* %21, i64* dereferenceable(8) %22, i64* dereferenceable(8) %23)
  %24 = bitcast %"class.std::vector.8"* %0 to %"struct.std::_Vector_base.9"*
  %25 = getelementptr inbounds %"struct.std::_Vector_base.9", %"struct.std::_Vector_base.9"* %24, i32 0, i32 0
  %26 = getelementptr inbounds %"struct.std::_Vector_base<std::pair<long long, long long>, std::allocator<std::pair<long long, long long> > >::_Vector_impl", %"struct.std::_Vector_base<std::pair<long long, long long>, std::allocator<std::pair<long long, long long> > >::_Vector_impl"* %25, i32 0, i32 1
  %27 = load %"struct.std::pair"*, %"struct.std::pair"** %26, align 8
  %28 = getelementptr inbounds %"struct.std::pair", %"struct.std::pair"* %27, i32 1
  store %"struct.std::pair"* %28, %"struct.std::pair"** %26, align 8
  br label %36

29:                                               ; preds = %3
  %30 = call %"struct.std::pair"* @_ZNSt6vectorISt4pairIxxESaIS1_EE3endEv(%"class.std::vector.8"* %0) #3
  %31 = getelementptr inbounds %"class.__gnu_cxx::__normal_iterator.13", %"class.__gnu_cxx::__normal_iterator.13"* %4, i32 0, i32 0
  store %"struct.std::pair"* %30, %"struct.std::pair"** %31, align 8
  %32 = call dereferenceable(8) i64* @_ZSt7forwardIRxEOT_RNSt16remove_referenceIS1_E4typeE(i64* dereferenceable(8) %1) #3
  %33 = call dereferenceable(8) i64* @_ZSt7forwardIRxEOT_RNSt16remove_referenceIS1_E4typeE(i64* dereferenceable(8) %2) #3
  %34 = getelementptr inbounds %"class.__gnu_cxx::__normal_iterator.13", %"class.__gnu_cxx::__normal_iterator.13"* %4, i32 0, i32 0
  %35 = load %"struct.std::pair"*, %"struct.std::pair"** %34, align 8
  call void @_ZNSt6vectorISt4pairIxxESaIS1_EE17_M_realloc_insertIJRxS5_EEEvN9__gnu_cxx17__normal_iteratorIPS1_S3_EEDpOT_(%"class.std::vector.8"* %0, %"struct.std::pair"* %35, i64* dereferenceable(8) %32, i64* dereferenceable(8) %33)
  br label %36

36:                                               ; preds = %29, %14
  ret void
}

; Function Attrs: noinline nounwind uwtable
define linkonce_odr dereferenceable(8) i64* @_ZSt7forwardIRxEOT_RNSt16remove_referenceIS1_E4typeE(i64* dereferenceable(8) %0) #4 comdat {
  ret i64* %0
}

; Function Attrs: noinline uwtable
define linkonce_odr void @_ZSt9push_heapIN9__gnu_cxx17__normal_iteratorIPSt4pairIxxESt6vectorIS3_SaIS3_EEEESt7greaterIS3_EEvT_SB_T0_(%"struct.std::pair"* %0, %"struct.std::pair"* %1) #0 comdat {
  %3 = alloca %"class.__gnu_cxx::__normal_iterator.13", align 8
  %4 = alloca %"class.__gnu_cxx::__normal_iterator.13", align 8
  %5 = alloca %"struct.std::greater", align 1
  %6 = alloca %"struct.__gnu_cxx::__ops::_Iter_comp_val", align 1
  %7 = alloca %"struct.std::pair", align 8
  %8 = alloca %"class.__gnu_cxx::__normal_iterator.13", align 8
  %9 = alloca %"class.__gnu_cxx::__normal_iterator.13", align 8
  %10 = alloca %"struct.std::pair", align 8
  %11 = getelementptr inbounds %"class.__gnu_cxx::__normal_iterator.13", %"class.__gnu_cxx::__normal_iterator.13"* %3, i32 0, i32 0
  store %"struct.std::pair"* %0, %"struct.std::pair"** %11, align 8
  %12 = getelementptr inbounds %"class.__gnu_cxx::__normal_iterator.13", %"class.__gnu_cxx::__normal_iterator.13"* %4, i32 0, i32 0
  store %"struct.std::pair"* %1, %"struct.std::pair"** %12, align 8
  %13 = call dereferenceable(1) %"struct.std::greater"* @_ZSt4moveIRSt7greaterISt4pairIxxEEEONSt16remove_referenceIT_E4typeEOS6_(%"struct.std::greater"* dereferenceable(1) %5) #3
  call void @_ZN9__gnu_cxx5__ops14_Iter_comp_valISt7greaterISt4pairIxxEEEC2ES5_(%"struct.__gnu_cxx::__ops::_Iter_comp_val"* %6)
  %14 = call %"struct.std::pair"* @_ZNK9__gnu_cxx17__normal_iteratorIPSt4pairIxxESt6vectorIS2_SaIS2_EEEmiEl(%"class.__gnu_cxx::__normal_iterator.13"* %4, i64 1) #3
  %15 = getelementptr inbounds %"class.__gnu_cxx::__normal_iterator.13", %"class.__gnu_cxx::__normal_iterator.13"* %8, i32 0, i32 0
  store %"struct.std::pair"* %14, %"struct.std::pair"** %15, align 8
  %16 = call dereferenceable(16) %"struct.std::pair"* @_ZNK9__gnu_cxx17__normal_iteratorIPSt4pairIxxESt6vectorIS2_SaIS2_EEEdeEv(%"class.__gnu_cxx::__normal_iterator.13"* %8) #3
  %17 = call dereferenceable(16) %"struct.std::pair"* @_ZSt4moveIRSt4pairIxxEEONSt16remove_referenceIT_E4typeEOS4_(%"struct.std::pair"* dereferenceable(16) %16) #3
  %18 = bitcast %"struct.std::pair"* %7 to i8*
  %19 = bitcast %"struct.std::pair"* %17 to i8*
  call void @llvm.memcpy.p0i8.p0i8.i64(i8* align 8 %18, i8* align 8 %19, i64 16, i1 false)
  %20 = bitcast %"class.__gnu_cxx::__normal_iterator.13"* %9 to i8*
  %21 = bitcast %"class.__gnu_cxx::__normal_iterator.13"* %3 to i8*
  call void @llvm.memcpy.p0i8.p0i8.i64(i8* align 8 %20, i8* align 8 %21, i64 8, i1 false)
  %22 = call i64 @_ZN9__gnu_cxxmiIPSt4pairIxxESt6vectorIS2_SaIS2_EEEENS_17__normal_iteratorIT_T0_E15difference_typeERKSA_SD_(%"class.__gnu_cxx::__normal_iterator.13"* dereferenceable(8) %4, %"class.__gnu_cxx::__normal_iterator.13"* dereferenceable(8) %3) #3
  %23 = sub nsw i64 %22, 1
  %24 = call dereferenceable(16) %"struct.std::pair"* @_ZSt4moveIRSt4pairIxxEEONSt16remove_referenceIT_E4typeEOS4_(%"struct.std::pair"* dereferenceable(16) %7) #3
  %25 = bitcast %"struct.std::pair"* %10 to i8*
  %26 = bitcast %"struct.std::pair"* %24 to i8*
  call void @llvm.memcpy.p0i8.p0i8.i64(i8* align 8 %25, i8* align 8 %26, i64 16, i1 false)
  %27 = getelementptr inbounds %"class.__gnu_cxx::__normal_iterator.13", %"class.__gnu_cxx::__normal_iterator.13"* %9, i32 0, i32 0
  %28 = load %"struct.std::pair"*, %"struct.std::pair"** %27, align 8
  %29 = bitcast %"struct.std::pair"* %10 to { i64, i64 }*
  %30 = getelementptr inbounds { i64, i64 }, { i64, i64 }* %29, i32 0, i32 0
  %31 = load i64, i64* %30, align 8
  %32 = getelementptr inbounds { i64, i64 }, { i64, i64 }* %29, i32 0, i32 1
  %33 = load i64, i64* %32, align 8
  call void @_ZSt11__push_heapIN9__gnu_cxx17__normal_iteratorIPSt4pairIxxESt6vectorIS3_SaIS3_EEEElS3_NS0_5__ops14_Iter_comp_valISt7greaterIS3_EEEEvT_T0_SF_T1_RT2_(%"struct.std::pair"* %28, i64 %23, i64 0, i64 %31, i64 %33, %"struct.__gnu_cxx::__ops::_Iter_comp_val"* dereferenceable(1) %6)
  ret void
}

; Function Attrs: noinline nounwind uwtable
define linkonce_odr %"struct.std::pair"* @_ZNSt6vectorISt4pairIxxESaIS1_EE5beginEv(%"class.std::vector.8"* %0) #4 comdat align 2 {
  %2 = alloca %"class.__gnu_cxx::__normal_iterator.13", align 8
  %3 = bitcast %"class.std::vector.8"* %0 to %"struct.std::_Vector_base.9"*
  %4 = getelementptr inbounds %"struct.std::_Vector_base.9", %"struct.std::_Vector_base.9"* %3, i32 0, i32 0
  %5 = getelementptr inbounds %"struct.std::_Vector_base<std::pair<long long, long long>, std::allocator<std::pair<long long, long long> > >::_Vector_impl", %"struct.std::_Vector_base<std::pair<long long, long long>, std::allocator<std::pair<long long, long long> > >::_Vector_impl"* %4, i32 0, i32 0
  call void @_ZN9__gnu_cxx17__normal_iteratorIPSt4pairIxxESt6vectorIS2_SaIS2_EEEC2ERKS3_(%"class.__gnu_cxx::__normal_iterator.13"* %2, %"struct.std::pair"** dereferenceable(8) %5) #3
  %6 = getelementptr inbounds %"class.__gnu_cxx::__normal_iterator.13", %"class.__gnu_cxx::__normal_iterator.13"* %2, i32 0, i32 0
  %7 = load %"struct.std::pair"*, %"struct.std::pair"** %6, align 8
  ret %"struct.std::pair"* %7
}

; Function Attrs: noinline nounwind uwtable
define linkonce_odr %"struct.std::pair"* @_ZNSt6vectorISt4pairIxxESaIS1_EE3endEv(%"class.std::vector.8"* %0) #4 comdat align 2 {
  %2 = alloca %"class.__gnu_cxx::__normal_iterator.13", align 8
  %3 = bitcast %"class.std::vector.8"* %0 to %"struct.std::_Vector_base.9"*
  %4 = getelementptr inbounds %"struct.std::_Vector_base.9", %"struct.std::_Vector_base.9"* %3, i32 0, i32 0
  %5 = getelementptr inbounds %"struct.std::_Vector_base<std::pair<long long, long long>, std::allocator<std::pair<long long, long long> > >::_Vector_impl", %"struct.std::_Vector_base<std::pair<long long, long long>, std::allocator<std::pair<long long, long long> > >::_Vector_impl"* %4, i32 0, i32 1
  call void @_ZN9__gnu_cxx17__normal_iteratorIPSt4pairIxxESt6vectorIS2_SaIS2_EEEC2ERKS3_(%"class.__gnu_cxx::__normal_iterator.13"* %2, %"struct.std::pair"** dereferenceable(8) %5) #3
  %6 = getelementptr inbounds %"class.__gnu_cxx::__normal_iterator.13", %"class.__gnu_cxx::__normal_iterator.13"* %2, i32 0, i32 0
  %7 = load %"struct.std::pair"*, %"struct.std::pair"** %6, align 8
  ret %"struct.std::pair"* %7
}

; Function Attrs: noinline uwtable
define linkonce_odr void @_ZNSt16allocator_traitsISaISt4pairIxxEEE9constructIS1_JRxS5_EEEvRS2_PT_DpOT0_(%"class.std::allocator.10"* dereferenceable(1) %0, %"struct.std::pair"* %1, i64* dereferenceable(8) %2, i64* dereferenceable(8) %3) #0 comdat align 2 {
  %5 = bitcast %"class.std::allocator.10"* %0 to %"class.__gnu_cxx::new_allocator.11"*
  %6 = call dereferenceable(8) i64* @_ZSt7forwardIRxEOT_RNSt16remove_referenceIS1_E4typeE(i64* dereferenceable(8) %2) #3
  %7 = call dereferenceable(8) i64* @_ZSt7forwardIRxEOT_RNSt16remove_referenceIS1_E4typeE(i64* dereferenceable(8) %3) #3
  call void @_ZN9__gnu_cxx13new_allocatorISt4pairIxxEE9constructIS2_JRxS5_EEEvPT_DpOT0_(%"class.__gnu_cxx::new_allocator.11"* %5, %"struct.std::pair"* %1, i64* dereferenceable(8) %6, i64* dereferenceable(8) %7)
  ret void
}

; Function Attrs: noinline uwtable
define linkonce_odr void @_ZNSt6vectorISt4pairIxxESaIS1_EE17_M_realloc_insertIJRxS5_EEEvN9__gnu_cxx17__normal_iteratorIPS1_S3_EEDpOT_(%"class.std::vector.8"* %0, %"struct.std::pair"* %1, i64* dereferenceable(8) %2, i64* dereferenceable(8) %3) #0 comdat align 2 personality i8* bitcast (i32 (...)* @__gxx_personality_v0 to i8*) {
  %5 = alloca %"class.__gnu_cxx::__normal_iterator.13", align 8
  %6 = alloca %"class.__gnu_cxx::__normal_iterator.13", align 8
  %7 = getelementptr inbounds %"class.__gnu_cxx::__normal_iterator.13", %"class.__gnu_cxx::__normal_iterator.13"* %5, i32 0, i32 0
  store %"struct.std::pair"* %1, %"struct.std::pair"** %7, align 8
  %8 = call i64 @_ZNKSt6vectorISt4pairIxxESaIS1_EE12_M_check_lenEmPKc(%"class.std::vector.8"* %0, i64 1, i8* getelementptr inbounds ([26 x i8], [26 x i8]* @.str, i32 0, i32 0))
  %9 = bitcast %"class.std::vector.8"* %0 to %"struct.std::_Vector_base.9"*
  %10 = getelementptr inbounds %"struct.std::_Vector_base.9", %"struct.std::_Vector_base.9"* %9, i32 0, i32 0
  %11 = getelementptr inbounds %"struct.std::_Vector_base<std::pair<long long, long long>, std::allocator<std::pair<long long, long long> > >::_Vector_impl", %"struct.std::_Vector_base<std::pair<long long, long long>, std::allocator<std::pair<long long, long long> > >::_Vector_impl"* %10, i32 0, i32 0
  %12 = load %"struct.std::pair"*, %"struct.std::pair"** %11, align 8
  %13 = bitcast %"class.std::vector.8"* %0 to %"struct.std::_Vector_base.9"*
  %14 = getelementptr inbounds %"struct.std::_Vector_base.9", %"struct.std::_Vector_base.9"* %13, i32 0, i32 0
  %15 = getelementptr inbounds %"struct.std::_Vector_base<std::pair<long long, long long>, std::allocator<std::pair<long long, long long> > >::_Vector_impl", %"struct.std::_Vector_base<std::pair<long long, long long>, std::allocator<std::pair<long long, long long> > >::_Vector_impl"* %14, i32 0, i32 1
  %16 = load %"struct.std::pair"*, %"struct.std::pair"** %15, align 8
  %17 = call %"struct.std::pair"* @_ZNSt6vectorISt4pairIxxESaIS1_EE5beginEv(%"class.std::vector.8"* %0) #3
  %18 = getelementptr inbounds %"class.__gnu_cxx::__normal_iterator.13", %"class.__gnu_cxx::__normal_iterator.13"* %6, i32 0, i32 0
  store %"struct.std::pair"* %17, %"struct.std::pair"** %18, align 8
  %19 = call i64 @_ZN9__gnu_cxxmiIPSt4pairIxxESt6vectorIS2_SaIS2_EEEENS_17__normal_iteratorIT_T0_E15difference_typeERKSA_SD_(%"class.__gnu_cxx::__normal_iterator.13"* dereferenceable(8) %5, %"class.__gnu_cxx::__normal_iterator.13"* dereferenceable(8) %6) #3
  %20 = bitcast %"class.std::vector.8"* %0 to %"struct.std::_Vector_base.9"*
  %21 = call %"struct.std::pair"* @_ZNSt12_Vector_baseISt4pairIxxESaIS1_EE11_M_allocateEm(%"struct.std::_Vector_base.9"* %20, i64 %8)
  %22 = bitcast %"class.std::vector.8"* %0 to %"struct.std::_Vector_base.9"*
  %23 = getelementptr inbounds %"struct.std::_Vector_base.9", %"struct.std::_Vector_base.9"* %22, i32 0, i32 0
  %24 = bitcast %"struct.std::_Vector_base<std::pair<long long, long long>, std::allocator<std::pair<long long, long long> > >::_Vector_impl"* %23 to %"class.std::allocator.10"*
  %25 = getelementptr inbounds %"struct.std::pair", %"struct.std::pair"* %21, i64 %19
  %26 = call dereferenceable(8) i64* @_ZSt7forwardIRxEOT_RNSt16remove_referenceIS1_E4typeE(i64* dereferenceable(8) %2) #3
  %27 = call dereferenceable(8) i64* @_ZSt7forwardIRxEOT_RNSt16remove_referenceIS1_E4typeE(i64* dereferenceable(8) %3) #3
  invoke void @_ZNSt16allocator_traitsISaISt4pairIxxEEE9constructIS1_JRxS5_EEEvRS2_PT_DpOT0_(%"class.std::allocator.10"* dereferenceable(1) %24, %"struct.std::pair"* %25, i64* dereferenceable(8) %26, i64* dereferenceable(8) %27)
          to label %28 unwind label %42

28:                                               ; preds = %4
  %29 = call dereferenceable(8) %"struct.std::pair"** @_ZNK9__gnu_cxx17__normal_iteratorIPSt4pairIxxESt6vectorIS2_SaIS2_EEE4baseEv(%"class.__gnu_cxx::__normal_iterator.13"* %5) #3
  %30 = load %"struct.std::pair"*, %"struct.std::pair"** %29, align 8
  %31 = bitcast %"class.std::vector.8"* %0 to %"struct.std::_Vector_base.9"*
  %32 = call dereferenceable(1) %"class.std::allocator.10"* @_ZNSt12_Vector_baseISt4pairIxxESaIS1_EE19_M_get_Tp_allocatorEv(%"struct.std::_Vector_base.9"* %31) #3
  %33 = invoke %"struct.std::pair"* @_ZSt34__uninitialized_move_if_noexcept_aIPSt4pairIxxES2_SaIS1_EET0_T_S5_S4_RT1_(%"struct.std::pair"* %12, %"struct.std::pair"* %30, %"struct.std::pair"* %21, %"class.std::allocator.10"* dereferenceable(1) %32)
          to label %34 unwind label %42

34:                                               ; preds = %28
  %35 = getelementptr inbounds %"struct.std::pair", %"struct.std::pair"* %33, i32 1
  %36 = call dereferenceable(8) %"struct.std::pair"** @_ZNK9__gnu_cxx17__normal_iteratorIPSt4pairIxxESt6vectorIS2_SaIS2_EEE4baseEv(%"class.__gnu_cxx::__normal_iterator.13"* %5) #3
  %37 = load %"struct.std::pair"*, %"struct.std::pair"** %36, align 8
  %38 = bitcast %"class.std::vector.8"* %0 to %"struct.std::_Vector_base.9"*
  %39 = call dereferenceable(1) %"class.std::allocator.10"* @_ZNSt12_Vector_baseISt4pairIxxESaIS1_EE19_M_get_Tp_allocatorEv(%"struct.std::_Vector_base.9"* %38) #3
  %40 = invoke %"struct.std::pair"* @_ZSt34__uninitialized_move_if_noexcept_aIPSt4pairIxxES2_SaIS1_EET0_T_S5_S4_RT1_(%"struct.std::pair"* %37, %"struct.std::pair"* %16, %"struct.std::pair"* %35, %"class.std::allocator.10"* dereferenceable(1) %39)
          to label %41 unwind label %42

41:                                               ; preds = %34
  br label %67

42:                                               ; preds = %34, %28, %4
  %.0 = phi %"struct.std::pair"* [ %35, %34 ], [ null, %28 ], [ %21, %4 ]
  %43 = landingpad { i8*, i32 }
          catch i8* null
  %44 = extractvalue { i8*, i32 } %43, 0
  %45 = extractvalue { i8*, i32 } %43, 1
  br label %46

46:                                               ; preds = %42
  %47 = call i8* @__cxa_begin_catch(i8* %44) #3
  %48 = icmp ne %"struct.std::pair"* %.0, null
  br i1 %48, label %59, label %49

49:                                               ; preds = %46
  %50 = bitcast %"class.std::vector.8"* %0 to %"struct.std::_Vector_base.9"*
  %51 = getelementptr inbounds %"struct.std::_Vector_base.9", %"struct.std::_Vector_base.9"* %50, i32 0, i32 0
  %52 = bitcast %"struct.std::_Vector_base<std::pair<long long, long long>, std::allocator<std::pair<long long, long long> > >::_Vector_impl"* %51 to %"class.std::allocator.10"*
  %53 = getelementptr inbounds %"struct.std::pair", %"struct.std::pair"* %21, i64 %19
  invoke void @_ZNSt16allocator_traitsISaISt4pairIxxEEE7destroyIS1_EEvRS2_PT_(%"class.std::allocator.10"* dereferenceable(1) %52, %"struct.std::pair"* %53)
          to label %54 unwind label %55

54:                                               ; preds = %49
  br label %63

55:                                               ; preds = %65, %63, %59, %49
  %56 = landingpad { i8*, i32 }
          cleanup
  %57 = extractvalue { i8*, i32 } %56, 0
  %58 = extractvalue { i8*, i32 } %56, 1
  invoke void @__cxa_end_catch()
          to label %66 unwind label %92

59:                                               ; preds = %46
  %60 = bitcast %"class.std::vector.8"* %0 to %"struct.std::_Vector_base.9"*
  %61 = call dereferenceable(1) %"class.std::allocator.10"* @_ZNSt12_Vector_baseISt4pairIxxESaIS1_EE19_M_get_Tp_allocatorEv(%"struct.std::_Vector_base.9"* %60) #3
  invoke void @_ZSt8_DestroyIPSt4pairIxxES1_EvT_S3_RSaIT0_E(%"struct.std::pair"* %21, %"struct.std::pair"* %.0, %"class.std::allocator.10"* dereferenceable(1) %61)
          to label %62 unwind label %55

62:                                               ; preds = %59
  br label %63

63:                                               ; preds = %62, %54
  %64 = bitcast %"class.std::vector.8"* %0 to %"struct.std::_Vector_base.9"*
  invoke void @_ZNSt12_Vector_baseISt4pairIxxESaIS1_EE13_M_deallocateEPS1_m(%"struct.std::_Vector_base.9"* %64, %"struct.std::pair"* %21, i64 %8)
          to label %65 unwind label %55

65:                                               ; preds = %63
  invoke void @__cxa_rethrow() #13
          to label %95 unwind label %55

66:                                               ; preds = %55
  br label %89

67:                                               ; preds = %41
  %68 = bitcast %"class.std::vector.8"* %0 to %"struct.std::_Vector_base.9"*
  %69 = call dereferenceable(1) %"class.std::allocator.10"* @_ZNSt12_Vector_baseISt4pairIxxESaIS1_EE19_M_get_Tp_allocatorEv(%"struct.std::_Vector_base.9"* %68) #3
  call void @_ZSt8_DestroyIPSt4pairIxxES1_EvT_S3_RSaIT0_E(%"struct.std::pair"* %12, %"struct.std::pair"* %16, %"class.std::allocator.10"* dereferenceable(1) %69)
  %70 = bitcast %"class.std::vector.8"* %0 to %"struct.std::_Vector_base.9"*
  %71 = bitcast %"class.std::vector.8"* %0 to %"struct.std::_Vector_base.9"*
  %72 = getelementptr inbounds %"struct.std::_Vector_base.9", %"struct.std::_Vector_base.9"* %71, i32 0, i32 0
  %73 = getelementptr inbounds %"struct.std::_Vector_base<std::pair<long long, long long>, std::allocator<std::pair<long long, long long> > >::_Vector_impl", %"struct.std::_Vector_base<std::pair<long long, long long>, std::allocator<std::pair<long long, long long> > >::_Vector_impl"* %72, i32 0, i32 2
  %74 = load %"struct.std::pair"*, %"struct.std::pair"** %73, align 8
  %75 = ptrtoint %"struct.std::pair"* %74 to i64
  %76 = ptrtoint %"struct.std::pair"* %12 to i64
  %77 = sub i64 %75, %76
  %78 = sdiv exact i64 %77, 16
  call void @_ZNSt12_Vector_baseISt4pairIxxESaIS1_EE13_M_deallocateEPS1_m(%"struct.std::_Vector_base.9"* %70, %"struct.std::pair"* %12, i64 %78)
  %79 = bitcast %"class.std::vector.8"* %0 to %"struct.std::_Vector_base.9"*
  %80 = getelementptr inbounds %"struct.std::_Vector_base.9", %"struct.std::_Vector_base.9"* %79, i32 0, i32 0
  %81 = getelementptr inbounds %"struct.std::_Vector_base<std::pair<long long, long long>, std::allocator<std::pair<long long, long long> > >::_Vector_impl", %"struct.std::_Vector_base<std::pair<long long, long long>, std::allocator<std::pair<long long, long long> > >::_Vector_impl"* %80, i32 0, i32 0
  store %"struct.std::pair"* %21, %"struct.std::pair"** %81, align 8
  %82 = bitcast %"class.std::vector.8"* %0 to %"struct.std::_Vector_base.9"*
  %83 = getelementptr inbounds %"struct.std::_Vector_base.9", %"struct.std::_Vector_base.9"* %82, i32 0, i32 0
  %84 = getelementptr inbounds %"struct.std::_Vector_base<std::pair<long long, long long>, std::allocator<std::pair<long long, long long> > >::_Vector_impl", %"struct.std::_Vector_base<std::pair<long long, long long>, std::allocator<std::pair<long long, long long> > >::_Vector_impl"* %83, i32 0, i32 1
  store %"struct.std::pair"* %40, %"struct.std::pair"** %84, align 8
  %85 = getelementptr inbounds %"struct.std::pair", %"struct.std::pair"* %21, i64 %8
  %86 = bitcast %"class.std::vector.8"* %0 to %"struct.std::_Vector_base.9"*
  %87 = getelementptr inbounds %"struct.std::_Vector_base.9", %"struct.std::_Vector_base.9"* %86, i32 0, i32 0
  %88 = getelementptr inbounds %"struct.std::_Vector_base<std::pair<long long, long long>, std::allocator<std::pair<long long, long long> > >::_Vector_impl", %"struct.std::_Vector_base<std::pair<long long, long long>, std::allocator<std::pair<long long, long long> > >::_Vector_impl"* %87, i32 0, i32 2
  store %"struct.std::pair"* %85, %"struct.std::pair"** %88, align 8
  ret void

89:                                               ; preds = %66
  %90 = insertvalue { i8*, i32 } undef, i8* %57, 0
  %91 = insertvalue { i8*, i32 } %90, i32 %58, 1
  resume { i8*, i32 } %91

92:                                               ; preds = %55
  %93 = landingpad { i8*, i32 }
          catch i8* null
  %94 = extractvalue { i8*, i32 } %93, 0
  call void @__clang_call_terminate(i8* %94) #12
  unreachable

95:                                               ; preds = %65
  unreachable
}

; Function Attrs: noinline uwtable
define linkonce_odr void @_ZN9__gnu_cxx13new_allocatorISt4pairIxxEE9constructIS2_JRxS5_EEEvPT_DpOT0_(%"class.__gnu_cxx::new_allocator.11"* %0, %"struct.std::pair"* %1, i64* dereferenceable(8) %2, i64* dereferenceable(8) %3) #0 comdat align 2 {
  %5 = bitcast %"struct.std::pair"* %1 to i8*
  %6 = bitcast i8* %5 to %"struct.std::pair"*
  %7 = call dereferenceable(8) i64* @_ZSt7forwardIRxEOT_RNSt16remove_referenceIS1_E4typeE(i64* dereferenceable(8) %2) #3
  %8 = call dereferenceable(8) i64* @_ZSt7forwardIRxEOT_RNSt16remove_referenceIS1_E4typeE(i64* dereferenceable(8) %3) #3
  call void @_ZNSt4pairIxxEC2IRxS2_Lb1EEEOT_OT0_(%"struct.std::pair"* %6, i64* dereferenceable(8) %7, i64* dereferenceable(8) %8)
  ret void
}

; Function Attrs: noinline nounwind uwtable
define linkonce_odr void @_ZNSt4pairIxxEC2IRxS2_Lb1EEEOT_OT0_(%"struct.std::pair"* %0, i64* dereferenceable(8) %1, i64* dereferenceable(8) %2) unnamed_addr #4 comdat align 2 {
  %4 = bitcast %"struct.std::pair"* %0 to %"class.std::__pair_base"*
  %5 = getelementptr inbounds %"struct.std::pair", %"struct.std::pair"* %0, i32 0, i32 0
  %6 = call dereferenceable(8) i64* @_ZSt7forwardIRxEOT_RNSt16remove_referenceIS1_E4typeE(i64* dereferenceable(8) %1) #3
  %7 = load i64, i64* %6, align 8
  store i64 %7, i64* %5, align 8
  %8 = getelementptr inbounds %"struct.std::pair", %"struct.std::pair"* %0, i32 0, i32 1
  %9 = call dereferenceable(8) i64* @_ZSt7forwardIRxEOT_RNSt16remove_referenceIS1_E4typeE(i64* dereferenceable(8) %2) #3
  %10 = load i64, i64* %9, align 8
  store i64 %10, i64* %8, align 8
  ret void
}

; Function Attrs: noinline uwtable
define linkonce_odr i64 @_ZNKSt6vectorISt4pairIxxESaIS1_EE12_M_check_lenEmPKc(%"class.std::vector.8"* %0, i64 %1, i8* %2) #0 comdat align 2 {
  %4 = alloca i64, align 8
  %5 = alloca i64, align 8
  store i64 %1, i64* %4, align 8
  %6 = call i64 @_ZNKSt6vectorISt4pairIxxESaIS1_EE8max_sizeEv(%"class.std::vector.8"* %0) #3
  %7 = call i64 @_ZNKSt6vectorISt4pairIxxESaIS1_EE4sizeEv(%"class.std::vector.8"* %0) #3
  %8 = sub i64 %6, %7
  %9 = load i64, i64* %4, align 8
  %10 = icmp ult i64 %8, %9
  br i1 %10, label %11, label %12

11:                                               ; preds = %3
  call void @_ZSt20__throw_length_errorPKc(i8* %2) #13
  unreachable

12:                                               ; preds = %3
  %13 = call i64 @_ZNKSt6vectorISt4pairIxxESaIS1_EE4sizeEv(%"class.std::vector.8"* %0) #3
  %14 = call i64 @_ZNKSt6vectorISt4pairIxxESaIS1_EE4sizeEv(%"class.std::vector.8"* %0) #3
  store i64 %14, i64* %5, align 8
  %15 = call dereferenceable(8) i64* @_ZSt3maxImERKT_S2_S2_(i64* dereferenceable(8) %5, i64* dereferenceable(8) %4)
  %16 = load i64, i64* %15, align 8
  %17 = add i64 %13, %16
  %18 = call i64 @_ZNKSt6vectorISt4pairIxxESaIS1_EE4sizeEv(%"class.std::vector.8"* %0) #3
  %19 = icmp ult i64 %17, %18
  br i1 %19, label %23, label %20

20:                                               ; preds = %12
  %21 = call i64 @_ZNKSt6vectorISt4pairIxxESaIS1_EE8max_sizeEv(%"class.std::vector.8"* %0) #3
  %22 = icmp ugt i64 %17, %21
  br i1 %22, label %23, label %25

23:                                               ; preds = %20, %12
  %24 = call i64 @_ZNKSt6vectorISt4pairIxxESaIS1_EE8max_sizeEv(%"class.std::vector.8"* %0) #3
  br label %26

25:                                               ; preds = %20
  br label %26

26:                                               ; preds = %25, %23
  %27 = phi i64 [ %24, %23 ], [ %17, %25 ]
  ret i64 %27
}

; Function Attrs: noinline nounwind uwtable
define linkonce_odr i64 @_ZN9__gnu_cxxmiIPSt4pairIxxESt6vectorIS2_SaIS2_EEEENS_17__normal_iteratorIT_T0_E15difference_typeERKSA_SD_(%"class.__gnu_cxx::__normal_iterator.13"* dereferenceable(8) %0, %"class.__gnu_cxx::__normal_iterator.13"* dereferenceable(8) %1) #4 comdat {
  %3 = call dereferenceable(8) %"struct.std::pair"** @_ZNK9__gnu_cxx17__normal_iteratorIPSt4pairIxxESt6vectorIS2_SaIS2_EEE4baseEv(%"class.__gnu_cxx::__normal_iterator.13"* %0) #3
  %4 = load %"struct.std::pair"*, %"struct.std::pair"** %3, align 8
  %5 = call dereferenceable(8) %"struct.std::pair"** @_ZNK9__gnu_cxx17__normal_iteratorIPSt4pairIxxESt6vectorIS2_SaIS2_EEE4baseEv(%"class.__gnu_cxx::__normal_iterator.13"* %1) #3
  %6 = load %"struct.std::pair"*, %"struct.std::pair"** %5, align 8
  %7 = ptrtoint %"struct.std::pair"* %4 to i64
  %8 = ptrtoint %"struct.std::pair"* %6 to i64
  %9 = sub i64 %7, %8
  %10 = sdiv exact i64 %9, 16
  ret i64 %10
}

; Function Attrs: noinline uwtable
define linkonce_odr %"struct.std::pair"* @_ZNSt12_Vector_baseISt4pairIxxESaIS1_EE11_M_allocateEm(%"struct.std::_Vector_base.9"* %0, i64 %1) #0 comdat align 2 {
  %3 = icmp ne i64 %1, 0
  br i1 %3, label %4, label %8

4:                                                ; preds = %2
  %5 = getelementptr inbounds %"struct.std::_Vector_base.9", %"struct.std::_Vector_base.9"* %0, i32 0, i32 0
  %6 = bitcast %"struct.std::_Vector_base<std::pair<long long, long long>, std::allocator<std::pair<long long, long long> > >::_Vector_impl"* %5 to %"class.std::allocator.10"*
  %7 = call %"struct.std::pair"* @_ZNSt16allocator_traitsISaISt4pairIxxEEE8allocateERS2_m(%"class.std::allocator.10"* dereferenceable(1) %6, i64 %1)
  br label %9

8:                                                ; preds = %2
  br label %9

9:                                                ; preds = %8, %4
  %10 = phi %"struct.std::pair"* [ %7, %4 ], [ null, %8 ]
  ret %"struct.std::pair"* %10
}

; Function Attrs: noinline uwtable
define linkonce_odr %"struct.std::pair"* @_ZSt34__uninitialized_move_if_noexcept_aIPSt4pairIxxES2_SaIS1_EET0_T_S5_S4_RT1_(%"struct.std::pair"* %0, %"struct.std::pair"* %1, %"struct.std::pair"* %2, %"class.std::allocator.10"* dereferenceable(1) %3) #0 comdat {
  %5 = alloca %"class.std::move_iterator", align 8
  %6 = alloca %"class.std::move_iterator", align 8
  %7 = call %"struct.std::pair"* @_ZSt32__make_move_if_noexcept_iteratorISt4pairIxxESt13move_iteratorIPS1_EET0_PT_(%"struct.std::pair"* %0)
  %8 = getelementptr inbounds %"class.std::move_iterator", %"class.std::move_iterator"* %5, i32 0, i32 0
  store %"struct.std::pair"* %7, %"struct.std::pair"** %8, align 8
  %9 = call %"struct.std::pair"* @_ZSt32__make_move_if_noexcept_iteratorISt4pairIxxESt13move_iteratorIPS1_EET0_PT_(%"struct.std::pair"* %1)
  %10 = getelementptr inbounds %"class.std::move_iterator", %"class.std::move_iterator"* %6, i32 0, i32 0
  store %"struct.std::pair"* %9, %"struct.std::pair"** %10, align 8
  %11 = getelementptr inbounds %"class.std::move_iterator", %"class.std::move_iterator"* %5, i32 0, i32 0
  %12 = load %"struct.std::pair"*, %"struct.std::pair"** %11, align 8
  %13 = getelementptr inbounds %"class.std::move_iterator", %"class.std::move_iterator"* %6, i32 0, i32 0
  %14 = load %"struct.std::pair"*, %"struct.std::pair"** %13, align 8
  %15 = call %"struct.std::pair"* @_ZSt22__uninitialized_copy_aISt13move_iteratorIPSt4pairIxxEES3_S2_ET0_T_S6_S5_RSaIT1_E(%"struct.std::pair"* %12, %"struct.std::pair"* %14, %"struct.std::pair"* %2, %"class.std::allocator.10"* dereferenceable(1) %3)
  ret %"struct.std::pair"* %15
}

; Function Attrs: noinline nounwind uwtable
define linkonce_odr dereferenceable(8) %"struct.std::pair"** @_ZNK9__gnu_cxx17__normal_iteratorIPSt4pairIxxESt6vectorIS2_SaIS2_EEE4baseEv(%"class.__gnu_cxx::__normal_iterator.13"* %0) #4 comdat align 2 {
  %2 = getelementptr inbounds %"class.__gnu_cxx::__normal_iterator.13", %"class.__gnu_cxx::__normal_iterator.13"* %0, i32 0, i32 0
  ret %"struct.std::pair"** %2
}

; Function Attrs: noinline uwtable
define linkonce_odr void @_ZNSt16allocator_traitsISaISt4pairIxxEEE7destroyIS1_EEvRS2_PT_(%"class.std::allocator.10"* dereferenceable(1) %0, %"struct.std::pair"* %1) #0 comdat align 2 {
  %3 = bitcast %"class.std::allocator.10"* %0 to %"class.__gnu_cxx::new_allocator.11"*
  call void @_ZN9__gnu_cxx13new_allocatorISt4pairIxxEE7destroyIS2_EEvPT_(%"class.__gnu_cxx::new_allocator.11"* %3, %"struct.std::pair"* %1)
  ret void
}

; Function Attrs: noinline nounwind uwtable
define linkonce_odr i64 @_ZNKSt6vectorISt4pairIxxESaIS1_EE8max_sizeEv(%"class.std::vector.8"* %0) #4 comdat align 2 {
  %2 = bitcast %"class.std::vector.8"* %0 to %"struct.std::_Vector_base.9"*
  %3 = call dereferenceable(1) %"class.std::allocator.10"* @_ZNKSt12_Vector_baseISt4pairIxxESaIS1_EE19_M_get_Tp_allocatorEv(%"struct.std::_Vector_base.9"* %2) #3
  %4 = call i64 @_ZNSt16allocator_traitsISaISt4pairIxxEEE8max_sizeERKS2_(%"class.std::allocator.10"* dereferenceable(1) %3) #3
  ret i64 %4
}

; Function Attrs: noinline nounwind uwtable
define linkonce_odr i64 @_ZNKSt6vectorISt4pairIxxESaIS1_EE4sizeEv(%"class.std::vector.8"* %0) #4 comdat align 2 {
  %2 = bitcast %"class.std::vector.8"* %0 to %"struct.std::_Vector_base.9"*
  %3 = getelementptr inbounds %"struct.std::_Vector_base.9", %"struct.std::_Vector_base.9"* %2, i32 0, i32 0
  %4 = getelementptr inbounds %"struct.std::_Vector_base<std::pair<long long, long long>, std::allocator<std::pair<long long, long long> > >::_Vector_impl", %"struct.std::_Vector_base<std::pair<long long, long long>, std::allocator<std::pair<long long, long long> > >::_Vector_impl"* %3, i32 0, i32 1
  %5 = load %"struct.std::pair"*, %"struct.std::pair"** %4, align 8
  %6 = bitcast %"class.std::vector.8"* %0 to %"struct.std::_Vector_base.9"*
  %7 = getelementptr inbounds %"struct.std::_Vector_base.9", %"struct.std::_Vector_base.9"* %6, i32 0, i32 0
  %8 = getelementptr inbounds %"struct.std::_Vector_base<std::pair<long long, long long>, std::allocator<std::pair<long long, long long> > >::_Vector_impl", %"struct.std::_Vector_base<std::pair<long long, long long>, std::allocator<std::pair<long long, long long> > >::_Vector_impl"* %7, i32 0, i32 0
  %9 = load %"struct.std::pair"*, %"struct.std::pair"** %8, align 8
  %10 = ptrtoint %"struct.std::pair"* %5 to i64
  %11 = ptrtoint %"struct.std::pair"* %9 to i64
  %12 = sub i64 %10, %11
  %13 = sdiv exact i64 %12, 16
  ret i64 %13
}

; Function Attrs: noreturn
declare void @_ZSt20__throw_length_errorPKc(i8*) #8

; Function Attrs: noinline nounwind uwtable
define linkonce_odr dereferenceable(8) i64* @_ZSt3maxImERKT_S2_S2_(i64* dereferenceable(8) %0, i64* dereferenceable(8) %1) #4 comdat {
  %3 = load i64, i64* %0, align 8
  %4 = load i64, i64* %1, align 8
  %5 = icmp ult i64 %3, %4
  br i1 %5, label %6, label %7

6:                                                ; preds = %2
  br label %8

7:                                                ; preds = %2
  br label %8

8:                                                ; preds = %7, %6
  %.0 = phi i64* [ %1, %6 ], [ %0, %7 ]
  ret i64* %.0
}

; Function Attrs: noinline nounwind uwtable
define linkonce_odr i64 @_ZNSt16allocator_traitsISaISt4pairIxxEEE8max_sizeERKS2_(%"class.std::allocator.10"* dereferenceable(1) %0) #4 comdat align 2 {
  %2 = bitcast %"class.std::allocator.10"* %0 to %"class.__gnu_cxx::new_allocator.11"*
  %3 = call i64 @_ZNK9__gnu_cxx13new_allocatorISt4pairIxxEE8max_sizeEv(%"class.__gnu_cxx::new_allocator.11"* %2) #3
  ret i64 %3
}

; Function Attrs: noinline nounwind uwtable
define linkonce_odr dereferenceable(1) %"class.std::allocator.10"* @_ZNKSt12_Vector_baseISt4pairIxxESaIS1_EE19_M_get_Tp_allocatorEv(%"struct.std::_Vector_base.9"* %0) #4 comdat align 2 {
  %2 = getelementptr inbounds %"struct.std::_Vector_base.9", %"struct.std::_Vector_base.9"* %0, i32 0, i32 0
  %3 = bitcast %"struct.std::_Vector_base<std::pair<long long, long long>, std::allocator<std::pair<long long, long long> > >::_Vector_impl"* %2 to %"class.std::allocator.10"*
  ret %"class.std::allocator.10"* %3
}

; Function Attrs: noinline nounwind uwtable
define linkonce_odr i64 @_ZNK9__gnu_cxx13new_allocatorISt4pairIxxEE8max_sizeEv(%"class.__gnu_cxx::new_allocator.11"* %0) #4 comdat align 2 {
  ret i64 1152921504606846975
}

; Function Attrs: noinline uwtable
define linkonce_odr %"struct.std::pair"* @_ZNSt16allocator_traitsISaISt4pairIxxEEE8allocateERS2_m(%"class.std::allocator.10"* dereferenceable(1) %0, i64 %1) #0 comdat align 2 {
  %3 = bitcast %"class.std::allocator.10"* %0 to %"class.__gnu_cxx::new_allocator.11"*
  %4 = call %"struct.std::pair"* @_ZN9__gnu_cxx13new_allocatorISt4pairIxxEE8allocateEmPKv(%"class.__gnu_cxx::new_allocator.11"* %3, i64 %1, i8* null)
  ret %"struct.std::pair"* %4
}

; Function Attrs: noinline uwtable
define linkonce_odr %"struct.std::pair"* @_ZN9__gnu_cxx13new_allocatorISt4pairIxxEE8allocateEmPKv(%"class.__gnu_cxx::new_allocator.11"* %0, i64 %1, i8* %2) #0 comdat align 2 {
  %4 = call i64 @_ZNK9__gnu_cxx13new_allocatorISt4pairIxxEE8max_sizeEv(%"class.__gnu_cxx::new_allocator.11"* %0) #3
  %5 = icmp ugt i64 %1, %4
  br i1 %5, label %6, label %7

6:                                                ; preds = %3
  call void @_ZSt17__throw_bad_allocv() #13
  unreachable

7:                                                ; preds = %3
  %8 = mul i64 %1, 16
  %9 = call i8* @_Znwm(i64 %8)
  %10 = bitcast i8* %9 to %"struct.std::pair"*
  ret %"struct.std::pair"* %10
}

; Function Attrs: noinline uwtable
define linkonce_odr %"struct.std::pair"* @_ZSt22__uninitialized_copy_aISt13move_iteratorIPSt4pairIxxEES3_S2_ET0_T_S6_S5_RSaIT1_E(%"struct.std::pair"* %0, %"struct.std::pair"* %1, %"struct.std::pair"* %2, %"class.std::allocator.10"* dereferenceable(1) %3) #0 comdat {
  %5 = alloca %"class.std::move_iterator", align 8
  %6 = alloca %"class.std::move_iterator", align 8
  %7 = alloca %"class.std::move_iterator", align 8
  %8 = alloca %"class.std::move_iterator", align 8
  %9 = getelementptr inbounds %"class.std::move_iterator", %"class.std::move_iterator"* %5, i32 0, i32 0
  store %"struct.std::pair"* %0, %"struct.std::pair"** %9, align 8
  %10 = getelementptr inbounds %"class.std::move_iterator", %"class.std::move_iterator"* %6, i32 0, i32 0
  store %"struct.std::pair"* %1, %"struct.std::pair"** %10, align 8
  %11 = bitcast %"class.std::move_iterator"* %7 to i8*
  %12 = bitcast %"class.std::move_iterator"* %5 to i8*
  call void @llvm.memcpy.p0i8.p0i8.i64(i8* align 8 %11, i8* align 8 %12, i64 8, i1 false)
  %13 = bitcast %"class.std::move_iterator"* %8 to i8*
  %14 = bitcast %"class.std::move_iterator"* %6 to i8*
  call void @llvm.memcpy.p0i8.p0i8.i64(i8* align 8 %13, i8* align 8 %14, i64 8, i1 false)
  %15 = getelementptr inbounds %"class.std::move_iterator", %"class.std::move_iterator"* %7, i32 0, i32 0
  %16 = load %"struct.std::pair"*, %"struct.std::pair"** %15, align 8
  %17 = getelementptr inbounds %"class.std::move_iterator", %"class.std::move_iterator"* %8, i32 0, i32 0
  %18 = load %"struct.std::pair"*, %"struct.std::pair"** %17, align 8
  %19 = call %"struct.std::pair"* @_ZSt18uninitialized_copyISt13move_iteratorIPSt4pairIxxEES3_ET0_T_S6_S5_(%"struct.std::pair"* %16, %"struct.std::pair"* %18, %"struct.std::pair"* %2)
  ret %"struct.std::pair"* %19
}

; Function Attrs: noinline uwtable
define linkonce_odr %"struct.std::pair"* @_ZSt32__make_move_if_noexcept_iteratorISt4pairIxxESt13move_iteratorIPS1_EET0_PT_(%"struct.std::pair"* %0) #0 comdat {
  %2 = alloca %"class.std::move_iterator", align 8
  call void @_ZNSt13move_iteratorIPSt4pairIxxEEC2ES2_(%"class.std::move_iterator"* %2, %"struct.std::pair"* %0)
  %3 = getelementptr inbounds %"class.std::move_iterator", %"class.std::move_iterator"* %2, i32 0, i32 0
  %4 = load %"struct.std::pair"*, %"struct.std::pair"** %3, align 8
  ret %"struct.std::pair"* %4
}

; Function Attrs: noinline uwtable
define linkonce_odr %"struct.std::pair"* @_ZSt18uninitialized_copyISt13move_iteratorIPSt4pairIxxEES3_ET0_T_S6_S5_(%"struct.std::pair"* %0, %"struct.std::pair"* %1, %"struct.std::pair"* %2) #0 comdat {
  %4 = alloca %"class.std::move_iterator", align 8
  %5 = alloca %"class.std::move_iterator", align 8
  %6 = alloca %"class.std::move_iterator", align 8
  %7 = alloca %"class.std::move_iterator", align 8
  %8 = getelementptr inbounds %"class.std::move_iterator", %"class.std::move_iterator"* %4, i32 0, i32 0
  store %"struct.std::pair"* %0, %"struct.std::pair"** %8, align 8
  %9 = getelementptr inbounds %"class.std::move_iterator", %"class.std::move_iterator"* %5, i32 0, i32 0
  store %"struct.std::pair"* %1, %"struct.std::pair"** %9, align 8
  %10 = bitcast %"class.std::move_iterator"* %6 to i8*
  %11 = bitcast %"class.std::move_iterator"* %4 to i8*
  call void @llvm.memcpy.p0i8.p0i8.i64(i8* align 8 %10, i8* align 8 %11, i64 8, i1 false)
  %12 = bitcast %"class.std::move_iterator"* %7 to i8*
  %13 = bitcast %"class.std::move_iterator"* %5 to i8*
  call void @llvm.memcpy.p0i8.p0i8.i64(i8* align 8 %12, i8* align 8 %13, i64 8, i1 false)
  %14 = getelementptr inbounds %"class.std::move_iterator", %"class.std::move_iterator"* %6, i32 0, i32 0
  %15 = load %"struct.std::pair"*, %"struct.std::pair"** %14, align 8
  %16 = getelementptr inbounds %"class.std::move_iterator", %"class.std::move_iterator"* %7, i32 0, i32 0
  %17 = load %"struct.std::pair"*, %"struct.std::pair"** %16, align 8
  %18 = call %"struct.std::pair"* @_ZNSt20__uninitialized_copyILb0EE13__uninit_copyISt13move_iteratorIPSt4pairIxxEES5_EET0_T_S8_S7_(%"struct.std::pair"* %15, %"struct.std::pair"* %17, %"struct.std::pair"* %2)
  ret %"struct.std::pair"* %18
}

; Function Attrs: noinline uwtable
define linkonce_odr %"struct.std::pair"* @_ZNSt20__uninitialized_copyILb0EE13__uninit_copyISt13move_iteratorIPSt4pairIxxEES5_EET0_T_S8_S7_(%"struct.std::pair"* %0, %"struct.std::pair"* %1, %"struct.std::pair"* %2) #0 comdat align 2 personality i8* bitcast (i32 (...)* @__gxx_personality_v0 to i8*) {
  %4 = alloca %"class.std::move_iterator", align 8
  %5 = alloca %"class.std::move_iterator", align 8
  %6 = getelementptr inbounds %"class.std::move_iterator", %"class.std::move_iterator"* %4, i32 0, i32 0
  store %"struct.std::pair"* %0, %"struct.std::pair"** %6, align 8
  %7 = getelementptr inbounds %"class.std::move_iterator", %"class.std::move_iterator"* %5, i32 0, i32 0
  store %"struct.std::pair"* %1, %"struct.std::pair"** %7, align 8
  br label %8

8:                                                ; preds = %18, %3
  %.0 = phi %"struct.std::pair"* [ %2, %3 ], [ %19, %18 ]
  %9 = invoke zeroext i1 @_ZStneIPSt4pairIxxEEbRKSt13move_iteratorIT_ES7_(%"class.std::move_iterator"* dereferenceable(8) %4, %"class.std::move_iterator"* dereferenceable(8) %5)
          to label %10 unwind label %20

10:                                               ; preds = %8
  br i1 %9, label %11, label %27

11:                                               ; preds = %10
  %12 = call %"struct.std::pair"* @_ZSt11__addressofISt4pairIxxEEPT_RS2_(%"struct.std::pair"* dereferenceable(16) %.0) #3
  %13 = invoke dereferenceable(16) %"struct.std::pair"* @_ZNKSt13move_iteratorIPSt4pairIxxEEdeEv(%"class.std::move_iterator"* %4)
          to label %14 unwind label %20

14:                                               ; preds = %11
  invoke void @_ZSt10_ConstructISt4pairIxxEJS1_EEvPT_DpOT0_(%"struct.std::pair"* %12, %"struct.std::pair"* dereferenceable(16) %13)
          to label %15 unwind label %20

15:                                               ; preds = %14
  br label %16

16:                                               ; preds = %15
  %17 = invoke dereferenceable(8) %"class.std::move_iterator"* @_ZNSt13move_iteratorIPSt4pairIxxEEppEv(%"class.std::move_iterator"* %4)
          to label %18 unwind label %20

18:                                               ; preds = %16
  %19 = getelementptr inbounds %"struct.std::pair", %"struct.std::pair"* %.0, i32 1
  br label %8

20:                                               ; preds = %16, %14, %11, %8
  %21 = landingpad { i8*, i32 }
          catch i8* null
  %22 = extractvalue { i8*, i32 } %21, 0
  %23 = extractvalue { i8*, i32 } %21, 1
  br label %24

24:                                               ; preds = %20
  %25 = call i8* @__cxa_begin_catch(i8* %22) #3
  invoke void @_ZSt8_DestroyIPSt4pairIxxEEvT_S3_(%"struct.std::pair"* %2, %"struct.std::pair"* %.0)
          to label %26 unwind label %28

26:                                               ; preds = %24
  invoke void @__cxa_rethrow() #13
          to label %40 unwind label %28

27:                                               ; preds = %10
  ret %"struct.std::pair"* %.0

28:                                               ; preds = %26, %24
  %29 = landingpad { i8*, i32 }
          cleanup
  %30 = extractvalue { i8*, i32 } %29, 0
  %31 = extractvalue { i8*, i32 } %29, 1
  invoke void @__cxa_end_catch()
          to label %32 unwind label %37

32:                                               ; preds = %28
  br label %34

33:                                               ; No predecessors!
  call void @llvm.trap()
  unreachable

34:                                               ; preds = %32
  %35 = insertvalue { i8*, i32 } undef, i8* %30, 0
  %36 = insertvalue { i8*, i32 } %35, i32 %31, 1
  resume { i8*, i32 } %36

37:                                               ; preds = %28
  %38 = landingpad { i8*, i32 }
          catch i8* null
  %39 = extractvalue { i8*, i32 } %38, 0
  call void @__clang_call_terminate(i8* %39) #12
  unreachable

40:                                               ; preds = %26
  unreachable
}

; Function Attrs: noinline uwtable
define linkonce_odr zeroext i1 @_ZStneIPSt4pairIxxEEbRKSt13move_iteratorIT_ES7_(%"class.std::move_iterator"* dereferenceable(8) %0, %"class.std::move_iterator"* dereferenceable(8) %1) #0 comdat {
  %3 = call zeroext i1 @_ZSteqIPSt4pairIxxEEbRKSt13move_iteratorIT_ES7_(%"class.std::move_iterator"* dereferenceable(8) %0, %"class.std::move_iterator"* dereferenceable(8) %1)
  %4 = xor i1 %3, true
  ret i1 %4
}

; Function Attrs: noinline nounwind uwtable
define linkonce_odr void @_ZSt10_ConstructISt4pairIxxEJS1_EEvPT_DpOT0_(%"struct.std::pair"* %0, %"struct.std::pair"* dereferenceable(16) %1) #4 comdat {
  %3 = bitcast %"struct.std::pair"* %0 to i8*
  %4 = bitcast i8* %3 to %"struct.std::pair"*
  %5 = call dereferenceable(16) %"struct.std::pair"* @_ZSt7forwardISt4pairIxxEEOT_RNSt16remove_referenceIS2_E4typeE(%"struct.std::pair"* dereferenceable(16) %1) #3
  %6 = bitcast %"struct.std::pair"* %4 to i8*
  %7 = bitcast %"struct.std::pair"* %5 to i8*
  call void @llvm.memcpy.p0i8.p0i8.i64(i8* align 8 %6, i8* align 8 %7, i64 16, i1 false)
  ret void
}

; Function Attrs: noinline nounwind uwtable
define linkonce_odr %"struct.std::pair"* @_ZSt11__addressofISt4pairIxxEEPT_RS2_(%"struct.std::pair"* dereferenceable(16) %0) #4 comdat {
  ret %"struct.std::pair"* %0
}

; Function Attrs: noinline nounwind uwtable
define linkonce_odr dereferenceable(16) %"struct.std::pair"* @_ZNKSt13move_iteratorIPSt4pairIxxEEdeEv(%"class.std::move_iterator"* %0) #4 comdat align 2 {
  %2 = getelementptr inbounds %"class.std::move_iterator", %"class.std::move_iterator"* %0, i32 0, i32 0
  %3 = load %"struct.std::pair"*, %"struct.std::pair"** %2, align 8
  ret %"struct.std::pair"* %3
}

; Function Attrs: noinline nounwind uwtable
define linkonce_odr dereferenceable(8) %"class.std::move_iterator"* @_ZNSt13move_iteratorIPSt4pairIxxEEppEv(%"class.std::move_iterator"* %0) #4 comdat align 2 {
  %2 = getelementptr inbounds %"class.std::move_iterator", %"class.std::move_iterator"* %0, i32 0, i32 0
  %3 = load %"struct.std::pair"*, %"struct.std::pair"** %2, align 8
  %4 = getelementptr inbounds %"struct.std::pair", %"struct.std::pair"* %3, i32 1
  store %"struct.std::pair"* %4, %"struct.std::pair"** %2, align 8
  ret %"class.std::move_iterator"* %0
}

; Function Attrs: noinline uwtable
define linkonce_odr zeroext i1 @_ZSteqIPSt4pairIxxEEbRKSt13move_iteratorIT_ES7_(%"class.std::move_iterator"* dereferenceable(8) %0, %"class.std::move_iterator"* dereferenceable(8) %1) #0 comdat {
  %3 = call %"struct.std::pair"* @_ZNKSt13move_iteratorIPSt4pairIxxEE4baseEv(%"class.std::move_iterator"* %0)
  %4 = call %"struct.std::pair"* @_ZNKSt13move_iteratorIPSt4pairIxxEE4baseEv(%"class.std::move_iterator"* %1)
  %5 = icmp eq %"struct.std::pair"* %3, %4
  ret i1 %5
}

; Function Attrs: noinline nounwind uwtable
define linkonce_odr %"struct.std::pair"* @_ZNKSt13move_iteratorIPSt4pairIxxEE4baseEv(%"class.std::move_iterator"* %0) #4 comdat align 2 {
  %2 = getelementptr inbounds %"class.std::move_iterator", %"class.std::move_iterator"* %0, i32 0, i32 0
  %3 = load %"struct.std::pair"*, %"struct.std::pair"** %2, align 8
  ret %"struct.std::pair"* %3
}

; Function Attrs: noinline nounwind uwtable
define linkonce_odr dereferenceable(16) %"struct.std::pair"* @_ZSt7forwardISt4pairIxxEEOT_RNSt16remove_referenceIS2_E4typeE(%"struct.std::pair"* dereferenceable(16) %0) #4 comdat {
  ret %"struct.std::pair"* %0
}

; Function Attrs: noinline nounwind uwtable
define linkonce_odr void @_ZNSt13move_iteratorIPSt4pairIxxEEC2ES2_(%"class.std::move_iterator"* %0, %"struct.std::pair"* %1) unnamed_addr #4 comdat align 2 {
  %3 = getelementptr inbounds %"class.std::move_iterator", %"class.std::move_iterator"* %0, i32 0, i32 0
  store %"struct.std::pair"* %1, %"struct.std::pair"** %3, align 8
  ret void
}

; Function Attrs: noinline nounwind uwtable
define linkonce_odr void @_ZN9__gnu_cxx13new_allocatorISt4pairIxxEE7destroyIS2_EEvPT_(%"class.__gnu_cxx::new_allocator.11"* %0, %"struct.std::pair"* %1) #4 comdat align 2 {
  ret void
}

; Function Attrs: noinline nounwind uwtable
define linkonce_odr dereferenceable(1) %"struct.std::greater"* @_ZSt4moveIRSt7greaterISt4pairIxxEEEONSt16remove_referenceIT_E4typeEOS6_(%"struct.std::greater"* dereferenceable(1) %0) #4 comdat {
  ret %"struct.std::greater"* %0
}

; Function Attrs: noinline nounwind uwtable
define linkonce_odr void @_ZN9__gnu_cxx5__ops14_Iter_comp_valISt7greaterISt4pairIxxEEEC2ES5_(%"struct.__gnu_cxx::__ops::_Iter_comp_val"* %0) unnamed_addr #4 comdat align 2 {
  %2 = alloca %"struct.std::greater", align 1
  %3 = getelementptr inbounds %"struct.__gnu_cxx::__ops::_Iter_comp_val", %"struct.__gnu_cxx::__ops::_Iter_comp_val"* %0, i32 0, i32 0
  %4 = call dereferenceable(1) %"struct.std::greater"* @_ZSt4moveIRSt7greaterISt4pairIxxEEEONSt16remove_referenceIT_E4typeEOS6_(%"struct.std::greater"* dereferenceable(1) %2) #3
  ret void
}

; Function Attrs: noinline nounwind uwtable
define linkonce_odr dereferenceable(16) %"struct.std::pair"* @_ZSt4moveIRSt4pairIxxEEONSt16remove_referenceIT_E4typeEOS4_(%"struct.std::pair"* dereferenceable(16) %0) #4 comdat {
  ret %"struct.std::pair"* %0
}

; Function Attrs: noinline nounwind uwtable
define linkonce_odr %"struct.std::pair"* @_ZNK9__gnu_cxx17__normal_iteratorIPSt4pairIxxESt6vectorIS2_SaIS2_EEEmiEl(%"class.__gnu_cxx::__normal_iterator.13"* %0, i64 %1) #4 comdat align 2 {
  %3 = alloca %"class.__gnu_cxx::__normal_iterator.13", align 8
  %4 = alloca %"struct.std::pair"*, align 8
  %5 = getelementptr inbounds %"class.__gnu_cxx::__normal_iterator.13", %"class.__gnu_cxx::__normal_iterator.13"* %0, i32 0, i32 0
  %6 = load %"struct.std::pair"*, %"struct.std::pair"** %5, align 8
  %7 = sub i64 0, %1
  %8 = getelementptr inbounds %"struct.std::pair", %"struct.std::pair"* %6, i64 %7
  store %"struct.std::pair"* %8, %"struct.std::pair"** %4, align 8
  call void @_ZN9__gnu_cxx17__normal_iteratorIPSt4pairIxxESt6vectorIS2_SaIS2_EEEC2ERKS3_(%"class.__gnu_cxx::__normal_iterator.13"* %3, %"struct.std::pair"** dereferenceable(8) %4) #3
  %9 = getelementptr inbounds %"class.__gnu_cxx::__normal_iterator.13", %"class.__gnu_cxx::__normal_iterator.13"* %3, i32 0, i32 0
  %10 = load %"struct.std::pair"*, %"struct.std::pair"** %9, align 8
  ret %"struct.std::pair"* %10
}

; Function Attrs: noinline nounwind uwtable
define linkonce_odr dereferenceable(16) %"struct.std::pair"* @_ZNK9__gnu_cxx17__normal_iteratorIPSt4pairIxxESt6vectorIS2_SaIS2_EEEdeEv(%"class.__gnu_cxx::__normal_iterator.13"* %0) #4 comdat align 2 {
  %2 = getelementptr inbounds %"class.__gnu_cxx::__normal_iterator.13", %"class.__gnu_cxx::__normal_iterator.13"* %0, i32 0, i32 0
  %3 = load %"struct.std::pair"*, %"struct.std::pair"** %2, align 8
  ret %"struct.std::pair"* %3
}

; Function Attrs: noinline uwtable
define linkonce_odr void @_ZSt11__push_heapIN9__gnu_cxx17__normal_iteratorIPSt4pairIxxESt6vectorIS3_SaIS3_EEEElS3_NS0_5__ops14_Iter_comp_valISt7greaterIS3_EEEEvT_T0_SF_T1_RT2_(%"struct.std::pair"* %0, i64 %1, i64 %2, i64 %3, i64 %4, %"struct.__gnu_cxx::__ops::_Iter_comp_val"* dereferenceable(1) %5) #0 comdat {
  %7 = alloca %"class.__gnu_cxx::__normal_iterator.13", align 8
  %8 = alloca %"struct.std::pair", align 8
  %9 = alloca %"class.__gnu_cxx::__normal_iterator.13", align 8
  %10 = alloca %"class.__gnu_cxx::__normal_iterator.13", align 8
  %11 = alloca %"class.__gnu_cxx::__normal_iterator.13", align 8
  %12 = alloca %"class.__gnu_cxx::__normal_iterator.13", align 8
  %13 = getelementptr inbounds %"class.__gnu_cxx::__normal_iterator.13", %"class.__gnu_cxx::__normal_iterator.13"* %7, i32 0, i32 0
  store %"struct.std::pair"* %0, %"struct.std::pair"** %13, align 8
  %14 = bitcast %"struct.std::pair"* %8 to { i64, i64 }*
  %15 = getelementptr inbounds { i64, i64 }, { i64, i64 }* %14, i32 0, i32 0
  store i64 %3, i64* %15, align 8
  %16 = getelementptr inbounds { i64, i64 }, { i64, i64 }* %14, i32 0, i32 1
  store i64 %4, i64* %16, align 8
  %17 = sub nsw i64 %1, 1
  %18 = sdiv i64 %17, 2
  br label %19

19:                                               ; preds = %29, %6
  %.01 = phi i64 [ %18, %6 ], [ %39, %29 ]
  %.0 = phi i64 [ %1, %6 ], [ %.01, %29 ]
  %20 = icmp sgt i64 %.0, %2
  br i1 %20, label %21, label %27

21:                                               ; preds = %19
  %22 = call %"struct.std::pair"* @_ZNK9__gnu_cxx17__normal_iteratorIPSt4pairIxxESt6vectorIS2_SaIS2_EEEplEl(%"class.__gnu_cxx::__normal_iterator.13"* %7, i64 %.01) #3
  %23 = getelementptr inbounds %"class.__gnu_cxx::__normal_iterator.13", %"class.__gnu_cxx::__normal_iterator.13"* %9, i32 0, i32 0
  store %"struct.std::pair"* %22, %"struct.std::pair"** %23, align 8
  %24 = getelementptr inbounds %"class.__gnu_cxx::__normal_iterator.13", %"class.__gnu_cxx::__normal_iterator.13"* %9, i32 0, i32 0
  %25 = load %"struct.std::pair"*, %"struct.std::pair"** %24, align 8
  %26 = call zeroext i1 @_ZN9__gnu_cxx5__ops14_Iter_comp_valISt7greaterISt4pairIxxEEEclINS_17__normal_iteratorIPS4_St6vectorIS4_SaIS4_EEEES4_EEbT_RT0_(%"struct.__gnu_cxx::__ops::_Iter_comp_val"* %5, %"struct.std::pair"* %25, %"struct.std::pair"* dereferenceable(16) %8)
  br label %27

27:                                               ; preds = %21, %19
  %28 = phi i1 [ false, %19 ], [ %26, %21 ]
  br i1 %28, label %29, label %40

29:                                               ; preds = %27
  %30 = call %"struct.std::pair"* @_ZNK9__gnu_cxx17__normal_iteratorIPSt4pairIxxESt6vectorIS2_SaIS2_EEEplEl(%"class.__gnu_cxx::__normal_iterator.13"* %7, i64 %.01) #3
  %31 = getelementptr inbounds %"class.__gnu_cxx::__normal_iterator.13", %"class.__gnu_cxx::__normal_iterator.13"* %10, i32 0, i32 0
  store %"struct.std::pair"* %30, %"struct.std::pair"** %31, align 8
  %32 = call dereferenceable(16) %"struct.std::pair"* @_ZNK9__gnu_cxx17__normal_iteratorIPSt4pairIxxESt6vectorIS2_SaIS2_EEEdeEv(%"class.__gnu_cxx::__normal_iterator.13"* %10) #3
  %33 = call dereferenceable(16) %"struct.std::pair"* @_ZSt4moveIRSt4pairIxxEEONSt16remove_referenceIT_E4typeEOS4_(%"struct.std::pair"* dereferenceable(16) %32) #3
  %34 = call %"struct.std::pair"* @_ZNK9__gnu_cxx17__normal_iteratorIPSt4pairIxxESt6vectorIS2_SaIS2_EEEplEl(%"class.__gnu_cxx::__normal_iterator.13"* %7, i64 %.0) #3
  %35 = getelementptr inbounds %"class.__gnu_cxx::__normal_iterator.13", %"class.__gnu_cxx::__normal_iterator.13"* %11, i32 0, i32 0
  store %"struct.std::pair"* %34, %"struct.std::pair"** %35, align 8
  %36 = call dereferenceable(16) %"struct.std::pair"* @_ZNK9__gnu_cxx17__normal_iteratorIPSt4pairIxxESt6vectorIS2_SaIS2_EEEdeEv(%"class.__gnu_cxx::__normal_iterator.13"* %11) #3
  %37 = call dereferenceable(16) %"struct.std::pair"* @_ZNSt4pairIxxEaSEOS0_(%"struct.std::pair"* %36, %"struct.std::pair"* dereferenceable(16) %33) #3
  %38 = sub nsw i64 %.01, 1
  %39 = sdiv i64 %38, 2
  br label %19

40:                                               ; preds = %27
  %41 = call dereferenceable(16) %"struct.std::pair"* @_ZSt4moveIRSt4pairIxxEEONSt16remove_referenceIT_E4typeEOS4_(%"struct.std::pair"* dereferenceable(16) %8) #3
  %42 = call %"struct.std::pair"* @_ZNK9__gnu_cxx17__normal_iteratorIPSt4pairIxxESt6vectorIS2_SaIS2_EEEplEl(%"class.__gnu_cxx::__normal_iterator.13"* %7, i64 %.0) #3
  %43 = getelementptr inbounds %"class.__gnu_cxx::__normal_iterator.13", %"class.__gnu_cxx::__normal_iterator.13"* %12, i32 0, i32 0
  store %"struct.std::pair"* %42, %"struct.std::pair"** %43, align 8
  %44 = call dereferenceable(16) %"struct.std::pair"* @_ZNK9__gnu_cxx17__normal_iteratorIPSt4pairIxxESt6vectorIS2_SaIS2_EEEdeEv(%"class.__gnu_cxx::__normal_iterator.13"* %12) #3
  %45 = call dereferenceable(16) %"struct.std::pair"* @_ZNSt4pairIxxEaSEOS0_(%"struct.std::pair"* %44, %"struct.std::pair"* dereferenceable(16) %41) #3
  ret void
}

; Function Attrs: noinline nounwind uwtable
define linkonce_odr void @_ZN9__gnu_cxx17__normal_iteratorIPSt4pairIxxESt6vectorIS2_SaIS2_EEEC2ERKS3_(%"class.__gnu_cxx::__normal_iterator.13"* %0, %"struct.std::pair"** dereferenceable(8) %1) unnamed_addr #4 comdat align 2 {
  %3 = getelementptr inbounds %"class.__gnu_cxx::__normal_iterator.13", %"class.__gnu_cxx::__normal_iterator.13"* %0, i32 0, i32 0
  %4 = load %"struct.std::pair"*, %"struct.std::pair"** %1, align 8
  store %"struct.std::pair"* %4, %"struct.std::pair"** %3, align 8
  ret void
}

; Function Attrs: noinline uwtable
define linkonce_odr zeroext i1 @_ZN9__gnu_cxx5__ops14_Iter_comp_valISt7greaterISt4pairIxxEEEclINS_17__normal_iteratorIPS4_St6vectorIS4_SaIS4_EEEES4_EEbT_RT0_(%"struct.__gnu_cxx::__ops::_Iter_comp_val"* %0, %"struct.std::pair"* %1, %"struct.std::pair"* dereferenceable(16) %2) #0 comdat align 2 {
  %4 = alloca %"class.__gnu_cxx::__normal_iterator.13", align 8
  %5 = getelementptr inbounds %"class.__gnu_cxx::__normal_iterator.13", %"class.__gnu_cxx::__normal_iterator.13"* %4, i32 0, i32 0
  store %"struct.std::pair"* %1, %"struct.std::pair"** %5, align 8
  %6 = getelementptr inbounds %"struct.__gnu_cxx::__ops::_Iter_comp_val", %"struct.__gnu_cxx::__ops::_Iter_comp_val"* %0, i32 0, i32 0
  %7 = call dereferenceable(16) %"struct.std::pair"* @_ZNK9__gnu_cxx17__normal_iteratorIPSt4pairIxxESt6vectorIS2_SaIS2_EEEdeEv(%"class.__gnu_cxx::__normal_iterator.13"* %4) #3
  %8 = call zeroext i1 @_ZNKSt7greaterISt4pairIxxEEclERKS1_S4_(%"struct.std::greater"* %6, %"struct.std::pair"* dereferenceable(16) %7, %"struct.std::pair"* dereferenceable(16) %2)
  ret i1 %8
}

; Function Attrs: noinline nounwind uwtable
define linkonce_odr %"struct.std::pair"* @_ZNK9__gnu_cxx17__normal_iteratorIPSt4pairIxxESt6vectorIS2_SaIS2_EEEplEl(%"class.__gnu_cxx::__normal_iterator.13"* %0, i64 %1) #4 comdat align 2 {
  %3 = alloca %"class.__gnu_cxx::__normal_iterator.13", align 8
  %4 = alloca %"struct.std::pair"*, align 8
  %5 = getelementptr inbounds %"class.__gnu_cxx::__normal_iterator.13", %"class.__gnu_cxx::__normal_iterator.13"* %0, i32 0, i32 0
  %6 = load %"struct.std::pair"*, %"struct.std::pair"** %5, align 8
  %7 = getelementptr inbounds %"struct.std::pair", %"struct.std::pair"* %6, i64 %1
  store %"struct.std::pair"* %7, %"struct.std::pair"** %4, align 8
  call void @_ZN9__gnu_cxx17__normal_iteratorIPSt4pairIxxESt6vectorIS2_SaIS2_EEEC2ERKS3_(%"class.__gnu_cxx::__normal_iterator.13"* %3, %"struct.std::pair"** dereferenceable(8) %4) #3
  %8 = getelementptr inbounds %"class.__gnu_cxx::__normal_iterator.13", %"class.__gnu_cxx::__normal_iterator.13"* %3, i32 0, i32 0
  %9 = load %"struct.std::pair"*, %"struct.std::pair"** %8, align 8
  ret %"struct.std::pair"* %9
}

; Function Attrs: noinline nounwind uwtable
define linkonce_odr dereferenceable(16) %"struct.std::pair"* @_ZNSt4pairIxxEaSEOS0_(%"struct.std::pair"* %0, %"struct.std::pair"* dereferenceable(16) %1) #4 comdat align 2 {
  %3 = getelementptr inbounds %"struct.std::pair", %"struct.std::pair"* %1, i32 0, i32 0
  %4 = call dereferenceable(8) i64* @_ZSt7forwardIxEOT_RNSt16remove_referenceIS0_E4typeE(i64* dereferenceable(8) %3) #3
  %5 = load i64, i64* %4, align 8
  %6 = getelementptr inbounds %"struct.std::pair", %"struct.std::pair"* %0, i32 0, i32 0
  store i64 %5, i64* %6, align 8
  %7 = getelementptr inbounds %"struct.std::pair", %"struct.std::pair"* %1, i32 0, i32 1
  %8 = call dereferenceable(8) i64* @_ZSt7forwardIxEOT_RNSt16remove_referenceIS0_E4typeE(i64* dereferenceable(8) %7) #3
  %9 = load i64, i64* %8, align 8
  %10 = getelementptr inbounds %"struct.std::pair", %"struct.std::pair"* %0, i32 0, i32 1
  store i64 %9, i64* %10, align 8
  ret %"struct.std::pair"* %0
}

; Function Attrs: noinline uwtable
define linkonce_odr zeroext i1 @_ZNKSt7greaterISt4pairIxxEEclERKS1_S4_(%"struct.std::greater"* %0, %"struct.std::pair"* dereferenceable(16) %1, %"struct.std::pair"* dereferenceable(16) %2) #0 comdat align 2 {
  %4 = call zeroext i1 @_ZStgtIxxEbRKSt4pairIT_T0_ES5_(%"struct.std::pair"* dereferenceable(16) %1, %"struct.std::pair"* dereferenceable(16) %2)
  ret i1 %4
}

; Function Attrs: noinline uwtable
define linkonce_odr zeroext i1 @_ZStgtIxxEbRKSt4pairIT_T0_ES5_(%"struct.std::pair"* dereferenceable(16) %0, %"struct.std::pair"* dereferenceable(16) %1) #0 comdat {
  %3 = call zeroext i1 @_ZStltIxxEbRKSt4pairIT_T0_ES5_(%"struct.std::pair"* dereferenceable(16) %1, %"struct.std::pair"* dereferenceable(16) %0)
  ret i1 %3
}

; Function Attrs: noinline nounwind uwtable
define linkonce_odr zeroext i1 @_ZStltIxxEbRKSt4pairIT_T0_ES5_(%"struct.std::pair"* dereferenceable(16) %0, %"struct.std::pair"* dereferenceable(16) %1) #4 comdat {
  %3 = getelementptr inbounds %"struct.std::pair", %"struct.std::pair"* %0, i32 0, i32 0
  %4 = load i64, i64* %3, align 8
  %5 = getelementptr inbounds %"struct.std::pair", %"struct.std::pair"* %1, i32 0, i32 0
  %6 = load i64, i64* %5, align 8
  %7 = icmp slt i64 %4, %6
  br i1 %7, label %22, label %8

8:                                                ; preds = %2
  %9 = getelementptr inbounds %"struct.std::pair", %"struct.std::pair"* %1, i32 0, i32 0
  %10 = load i64, i64* %9, align 8
  %11 = getelementptr inbounds %"struct.std::pair", %"struct.std::pair"* %0, i32 0, i32 0
  %12 = load i64, i64* %11, align 8
  %13 = icmp slt i64 %10, %12
  br i1 %13, label %20, label %14

14:                                               ; preds = %8
  %15 = getelementptr inbounds %"struct.std::pair", %"struct.std::pair"* %0, i32 0, i32 1
  %16 = load i64, i64* %15, align 8
  %17 = getelementptr inbounds %"struct.std::pair", %"struct.std::pair"* %1, i32 0, i32 1
  %18 = load i64, i64* %17, align 8
  %19 = icmp slt i64 %16, %18
  br label %20

20:                                               ; preds = %14, %8
  %21 = phi i1 [ false, %8 ], [ %19, %14 ]
  br label %22

22:                                               ; preds = %20, %2
  %23 = phi i1 [ true, %2 ], [ %21, %20 ]
  ret i1 %23
}

; Function Attrs: noinline nounwind uwtable
define linkonce_odr dereferenceable(8) i64* @_ZSt7forwardIxEOT_RNSt16remove_referenceIS0_E4typeE(i64* dereferenceable(8) %0) #4 comdat {
  ret i64* %0
}

; Function Attrs: noinline uwtable
define linkonce_odr void @_ZNSt16allocator_traitsISaI4EdgeEE9constructIS0_JRxRiEEEvRS1_PT_DpOT0_(%"class.std::allocator.2"* dereferenceable(1) %0, %struct.Edge* %1, i64* dereferenceable(8) %2, i32* dereferenceable(4) %3) #0 comdat align 2 {
  %5 = bitcast %"class.std::allocator.2"* %0 to %"class.__gnu_cxx::new_allocator.3"*
  %6 = call dereferenceable(8) i64* @_ZSt7forwardIRxEOT_RNSt16remove_referenceIS1_E4typeE(i64* dereferenceable(8) %2) #3
  %7 = call dereferenceable(4) i32* @_ZSt7forwardIRiEOT_RNSt16remove_referenceIS1_E4typeE(i32* dereferenceable(4) %3) #3
  call void @_ZN9__gnu_cxx13new_allocatorI4EdgeE9constructIS1_JRxRiEEEvPT_DpOT0_(%"class.__gnu_cxx::new_allocator.3"* %5, %struct.Edge* %1, i64* dereferenceable(8) %6, i32* dereferenceable(4) %7)
  ret void
}

; Function Attrs: noinline nounwind uwtable
define linkonce_odr dereferenceable(4) i32* @_ZSt7forwardIRiEOT_RNSt16remove_referenceIS1_E4typeE(i32* dereferenceable(4) %0) #4 comdat {
  ret i32* %0
}

; Function Attrs: noinline uwtable
define linkonce_odr void @_ZNSt6vectorI4EdgeSaIS0_EE17_M_realloc_insertIJRxRiEEEvN9__gnu_cxx17__normal_iteratorIPS0_S2_EEDpOT_(%"class.std::vector.0"* %0, %struct.Edge* %1, i64* dereferenceable(8) %2, i32* dereferenceable(4) %3) #0 comdat align 2 personality i8* bitcast (i32 (...)* @__gxx_personality_v0 to i8*) {
  %5 = alloca %"class.__gnu_cxx::__normal_iterator", align 8
  %6 = alloca %"class.__gnu_cxx::__normal_iterator", align 8
  %7 = getelementptr inbounds %"class.__gnu_cxx::__normal_iterator", %"class.__gnu_cxx::__normal_iterator"* %5, i32 0, i32 0
  store %struct.Edge* %1, %struct.Edge** %7, align 8
  %8 = call i64 @_ZNKSt6vectorI4EdgeSaIS0_EE12_M_check_lenEmPKc(%"class.std::vector.0"* %0, i64 1, i8* getelementptr inbounds ([26 x i8], [26 x i8]* @.str, i32 0, i32 0))
  %9 = bitcast %"class.std::vector.0"* %0 to %"struct.std::_Vector_base.1"*
  %10 = getelementptr inbounds %"struct.std::_Vector_base.1", %"struct.std::_Vector_base.1"* %9, i32 0, i32 0
  %11 = getelementptr inbounds %"struct.std::_Vector_base<Edge, std::allocator<Edge> >::_Vector_impl", %"struct.std::_Vector_base<Edge, std::allocator<Edge> >::_Vector_impl"* %10, i32 0, i32 0
  %12 = load %struct.Edge*, %struct.Edge** %11, align 8
  %13 = bitcast %"class.std::vector.0"* %0 to %"struct.std::_Vector_base.1"*
  %14 = getelementptr inbounds %"struct.std::_Vector_base.1", %"struct.std::_Vector_base.1"* %13, i32 0, i32 0
  %15 = getelementptr inbounds %"struct.std::_Vector_base<Edge, std::allocator<Edge> >::_Vector_impl", %"struct.std::_Vector_base<Edge, std::allocator<Edge> >::_Vector_impl"* %14, i32 0, i32 1
  %16 = load %struct.Edge*, %struct.Edge** %15, align 8
  %17 = call %struct.Edge* @_ZNSt6vectorI4EdgeSaIS0_EE5beginEv(%"class.std::vector.0"* %0) #3
  %18 = getelementptr inbounds %"class.__gnu_cxx::__normal_iterator", %"class.__gnu_cxx::__normal_iterator"* %6, i32 0, i32 0
  store %struct.Edge* %17, %struct.Edge** %18, align 8
  %19 = call i64 @_ZN9__gnu_cxxmiIP4EdgeSt6vectorIS1_SaIS1_EEEENS_17__normal_iteratorIT_T0_E15difference_typeERKS9_SC_(%"class.__gnu_cxx::__normal_iterator"* dereferenceable(8) %5, %"class.__gnu_cxx::__normal_iterator"* dereferenceable(8) %6) #3
  %20 = bitcast %"class.std::vector.0"* %0 to %"struct.std::_Vector_base.1"*
  %21 = call %struct.Edge* @_ZNSt12_Vector_baseI4EdgeSaIS0_EE11_M_allocateEm(%"struct.std::_Vector_base.1"* %20, i64 %8)
  %22 = bitcast %"class.std::vector.0"* %0 to %"struct.std::_Vector_base.1"*
  %23 = getelementptr inbounds %"struct.std::_Vector_base.1", %"struct.std::_Vector_base.1"* %22, i32 0, i32 0
  %24 = bitcast %"struct.std::_Vector_base<Edge, std::allocator<Edge> >::_Vector_impl"* %23 to %"class.std::allocator.2"*
  %25 = getelementptr inbounds %struct.Edge, %struct.Edge* %21, i64 %19
  %26 = call dereferenceable(8) i64* @_ZSt7forwardIRxEOT_RNSt16remove_referenceIS1_E4typeE(i64* dereferenceable(8) %2) #3
  %27 = call dereferenceable(4) i32* @_ZSt7forwardIRiEOT_RNSt16remove_referenceIS1_E4typeE(i32* dereferenceable(4) %3) #3
  invoke void @_ZNSt16allocator_traitsISaI4EdgeEE9constructIS0_JRxRiEEEvRS1_PT_DpOT0_(%"class.std::allocator.2"* dereferenceable(1) %24, %struct.Edge* %25, i64* dereferenceable(8) %26, i32* dereferenceable(4) %27)
          to label %28 unwind label %42

28:                                               ; preds = %4
  %29 = call dereferenceable(8) %struct.Edge** @_ZNK9__gnu_cxx17__normal_iteratorIP4EdgeSt6vectorIS1_SaIS1_EEE4baseEv(%"class.__gnu_cxx::__normal_iterator"* %5) #3
  %30 = load %struct.Edge*, %struct.Edge** %29, align 8
  %31 = bitcast %"class.std::vector.0"* %0 to %"struct.std::_Vector_base.1"*
  %32 = call dereferenceable(1) %"class.std::allocator.2"* @_ZNSt12_Vector_baseI4EdgeSaIS0_EE19_M_get_Tp_allocatorEv(%"struct.std::_Vector_base.1"* %31) #3
  %33 = invoke %struct.Edge* @_ZSt34__uninitialized_move_if_noexcept_aIP4EdgeS1_SaIS0_EET0_T_S4_S3_RT1_(%struct.Edge* %12, %struct.Edge* %30, %struct.Edge* %21, %"class.std::allocator.2"* dereferenceable(1) %32)
          to label %34 unwind label %42

34:                                               ; preds = %28
  %35 = getelementptr inbounds %struct.Edge, %struct.Edge* %33, i32 1
  %36 = call dereferenceable(8) %struct.Edge** @_ZNK9__gnu_cxx17__normal_iteratorIP4EdgeSt6vectorIS1_SaIS1_EEE4baseEv(%"class.__gnu_cxx::__normal_iterator"* %5) #3
  %37 = load %struct.Edge*, %struct.Edge** %36, align 8
  %38 = bitcast %"class.std::vector.0"* %0 to %"struct.std::_Vector_base.1"*
  %39 = call dereferenceable(1) %"class.std::allocator.2"* @_ZNSt12_Vector_baseI4EdgeSaIS0_EE19_M_get_Tp_allocatorEv(%"struct.std::_Vector_base.1"* %38) #3
  %40 = invoke %struct.Edge* @_ZSt34__uninitialized_move_if_noexcept_aIP4EdgeS1_SaIS0_EET0_T_S4_S3_RT1_(%struct.Edge* %37, %struct.Edge* %16, %struct.Edge* %35, %"class.std::allocator.2"* dereferenceable(1) %39)
          to label %41 unwind label %42

41:                                               ; preds = %34
  br label %67

42:                                               ; preds = %34, %28, %4
  %.0 = phi %struct.Edge* [ %35, %34 ], [ null, %28 ], [ %21, %4 ]
  %43 = landingpad { i8*, i32 }
          catch i8* null
  %44 = extractvalue { i8*, i32 } %43, 0
  %45 = extractvalue { i8*, i32 } %43, 1
  br label %46

46:                                               ; preds = %42
  %47 = call i8* @__cxa_begin_catch(i8* %44) #3
  %48 = icmp ne %struct.Edge* %.0, null
  br i1 %48, label %59, label %49

49:                                               ; preds = %46
  %50 = bitcast %"class.std::vector.0"* %0 to %"struct.std::_Vector_base.1"*
  %51 = getelementptr inbounds %"struct.std::_Vector_base.1", %"struct.std::_Vector_base.1"* %50, i32 0, i32 0
  %52 = bitcast %"struct.std::_Vector_base<Edge, std::allocator<Edge> >::_Vector_impl"* %51 to %"class.std::allocator.2"*
  %53 = getelementptr inbounds %struct.Edge, %struct.Edge* %21, i64 %19
  invoke void @_ZNSt16allocator_traitsISaI4EdgeEE7destroyIS0_EEvRS1_PT_(%"class.std::allocator.2"* dereferenceable(1) %52, %struct.Edge* %53)
          to label %54 unwind label %55

54:                                               ; preds = %49
  br label %63

55:                                               ; preds = %65, %63, %59, %49
  %56 = landingpad { i8*, i32 }
          cleanup
  %57 = extractvalue { i8*, i32 } %56, 0
  %58 = extractvalue { i8*, i32 } %56, 1
  invoke void @__cxa_end_catch()
          to label %66 unwind label %92

59:                                               ; preds = %46
  %60 = bitcast %"class.std::vector.0"* %0 to %"struct.std::_Vector_base.1"*
  %61 = call dereferenceable(1) %"class.std::allocator.2"* @_ZNSt12_Vector_baseI4EdgeSaIS0_EE19_M_get_Tp_allocatorEv(%"struct.std::_Vector_base.1"* %60) #3
  invoke void @_ZSt8_DestroyIP4EdgeS0_EvT_S2_RSaIT0_E(%struct.Edge* %21, %struct.Edge* %.0, %"class.std::allocator.2"* dereferenceable(1) %61)
          to label %62 unwind label %55

62:                                               ; preds = %59
  br label %63

63:                                               ; preds = %62, %54
  %64 = bitcast %"class.std::vector.0"* %0 to %"struct.std::_Vector_base.1"*
  invoke void @_ZNSt12_Vector_baseI4EdgeSaIS0_EE13_M_deallocateEPS0_m(%"struct.std::_Vector_base.1"* %64, %struct.Edge* %21, i64 %8)
          to label %65 unwind label %55

65:                                               ; preds = %63
  invoke void @__cxa_rethrow() #13
          to label %95 unwind label %55

66:                                               ; preds = %55
  br label %89

67:                                               ; preds = %41
  %68 = bitcast %"class.std::vector.0"* %0 to %"struct.std::_Vector_base.1"*
  %69 = call dereferenceable(1) %"class.std::allocator.2"* @_ZNSt12_Vector_baseI4EdgeSaIS0_EE19_M_get_Tp_allocatorEv(%"struct.std::_Vector_base.1"* %68) #3
  call void @_ZSt8_DestroyIP4EdgeS0_EvT_S2_RSaIT0_E(%struct.Edge* %12, %struct.Edge* %16, %"class.std::allocator.2"* dereferenceable(1) %69)
  %70 = bitcast %"class.std::vector.0"* %0 to %"struct.std::_Vector_base.1"*
  %71 = bitcast %"class.std::vector.0"* %0 to %"struct.std::_Vector_base.1"*
  %72 = getelementptr inbounds %"struct.std::_Vector_base.1", %"struct.std::_Vector_base.1"* %71, i32 0, i32 0
  %73 = getelementptr inbounds %"struct.std::_Vector_base<Edge, std::allocator<Edge> >::_Vector_impl", %"struct.std::_Vector_base<Edge, std::allocator<Edge> >::_Vector_impl"* %72, i32 0, i32 2
  %74 = load %struct.Edge*, %struct.Edge** %73, align 8
  %75 = ptrtoint %struct.Edge* %74 to i64
  %76 = ptrtoint %struct.Edge* %12 to i64
  %77 = sub i64 %75, %76
  %78 = sdiv exact i64 %77, 16
  call void @_ZNSt12_Vector_baseI4EdgeSaIS0_EE13_M_deallocateEPS0_m(%"struct.std::_Vector_base.1"* %70, %struct.Edge* %12, i64 %78)
  %79 = bitcast %"class.std::vector.0"* %0 to %"struct.std::_Vector_base.1"*
  %80 = getelementptr inbounds %"struct.std::_Vector_base.1", %"struct.std::_Vector_base.1"* %79, i32 0, i32 0
  %81 = getelementptr inbounds %"struct.std::_Vector_base<Edge, std::allocator<Edge> >::_Vector_impl", %"struct.std::_Vector_base<Edge, std::allocator<Edge> >::_Vector_impl"* %80, i32 0, i32 0
  store %struct.Edge* %21, %struct.Edge** %81, align 8
  %82 = bitcast %"class.std::vector.0"* %0 to %"struct.std::_Vector_base.1"*
  %83 = getelementptr inbounds %"struct.std::_Vector_base.1", %"struct.std::_Vector_base.1"* %82, i32 0, i32 0
  %84 = getelementptr inbounds %"struct.std::_Vector_base<Edge, std::allocator<Edge> >::_Vector_impl", %"struct.std::_Vector_base<Edge, std::allocator<Edge> >::_Vector_impl"* %83, i32 0, i32 1
  store %struct.Edge* %40, %struct.Edge** %84, align 8
  %85 = getelementptr inbounds %struct.Edge, %struct.Edge* %21, i64 %8
  %86 = bitcast %"class.std::vector.0"* %0 to %"struct.std::_Vector_base.1"*
  %87 = getelementptr inbounds %"struct.std::_Vector_base.1", %"struct.std::_Vector_base.1"* %86, i32 0, i32 0
  %88 = getelementptr inbounds %"struct.std::_Vector_base<Edge, std::allocator<Edge> >::_Vector_impl", %"struct.std::_Vector_base<Edge, std::allocator<Edge> >::_Vector_impl"* %87, i32 0, i32 2
  store %struct.Edge* %85, %struct.Edge** %88, align 8
  ret void

89:                                               ; preds = %66
  %90 = insertvalue { i8*, i32 } undef, i8* %57, 0
  %91 = insertvalue { i8*, i32 } %90, i32 %58, 1
  resume { i8*, i32 } %91

92:                                               ; preds = %55
  %93 = landingpad { i8*, i32 }
          catch i8* null
  %94 = extractvalue { i8*, i32 } %93, 0
  call void @__clang_call_terminate(i8* %94) #12
  unreachable

95:                                               ; preds = %65
  unreachable
}

; Function Attrs: noinline uwtable
define linkonce_odr void @_ZN9__gnu_cxx13new_allocatorI4EdgeE9constructIS1_JRxRiEEEvPT_DpOT0_(%"class.__gnu_cxx::new_allocator.3"* %0, %struct.Edge* %1, i64* dereferenceable(8) %2, i32* dereferenceable(4) %3) #0 comdat align 2 {
  %5 = bitcast %struct.Edge* %1 to i8*
  %6 = bitcast i8* %5 to %struct.Edge*
  %7 = call dereferenceable(8) i64* @_ZSt7forwardIRxEOT_RNSt16remove_referenceIS1_E4typeE(i64* dereferenceable(8) %2) #3
  %8 = load i64, i64* %7, align 8
  %9 = trunc i64 %8 to i32
  %10 = call dereferenceable(4) i32* @_ZSt7forwardIRiEOT_RNSt16remove_referenceIS1_E4typeE(i32* dereferenceable(4) %3) #3
  %11 = load i32, i32* %10, align 4
  call void @_ZN4EdgeC2Eii(%struct.Edge* %6, i32 %9, i32 %11)
  ret void
}

; Function Attrs: noinline nounwind uwtable
define linkonce_odr void @_ZN4EdgeC2Eii(%struct.Edge* %0, i32 %1, i32 %2) unnamed_addr #4 comdat align 2 {
  %4 = getelementptr inbounds %struct.Edge, %struct.Edge* %0, i32 0, i32 0
  %5 = sext i32 %1 to i64
  store i64 %5, i64* %4, align 8
  %6 = getelementptr inbounds %struct.Edge, %struct.Edge* %0, i32 0, i32 1
  %7 = sext i32 %2 to i64
  store i64 %7, i64* %6, align 8
  ret void
}

; Function Attrs: noinline uwtable
define linkonce_odr i64 @_ZNKSt6vectorI4EdgeSaIS0_EE12_M_check_lenEmPKc(%"class.std::vector.0"* %0, i64 %1, i8* %2) #0 comdat align 2 {
  %4 = alloca i64, align 8
  %5 = alloca i64, align 8
  store i64 %1, i64* %4, align 8
  %6 = call i64 @_ZNKSt6vectorI4EdgeSaIS0_EE8max_sizeEv(%"class.std::vector.0"* %0) #3
  %7 = call i64 @_ZNKSt6vectorI4EdgeSaIS0_EE4sizeEv(%"class.std::vector.0"* %0) #3
  %8 = sub i64 %6, %7
  %9 = load i64, i64* %4, align 8
  %10 = icmp ult i64 %8, %9
  br i1 %10, label %11, label %12

11:                                               ; preds = %3
  call void @_ZSt20__throw_length_errorPKc(i8* %2) #13
  unreachable

12:                                               ; preds = %3
  %13 = call i64 @_ZNKSt6vectorI4EdgeSaIS0_EE4sizeEv(%"class.std::vector.0"* %0) #3
  %14 = call i64 @_ZNKSt6vectorI4EdgeSaIS0_EE4sizeEv(%"class.std::vector.0"* %0) #3
  store i64 %14, i64* %5, align 8
  %15 = call dereferenceable(8) i64* @_ZSt3maxImERKT_S2_S2_(i64* dereferenceable(8) %5, i64* dereferenceable(8) %4)
  %16 = load i64, i64* %15, align 8
  %17 = add i64 %13, %16
  %18 = call i64 @_ZNKSt6vectorI4EdgeSaIS0_EE4sizeEv(%"class.std::vector.0"* %0) #3
  %19 = icmp ult i64 %17, %18
  br i1 %19, label %23, label %20

20:                                               ; preds = %12
  %21 = call i64 @_ZNKSt6vectorI4EdgeSaIS0_EE8max_sizeEv(%"class.std::vector.0"* %0) #3
  %22 = icmp ugt i64 %17, %21
  br i1 %22, label %23, label %25

23:                                               ; preds = %20, %12
  %24 = call i64 @_ZNKSt6vectorI4EdgeSaIS0_EE8max_sizeEv(%"class.std::vector.0"* %0) #3
  br label %26

25:                                               ; preds = %20
  br label %26

26:                                               ; preds = %25, %23
  %27 = phi i64 [ %24, %23 ], [ %17, %25 ]
  ret i64 %27
}

; Function Attrs: noinline nounwind uwtable
define linkonce_odr i64 @_ZN9__gnu_cxxmiIP4EdgeSt6vectorIS1_SaIS1_EEEENS_17__normal_iteratorIT_T0_E15difference_typeERKS9_SC_(%"class.__gnu_cxx::__normal_iterator"* dereferenceable(8) %0, %"class.__gnu_cxx::__normal_iterator"* dereferenceable(8) %1) #4 comdat {
  %3 = call dereferenceable(8) %struct.Edge** @_ZNK9__gnu_cxx17__normal_iteratorIP4EdgeSt6vectorIS1_SaIS1_EEE4baseEv(%"class.__gnu_cxx::__normal_iterator"* %0) #3
  %4 = load %struct.Edge*, %struct.Edge** %3, align 8
  %5 = call dereferenceable(8) %struct.Edge** @_ZNK9__gnu_cxx17__normal_iteratorIP4EdgeSt6vectorIS1_SaIS1_EEE4baseEv(%"class.__gnu_cxx::__normal_iterator"* %1) #3
  %6 = load %struct.Edge*, %struct.Edge** %5, align 8
  %7 = ptrtoint %struct.Edge* %4 to i64
  %8 = ptrtoint %struct.Edge* %6 to i64
  %9 = sub i64 %7, %8
  %10 = sdiv exact i64 %9, 16
  ret i64 %10
}

; Function Attrs: noinline uwtable
define linkonce_odr %struct.Edge* @_ZNSt12_Vector_baseI4EdgeSaIS0_EE11_M_allocateEm(%"struct.std::_Vector_base.1"* %0, i64 %1) #0 comdat align 2 {
  %3 = icmp ne i64 %1, 0
  br i1 %3, label %4, label %8

4:                                                ; preds = %2
  %5 = getelementptr inbounds %"struct.std::_Vector_base.1", %"struct.std::_Vector_base.1"* %0, i32 0, i32 0
  %6 = bitcast %"struct.std::_Vector_base<Edge, std::allocator<Edge> >::_Vector_impl"* %5 to %"class.std::allocator.2"*
  %7 = call %struct.Edge* @_ZNSt16allocator_traitsISaI4EdgeEE8allocateERS1_m(%"class.std::allocator.2"* dereferenceable(1) %6, i64 %1)
  br label %9

8:                                                ; preds = %2
  br label %9

9:                                                ; preds = %8, %4
  %10 = phi %struct.Edge* [ %7, %4 ], [ null, %8 ]
  ret %struct.Edge* %10
}

; Function Attrs: noinline uwtable
define linkonce_odr %struct.Edge* @_ZSt34__uninitialized_move_if_noexcept_aIP4EdgeS1_SaIS0_EET0_T_S4_S3_RT1_(%struct.Edge* %0, %struct.Edge* %1, %struct.Edge* %2, %"class.std::allocator.2"* dereferenceable(1) %3) #0 comdat {
  %5 = alloca %"class.std::move_iterator.14", align 8
  %6 = alloca %"class.std::move_iterator.14", align 8
  %7 = call %struct.Edge* @_ZSt32__make_move_if_noexcept_iteratorI4EdgeSt13move_iteratorIPS0_EET0_PT_(%struct.Edge* %0)
  %8 = getelementptr inbounds %"class.std::move_iterator.14", %"class.std::move_iterator.14"* %5, i32 0, i32 0
  store %struct.Edge* %7, %struct.Edge** %8, align 8
  %9 = call %struct.Edge* @_ZSt32__make_move_if_noexcept_iteratorI4EdgeSt13move_iteratorIPS0_EET0_PT_(%struct.Edge* %1)
  %10 = getelementptr inbounds %"class.std::move_iterator.14", %"class.std::move_iterator.14"* %6, i32 0, i32 0
  store %struct.Edge* %9, %struct.Edge** %10, align 8
  %11 = getelementptr inbounds %"class.std::move_iterator.14", %"class.std::move_iterator.14"* %5, i32 0, i32 0
  %12 = load %struct.Edge*, %struct.Edge** %11, align 8
  %13 = getelementptr inbounds %"class.std::move_iterator.14", %"class.std::move_iterator.14"* %6, i32 0, i32 0
  %14 = load %struct.Edge*, %struct.Edge** %13, align 8
  %15 = call %struct.Edge* @_ZSt22__uninitialized_copy_aISt13move_iteratorIP4EdgeES2_S1_ET0_T_S5_S4_RSaIT1_E(%struct.Edge* %12, %struct.Edge* %14, %struct.Edge* %2, %"class.std::allocator.2"* dereferenceable(1) %3)
  ret %struct.Edge* %15
}

; Function Attrs: noinline nounwind uwtable
define linkonce_odr dereferenceable(8) %struct.Edge** @_ZNK9__gnu_cxx17__normal_iteratorIP4EdgeSt6vectorIS1_SaIS1_EEE4baseEv(%"class.__gnu_cxx::__normal_iterator"* %0) #4 comdat align 2 {
  %2 = getelementptr inbounds %"class.__gnu_cxx::__normal_iterator", %"class.__gnu_cxx::__normal_iterator"* %0, i32 0, i32 0
  ret %struct.Edge** %2
}

; Function Attrs: noinline uwtable
define linkonce_odr void @_ZNSt16allocator_traitsISaI4EdgeEE7destroyIS0_EEvRS1_PT_(%"class.std::allocator.2"* dereferenceable(1) %0, %struct.Edge* %1) #0 comdat align 2 {
  %3 = bitcast %"class.std::allocator.2"* %0 to %"class.__gnu_cxx::new_allocator.3"*
  call void @_ZN9__gnu_cxx13new_allocatorI4EdgeE7destroyIS1_EEvPT_(%"class.__gnu_cxx::new_allocator.3"* %3, %struct.Edge* %1)
  ret void
}

; Function Attrs: noinline nounwind uwtable
define linkonce_odr i64 @_ZNKSt6vectorI4EdgeSaIS0_EE8max_sizeEv(%"class.std::vector.0"* %0) #4 comdat align 2 {
  %2 = bitcast %"class.std::vector.0"* %0 to %"struct.std::_Vector_base.1"*
  %3 = call dereferenceable(1) %"class.std::allocator.2"* @_ZNKSt12_Vector_baseI4EdgeSaIS0_EE19_M_get_Tp_allocatorEv(%"struct.std::_Vector_base.1"* %2) #3
  %4 = call i64 @_ZNSt16allocator_traitsISaI4EdgeEE8max_sizeERKS1_(%"class.std::allocator.2"* dereferenceable(1) %3) #3
  ret i64 %4
}

; Function Attrs: noinline nounwind uwtable
define linkonce_odr i64 @_ZNKSt6vectorI4EdgeSaIS0_EE4sizeEv(%"class.std::vector.0"* %0) #4 comdat align 2 {
  %2 = bitcast %"class.std::vector.0"* %0 to %"struct.std::_Vector_base.1"*
  %3 = getelementptr inbounds %"struct.std::_Vector_base.1", %"struct.std::_Vector_base.1"* %2, i32 0, i32 0
  %4 = getelementptr inbounds %"struct.std::_Vector_base<Edge, std::allocator<Edge> >::_Vector_impl", %"struct.std::_Vector_base<Edge, std::allocator<Edge> >::_Vector_impl"* %3, i32 0, i32 1
  %5 = load %struct.Edge*, %struct.Edge** %4, align 8
  %6 = bitcast %"class.std::vector.0"* %0 to %"struct.std::_Vector_base.1"*
  %7 = getelementptr inbounds %"struct.std::_Vector_base.1", %"struct.std::_Vector_base.1"* %6, i32 0, i32 0
  %8 = getelementptr inbounds %"struct.std::_Vector_base<Edge, std::allocator<Edge> >::_Vector_impl", %"struct.std::_Vector_base<Edge, std::allocator<Edge> >::_Vector_impl"* %7, i32 0, i32 0
  %9 = load %struct.Edge*, %struct.Edge** %8, align 8
  %10 = ptrtoint %struct.Edge* %5 to i64
  %11 = ptrtoint %struct.Edge* %9 to i64
  %12 = sub i64 %10, %11
  %13 = sdiv exact i64 %12, 16
  ret i64 %13
}

; Function Attrs: noinline nounwind uwtable
define linkonce_odr i64 @_ZNSt16allocator_traitsISaI4EdgeEE8max_sizeERKS1_(%"class.std::allocator.2"* dereferenceable(1) %0) #4 comdat align 2 {
  %2 = bitcast %"class.std::allocator.2"* %0 to %"class.__gnu_cxx::new_allocator.3"*
  %3 = call i64 @_ZNK9__gnu_cxx13new_allocatorI4EdgeE8max_sizeEv(%"class.__gnu_cxx::new_allocator.3"* %2) #3
  ret i64 %3
}

; Function Attrs: noinline nounwind uwtable
define linkonce_odr dereferenceable(1) %"class.std::allocator.2"* @_ZNKSt12_Vector_baseI4EdgeSaIS0_EE19_M_get_Tp_allocatorEv(%"struct.std::_Vector_base.1"* %0) #4 comdat align 2 {
  %2 = getelementptr inbounds %"struct.std::_Vector_base.1", %"struct.std::_Vector_base.1"* %0, i32 0, i32 0
  %3 = bitcast %"struct.std::_Vector_base<Edge, std::allocator<Edge> >::_Vector_impl"* %2 to %"class.std::allocator.2"*
  ret %"class.std::allocator.2"* %3
}

; Function Attrs: noinline nounwind uwtable
define linkonce_odr i64 @_ZNK9__gnu_cxx13new_allocatorI4EdgeE8max_sizeEv(%"class.__gnu_cxx::new_allocator.3"* %0) #4 comdat align 2 {
  ret i64 1152921504606846975
}

; Function Attrs: noinline uwtable
define linkonce_odr %struct.Edge* @_ZNSt16allocator_traitsISaI4EdgeEE8allocateERS1_m(%"class.std::allocator.2"* dereferenceable(1) %0, i64 %1) #0 comdat align 2 {
  %3 = bitcast %"class.std::allocator.2"* %0 to %"class.__gnu_cxx::new_allocator.3"*
  %4 = call %struct.Edge* @_ZN9__gnu_cxx13new_allocatorI4EdgeE8allocateEmPKv(%"class.__gnu_cxx::new_allocator.3"* %3, i64 %1, i8* null)
  ret %struct.Edge* %4
}

; Function Attrs: noinline uwtable
define linkonce_odr %struct.Edge* @_ZN9__gnu_cxx13new_allocatorI4EdgeE8allocateEmPKv(%"class.__gnu_cxx::new_allocator.3"* %0, i64 %1, i8* %2) #0 comdat align 2 {
  %4 = call i64 @_ZNK9__gnu_cxx13new_allocatorI4EdgeE8max_sizeEv(%"class.__gnu_cxx::new_allocator.3"* %0) #3
  %5 = icmp ugt i64 %1, %4
  br i1 %5, label %6, label %7

6:                                                ; preds = %3
  call void @_ZSt17__throw_bad_allocv() #13
  unreachable

7:                                                ; preds = %3
  %8 = mul i64 %1, 16
  %9 = call i8* @_Znwm(i64 %8)
  %10 = bitcast i8* %9 to %struct.Edge*
  ret %struct.Edge* %10
}

; Function Attrs: noinline uwtable
define linkonce_odr %struct.Edge* @_ZSt22__uninitialized_copy_aISt13move_iteratorIP4EdgeES2_S1_ET0_T_S5_S4_RSaIT1_E(%struct.Edge* %0, %struct.Edge* %1, %struct.Edge* %2, %"class.std::allocator.2"* dereferenceable(1) %3) #0 comdat {
  %5 = alloca %"class.std::move_iterator.14", align 8
  %6 = alloca %"class.std::move_iterator.14", align 8
  %7 = alloca %"class.std::move_iterator.14", align 8
  %8 = alloca %"class.std::move_iterator.14", align 8
  %9 = getelementptr inbounds %"class.std::move_iterator.14", %"class.std::move_iterator.14"* %5, i32 0, i32 0
  store %struct.Edge* %0, %struct.Edge** %9, align 8
  %10 = getelementptr inbounds %"class.std::move_iterator.14", %"class.std::move_iterator.14"* %6, i32 0, i32 0
  store %struct.Edge* %1, %struct.Edge** %10, align 8
  %11 = bitcast %"class.std::move_iterator.14"* %7 to i8*
  %12 = bitcast %"class.std::move_iterator.14"* %5 to i8*
  call void @llvm.memcpy.p0i8.p0i8.i64(i8* align 8 %11, i8* align 8 %12, i64 8, i1 false)
  %13 = bitcast %"class.std::move_iterator.14"* %8 to i8*
  %14 = bitcast %"class.std::move_iterator.14"* %6 to i8*
  call void @llvm.memcpy.p0i8.p0i8.i64(i8* align 8 %13, i8* align 8 %14, i64 8, i1 false)
  %15 = getelementptr inbounds %"class.std::move_iterator.14", %"class.std::move_iterator.14"* %7, i32 0, i32 0
  %16 = load %struct.Edge*, %struct.Edge** %15, align 8
  %17 = getelementptr inbounds %"class.std::move_iterator.14", %"class.std::move_iterator.14"* %8, i32 0, i32 0
  %18 = load %struct.Edge*, %struct.Edge** %17, align 8
  %19 = call %struct.Edge* @_ZSt18uninitialized_copyISt13move_iteratorIP4EdgeES2_ET0_T_S5_S4_(%struct.Edge* %16, %struct.Edge* %18, %struct.Edge* %2)
  ret %struct.Edge* %19
}

; Function Attrs: noinline uwtable
define linkonce_odr %struct.Edge* @_ZSt32__make_move_if_noexcept_iteratorI4EdgeSt13move_iteratorIPS0_EET0_PT_(%struct.Edge* %0) #0 comdat {
  %2 = alloca %"class.std::move_iterator.14", align 8
  call void @_ZNSt13move_iteratorIP4EdgeEC2ES1_(%"class.std::move_iterator.14"* %2, %struct.Edge* %0)
  %3 = getelementptr inbounds %"class.std::move_iterator.14", %"class.std::move_iterator.14"* %2, i32 0, i32 0
  %4 = load %struct.Edge*, %struct.Edge** %3, align 8
  ret %struct.Edge* %4
}

; Function Attrs: noinline uwtable
define linkonce_odr %struct.Edge* @_ZSt18uninitialized_copyISt13move_iteratorIP4EdgeES2_ET0_T_S5_S4_(%struct.Edge* %0, %struct.Edge* %1, %struct.Edge* %2) #0 comdat {
  %4 = alloca %"class.std::move_iterator.14", align 8
  %5 = alloca %"class.std::move_iterator.14", align 8
  %6 = alloca %"class.std::move_iterator.14", align 8
  %7 = alloca %"class.std::move_iterator.14", align 8
  %8 = getelementptr inbounds %"class.std::move_iterator.14", %"class.std::move_iterator.14"* %4, i32 0, i32 0
  store %struct.Edge* %0, %struct.Edge** %8, align 8
  %9 = getelementptr inbounds %"class.std::move_iterator.14", %"class.std::move_iterator.14"* %5, i32 0, i32 0
  store %struct.Edge* %1, %struct.Edge** %9, align 8
  %10 = bitcast %"class.std::move_iterator.14"* %6 to i8*
  %11 = bitcast %"class.std::move_iterator.14"* %4 to i8*
  call void @llvm.memcpy.p0i8.p0i8.i64(i8* align 8 %10, i8* align 8 %11, i64 8, i1 false)
  %12 = bitcast %"class.std::move_iterator.14"* %7 to i8*
  %13 = bitcast %"class.std::move_iterator.14"* %5 to i8*
  call void @llvm.memcpy.p0i8.p0i8.i64(i8* align 8 %12, i8* align 8 %13, i64 8, i1 false)
  %14 = getelementptr inbounds %"class.std::move_iterator.14", %"class.std::move_iterator.14"* %6, i32 0, i32 0
  %15 = load %struct.Edge*, %struct.Edge** %14, align 8
  %16 = getelementptr inbounds %"class.std::move_iterator.14", %"class.std::move_iterator.14"* %7, i32 0, i32 0
  %17 = load %struct.Edge*, %struct.Edge** %16, align 8
  %18 = call %struct.Edge* @_ZNSt20__uninitialized_copyILb0EE13__uninit_copyISt13move_iteratorIP4EdgeES4_EET0_T_S7_S6_(%struct.Edge* %15, %struct.Edge* %17, %struct.Edge* %2)
  ret %struct.Edge* %18
}

; Function Attrs: noinline uwtable
define linkonce_odr %struct.Edge* @_ZNSt20__uninitialized_copyILb0EE13__uninit_copyISt13move_iteratorIP4EdgeES4_EET0_T_S7_S6_(%struct.Edge* %0, %struct.Edge* %1, %struct.Edge* %2) #0 comdat align 2 personality i8* bitcast (i32 (...)* @__gxx_personality_v0 to i8*) {
  %4 = alloca %"class.std::move_iterator.14", align 8
  %5 = alloca %"class.std::move_iterator.14", align 8
  %6 = getelementptr inbounds %"class.std::move_iterator.14", %"class.std::move_iterator.14"* %4, i32 0, i32 0
  store %struct.Edge* %0, %struct.Edge** %6, align 8
  %7 = getelementptr inbounds %"class.std::move_iterator.14", %"class.std::move_iterator.14"* %5, i32 0, i32 0
  store %struct.Edge* %1, %struct.Edge** %7, align 8
  br label %8

8:                                                ; preds = %18, %3
  %.0 = phi %struct.Edge* [ %2, %3 ], [ %19, %18 ]
  %9 = invoke zeroext i1 @_ZStneIP4EdgeEbRKSt13move_iteratorIT_ES6_(%"class.std::move_iterator.14"* dereferenceable(8) %4, %"class.std::move_iterator.14"* dereferenceable(8) %5)
          to label %10 unwind label %20

10:                                               ; preds = %8
  br i1 %9, label %11, label %27

11:                                               ; preds = %10
  %12 = call %struct.Edge* @_ZSt11__addressofI4EdgeEPT_RS1_(%struct.Edge* dereferenceable(16) %.0) #3
  %13 = invoke dereferenceable(16) %struct.Edge* @_ZNKSt13move_iteratorIP4EdgeEdeEv(%"class.std::move_iterator.14"* %4)
          to label %14 unwind label %20

14:                                               ; preds = %11
  invoke void @_ZSt10_ConstructI4EdgeJS0_EEvPT_DpOT0_(%struct.Edge* %12, %struct.Edge* dereferenceable(16) %13)
          to label %15 unwind label %20

15:                                               ; preds = %14
  br label %16

16:                                               ; preds = %15
  %17 = invoke dereferenceable(8) %"class.std::move_iterator.14"* @_ZNSt13move_iteratorIP4EdgeEppEv(%"class.std::move_iterator.14"* %4)
          to label %18 unwind label %20

18:                                               ; preds = %16
  %19 = getelementptr inbounds %struct.Edge, %struct.Edge* %.0, i32 1
  br label %8

20:                                               ; preds = %16, %14, %11, %8
  %21 = landingpad { i8*, i32 }
          catch i8* null
  %22 = extractvalue { i8*, i32 } %21, 0
  %23 = extractvalue { i8*, i32 } %21, 1
  br label %24

24:                                               ; preds = %20
  %25 = call i8* @__cxa_begin_catch(i8* %22) #3
  invoke void @_ZSt8_DestroyIP4EdgeEvT_S2_(%struct.Edge* %2, %struct.Edge* %.0)
          to label %26 unwind label %28

26:                                               ; preds = %24
  invoke void @__cxa_rethrow() #13
          to label %40 unwind label %28

27:                                               ; preds = %10
  ret %struct.Edge* %.0

28:                                               ; preds = %26, %24
  %29 = landingpad { i8*, i32 }
          cleanup
  %30 = extractvalue { i8*, i32 } %29, 0
  %31 = extractvalue { i8*, i32 } %29, 1
  invoke void @__cxa_end_catch()
          to label %32 unwind label %37

32:                                               ; preds = %28
  br label %34

33:                                               ; No predecessors!
  call void @llvm.trap()
  unreachable

34:                                               ; preds = %32
  %35 = insertvalue { i8*, i32 } undef, i8* %30, 0
  %36 = insertvalue { i8*, i32 } %35, i32 %31, 1
  resume { i8*, i32 } %36

37:                                               ; preds = %28
  %38 = landingpad { i8*, i32 }
          catch i8* null
  %39 = extractvalue { i8*, i32 } %38, 0
  call void @__clang_call_terminate(i8* %39) #12
  unreachable

40:                                               ; preds = %26
  unreachable
}

; Function Attrs: noinline uwtable
define linkonce_odr zeroext i1 @_ZStneIP4EdgeEbRKSt13move_iteratorIT_ES6_(%"class.std::move_iterator.14"* dereferenceable(8) %0, %"class.std::move_iterator.14"* dereferenceable(8) %1) #0 comdat {
  %3 = call zeroext i1 @_ZSteqIP4EdgeEbRKSt13move_iteratorIT_ES6_(%"class.std::move_iterator.14"* dereferenceable(8) %0, %"class.std::move_iterator.14"* dereferenceable(8) %1)
  %4 = xor i1 %3, true
  ret i1 %4
}

; Function Attrs: noinline nounwind uwtable
define linkonce_odr void @_ZSt10_ConstructI4EdgeJS0_EEvPT_DpOT0_(%struct.Edge* %0, %struct.Edge* dereferenceable(16) %1) #4 comdat {
  %3 = bitcast %struct.Edge* %0 to i8*
  %4 = bitcast i8* %3 to %struct.Edge*
  %5 = call dereferenceable(16) %struct.Edge* @_ZSt7forwardI4EdgeEOT_RNSt16remove_referenceIS1_E4typeE(%struct.Edge* dereferenceable(16) %1) #3
  %6 = bitcast %struct.Edge* %4 to i8*
  %7 = bitcast %struct.Edge* %5 to i8*
  call void @llvm.memcpy.p0i8.p0i8.i64(i8* align 8 %6, i8* align 8 %7, i64 16, i1 false)
  ret void
}

; Function Attrs: noinline nounwind uwtable
define linkonce_odr %struct.Edge* @_ZSt11__addressofI4EdgeEPT_RS1_(%struct.Edge* dereferenceable(16) %0) #4 comdat {
  ret %struct.Edge* %0
}

; Function Attrs: noinline nounwind uwtable
define linkonce_odr dereferenceable(16) %struct.Edge* @_ZNKSt13move_iteratorIP4EdgeEdeEv(%"class.std::move_iterator.14"* %0) #4 comdat align 2 {
  %2 = getelementptr inbounds %"class.std::move_iterator.14", %"class.std::move_iterator.14"* %0, i32 0, i32 0
  %3 = load %struct.Edge*, %struct.Edge** %2, align 8
  ret %struct.Edge* %3
}

; Function Attrs: noinline nounwind uwtable
define linkonce_odr dereferenceable(8) %"class.std::move_iterator.14"* @_ZNSt13move_iteratorIP4EdgeEppEv(%"class.std::move_iterator.14"* %0) #4 comdat align 2 {
  %2 = getelementptr inbounds %"class.std::move_iterator.14", %"class.std::move_iterator.14"* %0, i32 0, i32 0
  %3 = load %struct.Edge*, %struct.Edge** %2, align 8
  %4 = getelementptr inbounds %struct.Edge, %struct.Edge* %3, i32 1
  store %struct.Edge* %4, %struct.Edge** %2, align 8
  ret %"class.std::move_iterator.14"* %0
}

; Function Attrs: noinline uwtable
define linkonce_odr zeroext i1 @_ZSteqIP4EdgeEbRKSt13move_iteratorIT_ES6_(%"class.std::move_iterator.14"* dereferenceable(8) %0, %"class.std::move_iterator.14"* dereferenceable(8) %1) #0 comdat {
  %3 = call %struct.Edge* @_ZNKSt13move_iteratorIP4EdgeE4baseEv(%"class.std::move_iterator.14"* %0)
  %4 = call %struct.Edge* @_ZNKSt13move_iteratorIP4EdgeE4baseEv(%"class.std::move_iterator.14"* %1)
  %5 = icmp eq %struct.Edge* %3, %4
  ret i1 %5
}

; Function Attrs: noinline nounwind uwtable
define linkonce_odr %struct.Edge* @_ZNKSt13move_iteratorIP4EdgeE4baseEv(%"class.std::move_iterator.14"* %0) #4 comdat align 2 {
  %2 = getelementptr inbounds %"class.std::move_iterator.14", %"class.std::move_iterator.14"* %0, i32 0, i32 0
  %3 = load %struct.Edge*, %struct.Edge** %2, align 8
  ret %struct.Edge* %3
}

; Function Attrs: noinline nounwind uwtable
define linkonce_odr dereferenceable(16) %struct.Edge* @_ZSt7forwardI4EdgeEOT_RNSt16remove_referenceIS1_E4typeE(%struct.Edge* dereferenceable(16) %0) #4 comdat {
  ret %struct.Edge* %0
}

; Function Attrs: noinline nounwind uwtable
define linkonce_odr void @_ZNSt13move_iteratorIP4EdgeEC2ES1_(%"class.std::move_iterator.14"* %0, %struct.Edge* %1) unnamed_addr #4 comdat align 2 {
  %3 = getelementptr inbounds %"class.std::move_iterator.14", %"class.std::move_iterator.14"* %0, i32 0, i32 0
  store %struct.Edge* %1, %struct.Edge** %3, align 8
  ret void
}

; Function Attrs: noinline nounwind uwtable
define linkonce_odr void @_ZN9__gnu_cxx13new_allocatorI4EdgeE7destroyIS1_EEvPT_(%"class.__gnu_cxx::new_allocator.3"* %0, %struct.Edge* %1) #4 comdat align 2 {
  ret void
}

; Function Attrs: noinline nounwind uwtable
define linkonce_odr zeroext i1 @_ZNKSt6vectorISt4pairIxxESaIS1_EE5emptyEv(%"class.std::vector.8"* %0) #4 comdat align 2 {
  %2 = alloca %"class.__gnu_cxx::__normal_iterator.15", align 8
  %3 = alloca %"class.__gnu_cxx::__normal_iterator.15", align 8
  %4 = call %"struct.std::pair"* @_ZNKSt6vectorISt4pairIxxESaIS1_EE5beginEv(%"class.std::vector.8"* %0) #3
  %5 = getelementptr inbounds %"class.__gnu_cxx::__normal_iterator.15", %"class.__gnu_cxx::__normal_iterator.15"* %2, i32 0, i32 0
  store %"struct.std::pair"* %4, %"struct.std::pair"** %5, align 8
  %6 = call %"struct.std::pair"* @_ZNKSt6vectorISt4pairIxxESaIS1_EE3endEv(%"class.std::vector.8"* %0) #3
  %7 = getelementptr inbounds %"class.__gnu_cxx::__normal_iterator.15", %"class.__gnu_cxx::__normal_iterator.15"* %3, i32 0, i32 0
  store %"struct.std::pair"* %6, %"struct.std::pair"** %7, align 8
  %8 = call zeroext i1 @_ZN9__gnu_cxxeqIPKSt4pairIxxESt6vectorIS2_SaIS2_EEEEbRKNS_17__normal_iteratorIT_T0_EESD_(%"class.__gnu_cxx::__normal_iterator.15"* dereferenceable(8) %2, %"class.__gnu_cxx::__normal_iterator.15"* dereferenceable(8) %3) #3
  ret i1 %8
}

; Function Attrs: noinline nounwind uwtable
define linkonce_odr zeroext i1 @_ZN9__gnu_cxxeqIPKSt4pairIxxESt6vectorIS2_SaIS2_EEEEbRKNS_17__normal_iteratorIT_T0_EESD_(%"class.__gnu_cxx::__normal_iterator.15"* dereferenceable(8) %0, %"class.__gnu_cxx::__normal_iterator.15"* dereferenceable(8) %1) #4 comdat {
  %3 = call dereferenceable(8) %"struct.std::pair"** @_ZNK9__gnu_cxx17__normal_iteratorIPKSt4pairIxxESt6vectorIS2_SaIS2_EEE4baseEv(%"class.__gnu_cxx::__normal_iterator.15"* %0) #3
  %4 = load %"struct.std::pair"*, %"struct.std::pair"** %3, align 8
  %5 = call dereferenceable(8) %"struct.std::pair"** @_ZNK9__gnu_cxx17__normal_iteratorIPKSt4pairIxxESt6vectorIS2_SaIS2_EEE4baseEv(%"class.__gnu_cxx::__normal_iterator.15"* %1) #3
  %6 = load %"struct.std::pair"*, %"struct.std::pair"** %5, align 8
  %7 = icmp eq %"struct.std::pair"* %4, %6
  ret i1 %7
}

; Function Attrs: noinline nounwind uwtable
define linkonce_odr %"struct.std::pair"* @_ZNKSt6vectorISt4pairIxxESaIS1_EE5beginEv(%"class.std::vector.8"* %0) #4 comdat align 2 {
  %2 = alloca %"class.__gnu_cxx::__normal_iterator.15", align 8
  %3 = alloca %"struct.std::pair"*, align 8
  %4 = bitcast %"class.std::vector.8"* %0 to %"struct.std::_Vector_base.9"*
  %5 = getelementptr inbounds %"struct.std::_Vector_base.9", %"struct.std::_Vector_base.9"* %4, i32 0, i32 0
  %6 = getelementptr inbounds %"struct.std::_Vector_base<std::pair<long long, long long>, std::allocator<std::pair<long long, long long> > >::_Vector_impl", %"struct.std::_Vector_base<std::pair<long long, long long>, std::allocator<std::pair<long long, long long> > >::_Vector_impl"* %5, i32 0, i32 0
  %7 = load %"struct.std::pair"*, %"struct.std::pair"** %6, align 8
  store %"struct.std::pair"* %7, %"struct.std::pair"** %3, align 8
  call void @_ZN9__gnu_cxx17__normal_iteratorIPKSt4pairIxxESt6vectorIS2_SaIS2_EEEC2ERKS4_(%"class.__gnu_cxx::__normal_iterator.15"* %2, %"struct.std::pair"** dereferenceable(8) %3) #3
  %8 = getelementptr inbounds %"class.__gnu_cxx::__normal_iterator.15", %"class.__gnu_cxx::__normal_iterator.15"* %2, i32 0, i32 0
  %9 = load %"struct.std::pair"*, %"struct.std::pair"** %8, align 8
  ret %"struct.std::pair"* %9
}

; Function Attrs: noinline nounwind uwtable
define linkonce_odr %"struct.std::pair"* @_ZNKSt6vectorISt4pairIxxESaIS1_EE3endEv(%"class.std::vector.8"* %0) #4 comdat align 2 {
  %2 = alloca %"class.__gnu_cxx::__normal_iterator.15", align 8
  %3 = alloca %"struct.std::pair"*, align 8
  %4 = bitcast %"class.std::vector.8"* %0 to %"struct.std::_Vector_base.9"*
  %5 = getelementptr inbounds %"struct.std::_Vector_base.9", %"struct.std::_Vector_base.9"* %4, i32 0, i32 0
  %6 = getelementptr inbounds %"struct.std::_Vector_base<std::pair<long long, long long>, std::allocator<std::pair<long long, long long> > >::_Vector_impl", %"struct.std::_Vector_base<std::pair<long long, long long>, std::allocator<std::pair<long long, long long> > >::_Vector_impl"* %5, i32 0, i32 1
  %7 = load %"struct.std::pair"*, %"struct.std::pair"** %6, align 8
  store %"struct.std::pair"* %7, %"struct.std::pair"** %3, align 8
  call void @_ZN9__gnu_cxx17__normal_iteratorIPKSt4pairIxxESt6vectorIS2_SaIS2_EEEC2ERKS4_(%"class.__gnu_cxx::__normal_iterator.15"* %2, %"struct.std::pair"** dereferenceable(8) %3) #3
  %8 = getelementptr inbounds %"class.__gnu_cxx::__normal_iterator.15", %"class.__gnu_cxx::__normal_iterator.15"* %2, i32 0, i32 0
  %9 = load %"struct.std::pair"*, %"struct.std::pair"** %8, align 8
  ret %"struct.std::pair"* %9
}

; Function Attrs: noinline nounwind uwtable
define linkonce_odr dereferenceable(8) %"struct.std::pair"** @_ZNK9__gnu_cxx17__normal_iteratorIPKSt4pairIxxESt6vectorIS2_SaIS2_EEE4baseEv(%"class.__gnu_cxx::__normal_iterator.15"* %0) #4 comdat align 2 {
  %2 = getelementptr inbounds %"class.__gnu_cxx::__normal_iterator.15", %"class.__gnu_cxx::__normal_iterator.15"* %0, i32 0, i32 0
  ret %"struct.std::pair"** %2
}

; Function Attrs: noinline nounwind uwtable
define linkonce_odr void @_ZN9__gnu_cxx17__normal_iteratorIPKSt4pairIxxESt6vectorIS2_SaIS2_EEEC2ERKS4_(%"class.__gnu_cxx::__normal_iterator.15"* %0, %"struct.std::pair"** dereferenceable(8) %1) unnamed_addr #4 comdat align 2 {
  %3 = getelementptr inbounds %"class.__gnu_cxx::__normal_iterator.15", %"class.__gnu_cxx::__normal_iterator.15"* %0, i32 0, i32 0
  %4 = load %"struct.std::pair"*, %"struct.std::pair"** %1, align 8
  store %"struct.std::pair"* %4, %"struct.std::pair"** %3, align 8
  ret void
}

; Function Attrs: noinline nounwind uwtable
define linkonce_odr dereferenceable(16) %"struct.std::pair"* @_ZNKSt6vectorISt4pairIxxESaIS1_EE5frontEv(%"class.std::vector.8"* %0) #4 comdat align 2 {
  %2 = alloca %"class.__gnu_cxx::__normal_iterator.15", align 8
  %3 = call %"struct.std::pair"* @_ZNKSt6vectorISt4pairIxxESaIS1_EE5beginEv(%"class.std::vector.8"* %0) #3
  %4 = getelementptr inbounds %"class.__gnu_cxx::__normal_iterator.15", %"class.__gnu_cxx::__normal_iterator.15"* %2, i32 0, i32 0
  store %"struct.std::pair"* %3, %"struct.std::pair"** %4, align 8
  %5 = call dereferenceable(16) %"struct.std::pair"* @_ZNK9__gnu_cxx17__normal_iteratorIPKSt4pairIxxESt6vectorIS2_SaIS2_EEEdeEv(%"class.__gnu_cxx::__normal_iterator.15"* %2) #3
  ret %"struct.std::pair"* %5
}

; Function Attrs: noinline nounwind uwtable
define linkonce_odr dereferenceable(16) %"struct.std::pair"* @_ZNK9__gnu_cxx17__normal_iteratorIPKSt4pairIxxESt6vectorIS2_SaIS2_EEEdeEv(%"class.__gnu_cxx::__normal_iterator.15"* %0) #4 comdat align 2 {
  %2 = getelementptr inbounds %"class.__gnu_cxx::__normal_iterator.15", %"class.__gnu_cxx::__normal_iterator.15"* %0, i32 0, i32 0
  %3 = load %"struct.std::pair"*, %"struct.std::pair"** %2, align 8
  ret %"struct.std::pair"* %3
}

; Function Attrs: noinline uwtable
define linkonce_odr void @_ZSt8pop_heapIN9__gnu_cxx17__normal_iteratorIPSt4pairIxxESt6vectorIS3_SaIS3_EEEESt7greaterIS3_EEvT_SB_T0_(%"struct.std::pair"* %0, %"struct.std::pair"* %1) #0 comdat {
  %3 = alloca %"class.__gnu_cxx::__normal_iterator.13", align 8
  %4 = alloca %"class.__gnu_cxx::__normal_iterator.13", align 8
  %5 = alloca %"struct.std::greater", align 1
  %6 = alloca %"struct.__gnu_cxx::__ops::_Iter_comp_iter", align 1
  %7 = alloca %"class.__gnu_cxx::__normal_iterator.13", align 8
  %8 = alloca %"class.__gnu_cxx::__normal_iterator.13", align 8
  %9 = alloca %"class.__gnu_cxx::__normal_iterator.13", align 8
  %10 = getelementptr inbounds %"class.__gnu_cxx::__normal_iterator.13", %"class.__gnu_cxx::__normal_iterator.13"* %3, i32 0, i32 0
  store %"struct.std::pair"* %0, %"struct.std::pair"** %10, align 8
  %11 = getelementptr inbounds %"class.__gnu_cxx::__normal_iterator.13", %"class.__gnu_cxx::__normal_iterator.13"* %4, i32 0, i32 0
  store %"struct.std::pair"* %1, %"struct.std::pair"** %11, align 8
  %12 = call i64 @_ZN9__gnu_cxxmiIPSt4pairIxxESt6vectorIS2_SaIS2_EEEENS_17__normal_iteratorIT_T0_E15difference_typeERKSA_SD_(%"class.__gnu_cxx::__normal_iterator.13"* dereferenceable(8) %4, %"class.__gnu_cxx::__normal_iterator.13"* dereferenceable(8) %3) #3
  %13 = icmp sgt i64 %12, 1
  br i1 %13, label %14, label %29

14:                                               ; preds = %2
  %15 = call dereferenceable(1) %"struct.std::greater"* @_ZSt4moveIRSt7greaterISt4pairIxxEEEONSt16remove_referenceIT_E4typeEOS6_(%"struct.std::greater"* dereferenceable(1) %5) #3
  call void @_ZN9__gnu_cxx5__ops15_Iter_comp_iterISt7greaterISt4pairIxxEEEC2ES5_(%"struct.__gnu_cxx::__ops::_Iter_comp_iter"* %6)
  %16 = call dereferenceable(8) %"class.__gnu_cxx::__normal_iterator.13"* @_ZN9__gnu_cxx17__normal_iteratorIPSt4pairIxxESt6vectorIS2_SaIS2_EEEmmEv(%"class.__gnu_cxx::__normal_iterator.13"* %4) #3
  %17 = bitcast %"class.__gnu_cxx::__normal_iterator.13"* %7 to i8*
  %18 = bitcast %"class.__gnu_cxx::__normal_iterator.13"* %3 to i8*
  call void @llvm.memcpy.p0i8.p0i8.i64(i8* align 8 %17, i8* align 8 %18, i64 8, i1 false)
  %19 = bitcast %"class.__gnu_cxx::__normal_iterator.13"* %8 to i8*
  %20 = bitcast %"class.__gnu_cxx::__normal_iterator.13"* %4 to i8*
  call void @llvm.memcpy.p0i8.p0i8.i64(i8* align 8 %19, i8* align 8 %20, i64 8, i1 false)
  %21 = bitcast %"class.__gnu_cxx::__normal_iterator.13"* %9 to i8*
  %22 = bitcast %"class.__gnu_cxx::__normal_iterator.13"* %4 to i8*
  call void @llvm.memcpy.p0i8.p0i8.i64(i8* align 8 %21, i8* align 8 %22, i64 8, i1 false)
  %23 = getelementptr inbounds %"class.__gnu_cxx::__normal_iterator.13", %"class.__gnu_cxx::__normal_iterator.13"* %7, i32 0, i32 0
  %24 = load %"struct.std::pair"*, %"struct.std::pair"** %23, align 8
  %25 = getelementptr inbounds %"class.__gnu_cxx::__normal_iterator.13", %"class.__gnu_cxx::__normal_iterator.13"* %8, i32 0, i32 0
  %26 = load %"struct.std::pair"*, %"struct.std::pair"** %25, align 8
  %27 = getelementptr inbounds %"class.__gnu_cxx::__normal_iterator.13", %"class.__gnu_cxx::__normal_iterator.13"* %9, i32 0, i32 0
  %28 = load %"struct.std::pair"*, %"struct.std::pair"** %27, align 8
  call void @_ZSt10__pop_heapIN9__gnu_cxx17__normal_iteratorIPSt4pairIxxESt6vectorIS3_SaIS3_EEEENS0_5__ops15_Iter_comp_iterISt7greaterIS3_EEEEvT_SE_SE_RT0_(%"struct.std::pair"* %24, %"struct.std::pair"* %26, %"struct.std::pair"* %28, %"struct.__gnu_cxx::__ops::_Iter_comp_iter"* dereferenceable(1) %6)
  br label %29

29:                                               ; preds = %14, %2
  ret void
}

; Function Attrs: noinline nounwind uwtable
define linkonce_odr void @_ZNSt6vectorISt4pairIxxESaIS1_EE8pop_backEv(%"class.std::vector.8"* %0) #4 comdat align 2 personality i8* bitcast (i32 (...)* @__gxx_personality_v0 to i8*) {
  %2 = bitcast %"class.std::vector.8"* %0 to %"struct.std::_Vector_base.9"*
  %3 = getelementptr inbounds %"struct.std::_Vector_base.9", %"struct.std::_Vector_base.9"* %2, i32 0, i32 0
  %4 = getelementptr inbounds %"struct.std::_Vector_base<std::pair<long long, long long>, std::allocator<std::pair<long long, long long> > >::_Vector_impl", %"struct.std::_Vector_base<std::pair<long long, long long>, std::allocator<std::pair<long long, long long> > >::_Vector_impl"* %3, i32 0, i32 1
  %5 = load %"struct.std::pair"*, %"struct.std::pair"** %4, align 8
  %6 = getelementptr inbounds %"struct.std::pair", %"struct.std::pair"* %5, i32 -1
  store %"struct.std::pair"* %6, %"struct.std::pair"** %4, align 8
  %7 = bitcast %"class.std::vector.8"* %0 to %"struct.std::_Vector_base.9"*
  %8 = getelementptr inbounds %"struct.std::_Vector_base.9", %"struct.std::_Vector_base.9"* %7, i32 0, i32 0
  %9 = bitcast %"struct.std::_Vector_base<std::pair<long long, long long>, std::allocator<std::pair<long long, long long> > >::_Vector_impl"* %8 to %"class.std::allocator.10"*
  %10 = bitcast %"class.std::vector.8"* %0 to %"struct.std::_Vector_base.9"*
  %11 = getelementptr inbounds %"struct.std::_Vector_base.9", %"struct.std::_Vector_base.9"* %10, i32 0, i32 0
  %12 = getelementptr inbounds %"struct.std::_Vector_base<std::pair<long long, long long>, std::allocator<std::pair<long long, long long> > >::_Vector_impl", %"struct.std::_Vector_base<std::pair<long long, long long>, std::allocator<std::pair<long long, long long> > >::_Vector_impl"* %11, i32 0, i32 1
  %13 = load %"struct.std::pair"*, %"struct.std::pair"** %12, align 8
  invoke void @_ZNSt16allocator_traitsISaISt4pairIxxEEE7destroyIS1_EEvRS2_PT_(%"class.std::allocator.10"* dereferenceable(1) %9, %"struct.std::pair"* %13)
          to label %14 unwind label %15

14:                                               ; preds = %1
  ret void

15:                                               ; preds = %1
  %16 = landingpad { i8*, i32 }
          catch i8* null
  %17 = extractvalue { i8*, i32 } %16, 0
  call void @__clang_call_terminate(i8* %17) #12
  unreachable
}

; Function Attrs: noinline nounwind uwtable
define linkonce_odr void @_ZN9__gnu_cxx5__ops15_Iter_comp_iterISt7greaterISt4pairIxxEEEC2ES5_(%"struct.__gnu_cxx::__ops::_Iter_comp_iter"* %0) unnamed_addr #4 comdat align 2 {
  %2 = alloca %"struct.std::greater", align 1
  %3 = getelementptr inbounds %"struct.__gnu_cxx::__ops::_Iter_comp_iter", %"struct.__gnu_cxx::__ops::_Iter_comp_iter"* %0, i32 0, i32 0
  %4 = call dereferenceable(1) %"struct.std::greater"* @_ZSt4moveIRSt7greaterISt4pairIxxEEEONSt16remove_referenceIT_E4typeEOS6_(%"struct.std::greater"* dereferenceable(1) %2) #3
  ret void
}

; Function Attrs: noinline nounwind uwtable
define linkonce_odr dereferenceable(8) %"class.__gnu_cxx::__normal_iterator.13"* @_ZN9__gnu_cxx17__normal_iteratorIPSt4pairIxxESt6vectorIS2_SaIS2_EEEmmEv(%"class.__gnu_cxx::__normal_iterator.13"* %0) #4 comdat align 2 {
  %2 = getelementptr inbounds %"class.__gnu_cxx::__normal_iterator.13", %"class.__gnu_cxx::__normal_iterator.13"* %0, i32 0, i32 0
  %3 = load %"struct.std::pair"*, %"struct.std::pair"** %2, align 8
  %4 = getelementptr inbounds %"struct.std::pair", %"struct.std::pair"* %3, i32 -1
  store %"struct.std::pair"* %4, %"struct.std::pair"** %2, align 8
  ret %"class.__gnu_cxx::__normal_iterator.13"* %0
}

; Function Attrs: noinline uwtable
define linkonce_odr void @_ZSt10__pop_heapIN9__gnu_cxx17__normal_iteratorIPSt4pairIxxESt6vectorIS3_SaIS3_EEEENS0_5__ops15_Iter_comp_iterISt7greaterIS3_EEEEvT_SE_SE_RT0_(%"struct.std::pair"* %0, %"struct.std::pair"* %1, %"struct.std::pair"* %2, %"struct.__gnu_cxx::__ops::_Iter_comp_iter"* dereferenceable(1) %3) #0 comdat {
  %5 = alloca %"class.__gnu_cxx::__normal_iterator.13", align 8
  %6 = alloca %"class.__gnu_cxx::__normal_iterator.13", align 8
  %7 = alloca %"class.__gnu_cxx::__normal_iterator.13", align 8
  %8 = alloca %"struct.std::pair", align 8
  %9 = alloca %"class.__gnu_cxx::__normal_iterator.13", align 8
  %10 = alloca %"struct.std::pair", align 8
  %11 = alloca %"struct.__gnu_cxx::__ops::_Iter_comp_iter", align 1
  %12 = getelementptr inbounds %"class.__gnu_cxx::__normal_iterator.13", %"class.__gnu_cxx::__normal_iterator.13"* %5, i32 0, i32 0
  store %"struct.std::pair"* %0, %"struct.std::pair"** %12, align 8
  %13 = getelementptr inbounds %"class.__gnu_cxx::__normal_iterator.13", %"class.__gnu_cxx::__normal_iterator.13"* %6, i32 0, i32 0
  store %"struct.std::pair"* %1, %"struct.std::pair"** %13, align 8
  %14 = getelementptr inbounds %"class.__gnu_cxx::__normal_iterator.13", %"class.__gnu_cxx::__normal_iterator.13"* %7, i32 0, i32 0
  store %"struct.std::pair"* %2, %"struct.std::pair"** %14, align 8
  %15 = call dereferenceable(16) %"struct.std::pair"* @_ZNK9__gnu_cxx17__normal_iteratorIPSt4pairIxxESt6vectorIS2_SaIS2_EEEdeEv(%"class.__gnu_cxx::__normal_iterator.13"* %7) #3
  %16 = call dereferenceable(16) %"struct.std::pair"* @_ZSt4moveIRSt4pairIxxEEONSt16remove_referenceIT_E4typeEOS4_(%"struct.std::pair"* dereferenceable(16) %15) #3
  %17 = bitcast %"struct.std::pair"* %8 to i8*
  %18 = bitcast %"struct.std::pair"* %16 to i8*
  call void @llvm.memcpy.p0i8.p0i8.i64(i8* align 8 %17, i8* align 8 %18, i64 16, i1 false)
  %19 = call dereferenceable(16) %"struct.std::pair"* @_ZNK9__gnu_cxx17__normal_iteratorIPSt4pairIxxESt6vectorIS2_SaIS2_EEEdeEv(%"class.__gnu_cxx::__normal_iterator.13"* %5) #3
  %20 = call dereferenceable(16) %"struct.std::pair"* @_ZSt4moveIRSt4pairIxxEEONSt16remove_referenceIT_E4typeEOS4_(%"struct.std::pair"* dereferenceable(16) %19) #3
  %21 = call dereferenceable(16) %"struct.std::pair"* @_ZNK9__gnu_cxx17__normal_iteratorIPSt4pairIxxESt6vectorIS2_SaIS2_EEEdeEv(%"class.__gnu_cxx::__normal_iterator.13"* %7) #3
  %22 = call dereferenceable(16) %"struct.std::pair"* @_ZNSt4pairIxxEaSEOS0_(%"struct.std::pair"* %21, %"struct.std::pair"* dereferenceable(16) %20) #3
  %23 = bitcast %"class.__gnu_cxx::__normal_iterator.13"* %9 to i8*
  %24 = bitcast %"class.__gnu_cxx::__normal_iterator.13"* %5 to i8*
  call void @llvm.memcpy.p0i8.p0i8.i64(i8* align 8 %23, i8* align 8 %24, i64 8, i1 false)
  %25 = call i64 @_ZN9__gnu_cxxmiIPSt4pairIxxESt6vectorIS2_SaIS2_EEEENS_17__normal_iteratorIT_T0_E15difference_typeERKSA_SD_(%"class.__gnu_cxx::__normal_iterator.13"* dereferenceable(8) %6, %"class.__gnu_cxx::__normal_iterator.13"* dereferenceable(8) %5) #3
  %26 = call dereferenceable(16) %"struct.std::pair"* @_ZSt4moveIRSt4pairIxxEEONSt16remove_referenceIT_E4typeEOS4_(%"struct.std::pair"* dereferenceable(16) %8) #3
  %27 = bitcast %"struct.std::pair"* %10 to i8*
  %28 = bitcast %"struct.std::pair"* %26 to i8*
  call void @llvm.memcpy.p0i8.p0i8.i64(i8* align 8 %27, i8* align 8 %28, i64 16, i1 false)
  %29 = bitcast %"struct.__gnu_cxx::__ops::_Iter_comp_iter"* %11 to i8*
  %30 = bitcast %"struct.__gnu_cxx::__ops::_Iter_comp_iter"* %3 to i8*
  call void @llvm.memcpy.p0i8.p0i8.i64(i8* align 1 %29, i8* align 1 %30, i64 1, i1 false)
  %31 = getelementptr inbounds %"class.__gnu_cxx::__normal_iterator.13", %"class.__gnu_cxx::__normal_iterator.13"* %9, i32 0, i32 0
  %32 = load %"struct.std::pair"*, %"struct.std::pair"** %31, align 8
  %33 = bitcast %"struct.std::pair"* %10 to { i64, i64 }*
  %34 = getelementptr inbounds { i64, i64 }, { i64, i64 }* %33, i32 0, i32 0
  %35 = load i64, i64* %34, align 8
  %36 = getelementptr inbounds { i64, i64 }, { i64, i64 }* %33, i32 0, i32 1
  %37 = load i64, i64* %36, align 8
  call void @_ZSt13__adjust_heapIN9__gnu_cxx17__normal_iteratorIPSt4pairIxxESt6vectorIS3_SaIS3_EEEElS3_NS0_5__ops15_Iter_comp_iterISt7greaterIS3_EEEEvT_T0_SF_T1_T2_(%"struct.std::pair"* %32, i64 0, i64 %25, i64 %35, i64 %37)
  ret void
}

; Function Attrs: noinline uwtable
define linkonce_odr void @_ZSt13__adjust_heapIN9__gnu_cxx17__normal_iteratorIPSt4pairIxxESt6vectorIS3_SaIS3_EEEElS3_NS0_5__ops15_Iter_comp_iterISt7greaterIS3_EEEEvT_T0_SF_T1_T2_(%"struct.std::pair"* %0, i64 %1, i64 %2, i64 %3, i64 %4) #0 comdat {
  %6 = alloca %"class.__gnu_cxx::__normal_iterator.13", align 8
  %7 = alloca %"struct.std::pair", align 8
  %8 = alloca %"struct.__gnu_cxx::__ops::_Iter_comp_iter", align 1
  %9 = alloca %"class.__gnu_cxx::__normal_iterator.13", align 8
  %10 = alloca %"class.__gnu_cxx::__normal_iterator.13", align 8
  %11 = alloca %"class.__gnu_cxx::__normal_iterator.13", align 8
  %12 = alloca %"class.__gnu_cxx::__normal_iterator.13", align 8
  %13 = alloca %"class.__gnu_cxx::__normal_iterator.13", align 8
  %14 = alloca %"class.__gnu_cxx::__normal_iterator.13", align 8
  %15 = alloca %"struct.__gnu_cxx::__ops::_Iter_comp_val", align 1
  %16 = alloca %"class.__gnu_cxx::__normal_iterator.13", align 8
  %17 = alloca %"struct.std::pair", align 8
  %18 = getelementptr inbounds %"class.__gnu_cxx::__normal_iterator.13", %"class.__gnu_cxx::__normal_iterator.13"* %6, i32 0, i32 0
  store %"struct.std::pair"* %0, %"struct.std::pair"** %18, align 8
  %19 = bitcast %"struct.std::pair"* %7 to { i64, i64 }*
  %20 = getelementptr inbounds { i64, i64 }, { i64, i64 }* %19, i32 0, i32 0
  store i64 %3, i64* %20, align 8
  %21 = getelementptr inbounds { i64, i64 }, { i64, i64 }* %19, i32 0, i32 1
  store i64 %4, i64* %21, align 8
  br label %22

22:                                               ; preds = %41, %5
  %.01 = phi i64 [ %1, %5 ], [ %.12, %41 ]
  %.0 = phi i64 [ %1, %5 ], [ %.12, %41 ]
  %23 = sub nsw i64 %2, 1
  %24 = sdiv i64 %23, 2
  %25 = icmp slt i64 %.01, %24
  br i1 %25, label %26, label %50

26:                                               ; preds = %22
  %27 = add nsw i64 %.01, 1
  %28 = mul nsw i64 2, %27
  %29 = call %"struct.std::pair"* @_ZNK9__gnu_cxx17__normal_iteratorIPSt4pairIxxESt6vectorIS2_SaIS2_EEEplEl(%"class.__gnu_cxx::__normal_iterator.13"* %6, i64 %28) #3
  %30 = getelementptr inbounds %"class.__gnu_cxx::__normal_iterator.13", %"class.__gnu_cxx::__normal_iterator.13"* %9, i32 0, i32 0
  store %"struct.std::pair"* %29, %"struct.std::pair"** %30, align 8
  %31 = sub nsw i64 %28, 1
  %32 = call %"struct.std::pair"* @_ZNK9__gnu_cxx17__normal_iteratorIPSt4pairIxxESt6vectorIS2_SaIS2_EEEplEl(%"class.__gnu_cxx::__normal_iterator.13"* %6, i64 %31) #3
  %33 = getelementptr inbounds %"class.__gnu_cxx::__normal_iterator.13", %"class.__gnu_cxx::__normal_iterator.13"* %10, i32 0, i32 0
  store %"struct.std::pair"* %32, %"struct.std::pair"** %33, align 8
  %34 = getelementptr inbounds %"class.__gnu_cxx::__normal_iterator.13", %"class.__gnu_cxx::__normal_iterator.13"* %9, i32 0, i32 0
  %35 = load %"struct.std::pair"*, %"struct.std::pair"** %34, align 8
  %36 = getelementptr inbounds %"class.__gnu_cxx::__normal_iterator.13", %"class.__gnu_cxx::__normal_iterator.13"* %10, i32 0, i32 0
  %37 = load %"struct.std::pair"*, %"struct.std::pair"** %36, align 8
  %38 = call zeroext i1 @_ZN9__gnu_cxx5__ops15_Iter_comp_iterISt7greaterISt4pairIxxEEEclINS_17__normal_iteratorIPS4_St6vectorIS4_SaIS4_EEEESD_EEbT_T0_(%"struct.__gnu_cxx::__ops::_Iter_comp_iter"* %8, %"struct.std::pair"* %35, %"struct.std::pair"* %37)
  br i1 %38, label %39, label %41

39:                                               ; preds = %26
  %40 = add nsw i64 %28, -1
  br label %41

41:                                               ; preds = %39, %26
  %.12 = phi i64 [ %40, %39 ], [ %28, %26 ]
  %42 = call %"struct.std::pair"* @_ZNK9__gnu_cxx17__normal_iteratorIPSt4pairIxxESt6vectorIS2_SaIS2_EEEplEl(%"class.__gnu_cxx::__normal_iterator.13"* %6, i64 %.12) #3
  %43 = getelementptr inbounds %"class.__gnu_cxx::__normal_iterator.13", %"class.__gnu_cxx::__normal_iterator.13"* %11, i32 0, i32 0
  store %"struct.std::pair"* %42, %"struct.std::pair"** %43, align 8
  %44 = call dereferenceable(16) %"struct.std::pair"* @_ZNK9__gnu_cxx17__normal_iteratorIPSt4pairIxxESt6vectorIS2_SaIS2_EEEdeEv(%"class.__gnu_cxx::__normal_iterator.13"* %11) #3
  %45 = call dereferenceable(16) %"struct.std::pair"* @_ZSt4moveIRSt4pairIxxEEONSt16remove_referenceIT_E4typeEOS4_(%"struct.std::pair"* dereferenceable(16) %44) #3
  %46 = call %"struct.std::pair"* @_ZNK9__gnu_cxx17__normal_iteratorIPSt4pairIxxESt6vectorIS2_SaIS2_EEEplEl(%"class.__gnu_cxx::__normal_iterator.13"* %6, i64 %.0) #3
  %47 = getelementptr inbounds %"class.__gnu_cxx::__normal_iterator.13", %"class.__gnu_cxx::__normal_iterator.13"* %12, i32 0, i32 0
  store %"struct.std::pair"* %46, %"struct.std::pair"** %47, align 8
  %48 = call dereferenceable(16) %"struct.std::pair"* @_ZNK9__gnu_cxx17__normal_iteratorIPSt4pairIxxESt6vectorIS2_SaIS2_EEEdeEv(%"class.__gnu_cxx::__normal_iterator.13"* %12) #3
  %49 = call dereferenceable(16) %"struct.std::pair"* @_ZNSt4pairIxxEaSEOS0_(%"struct.std::pair"* %48, %"struct.std::pair"* dereferenceable(16) %45) #3
  br label %22

50:                                               ; preds = %22
  %51 = and i64 %2, 1
  %52 = icmp eq i64 %51, 0
  br i1 %52, label %53, label %70

53:                                               ; preds = %50
  %54 = sub nsw i64 %2, 2
  %55 = sdiv i64 %54, 2
  %56 = icmp eq i64 %.01, %55
  br i1 %56, label %57, label %70

57:                                               ; preds = %53
  %58 = add nsw i64 %.01, 1
  %59 = mul nsw i64 2, %58
  %60 = sub nsw i64 %59, 1
  %61 = call %"struct.std::pair"* @_ZNK9__gnu_cxx17__normal_iteratorIPSt4pairIxxESt6vectorIS2_SaIS2_EEEplEl(%"class.__gnu_cxx::__normal_iterator.13"* %6, i64 %60) #3
  %62 = getelementptr inbounds %"class.__gnu_cxx::__normal_iterator.13", %"class.__gnu_cxx::__normal_iterator.13"* %13, i32 0, i32 0
  store %"struct.std::pair"* %61, %"struct.std::pair"** %62, align 8
  %63 = call dereferenceable(16) %"struct.std::pair"* @_ZNK9__gnu_cxx17__normal_iteratorIPSt4pairIxxESt6vectorIS2_SaIS2_EEEdeEv(%"class.__gnu_cxx::__normal_iterator.13"* %13) #3
  %64 = call dereferenceable(16) %"struct.std::pair"* @_ZSt4moveIRSt4pairIxxEEONSt16remove_referenceIT_E4typeEOS4_(%"struct.std::pair"* dereferenceable(16) %63) #3
  %65 = call %"struct.std::pair"* @_ZNK9__gnu_cxx17__normal_iteratorIPSt4pairIxxESt6vectorIS2_SaIS2_EEEplEl(%"class.__gnu_cxx::__normal_iterator.13"* %6, i64 %.0) #3
  %66 = getelementptr inbounds %"class.__gnu_cxx::__normal_iterator.13", %"class.__gnu_cxx::__normal_iterator.13"* %14, i32 0, i32 0
  store %"struct.std::pair"* %65, %"struct.std::pair"** %66, align 8
  %67 = call dereferenceable(16) %"struct.std::pair"* @_ZNK9__gnu_cxx17__normal_iteratorIPSt4pairIxxESt6vectorIS2_SaIS2_EEEdeEv(%"class.__gnu_cxx::__normal_iterator.13"* %14) #3
  %68 = call dereferenceable(16) %"struct.std::pair"* @_ZNSt4pairIxxEaSEOS0_(%"struct.std::pair"* %67, %"struct.std::pair"* dereferenceable(16) %64) #3
  %69 = sub nsw i64 %59, 1
  br label %70

70:                                               ; preds = %57, %53, %50
  %.1 = phi i64 [ %69, %57 ], [ %.0, %53 ], [ %.0, %50 ]
  %71 = call dereferenceable(1) %"struct.__gnu_cxx::__ops::_Iter_comp_iter"* @_ZSt4moveIRN9__gnu_cxx5__ops15_Iter_comp_iterISt7greaterISt4pairIxxEEEEEONSt16remove_referenceIT_E4typeEOSA_(%"struct.__gnu_cxx::__ops::_Iter_comp_iter"* dereferenceable(1) %8) #3
  call void @_ZN9__gnu_cxx5__ops14_Iter_comp_valISt7greaterISt4pairIxxEEEC2EONS0_15_Iter_comp_iterIS5_EE(%"struct.__gnu_cxx::__ops::_Iter_comp_val"* %15, %"struct.__gnu_cxx::__ops::_Iter_comp_iter"* dereferenceable(1) %71)
  %72 = bitcast %"class.__gnu_cxx::__normal_iterator.13"* %16 to i8*
  %73 = bitcast %"class.__gnu_cxx::__normal_iterator.13"* %6 to i8*
  call void @llvm.memcpy.p0i8.p0i8.i64(i8* align 8 %72, i8* align 8 %73, i64 8, i1 false)
  %74 = call dereferenceable(16) %"struct.std::pair"* @_ZSt4moveIRSt4pairIxxEEONSt16remove_referenceIT_E4typeEOS4_(%"struct.std::pair"* dereferenceable(16) %7) #3
  %75 = bitcast %"struct.std::pair"* %17 to i8*
  %76 = bitcast %"struct.std::pair"* %74 to i8*
  call void @llvm.memcpy.p0i8.p0i8.i64(i8* align 8 %75, i8* align 8 %76, i64 16, i1 false)
  %77 = getelementptr inbounds %"class.__gnu_cxx::__normal_iterator.13", %"class.__gnu_cxx::__normal_iterator.13"* %16, i32 0, i32 0
  %78 = load %"struct.std::pair"*, %"struct.std::pair"** %77, align 8
  %79 = bitcast %"struct.std::pair"* %17 to { i64, i64 }*
  %80 = getelementptr inbounds { i64, i64 }, { i64, i64 }* %79, i32 0, i32 0
  %81 = load i64, i64* %80, align 8
  %82 = getelementptr inbounds { i64, i64 }, { i64, i64 }* %79, i32 0, i32 1
  %83 = load i64, i64* %82, align 8
  call void @_ZSt11__push_heapIN9__gnu_cxx17__normal_iteratorIPSt4pairIxxESt6vectorIS3_SaIS3_EEEElS3_NS0_5__ops14_Iter_comp_valISt7greaterIS3_EEEEvT_T0_SF_T1_RT2_(%"struct.std::pair"* %78, i64 %.1, i64 %1, i64 %81, i64 %83, %"struct.__gnu_cxx::__ops::_Iter_comp_val"* dereferenceable(1) %15)
  ret void
}

; Function Attrs: noinline uwtable
define linkonce_odr zeroext i1 @_ZN9__gnu_cxx5__ops15_Iter_comp_iterISt7greaterISt4pairIxxEEEclINS_17__normal_iteratorIPS4_St6vectorIS4_SaIS4_EEEESD_EEbT_T0_(%"struct.__gnu_cxx::__ops::_Iter_comp_iter"* %0, %"struct.std::pair"* %1, %"struct.std::pair"* %2) #0 comdat align 2 {
  %4 = alloca %"class.__gnu_cxx::__normal_iterator.13", align 8
  %5 = alloca %"class.__gnu_cxx::__normal_iterator.13", align 8
  %6 = getelementptr inbounds %"class.__gnu_cxx::__normal_iterator.13", %"class.__gnu_cxx::__normal_iterator.13"* %4, i32 0, i32 0
  store %"struct.std::pair"* %1, %"struct.std::pair"** %6, align 8
  %7 = getelementptr inbounds %"class.__gnu_cxx::__normal_iterator.13", %"class.__gnu_cxx::__normal_iterator.13"* %5, i32 0, i32 0
  store %"struct.std::pair"* %2, %"struct.std::pair"** %7, align 8
  %8 = getelementptr inbounds %"struct.__gnu_cxx::__ops::_Iter_comp_iter", %"struct.__gnu_cxx::__ops::_Iter_comp_iter"* %0, i32 0, i32 0
  %9 = call dereferenceable(16) %"struct.std::pair"* @_ZNK9__gnu_cxx17__normal_iteratorIPSt4pairIxxESt6vectorIS2_SaIS2_EEEdeEv(%"class.__gnu_cxx::__normal_iterator.13"* %4) #3
  %10 = call dereferenceable(16) %"struct.std::pair"* @_ZNK9__gnu_cxx17__normal_iteratorIPSt4pairIxxESt6vectorIS2_SaIS2_EEEdeEv(%"class.__gnu_cxx::__normal_iterator.13"* %5) #3
  %11 = call zeroext i1 @_ZNKSt7greaterISt4pairIxxEEclERKS1_S4_(%"struct.std::greater"* %8, %"struct.std::pair"* dereferenceable(16) %9, %"struct.std::pair"* dereferenceable(16) %10)
  ret i1 %11
}

; Function Attrs: noinline nounwind uwtable
