; ModuleID = '/home/pedro/tcc/exDataset/codenet/data/selection/p03445/s455033678.ll'
source_filename = "/home/pedro/tcc/exDataset/codenet/data/selection/p03445/s455033678.cpp"
target datalayout = "e-m:e-i64:64-f80:128-n8:16:32:64-S128"
target triple = "x86_64-pc-linux-gnu"

%"class.std::ios_base::Init" = type { i8 }
%"struct.__gnu_cxx::__ops::_Iter_less_iter" = type { i8 }
%"struct.__gnu_cxx::__ops::_Iter_less_val" = type { i8 }
%"struct.__gnu_cxx::__ops::_Val_less_iter" = type { i8 }
%"struct.__gnu_cxx::__ops::_Iter_equal_to_iter" = type { i8 }

$_ZSt4sortIPiEvT_S1_ = comdat any

$_ZSt6uniqueIPiET_S1_S1_ = comdat any

$_ZSt11lower_boundIPiiET_S1_S1_RKT0_ = comdat any

$_ZSt6__sortIPiN9__gnu_cxx5__ops15_Iter_less_iterEEvT_S4_T0_ = comdat any

$_ZN9__gnu_cxx5__ops16__iter_less_iterEv = comdat any

$_ZSt16__introsort_loopIPilN9__gnu_cxx5__ops15_Iter_less_iterEEvT_S4_T0_T1_ = comdat any

$_ZSt4__lgl = comdat any

$_ZSt22__final_insertion_sortIPiN9__gnu_cxx5__ops15_Iter_less_iterEEvT_S4_T0_ = comdat any

$_ZSt14__partial_sortIPiN9__gnu_cxx5__ops15_Iter_less_iterEEvT_S4_S4_T0_ = comdat any

$_ZSt27__unguarded_partition_pivotIPiN9__gnu_cxx5__ops15_Iter_less_iterEET_S4_S4_T0_ = comdat any

$_ZSt13__heap_selectIPiN9__gnu_cxx5__ops15_Iter_less_iterEEvT_S4_S4_T0_ = comdat any

$_ZSt11__sort_heapIPiN9__gnu_cxx5__ops15_Iter_less_iterEEvT_S4_RT0_ = comdat any

$_ZSt11__make_heapIPiN9__gnu_cxx5__ops15_Iter_less_iterEEvT_S4_RT0_ = comdat any

$_ZNK9__gnu_cxx5__ops15_Iter_less_iterclIPiS3_EEbT_T0_ = comdat any

$_ZSt10__pop_heapIPiN9__gnu_cxx5__ops15_Iter_less_iterEEvT_S4_S4_RT0_ = comdat any

$_ZSt4moveIRiEONSt16remove_referenceIT_E4typeEOS2_ = comdat any

$_ZSt13__adjust_heapIPiliN9__gnu_cxx5__ops15_Iter_less_iterEEvT_T0_S5_T1_T2_ = comdat any

$_ZSt4moveIRN9__gnu_cxx5__ops15_Iter_less_iterEEONSt16remove_referenceIT_E4typeEOS5_ = comdat any

$_ZN9__gnu_cxx5__ops14_Iter_less_valC2ENS0_15_Iter_less_iterE = comdat any

$_ZSt11__push_heapIPiliN9__gnu_cxx5__ops14_Iter_less_valEEvT_T0_S5_T1_RT2_ = comdat any

$_ZNK9__gnu_cxx5__ops14_Iter_less_valclIPiiEEbT_RT0_ = comdat any

$_ZSt22__move_median_to_firstIPiN9__gnu_cxx5__ops15_Iter_less_iterEEvT_S4_S4_S4_T0_ = comdat any

$_ZSt21__unguarded_partitionIPiN9__gnu_cxx5__ops15_Iter_less_iterEET_S4_S4_S4_T0_ = comdat any

$_ZSt9iter_swapIPiS0_EvT_T0_ = comdat any

$_ZSt4swapIiENSt9enable_ifIXsr6__and_ISt6__not_ISt15__is_tuple_likeIT_EESt21is_move_constructibleIS3_ESt18is_move_assignableIS3_EEE5valueEvE4typeERS3_SC_ = comdat any

$_ZSt16__insertion_sortIPiN9__gnu_cxx5__ops15_Iter_less_iterEEvT_S4_T0_ = comdat any

$_ZSt26__unguarded_insertion_sortIPiN9__gnu_cxx5__ops15_Iter_less_iterEEvT_S4_T0_ = comdat any

$_ZSt13move_backwardIPiS0_ET0_T_S2_S1_ = comdat any

$_ZSt25__unguarded_linear_insertIPiN9__gnu_cxx5__ops14_Val_less_iterEEvT_T0_ = comdat any

$_ZN9__gnu_cxx5__ops15__val_comp_iterENS0_15_Iter_less_iterE = comdat any

$_ZSt23__copy_move_backward_a2ILb1EPiS0_ET1_T0_S2_S1_ = comdat any

$_ZSt12__miter_baseIPiET_S1_ = comdat any

$_ZSt22__copy_move_backward_aILb1EPiS0_ET1_T0_S2_S1_ = comdat any

$_ZSt12__niter_baseIPiET_S1_ = comdat any

$_ZNSt20__copy_move_backwardILb1ELb1ESt26random_access_iterator_tagE13__copy_move_bIiEEPT_PKS3_S6_S4_ = comdat any

$_ZNK9__gnu_cxx5__ops14_Val_less_iterclIiPiEEbRT_T0_ = comdat any

$_ZSt8__uniqueIPiN9__gnu_cxx5__ops19_Iter_equal_to_iterEET_S4_S4_T0_ = comdat any

$_ZN9__gnu_cxx5__ops20__iter_equal_to_iterEv = comdat any

$_ZSt15__adjacent_findIPiN9__gnu_cxx5__ops19_Iter_equal_to_iterEET_S4_S4_T0_ = comdat any

$_ZNK9__gnu_cxx5__ops19_Iter_equal_to_iterclIPiS3_EEbT_T0_ = comdat any

$_ZSt13__lower_boundIPiiN9__gnu_cxx5__ops14_Iter_less_valEET_S4_S4_RKT0_T1_ = comdat any

$_ZN9__gnu_cxx5__ops15__iter_less_valEv = comdat any

$_ZSt8distanceIPiENSt15iterator_traitsIT_E15difference_typeES2_S2_ = comdat any

$_ZSt7advanceIPilEvRT_T0_ = comdat any

$_ZNK9__gnu_cxx5__ops14_Iter_less_valclIPiKiEEbT_RT0_ = comdat any

$_ZSt10__distanceIPiENSt15iterator_traitsIT_E15difference_typeES2_S2_St26random_access_iterator_tag = comdat any

$_ZSt19__iterator_categoryIPiENSt15iterator_traitsIT_E17iterator_categoryERKS2_ = comdat any

$_ZSt9__advanceIPilEvRT_T0_St26random_access_iterator_tag = comdat any

@_ZStL8__ioinit = internal global %"class.std::ios_base::Init" zeroinitializer, align 1
@__dso_handle = external hidden global i8
@h = global i32 0, align 4
@w = global i32 0, align 4
@n = global i32 0, align 4
@px = global [30 x i32] zeroinitializer, align 16
@py = global [30 x i32] zeroinitializer, align 16
@xx = global [62 x i32] zeroinitializer, align 16
@yy = global [62 x i32] zeroinitializer, align 16
@nxx = global i32 0, align 4
@nyy = global i32 0, align 4
@blocked = global [61 x [61 x i8]] zeroinitializer, align 16
@cnt = global [61 x [61 x i32]] zeroinitializer, align 16
@dst = global [61 x [61 x i32]] zeroinitializer, align 16
@qx = global [3721 x i32] zeroinitializer, align 16
@qy = global [3721 x i32] zeroinitializer, align 16
@qhead = global i32 0, align 4
@qtail = global i32 0, align 4
@.str = private unnamed_addr constant [7 x i8] c"%d%d%d\00", align 1
@.str.1 = private unnamed_addr constant [5 x i8] c"%d%d\00", align 1
@.str.2 = private unnamed_addr constant [3 x i8] c"%c\00", align 1
@.str.3 = private unnamed_addr constant [1 x i8] zeroinitializer, align 1
@_ZL2DX = internal constant [4 x i32] [i32 -1, i32 0, i32 1, i32 0], align 16
@_ZL2DY = internal constant [4 x i32] [i32 0, i32 1, i32 0, i32 -1], align 16
@.str.4 = private unnamed_addr constant [4 x i8] c"%d\0A\00", align 1
@llvm.global_ctors = appending global [1 x { i32, void ()*, i8* }] [{ i32, void ()*, i8* } { i32 65535, void ()* @_GLOBAL__sub_I_s455033678.cpp, i8* null }]

; Function Attrs: noinline uwtable
define internal void @__cxx_global_var_init() #0 section ".text.startup" {
  call void @_ZNSt8ios_base4InitC1Ev(%"class.std::ios_base::Init"* @_ZStL8__ioinit)
  %1 = call i32 @__cxa_atexit(void (i8*)* bitcast (void (%"class.std::ios_base::Init"*)* @_ZNSt8ios_base4InitD1Ev to void (i8*)*), i8* getelementptr inbounds (%"class.std::ios_base::Init", %"class.std::ios_base::Init"* @_ZStL8__ioinit, i32 0, i32 0), i8* @__dso_handle) #3
  ret void
}

declare void @_ZNSt8ios_base4InitC1Ev(%"class.std::ios_base::Init"*) unnamed_addr #1

; Function Attrs: nounwind
declare void @_ZNSt8ios_base4InitD1Ev(%"class.std::ios_base::Init"*) unnamed_addr #2

; Function Attrs: nounwind
declare i32 @__cxa_atexit(void (i8*)*, i8*, i8*) #3

; Function Attrs: noinline uwtable
define i64 @_Z3gcdxx(i64 %0, i64 %1) #0 {
  %3 = icmp eq i64 %1, 0
  br i1 %3, label %4, label %5

4:                                                ; preds = %2
  br label %8

5:                                                ; preds = %2
  %6 = srem i64 %0, %1
  %7 = call i64 @_Z3gcdxx(i64 %1, i64 %6)
  br label %8

8:                                                ; preds = %5, %4
  %9 = phi i64 [ %0, %4 ], [ %7, %5 ]
  ret i64 %9
}

; Function Attrs: noinline nounwind uwtable
define void @_Z3updiii(i32 %0, i32 %1, i32 %2) #4 {
  %4 = sext i32 %0 to i64
  %5 = getelementptr inbounds [61 x [61 x i32]], [61 x [61 x i32]]* @dst, i64 0, i64 %4
  %6 = sext i32 %1 to i64
  %7 = getelementptr inbounds [61 x i32], [61 x i32]* %5, i64 0, i64 %6
  %8 = load i32, i32* %7, align 4
  %9 = icmp ne i32 %8, 2147483647
  br i1 %9, label %10, label %11

10:                                               ; preds = %3
  br label %24

11:                                               ; preds = %3
  %12 = sext i32 %0 to i64
  %13 = getelementptr inbounds [61 x [61 x i32]], [61 x [61 x i32]]* @dst, i64 0, i64 %12
  %14 = sext i32 %1 to i64
  %15 = getelementptr inbounds [61 x i32], [61 x i32]* %13, i64 0, i64 %14
  store i32 %2, i32* %15, align 4
  %16 = load i32, i32* @qhead, align 4
  %17 = sext i32 %16 to i64
  %18 = getelementptr inbounds [3721 x i32], [3721 x i32]* @qx, i64 0, i64 %17
  store i32 %0, i32* %18, align 4
  %19 = load i32, i32* @qhead, align 4
  %20 = sext i32 %19 to i64
  %21 = getelementptr inbounds [3721 x i32], [3721 x i32]* @qy, i64 0, i64 %20
  store i32 %1, i32* %21, align 4
  %22 = load i32, i32* @qhead, align 4
  %23 = add nsw i32 %22, 1
  store i32 %23, i32* @qhead, align 4
  br label %24

24:                                               ; preds = %11, %10
  ret void
}

; Function Attrs: noinline uwtable
define void @_Z3runv() #0 {
  %1 = call i32 (i8*, ...) @scanf(i8* getelementptr inbounds ([7 x i8], [7 x i8]* @.str, i32 0, i32 0), i32* @h, i32* @w, i32* @n)
  br label %2

2:                                                ; preds = %11, %0
  %.0 = phi i32 [ 0, %0 ], [ %12, %11 ]
  %3 = load i32, i32* @n, align 4
  %4 = icmp slt i32 %.0, %3
  br i1 %4, label %5, label %13

5:                                                ; preds = %2
  %6 = sext i32 %.0 to i64
  %7 = getelementptr inbounds [30 x i32], [30 x i32]* @px, i64 0, i64 %6
  %8 = sext i32 %.0 to i64
  %9 = getelementptr inbounds [30 x i32], [30 x i32]* @py, i64 0, i64 %8
  %10 = call i32 (i8*, ...) @scanf(i8* getelementptr inbounds ([5 x i8], [5 x i8]* @.str.1, i32 0, i32 0), i32* %7, i32* %9)
  br label %11

11:                                               ; preds = %5
  %12 = add nsw i32 %.0, 1
  br label %2

13:                                               ; preds = %2
  store i32 0, i32* @nxx, align 4
  %14 = load i32, i32* @nxx, align 4
  %15 = add nsw i32 %14, 1
  store i32 %15, i32* @nxx, align 4
  %16 = sext i32 %14 to i64
  %17 = getelementptr inbounds [62 x i32], [62 x i32]* @xx, i64 0, i64 %16
  store i32 0, i32* %17, align 4
  %18 = load i32, i32* @h, align 4
  %19 = load i32, i32* @nxx, align 4
  %20 = add nsw i32 %19, 1
  store i32 %20, i32* @nxx, align 4
  %21 = sext i32 %19 to i64
  %22 = getelementptr inbounds [62 x i32], [62 x i32]* @xx, i64 0, i64 %21
  store i32 %18, i32* %22, align 4
  br label %23

23:                                               ; preds = %42, %13
  %.01 = phi i32 [ 0, %13 ], [ %43, %42 ]
  %24 = load i32, i32* @n, align 4
  %25 = icmp slt i32 %.01, %24
  br i1 %25, label %26, label %44

26:                                               ; preds = %23
  %27 = sext i32 %.01 to i64
  %28 = getelementptr inbounds [30 x i32], [30 x i32]* @px, i64 0, i64 %27
  %29 = load i32, i32* %28, align 4
  %30 = load i32, i32* @nxx, align 4
  %31 = add nsw i32 %30, 1
  store i32 %31, i32* @nxx, align 4
  %32 = sext i32 %30 to i64
  %33 = getelementptr inbounds [62 x i32], [62 x i32]* @xx, i64 0, i64 %32
  store i32 %29, i32* %33, align 4
  %34 = sext i32 %.01 to i64
  %35 = getelementptr inbounds [30 x i32], [30 x i32]* @px, i64 0, i64 %34
  %36 = load i32, i32* %35, align 4
  %37 = add nsw i32 %36, 1
  %38 = load i32, i32* @nxx, align 4
  %39 = add nsw i32 %38, 1
  store i32 %39, i32* @nxx, align 4
  %40 = sext i32 %38 to i64
  %41 = getelementptr inbounds [62 x i32], [62 x i32]* @xx, i64 0, i64 %40
  store i32 %37, i32* %41, align 4
  br label %42

42:                                               ; preds = %26
  %43 = add nsw i32 %.01, 1
  br label %23

44:                                               ; preds = %23
  %45 = load i32, i32* @nxx, align 4
  %46 = sext i32 %45 to i64
  %47 = getelementptr inbounds i32, i32* getelementptr inbounds ([62 x i32], [62 x i32]* @xx, i32 0, i32 0), i64 %46
  call void @_ZSt4sortIPiEvT_S1_(i32* getelementptr inbounds ([62 x i32], [62 x i32]* @xx, i32 0, i32 0), i32* %47)
  %48 = load i32, i32* @nxx, align 4
  %49 = sext i32 %48 to i64
  %50 = getelementptr inbounds i32, i32* getelementptr inbounds ([62 x i32], [62 x i32]* @xx, i32 0, i32 0), i64 %49
  %51 = call i32* @_ZSt6uniqueIPiET_S1_S1_(i32* getelementptr inbounds ([62 x i32], [62 x i32]* @xx, i32 0, i32 0), i32* %50)
  %52 = ptrtoint i32* %51 to i64
  %53 = sub i64 %52, ptrtoint ([62 x i32]* @xx to i64)
  %54 = sdiv exact i64 %53, 4
  %55 = trunc i64 %54 to i32
  store i32 %55, i32* @nxx, align 4
  br label %56

56:                                               ; preds = %72, %44
  %.02 = phi i32 [ 0, %44 ], [ %73, %72 ]
  %57 = load i32, i32* @n, align 4
  %58 = icmp slt i32 %.02, %57
  br i1 %58, label %59, label %74

59:                                               ; preds = %56
  %60 = load i32, i32* @nxx, align 4
  %61 = sext i32 %60 to i64
  %62 = getelementptr inbounds i32, i32* getelementptr inbounds ([62 x i32], [62 x i32]* @xx, i32 0, i32 0), i64 %61
  %63 = sext i32 %.02 to i64
  %64 = getelementptr inbounds [30 x i32], [30 x i32]* @px, i64 0, i64 %63
  %65 = call i32* @_ZSt11lower_boundIPiiET_S1_S1_RKT0_(i32* getelementptr inbounds ([62 x i32], [62 x i32]* @xx, i32 0, i32 0), i32* %62, i32* dereferenceable(4) %64)
  %66 = ptrtoint i32* %65 to i64
  %67 = sub i64 %66, ptrtoint ([62 x i32]* @xx to i64)
  %68 = sdiv exact i64 %67, 4
  %69 = trunc i64 %68 to i32
  %70 = sext i32 %.02 to i64
  %71 = getelementptr inbounds [30 x i32], [30 x i32]* @px, i64 0, i64 %70
  store i32 %69, i32* %71, align 4
  br label %72

72:                                               ; preds = %59
  %73 = add nsw i32 %.02, 1
  br label %56

74:                                               ; preds = %56
  store i32 0, i32* @nyy, align 4
  %75 = load i32, i32* @nyy, align 4
  %76 = add nsw i32 %75, 1
  store i32 %76, i32* @nyy, align 4
  %77 = sext i32 %75 to i64
  %78 = getelementptr inbounds [62 x i32], [62 x i32]* @yy, i64 0, i64 %77
  store i32 0, i32* %78, align 4
  %79 = load i32, i32* @w, align 4
  %80 = load i32, i32* @nyy, align 4
  %81 = add nsw i32 %80, 1
  store i32 %81, i32* @nyy, align 4
  %82 = sext i32 %80 to i64
  %83 = getelementptr inbounds [62 x i32], [62 x i32]* @yy, i64 0, i64 %82
  store i32 %79, i32* %83, align 4
  br label %84

84:                                               ; preds = %103, %74
  %.03 = phi i32 [ 0, %74 ], [ %104, %103 ]
  %85 = load i32, i32* @n, align 4
  %86 = icmp slt i32 %.03, %85
  br i1 %86, label %87, label %105

87:                                               ; preds = %84
  %88 = sext i32 %.03 to i64
  %89 = getelementptr inbounds [30 x i32], [30 x i32]* @py, i64 0, i64 %88
  %90 = load i32, i32* %89, align 4
  %91 = load i32, i32* @nyy, align 4
  %92 = add nsw i32 %91, 1
  store i32 %92, i32* @nyy, align 4
  %93 = sext i32 %91 to i64
  %94 = getelementptr inbounds [62 x i32], [62 x i32]* @yy, i64 0, i64 %93
  store i32 %90, i32* %94, align 4
  %95 = sext i32 %.03 to i64
  %96 = getelementptr inbounds [30 x i32], [30 x i32]* @py, i64 0, i64 %95
  %97 = load i32, i32* %96, align 4
  %98 = add nsw i32 %97, 1
  %99 = load i32, i32* @nyy, align 4
  %100 = add nsw i32 %99, 1
  store i32 %100, i32* @nyy, align 4
  %101 = sext i32 %99 to i64
  %102 = getelementptr inbounds [62 x i32], [62 x i32]* @yy, i64 0, i64 %101
  store i32 %98, i32* %102, align 4
  br label %103

103:                                              ; preds = %87
  %104 = add nsw i32 %.03, 1
  br label %84

105:                                              ; preds = %84
  %106 = load i32, i32* @nyy, align 4
  %107 = sext i32 %106 to i64
  %108 = getelementptr inbounds i32, i32* getelementptr inbounds ([62 x i32], [62 x i32]* @yy, i32 0, i32 0), i64 %107
  call void @_ZSt4sortIPiEvT_S1_(i32* getelementptr inbounds ([62 x i32], [62 x i32]* @yy, i32 0, i32 0), i32* %108)
  %109 = load i32, i32* @nyy, align 4
  %110 = sext i32 %109 to i64
  %111 = getelementptr inbounds i32, i32* getelementptr inbounds ([62 x i32], [62 x i32]* @yy, i32 0, i32 0), i64 %110
  %112 = call i32* @_ZSt6uniqueIPiET_S1_S1_(i32* getelementptr inbounds ([62 x i32], [62 x i32]* @yy, i32 0, i32 0), i32* %111)
  %113 = ptrtoint i32* %112 to i64
  %114 = sub i64 %113, ptrtoint ([62 x i32]* @yy to i64)
  %115 = sdiv exact i64 %114, 4
  %116 = trunc i64 %115 to i32
  store i32 %116, i32* @nyy, align 4
  br label %117

117:                                              ; preds = %133, %105
  %.04 = phi i32 [ 0, %105 ], [ %134, %133 ]
  %118 = load i32, i32* @n, align 4
  %119 = icmp slt i32 %.04, %118
  br i1 %119, label %120, label %135

120:                                              ; preds = %117
  %121 = load i32, i32* @nyy, align 4
  %122 = sext i32 %121 to i64
  %123 = getelementptr inbounds i32, i32* getelementptr inbounds ([62 x i32], [62 x i32]* @yy, i32 0, i32 0), i64 %122
  %124 = sext i32 %.04 to i64
  %125 = getelementptr inbounds [30 x i32], [30 x i32]* @py, i64 0, i64 %124
  %126 = call i32* @_ZSt11lower_boundIPiiET_S1_S1_RKT0_(i32* getelementptr inbounds ([62 x i32], [62 x i32]* @yy, i32 0, i32 0), i32* %123, i32* dereferenceable(4) %125)
  %127 = ptrtoint i32* %126 to i64
  %128 = sub i64 %127, ptrtoint ([62 x i32]* @yy to i64)
  %129 = sdiv exact i64 %128, 4
  %130 = trunc i64 %129 to i32
  %131 = sext i32 %.04 to i64
  %132 = getelementptr inbounds [30 x i32], [30 x i32]* @py, i64 0, i64 %131
  store i32 %130, i32* %132, align 4
  br label %133

133:                                              ; preds = %120
  %134 = add nsw i32 %.04, 1
  br label %117

135:                                              ; preds = %117
  br label %136

136:                                              ; preds = %178, %135
  %.05 = phi i32 [ 0, %135 ], [ %179, %178 ]
  %137 = load i32, i32* @nxx, align 4
  %138 = sub nsw i32 %137, 1
  %139 = icmp slt i32 %.05, %138
  br i1 %139, label %140, label %180

140:                                              ; preds = %136
  br label %141

141:                                              ; preds = %175, %140
  %.06 = phi i32 [ 0, %140 ], [ %176, %175 ]
  %142 = load i32, i32* @nyy, align 4
  %143 = sub nsw i32 %142, 1
  %144 = icmp slt i32 %.06, %143
  br i1 %144, label %145, label %177

145:                                              ; preds = %141
  %146 = sext i32 %.05 to i64
  %147 = getelementptr inbounds [61 x [61 x i8]], [61 x [61 x i8]]* @blocked, i64 0, i64 %146
  %148 = sext i32 %.06 to i64
  %149 = getelementptr inbounds [61 x i8], [61 x i8]* %147, i64 0, i64 %148
  store i8 0, i8* %149, align 1
  %150 = add nsw i32 %.05, 1
  %151 = sext i32 %150 to i64
  %152 = getelementptr inbounds [62 x i32], [62 x i32]* @xx, i64 0, i64 %151
  %153 = load i32, i32* %152, align 4
  %154 = sext i32 %.05 to i64
  %155 = getelementptr inbounds [62 x i32], [62 x i32]* @xx, i64 0, i64 %154
  %156 = load i32, i32* %155, align 4
  %157 = sub nsw i32 %153, %156
  %158 = sext i32 %157 to i64
  %159 = add nsw i32 %.06, 1
  %160 = sext i32 %159 to i64
  %161 = getelementptr inbounds [62 x i32], [62 x i32]* @yy, i64 0, i64 %160
  %162 = load i32, i32* %161, align 4
  %163 = sext i32 %.06 to i64
  %164 = getelementptr inbounds [62 x i32], [62 x i32]* @yy, i64 0, i64 %163
  %165 = load i32, i32* %164, align 4
  %166 = sub nsw i32 %162, %165
  %167 = sext i32 %166 to i64
  %168 = mul nsw i64 %158, %167
  %169 = srem i64 %168, 1000000007
  %170 = trunc i64 %169 to i32
  %171 = sext i32 %.05 to i64
  %172 = getelementptr inbounds [61 x [61 x i32]], [61 x [61 x i32]]* @cnt, i64 0, i64 %171
  %173 = sext i32 %.06 to i64
  %174 = getelementptr inbounds [61 x i32], [61 x i32]* %172, i64 0, i64 %173
  store i32 %170, i32* %174, align 4
  br label %175

175:                                              ; preds = %145
  %176 = add nsw i32 %.06, 1
  br label %141

177:                                              ; preds = %141
  br label %178

178:                                              ; preds = %177
  %179 = add nsw i32 %.05, 1
  br label %136

180:                                              ; preds = %136
  br label %181

181:                                              ; preds = %195, %180
  %.07 = phi i32 [ 0, %180 ], [ %196, %195 ]
  %182 = load i32, i32* @n, align 4
  %183 = icmp slt i32 %.07, %182
  br i1 %183, label %184, label %197

184:                                              ; preds = %181
  %185 = sext i32 %.07 to i64
  %186 = getelementptr inbounds [30 x i32], [30 x i32]* @px, i64 0, i64 %185
  %187 = load i32, i32* %186, align 4
  %188 = sext i32 %187 to i64
  %189 = getelementptr inbounds [61 x [61 x i8]], [61 x [61 x i8]]* @blocked, i64 0, i64 %188
  %190 = sext i32 %.07 to i64
  %191 = getelementptr inbounds [30 x i32], [30 x i32]* @py, i64 0, i64 %190
  %192 = load i32, i32* %191, align 4
  %193 = sext i32 %192 to i64
  %194 = getelementptr inbounds [61 x i8], [61 x i8]* %189, i64 0, i64 %193
  store i8 1, i8* %194, align 1
  br label %195

195:                                              ; preds = %184
  %196 = add nsw i32 %.07, 1
  br label %181

197:                                              ; preds = %181
  br label %198

198:                                              ; preds = %222, %197
  %.08 = phi i32 [ 0, %197 ], [ %223, %222 ]
  %199 = load i32, i32* @nxx, align 4
  %200 = sub nsw i32 %199, 1
  %201 = icmp slt i32 %.08, %200
  br i1 %201, label %202, label %224

202:                                              ; preds = %198
  br label %203

203:                                              ; preds = %218, %202
  %.09 = phi i32 [ 0, %202 ], [ %219, %218 ]
  %204 = load i32, i32* @nyy, align 4
  %205 = sub nsw i32 %204, 1
  %206 = icmp slt i32 %.09, %205
  br i1 %206, label %207, label %220

207:                                              ; preds = %203
  %208 = sext i32 %.08 to i64
  %209 = getelementptr inbounds [61 x [61 x i8]], [61 x [61 x i8]]* @blocked, i64 0, i64 %208
  %210 = sext i32 %.09 to i64
  %211 = getelementptr inbounds [61 x i8], [61 x i8]* %209, i64 0, i64 %210
  %212 = load i8, i8* %211, align 1
  %213 = trunc i8 %212 to i1
  %214 = zext i1 %213 to i64
  %215 = select i1 %213, i8 35, i8 46
  %216 = sext i8 %215 to i32
  %217 = call i32 (i8*, ...) @printf(i8* getelementptr inbounds ([3 x i8], [3 x i8]* @.str.2, i32 0, i32 0), i32 %216)
  br label %218

218:                                              ; preds = %207
  %219 = add nsw i32 %.09, 1
  br label %203

220:                                              ; preds = %203
  %221 = call i32 @puts(i8* getelementptr inbounds ([1 x i8], [1 x i8]* @.str.3, i32 0, i32 0))
  br label %222

222:                                              ; preds = %220
  %223 = add nsw i32 %.08, 1
  br label %198

224:                                              ; preds = %198
  br label %225

225:                                              ; preds = %369, %224
  %.011 = phi i32 [ 0, %224 ], [ %370, %369 ]
  %.010 = phi i32 [ 0, %224 ], [ %.1, %369 ]
  %226 = load i32, i32* @nxx, align 4
  %227 = sub nsw i32 %226, 1
  %228 = icmp slt i32 %.011, %227
  br i1 %228, label %229, label %371

229:                                              ; preds = %225
  br label %230

230:                                              ; preds = %366, %229
  %.012 = phi i32 [ 0, %229 ], [ %367, %366 ]
  %.1 = phi i32 [ %.010, %229 ], [ %.5, %366 ]
  %231 = load i32, i32* @nyy, align 4
  %232 = sub nsw i32 %231, 1
  %233 = icmp slt i32 %.012, %232
  br i1 %233, label %234, label %368

234:                                              ; preds = %230
  %235 = sext i32 %.011 to i64
  %236 = getelementptr inbounds [61 x [61 x i8]], [61 x [61 x i8]]* @blocked, i64 0, i64 %235
  %237 = sext i32 %.012 to i64
  %238 = getelementptr inbounds [61 x i8], [61 x i8]* %236, i64 0, i64 %237
  %239 = load i8, i8* %238, align 1
  %240 = trunc i8 %239 to i1
  br i1 %240, label %365, label %241

241:                                              ; preds = %234
  br label %242

242:                                              ; preds = %259, %241
  %.013 = phi i32 [ 0, %241 ], [ %260, %259 ]
  %243 = load i32, i32* @nxx, align 4
  %244 = sub nsw i32 %243, 1
  %245 = icmp slt i32 %.013, %244
  br i1 %245, label %246, label %261

246:                                              ; preds = %242
  br label %247

247:                                              ; preds = %256, %246
  %.014 = phi i32 [ 0, %246 ], [ %257, %256 ]
  %248 = load i32, i32* @nyy, align 4
  %249 = sub nsw i32 %248, 1
  %250 = icmp slt i32 %.014, %249
  br i1 %250, label %251, label %258

251:                                              ; preds = %247
  %252 = sext i32 %.013 to i64
  %253 = getelementptr inbounds [61 x [61 x i32]], [61 x [61 x i32]]* @dst, i64 0, i64 %252
  %254 = sext i32 %.014 to i64
  %255 = getelementptr inbounds [61 x i32], [61 x i32]* %253, i64 0, i64 %254
  store i32 2147483647, i32* %255, align 4
  br label %256

256:                                              ; preds = %251
  %257 = add nsw i32 %.014, 1
  br label %247

258:                                              ; preds = %247
  br label %259

259:                                              ; preds = %258
  %260 = add nsw i32 %.013, 1
  br label %242

261:                                              ; preds = %242
  store i32 0, i32* @qtail, align 4
  store i32 0, i32* @qhead, align 4
  call void @_Z3updiii(i32 %.011, i32 %.012, i32 0)
  br label %262

262:                                              ; preds = %314, %261
  %263 = load i32, i32* @qtail, align 4
  %264 = load i32, i32* @qhead, align 4
  %265 = icmp slt i32 %263, %264
  br i1 %265, label %266, label %315

266:                                              ; preds = %262
  %267 = load i32, i32* @qtail, align 4
  %268 = sext i32 %267 to i64
  %269 = getelementptr inbounds [3721 x i32], [3721 x i32]* @qx, i64 0, i64 %268
  %270 = load i32, i32* %269, align 4
  %271 = load i32, i32* @qtail, align 4
  %272 = sext i32 %271 to i64
  %273 = getelementptr inbounds [3721 x i32], [3721 x i32]* @qy, i64 0, i64 %272
  %274 = load i32, i32* %273, align 4
  %275 = load i32, i32* @qtail, align 4
  %276 = add nsw i32 %275, 1
  store i32 %276, i32* @qtail, align 4
  br label %277

277:                                              ; preds = %312, %266
  %.017 = phi i32 [ 0, %266 ], [ %313, %312 ]
  %278 = icmp slt i32 %.017, 4
  br i1 %278, label %279, label %314

279:                                              ; preds = %277
  %280 = sext i32 %.017 to i64
  %281 = getelementptr inbounds [4 x i32], [4 x i32]* @_ZL2DX, i64 0, i64 %280
  %282 = load i32, i32* %281, align 4
  %283 = add nsw i32 %270, %282
  %284 = sext i32 %.017 to i64
  %285 = getelementptr inbounds [4 x i32], [4 x i32]* @_ZL2DY, i64 0, i64 %284
  %286 = load i32, i32* %285, align 4
  %287 = add nsw i32 %274, %286
  %288 = icmp slt i32 %283, 0
  br i1 %288, label %304, label %289

289:                                              ; preds = %279
  %290 = load i32, i32* @h, align 4
  %291 = icmp sge i32 %283, %290
  br i1 %291, label %304, label %292

292:                                              ; preds = %289
  %293 = icmp slt i32 %287, 0
  br i1 %293, label %304, label %294

294:                                              ; preds = %292
  %295 = load i32, i32* @w, align 4
  %296 = icmp sge i32 %287, %295
  br i1 %296, label %304, label %297

297:                                              ; preds = %294
  %298 = sext i32 %283 to i64
  %299 = getelementptr inbounds [61 x [61 x i8]], [61 x [61 x i8]]* @blocked, i64 0, i64 %298
  %300 = sext i32 %287 to i64
  %301 = getelementptr inbounds [61 x i8], [61 x i8]* %299, i64 0, i64 %300
  %302 = load i8, i8* %301, align 1
  %303 = trunc i8 %302 to i1
  br i1 %303, label %304, label %305

304:                                              ; preds = %297, %294, %292, %289, %279
  br label %312

305:                                              ; preds = %297
  %306 = sext i32 %270 to i64
  %307 = getelementptr inbounds [61 x [61 x i32]], [61 x [61 x i32]]* @dst, i64 0, i64 %306
  %308 = sext i32 %274 to i64
  %309 = getelementptr inbounds [61 x i32], [61 x i32]* %307, i64 0, i64 %308
  %310 = load i32, i32* %309, align 4
  %311 = add nsw i32 %310, 1
  call void @_Z3updiii(i32 %283, i32 %287, i32 %311)
  br label %312

312:                                              ; preds = %305, %304
  %313 = add nsw i32 %.017, 1
  br label %277

314:                                              ; preds = %277
  br label %262

315:                                              ; preds = %262
  br label %316

316:                                              ; preds = %362, %315
  %.027 = phi i32 [ 0, %315 ], [ %363, %362 ]
  %.2 = phi i32 [ %.1, %315 ], [ %.3, %362 ]
  %317 = load i32, i32* @nxx, align 4
  %318 = sub nsw i32 %317, 1
  %319 = icmp slt i32 %.027, %318
  br i1 %319, label %320, label %364

320:                                              ; preds = %316
  br label %321

321:                                              ; preds = %359, %320
  %.028 = phi i32 [ 0, %320 ], [ %360, %359 ]
  %.3 = phi i32 [ %.2, %320 ], [ %.4, %359 ]
  %322 = load i32, i32* @nyy, align 4
  %323 = sub nsw i32 %322, 1
  %324 = icmp slt i32 %.028, %323
  br i1 %324, label %325, label %361

325:                                              ; preds = %321
  %326 = sext i32 %.027 to i64
  %327 = getelementptr inbounds [61 x [61 x i8]], [61 x [61 x i8]]* @blocked, i64 0, i64 %326
  %328 = sext i32 %.028 to i64
  %329 = getelementptr inbounds [61 x i8], [61 x i8]* %327, i64 0, i64 %328
  %330 = load i8, i8* %329, align 1
  %331 = trunc i8 %330 to i1
  br i1 %331, label %358, label %332

332:                                              ; preds = %325
  %333 = sext i32 %.3 to i64
  %334 = sext i32 %.011 to i64
  %335 = getelementptr inbounds [61 x [61 x i32]], [61 x [61 x i32]]* @cnt, i64 0, i64 %334
  %336 = sext i32 %.012 to i64
  %337 = getelementptr inbounds [61 x i32], [61 x i32]* %335, i64 0, i64 %336
  %338 = load i32, i32* %337, align 4
  %339 = sext i32 %338 to i64
  %340 = sext i32 %.027 to i64
  %341 = getelementptr inbounds [61 x [61 x i32]], [61 x [61 x i32]]* @cnt, i64 0, i64 %340
  %342 = sext i32 %.028 to i64
  %343 = getelementptr inbounds [61 x i32], [61 x i32]* %341, i64 0, i64 %342
  %344 = load i32, i32* %343, align 4
  %345 = sext i32 %344 to i64
  %346 = mul nsw i64 %339, %345
  %347 = srem i64 %346, 1000000007
  %348 = sext i32 %.027 to i64
  %349 = getelementptr inbounds [61 x [61 x i32]], [61 x [61 x i32]]* @dst, i64 0, i64 %348
  %350 = sext i32 %.028 to i64
  %351 = getelementptr inbounds [61 x i32], [61 x i32]* %349, i64 0, i64 %350
  %352 = load i32, i32* %351, align 4
  %353 = sext i32 %352 to i64
  %354 = mul nsw i64 %347, %353
  %355 = add nsw i64 %333, %354
  %356 = srem i64 %355, 1000000007
  %357 = trunc i64 %356 to i32
  br label %358

358:                                              ; preds = %332, %325
  %.4 = phi i32 [ %.3, %325 ], [ %357, %332 ]
  br label %359

359:                                              ; preds = %358
  %360 = add nsw i32 %.028, 1
  br label %321

361:                                              ; preds = %321
  br label %362

362:                                              ; preds = %361
  %363 = add nsw i32 %.027, 1
  br label %316

364:                                              ; preds = %316
  br label %365

365:                                              ; preds = %364, %234
  %.5 = phi i32 [ %.1, %234 ], [ %.2, %364 ]
  br label %366

366:                                              ; preds = %365
  %367 = add nsw i32 %.012, 1
  br label %230

368:                                              ; preds = %230
  br label %369

369:                                              ; preds = %368
  %370 = add nsw i32 %.011, 1
  br label %225

371:                                              ; preds = %225
  %372 = sext i32 %.010 to i64
  %373 = mul nsw i64 %372, 500000004
  %374 = srem i64 %373, 1000000007
  %375 = trunc i64 %374 to i32
  br label %376

376:                                              ; preds = %491, %371
  %.029 = phi i32 [ 0, %371 ], [ %492, %491 ]
  %.6 = phi i32 [ %375, %371 ], [ %.7, %491 ]
  %377 = load i32, i32* @nxx, align 4
  %378 = sub nsw i32 %377, 1
  %379 = icmp slt i32 %.029, %378
  br i1 %379, label %380, label %493

380:                                              ; preds = %376
  %381 = add nsw i32 %.029, 1
  %382 = sext i32 %381 to i64
  %383 = getelementptr inbounds [62 x i32], [62 x i32]* @xx, i64 0, i64 %382
  %384 = load i32, i32* %383, align 4
  %385 = sext i32 %.029 to i64
  %386 = getelementptr inbounds [62 x i32], [62 x i32]* @xx, i64 0, i64 %385
  %387 = load i32, i32* %386, align 4
  %388 = sub nsw i32 %384, %387
  %389 = icmp eq i32 %388, 1
  br i1 %389, label %390, label %391

390:                                              ; preds = %380
  br label %491

391:                                              ; preds = %380
  %392 = sub nsw i32 %388, 1
  %393 = sext i32 %392 to i64
  %394 = sext i32 %388 to i64
  %395 = mul nsw i64 %393, %394
  %396 = add nsw i32 %388, 1
  %397 = sext i32 %396 to i64
  %398 = mul nsw i64 %395, %397
  %399 = sdiv i64 %398, 6
  %400 = srem i64 %399, 1000000007
  %401 = trunc i64 %400 to i32
  %402 = load i32, i32* @h, align 4
  %403 = sext i32 %402 to i64
  %404 = load i32, i32* @h, align 4
  %405 = sext i32 %404 to i64
  %406 = mul nsw i64 %403, %405
  %407 = srem i64 %406, 1000000007
  %408 = trunc i64 %407 to i32
  %409 = sext i32 %388 to i64
  %410 = sub nsw i32 %388, 1
  %411 = sext i32 %410 to i64
  %412 = mul nsw i64 %409, %411
  %413 = sdiv i64 %412, 2
  %414 = srem i64 %413, 1000000007
  %415 = trunc i64 %414 to i32
  br label %416

416:                                              ; preds = %458, %391
  %.038 = phi i32 [ 0, %391 ], [ %.139, %458 ]
  %.033 = phi i32 [ 0, %391 ], [ %.134, %458 ]
  %.032 = phi i32 [ 0, %391 ], [ %459, %458 ]
  %417 = load i32, i32* @nxx, align 4
  %418 = sub nsw i32 %417, 1
  %419 = icmp slt i32 %.032, %418
  br i1 %419, label %420, label %460

420:                                              ; preds = %416
  br label %421

421:                                              ; preds = %455, %420
  %.139 = phi i32 [ %.038, %420 ], [ %.341, %455 ]
  %.134 = phi i32 [ %.033, %420 ], [ %.437, %455 ]
  %.031 = phi i32 [ 0, %420 ], [ %456, %455 ]
  %422 = load i32, i32* @nyy, align 4
  %423 = sub nsw i32 %422, 1
  %424 = icmp slt i32 %.031, %423
  br i1 %424, label %425, label %457

425:                                              ; preds = %421
  %426 = sext i32 %.032 to i64
  %427 = getelementptr inbounds [61 x [61 x i8]], [61 x [61 x i8]]* @blocked, i64 0, i64 %426
  %428 = sext i32 %.031 to i64
  %429 = getelementptr inbounds [61 x i8], [61 x i8]* %427, i64 0, i64 %428
  %430 = load i8, i8* %429, align 1
  %431 = trunc i8 %430 to i1
  br i1 %431, label %454, label %432

432:                                              ; preds = %425
  %433 = icmp slt i32 %.032, %.029
  br i1 %433, label %434, label %442

434:                                              ; preds = %432
  %435 = sext i32 %.032 to i64
  %436 = getelementptr inbounds [61 x [61 x i32]], [61 x [61 x i32]]* @cnt, i64 0, i64 %435
  %437 = sext i32 %.031 to i64
  %438 = getelementptr inbounds [61 x i32], [61 x i32]* %436, i64 0, i64 %437
  %439 = load i32, i32* %438, align 4
  %440 = add nsw i32 %.139, %439
  %441 = srem i32 %440, 1000000007
  br label %453

442:                                              ; preds = %432
  %443 = icmp sgt i32 %.032, %.029
  br i1 %443, label %444, label %452

444:                                              ; preds = %442
  %445 = sext i32 %.032 to i64
  %446 = getelementptr inbounds [61 x [61 x i32]], [61 x [61 x i32]]* @cnt, i64 0, i64 %445
  %447 = sext i32 %.031 to i64
  %448 = getelementptr inbounds [61 x i32], [61 x i32]* %446, i64 0, i64 %447
  %449 = load i32, i32* %448, align 4
  %450 = add nsw i32 %.134, %449
  %451 = srem i32 %450, 1000000007
  br label %452

452:                                              ; preds = %444, %442
  %.235 = phi i32 [ %451, %444 ], [ %.134, %442 ]
  br label %453

453:                                              ; preds = %452, %434
  %.240 = phi i32 [ %441, %434 ], [ %.139, %452 ]
  %.336 = phi i32 [ %.134, %434 ], [ %.235, %452 ]
  br label %454

454:                                              ; preds = %453, %425
  %.341 = phi i32 [ %.139, %425 ], [ %.240, %453 ]
  %.437 = phi i32 [ %.134, %425 ], [ %.336, %453 ]
  br label %455

455:                                              ; preds = %454
  %456 = add nsw i32 %.031, 1
  br label %421

457:                                              ; preds = %421
  br label %458

458:                                              ; preds = %457
  %459 = add nsw i32 %.032, 1
  br label %416

460:                                              ; preds = %416
  %461 = sext i32 %.6 to i64
  %462 = sext i32 %401 to i64
  %463 = sext i32 %408 to i64
  %464 = mul nsw i64 %462, %463
  %465 = add nsw i64 %461, %464
  %466 = srem i64 %465, 1000000007
  %467 = trunc i64 %466 to i32
  %468 = sext i32 %467 to i64
  %469 = sext i32 %.038 to i64
  %470 = sext i32 %.033 to i64
  %471 = mul nsw i64 %469, %470
  %472 = srem i64 %471, 1000000007
  %473 = sub nsw i32 %388, 1
  %474 = sext i32 %473 to i64
  %475 = mul nsw i64 %472, %474
  %476 = add nsw i64 %468, %475
  %477 = srem i64 %476, 1000000007
  %478 = trunc i64 %477 to i32
  %479 = sext i32 %478 to i64
  %480 = add nsw i32 %.038, %.033
  %481 = sext i32 %480 to i64
  %482 = sext i32 %415 to i64
  %483 = mul nsw i64 %481, %482
  %484 = srem i64 %483, 1000000007
  %485 = load i32, i32* @h, align 4
  %486 = sext i32 %485 to i64
  %487 = mul nsw i64 %484, %486
  %488 = add nsw i64 %479, %487
  %489 = srem i64 %488, 1000000007
  %490 = trunc i64 %489 to i32
  br label %491

491:                                              ; preds = %460, %390
  %.7 = phi i32 [ %.6, %390 ], [ %490, %460 ]
  %492 = add nsw i32 %.029, 1
  br label %376

493:                                              ; preds = %376
  br label %494

494:                                              ; preds = %609, %493
  %.030 = phi i32 [ 0, %493 ], [ %610, %609 ]
  %.8 = phi i32 [ %.6, %493 ], [ %.9, %609 ]
  %495 = load i32, i32* @nyy, align 4
  %496 = sub nsw i32 %495, 1
  %497 = icmp slt i32 %.030, %496
  br i1 %497, label %498, label %611

498:                                              ; preds = %494
  %499 = add nsw i32 %.030, 1
  %500 = sext i32 %499 to i64
  %501 = getelementptr inbounds [62 x i32], [62 x i32]* @yy, i64 0, i64 %500
  %502 = load i32, i32* %501, align 4
  %503 = sext i32 %.030 to i64
  %504 = getelementptr inbounds [62 x i32], [62 x i32]* @yy, i64 0, i64 %503
  %505 = load i32, i32* %504, align 4
  %506 = sub nsw i32 %502, %505
  %507 = icmp eq i32 %506, 1
  br i1 %507, label %508, label %509

508:                                              ; preds = %498
  br label %609

509:                                              ; preds = %498
  %510 = sub nsw i32 %506, 1
  %511 = sext i32 %510 to i64
  %512 = sext i32 %506 to i64
  %513 = mul nsw i64 %511, %512
  %514 = add nsw i32 %506, 1
  %515 = sext i32 %514 to i64
  %516 = mul nsw i64 %513, %515
  %517 = sdiv i64 %516, 6
  %518 = srem i64 %517, 1000000007
  %519 = trunc i64 %518 to i32
  %520 = load i32, i32* @h, align 4
  %521 = sext i32 %520 to i64
  %522 = load i32, i32* @h, align 4
  %523 = sext i32 %522 to i64
  %524 = mul nsw i64 %521, %523
  %525 = srem i64 %524, 1000000007
  %526 = trunc i64 %525 to i32
  %527 = sext i32 %506 to i64
  %528 = sub nsw i32 %506, 1
  %529 = sext i32 %528 to i64
  %530 = mul nsw i64 %527, %529
  %531 = sdiv i64 %530, 2
  %532 = srem i64 %531, 1000000007
  %533 = trunc i64 %532 to i32
  br label %534

534:                                              ; preds = %576, %509
  %.023 = phi i32 [ 0, %509 ], [ %.124, %576 ]
  %.018 = phi i32 [ 0, %509 ], [ %.119, %576 ]
  %.016 = phi i32 [ 0, %509 ], [ %577, %576 ]
  %535 = load i32, i32* @nxx, align 4
  %536 = sub nsw i32 %535, 1
  %537 = icmp slt i32 %.016, %536
  br i1 %537, label %538, label %578

538:                                              ; preds = %534
  br label %539

539:                                              ; preds = %573, %538
  %.124 = phi i32 [ %.023, %538 ], [ %.326, %573 ]
  %.119 = phi i32 [ %.018, %538 ], [ %.422, %573 ]
  %.015 = phi i32 [ 0, %538 ], [ %574, %573 ]
  %540 = load i32, i32* @nyy, align 4
  %541 = sub nsw i32 %540, 1
  %542 = icmp slt i32 %.015, %541
  br i1 %542, label %543, label %575

543:                                              ; preds = %539
  %544 = sext i32 %.016 to i64
  %545 = getelementptr inbounds [61 x [61 x i8]], [61 x [61 x i8]]* @blocked, i64 0, i64 %544
  %546 = sext i32 %.015 to i64
  %547 = getelementptr inbounds [61 x i8], [61 x i8]* %545, i64 0, i64 %546
  %548 = load i8, i8* %547, align 1
  %549 = trunc i8 %548 to i1
  br i1 %549, label %572, label %550

550:                                              ; preds = %543
  %551 = icmp slt i32 %.015, %.030
  br i1 %551, label %552, label %560

552:                                              ; preds = %550
  %553 = sext i32 %.016 to i64
  %554 = getelementptr inbounds [61 x [61 x i32]], [61 x [61 x i32]]* @cnt, i64 0, i64 %553
  %555 = sext i32 %.015 to i64
  %556 = getelementptr inbounds [61 x i32], [61 x i32]* %554, i64 0, i64 %555
  %557 = load i32, i32* %556, align 4
  %558 = add nsw i32 %.124, %557
  %559 = srem i32 %558, 1000000007
  br label %571

560:                                              ; preds = %550
  %561 = icmp sgt i32 %.015, %.030
  br i1 %561, label %562, label %570

562:                                              ; preds = %560
  %563 = sext i32 %.016 to i64
  %564 = getelementptr inbounds [61 x [61 x i32]], [61 x [61 x i32]]* @cnt, i64 0, i64 %563
  %565 = sext i32 %.015 to i64
  %566 = getelementptr inbounds [61 x i32], [61 x i32]* %564, i64 0, i64 %565
  %567 = load i32, i32* %566, align 4
  %568 = add nsw i32 %.119, %567
  %569 = srem i32 %568, 1000000007
  br label %570

570:                                              ; preds = %562, %560
  %.220 = phi i32 [ %569, %562 ], [ %.119, %560 ]
  br label %571

571:                                              ; preds = %570, %552
  %.225 = phi i32 [ %559, %552 ], [ %.124, %570 ]
  %.321 = phi i32 [ %.119, %552 ], [ %.220, %570 ]
  br label %572

572:                                              ; preds = %571, %543
  %.326 = phi i32 [ %.124, %543 ], [ %.225, %571 ]
  %.422 = phi i32 [ %.119, %543 ], [ %.321, %571 ]
  br label %573

573:                                              ; preds = %572
  %574 = add nsw i32 %.015, 1
  br label %539

575:                                              ; preds = %539
  br label %576

576:                                              ; preds = %575
  %577 = add nsw i32 %.016, 1
  br label %534

578:                                              ; preds = %534
  %579 = sext i32 %.8 to i64
  %580 = sext i32 %519 to i64
  %581 = sext i32 %526 to i64
  %582 = mul nsw i64 %580, %581
  %583 = add nsw i64 %579, %582
  %584 = srem i64 %583, 1000000007
  %585 = trunc i64 %584 to i32
  %586 = sext i32 %585 to i64
  %587 = sext i32 %.023 to i64
  %588 = sext i32 %.018 to i64
  %589 = mul nsw i64 %587, %588
  %590 = srem i64 %589, 1000000007
  %591 = sub nsw i32 %506, 1
  %592 = sext i32 %591 to i64
  %593 = mul nsw i64 %590, %592
  %594 = add nsw i64 %586, %593
  %595 = srem i64 %594, 1000000007
  %596 = trunc i64 %595 to i32
  %597 = sext i32 %596 to i64
  %598 = add nsw i32 %.023, %.018
  %599 = sext i32 %598 to i64
  %600 = sext i32 %533 to i64
  %601 = mul nsw i64 %599, %600
  %602 = srem i64 %601, 1000000007
  %603 = load i32, i32* @h, align 4
  %604 = sext i32 %603 to i64
  %605 = mul nsw i64 %602, %604
  %606 = add nsw i64 %597, %605
  %607 = srem i64 %606, 1000000007
  %608 = trunc i64 %607 to i32
  br label %609

609:                                              ; preds = %578, %508
  %.9 = phi i32 [ %.8, %508 ], [ %608, %578 ]
  %610 = add nsw i32 %.030, 1
  br label %494

611:                                              ; preds = %494
  %612 = call i32 (i8*, ...) @printf(i8* getelementptr inbounds ([4 x i8], [4 x i8]* @.str.4, i32 0, i32 0), i32 %.8)
  ret void
}

declare i32 @scanf(i8*, ...) #1

; Function Attrs: noinline uwtable
define linkonce_odr void @_ZSt4sortIPiEvT_S1_(i32* %0, i32* %1) #0 comdat {
  call void @_ZN9__gnu_cxx5__ops16__iter_less_iterEv()
  call void @_ZSt6__sortIPiN9__gnu_cxx5__ops15_Iter_less_iterEEvT_S4_T0_(i32* %0, i32* %1)
  ret void
}

; Function Attrs: noinline uwtable
define linkonce_odr i32* @_ZSt6uniqueIPiET_S1_S1_(i32* %0, i32* %1) #0 comdat {
  call void @_ZN9__gnu_cxx5__ops20__iter_equal_to_iterEv()
  %3 = call i32* @_ZSt8__uniqueIPiN9__gnu_cxx5__ops19_Iter_equal_to_iterEET_S4_S4_T0_(i32* %0, i32* %1)
  ret i32* %3
}

; Function Attrs: noinline uwtable
define linkonce_odr i32* @_ZSt11lower_boundIPiiET_S1_S1_RKT0_(i32* %0, i32* %1, i32* dereferenceable(4) %2) #0 comdat {
  call void @_ZN9__gnu_cxx5__ops15__iter_less_valEv()
  %4 = call i32* @_ZSt13__lower_boundIPiiN9__gnu_cxx5__ops14_Iter_less_valEET_S4_S4_RKT0_T1_(i32* %0, i32* %1, i32* dereferenceable(4) %2)
  ret i32* %4
}

declare i32 @printf(i8*, ...) #1

declare i32 @puts(i8*) #1

; Function Attrs: noinline norecurse uwtable
define i32 @main() #5 {
  call void @_Z3runv()
  ret i32 0
}

; Function Attrs: noinline uwtable
define linkonce_odr void @_ZSt6__sortIPiN9__gnu_cxx5__ops15_Iter_less_iterEEvT_S4_T0_(i32* %0, i32* %1) #0 comdat {
  %3 = icmp ne i32* %0, %1
  br i1 %3, label %4, label %11

4:                                                ; preds = %2
  %5 = ptrtoint i32* %1 to i64
  %6 = ptrtoint i32* %0 to i64
  %7 = sub i64 %5, %6
  %8 = sdiv exact i64 %7, 4
  %9 = call i64 @_ZSt4__lgl(i64 %8)
  %10 = mul nsw i64 %9, 2
  call void @_ZSt16__introsort_loopIPilN9__gnu_cxx5__ops15_Iter_less_iterEEvT_S4_T0_T1_(i32* %0, i32* %1, i64 %10)
  call void @_ZSt22__final_insertion_sortIPiN9__gnu_cxx5__ops15_Iter_less_iterEEvT_S4_T0_(i32* %0, i32* %1)
  br label %11

11:                                               ; preds = %4, %2
  ret void
}

; Function Attrs: noinline nounwind uwtable
define linkonce_odr void @_ZN9__gnu_cxx5__ops16__iter_less_iterEv() #4 comdat {
  ret void
}

; Function Attrs: noinline uwtable
define linkonce_odr void @_ZSt16__introsort_loopIPilN9__gnu_cxx5__ops15_Iter_less_iterEEvT_S4_T0_T1_(i32* %0, i32* %1, i64 %2) #0 comdat {
  br label %4

4:                                                ; preds = %13, %3
  %.01 = phi i32* [ %1, %3 ], [ %15, %13 ]
  %.0 = phi i64 [ %2, %3 ], [ %14, %13 ]
  %5 = ptrtoint i32* %.01 to i64
  %6 = ptrtoint i32* %0 to i64
  %7 = sub i64 %5, %6
  %8 = sdiv exact i64 %7, 4
  %9 = icmp sgt i64 %8, 16
  br i1 %9, label %10, label %16

10:                                               ; preds = %4
  %11 = icmp eq i64 %.0, 0
  br i1 %11, label %12, label %13

12:                                               ; preds = %10
  call void @_ZSt14__partial_sortIPiN9__gnu_cxx5__ops15_Iter_less_iterEEvT_S4_S4_T0_(i32* %0, i32* %.01, i32* %.01)
  br label %16

13:                                               ; preds = %10
  %14 = add nsw i64 %.0, -1
  %15 = call i32* @_ZSt27__unguarded_partition_pivotIPiN9__gnu_cxx5__ops15_Iter_less_iterEET_S4_S4_T0_(i32* %0, i32* %.01)
  call void @_ZSt16__introsort_loopIPilN9__gnu_cxx5__ops15_Iter_less_iterEEvT_S4_T0_T1_(i32* %15, i32* %.01, i64 %14)
  br label %4

16:                                               ; preds = %12, %4
  ret void
}

; Function Attrs: noinline nounwind uwtable
define linkonce_odr i64 @_ZSt4__lgl(i64 %0) #4 comdat {
  %2 = call i64 @llvm.ctlz.i64(i64 %0, i1 true)
  %3 = trunc i64 %2 to i32
  %4 = sub nsw i32 63, %3
  %5 = sext i32 %4 to i64
  ret i64 %5
}

; Function Attrs: noinline uwtable
define linkonce_odr void @_ZSt22__final_insertion_sortIPiN9__gnu_cxx5__ops15_Iter_less_iterEEvT_S4_T0_(i32* %0, i32* %1) #0 comdat {
  %3 = ptrtoint i32* %1 to i64
  %4 = ptrtoint i32* %0 to i64
  %5 = sub i64 %3, %4
  %6 = sdiv exact i64 %5, 4
  %7 = icmp sgt i64 %6, 16
  br i1 %7, label %8, label %11

8:                                                ; preds = %2
  %9 = getelementptr inbounds i32, i32* %0, i64 16
  call void @_ZSt16__insertion_sortIPiN9__gnu_cxx5__ops15_Iter_less_iterEEvT_S4_T0_(i32* %0, i32* %9)
  %10 = getelementptr inbounds i32, i32* %0, i64 16
  call void @_ZSt26__unguarded_insertion_sortIPiN9__gnu_cxx5__ops15_Iter_less_iterEEvT_S4_T0_(i32* %10, i32* %1)
  br label %12

11:                                               ; preds = %2
  call void @_ZSt16__insertion_sortIPiN9__gnu_cxx5__ops15_Iter_less_iterEEvT_S4_T0_(i32* %0, i32* %1)
  br label %12

12:                                               ; preds = %11, %8
  ret void
}

; Function Attrs: noinline uwtable
define linkonce_odr void @_ZSt14__partial_sortIPiN9__gnu_cxx5__ops15_Iter_less_iterEEvT_S4_S4_T0_(i32* %0, i32* %1, i32* %2) #0 comdat {
  %4 = alloca %"struct.__gnu_cxx::__ops::_Iter_less_iter", align 1
  call void @_ZSt13__heap_selectIPiN9__gnu_cxx5__ops15_Iter_less_iterEEvT_S4_S4_T0_(i32* %0, i32* %1, i32* %2)
  call void @_ZSt11__sort_heapIPiN9__gnu_cxx5__ops15_Iter_less_iterEEvT_S4_RT0_(i32* %0, i32* %1, %"struct.__gnu_cxx::__ops::_Iter_less_iter"* dereferenceable(1) %4)
  ret void
}

; Function Attrs: noinline uwtable
define linkonce_odr i32* @_ZSt27__unguarded_partition_pivotIPiN9__gnu_cxx5__ops15_Iter_less_iterEET_S4_S4_T0_(i32* %0, i32* %1) #0 comdat {
  %3 = ptrtoint i32* %1 to i64
  %4 = ptrtoint i32* %0 to i64
  %5 = sub i64 %3, %4
  %6 = sdiv exact i64 %5, 4
  %7 = sdiv i64 %6, 2
  %8 = getelementptr inbounds i32, i32* %0, i64 %7
  %9 = getelementptr inbounds i32, i32* %0, i64 1
  %10 = getelementptr inbounds i32, i32* %1, i64 -1
  call void @_ZSt22__move_median_to_firstIPiN9__gnu_cxx5__ops15_Iter_less_iterEEvT_S4_S4_S4_T0_(i32* %0, i32* %9, i32* %8, i32* %10)
  %11 = getelementptr inbounds i32, i32* %0, i64 1
  %12 = call i32* @_ZSt21__unguarded_partitionIPiN9__gnu_cxx5__ops15_Iter_less_iterEET_S4_S4_S4_T0_(i32* %11, i32* %1, i32* %0)
  ret i32* %12
}

; Function Attrs: noinline uwtable
define linkonce_odr void @_ZSt13__heap_selectIPiN9__gnu_cxx5__ops15_Iter_less_iterEEvT_S4_S4_T0_(i32* %0, i32* %1, i32* %2) #0 comdat {
  %4 = alloca %"struct.__gnu_cxx::__ops::_Iter_less_iter", align 1
  call void @_ZSt11__make_heapIPiN9__gnu_cxx5__ops15_Iter_less_iterEEvT_S4_RT0_(i32* %0, i32* %1, %"struct.__gnu_cxx::__ops::_Iter_less_iter"* dereferenceable(1) %4)
  br label %5

5:                                                ; preds = %11, %3
  %.0 = phi i32* [ %1, %3 ], [ %12, %11 ]
  %6 = icmp ult i32* %.0, %2
  br i1 %6, label %7, label %13

7:                                                ; preds = %5
  %8 = call zeroext i1 @_ZNK9__gnu_cxx5__ops15_Iter_less_iterclIPiS3_EEbT_T0_(%"struct.__gnu_cxx::__ops::_Iter_less_iter"* %4, i32* %.0, i32* %0)
  br i1 %8, label %9, label %10

9:                                                ; preds = %7
  call void @_ZSt10__pop_heapIPiN9__gnu_cxx5__ops15_Iter_less_iterEEvT_S4_S4_RT0_(i32* %0, i32* %1, i32* %.0, %"struct.__gnu_cxx::__ops::_Iter_less_iter"* dereferenceable(1) %4)
  br label %10

10:                                               ; preds = %9, %7
  br label %11

11:                                               ; preds = %10
  %12 = getelementptr inbounds i32, i32* %.0, i32 1
  br label %5

13:                                               ; preds = %5
  ret void
}

; Function Attrs: noinline uwtable
define linkonce_odr void @_ZSt11__sort_heapIPiN9__gnu_cxx5__ops15_Iter_less_iterEEvT_S4_RT0_(i32* %0, i32* %1, %"struct.__gnu_cxx::__ops::_Iter_less_iter"* dereferenceable(1) %2) #0 comdat {
  br label %4

4:                                                ; preds = %10, %3
  %.0 = phi i32* [ %1, %3 ], [ %11, %10 ]
  %5 = ptrtoint i32* %.0 to i64
  %6 = ptrtoint i32* %0 to i64
  %7 = sub i64 %5, %6
  %8 = sdiv exact i64 %7, 4
  %9 = icmp sgt i64 %8, 1
  br i1 %9, label %10, label %12

10:                                               ; preds = %4
  %11 = getelementptr inbounds i32, i32* %.0, i32 -1
  call void @_ZSt10__pop_heapIPiN9__gnu_cxx5__ops15_Iter_less_iterEEvT_S4_S4_RT0_(i32* %0, i32* %11, i32* %11, %"struct.__gnu_cxx::__ops::_Iter_less_iter"* dereferenceable(1) %2)
  br label %4

12:                                               ; preds = %4
  ret void
}

; Function Attrs: noinline uwtable
define linkonce_odr void @_ZSt11__make_heapIPiN9__gnu_cxx5__ops15_Iter_less_iterEEvT_S4_RT0_(i32* %0, i32* %1, %"struct.__gnu_cxx::__ops::_Iter_less_iter"* dereferenceable(1) %2) #0 comdat {
  %4 = alloca i32, align 4
  %5 = ptrtoint i32* %1 to i64
  %6 = ptrtoint i32* %0 to i64
  %7 = sub i64 %5, %6
  %8 = sdiv exact i64 %7, 4
  %9 = icmp slt i64 %8, 2
  br i1 %9, label %10, label %11

10:                                               ; preds = %3
  br label %28

11:                                               ; preds = %3
  %12 = ptrtoint i32* %1 to i64
  %13 = ptrtoint i32* %0 to i64
  %14 = sub i64 %12, %13
  %15 = sdiv exact i64 %14, 4
  %16 = sub nsw i64 %15, 2
  %17 = sdiv i64 %16, 2
  br label %18

18:                                               ; preds = %26, %11
  %.0 = phi i64 [ %17, %11 ], [ %27, %26 ]
  %19 = getelementptr inbounds i32, i32* %0, i64 %.0
  %20 = call dereferenceable(4) i32* @_ZSt4moveIRiEONSt16remove_referenceIT_E4typeEOS2_(i32* dereferenceable(4) %19) #3
  %21 = load i32, i32* %20, align 4
  store i32 %21, i32* %4, align 4
  %22 = call dereferenceable(4) i32* @_ZSt4moveIRiEONSt16remove_referenceIT_E4typeEOS2_(i32* dereferenceable(4) %4) #3
  %23 = load i32, i32* %22, align 4
  call void @_ZSt13__adjust_heapIPiliN9__gnu_cxx5__ops15_Iter_less_iterEEvT_T0_S5_T1_T2_(i32* %0, i64 %.0, i64 %15, i32 %23)
  %24 = icmp eq i64 %.0, 0
  br i1 %24, label %25, label %26

25:                                               ; preds = %18
  br label %28

26:                                               ; preds = %18
  %27 = add nsw i64 %.0, -1
  br label %18

28:                                               ; preds = %25, %10
  ret void
}

; Function Attrs: noinline nounwind uwtable
define linkonce_odr zeroext i1 @_ZNK9__gnu_cxx5__ops15_Iter_less_iterclIPiS3_EEbT_T0_(%"struct.__gnu_cxx::__ops::_Iter_less_iter"* %0, i32* %1, i32* %2) #4 comdat align 2 {
  %4 = load i32, i32* %1, align 4
  %5 = load i32, i32* %2, align 4
  %6 = icmp slt i32 %4, %5
  ret i1 %6
}

; Function Attrs: noinline uwtable
define linkonce_odr void @_ZSt10__pop_heapIPiN9__gnu_cxx5__ops15_Iter_less_iterEEvT_S4_S4_RT0_(i32* %0, i32* %1, i32* %2, %"struct.__gnu_cxx::__ops::_Iter_less_iter"* dereferenceable(1) %3) #0 comdat {
  %5 = alloca i32, align 4
  %6 = call dereferenceable(4) i32* @_ZSt4moveIRiEONSt16remove_referenceIT_E4typeEOS2_(i32* dereferenceable(4) %2) #3
  %7 = load i32, i32* %6, align 4
  store i32 %7, i32* %5, align 4
  %8 = call dereferenceable(4) i32* @_ZSt4moveIRiEONSt16remove_referenceIT_E4typeEOS2_(i32* dereferenceable(4) %0) #3
  %9 = load i32, i32* %8, align 4
  store i32 %9, i32* %2, align 4
  %10 = ptrtoint i32* %1 to i64
  %11 = ptrtoint i32* %0 to i64
  %12 = sub i64 %10, %11
  %13 = sdiv exact i64 %12, 4
  %14 = call dereferenceable(4) i32* @_ZSt4moveIRiEONSt16remove_referenceIT_E4typeEOS2_(i32* dereferenceable(4) %5) #3
  %15 = load i32, i32* %14, align 4
  call void @_ZSt13__adjust_heapIPiliN9__gnu_cxx5__ops15_Iter_less_iterEEvT_T0_S5_T1_T2_(i32* %0, i64 0, i64 %13, i32 %15)
  ret void
}

; Function Attrs: noinline nounwind uwtable
define linkonce_odr dereferenceable(4) i32* @_ZSt4moveIRiEONSt16remove_referenceIT_E4typeEOS2_(i32* dereferenceable(4) %0) #4 comdat {
  ret i32* %0
}

; Function Attrs: noinline uwtable
define linkonce_odr void @_ZSt13__adjust_heapIPiliN9__gnu_cxx5__ops15_Iter_less_iterEEvT_T0_S5_T1_T2_(i32* %0, i64 %1, i64 %2, i32 %3) #0 comdat {
  %5 = alloca %"struct.__gnu_cxx::__ops::_Iter_less_iter", align 1
  %6 = alloca i32, align 4
  %7 = alloca %"struct.__gnu_cxx::__ops::_Iter_less_val", align 1
  store i32 %3, i32* %6, align 4
  br label %8

8:                                                ; preds = %21, %4
  %.01 = phi i64 [ %1, %4 ], [ %.1, %21 ]
  %.0 = phi i64 [ %1, %4 ], [ %.1, %21 ]
  %9 = sub nsw i64 %2, 1
  %10 = sdiv i64 %9, 2
  %11 = icmp slt i64 %.0, %10
  br i1 %11, label %12, label %26

12:                                               ; preds = %8
  %13 = add nsw i64 %.0, 1
  %14 = mul nsw i64 2, %13
  %15 = getelementptr inbounds i32, i32* %0, i64 %14
  %16 = sub nsw i64 %14, 1
  %17 = getelementptr inbounds i32, i32* %0, i64 %16
  %18 = call zeroext i1 @_ZNK9__gnu_cxx5__ops15_Iter_less_iterclIPiS3_EEbT_T0_(%"struct.__gnu_cxx::__ops::_Iter_less_iter"* %5, i32* %15, i32* %17)
  br i1 %18, label %19, label %21

19:                                               ; preds = %12
  %20 = add nsw i64 %14, -1
  br label %21

21:                                               ; preds = %19, %12
  %.1 = phi i64 [ %20, %19 ], [ %14, %12 ]
  %22 = getelementptr inbounds i32, i32* %0, i64 %.1
  %23 = call dereferenceable(4) i32* @_ZSt4moveIRiEONSt16remove_referenceIT_E4typeEOS2_(i32* dereferenceable(4) %22) #3
  %24 = load i32, i32* %23, align 4
  %25 = getelementptr inbounds i32, i32* %0, i64 %.01
  store i32 %24, i32* %25, align 4
  br label %8

26:                                               ; preds = %8
  %27 = and i64 %2, 1
  %28 = icmp eq i64 %27, 0
  br i1 %28, label %29, label %42

29:                                               ; preds = %26
  %30 = sub nsw i64 %2, 2
  %31 = sdiv i64 %30, 2
  %32 = icmp eq i64 %.0, %31
  br i1 %32, label %33, label %42

33:                                               ; preds = %29
  %34 = add nsw i64 %.0, 1
  %35 = mul nsw i64 2, %34
  %36 = sub nsw i64 %35, 1
  %37 = getelementptr inbounds i32, i32* %0, i64 %36
  %38 = call dereferenceable(4) i32* @_ZSt4moveIRiEONSt16remove_referenceIT_E4typeEOS2_(i32* dereferenceable(4) %37) #3
  %39 = load i32, i32* %38, align 4
  %40 = getelementptr inbounds i32, i32* %0, i64 %.01
  store i32 %39, i32* %40, align 4
  %41 = sub nsw i64 %35, 1
  br label %42

42:                                               ; preds = %33, %29, %26
  %.12 = phi i64 [ %41, %33 ], [ %.01, %29 ], [ %.01, %26 ]
  %43 = call dereferenceable(1) %"struct.__gnu_cxx::__ops::_Iter_less_iter"* @_ZSt4moveIRN9__gnu_cxx5__ops15_Iter_less_iterEEONSt16remove_referenceIT_E4typeEOS5_(%"struct.__gnu_cxx::__ops::_Iter_less_iter"* dereferenceable(1) %5) #3
  call void @_ZN9__gnu_cxx5__ops14_Iter_less_valC2ENS0_15_Iter_less_iterE(%"struct.__gnu_cxx::__ops::_Iter_less_val"* %7)
  %44 = call dereferenceable(4) i32* @_ZSt4moveIRiEONSt16remove_referenceIT_E4typeEOS2_(i32* dereferenceable(4) %6) #3
  %45 = load i32, i32* %44, align 4
  call void @_ZSt11__push_heapIPiliN9__gnu_cxx5__ops14_Iter_less_valEEvT_T0_S5_T1_RT2_(i32* %0, i64 %.12, i64 %1, i32 %45, %"struct.__gnu_cxx::__ops::_Iter_less_val"* dereferenceable(1) %7)
  ret void
}

; Function Attrs: noinline nounwind uwtable
define linkonce_odr dereferenceable(1) %"struct.__gnu_cxx::__ops::_Iter_less_iter"* @_ZSt4moveIRN9__gnu_cxx5__ops15_Iter_less_iterEEONSt16remove_referenceIT_E4typeEOS5_(%"struct.__gnu_cxx::__ops::_Iter_less_iter"* dereferenceable(1) %0) #4 comdat {
  ret %"struct.__gnu_cxx::__ops::_Iter_less_iter"* %0
}

; Function Attrs: noinline nounwind uwtable
define linkonce_odr void @_ZN9__gnu_cxx5__ops14_Iter_less_valC2ENS0_15_Iter_less_iterE(%"struct.__gnu_cxx::__ops::_Iter_less_val"* %0) unnamed_addr #4 comdat align 2 {
  ret void
}

; Function Attrs: noinline uwtable
define linkonce_odr void @_ZSt11__push_heapIPiliN9__gnu_cxx5__ops14_Iter_less_valEEvT_T0_S5_T1_RT2_(i32* %0, i64 %1, i64 %2, i32 %3, %"struct.__gnu_cxx::__ops::_Iter_less_val"* dereferenceable(1) %4) #0 comdat {
  %6 = alloca i32, align 4
  store i32 %3, i32* %6, align 4
  %7 = sub nsw i64 %1, 1
  %8 = sdiv i64 %7, 2
  br label %9

9:                                                ; preds = %16, %5
  %.01 = phi i64 [ %1, %5 ], [ %.0, %16 ]
  %.0 = phi i64 [ %8, %5 ], [ %22, %16 ]
  %10 = icmp sgt i64 %.01, %2
  br i1 %10, label %11, label %14

11:                                               ; preds = %9
  %12 = getelementptr inbounds i32, i32* %0, i64 %.0
  %13 = call zeroext i1 @_ZNK9__gnu_cxx5__ops14_Iter_less_valclIPiiEEbT_RT0_(%"struct.__gnu_cxx::__ops::_Iter_less_val"* %4, i32* %12, i32* dereferenceable(4) %6)
  br label %14

14:                                               ; preds = %11, %9
  %15 = phi i1 [ false, %9 ], [ %13, %11 ]
  br i1 %15, label %16, label %23

16:                                               ; preds = %14
  %17 = getelementptr inbounds i32, i32* %0, i64 %.0
  %18 = call dereferenceable(4) i32* @_ZSt4moveIRiEONSt16remove_referenceIT_E4typeEOS2_(i32* dereferenceable(4) %17) #3
  %19 = load i32, i32* %18, align 4
  %20 = getelementptr inbounds i32, i32* %0, i64 %.01
  store i32 %19, i32* %20, align 4
  %21 = sub nsw i64 %.0, 1
  %22 = sdiv i64 %21, 2
  br label %9

23:                                               ; preds = %14
  %24 = call dereferenceable(4) i32* @_ZSt4moveIRiEONSt16remove_referenceIT_E4typeEOS2_(i32* dereferenceable(4) %6) #3
  %25 = load i32, i32* %24, align 4
  %26 = getelementptr inbounds i32, i32* %0, i64 %.01
  store i32 %25, i32* %26, align 4
  ret void
}

; Function Attrs: noinline nounwind uwtable
define linkonce_odr zeroext i1 @_ZNK9__gnu_cxx5__ops14_Iter_less_valclIPiiEEbT_RT0_(%"struct.__gnu_cxx::__ops::_Iter_less_val"* %0, i32* %1, i32* dereferenceable(4) %2) #4 comdat align 2 {
  %4 = load i32, i32* %1, align 4
  %5 = load i32, i32* %2, align 4
  %6 = icmp slt i32 %4, %5
  ret i1 %6
}

; Function Attrs: noinline uwtable
define linkonce_odr void @_ZSt22__move_median_to_firstIPiN9__gnu_cxx5__ops15_Iter_less_iterEEvT_S4_S4_S4_T0_(i32* %0, i32* %1, i32* %2, i32* %3) #0 comdat {
  %5 = alloca %"struct.__gnu_cxx::__ops::_Iter_less_iter", align 1
  %6 = call zeroext i1 @_ZNK9__gnu_cxx5__ops15_Iter_less_iterclIPiS3_EEbT_T0_(%"struct.__gnu_cxx::__ops::_Iter_less_iter"* %5, i32* %1, i32* %2)
  br i1 %6, label %7, label %16

7:                                                ; preds = %4
  %8 = call zeroext i1 @_ZNK9__gnu_cxx5__ops15_Iter_less_iterclIPiS3_EEbT_T0_(%"struct.__gnu_cxx::__ops::_Iter_less_iter"* %5, i32* %2, i32* %3)
  br i1 %8, label %9, label %10

9:                                                ; preds = %7
  call void @_ZSt9iter_swapIPiS0_EvT_T0_(i32* %0, i32* %2)
  br label %15

10:                                               ; preds = %7
  %11 = call zeroext i1 @_ZNK9__gnu_cxx5__ops15_Iter_less_iterclIPiS3_EEbT_T0_(%"struct.__gnu_cxx::__ops::_Iter_less_iter"* %5, i32* %1, i32* %3)
  br i1 %11, label %12, label %13

12:                                               ; preds = %10
  call void @_ZSt9iter_swapIPiS0_EvT_T0_(i32* %0, i32* %3)
  br label %14

13:                                               ; preds = %10
  call void @_ZSt9iter_swapIPiS0_EvT_T0_(i32* %0, i32* %1)
  br label %14

14:                                               ; preds = %13, %12
  br label %15

15:                                               ; preds = %14, %9
  br label %25

16:                                               ; preds = %4
  %17 = call zeroext i1 @_ZNK9__gnu_cxx5__ops15_Iter_less_iterclIPiS3_EEbT_T0_(%"struct.__gnu_cxx::__ops::_Iter_less_iter"* %5, i32* %1, i32* %3)
  br i1 %17, label %18, label %19

18:                                               ; preds = %16
  call void @_ZSt9iter_swapIPiS0_EvT_T0_(i32* %0, i32* %1)
  br label %24

19:                                               ; preds = %16
  %20 = call zeroext i1 @_ZNK9__gnu_cxx5__ops15_Iter_less_iterclIPiS3_EEbT_T0_(%"struct.__gnu_cxx::__ops::_Iter_less_iter"* %5, i32* %2, i32* %3)
  br i1 %20, label %21, label %22

21:                                               ; preds = %19
  call void @_ZSt9iter_swapIPiS0_EvT_T0_(i32* %0, i32* %3)
  br label %23

22:                                               ; preds = %19
  call void @_ZSt9iter_swapIPiS0_EvT_T0_(i32* %0, i32* %2)
  br label %23

23:                                               ; preds = %22, %21
  br label %24

24:                                               ; preds = %23, %18
  br label %25

25:                                               ; preds = %24, %15
  ret void
}

; Function Attrs: noinline nounwind uwtable
define linkonce_odr i32* @_ZSt21__unguarded_partitionIPiN9__gnu_cxx5__ops15_Iter_less_iterEET_S4_S4_S4_T0_(i32* %0, i32* %1, i32* %2) #4 comdat {
  %4 = alloca %"struct.__gnu_cxx::__ops::_Iter_less_iter", align 1
  br label %5

5:                                                ; preds = %19, %3
  %.01 = phi i32* [ %1, %3 ], [ %.12, %19 ]
  %.0 = phi i32* [ %0, %3 ], [ %20, %19 ]
  br label %6

6:                                                ; preds = %8, %5
  %.1 = phi i32* [ %.0, %5 ], [ %9, %8 ]
  %7 = call zeroext i1 @_ZNK9__gnu_cxx5__ops15_Iter_less_iterclIPiS3_EEbT_T0_(%"struct.__gnu_cxx::__ops::_Iter_less_iter"* %4, i32* %.1, i32* %2)
  br i1 %7, label %8, label %10

8:                                                ; preds = %6
  %9 = getelementptr inbounds i32, i32* %.1, i32 1
  br label %6

10:                                               ; preds = %6
  %11 = getelementptr inbounds i32, i32* %.01, i32 -1
  br label %12

12:                                               ; preds = %14, %10
  %.12 = phi i32* [ %11, %10 ], [ %15, %14 ]
  %13 = call zeroext i1 @_ZNK9__gnu_cxx5__ops15_Iter_less_iterclIPiS3_EEbT_T0_(%"struct.__gnu_cxx::__ops::_Iter_less_iter"* %4, i32* %2, i32* %.12)
  br i1 %13, label %14, label %16

14:                                               ; preds = %12
  %15 = getelementptr inbounds i32, i32* %.12, i32 -1
  br label %12

16:                                               ; preds = %12
  %17 = icmp ult i32* %.1, %.12
  br i1 %17, label %19, label %18

18:                                               ; preds = %16
  ret i32* %.1

19:                                               ; preds = %16
  call void @_ZSt9iter_swapIPiS0_EvT_T0_(i32* %.1, i32* %.12)
  %20 = getelementptr inbounds i32, i32* %.1, i32 1
  br label %5
}

; Function Attrs: noinline nounwind uwtable
define linkonce_odr void @_ZSt9iter_swapIPiS0_EvT_T0_(i32* %0, i32* %1) #4 comdat {
  call void @_ZSt4swapIiENSt9enable_ifIXsr6__and_ISt6__not_ISt15__is_tuple_likeIT_EESt21is_move_constructibleIS3_ESt18is_move_assignableIS3_EEE5valueEvE4typeERS3_SC_(i32* dereferenceable(4) %0, i32* dereferenceable(4) %1) #3
  ret void
}

; Function Attrs: noinline nounwind uwtable
define linkonce_odr void @_ZSt4swapIiENSt9enable_ifIXsr6__and_ISt6__not_ISt15__is_tuple_likeIT_EESt21is_move_constructibleIS3_ESt18is_move_assignableIS3_EEE5valueEvE4typeERS3_SC_(i32* dereferenceable(4) %0, i32* dereferenceable(4) %1) #4 comdat {
  %3 = alloca i32, align 4
  %4 = call dereferenceable(4) i32* @_ZSt4moveIRiEONSt16remove_referenceIT_E4typeEOS2_(i32* dereferenceable(4) %0) #3
  %5 = load i32, i32* %4, align 4
  store i32 %5, i32* %3, align 4
  %6 = call dereferenceable(4) i32* @_ZSt4moveIRiEONSt16remove_referenceIT_E4typeEOS2_(i32* dereferenceable(4) %1) #3
  %7 = load i32, i32* %6, align 4
  store i32 %7, i32* %0, align 4
  %8 = call dereferenceable(4) i32* @_ZSt4moveIRiEONSt16remove_referenceIT_E4typeEOS2_(i32* dereferenceable(4) %3) #3
  %9 = load i32, i32* %8, align 4
  store i32 %9, i32* %1, align 4
  ret void
}

; Function Attrs: nocallback nofree nosync nounwind readnone speculatable willreturn
declare i64 @llvm.ctlz.i64(i64, i1 immarg) #6

; Function Attrs: noinline uwtable
define linkonce_odr void @_ZSt16__insertion_sortIPiN9__gnu_cxx5__ops15_Iter_less_iterEEvT_S4_T0_(i32* %0, i32* %1) #0 comdat {
  %3 = alloca %"struct.__gnu_cxx::__ops::_Iter_less_iter", align 1
  %4 = alloca i32, align 4
  %5 = icmp eq i32* %0, %1
  br i1 %5, label %6, label %7

6:                                                ; preds = %2
  br label %24

7:                                                ; preds = %2
  %8 = getelementptr inbounds i32, i32* %0, i64 1
  br label %9

9:                                                ; preds = %22, %7
  %.0 = phi i32* [ %8, %7 ], [ %23, %22 ]
  %10 = icmp ne i32* %.0, %1
  br i1 %10, label %11, label %24

11:                                               ; preds = %9
  %12 = call zeroext i1 @_ZNK9__gnu_cxx5__ops15_Iter_less_iterclIPiS3_EEbT_T0_(%"struct.__gnu_cxx::__ops::_Iter_less_iter"* %3, i32* %.0, i32* %0)
  br i1 %12, label %13, label %20

13:                                               ; preds = %11
  %14 = call dereferenceable(4) i32* @_ZSt4moveIRiEONSt16remove_referenceIT_E4typeEOS2_(i32* dereferenceable(4) %.0) #3
  %15 = load i32, i32* %14, align 4
  store i32 %15, i32* %4, align 4
  %16 = getelementptr inbounds i32, i32* %.0, i64 1
  %17 = call i32* @_ZSt13move_backwardIPiS0_ET0_T_S2_S1_(i32* %0, i32* %.0, i32* %16)
  %18 = call dereferenceable(4) i32* @_ZSt4moveIRiEONSt16remove_referenceIT_E4typeEOS2_(i32* dereferenceable(4) %4) #3
  %19 = load i32, i32* %18, align 4
  store i32 %19, i32* %0, align 4
  br label %21

20:                                               ; preds = %11
  call void @_ZN9__gnu_cxx5__ops15__val_comp_iterENS0_15_Iter_less_iterE()
  call void @_ZSt25__unguarded_linear_insertIPiN9__gnu_cxx5__ops14_Val_less_iterEEvT_T0_(i32* %.0)
  br label %21

21:                                               ; preds = %20, %13
  br label %22

22:                                               ; preds = %21
  %23 = getelementptr inbounds i32, i32* %.0, i32 1
  br label %9

24:                                               ; preds = %9, %6
  ret void
}

; Function Attrs: noinline uwtable
define linkonce_odr void @_ZSt26__unguarded_insertion_sortIPiN9__gnu_cxx5__ops15_Iter_less_iterEEvT_S4_T0_(i32* %0, i32* %1) #0 comdat {
  br label %3

3:                                                ; preds = %6, %2
  %.0 = phi i32* [ %0, %2 ], [ %7, %6 ]
  %4 = icmp ne i32* %.0, %1
  br i1 %4, label %5, label %8

5:                                                ; preds = %3
  call void @_ZN9__gnu_cxx5__ops15__val_comp_iterENS0_15_Iter_less_iterE()
  call void @_ZSt25__unguarded_linear_insertIPiN9__gnu_cxx5__ops14_Val_less_iterEEvT_T0_(i32* %.0)
  br label %6

6:                                                ; preds = %5
  %7 = getelementptr inbounds i32, i32* %.0, i32 1
  br label %3

8:                                                ; preds = %3
  ret void
}

; Function Attrs: noinline uwtable
define linkonce_odr i32* @_ZSt13move_backwardIPiS0_ET0_T_S2_S1_(i32* %0, i32* %1, i32* %2) #0 comdat {
  %4 = call i32* @_ZSt12__miter_baseIPiET_S1_(i32* %0)
  %5 = call i32* @_ZSt12__miter_baseIPiET_S1_(i32* %1)
  %6 = call i32* @_ZSt23__copy_move_backward_a2ILb1EPiS0_ET1_T0_S2_S1_(i32* %4, i32* %5, i32* %2)
  ret i32* %6
}

; Function Attrs: noinline uwtable
define linkonce_odr void @_ZSt25__unguarded_linear_insertIPiN9__gnu_cxx5__ops14_Val_less_iterEEvT_T0_(i32* %0) #0 comdat {
  %2 = alloca %"struct.__gnu_cxx::__ops::_Val_less_iter", align 1
  %3 = alloca i32, align 4
  %4 = call dereferenceable(4) i32* @_ZSt4moveIRiEONSt16remove_referenceIT_E4typeEOS2_(i32* dereferenceable(4) %0) #3
  %5 = load i32, i32* %4, align 4
  store i32 %5, i32* %3, align 4
  %6 = getelementptr inbounds i32, i32* %0, i32 -1
  br label %7

7:                                                ; preds = %9, %1
  %.01 = phi i32* [ %6, %1 ], [ %12, %9 ]
  %.0 = phi i32* [ %0, %1 ], [ %.01, %9 ]
  %8 = call zeroext i1 @_ZNK9__gnu_cxx5__ops14_Val_less_iterclIiPiEEbRT_T0_(%"struct.__gnu_cxx::__ops::_Val_less_iter"* %2, i32* dereferenceable(4) %3, i32* %.01)
  br i1 %8, label %9, label %13

9:                                                ; preds = %7
  %10 = call dereferenceable(4) i32* @_ZSt4moveIRiEONSt16remove_referenceIT_E4typeEOS2_(i32* dereferenceable(4) %.01) #3
  %11 = load i32, i32* %10, align 4
  store i32 %11, i32* %.0, align 4
  %12 = getelementptr inbounds i32, i32* %.01, i32 -1
  br label %7

13:                                               ; preds = %7
  %14 = call dereferenceable(4) i32* @_ZSt4moveIRiEONSt16remove_referenceIT_E4typeEOS2_(i32* dereferenceable(4) %3) #3
  %15 = load i32, i32* %14, align 4
  store i32 %15, i32* %.0, align 4
  ret void
}

; Function Attrs: noinline nounwind uwtable
define linkonce_odr void @_ZN9__gnu_cxx5__ops15__val_comp_iterENS0_15_Iter_less_iterE() #4 comdat {
  ret void
}

; Function Attrs: noinline uwtable
define linkonce_odr i32* @_ZSt23__copy_move_backward_a2ILb1EPiS0_ET1_T0_S2_S1_(i32* %0, i32* %1, i32* %2) #0 comdat {
  %4 = call i32* @_ZSt12__niter_baseIPiET_S1_(i32* %0)
  %5 = call i32* @_ZSt12__niter_baseIPiET_S1_(i32* %1)
  %6 = call i32* @_ZSt12__niter_baseIPiET_S1_(i32* %2)
  %7 = call i32* @_ZSt22__copy_move_backward_aILb1EPiS0_ET1_T0_S2_S1_(i32* %4, i32* %5, i32* %6)
  ret i32* %7
}

; Function Attrs: noinline nounwind uwtable
define linkonce_odr i32* @_ZSt12__miter_baseIPiET_S1_(i32* %0) #4 comdat {
  ret i32* %0
}

; Function Attrs: noinline uwtable
define linkonce_odr i32* @_ZSt22__copy_move_backward_aILb1EPiS0_ET1_T0_S2_S1_(i32* %0, i32* %1, i32* %2) #0 comdat {
  %4 = call i32* @_ZNSt20__copy_move_backwardILb1ELb1ESt26random_access_iterator_tagE13__copy_move_bIiEEPT_PKS3_S6_S4_(i32* %0, i32* %1, i32* %2)
  ret i32* %4
}

; Function Attrs: noinline nounwind uwtable
define linkonce_odr i32* @_ZSt12__niter_baseIPiET_S1_(i32* %0) #4 comdat {
  ret i32* %0
}

; Function Attrs: noinline nounwind uwtable
define linkonce_odr i32* @_ZNSt20__copy_move_backwardILb1ELb1ESt26random_access_iterator_tagE13__copy_move_bIiEEPT_PKS3_S6_S4_(i32* %0, i32* %1, i32* %2) #4 comdat align 2 {
  %4 = ptrtoint i32* %1 to i64
  %5 = ptrtoint i32* %0 to i64
  %6 = sub i64 %4, %5
  %7 = sdiv exact i64 %6, 4
  %8 = icmp ne i64 %7, 0
  br i1 %8, label %9, label %15

9:                                                ; preds = %3
  %10 = sub i64 0, %7
  %11 = getelementptr inbounds i32, i32* %2, i64 %10
  %12 = bitcast i32* %11 to i8*
  %13 = bitcast i32* %0 to i8*
  %14 = mul i64 4, %7
  call void @llvm.memmove.p0i8.p0i8.i64(i8* align 4 %12, i8* align 4 %13, i64 %14, i1 false)
  br label %15

15:                                               ; preds = %9, %3
  %16 = sub i64 0, %7
  %17 = getelementptr inbounds i32, i32* %2, i64 %16
  ret i32* %17
}

; Function Attrs: noinline nounwind uwtable
define linkonce_odr zeroext i1 @_ZNK9__gnu_cxx5__ops14_Val_less_iterclIiPiEEbRT_T0_(%"struct.__gnu_cxx::__ops::_Val_less_iter"* %0, i32* dereferenceable(4) %1, i32* %2) #4 comdat align 2 {
  %4 = load i32, i32* %1, align 4
  %5 = load i32, i32* %2, align 4
  %6 = icmp slt i32 %4, %5
  ret i1 %6
}

; Function Attrs: noinline uwtable
define linkonce_odr i32* @_ZSt8__uniqueIPiN9__gnu_cxx5__ops19_Iter_equal_to_iterEET_S4_S4_T0_(i32* %0, i32* %1) #0 comdat {
  %3 = alloca %"struct.__gnu_cxx::__ops::_Iter_equal_to_iter", align 1
  %4 = call i32* @_ZSt15__adjacent_findIPiN9__gnu_cxx5__ops19_Iter_equal_to_iterEET_S4_S4_T0_(i32* %0, i32* %1)
  %5 = icmp eq i32* %4, %1
  br i1 %5, label %6, label %7

6:                                                ; preds = %2
  br label %21

7:                                                ; preds = %2
  %8 = getelementptr inbounds i32, i32* %4, i32 1
  br label %9

9:                                                ; preds = %18, %7
  %.02 = phi i32* [ %4, %7 ], [ %.1, %18 ]
  %.01 = phi i32* [ %8, %7 ], [ %10, %18 ]
  %10 = getelementptr inbounds i32, i32* %.01, i32 1
  %11 = icmp ne i32* %10, %1
  br i1 %11, label %12, label %19

12:                                               ; preds = %9
  %13 = call zeroext i1 @_ZNK9__gnu_cxx5__ops19_Iter_equal_to_iterclIPiS3_EEbT_T0_(%"struct.__gnu_cxx::__ops::_Iter_equal_to_iter"* %3, i32* %.02, i32* %10)
  br i1 %13, label %18, label %14

14:                                               ; preds = %12
  %15 = call dereferenceable(4) i32* @_ZSt4moveIRiEONSt16remove_referenceIT_E4typeEOS2_(i32* dereferenceable(4) %10) #3
  %16 = load i32, i32* %15, align 4
  %17 = getelementptr inbounds i32, i32* %.02, i32 1
  store i32 %16, i32* %17, align 4
  br label %18

18:                                               ; preds = %14, %12
  %.1 = phi i32* [ %.02, %12 ], [ %17, %14 ]
  br label %9

19:                                               ; preds = %9
  %20 = getelementptr inbounds i32, i32* %.02, i32 1
  br label %21

21:                                               ; preds = %19, %6
  %.0 = phi i32* [ %1, %6 ], [ %20, %19 ]
  ret i32* %.0
}

; Function Attrs: noinline nounwind uwtable
define linkonce_odr void @_ZN9__gnu_cxx5__ops20__iter_equal_to_iterEv() #4 comdat {
  ret void
}

; Function Attrs: noinline uwtable
define linkonce_odr i32* @_ZSt15__adjacent_findIPiN9__gnu_cxx5__ops19_Iter_equal_to_iterEET_S4_S4_T0_(i32* %0, i32* %1) #0 comdat {
  %3 = alloca %"struct.__gnu_cxx::__ops::_Iter_equal_to_iter", align 1
  %4 = icmp eq i32* %0, %1
  br i1 %4, label %5, label %6

5:                                                ; preds = %2
  br label %15

6:                                                ; preds = %2
  br label %7

7:                                                ; preds = %13, %6
  %.02 = phi i32* [ %0, %6 ], [ %8, %13 ]
  %.01 = phi i32* [ %0, %6 ], [ %8, %13 ]
  %8 = getelementptr inbounds i32, i32* %.02, i32 1
  %9 = icmp ne i32* %8, %1
  br i1 %9, label %10, label %14

10:                                               ; preds = %7
  %11 = call zeroext i1 @_ZNK9__gnu_cxx5__ops19_Iter_equal_to_iterclIPiS3_EEbT_T0_(%"struct.__gnu_cxx::__ops::_Iter_equal_to_iter"* %3, i32* %.01, i32* %8)
  br i1 %11, label %12, label %13

12:                                               ; preds = %10
  br label %15

13:                                               ; preds = %10
  br label %7

14:                                               ; preds = %7
  br label %15

15:                                               ; preds = %14, %12, %5
  %.0 = phi i32* [ %1, %5 ], [ %.01, %12 ], [ %1, %14 ]
  ret i32* %.0
}

; Function Attrs: noinline nounwind uwtable
define linkonce_odr zeroext i1 @_ZNK9__gnu_cxx5__ops19_Iter_equal_to_iterclIPiS3_EEbT_T0_(%"struct.__gnu_cxx::__ops::_Iter_equal_to_iter"* %0, i32* %1, i32* %2) #4 comdat align 2 {
  %4 = load i32, i32* %1, align 4
  %5 = load i32, i32* %2, align 4
  %6 = icmp eq i32 %4, %5
  ret i1 %6
}

; Function Attrs: noinline uwtable
define linkonce_odr i32* @_ZSt13__lower_boundIPiiN9__gnu_cxx5__ops14_Iter_less_valEET_S4_S4_RKT0_T1_(i32* %0, i32* %1, i32* dereferenceable(4) %2) #0 comdat {
  %4 = alloca %"struct.__gnu_cxx::__ops::_Iter_less_val", align 1
  %5 = alloca i32*, align 8
  %6 = call i64 @_ZSt8distanceIPiENSt15iterator_traitsIT_E15difference_typeES2_S2_(i32* %0, i32* %1)
  br label %7

7:                                                ; preds = %19, %3
  %.01 = phi i64 [ %6, %3 ], [ %.12, %19 ]
  %.0 = phi i32* [ %0, %3 ], [ %.1, %19 ]
  %8 = icmp sgt i64 %.01, 0
  br i1 %8, label %9, label %20

9:                                                ; preds = %7
  %10 = ashr i64 %.01, 1
  store i32* %.0, i32** %5, align 8
  call void @_ZSt7advanceIPilEvRT_T0_(i32** dereferenceable(8) %5, i64 %10)
  %11 = load i32*, i32** %5, align 8
  %12 = call zeroext i1 @_ZNK9__gnu_cxx5__ops14_Iter_less_valclIPiKiEEbT_RT0_(%"struct.__gnu_cxx::__ops::_Iter_less_val"* %4, i32* %11, i32* dereferenceable(4) %2)
  br i1 %12, label %13, label %18

13:                                               ; preds = %9
  %14 = load i32*, i32** %5, align 8
  %15 = getelementptr inbounds i32, i32* %14, i32 1
  %16 = sub nsw i64 %.01, %10
  %17 = sub nsw i64 %16, 1
  br label %19

18:                                               ; preds = %9
  br label %19

19:                                               ; preds = %18, %13
  %.12 = phi i64 [ %17, %13 ], [ %10, %18 ]
  %.1 = phi i32* [ %15, %13 ], [ %.0, %18 ]
  br label %7

20:                                               ; preds = %7
  ret i32* %.0
}

; Function Attrs: noinline nounwind uwtable
define linkonce_odr void @_ZN9__gnu_cxx5__ops15__iter_less_valEv() #4 comdat {
  ret void
}

; Function Attrs: noinline uwtable
define linkonce_odr i64 @_ZSt8distanceIPiENSt15iterator_traitsIT_E15difference_typeES2_S2_(i32* %0, i32* %1) #0 comdat {
  %3 = alloca i32*, align 8
  store i32* %0, i32** %3, align 8
  %4 = load i32*, i32** %3, align 8
  call void @_ZSt19__iterator_categoryIPiENSt15iterator_traitsIT_E17iterator_categoryERKS2_(i32** dereferenceable(8) %3)
  %5 = call i64 @_ZSt10__distanceIPiENSt15iterator_traitsIT_E15difference_typeES2_S2_St26random_access_iterator_tag(i32* %4, i32* %1)
  ret i64 %5
}

; Function Attrs: noinline uwtable
define linkonce_odr void @_ZSt7advanceIPilEvRT_T0_(i32** dereferenceable(8) %0, i64 %1) #0 comdat {
  call void @_ZSt19__iterator_categoryIPiENSt15iterator_traitsIT_E17iterator_categoryERKS2_(i32** dereferenceable(8) %0)
  call void @_ZSt9__advanceIPilEvRT_T0_St26random_access_iterator_tag(i32** dereferenceable(8) %0, i64 %1)
  ret void
}

; Function Attrs: noinline nounwind uwtable
define linkonce_odr zeroext i1 @_ZNK9__gnu_cxx5__ops14_Iter_less_valclIPiKiEEbT_RT0_(%"struct.__gnu_cxx::__ops::_Iter_less_val"* %0, i32* %1, i32* dereferenceable(4) %2) #4 comdat align 2 {
  %4 = load i32, i32* %1, align 4
  %5 = load i32, i32* %2, align 4
  %6 = icmp slt i32 %4, %5
  ret i1 %6
}

; Function Attrs: noinline nounwind uwtable
define linkonce_odr i64 @_ZSt10__distanceIPiENSt15iterator_traitsIT_E15difference_typeES2_S2_St26random_access_iterator_tag(i32* %0, i32* %1) #4 comdat {
  %3 = ptrtoint i32* %1 to i64
  %4 = ptrtoint i32* %0 to i64
  %5 = sub i64 %3, %4
  %6 = sdiv exact i64 %5, 4
  ret i64 %6
}

; Function Attrs: noinline nounwind uwtable
define linkonce_odr void @_ZSt19__iterator_categoryIPiENSt15iterator_traitsIT_E17iterator_categoryERKS2_(i32** dereferenceable(8) %0) #4 comdat {
  ret void
}

; Function Attrs: noinline nounwind uwtable
define linkonce_odr void @_ZSt9__advanceIPilEvRT_T0_St26random_access_iterator_tag(i32** dereferenceable(8) %0, i64 %1) #4 comdat {
  %3 = load i32*, i32** %0, align 8
  %4 = getelementptr inbounds i32, i32* %3, i64 %1
  store i32* %4, i32** %0, align 8
  ret void
}

; Function Attrs: noinline uwtable
define internal void @_GLOBAL__sub_I_s455033678.cpp() #0 section ".text.startup" {
  call void @__cxx_global_var_init()
  ret void
}

; Function Attrs: argmemonly nocallback nofree nounwind willreturn
declare void @llvm.memmove.p0i8.p0i8.i64(i8* nocapture writeonly, i8* nocapture readonly, i64, i1 immarg) #7

attributes #0 = { noinline uwtable "correctly-rounded-divide-sqrt-fp-math"="false" "disable-tail-calls"="false" "less-precise-fpmad"="false" "no-frame-pointer-elim"="true" "no-frame-pointer-elim-non-leaf" "no-infs-fp-math"="false" "no-jump-tables"="false" "no-nans-fp-math"="false" "no-signed-zeros-fp-math"="false" "no-trapping-math"="false" "stack-protector-buffer-size"="8" "target-cpu"="x86-64" "target-features"="+fxsr,+mmx,+sse,+sse2,+x87" "unsafe-fp-math"="false" "use-soft-float"="false" }
attributes #1 = { "correctly-rounded-divide-sqrt-fp-math"="false" "disable-tail-calls"="false" "less-precise-fpmad"="false" "no-frame-pointer-elim"="true" "no-frame-pointer-elim-non-leaf" "no-infs-fp-math"="false" "no-nans-fp-math"="false" "no-signed-zeros-fp-math"="false" "no-trapping-math"="false" "stack-protector-buffer-size"="8" "target-cpu"="x86-64" "target-features"="+fxsr,+mmx,+sse,+sse2,+x87" "unsafe-fp-math"="false" "use-soft-float"="false" }
attributes #2 = { nounwind "correctly-rounded-divide-sqrt-fp-math"="false" "disable-tail-calls"="false" "less-precise-fpmad"="false" "no-frame-pointer-elim"="true" "no-frame-pointer-elim-non-leaf" "no-infs-fp-math"="false" "no-nans-fp-math"="false" "no-signed-zeros-fp-math"="false" "no-trapping-math"="false" "stack-protector-buffer-size"="8" "target-cpu"="x86-64" "target-features"="+fxsr,+mmx,+sse,+sse2,+x87" "unsafe-fp-math"="false" "use-soft-float"="false" }
attributes #3 = { nounwind }
attributes #4 = { noinline nounwind uwtable "correctly-rounded-divide-sqrt-fp-math"="false" "disable-tail-calls"="false" "less-precise-fpmad"="false" "no-frame-pointer-elim"="true" "no-frame-pointer-elim-non-leaf" "no-infs-fp-math"="false" "no-jump-tables"="false" "no-nans-fp-math"="false" "no-signed-zeros-fp-math"="false" "no-trapping-math"="false" "stack-protector-buffer-size"="8" "target-cpu"="x86-64" "target-features"="+fxsr,+mmx,+sse,+sse2,+x87" "unsafe-fp-math"="false" "use-soft-float"="false" }
attributes #5 = { noinline norecurse uwtable "correctly-rounded-divide-sqrt-fp-math"="false" "disable-tail-calls"="false" "less-precise-fpmad"="false" "no-frame-pointer-elim"="true" "no-frame-pointer-elim-non-leaf" "no-infs-fp-math"="false" "no-jump-tables"="false" "no-nans-fp-math"="false" "no-signed-zeros-fp-math"="false" "no-trapping-math"="false" "stack-protector-buffer-size"="8" "target-cpu"="x86-64" "target-features"="+fxsr,+mmx,+sse,+sse2,+x87" "unsafe-fp-math"="false" "use-soft-float"="false" }
attributes #6 = { nocallback nofree nosync nounwind readnone speculatable willreturn }
attributes #7 = { argmemonly nocallback nofree nounwind willreturn }

!llvm.module.flags = !{!0}
!llvm.ident = !{!1}

!0 = !{i32 1, !"wchar_size", i32 4}
!1 = !{!"clang version 6.0.0-1ubuntu2 (tags/RELEASE_600/final)"}
