; ModuleID = '/home/pedro/tcc/exDataset/codenet/data/selection/p03874/s334741980.ll'
source_filename = "/home/pedro/tcc/exDataset/codenet/data/selection/p03874/s334741980.cpp"
target datalayout = "e-m:e-i64:64-f80:128-n8:16:32:64-S128"
target triple = "x86_64-pc-linux-gnu"

%"class.std::ios_base::Init" = type { i8 }
%"class.std::mersenne_twister_engine" = type { [624 x i64], i64 }
%"class.std::random_device" = type { %union.anon }
%union.anon = type { %"class.std::mersenne_twister_engine" }
%"class.std::__cxx11::basic_string" = type { %"struct.std::__cxx11::basic_string<char, std::char_traits<char>, std::allocator<char> >::_Alloc_hider", i64, %union.anon.0 }
%"struct.std::__cxx11::basic_string<char, std::char_traits<char>, std::allocator<char> >::_Alloc_hider" = type { i8* }
%union.anon.0 = type { i64, [8 x i8] }
%"class.std::allocator" = type { i8 }
%"class.__gnu_cxx::__normal_iterator" = type { i8* }

$_ZNSt13random_deviceC2ERKNSt7__cxx1112basic_stringIcSt11char_traitsIcESaIcEEE = comdat any

$_ZNSt13random_deviceclEv = comdat any

$_ZNSt23mersenne_twister_engineImLm32ELm624ELm397ELm31ELm2567483615ELm11ELm4294967295ELm7ELm2636928640ELm15ELm4022730752ELm18ELm1812433253EEC2Em = comdat any

$_ZNSt13random_deviceD2Ev = comdat any

$_ZNSt23mersenne_twister_engineImLm32ELm624ELm397ELm31ELm2567483615ELm11ELm4294967295ELm7ELm2636928640ELm15ELm4022730752ELm18ELm1812433253EEclEv = comdat any

$_ZSt4acose = comdat any

$_ZSt3minIiERKT_S2_S2_ = comdat any

$_ZSt7reverseIN9__gnu_cxx17__normal_iteratorIPcNSt7__cxx1112basic_stringIcSt11char_traitsIcESaIcEEEEEEvT_SA_ = comdat any

$__clang_call_terminate = comdat any

$_ZNSt23mersenne_twister_engineImLm32ELm624ELm397ELm31ELm2567483615ELm11ELm4294967295ELm7ELm2636928640ELm15ELm4022730752ELm18ELm1812433253EE4seedEm = comdat any

$_ZNSt8__detail5__modImLm4294967296ELm1ELm0EEET_S1_ = comdat any

$_ZNSt8__detail5__modImLm624ELm1ELm0EEET_S1_ = comdat any

$_ZNSt8__detail4_ModImLm4294967296ELm1ELm0ELb1ELb1EE6__calcEm = comdat any

$_ZNSt8__detail4_ModImLm624ELm1ELm0ELb1ELb1EE6__calcEm = comdat any

$_ZNSt23mersenne_twister_engineImLm32ELm624ELm397ELm31ELm2567483615ELm11ELm4294967295ELm7ELm2636928640ELm15ELm4022730752ELm18ELm1812433253EE11_M_gen_randEv = comdat any

$_ZSt9__reverseIN9__gnu_cxx17__normal_iteratorIPcNSt7__cxx1112basic_stringIcSt11char_traitsIcESaIcEEEEEEvT_SA_St26random_access_iterator_tag = comdat any

$_ZSt19__iterator_categoryIN9__gnu_cxx17__normal_iteratorIPcNSt7__cxx1112basic_stringIcSt11char_traitsIcESaIcEEEEEENSt15iterator_traitsIT_E17iterator_categoryERKSB_ = comdat any

$_ZN9__gnu_cxxeqIPcNSt7__cxx1112basic_stringIcSt11char_traitsIcESaIcEEEEEbRKNS_17__normal_iteratorIT_T0_EESD_ = comdat any

$_ZN9__gnu_cxx17__normal_iteratorIPcNSt7__cxx1112basic_stringIcSt11char_traitsIcESaIcEEEEmmEv = comdat any

$_ZN9__gnu_cxxltIPcNSt7__cxx1112basic_stringIcSt11char_traitsIcESaIcEEEEEbRKNS_17__normal_iteratorIT_T0_EESD_ = comdat any

$_ZSt9iter_swapIN9__gnu_cxx17__normal_iteratorIPcNSt7__cxx1112basic_stringIcSt11char_traitsIcESaIcEEEEES9_EvT_T0_ = comdat any

$_ZN9__gnu_cxx17__normal_iteratorIPcNSt7__cxx1112basic_stringIcSt11char_traitsIcESaIcEEEEppEv = comdat any

$_ZNK9__gnu_cxx17__normal_iteratorIPcNSt7__cxx1112basic_stringIcSt11char_traitsIcESaIcEEEE4baseEv = comdat any

$_ZSt4swapIcENSt9enable_ifIXsr6__and_ISt6__not_ISt15__is_tuple_likeIT_EESt21is_move_constructibleIS3_ESt18is_move_assignableIS3_EEE5valueEvE4typeERS3_SC_ = comdat any

$_ZNK9__gnu_cxx17__normal_iteratorIPcNSt7__cxx1112basic_stringIcSt11char_traitsIcESaIcEEEEdeEv = comdat any

$_ZSt4moveIRcEONSt16remove_referenceIT_E4typeEOS2_ = comdat any

@_ZStL8__ioinit = internal global %"class.std::ios_base::Init" zeroinitializer, align 1
@__dso_handle = external hidden global i8
@mrand = global %"class.std::mersenne_twister_engine" zeroinitializer, align 8
@.str = private unnamed_addr constant [8 x i8] c"default\00", align 1
@_ZL2pi = internal global x86_fp80 0xK00000000000000000000, align 16
@k = global i64 0, align 8
@.str.3 = private unnamed_addr constant [5 x i8] c"%lld\00", align 1
@.str.4 = private unnamed_addr constant [1 x i8] zeroinitializer, align 1
@_ZL3str = internal constant [9 x i8] c"LAVITSEF\00", align 1
@.str.5 = private unnamed_addr constant [4 x i8] c"%s\0A\00", align 1
@llvm.global_ctors = appending global [1 x { i32, void ()*, i8* }] [{ i32, void ()*, i8* } { i32 65535, void ()* @_GLOBAL__sub_I_s334741980.cpp, i8* null }]

; Function Attrs: noinline uwtable
define internal void @__cxx_global_var_init() #0 section ".text.startup" {
  call void @_ZNSt8ios_base4InitC1Ev(%"class.std::ios_base::Init"* @_ZStL8__ioinit)
  %1 = call i32 @__cxa_atexit(void (i8*)* bitcast (void (%"class.std::ios_base::Init"*)* @_ZNSt8ios_base4InitD1Ev to void (i8*)*), i8* getelementptr inbounds (%"class.std::ios_base::Init", %"class.std::ios_base::Init"* @_ZStL8__ioinit, i32 0, i32 0), i8* @__dso_handle) #3
  ret void
}

declare void @_ZNSt8ios_base4InitC1Ev(%"class.std::ios_base::Init"*) unnamed_addr #1

; Function Attrs: nounwind
declare void @_ZNSt8ios_base4InitD1Ev(%"class.std::ios_base::Init"*) unnamed_addr #2

; Function Attrs: nounwind
declare i32 @__cxa_atexit(void (i8*)*, i8*, i8*) #3

; Function Attrs: noinline uwtable
define internal void @__cxx_global_var_init.1() #0 section ".text.startup" personality i8* bitcast (i32 (...)* @__gxx_personality_v0 to i8*) {
  %1 = alloca %"class.std::random_device", align 8
  %2 = alloca %"class.std::__cxx11::basic_string", align 8
  %3 = alloca %"class.std::allocator", align 1
  call void @_ZNSaIcEC1Ev(%"class.std::allocator"* %3) #3
  invoke void @_ZNSt7__cxx1112basic_stringIcSt11char_traitsIcESaIcEEC1EPKcRKS3_(%"class.std::__cxx11::basic_string"* %2, i8* getelementptr inbounds ([8 x i8], [8 x i8]* @.str, i32 0, i32 0), %"class.std::allocator"* dereferenceable(1) %3)
          to label %4 unwind label %10

4:                                                ; preds = %0
  invoke void @_ZNSt13random_deviceC2ERKNSt7__cxx1112basic_stringIcSt11char_traitsIcESaIcEEE(%"class.std::random_device"* %1, %"class.std::__cxx11::basic_string"* dereferenceable(32) %2)
          to label %5 unwind label %14

5:                                                ; preds = %4
  %6 = invoke i32 @_ZNSt13random_deviceclEv(%"class.std::random_device"* %1)
          to label %7 unwind label %18

7:                                                ; preds = %5
  %8 = zext i32 %6 to i64
  invoke void @_ZNSt23mersenne_twister_engineImLm32ELm624ELm397ELm31ELm2567483615ELm11ELm4294967295ELm7ELm2636928640ELm15ELm4022730752ELm18ELm1812433253EEC2Em(%"class.std::mersenne_twister_engine"* @mrand, i64 %8)
          to label %9 unwind label %18

9:                                                ; preds = %7
  call void @_ZNSt13random_deviceD2Ev(%"class.std::random_device"* %1) #3
  call void @_ZNSt7__cxx1112basic_stringIcSt11char_traitsIcESaIcEED1Ev(%"class.std::__cxx11::basic_string"* %2) #3
  call void @_ZNSaIcED1Ev(%"class.std::allocator"* %3) #3
  ret void

10:                                               ; preds = %0
  %11 = landingpad { i8*, i32 }
          cleanup
  %12 = extractvalue { i8*, i32 } %11, 0
  %13 = extractvalue { i8*, i32 } %11, 1
  br label %23

14:                                               ; preds = %4
  %15 = landingpad { i8*, i32 }
          cleanup
  %16 = extractvalue { i8*, i32 } %15, 0
  %17 = extractvalue { i8*, i32 } %15, 1
  br label %22

18:                                               ; preds = %7, %5
  %19 = landingpad { i8*, i32 }
          cleanup
  %20 = extractvalue { i8*, i32 } %19, 0
  %21 = extractvalue { i8*, i32 } %19, 1
  call void @_ZNSt13random_deviceD2Ev(%"class.std::random_device"* %1) #3
  br label %22

22:                                               ; preds = %18, %14
  %.01 = phi i32 [ %21, %18 ], [ %17, %14 ]
  %.0 = phi i8* [ %20, %18 ], [ %16, %14 ]
  call void @_ZNSt7__cxx1112basic_stringIcSt11char_traitsIcESaIcEED1Ev(%"class.std::__cxx11::basic_string"* %2) #3
  br label %23

23:                                               ; preds = %22, %10
  %.12 = phi i32 [ %.01, %22 ], [ %13, %10 ]
  %.1 = phi i8* [ %.0, %22 ], [ %12, %10 ]
  call void @_ZNSaIcED1Ev(%"class.std::allocator"* %3) #3
  br label %24

24:                                               ; preds = %23
  %25 = insertvalue { i8*, i32 } undef, i8* %.1, 0
  %26 = insertvalue { i8*, i32 } %25, i32 %.12, 1
  resume { i8*, i32 } %26
}

; Function Attrs: nounwind
declare void @_ZNSaIcEC1Ev(%"class.std::allocator"*) unnamed_addr #2

declare void @_ZNSt7__cxx1112basic_stringIcSt11char_traitsIcESaIcEEC1EPKcRKS3_(%"class.std::__cxx11::basic_string"*, i8*, %"class.std::allocator"* dereferenceable(1)) unnamed_addr #1

declare i32 @__gxx_personality_v0(...)

; Function Attrs: noinline uwtable
define linkonce_odr void @_ZNSt13random_deviceC2ERKNSt7__cxx1112basic_stringIcSt11char_traitsIcESaIcEEE(%"class.std::random_device"* %0, %"class.std::__cxx11::basic_string"* dereferenceable(32) %1) unnamed_addr #0 comdat align 2 {
  call void @_ZNSt13random_device7_M_initERKNSt7__cxx1112basic_stringIcSt11char_traitsIcESaIcEEE(%"class.std::random_device"* %0, %"class.std::__cxx11::basic_string"* dereferenceable(32) %1)
  ret void
}

; Function Attrs: noinline uwtable
define linkonce_odr i32 @_ZNSt13random_deviceclEv(%"class.std::random_device"* %0) #0 comdat align 2 {
  %2 = call i32 @_ZNSt13random_device9_M_getvalEv(%"class.std::random_device"* %0)
  ret i32 %2
}

; Function Attrs: noinline uwtable
define linkonce_odr void @_ZNSt23mersenne_twister_engineImLm32ELm624ELm397ELm31ELm2567483615ELm11ELm4294967295ELm7ELm2636928640ELm15ELm4022730752ELm18ELm1812433253EEC2Em(%"class.std::mersenne_twister_engine"* %0, i64 %1) unnamed_addr #0 comdat align 2 {
  call void @_ZNSt23mersenne_twister_engineImLm32ELm624ELm397ELm31ELm2567483615ELm11ELm4294967295ELm7ELm2636928640ELm15ELm4022730752ELm18ELm1812433253EE4seedEm(%"class.std::mersenne_twister_engine"* %0, i64 %1)
  ret void
}

; Function Attrs: noinline nounwind uwtable
define linkonce_odr void @_ZNSt13random_deviceD2Ev(%"class.std::random_device"* %0) unnamed_addr #4 comdat align 2 personality i8* bitcast (i32 (...)* @__gxx_personality_v0 to i8*) {
  invoke void @_ZNSt13random_device7_M_finiEv(%"class.std::random_device"* %0)
          to label %2 unwind label %3

2:                                                ; preds = %1
  ret void

3:                                                ; preds = %1
  %4 = landingpad { i8*, i32 }
          catch i8* null
  %5 = extractvalue { i8*, i32 } %4, 0
  call void @__clang_call_terminate(i8* %5) #8
  unreachable
}

; Function Attrs: nounwind
declare void @_ZNSt7__cxx1112basic_stringIcSt11char_traitsIcESaIcEED1Ev(%"class.std::__cxx11::basic_string"*) unnamed_addr #2

; Function Attrs: nounwind
declare void @_ZNSaIcED1Ev(%"class.std::allocator"*) unnamed_addr #2

; Function Attrs: noinline uwtable
define i32 @_Z3rndi(i32 %0) #0 {
  %2 = call i64 @_ZNSt23mersenne_twister_engineImLm32ELm624ELm397ELm31ELm2567483615ELm11ELm4294967295ELm7ELm2636928640ELm15ELm4022730752ELm18ELm1812433253EEclEv(%"class.std::mersenne_twister_engine"* @mrand)
  %3 = sext i32 %0 to i64
  %4 = urem i64 %2, %3
  %5 = trunc i64 %4 to i32
  ret i32 %5
}

; Function Attrs: noinline uwtable
define linkonce_odr i64 @_ZNSt23mersenne_twister_engineImLm32ELm624ELm397ELm31ELm2567483615ELm11ELm4294967295ELm7ELm2636928640ELm15ELm4022730752ELm18ELm1812433253EEclEv(%"class.std::mersenne_twister_engine"* %0) #0 comdat align 2 {
  %2 = getelementptr inbounds %"class.std::mersenne_twister_engine", %"class.std::mersenne_twister_engine"* %0, i32 0, i32 1
  %3 = load i64, i64* %2, align 8
  %4 = icmp uge i64 %3, 624
  br i1 %4, label %5, label %6

5:                                                ; preds = %1
  call void @_ZNSt23mersenne_twister_engineImLm32ELm624ELm397ELm31ELm2567483615ELm11ELm4294967295ELm7ELm2636928640ELm15ELm4022730752ELm18ELm1812433253EE11_M_gen_randEv(%"class.std::mersenne_twister_engine"* %0)
  br label %6

6:                                                ; preds = %5, %1
  %7 = getelementptr inbounds %"class.std::mersenne_twister_engine", %"class.std::mersenne_twister_engine"* %0, i32 0, i32 0
  %8 = getelementptr inbounds %"class.std::mersenne_twister_engine", %"class.std::mersenne_twister_engine"* %0, i32 0, i32 1
  %9 = load i64, i64* %8, align 8
  %10 = add i64 %9, 1
  store i64 %10, i64* %8, align 8
  %11 = getelementptr inbounds [624 x i64], [624 x i64]* %7, i64 0, i64 %9
  %12 = load i64, i64* %11, align 8
  %13 = lshr i64 %12, 11
  %14 = and i64 %13, 4294967295
  %15 = xor i64 %12, %14
  %16 = shl i64 %15, 7
  %17 = and i64 %16, 2636928640
  %18 = xor i64 %15, %17
  %19 = shl i64 %18, 15
  %20 = and i64 %19, 4022730752
  %21 = xor i64 %18, %20
  %22 = lshr i64 %21, 18
  %23 = xor i64 %21, %22
  ret i64 %23
}

; Function Attrs: noinline uwtable
define internal void @__cxx_global_var_init.2() #0 section ".text.startup" {
  %1 = call x86_fp80 @_ZSt4acose(x86_fp80 0xKBFFF8000000000000000)
  store x86_fp80 %1, x86_fp80* @_ZL2pi, align 16
  ret void
}

; Function Attrs: noinline nounwind uwtable
define linkonce_odr x86_fp80 @_ZSt4acose(x86_fp80 %0) #4 comdat {
  %2 = call x86_fp80 @acosl(x86_fp80 %0) #3
  ret x86_fp80 %2
}

; Function Attrs: noinline nounwind uwtable
define void @_Z7precalcv() #4 {
  ret void
}

; Function Attrs: noinline uwtable
define i32 @_Z4readv() #0 {
  %1 = call i32 (i8*, ...) @scanf(i8* getelementptr inbounds ([5 x i8], [5 x i8]* @.str.3, i32 0, i32 0), i64* @k)
  %2 = icmp slt i32 %1, 1
  br i1 %2, label %3, label %4

3:                                                ; preds = %0
  br label %5

4:                                                ; preds = %0
  br label %5

5:                                                ; preds = %4, %3
  %.0 = phi i32 [ 0, %3 ], [ 1, %4 ]
  ret i32 %.0
}

declare i32 @scanf(i8*, ...) #1

; Function Attrs: noinline uwtable
define void @_Z5solvev() #0 personality i8* bitcast (i32 (...)* @__gxx_personality_v0 to i8*) {
  %1 = alloca %"class.std::__cxx11::basic_string", align 8
  %2 = alloca %"class.std::allocator", align 1
  %3 = alloca i32, align 4
  %4 = alloca i32, align 4
  %5 = alloca %"class.__gnu_cxx::__normal_iterator", align 8
  %6 = alloca %"class.__gnu_cxx::__normal_iterator", align 8
  call void @_ZNSaIcEC1Ev(%"class.std::allocator"* %2) #3
  invoke void @_ZNSt7__cxx1112basic_stringIcSt11char_traitsIcESaIcEEC1EPKcRKS3_(%"class.std::__cxx11::basic_string"* %1, i8* getelementptr inbounds ([1 x i8], [1 x i8]* @.str.4, i32 0, i32 0), %"class.std::allocator"* dereferenceable(1) %2)
          to label %7 unwind label %38

7:                                                ; preds = %0
  call void @_ZNSaIcED1Ev(%"class.std::allocator"* %2) #3
  store i32 0, i32* %3, align 4
  br label %8

8:                                                ; preds = %56, %7
  %.02 = phi i32 [ 0, %7 ], [ %57, %56 ]
  %9 = icmp slt i32 %.02, 7
  br i1 %9, label %10, label %58

10:                                               ; preds = %8
  br label %11

11:                                               ; preds = %53, %10
  %.03 = phi i32 [ 0, %10 ], [ %54, %53 ]
  %12 = icmp slt i32 %.03, 512
  br i1 %12, label %13, label %55

13:                                               ; preds = %11
  %14 = sext i32 %.02 to i64
  %15 = getelementptr inbounds [9 x i8], [9 x i8]* @_ZL3str, i64 0, i64 %14
  %16 = load i8, i8* %15, align 1
  %17 = invoke dereferenceable(32) %"class.std::__cxx11::basic_string"* @_ZNSt7__cxx1112basic_stringIcSt11char_traitsIcESaIcEEpLEc(%"class.std::__cxx11::basic_string"* %1, i8 signext %16)
          to label %18 unwind label %42

18:                                               ; preds = %13
  %19 = add nsw i32 %.03, 1
  %20 = and i32 %19, %.03
  %21 = icmp ne i32 %20, 0
  br i1 %21, label %52, label %22

22:                                               ; preds = %18
  %23 = add nsw i32 %.03, 1
  %24 = icmp slt i32 %23, 512
  br i1 %24, label %25, label %52

25:                                               ; preds = %22
  %26 = load i64, i64* @k, align 8
  %27 = load i32, i32* %3, align 4
  %28 = zext i32 %27 to i64
  %29 = ashr i64 %26, %28
  %30 = and i64 %29, 1
  %31 = icmp ne i64 %30, 0
  br i1 %31, label %32, label %46

32:                                               ; preds = %25
  %33 = sext i32 %.02 to i64
  %34 = getelementptr inbounds i8, i8* getelementptr inbounds ([9 x i8], [9 x i8]* @_ZL3str, i32 0, i32 0), i64 %33
  %35 = getelementptr inbounds i8, i8* %34, i64 1
  %36 = invoke dereferenceable(32) %"class.std::__cxx11::basic_string"* @_ZNSt7__cxx1112basic_stringIcSt11char_traitsIcESaIcEEpLEPKc(%"class.std::__cxx11::basic_string"* %1, i8* %35)
          to label %37 unwind label %42

37:                                               ; preds = %32
  br label %46

38:                                               ; preds = %0
  %39 = landingpad { i8*, i32 }
          cleanup
  %40 = extractvalue { i8*, i32 } %39, 0
  %41 = extractvalue { i8*, i32 } %39, 1
  call void @_ZNSaIcED1Ev(%"class.std::allocator"* %2) #3
  br label %71

42:                                               ; preds = %67, %58, %46, %32, %13
  %43 = landingpad { i8*, i32 }
          cleanup
  %44 = extractvalue { i8*, i32 } %43, 0
  %45 = extractvalue { i8*, i32 } %43, 1
  call void @_ZNSt7__cxx1112basic_stringIcSt11char_traitsIcESaIcEED1Ev(%"class.std::__cxx11::basic_string"* %1) #3
  br label %71

46:                                               ; preds = %37, %25
  %47 = load i32, i32* %3, align 4
  %48 = add nsw i32 %47, 1
  store i32 %48, i32* %3, align 4
  store i32 62, i32* %4, align 4
  %49 = invoke dereferenceable(4) i32* @_ZSt3minIiERKT_S2_S2_(i32* dereferenceable(4) %3, i32* dereferenceable(4) %4)
          to label %50 unwind label %42

50:                                               ; preds = %46
  %51 = load i32, i32* %49, align 4
  store i32 %51, i32* %3, align 4
  br label %52

52:                                               ; preds = %50, %22, %18
  br label %53

53:                                               ; preds = %52
  %54 = add nsw i32 %.03, 1
  br label %11

55:                                               ; preds = %11
  br label %56

56:                                               ; preds = %55
  %57 = add nsw i32 %.02, 1
  br label %8

58:                                               ; preds = %8
  %59 = call i8* @_ZNSt7__cxx1112basic_stringIcSt11char_traitsIcESaIcEE5beginEv(%"class.std::__cxx11::basic_string"* %1) #3
  %60 = getelementptr inbounds %"class.__gnu_cxx::__normal_iterator", %"class.__gnu_cxx::__normal_iterator"* %5, i32 0, i32 0
  store i8* %59, i8** %60, align 8
  %61 = call i8* @_ZNSt7__cxx1112basic_stringIcSt11char_traitsIcESaIcEE3endEv(%"class.std::__cxx11::basic_string"* %1) #3
  %62 = getelementptr inbounds %"class.__gnu_cxx::__normal_iterator", %"class.__gnu_cxx::__normal_iterator"* %6, i32 0, i32 0
  store i8* %61, i8** %62, align 8
  %63 = getelementptr inbounds %"class.__gnu_cxx::__normal_iterator", %"class.__gnu_cxx::__normal_iterator"* %5, i32 0, i32 0
  %64 = load i8*, i8** %63, align 8
  %65 = getelementptr inbounds %"class.__gnu_cxx::__normal_iterator", %"class.__gnu_cxx::__normal_iterator"* %6, i32 0, i32 0
  %66 = load i8*, i8** %65, align 8
  invoke void @_ZSt7reverseIN9__gnu_cxx17__normal_iteratorIPcNSt7__cxx1112basic_stringIcSt11char_traitsIcESaIcEEEEEEvT_SA_(i8* %64, i8* %66)
          to label %67 unwind label %42

67:                                               ; preds = %58
  %68 = call i8* @_ZNKSt7__cxx1112basic_stringIcSt11char_traitsIcESaIcEE5c_strEv(%"class.std::__cxx11::basic_string"* %1) #3
  %69 = invoke i32 (i8*, ...) @printf(i8* getelementptr inbounds ([4 x i8], [4 x i8]* @.str.5, i32 0, i32 0), i8* %68)
          to label %70 unwind label %42

70:                                               ; preds = %67
  call void @_ZNSt7__cxx1112basic_stringIcSt11char_traitsIcESaIcEED1Ev(%"class.std::__cxx11::basic_string"* %1) #3
  ret void

71:                                               ; preds = %42, %38
  %.01 = phi i32 [ %45, %42 ], [ %41, %38 ]
  %.0 = phi i8* [ %44, %42 ], [ %40, %38 ]
  %72 = insertvalue { i8*, i32 } undef, i8* %.0, 0
  %73 = insertvalue { i8*, i32 } %72, i32 %.01, 1
  resume { i8*, i32 } %73
}

declare dereferenceable(32) %"class.std::__cxx11::basic_string"* @_ZNSt7__cxx1112basic_stringIcSt11char_traitsIcESaIcEEpLEc(%"class.std::__cxx11::basic_string"*, i8 signext) #1

declare dereferenceable(32) %"class.std::__cxx11::basic_string"* @_ZNSt7__cxx1112basic_stringIcSt11char_traitsIcESaIcEEpLEPKc(%"class.std::__cxx11::basic_string"*, i8*) #1

; Function Attrs: noinline nounwind uwtable
define linkonce_odr dereferenceable(4) i32* @_ZSt3minIiERKT_S2_S2_(i32* dereferenceable(4) %0, i32* dereferenceable(4) %1) #4 comdat {
  %3 = load i32, i32* %1, align 4
  %4 = load i32, i32* %0, align 4
  %5 = icmp slt i32 %3, %4
  br i1 %5, label %6, label %7

6:                                                ; preds = %2
  br label %8

7:                                                ; preds = %2
  br label %8

8:                                                ; preds = %7, %6
  %.0 = phi i32* [ %1, %6 ], [ %0, %7 ]
  ret i32* %.0
}

; Function Attrs: noinline uwtable
define linkonce_odr void @_ZSt7reverseIN9__gnu_cxx17__normal_iteratorIPcNSt7__cxx1112basic_stringIcSt11char_traitsIcESaIcEEEEEEvT_SA_(i8* %0, i8* %1) #0 comdat {
  %3 = alloca %"class.__gnu_cxx::__normal_iterator", align 8
  %4 = alloca %"class.__gnu_cxx::__normal_iterator", align 8
  %5 = alloca %"class.__gnu_cxx::__normal_iterator", align 8
  %6 = alloca %"class.__gnu_cxx::__normal_iterator", align 8
  %7 = getelementptr inbounds %"class.__gnu_cxx::__normal_iterator", %"class.__gnu_cxx::__normal_iterator"* %3, i32 0, i32 0
  store i8* %0, i8** %7, align 8
  %8 = getelementptr inbounds %"class.__gnu_cxx::__normal_iterator", %"class.__gnu_cxx::__normal_iterator"* %4, i32 0, i32 0
  store i8* %1, i8** %8, align 8
  %9 = bitcast %"class.__gnu_cxx::__normal_iterator"* %5 to i8*
  %10 = bitcast %"class.__gnu_cxx::__normal_iterator"* %3 to i8*
  call void @llvm.memcpy.p0i8.p0i8.i64(i8* align 8 %9, i8* align 8 %10, i64 8, i1 false)
  %11 = bitcast %"class.__gnu_cxx::__normal_iterator"* %6 to i8*
  %12 = bitcast %"class.__gnu_cxx::__normal_iterator"* %4 to i8*
  call void @llvm.memcpy.p0i8.p0i8.i64(i8* align 8 %11, i8* align 8 %12, i64 8, i1 false)
  call void @_ZSt19__iterator_categoryIN9__gnu_cxx17__normal_iteratorIPcNSt7__cxx1112basic_stringIcSt11char_traitsIcESaIcEEEEEENSt15iterator_traitsIT_E17iterator_categoryERKSB_(%"class.__gnu_cxx::__normal_iterator"* dereferenceable(8) %3)
  %13 = getelementptr inbounds %"class.__gnu_cxx::__normal_iterator", %"class.__gnu_cxx::__normal_iterator"* %5, i32 0, i32 0
  %14 = load i8*, i8** %13, align 8
  %15 = getelementptr inbounds %"class.__gnu_cxx::__normal_iterator", %"class.__gnu_cxx::__normal_iterator"* %6, i32 0, i32 0
  %16 = load i8*, i8** %15, align 8
  call void @_ZSt9__reverseIN9__gnu_cxx17__normal_iteratorIPcNSt7__cxx1112basic_stringIcSt11char_traitsIcESaIcEEEEEEvT_SA_St26random_access_iterator_tag(i8* %14, i8* %16)
  ret void
}

; Function Attrs: nounwind
declare i8* @_ZNSt7__cxx1112basic_stringIcSt11char_traitsIcESaIcEE5beginEv(%"class.std::__cxx11::basic_string"*) #2

; Function Attrs: nounwind
declare i8* @_ZNSt7__cxx1112basic_stringIcSt11char_traitsIcESaIcEE3endEv(%"class.std::__cxx11::basic_string"*) #2

declare i32 @printf(i8*, ...) #1

; Function Attrs: nounwind
declare i8* @_ZNKSt7__cxx1112basic_stringIcSt11char_traitsIcESaIcEE5c_strEv(%"class.std::__cxx11::basic_string"*) #2

; Function Attrs: noinline norecurse uwtable
define i32 @main() #5 {
  call void @_Z7precalcv()
  br label %1

1:                                                ; preds = %5, %0
  %2 = call i32 @_Z4readv()
  %3 = icmp ne i32 %2, 0
  br i1 %3, label %5, label %4

4:                                                ; preds = %1
  br label %6

5:                                                ; preds = %1
  call void @_Z5solvev()
  br label %1

6:                                                ; preds = %4
  ret i32 0
}

declare void @_ZNSt13random_device7_M_initERKNSt7__cxx1112basic_stringIcSt11char_traitsIcESaIcEEE(%"class.std::random_device"*, %"class.std::__cxx11::basic_string"* dereferenceable(32)) #1

declare i32 @_ZNSt13random_device9_M_getvalEv(%"class.std::random_device"*) #1

declare void @_ZNSt13random_device7_M_finiEv(%"class.std::random_device"*) #1

; Function Attrs: noinline noreturn nounwind
define linkonce_odr hidden void @__clang_call_terminate(i8* %0) #6 comdat {
  %2 = call i8* @__cxa_begin_catch(i8* %0) #3
  call void @_ZSt9terminatev() #8
  unreachable
}

declare i8* @__cxa_begin_catch(i8*)

declare void @_ZSt9terminatev()

; Function Attrs: nounwind
declare x86_fp80 @acosl(x86_fp80) #2

; Function Attrs: noinline uwtable
define linkonce_odr void @_ZNSt23mersenne_twister_engineImLm32ELm624ELm397ELm31ELm2567483615ELm11ELm4294967295ELm7ELm2636928640ELm15ELm4022730752ELm18ELm1812433253EE4seedEm(%"class.std::mersenne_twister_engine"* %0, i64 %1) #0 comdat align 2 {
  %3 = call i64 @_ZNSt8__detail5__modImLm4294967296ELm1ELm0EEET_S1_(i64 %1)
  %4 = getelementptr inbounds %"class.std::mersenne_twister_engine", %"class.std::mersenne_twister_engine"* %0, i32 0, i32 0
  %5 = getelementptr inbounds [624 x i64], [624 x i64]* %4, i64 0, i64 0
  store i64 %3, i64* %5, align 8
  br label %6

6:                                                ; preds = %21, %2
  %.0 = phi i64 [ 1, %2 ], [ %22, %21 ]
  %7 = icmp ult i64 %.0, 624
  br i1 %7, label %8, label %23

8:                                                ; preds = %6
  %9 = getelementptr inbounds %"class.std::mersenne_twister_engine", %"class.std::mersenne_twister_engine"* %0, i32 0, i32 0
  %10 = sub i64 %.0, 1
  %11 = getelementptr inbounds [624 x i64], [624 x i64]* %9, i64 0, i64 %10
  %12 = load i64, i64* %11, align 8
  %13 = lshr i64 %12, 30
  %14 = xor i64 %12, %13
  %15 = mul i64 %14, 1812433253
  %16 = call i64 @_ZNSt8__detail5__modImLm624ELm1ELm0EEET_S1_(i64 %.0)
  %17 = add i64 %15, %16
  %18 = call i64 @_ZNSt8__detail5__modImLm4294967296ELm1ELm0EEET_S1_(i64 %17)
  %19 = getelementptr inbounds %"class.std::mersenne_twister_engine", %"class.std::mersenne_twister_engine"* %0, i32 0, i32 0
  %20 = getelementptr inbounds [624 x i64], [624 x i64]* %19, i64 0, i64 %.0
  store i64 %18, i64* %20, align 8
  br label %21

21:                                               ; preds = %8
  %22 = add i64 %.0, 1
  br label %6

23:                                               ; preds = %6
  %24 = getelementptr inbounds %"class.std::mersenne_twister_engine", %"class.std::mersenne_twister_engine"* %0, i32 0, i32 1
  store i64 624, i64* %24, align 8
  ret void
}

; Function Attrs: noinline uwtable
define linkonce_odr i64 @_ZNSt8__detail5__modImLm4294967296ELm1ELm0EEET_S1_(i64 %0) #0 comdat {
  %2 = call i64 @_ZNSt8__detail4_ModImLm4294967296ELm1ELm0ELb1ELb1EE6__calcEm(i64 %0)
  ret i64 %2
}

; Function Attrs: noinline uwtable
define linkonce_odr i64 @_ZNSt8__detail5__modImLm624ELm1ELm0EEET_S1_(i64 %0) #0 comdat {
  %2 = call i64 @_ZNSt8__detail4_ModImLm624ELm1ELm0ELb1ELb1EE6__calcEm(i64 %0)
  ret i64 %2
}

; Function Attrs: noinline nounwind uwtable
define linkonce_odr i64 @_ZNSt8__detail4_ModImLm4294967296ELm1ELm0ELb1ELb1EE6__calcEm(i64 %0) #4 comdat align 2 {
  %2 = mul i64 1, %0
  %3 = add i64 %2, 0
  %4 = urem i64 %3, 4294967296
  ret i64 %4
}

; Function Attrs: noinline nounwind uwtable
define linkonce_odr i64 @_ZNSt8__detail4_ModImLm624ELm1ELm0ELb1ELb1EE6__calcEm(i64 %0) #4 comdat align 2 {
  %2 = mul i64 1, %0
  %3 = add i64 %2, 0
  %4 = urem i64 %3, 624
  ret i64 %4
}

; Function Attrs: noinline nounwind uwtable
define linkonce_odr void @_ZNSt23mersenne_twister_engineImLm32ELm624ELm397ELm31ELm2567483615ELm11ELm4294967295ELm7ELm2636928640ELm15ELm4022730752ELm18ELm1812433253EE11_M_gen_randEv(%"class.std::mersenne_twister_engine"* %0) #4 comdat align 2 {
  br label %2

2:                                                ; preds = %28, %1
  %.01 = phi i64 [ 0, %1 ], [ %29, %28 ]
  %3 = icmp ult i64 %.01, 227
  br i1 %3, label %4, label %30

4:                                                ; preds = %2
  %5 = getelementptr inbounds %"class.std::mersenne_twister_engine", %"class.std::mersenne_twister_engine"* %0, i32 0, i32 0
  %6 = getelementptr inbounds [624 x i64], [624 x i64]* %5, i64 0, i64 %.01
  %7 = load i64, i64* %6, align 8
  %8 = and i64 %7, -2147483648
  %9 = getelementptr inbounds %"class.std::mersenne_twister_engine", %"class.std::mersenne_twister_engine"* %0, i32 0, i32 0
  %10 = add i64 %.01, 1
  %11 = getelementptr inbounds [624 x i64], [624 x i64]* %9, i64 0, i64 %10
  %12 = load i64, i64* %11, align 8
  %13 = and i64 %12, 2147483647
  %14 = or i64 %8, %13
  %15 = getelementptr inbounds %"class.std::mersenne_twister_engine", %"class.std::mersenne_twister_engine"* %0, i32 0, i32 0
  %16 = add i64 %.01, 397
  %17 = getelementptr inbounds [624 x i64], [624 x i64]* %15, i64 0, i64 %16
  %18 = load i64, i64* %17, align 8
  %19 = lshr i64 %14, 1
  %20 = xor i64 %18, %19
  %21 = and i64 %14, 1
  %22 = icmp ne i64 %21, 0
  %23 = zext i1 %22 to i64
  %24 = select i1 %22, i64 2567483615, i64 0
  %25 = xor i64 %20, %24
  %26 = getelementptr inbounds %"class.std::mersenne_twister_engine", %"class.std::mersenne_twister_engine"* %0, i32 0, i32 0
  %27 = getelementptr inbounds [624 x i64], [624 x i64]* %26, i64 0, i64 %.01
  store i64 %25, i64* %27, align 8
  br label %28

28:                                               ; preds = %4
  %29 = add i64 %.01, 1
  br label %2

30:                                               ; preds = %2
  br label %31

31:                                               ; preds = %57, %30
  %.0 = phi i64 [ 227, %30 ], [ %58, %57 ]
  %32 = icmp ult i64 %.0, 623
  br i1 %32, label %33, label %59

33:                                               ; preds = %31
  %34 = getelementptr inbounds %"class.std::mersenne_twister_engine", %"class.std::mersenne_twister_engine"* %0, i32 0, i32 0
  %35 = getelementptr inbounds [624 x i64], [624 x i64]* %34, i64 0, i64 %.0
  %36 = load i64, i64* %35, align 8
  %37 = and i64 %36, -2147483648
  %38 = getelementptr inbounds %"class.std::mersenne_twister_engine", %"class.std::mersenne_twister_engine"* %0, i32 0, i32 0
  %39 = add i64 %.0, 1
  %40 = getelementptr inbounds [624 x i64], [624 x i64]* %38, i64 0, i64 %39
  %41 = load i64, i64* %40, align 8
  %42 = and i64 %41, 2147483647
  %43 = or i64 %37, %42
  %44 = getelementptr inbounds %"class.std::mersenne_twister_engine", %"class.std::mersenne_twister_engine"* %0, i32 0, i32 0
  %45 = add i64 %.0, -227
  %46 = getelementptr inbounds [624 x i64], [624 x i64]* %44, i64 0, i64 %45
  %47 = load i64, i64* %46, align 8
  %48 = lshr i64 %43, 1
  %49 = xor i64 %47, %48
  %50 = and i64 %43, 1
  %51 = icmp ne i64 %50, 0
  %52 = zext i1 %51 to i64
  %53 = select i1 %51, i64 2567483615, i64 0
  %54 = xor i64 %49, %53
  %55 = getelementptr inbounds %"class.std::mersenne_twister_engine", %"class.std::mersenne_twister_engine"* %0, i32 0, i32 0
  %56 = getelementptr inbounds [624 x i64], [624 x i64]* %55, i64 0, i64 %.0
  store i64 %54, i64* %56, align 8
  br label %57

57:                                               ; preds = %33
  %58 = add i64 %.0, 1
  br label %31

59:                                               ; preds = %31
  %60 = getelementptr inbounds %"class.std::mersenne_twister_engine", %"class.std::mersenne_twister_engine"* %0, i32 0, i32 0
  %61 = getelementptr inbounds [624 x i64], [624 x i64]* %60, i64 0, i64 623
  %62 = load i64, i64* %61, align 8
  %63 = and i64 %62, -2147483648
  %64 = getelementptr inbounds %"class.std::mersenne_twister_engine", %"class.std::mersenne_twister_engine"* %0, i32 0, i32 0
  %65 = getelementptr inbounds [624 x i64], [624 x i64]* %64, i64 0, i64 0
  %66 = load i64, i64* %65, align 8
  %67 = and i64 %66, 2147483647
  %68 = or i64 %63, %67
  %69 = getelementptr inbounds %"class.std::mersenne_twister_engine", %"class.std::mersenne_twister_engine"* %0, i32 0, i32 0
  %70 = getelementptr inbounds [624 x i64], [624 x i64]* %69, i64 0, i64 396
  %71 = load i64, i64* %70, align 8
  %72 = lshr i64 %68, 1
  %73 = xor i64 %71, %72
  %74 = and i64 %68, 1
  %75 = icmp ne i64 %74, 0
  %76 = zext i1 %75 to i64
  %77 = select i1 %75, i64 2567483615, i64 0
  %78 = xor i64 %73, %77
  %79 = getelementptr inbounds %"class.std::mersenne_twister_engine", %"class.std::mersenne_twister_engine"* %0, i32 0, i32 0
  %80 = getelementptr inbounds [624 x i64], [624 x i64]* %79, i64 0, i64 623
  store i64 %78, i64* %80, align 8
  %81 = getelementptr inbounds %"class.std::mersenne_twister_engine", %"class.std::mersenne_twister_engine"* %0, i32 0, i32 1
  store i64 0, i64* %81, align 8
  ret void
}

; Function Attrs: noinline uwtable
define linkonce_odr void @_ZSt9__reverseIN9__gnu_cxx17__normal_iteratorIPcNSt7__cxx1112basic_stringIcSt11char_traitsIcESaIcEEEEEEvT_SA_St26random_access_iterator_tag(i8* %0, i8* %1) #0 comdat {
  %3 = alloca %"class.__gnu_cxx::__normal_iterator", align 8
  %4 = alloca %"class.__gnu_cxx::__normal_iterator", align 8
  %5 = alloca %"class.__gnu_cxx::__normal_iterator", align 8
  %6 = alloca %"class.__gnu_cxx::__normal_iterator", align 8
  %7 = getelementptr inbounds %"class.__gnu_cxx::__normal_iterator", %"class.__gnu_cxx::__normal_iterator"* %3, i32 0, i32 0
  store i8* %0, i8** %7, align 8
  %8 = getelementptr inbounds %"class.__gnu_cxx::__normal_iterator", %"class.__gnu_cxx::__normal_iterator"* %4, i32 0, i32 0
  store i8* %1, i8** %8, align 8
  %9 = call zeroext i1 @_ZN9__gnu_cxxeqIPcNSt7__cxx1112basic_stringIcSt11char_traitsIcESaIcEEEEEbRKNS_17__normal_iteratorIT_T0_EESD_(%"class.__gnu_cxx::__normal_iterator"* dereferenceable(8) %3, %"class.__gnu_cxx::__normal_iterator"* dereferenceable(8) %4) #3
  br i1 %9, label %10, label %11

10:                                               ; preds = %2
  br label %26

11:                                               ; preds = %2
  %12 = call dereferenceable(8) %"class.__gnu_cxx::__normal_iterator"* @_ZN9__gnu_cxx17__normal_iteratorIPcNSt7__cxx1112basic_stringIcSt11char_traitsIcESaIcEEEEmmEv(%"class.__gnu_cxx::__normal_iterator"* %4) #3
  br label %13

13:                                               ; preds = %15, %11
  %14 = call zeroext i1 @_ZN9__gnu_cxxltIPcNSt7__cxx1112basic_stringIcSt11char_traitsIcESaIcEEEEEbRKNS_17__normal_iteratorIT_T0_EESD_(%"class.__gnu_cxx::__normal_iterator"* dereferenceable(8) %3, %"class.__gnu_cxx::__normal_iterator"* dereferenceable(8) %4) #3
  br i1 %14, label %15, label %26

15:                                               ; preds = %13
  %16 = bitcast %"class.__gnu_cxx::__normal_iterator"* %5 to i8*
  %17 = bitcast %"class.__gnu_cxx::__normal_iterator"* %3 to i8*
  call void @llvm.memcpy.p0i8.p0i8.i64(i8* align 8 %16, i8* align 8 %17, i64 8, i1 false)
  %18 = bitcast %"class.__gnu_cxx::__normal_iterator"* %6 to i8*
  %19 = bitcast %"class.__gnu_cxx::__normal_iterator"* %4 to i8*
  call void @llvm.memcpy.p0i8.p0i8.i64(i8* align 8 %18, i8* align 8 %19, i64 8, i1 false)
  %20 = getelementptr inbounds %"class.__gnu_cxx::__normal_iterator", %"class.__gnu_cxx::__normal_iterator"* %5, i32 0, i32 0
  %21 = load i8*, i8** %20, align 8
  %22 = getelementptr inbounds %"class.__gnu_cxx::__normal_iterator", %"class.__gnu_cxx::__normal_iterator"* %6, i32 0, i32 0
  %23 = load i8*, i8** %22, align 8
  call void @_ZSt9iter_swapIN9__gnu_cxx17__normal_iteratorIPcNSt7__cxx1112basic_stringIcSt11char_traitsIcESaIcEEEEES9_EvT_T0_(i8* %21, i8* %23)
  %24 = call dereferenceable(8) %"class.__gnu_cxx::__normal_iterator"* @_ZN9__gnu_cxx17__normal_iteratorIPcNSt7__cxx1112basic_stringIcSt11char_traitsIcESaIcEEEEppEv(%"class.__gnu_cxx::__normal_iterator"* %3) #3
  %25 = call dereferenceable(8) %"class.__gnu_cxx::__normal_iterator"* @_ZN9__gnu_cxx17__normal_iteratorIPcNSt7__cxx1112basic_stringIcSt11char_traitsIcESaIcEEEEmmEv(%"class.__gnu_cxx::__normal_iterator"* %4) #3
  br label %13

26:                                               ; preds = %13, %10
  ret void
}

; Function Attrs: noinline nounwind uwtable
define linkonce_odr void @_ZSt19__iterator_categoryIN9__gnu_cxx17__normal_iteratorIPcNSt7__cxx1112basic_stringIcSt11char_traitsIcESaIcEEEEEENSt15iterator_traitsIT_E17iterator_categoryERKSB_(%"class.__gnu_cxx::__normal_iterator"* dereferenceable(8) %0) #4 comdat {
  ret void
}

; Function Attrs: noinline nounwind uwtable
define linkonce_odr zeroext i1 @_ZN9__gnu_cxxeqIPcNSt7__cxx1112basic_stringIcSt11char_traitsIcESaIcEEEEEbRKNS_17__normal_iteratorIT_T0_EESD_(%"class.__gnu_cxx::__normal_iterator"* dereferenceable(8) %0, %"class.__gnu_cxx::__normal_iterator"* dereferenceable(8) %1) #4 comdat {
  %3 = call dereferenceable(8) i8** @_ZNK9__gnu_cxx17__normal_iteratorIPcNSt7__cxx1112basic_stringIcSt11char_traitsIcESaIcEEEE4baseEv(%"class.__gnu_cxx::__normal_iterator"* %0) #3
  %4 = load i8*, i8** %3, align 8
  %5 = call dereferenceable(8) i8** @_ZNK9__gnu_cxx17__normal_iteratorIPcNSt7__cxx1112basic_stringIcSt11char_traitsIcESaIcEEEE4baseEv(%"class.__gnu_cxx::__normal_iterator"* %1) #3
  %6 = load i8*, i8** %5, align 8
  %7 = icmp eq i8* %4, %6
  ret i1 %7
}

; Function Attrs: noinline nounwind uwtable
define linkonce_odr dereferenceable(8) %"class.__gnu_cxx::__normal_iterator"* @_ZN9__gnu_cxx17__normal_iteratorIPcNSt7__cxx1112basic_stringIcSt11char_traitsIcESaIcEEEEmmEv(%"class.__gnu_cxx::__normal_iterator"* %0) #4 comdat align 2 {
  %2 = getelementptr inbounds %"class.__gnu_cxx::__normal_iterator", %"class.__gnu_cxx::__normal_iterator"* %0, i32 0, i32 0
  %3 = load i8*, i8** %2, align 8
  %4 = getelementptr inbounds i8, i8* %3, i32 -1
  store i8* %4, i8** %2, align 8
  ret %"class.__gnu_cxx::__normal_iterator"* %0
}

; Function Attrs: noinline nounwind uwtable
define linkonce_odr zeroext i1 @_ZN9__gnu_cxxltIPcNSt7__cxx1112basic_stringIcSt11char_traitsIcESaIcEEEEEbRKNS_17__normal_iteratorIT_T0_EESD_(%"class.__gnu_cxx::__normal_iterator"* dereferenceable(8) %0, %"class.__gnu_cxx::__normal_iterator"* dereferenceable(8) %1) #4 comdat {
  %3 = call dereferenceable(8) i8** @_ZNK9__gnu_cxx17__normal_iteratorIPcNSt7__cxx1112basic_stringIcSt11char_traitsIcESaIcEEEE4baseEv(%"class.__gnu_cxx::__normal_iterator"* %0) #3
  %4 = load i8*, i8** %3, align 8
  %5 = call dereferenceable(8) i8** @_ZNK9__gnu_cxx17__normal_iteratorIPcNSt7__cxx1112basic_stringIcSt11char_traitsIcESaIcEEEE4baseEv(%"class.__gnu_cxx::__normal_iterator"* %1) #3
  %6 = load i8*, i8** %5, align 8
  %7 = icmp ult i8* %4, %6
  ret i1 %7
}

; Function Attrs: noinline nounwind uwtable
define linkonce_odr void @_ZSt9iter_swapIN9__gnu_cxx17__normal_iteratorIPcNSt7__cxx1112basic_stringIcSt11char_traitsIcESaIcEEEEES9_EvT_T0_(i8* %0, i8* %1) #4 comdat {
  %3 = alloca %"class.__gnu_cxx::__normal_iterator", align 8
  %4 = alloca %"class.__gnu_cxx::__normal_iterator", align 8
  %5 = getelementptr inbounds %"class.__gnu_cxx::__normal_iterator", %"class.__gnu_cxx::__normal_iterator"* %3, i32 0, i32 0
  store i8* %0, i8** %5, align 8
  %6 = getelementptr inbounds %"class.__gnu_cxx::__normal_iterator", %"class.__gnu_cxx::__normal_iterator"* %4, i32 0, i32 0
  store i8* %1, i8** %6, align 8
  %7 = call dereferenceable(1) i8* @_ZNK9__gnu_cxx17__normal_iteratorIPcNSt7__cxx1112basic_stringIcSt11char_traitsIcESaIcEEEEdeEv(%"class.__gnu_cxx::__normal_iterator"* %3) #3
  %8 = call dereferenceable(1) i8* @_ZNK9__gnu_cxx17__normal_iteratorIPcNSt7__cxx1112basic_stringIcSt11char_traitsIcESaIcEEEEdeEv(%"class.__gnu_cxx::__normal_iterator"* %4) #3
  call void @_ZSt4swapIcENSt9enable_ifIXsr6__and_ISt6__not_ISt15__is_tuple_likeIT_EESt21is_move_constructibleIS3_ESt18is_move_assignableIS3_EEE5valueEvE4typeERS3_SC_(i8* dereferenceable(1) %7, i8* dereferenceable(1) %8) #3
  ret void
}

; Function Attrs: noinline nounwind uwtable
define linkonce_odr dereferenceable(8) %"class.__gnu_cxx::__normal_iterator"* @_ZN9__gnu_cxx17__normal_iteratorIPcNSt7__cxx1112basic_stringIcSt11char_traitsIcESaIcEEEEppEv(%"class.__gnu_cxx::__normal_iterator"* %0) #4 comdat align 2 {
  %2 = getelementptr inbounds %"class.__gnu_cxx::__normal_iterator", %"class.__gnu_cxx::__normal_iterator"* %0, i32 0, i32 0
  %3 = load i8*, i8** %2, align 8
  %4 = getelementptr inbounds i8, i8* %3, i32 1
  store i8* %4, i8** %2, align 8
  ret %"class.__gnu_cxx::__normal_iterator"* %0
}

; Function Attrs: noinline nounwind uwtable
define linkonce_odr dereferenceable(8) i8** @_ZNK9__gnu_cxx17__normal_iteratorIPcNSt7__cxx1112basic_stringIcSt11char_traitsIcESaIcEEEE4baseEv(%"class.__gnu_cxx::__normal_iterator"* %0) #4 comdat align 2 {
  %2 = getelementptr inbounds %"class.__gnu_cxx::__normal_iterator", %"class.__gnu_cxx::__normal_iterator"* %0, i32 0, i32 0
  ret i8** %2
}

; Function Attrs: noinline nounwind uwtable
define linkonce_odr void @_ZSt4swapIcENSt9enable_ifIXsr6__and_ISt6__not_ISt15__is_tuple_likeIT_EESt21is_move_constructibleIS3_ESt18is_move_assignableIS3_EEE5valueEvE4typeERS3_SC_(i8* dereferenceable(1) %0, i8* dereferenceable(1) %1) #4 comdat {
  %3 = alloca i8, align 1
  %4 = call dereferenceable(1) i8* @_ZSt4moveIRcEONSt16remove_referenceIT_E4typeEOS2_(i8* dereferenceable(1) %0) #3
  %5 = load i8, i8* %4, align 1
  store i8 %5, i8* %3, align 1
  %6 = call dereferenceable(1) i8* @_ZSt4moveIRcEONSt16remove_referenceIT_E4typeEOS2_(i8* dereferenceable(1) %1) #3
  %7 = load i8, i8* %6, align 1
  store i8 %7, i8* %0, align 1
  %8 = call dereferenceable(1) i8* @_ZSt4moveIRcEONSt16remove_referenceIT_E4typeEOS2_(i8* dereferenceable(1) %3) #3
  %9 = load i8, i8* %8, align 1
  store i8 %9, i8* %1, align 1
  ret void
}

; Function Attrs: noinline nounwind uwtable
define linkonce_odr dereferenceable(1) i8* @_ZNK9__gnu_cxx17__normal_iteratorIPcNSt7__cxx1112basic_stringIcSt11char_traitsIcESaIcEEEEdeEv(%"class.__gnu_cxx::__normal_iterator"* %0) #4 comdat align 2 {
  %2 = getelementptr inbounds %"class.__gnu_cxx::__normal_iterator", %"class.__gnu_cxx::__normal_iterator"* %0, i32 0, i32 0
  %3 = load i8*, i8** %2, align 8
  ret i8* %3
}

; Function Attrs: noinline nounwind uwtable
define linkonce_odr dereferenceable(1) i8* @_ZSt4moveIRcEONSt16remove_referenceIT_E4typeEOS2_(i8* dereferenceable(1) %0) #4 comdat {
  ret i8* %0
}

; Function Attrs: noinline uwtable
define internal void @_GLOBAL__sub_I_s334741980.cpp() #0 section ".text.startup" {
  call void @__cxx_global_var_init()
  call void @__cxx_global_var_init.1()
  call void @__cxx_global_var_init.2()
  ret void
}

; Function Attrs: argmemonly nocallback nofree nounwind willreturn
declare void @llvm.memcpy.p0i8.p0i8.i64(i8* noalias nocapture writeonly, i8* noalias nocapture readonly, i64, i1 immarg) #7

attributes #0 = { noinline uwtable "correctly-rounded-divide-sqrt-fp-math"="false" "disable-tail-calls"="false" "less-precise-fpmad"="false" "no-frame-pointer-elim"="true" "no-frame-pointer-elim-non-leaf" "no-infs-fp-math"="false" "no-jump-tables"="false" "no-nans-fp-math"="false" "no-signed-zeros-fp-math"="false" "no-trapping-math"="false" "stack-protector-buffer-size"="8" "target-cpu"="x86-64" "target-features"="+fxsr,+mmx,+sse,+sse2,+x87" "unsafe-fp-math"="false" "use-soft-float"="false" }
attributes #1 = { "correctly-rounded-divide-sqrt-fp-math"="false" "disable-tail-calls"="false" "less-precise-fpmad"="false" "no-frame-pointer-elim"="true" "no-frame-pointer-elim-non-leaf" "no-infs-fp-math"="false" "no-nans-fp-math"="false" "no-signed-zeros-fp-math"="false" "no-trapping-math"="false" "stack-protector-buffer-size"="8" "target-cpu"="x86-64" "target-features"="+fxsr,+mmx,+sse,+sse2,+x87" "unsafe-fp-math"="false" "use-soft-float"="false" }
attributes #2 = { nounwind "correctly-rounded-divide-sqrt-fp-math"="false" "disable-tail-calls"="false" "less-precise-fpmad"="false" "no-frame-pointer-elim"="true" "no-frame-pointer-elim-non-leaf" "no-infs-fp-math"="false" "no-nans-fp-math"="false" "no-signed-zeros-fp-math"="false" "no-trapping-math"="false" "stack-protector-buffer-size"="8" "target-cpu"="x86-64" "target-features"="+fxsr,+mmx,+sse,+sse2,+x87" "unsafe-fp-math"="false" "use-soft-float"="false" }
attributes #3 = { nounwind }
attributes #4 = { noinline nounwind uwtable "correctly-rounded-divide-sqrt-fp-math"="false" "disable-tail-calls"="false" "less-precise-fpmad"="false" "no-frame-pointer-elim"="true" "no-frame-pointer-elim-non-leaf" "no-infs-fp-math"="false" "no-jump-tables"="false" "no-nans-fp-math"="false" "no-signed-zeros-fp-math"="false" "no-trapping-math"="false" "stack-protector-buffer-size"="8" "target-cpu"="x86-64" "target-features"="+fxsr,+mmx,+sse,+sse2,+x87" "unsafe-fp-math"="false" "use-soft-float"="false" }
attributes #5 = { noinline norecurse uwtable "correctly-rounded-divide-sqrt-fp-math"="false" "disable-tail-calls"="false" "less-precise-fpmad"="false" "no-frame-pointer-elim"="true" "no-frame-pointer-elim-non-leaf" "no-infs-fp-math"="false" "no-jump-tables"="false" "no-nans-fp-math"="false" "no-signed-zeros-fp-math"="false" "no-trapping-math"="false" "stack-protector-buffer-size"="8" "target-cpu"="x86-64" "target-features"="+fxsr,+mmx,+sse,+sse2,+x87" "unsafe-fp-math"="false" "use-soft-float"="false" }
attributes #6 = { noinline noreturn nounwind }
attributes #7 = { argmemonly nocallback nofree nounwind willreturn }
attributes #8 = { noreturn nounwind }

!llvm.module.flags = !{!0}
!llvm.ident = !{!1}

!0 = !{i32 1, !"wchar_size", i32 4}
!1 = !{!"clang version 6.0.0-1ubuntu2 (tags/RELEASE_600/final)"}
