; ModuleID = '/home/pedro/tcc/exDataset/codenet/data/selection/p03928/s891779088.ll'
source_filename = "/home/pedro/tcc/exDataset/codenet/data/selection/p03928/s891779088.cpp"
target datalayout = "e-m:e-i64:64-f80:128-n8:16:32:64-S128"
target triple = "x86_64-pc-linux-gnu"

%"class.std::ios_base::Init" = type { i8 }
%"class.std::vector" = type { %"struct.std::_Vector_base" }
%"struct.std::_Vector_base" = type { %"struct.std::_Vector_base<std::pair<int, int>, std::allocator<std::pair<int, int> > >::_Vector_impl" }
%"struct.std::_Vector_base<std::pair<int, int>, std::allocator<std::pair<int, int> > >::_Vector_impl" = type { %"struct.std::pair"*, %"struct.std::pair"*, %"struct.std::pair"* }
%"struct.std::pair" = type { i32, i32 }
%"class.std::basic_istream" = type { i32 (...)**, i64, %"class.std::basic_ios" }
%"class.std::basic_ios" = type { %"class.std::ios_base", %"class.std::basic_ostream"*, i8, i8, %"class.std::basic_streambuf"*, %"class.std::ctype"*, %"class.std::num_put"*, %"class.std::num_get"* }
%"class.std::ios_base" = type { i32 (...)**, i64, i64, i32, i32, i32, %"struct.std::ios_base::_Callback_list"*, %"struct.std::ios_base::_Words", [8 x %"struct.std::ios_base::_Words"], i32, %"struct.std::ios_base::_Words"*, %"class.std::locale" }
%"struct.std::ios_base::_Callback_list" = type { %"struct.std::ios_base::_Callback_list"*, void (i32, %"class.std::ios_base"*, i32)*, i32, i32 }
%"struct.std::ios_base::_Words" = type { i8*, i64 }
%"class.std::locale" = type { %"class.std::locale::_Impl"* }
%"class.std::locale::_Impl" = type { i32, %"class.std::locale::facet"**, i64, %"class.std::locale::facet"**, i8** }
%"class.std::locale::facet" = type <{ i32 (...)**, i32, [4 x i8] }>
%"class.std::basic_ostream" = type { i32 (...)**, %"class.std::basic_ios" }
%"class.std::basic_streambuf" = type { i32 (...)**, i8*, i8*, i8*, i8*, i8*, i8*, %"class.std::locale" }
%"class.std::ctype" = type <{ %"class.std::locale::facet.base", [4 x i8], %struct.__locale_struct*, i8, [7 x i8], i32*, i32*, i16*, i8, [256 x i8], [256 x i8], i8, [6 x i8] }>
%"class.std::locale::facet.base" = type <{ i32 (...)**, i32 }>
%struct.__locale_struct = type { [13 x %struct.__locale_data*], i16*, i32*, i32*, [13 x i8*] }
%struct.__locale_data = type opaque
%"class.std::num_put" = type { %"class.std::locale::facet.base", [4 x i8] }
%"class.std::num_get" = type { %"class.std::locale::facet.base", [4 x i8] }
%"class.std::allocator" = type { i8 }
%"class.std::__pair_base" = type { i8 }
%"class.__gnu_cxx::new_allocator" = type { i8 }
%"class.__gnu_cxx::__normal_iterator" = type { %"struct.std::pair"* }
%"class.std::move_iterator" = type { %"struct.std::pair"* }
%"struct.__gnu_cxx::__ops::_Iter_comp_iter" = type { %class.anon }
%class.anon = type { i8 }
%"struct.__gnu_cxx::__ops::_Iter_comp_val" = type { %class.anon }
%"struct.__gnu_cxx::__ops::_Val_comp_iter" = type { %class.anon }

$_ZNSt6vectorISt4pairIiiESaIS1_EEC2Ev = comdat any

$_ZNSt6vectorISt4pairIiiESaIS1_EED2Ev = comdat any

$_ZNSt6vectorISt4pairIiiESaIS1_EE9push_backEOS1_ = comdat any

$_ZSt9make_pairIRiS0_ESt4pairINSt17__decay_and_stripIT_E6__typeENS2_IT0_E6__typeEEOS3_OS6_ = comdat any

$_ZNKSt6vectorISt4pairIiiESaIS1_EE4sizeEv = comdat any

$_ZSteqIiiEbRKSt4pairIT_T0_ES5_ = comdat any

$_ZNSt6vectorISt4pairIiiESaIS1_EEixEm = comdat any

$_ZSt4swapIiENSt9enable_ifIXsr6__and_ISt6__not_ISt15__is_tuple_likeIT_EESt21is_move_constructibleIS3_ESt18is_move_assignableIS3_EEE5valueEvE4typeERS3_SC_ = comdat any

$_ZNSt6vectorISt4pairIiiESaIS1_EE8pop_backEv = comdat any

$_Z5debugIPiEvT_S1_ = comdat any

$_ZSt7forwardIRiEOT_RNSt16remove_referenceIS1_E4typeE = comdat any

$_ZNSt4pairIiiEC2IRiS2_Lb1EEEOT_OT0_ = comdat any

$_ZNSt12_Vector_baseISt4pairIiiESaIS1_EEC2Ev = comdat any

$__clang_call_terminate = comdat any

$_ZNSt12_Vector_baseISt4pairIiiESaIS1_EE12_Vector_implC2Ev = comdat any

$_ZNSaISt4pairIiiEEC2Ev = comdat any

$_ZN9__gnu_cxx13new_allocatorISt4pairIiiEEC2Ev = comdat any

$_ZSt8_DestroyIPSt4pairIiiES1_EvT_S3_RSaIT0_E = comdat any

$_ZNSt12_Vector_baseISt4pairIiiESaIS1_EE19_M_get_Tp_allocatorEv = comdat any

$_ZNSt12_Vector_baseISt4pairIiiESaIS1_EED2Ev = comdat any

$_ZSt8_DestroyIPSt4pairIiiEEvT_S3_ = comdat any

$_ZNSt12_Destroy_auxILb1EE9__destroyIPSt4pairIiiEEEvT_S5_ = comdat any

$_ZNSt12_Vector_baseISt4pairIiiESaIS1_EE13_M_deallocateEPS1_m = comdat any

$_ZNSt12_Vector_baseISt4pairIiiESaIS1_EE12_Vector_implD2Ev = comdat any

$_ZNSt16allocator_traitsISaISt4pairIiiEEE10deallocateERS2_PS1_m = comdat any

$_ZN9__gnu_cxx13new_allocatorISt4pairIiiEE10deallocateEPS2_m = comdat any

$_ZNSaISt4pairIiiEED2Ev = comdat any

$_ZN9__gnu_cxx13new_allocatorISt4pairIiiEED2Ev = comdat any

$_ZNSt6vectorISt4pairIiiESaIS1_EE12emplace_backIJS1_EEEvDpOT_ = comdat any

$_ZSt4moveIRSt4pairIiiEEONSt16remove_referenceIT_E4typeEOS4_ = comdat any

$_ZNSt16allocator_traitsISaISt4pairIiiEEE9constructIS1_JS1_EEEvRS2_PT_DpOT0_ = comdat any

$_ZSt7forwardISt4pairIiiEEOT_RNSt16remove_referenceIS2_E4typeE = comdat any

$_ZNSt6vectorISt4pairIiiESaIS1_EE17_M_realloc_insertIJS1_EEEvN9__gnu_cxx17__normal_iteratorIPS1_S3_EEDpOT_ = comdat any

$_ZNSt6vectorISt4pairIiiESaIS1_EE3endEv = comdat any

$_ZN9__gnu_cxx13new_allocatorISt4pairIiiEE9constructIS2_JS2_EEEvPT_DpOT0_ = comdat any

$_ZNKSt6vectorISt4pairIiiESaIS1_EE12_M_check_lenEmPKc = comdat any

$_ZN9__gnu_cxxmiIPSt4pairIiiESt6vectorIS2_SaIS2_EEEENS_17__normal_iteratorIT_T0_E15difference_typeERKSA_SD_ = comdat any

$_ZNSt6vectorISt4pairIiiESaIS1_EE5beginEv = comdat any

$_ZNSt12_Vector_baseISt4pairIiiESaIS1_EE11_M_allocateEm = comdat any

$_ZSt34__uninitialized_move_if_noexcept_aIPSt4pairIiiES2_SaIS1_EET0_T_S5_S4_RT1_ = comdat any

$_ZNK9__gnu_cxx17__normal_iteratorIPSt4pairIiiESt6vectorIS2_SaIS2_EEE4baseEv = comdat any

$_ZNSt16allocator_traitsISaISt4pairIiiEEE7destroyIS1_EEvRS2_PT_ = comdat any

$_ZNKSt6vectorISt4pairIiiESaIS1_EE8max_sizeEv = comdat any

$_ZSt3maxImERKT_S2_S2_ = comdat any

$_ZNSt16allocator_traitsISaISt4pairIiiEEE8max_sizeERKS2_ = comdat any

$_ZNKSt12_Vector_baseISt4pairIiiESaIS1_EE19_M_get_Tp_allocatorEv = comdat any

$_ZNK9__gnu_cxx13new_allocatorISt4pairIiiEE8max_sizeEv = comdat any

$_ZN9__gnu_cxx17__normal_iteratorIPSt4pairIiiESt6vectorIS2_SaIS2_EEEC2ERKS3_ = comdat any

$_ZNSt16allocator_traitsISaISt4pairIiiEEE8allocateERS2_m = comdat any

$_ZN9__gnu_cxx13new_allocatorISt4pairIiiEE8allocateEmPKv = comdat any

$_ZSt22__uninitialized_copy_aISt13move_iteratorIPSt4pairIiiEES3_S2_ET0_T_S6_S5_RSaIT1_E = comdat any

$_ZSt32__make_move_if_noexcept_iteratorISt4pairIiiESt13move_iteratorIPS1_EET0_PT_ = comdat any

$_ZSt18uninitialized_copyISt13move_iteratorIPSt4pairIiiEES3_ET0_T_S6_S5_ = comdat any

$_ZNSt20__uninitialized_copyILb0EE13__uninit_copyISt13move_iteratorIPSt4pairIiiEES5_EET0_T_S8_S7_ = comdat any

$_ZStneIPSt4pairIiiEEbRKSt13move_iteratorIT_ES7_ = comdat any

$_ZSt10_ConstructISt4pairIiiEJS1_EEvPT_DpOT0_ = comdat any

$_ZSt11__addressofISt4pairIiiEEPT_RS2_ = comdat any

$_ZNKSt13move_iteratorIPSt4pairIiiEEdeEv = comdat any

$_ZNSt13move_iteratorIPSt4pairIiiEEppEv = comdat any

$_ZSteqIPSt4pairIiiEEbRKSt13move_iteratorIT_ES7_ = comdat any

$_ZNKSt13move_iteratorIPSt4pairIiiEE4baseEv = comdat any

$_ZNSt13move_iteratorIPSt4pairIiiEEC2ES2_ = comdat any

$_ZN9__gnu_cxx13new_allocatorISt4pairIiiEE7destroyIS2_EEvPT_ = comdat any

$_ZSt4moveIRiEONSt16remove_referenceIT_E4typeEOS2_ = comdat any

$_ZSt4__lgl = comdat any

$_ZSt9iter_swapIPiS0_EvT_T0_ = comdat any

$_ZSt13move_backwardIPiS0_ET0_T_S2_S1_ = comdat any

$_ZSt23__copy_move_backward_a2ILb1EPiS0_ET1_T0_S2_S1_ = comdat any

$_ZSt12__miter_baseIPiET_S1_ = comdat any

$_ZSt22__copy_move_backward_aILb1EPiS0_ET1_T0_S2_S1_ = comdat any

$_ZSt12__niter_baseIPiET_S1_ = comdat any

$_ZNSt20__copy_move_backwardILb1ELb1ESt26random_access_iterator_tagE13__copy_move_bIiEEPT_PKS3_S6_S4_ = comdat any

@_ZStL8__ioinit = internal global %"class.std::ios_base::Init" zeroinitializer, align 1
@__dso_handle = external hidden global i8
@n = global i32 0, align 4
@ar = global [4 x [305 x i32]] zeroinitializer, align 16
@.str = private unnamed_addr constant [3 x i8] c"NO\00", align 1
@buf = global [305 x [305 x i32]] zeroinitializer, align 16
@dx = global [4 x i32] [i32 0, i32 1, i32 0, i32 -1], align 16
@dy = global [4 x i32] [i32 1, i32 0, i32 -1, i32 0], align 16
@LR = global [305 x i32] zeroinitializer, align 16
@UD = global [305 x i32] zeroinitializer, align 16
@ud = global [305 x i32] zeroinitializer, align 16
@perm = global [305 x i32] zeroinitializer, align 16
@done = global [305 x [305 x i8]] zeroinitializer, align 16
@vis = global [305 x [305 x i8]] zeroinitializer, align 16
@start = global [305 x [305 x i8]] zeroinitializer, align 16
@ever = global %"class.std::vector" zeroinitializer, align 8
@_ZZ3dfsiiE4code = private unnamed_addr constant [5 x i8] c"DRUL\00", align 1
@.str.2 = private unnamed_addr constant [6 x i8] c"%c%d\0A\00", align 1
@_ZSt3cin = external global %"class.std::basic_istream", align 8
@.str.3 = private unnamed_addr constant [26 x i8] c"vector::_M_realloc_insert\00", align 1
@llvm.global_ctors = appending global [1 x { i32, void ()*, i8* }] [{ i32, void ()*, i8* } { i32 65535, void ()* @_GLOBAL__sub_I_s891779088.cpp, i8* null }]

; Function Attrs: noinline uwtable
define internal void @__cxx_global_var_init() #0 section ".text.startup" {
  call void @_ZNSt8ios_base4InitC1Ev(%"class.std::ios_base::Init"* @_ZStL8__ioinit)
  %1 = call i32 @__cxa_atexit(void (i8*)* bitcast (void (%"class.std::ios_base::Init"*)* @_ZNSt8ios_base4InitD1Ev to void (i8*)*), i8* getelementptr inbounds (%"class.std::ios_base::Init", %"class.std::ios_base::Init"* @_ZStL8__ioinit, i32 0, i32 0), i8* @__dso_handle) #3
  ret void
}

declare void @_ZNSt8ios_base4InitC1Ev(%"class.std::ios_base::Init"*) unnamed_addr #1

; Function Attrs: nounwind
declare void @_ZNSt8ios_base4InitD1Ev(%"class.std::ios_base::Init"*) unnamed_addr #2

; Function Attrs: nounwind
declare i32 @__cxa_atexit(void (i8*)*, i8*, i8*) #3

; Function Attrs: noinline uwtable
define void @_Z2ngv() #0 {
  %1 = call i32 @puts(i8* getelementptr inbounds ([3 x i8], [3 x i8]* @.str, i32 0, i32 0))
  call void @exit(i32 0) #14
  unreachable

2:                                                ; No predecessors!
  ret void
}

declare i32 @puts(i8*) #1

; Function Attrs: noreturn nounwind
declare void @exit(i32) #4

; Function Attrs: noinline uwtable
define internal void @__cxx_global_var_init.1() #0 section ".text.startup" {
  call void @_ZNSt6vectorISt4pairIiiESaIS1_EEC2Ev(%"class.std::vector"* @ever) #3
  %1 = call i32 @__cxa_atexit(void (i8*)* bitcast (void (%"class.std::vector"*)* @_ZNSt6vectorISt4pairIiiESaIS1_EED2Ev to void (i8*)*), i8* bitcast (%"class.std::vector"* @ever to i8*), i8* @__dso_handle) #3
  ret void
}

; Function Attrs: noinline nounwind uwtable
define linkonce_odr void @_ZNSt6vectorISt4pairIiiESaIS1_EEC2Ev(%"class.std::vector"* %0) unnamed_addr #5 comdat align 2 personality i8* bitcast (i32 (...)* @__gxx_personality_v0 to i8*) {
  %2 = bitcast %"class.std::vector"* %0 to %"struct.std::_Vector_base"*
  invoke void @_ZNSt12_Vector_baseISt4pairIiiESaIS1_EEC2Ev(%"struct.std::_Vector_base"* %2)
          to label %3 unwind label %4

3:                                                ; preds = %1
  ret void

4:                                                ; preds = %1
  %5 = landingpad { i8*, i32 }
          catch i8* null
  %6 = extractvalue { i8*, i32 } %5, 0
  call void @__clang_call_terminate(i8* %6) #14
  unreachable
}

; Function Attrs: noinline nounwind uwtable
define linkonce_odr void @_ZNSt6vectorISt4pairIiiESaIS1_EED2Ev(%"class.std::vector"* %0) unnamed_addr #5 comdat align 2 personality i8* bitcast (i32 (...)* @__gxx_personality_v0 to i8*) {
  %2 = bitcast %"class.std::vector"* %0 to %"struct.std::_Vector_base"*
  %3 = getelementptr inbounds %"struct.std::_Vector_base", %"struct.std::_Vector_base"* %2, i32 0, i32 0
  %4 = getelementptr inbounds %"struct.std::_Vector_base<std::pair<int, int>, std::allocator<std::pair<int, int> > >::_Vector_impl", %"struct.std::_Vector_base<std::pair<int, int>, std::allocator<std::pair<int, int> > >::_Vector_impl"* %3, i32 0, i32 0
  %5 = load %"struct.std::pair"*, %"struct.std::pair"** %4, align 8
  %6 = bitcast %"class.std::vector"* %0 to %"struct.std::_Vector_base"*
  %7 = getelementptr inbounds %"struct.std::_Vector_base", %"struct.std::_Vector_base"* %6, i32 0, i32 0
  %8 = getelementptr inbounds %"struct.std::_Vector_base<std::pair<int, int>, std::allocator<std::pair<int, int> > >::_Vector_impl", %"struct.std::_Vector_base<std::pair<int, int>, std::allocator<std::pair<int, int> > >::_Vector_impl"* %7, i32 0, i32 1
  %9 = load %"struct.std::pair"*, %"struct.std::pair"** %8, align 8
  %10 = bitcast %"class.std::vector"* %0 to %"struct.std::_Vector_base"*
  %11 = call dereferenceable(1) %"class.std::allocator"* @_ZNSt12_Vector_baseISt4pairIiiESaIS1_EE19_M_get_Tp_allocatorEv(%"struct.std::_Vector_base"* %10) #3
  invoke void @_ZSt8_DestroyIPSt4pairIiiES1_EvT_S3_RSaIT0_E(%"struct.std::pair"* %5, %"struct.std::pair"* %9, %"class.std::allocator"* dereferenceable(1) %11)
          to label %12 unwind label %14

12:                                               ; preds = %1
  %13 = bitcast %"class.std::vector"* %0 to %"struct.std::_Vector_base"*
  call void @_ZNSt12_Vector_baseISt4pairIiiESaIS1_EED2Ev(%"struct.std::_Vector_base"* %13) #3
  ret void

14:                                               ; preds = %1
  %15 = landingpad { i8*, i32 }
          catch i8* null
  %16 = extractvalue { i8*, i32 } %15, 0
  %17 = extractvalue { i8*, i32 } %15, 1
  %18 = bitcast %"class.std::vector"* %0 to %"struct.std::_Vector_base"*
  call void @_ZNSt12_Vector_baseISt4pairIiiESaIS1_EED2Ev(%"struct.std::_Vector_base"* %18) #3
  br label %19

19:                                               ; preds = %14
  call void @__clang_call_terminate(i8* %16) #14
  unreachable
}

; Function Attrs: noinline uwtable
define zeroext i1 @_Z3dfsii(i32 %0, i32 %1) #0 {
  %3 = alloca i32, align 4
  %4 = alloca i32, align 4
  %5 = alloca %"struct.std::pair", align 4
  %6 = alloca %"struct.std::pair", align 4
  %7 = alloca %"struct.std::pair", align 4
  %8 = alloca %"struct.std::pair", align 4
  %9 = alloca [5 x i8], align 1
  store i32 %0, i32* %3, align 4
  store i32 %1, i32* %4, align 4
  %10 = call i64 @_ZSt9make_pairIRiS0_ESt4pairINSt17__decay_and_stripIT_E6__typeENS2_IT0_E6__typeEEOS3_OS6_(i32* dereferenceable(4) %3, i32* dereferenceable(4) %4)
  %11 = bitcast %"struct.std::pair"* %5 to i64*
  store i64 %10, i64* %11, align 4
  call void @_ZNSt6vectorISt4pairIiiESaIS1_EE9push_backEOS1_(%"class.std::vector"* @ever, %"struct.std::pair"* dereferenceable(8) %5)
  %12 = load i32, i32* %3, align 4
  %13 = sext i32 %12 to i64
  %14 = getelementptr inbounds [305 x [305 x i8]], [305 x [305 x i8]]* @vis, i64 0, i64 %13
  %15 = load i32, i32* %4, align 4
  %16 = sext i32 %15 to i64
  %17 = getelementptr inbounds [305 x i8], [305 x i8]* %14, i64 0, i64 %16
  %18 = load i8, i8* %17, align 1
  %19 = trunc i8 %18 to i1
  br i1 %19, label %20, label %84

20:                                               ; preds = %2
  %21 = call i64 @_ZNKSt6vectorISt4pairIiiESaIS1_EE4sizeEv(%"class.std::vector"* @ever) #3
  %22 = trunc i64 %21 to i32
  %23 = sub nsw i32 %22, 1
  br label %24

24:                                               ; preds = %75, %20
  %.02 = phi i32 [ %23, %20 ], [ %76, %75 ]
  %25 = icmp sge i32 %.02, 0
  br i1 %25, label %26, label %77

26:                                               ; preds = %24
  %27 = sext i32 %.02 to i64
  %28 = call dereferenceable(8) %"struct.std::pair"* @_ZNSt6vectorISt4pairIiiESaIS1_EEixEm(%"class.std::vector"* @ever, i64 %27) #3
  %29 = call i64 @_ZSt9make_pairIRiS0_ESt4pairINSt17__decay_and_stripIT_E6__typeENS2_IT0_E6__typeEEOS3_OS6_(i32* dereferenceable(4) %3, i32* dereferenceable(4) %4)
  %30 = bitcast %"struct.std::pair"* %6 to i64*
  store i64 %29, i64* %30, align 4
  %31 = call zeroext i1 @_ZSteqIiiEbRKSt4pairIT_T0_ES5_(%"struct.std::pair"* dereferenceable(8) %28, %"struct.std::pair"* dereferenceable(8) %6)
  br i1 %31, label %32, label %74

32:                                               ; preds = %26
  %33 = sub nsw i32 %22, 1
  br label %34

34:                                               ; preds = %65, %32
  %.03 = phi i32 [ %33, %32 ], [ %66, %65 ]
  %35 = icmp sgt i32 %.03, %.02
  br i1 %35, label %36, label %67

36:                                               ; preds = %34
  %37 = add nsw i32 %.03, 1
  %38 = icmp eq i32 %37, %22
  br i1 %38, label %39, label %40

39:                                               ; preds = %36
  br label %40

40:                                               ; preds = %39, %36
  %.04 = phi i32 [ %.02, %39 ], [ %37, %36 ]
  %41 = sext i32 %.03 to i64
  %42 = call dereferenceable(8) %"struct.std::pair"* @_ZNSt6vectorISt4pairIiiESaIS1_EEixEm(%"class.std::vector"* @ever, i64 %41) #3
  %43 = bitcast %"struct.std::pair"* %7 to i8*
  %44 = bitcast %"struct.std::pair"* %42 to i8*
  call void @llvm.memcpy.p0i8.p0i8.i64(i8* align 4 %43, i8* align 4 %44, i64 8, i1 false)
  %45 = sext i32 %.04 to i64
  %46 = call dereferenceable(8) %"struct.std::pair"* @_ZNSt6vectorISt4pairIiiESaIS1_EEixEm(%"class.std::vector"* @ever, i64 %45) #3
  %47 = bitcast %"struct.std::pair"* %8 to i8*
  %48 = bitcast %"struct.std::pair"* %46 to i8*
  call void @llvm.memcpy.p0i8.p0i8.i64(i8* align 4 %47, i8* align 4 %48, i64 8, i1 false)
  %49 = getelementptr inbounds %"struct.std::pair", %"struct.std::pair"* %7, i32 0, i32 0
  %50 = load i32, i32* %49, align 4
  %51 = sext i32 %50 to i64
  %52 = getelementptr inbounds [305 x [305 x i32]], [305 x [305 x i32]]* @buf, i64 0, i64 %51
  %53 = getelementptr inbounds %"struct.std::pair", %"struct.std::pair"* %7, i32 0, i32 1
  %54 = load i32, i32* %53, align 4
  %55 = sext i32 %54 to i64
  %56 = getelementptr inbounds [305 x i32], [305 x i32]* %52, i64 0, i64 %55
  %57 = getelementptr inbounds %"struct.std::pair", %"struct.std::pair"* %8, i32 0, i32 0
  %58 = load i32, i32* %57, align 4
  %59 = sext i32 %58 to i64
  %60 = getelementptr inbounds [305 x [305 x i32]], [305 x [305 x i32]]* @buf, i64 0, i64 %59
  %61 = getelementptr inbounds %"struct.std::pair", %"struct.std::pair"* %8, i32 0, i32 1
  %62 = load i32, i32* %61, align 4
  %63 = sext i32 %62 to i64
  %64 = getelementptr inbounds [305 x i32], [305 x i32]* %60, i64 0, i64 %63
  call void @_ZSt4swapIiENSt9enable_ifIXsr6__and_ISt6__not_ISt15__is_tuple_likeIT_EESt21is_move_constructibleIS3_ESt18is_move_assignableIS3_EEE5valueEvE4typeERS3_SC_(i32* dereferenceable(4) %56, i32* dereferenceable(4) %64) #3
  br label %65

65:                                               ; preds = %40
  %66 = add nsw i32 %.03, -1
  br label %34

67:                                               ; preds = %34
  %68 = load i32, i32* %3, align 4
  %69 = sext i32 %68 to i64
  %70 = getelementptr inbounds [305 x [305 x i8]], [305 x [305 x i8]]* @start, i64 0, i64 %69
  %71 = load i32, i32* %4, align 4
  %72 = sext i32 %71 to i64
  %73 = getelementptr inbounds [305 x i8], [305 x i8]* %70, i64 0, i64 %72
  store i8 1, i8* %73, align 1
  br label %74

74:                                               ; preds = %67, %26
  br label %75

75:                                               ; preds = %74
  %76 = add nsw i32 %.02, -1
  br label %24

77:                                               ; preds = %24
  %78 = load i32, i32* %3, align 4
  %79 = sext i32 %78 to i64
  %80 = getelementptr inbounds [305 x [305 x i8]], [305 x [305 x i8]]* @vis, i64 0, i64 %79
  %81 = load i32, i32* %4, align 4
  %82 = sext i32 %81 to i64
  %83 = getelementptr inbounds [305 x i8], [305 x i8]* %80, i64 0, i64 %82
  store i8 0, i8* %83, align 1
  br label %209

84:                                               ; preds = %2
  %85 = load i32, i32* %3, align 4
  %86 = sext i32 %85 to i64
  %87 = getelementptr inbounds [305 x [305 x i8]], [305 x [305 x i8]]* @vis, i64 0, i64 %86
  %88 = load i32, i32* %4, align 4
  %89 = sext i32 %88 to i64
  %90 = getelementptr inbounds [305 x i8], [305 x i8]* %87, i64 0, i64 %89
  store i8 1, i8* %90, align 1
  %91 = load i32, i32* %3, align 4
  %92 = sext i32 %91 to i64
  %93 = getelementptr inbounds [305 x [305 x i32]], [305 x [305 x i32]]* @buf, i64 0, i64 %92
  %94 = load i32, i32* %4, align 4
  %95 = sext i32 %94 to i64
  %96 = getelementptr inbounds [305 x i32], [305 x i32]* %93, i64 0, i64 %95
  %97 = load i32, i32* %96, align 4
  %98 = load i32, i32* %3, align 4
  %99 = sext i32 %97 to i64
  %100 = getelementptr inbounds [4 x i32], [4 x i32]* @dy, i64 0, i64 %99
  %101 = load i32, i32* %100, align 4
  %102 = add nsw i32 %98, %101
  %103 = load i32, i32* %4, align 4
  %104 = sext i32 %97 to i64
  %105 = getelementptr inbounds [4 x i32], [4 x i32]* @dx, i64 0, i64 %104
  %106 = load i32, i32* %105, align 4
  %107 = add nsw i32 %103, %106
  br label %108

108:                                              ; preds = %163, %84
  %.05 = phi i32 [ %102, %84 ], [ %171, %163 ]
  %.01 = phi i32 [ %107, %84 ], [ %167, %163 ]
  %109 = icmp slt i32 %.01, 0
  br i1 %109, label %118, label %110

110:                                              ; preds = %108
  %111 = icmp slt i32 %.05, 0
  br i1 %111, label %118, label %112

112:                                              ; preds = %110
  %113 = load i32, i32* @n, align 4
  %114 = icmp sge i32 %.01, %113
  br i1 %114, label %118, label %115

115:                                              ; preds = %112
  %116 = load i32, i32* @n, align 4
  %117 = icmp sge i32 %.05, %116
  br label %118

118:                                              ; preds = %115, %112, %110, %108
  %119 = phi i1 [ true, %112 ], [ true, %110 ], [ true, %108 ], [ %117, %115 ]
  %120 = xor i1 %119, true
  br i1 %120, label %121, label %172

121:                                              ; preds = %118
  %122 = sext i32 %.05 to i64
  %123 = getelementptr inbounds [305 x [305 x i8]], [305 x [305 x i8]]* @done, i64 0, i64 %122
  %124 = sext i32 %.01 to i64
  %125 = getelementptr inbounds [305 x i8], [305 x i8]* %123, i64 0, i64 %124
  %126 = load i8, i8* %125, align 1
  %127 = trunc i8 %126 to i1
  br i1 %127, label %163, label %128

128:                                              ; preds = %121
  %129 = call zeroext i1 @_Z3dfsii(i32 %.05, i32 %.01)
  br i1 %129, label %130, label %162

130:                                              ; preds = %128
  %131 = load i32, i32* %3, align 4
  %132 = sext i32 %131 to i64
  %133 = getelementptr inbounds [305 x [305 x i8]], [305 x [305 x i8]]* @start, i64 0, i64 %132
  %134 = load i32, i32* %4, align 4
  %135 = sext i32 %134 to i64
  %136 = getelementptr inbounds [305 x i8], [305 x i8]* %133, i64 0, i64 %135
  %137 = load i8, i8* %136, align 1
  %138 = trunc i8 %137 to i1
  br i1 %138, label %139, label %155

139:                                              ; preds = %130
  %140 = load i32, i32* %3, align 4
  %141 = sext i32 %140 to i64
  %142 = getelementptr inbounds [305 x [305 x i8]], [305 x [305 x i8]]* @start, i64 0, i64 %141
  %143 = load i32, i32* %4, align 4
  %144 = sext i32 %143 to i64
  %145 = getelementptr inbounds [305 x i8], [305 x i8]* %142, i64 0, i64 %144
  store i8 0, i8* %145, align 1
  call void @_ZNSt6vectorISt4pairIiiESaIS1_EE8pop_backEv(%"class.std::vector"* @ever) #3
  %146 = load i32, i32* %3, align 4
  %147 = sext i32 %146 to i64
  %148 = getelementptr inbounds [305 x [305 x i8]], [305 x [305 x i8]]* @vis, i64 0, i64 %147
  %149 = load i32, i32* %4, align 4
  %150 = sext i32 %149 to i64
  %151 = getelementptr inbounds [305 x i8], [305 x i8]* %148, i64 0, i64 %150
  store i8 0, i8* %151, align 1
  %152 = load i32, i32* %3, align 4
  %153 = load i32, i32* %4, align 4
  %154 = call zeroext i1 @_Z3dfsii(i32 %152, i32 %153)
  br label %209

155:                                              ; preds = %130
  %156 = load i32, i32* %3, align 4
  %157 = sext i32 %156 to i64
  %158 = getelementptr inbounds [305 x [305 x i8]], [305 x [305 x i8]]* @vis, i64 0, i64 %157
  %159 = load i32, i32* %4, align 4
  %160 = sext i32 %159 to i64
  %161 = getelementptr inbounds [305 x i8], [305 x i8]* %158, i64 0, i64 %160
  store i8 0, i8* %161, align 1
  call void @_ZNSt6vectorISt4pairIiiESaIS1_EE8pop_backEv(%"class.std::vector"* @ever) #3
  br label %209

162:                                              ; preds = %128
  br label %163

163:                                              ; preds = %162, %121
  %164 = sext i32 %97 to i64
  %165 = getelementptr inbounds [4 x i32], [4 x i32]* @dx, i64 0, i64 %164
  %166 = load i32, i32* %165, align 4
  %167 = add nsw i32 %.01, %166
  %168 = sext i32 %97 to i64
  %169 = getelementptr inbounds [4 x i32], [4 x i32]* @dy, i64 0, i64 %168
  %170 = load i32, i32* %169, align 4
  %171 = add nsw i32 %.05, %170
  br label %108

172:                                              ; preds = %118
  %173 = load i32, i32* %3, align 4
  %174 = sext i32 %173 to i64
  %175 = getelementptr inbounds [305 x [305 x i8]], [305 x [305 x i8]]* @done, i64 0, i64 %174
  %176 = load i32, i32* %4, align 4
  %177 = sext i32 %176 to i64
  %178 = getelementptr inbounds [305 x i8], [305 x i8]* %175, i64 0, i64 %177
  store i8 1, i8* %178, align 1
  %179 = bitcast [5 x i8]* %9 to i8*
  call void @llvm.memcpy.p0i8.p0i8.i64(i8* align 1 %179, i8* align 1 getelementptr inbounds ([5 x i8], [5 x i8]* @_ZZ3dfsiiE4code, i32 0, i32 0), i64 5, i1 false)
  %180 = load i32, i32* %3, align 4
  %181 = sext i32 %180 to i64
  %182 = getelementptr inbounds [305 x [305 x i32]], [305 x [305 x i32]]* @buf, i64 0, i64 %181
  %183 = load i32, i32* %4, align 4
  %184 = sext i32 %183 to i64
  %185 = getelementptr inbounds [305 x i32], [305 x i32]* %182, i64 0, i64 %184
  %186 = load i32, i32* %185, align 4
  %187 = sext i32 %186 to i64
  %188 = getelementptr inbounds [5 x i8], [5 x i8]* %9, i64 0, i64 %187
  %189 = load i8, i8* %188, align 1
  %190 = sext i8 %189 to i32
  %191 = load i32, i32* %3, align 4
  %192 = sext i32 %191 to i64
  %193 = getelementptr inbounds [305 x [305 x i32]], [305 x [305 x i32]]* @buf, i64 0, i64 %192
  %194 = load i32, i32* %4, align 4
  %195 = sext i32 %194 to i64
  %196 = getelementptr inbounds [305 x i32], [305 x i32]* %193, i64 0, i64 %195
  %197 = load i32, i32* %196, align 4
  %198 = and i32 %197, 1
  %199 = icmp ne i32 %198, 0
  br i1 %199, label %200, label %203

200:                                              ; preds = %172
  %201 = load i32, i32* %3, align 4
  %202 = add nsw i32 %201, 1
  br label %206

203:                                              ; preds = %172
  %204 = load i32, i32* %4, align 4
  %205 = add nsw i32 %204, 1
  br label %206

206:                                              ; preds = %203, %200
  %207 = phi i32 [ %202, %200 ], [ %205, %203 ]
  %208 = call i32 (i8*, ...) @printf(i8* getelementptr inbounds ([6 x i8], [6 x i8]* @.str.2, i32 0, i32 0), i32 %190, i32 %207)
  call void @_ZNSt6vectorISt4pairIiiESaIS1_EE8pop_backEv(%"class.std::vector"* @ever) #3
  br label %209

209:                                              ; preds = %206, %155, %139, %77
  %.0 = phi i1 [ true, %77 ], [ %154, %139 ], [ true, %155 ], [ false, %206 ]
  ret i1 %.0
}

; Function Attrs: noinline uwtable
define linkonce_odr void @_ZNSt6vectorISt4pairIiiESaIS1_EE9push_backEOS1_(%"class.std::vector"* %0, %"struct.std::pair"* dereferenceable(8) %1) #0 comdat align 2 {
  %3 = call dereferenceable(8) %"struct.std::pair"* @_ZSt4moveIRSt4pairIiiEEONSt16remove_referenceIT_E4typeEOS4_(%"struct.std::pair"* dereferenceable(8) %1) #3
  call void @_ZNSt6vectorISt4pairIiiESaIS1_EE12emplace_backIJS1_EEEvDpOT_(%"class.std::vector"* %0, %"struct.std::pair"* dereferenceable(8) %3)
  ret void
}

; Function Attrs: noinline uwtable
define linkonce_odr i64 @_ZSt9make_pairIRiS0_ESt4pairINSt17__decay_and_stripIT_E6__typeENS2_IT0_E6__typeEEOS3_OS6_(i32* dereferenceable(4) %0, i32* dereferenceable(4) %1) #0 comdat {
  %3 = alloca %"struct.std::pair", align 4
  %4 = call dereferenceable(4) i32* @_ZSt7forwardIRiEOT_RNSt16remove_referenceIS1_E4typeE(i32* dereferenceable(4) %0) #3
  %5 = call dereferenceable(4) i32* @_ZSt7forwardIRiEOT_RNSt16remove_referenceIS1_E4typeE(i32* dereferenceable(4) %1) #3
  call void @_ZNSt4pairIiiEC2IRiS2_Lb1EEEOT_OT0_(%"struct.std::pair"* %3, i32* dereferenceable(4) %4, i32* dereferenceable(4) %5)
  %6 = bitcast %"struct.std::pair"* %3 to i64*
  %7 = load i64, i64* %6, align 4
  ret i64 %7
}

; Function Attrs: noinline nounwind uwtable
define linkonce_odr i64 @_ZNKSt6vectorISt4pairIiiESaIS1_EE4sizeEv(%"class.std::vector"* %0) #5 comdat align 2 {
  %2 = bitcast %"class.std::vector"* %0 to %"struct.std::_Vector_base"*
  %3 = getelementptr inbounds %"struct.std::_Vector_base", %"struct.std::_Vector_base"* %2, i32 0, i32 0
  %4 = getelementptr inbounds %"struct.std::_Vector_base<std::pair<int, int>, std::allocator<std::pair<int, int> > >::_Vector_impl", %"struct.std::_Vector_base<std::pair<int, int>, std::allocator<std::pair<int, int> > >::_Vector_impl"* %3, i32 0, i32 1
  %5 = load %"struct.std::pair"*, %"struct.std::pair"** %4, align 8
  %6 = bitcast %"class.std::vector"* %0 to %"struct.std::_Vector_base"*
  %7 = getelementptr inbounds %"struct.std::_Vector_base", %"struct.std::_Vector_base"* %6, i32 0, i32 0
  %8 = getelementptr inbounds %"struct.std::_Vector_base<std::pair<int, int>, std::allocator<std::pair<int, int> > >::_Vector_impl", %"struct.std::_Vector_base<std::pair<int, int>, std::allocator<std::pair<int, int> > >::_Vector_impl"* %7, i32 0, i32 0
  %9 = load %"struct.std::pair"*, %"struct.std::pair"** %8, align 8
  %10 = ptrtoint %"struct.std::pair"* %5 to i64
  %11 = ptrtoint %"struct.std::pair"* %9 to i64
  %12 = sub i64 %10, %11
  %13 = sdiv exact i64 %12, 8
  ret i64 %13
}

; Function Attrs: noinline nounwind uwtable
define linkonce_odr zeroext i1 @_ZSteqIiiEbRKSt4pairIT_T0_ES5_(%"struct.std::pair"* dereferenceable(8) %0, %"struct.std::pair"* dereferenceable(8) %1) #5 comdat {
  %3 = getelementptr inbounds %"struct.std::pair", %"struct.std::pair"* %0, i32 0, i32 0
  %4 = load i32, i32* %3, align 4
  %5 = getelementptr inbounds %"struct.std::pair", %"struct.std::pair"* %1, i32 0, i32 0
  %6 = load i32, i32* %5, align 4
  %7 = icmp eq i32 %4, %6
  br i1 %7, label %8, label %14

8:                                                ; preds = %2
  %9 = getelementptr inbounds %"struct.std::pair", %"struct.std::pair"* %0, i32 0, i32 1
  %10 = load i32, i32* %9, align 4
  %11 = getelementptr inbounds %"struct.std::pair", %"struct.std::pair"* %1, i32 0, i32 1
  %12 = load i32, i32* %11, align 4
  %13 = icmp eq i32 %10, %12
  br label %14

14:                                               ; preds = %8, %2
  %15 = phi i1 [ false, %2 ], [ %13, %8 ]
  ret i1 %15
}

; Function Attrs: noinline nounwind uwtable
define linkonce_odr dereferenceable(8) %"struct.std::pair"* @_ZNSt6vectorISt4pairIiiESaIS1_EEixEm(%"class.std::vector"* %0, i64 %1) #5 comdat align 2 {
  %3 = bitcast %"class.std::vector"* %0 to %"struct.std::_Vector_base"*
  %4 = getelementptr inbounds %"struct.std::_Vector_base", %"struct.std::_Vector_base"* %3, i32 0, i32 0
  %5 = getelementptr inbounds %"struct.std::_Vector_base<std::pair<int, int>, std::allocator<std::pair<int, int> > >::_Vector_impl", %"struct.std::_Vector_base<std::pair<int, int>, std::allocator<std::pair<int, int> > >::_Vector_impl"* %4, i32 0, i32 0
  %6 = load %"struct.std::pair"*, %"struct.std::pair"** %5, align 8
  %7 = getelementptr inbounds %"struct.std::pair", %"struct.std::pair"* %6, i64 %1
  ret %"struct.std::pair"* %7
}

; Function Attrs: noinline nounwind uwtable
define linkonce_odr void @_ZSt4swapIiENSt9enable_ifIXsr6__and_ISt6__not_ISt15__is_tuple_likeIT_EESt21is_move_constructibleIS3_ESt18is_move_assignableIS3_EEE5valueEvE4typeERS3_SC_(i32* dereferenceable(4) %0, i32* dereferenceable(4) %1) #5 comdat {
  %3 = alloca i32, align 4
  %4 = call dereferenceable(4) i32* @_ZSt4moveIRiEONSt16remove_referenceIT_E4typeEOS2_(i32* dereferenceable(4) %0) #3
  %5 = load i32, i32* %4, align 4
  store i32 %5, i32* %3, align 4
  %6 = call dereferenceable(4) i32* @_ZSt4moveIRiEONSt16remove_referenceIT_E4typeEOS2_(i32* dereferenceable(4) %1) #3
  %7 = load i32, i32* %6, align 4
  store i32 %7, i32* %0, align 4
  %8 = call dereferenceable(4) i32* @_ZSt4moveIRiEONSt16remove_referenceIT_E4typeEOS2_(i32* dereferenceable(4) %3) #3
  %9 = load i32, i32* %8, align 4
  store i32 %9, i32* %1, align 4
  ret void
}

; Function Attrs: noinline nounwind uwtable
define linkonce_odr void @_ZNSt6vectorISt4pairIiiESaIS1_EE8pop_backEv(%"class.std::vector"* %0) #5 comdat align 2 personality i8* bitcast (i32 (...)* @__gxx_personality_v0 to i8*) {
  %2 = bitcast %"class.std::vector"* %0 to %"struct.std::_Vector_base"*
  %3 = getelementptr inbounds %"struct.std::_Vector_base", %"struct.std::_Vector_base"* %2, i32 0, i32 0
  %4 = getelementptr inbounds %"struct.std::_Vector_base<std::pair<int, int>, std::allocator<std::pair<int, int> > >::_Vector_impl", %"struct.std::_Vector_base<std::pair<int, int>, std::allocator<std::pair<int, int> > >::_Vector_impl"* %3, i32 0, i32 1
  %5 = load %"struct.std::pair"*, %"struct.std::pair"** %4, align 8
  %6 = getelementptr inbounds %"struct.std::pair", %"struct.std::pair"* %5, i32 -1
  store %"struct.std::pair"* %6, %"struct.std::pair"** %4, align 8
  %7 = bitcast %"class.std::vector"* %0 to %"struct.std::_Vector_base"*
  %8 = getelementptr inbounds %"struct.std::_Vector_base", %"struct.std::_Vector_base"* %7, i32 0, i32 0
  %9 = bitcast %"struct.std::_Vector_base<std::pair<int, int>, std::allocator<std::pair<int, int> > >::_Vector_impl"* %8 to %"class.std::allocator"*
  %10 = bitcast %"class.std::vector"* %0 to %"struct.std::_Vector_base"*
  %11 = getelementptr inbounds %"struct.std::_Vector_base", %"struct.std::_Vector_base"* %10, i32 0, i32 0
  %12 = getelementptr inbounds %"struct.std::_Vector_base<std::pair<int, int>, std::allocator<std::pair<int, int> > >::_Vector_impl", %"struct.std::_Vector_base<std::pair<int, int>, std::allocator<std::pair<int, int> > >::_Vector_impl"* %11, i32 0, i32 1
  %13 = load %"struct.std::pair"*, %"struct.std::pair"** %12, align 8
  invoke void @_ZNSt16allocator_traitsISaISt4pairIiiEEE7destroyIS1_EEvRS2_PT_(%"class.std::allocator"* dereferenceable(1) %9, %"struct.std::pair"* %13)
          to label %14 unwind label %15

14:                                               ; preds = %1
  ret void

15:                                               ; preds = %1
  %16 = landingpad { i8*, i32 }
          catch i8* null
  %17 = extractvalue { i8*, i32 } %16, 0
  call void @__clang_call_terminate(i8* %17) #14
  unreachable
}

declare i32 @printf(i8*, ...) #1

; Function Attrs: noinline norecurse uwtable
define i32 @main() #6 {
  %1 = call dereferenceable(280) %"class.std::basic_istream"* @_ZNSirsERi(%"class.std::basic_istream"* @_ZSt3cin, i32* dereferenceable(4) @n)
  br label %2

2:                                                ; preds = %17, %0
  %.01 = phi i32 [ 0, %0 ], [ %18, %17 ]
  %3 = icmp slt i32 %.01, 4
  br i1 %3, label %4, label %19

4:                                                ; preds = %2
  br label %5

5:                                                ; preds = %14, %4
  %.02 = phi i32 [ 0, %4 ], [ %15, %14 ]
  %6 = load i32, i32* @n, align 4
  %7 = icmp slt i32 %.02, %6
  br i1 %7, label %8, label %16

8:                                                ; preds = %5
  %9 = sext i32 %.01 to i64
  %10 = getelementptr inbounds [4 x [305 x i32]], [4 x [305 x i32]]* @ar, i64 0, i64 %9
  %11 = sext i32 %.02 to i64
  %12 = getelementptr inbounds [305 x i32], [305 x i32]* %10, i64 0, i64 %11
  %13 = call dereferenceable(280) %"class.std::basic_istream"* @_ZNSirsERi(%"class.std::basic_istream"* @_ZSt3cin, i32* dereferenceable(4) %12)
  br label %14

14:                                               ; preds = %8
  %15 = add nsw i32 %.02, 1
  br label %5

16:                                               ; preds = %5
  br label %17

17:                                               ; preds = %16
  %18 = add nsw i32 %.01, 1
  br label %2

19:                                               ; preds = %2
  br label %20

20:                                               ; preds = %45, %19
  %.03 = phi i32 [ 0, %19 ], [ %46, %45 ]
  %21 = load i32, i32* @n, align 4
  %22 = icmp slt i32 %.03, %21
  br i1 %22, label %23, label %47

23:                                               ; preds = %20
  %24 = sext i32 %.03 to i64
  %25 = getelementptr inbounds [305 x i32], [305 x i32]* getelementptr inbounds ([4 x [305 x i32]], [4 x [305 x i32]]* @ar, i64 0, i64 0), i64 0, i64 %24
  %26 = load i32, i32* %25, align 4
  %27 = sext i32 %.03 to i64
  %28 = getelementptr inbounds [305 x i32], [305 x i32]* getelementptr inbounds ([4 x [305 x i32]], [4 x [305 x i32]]* @ar, i64 0, i64 1), i64 0, i64 %27
  %29 = load i32, i32* %28, align 4
  %30 = add nsw i32 %26, %29
  %31 = load i32, i32* @n, align 4
  %32 = icmp sgt i32 %30, %31
  br i1 %32, label %43, label %33

33:                                               ; preds = %23
  %34 = sext i32 %.03 to i64
  %35 = getelementptr inbounds [305 x i32], [305 x i32]* getelementptr inbounds ([4 x [305 x i32]], [4 x [305 x i32]]* @ar, i64 0, i64 2), i64 0, i64 %34
  %36 = load i32, i32* %35, align 4
  %37 = sext i32 %.03 to i64
  %38 = getelementptr inbounds [305 x i32], [305 x i32]* getelementptr inbounds ([4 x [305 x i32]], [4 x [305 x i32]]* @ar, i64 0, i64 3), i64 0, i64 %37
  %39 = load i32, i32* %38, align 4
  %40 = add nsw i32 %36, %39
  %41 = load i32, i32* @n, align 4
  %42 = icmp sgt i32 %40, %41
  br i1 %42, label %43, label %44

43:                                               ; preds = %33, %23
  call void @_Z2ngv()
  br label %44

44:                                               ; preds = %43, %33
  br label %45

45:                                               ; preds = %44
  %46 = add nsw i32 %.03, 1
  br label %20

47:                                               ; preds = %20
  br label %48

48:                                               ; preds = %70, %47
  %.04 = phi i32 [ 0, %47 ], [ %71, %70 ]
  %49 = load i32, i32* @n, align 4
  %50 = icmp slt i32 %.04, %49
  br i1 %50, label %51, label %72

51:                                               ; preds = %48
  %52 = sext i32 %.04 to i64
  %53 = getelementptr inbounds [305 x i32], [305 x i32]* getelementptr inbounds ([4 x [305 x i32]], [4 x [305 x i32]]* @ar, i64 0, i64 2), i64 0, i64 %52
  %54 = load i32, i32* %53, align 4
  %55 = sext i32 %.04 to i64
  %56 = getelementptr inbounds [305 x i32], [305 x i32]* getelementptr inbounds ([4 x [305 x i32]], [4 x [305 x i32]]* @ar, i64 0, i64 3), i64 0, i64 %55
  %57 = load i32, i32* %56, align 4
  %58 = add nsw i32 %54, %57
  %59 = sext i32 %.04 to i64
  %60 = getelementptr inbounds [305 x i32], [305 x i32]* @LR, i64 0, i64 %59
  store i32 %58, i32* %60, align 4
  %61 = sext i32 %.04 to i64
  %62 = getelementptr inbounds [305 x i32], [305 x i32]* getelementptr inbounds ([4 x [305 x i32]], [4 x [305 x i32]]* @ar, i64 0, i64 0), i64 0, i64 %61
  %63 = load i32, i32* %62, align 4
  %64 = sext i32 %.04 to i64
  %65 = getelementptr inbounds [305 x i32], [305 x i32]* getelementptr inbounds ([4 x [305 x i32]], [4 x [305 x i32]]* @ar, i64 0, i64 1), i64 0, i64 %64
  %66 = load i32, i32* %65, align 4
  %67 = add nsw i32 %63, %66
  %68 = sext i32 %.04 to i64
  %69 = getelementptr inbounds [305 x i32], [305 x i32]* @UD, i64 0, i64 %68
  store i32 %67, i32* %69, align 4
  br label %70

70:                                               ; preds = %51
  %71 = add nsw i32 %.04, 1
  br label %48

72:                                               ; preds = %48
  br label %73

73:                                               ; preds = %82, %72
  %.05 = phi i32 [ 0, %72 ], [ %83, %82 ]
  %74 = load i32, i32* @n, align 4
  %75 = icmp slt i32 %.05, %74
  br i1 %75, label %76, label %84

76:                                               ; preds = %73
  %77 = sext i32 %.05 to i64
  %78 = getelementptr inbounds [305 x i32], [305 x i32]* @UD, i64 0, i64 %77
  %79 = load i32, i32* %78, align 4
  %80 = sext i32 %.05 to i64
  %81 = getelementptr inbounds [305 x i32], [305 x i32]* @ud, i64 0, i64 %80
  store i32 %79, i32* %81, align 4
  br label %82

82:                                               ; preds = %76
  %83 = add nsw i32 %.05, 1
  br label %73

84:                                               ; preds = %73
  br label %85

85:                                               ; preds = %136, %84
  %.06 = phi i32 [ 0, %84 ], [ %137, %136 ]
  %86 = load i32, i32* @n, align 4
  %87 = icmp slt i32 %.06, %86
  br i1 %87, label %88, label %138

88:                                               ; preds = %85
  br label %89

89:                                               ; preds = %95, %88
  %.07 = phi i32 [ 0, %88 ], [ %96, %95 ]
  %90 = load i32, i32* @n, align 4
  %91 = icmp slt i32 %.07, %90
  br i1 %91, label %92, label %97

92:                                               ; preds = %89
  %93 = sext i32 %.07 to i64
  %94 = getelementptr inbounds [305 x i32], [305 x i32]* @perm, i64 0, i64 %93
  store i32 %.07, i32* %94, align 4
  br label %95

95:                                               ; preds = %92
  %96 = add nsw i32 %.07, 1
  br label %89

97:                                               ; preds = %89
  %98 = load i32, i32* @n, align 4
  %99 = sext i32 %98 to i64
  %100 = getelementptr inbounds i32, i32* getelementptr inbounds ([305 x i32], [305 x i32]* @perm, i32 0, i32 0), i64 %99
  call void @"_ZSt4sortIPiZ4mainE3$_0EvT_S2_T0_"(i32* getelementptr inbounds ([305 x i32], [305 x i32]* @perm, i32 0, i32 0), i32* %100)
  br label %101

101:                                              ; preds = %133, %97
  %.09 = phi i32 [ 0, %97 ], [ %134, %133 ]
  %102 = load i32, i32* @n, align 4
  %103 = icmp slt i32 %.09, %102
  br i1 %103, label %104, label %135

104:                                              ; preds = %101
  %105 = sext i32 %.06 to i64
  %106 = getelementptr inbounds [305 x i32], [305 x i32]* @LR, i64 0, i64 %105
  %107 = load i32, i32* %106, align 4
  %108 = icmp slt i32 %.09, %107
  br i1 %108, label %109, label %117

109:                                              ; preds = %104
  %110 = sext i32 %.06 to i64
  %111 = getelementptr inbounds [305 x [305 x i32]], [305 x [305 x i32]]* @buf, i64 0, i64 %110
  %112 = sext i32 %.09 to i64
  %113 = getelementptr inbounds [305 x i32], [305 x i32]* @perm, i64 0, i64 %112
  %114 = load i32, i32* %113, align 4
  %115 = sext i32 %114 to i64
  %116 = getelementptr inbounds [305 x i32], [305 x i32]* %111, i64 0, i64 %115
  store i32 0, i32* %116, align 4
  br label %132

117:                                              ; preds = %104
  %118 = sext i32 %.06 to i64
  %119 = getelementptr inbounds [305 x [305 x i32]], [305 x [305 x i32]]* @buf, i64 0, i64 %118
  %120 = sext i32 %.09 to i64
  %121 = getelementptr inbounds [305 x i32], [305 x i32]* @perm, i64 0, i64 %120
  %122 = load i32, i32* %121, align 4
  %123 = sext i32 %122 to i64
  %124 = getelementptr inbounds [305 x i32], [305 x i32]* %119, i64 0, i64 %123
  store i32 1, i32* %124, align 4
  %125 = sext i32 %.09 to i64
  %126 = getelementptr inbounds [305 x i32], [305 x i32]* @perm, i64 0, i64 %125
  %127 = load i32, i32* %126, align 4
  %128 = sext i32 %127 to i64
  %129 = getelementptr inbounds [305 x i32], [305 x i32]* @ud, i64 0, i64 %128
  %130 = load i32, i32* %129, align 4
  %131 = add nsw i32 %130, -1
  store i32 %131, i32* %129, align 4
  br label %132

132:                                              ; preds = %117, %109
  br label %133

133:                                              ; preds = %132
  %134 = add nsw i32 %.09, 1
  br label %101

135:                                              ; preds = %101
  br label %136

136:                                              ; preds = %135
  %137 = add nsw i32 %.06, 1
  br label %85

138:                                              ; preds = %85
  %139 = load i32, i32* @n, align 4
  %140 = sext i32 %139 to i64
  %141 = getelementptr inbounds i32, i32* getelementptr inbounds ([305 x i32], [305 x i32]* @ud, i32 0, i32 0), i64 %140
  call void @_Z5debugIPiEvT_S1_(i32* getelementptr inbounds ([305 x i32], [305 x i32]* @ud, i32 0, i32 0), i32* %141)
  br label %142

142:                                              ; preds = %152, %138
  %.010 = phi i32 [ 0, %138 ], [ %153, %152 ]
  %143 = load i32, i32* @n, align 4
  %144 = icmp slt i32 %.010, %143
  br i1 %144, label %145, label %154

145:                                              ; preds = %142
  %146 = sext i32 %.010 to i64
  %147 = getelementptr inbounds [305 x i32], [305 x i32]* @ud, i64 0, i64 %146
  %148 = load i32, i32* %147, align 4
  %149 = icmp ne i32 %148, 0
  br i1 %149, label %150, label %151

150:                                              ; preds = %145
  call void @_Z2ngv()
  br label %151

151:                                              ; preds = %150, %145
  br label %152

152:                                              ; preds = %151
  %153 = add nsw i32 %.010, 1
  br label %142

154:                                              ; preds = %142
  br label %155

155:                                              ; preds = %213, %154
  %.011 = phi i32 [ 0, %154 ], [ %214, %213 ]
  %156 = load i32, i32* @n, align 4
  %157 = icmp slt i32 %.011, %156
  br i1 %157, label %158, label %215

158:                                              ; preds = %155
  br label %159

159:                                              ; preds = %210, %158
  %.012 = phi i32 [ 0, %158 ], [ %211, %210 ]
  %160 = load i32, i32* @n, align 4
  %161 = icmp slt i32 %.012, %160
  br i1 %161, label %162, label %212

162:                                              ; preds = %159
  %163 = sext i32 %.011 to i64
  %164 = getelementptr inbounds [305 x [305 x i32]], [305 x [305 x i32]]* @buf, i64 0, i64 %163
  %165 = sext i32 %.012 to i64
  %166 = getelementptr inbounds [305 x i32], [305 x i32]* %164, i64 0, i64 %165
  %167 = load i32, i32* %166, align 4
  %168 = icmp eq i32 %167, 0
  br i1 %168, label %169, label %189

169:                                              ; preds = %162
  %170 = sext i32 %.011 to i64
  %171 = getelementptr inbounds [305 x i32], [305 x i32]* getelementptr inbounds ([4 x [305 x i32]], [4 x [305 x i32]]* @ar, i64 0, i64 2), i64 0, i64 %170
  %172 = load i32, i32* %171, align 4
  %173 = icmp sgt i32 %172, 0
  br i1 %173, label %174, label %183

174:                                              ; preds = %169
  %175 = sext i32 %.011 to i64
  %176 = getelementptr inbounds [305 x [305 x i32]], [305 x [305 x i32]]* @buf, i64 0, i64 %175
  %177 = sext i32 %.012 to i64
  %178 = getelementptr inbounds [305 x i32], [305 x i32]* %176, i64 0, i64 %177
  store i32 3, i32* %178, align 4
  %179 = sext i32 %.011 to i64
  %180 = getelementptr inbounds [305 x i32], [305 x i32]* getelementptr inbounds ([4 x [305 x i32]], [4 x [305 x i32]]* @ar, i64 0, i64 2), i64 0, i64 %179
  %181 = load i32, i32* %180, align 4
  %182 = add nsw i32 %181, -1
  store i32 %182, i32* %180, align 4
  br label %188

183:                                              ; preds = %169
  %184 = sext i32 %.011 to i64
  %185 = getelementptr inbounds [305 x [305 x i32]], [305 x [305 x i32]]* @buf, i64 0, i64 %184
  %186 = sext i32 %.012 to i64
  %187 = getelementptr inbounds [305 x i32], [305 x i32]* %185, i64 0, i64 %186
  store i32 1, i32* %187, align 4
  br label %188

188:                                              ; preds = %183, %174
  br label %209

189:                                              ; preds = %162
  %190 = sext i32 %.012 to i64
  %191 = getelementptr inbounds [305 x i32], [305 x i32]* getelementptr inbounds ([4 x [305 x i32]], [4 x [305 x i32]]* @ar, i64 0, i64 0), i64 0, i64 %190
  %192 = load i32, i32* %191, align 4
  %193 = icmp sgt i32 %192, 0
  br i1 %193, label %194, label %203

194:                                              ; preds = %189
  %195 = sext i32 %.011 to i64
  %196 = getelementptr inbounds [305 x [305 x i32]], [305 x [305 x i32]]* @buf, i64 0, i64 %195
  %197 = sext i32 %.012 to i64
  %198 = getelementptr inbounds [305 x i32], [305 x i32]* %196, i64 0, i64 %197
  store i32 2, i32* %198, align 4
  %199 = sext i32 %.012 to i64
  %200 = getelementptr inbounds [305 x i32], [305 x i32]* getelementptr inbounds ([4 x [305 x i32]], [4 x [305 x i32]]* @ar, i64 0, i64 0), i64 0, i64 %199
  %201 = load i32, i32* %200, align 4
  %202 = add nsw i32 %201, -1
  store i32 %202, i32* %200, align 4
  br label %208

203:                                              ; preds = %189
  %204 = sext i32 %.011 to i64
  %205 = getelementptr inbounds [305 x [305 x i32]], [305 x [305 x i32]]* @buf, i64 0, i64 %204
  %206 = sext i32 %.012 to i64
  %207 = getelementptr inbounds [305 x i32], [305 x i32]* %205, i64 0, i64 %206
  store i32 0, i32* %207, align 4
  br label %208

208:                                              ; preds = %203, %194
  br label %209

209:                                              ; preds = %208, %188
  br label %210

210:                                              ; preds = %209
  %211 = add nsw i32 %.012, 1
  br label %159

212:                                              ; preds = %159
  br label %213

213:                                              ; preds = %212
  %214 = add nsw i32 %.011, 1
  br label %155

215:                                              ; preds = %155
  br label %216

216:                                              ; preds = %229, %215
  %.013 = phi i32 [ 0, %215 ], [ %230, %229 ]
  %217 = load i32, i32* @n, align 4
  %218 = icmp slt i32 %.013, %217
  br i1 %218, label %219, label %231

219:                                              ; preds = %216
  %220 = sext i32 %.013 to i64
  %221 = getelementptr inbounds [305 x [305 x i32]], [305 x [305 x i32]]* @buf, i64 0, i64 %220
  %222 = getelementptr inbounds [305 x i32], [305 x i32]* %221, i32 0, i32 0
  %223 = sext i32 %.013 to i64
  %224 = getelementptr inbounds [305 x [305 x i32]], [305 x [305 x i32]]* @buf, i64 0, i64 %223
  %225 = getelementptr inbounds [305 x i32], [305 x i32]* %224, i32 0, i32 0
  %226 = load i32, i32* @n, align 4
  %227 = sext i32 %226 to i64
  %228 = getelementptr inbounds i32, i32* %225, i64 %227
  call void @_Z5debugIPiEvT_S1_(i32* %222, i32* %228)
  br label %229

229:                                              ; preds = %219
  %230 = add nsw i32 %.013, 1
  br label %216

231:                                              ; preds = %216
  br label %232

232:                                              ; preds = %252, %231
  %.014 = phi i32 [ 0, %231 ], [ %253, %252 ]
  %233 = load i32, i32* @n, align 4
  %234 = icmp slt i32 %.014, %233
  br i1 %234, label %235, label %254

235:                                              ; preds = %232
  br label %236

236:                                              ; preds = %249, %235
  %.08 = phi i32 [ 0, %235 ], [ %250, %249 ]
  %237 = load i32, i32* @n, align 4
  %238 = icmp slt i32 %.08, %237
  br i1 %238, label %239, label %251

239:                                              ; preds = %236
  %240 = sext i32 %.014 to i64
  %241 = getelementptr inbounds [305 x [305 x i8]], [305 x [305 x i8]]* @done, i64 0, i64 %240
  %242 = sext i32 %.08 to i64
  %243 = getelementptr inbounds [305 x i8], [305 x i8]* %241, i64 0, i64 %242
  %244 = load i8, i8* %243, align 1
  %245 = trunc i8 %244 to i1
  br i1 %245, label %248, label %246

246:                                              ; preds = %239
  %247 = call zeroext i1 @_Z3dfsii(i32 %.014, i32 %.08)
  br label %248

248:                                              ; preds = %246, %239
  br label %249

249:                                              ; preds = %248
  %250 = add nsw i32 %.08, 1
  br label %236

251:                                              ; preds = %236
  br label %252

252:                                              ; preds = %251
  %253 = add nsw i32 %.014, 1
  br label %232

254:                                              ; preds = %232
  br label %255

255:                                              ; preds = %268, %254
  %.0 = phi i32 [ 0, %254 ], [ %269, %268 ]
  %256 = load i32, i32* @n, align 4
  %257 = icmp slt i32 %.0, %256
  br i1 %257, label %258, label %270

258:                                              ; preds = %255
  %259 = sext i32 %.0 to i64
  %260 = getelementptr inbounds [305 x [305 x i32]], [305 x [305 x i32]]* @buf, i64 0, i64 %259
  %261 = getelementptr inbounds [305 x i32], [305 x i32]* %260, i32 0, i32 0
  %262 = sext i32 %.0 to i64
  %263 = getelementptr inbounds [305 x [305 x i32]], [305 x [305 x i32]]* @buf, i64 0, i64 %262
  %264 = getelementptr inbounds [305 x i32], [305 x i32]* %263, i32 0, i32 0
  %265 = load i32, i32* @n, align 4
  %266 = sext i32 %265 to i64
  %267 = getelementptr inbounds i32, i32* %264, i64 %266
  call void @_Z5debugIPiEvT_S1_(i32* %261, i32* %267)
  br label %268

268:                                              ; preds = %258
  %269 = add nsw i32 %.0, 1
  br label %255

270:                                              ; preds = %255
  ret i32 0
}

declare dereferenceable(280) %"class.std::basic_istream"* @_ZNSirsERi(%"class.std::basic_istream"*, i32* dereferenceable(4)) #1

; Function Attrs: noinline uwtable
define internal void @"_ZSt4sortIPiZ4mainE3$_0EvT_S2_T0_"(i32* %0, i32* %1) #0 {
  call void @"_ZN9__gnu_cxx5__ops16__iter_comp_iterIZ4mainE3$_0EENS0_15_Iter_comp_iterIT_EES4_"()
  call void @"_ZSt6__sortIPiN9__gnu_cxx5__ops15_Iter_comp_iterIZ4mainE3$_0EEEvT_S6_T0_"(i32* %0, i32* %1)
  ret void
}

; Function Attrs: noinline nounwind uwtable
define linkonce_odr void @_Z5debugIPiEvT_S1_(i32* %0, i32* %1) #5 comdat {
  ret void
}

; Function Attrs: noinline nounwind uwtable
define linkonce_odr dereferenceable(4) i32* @_ZSt7forwardIRiEOT_RNSt16remove_referenceIS1_E4typeE(i32* dereferenceable(4) %0) #5 comdat {
  ret i32* %0
}

; Function Attrs: noinline nounwind uwtable
define linkonce_odr void @_ZNSt4pairIiiEC2IRiS2_Lb1EEEOT_OT0_(%"struct.std::pair"* %0, i32* dereferenceable(4) %1, i32* dereferenceable(4) %2) unnamed_addr #5 comdat align 2 {
  %4 = bitcast %"struct.std::pair"* %0 to %"class.std::__pair_base"*
  %5 = getelementptr inbounds %"struct.std::pair", %"struct.std::pair"* %0, i32 0, i32 0
  %6 = call dereferenceable(4) i32* @_ZSt7forwardIRiEOT_RNSt16remove_referenceIS1_E4typeE(i32* dereferenceable(4) %1) #3
  %7 = load i32, i32* %6, align 4
  store i32 %7, i32* %5, align 4
  %8 = getelementptr inbounds %"struct.std::pair", %"struct.std::pair"* %0, i32 0, i32 1
  %9 = call dereferenceable(4) i32* @_ZSt7forwardIRiEOT_RNSt16remove_referenceIS1_E4typeE(i32* dereferenceable(4) %2) #3
  %10 = load i32, i32* %9, align 4
  store i32 %10, i32* %8, align 4
  ret void
}

; Function Attrs: noinline uwtable
define linkonce_odr void @_ZNSt12_Vector_baseISt4pairIiiESaIS1_EEC2Ev(%"struct.std::_Vector_base"* %0) unnamed_addr #0 comdat align 2 {
  %2 = getelementptr inbounds %"struct.std::_Vector_base", %"struct.std::_Vector_base"* %0, i32 0, i32 0
  call void @_ZNSt12_Vector_baseISt4pairIiiESaIS1_EE12_Vector_implC2Ev(%"struct.std::_Vector_base<std::pair<int, int>, std::allocator<std::pair<int, int> > >::_Vector_impl"* %2)
  ret void
}

declare i32 @__gxx_personality_v0(...)

; Function Attrs: noinline noreturn nounwind
define linkonce_odr hidden void @__clang_call_terminate(i8* %0) #7 comdat {
  %2 = call i8* @__cxa_begin_catch(i8* %0) #3
  call void @_ZSt9terminatev() #14
  unreachable
}

declare i8* @__cxa_begin_catch(i8*)

declare void @_ZSt9terminatev()

; Function Attrs: noinline nounwind uwtable
define linkonce_odr void @_ZNSt12_Vector_baseISt4pairIiiESaIS1_EE12_Vector_implC2Ev(%"struct.std::_Vector_base<std::pair<int, int>, std::allocator<std::pair<int, int> > >::_Vector_impl"* %0) unnamed_addr #5 comdat align 2 {
  %2 = bitcast %"struct.std::_Vector_base<std::pair<int, int>, std::allocator<std::pair<int, int> > >::_Vector_impl"* %0 to %"class.std::allocator"*
  call void @_ZNSaISt4pairIiiEEC2Ev(%"class.std::allocator"* %2) #3
  %3 = getelementptr inbounds %"struct.std::_Vector_base<std::pair<int, int>, std::allocator<std::pair<int, int> > >::_Vector_impl", %"struct.std::_Vector_base<std::pair<int, int>, std::allocator<std::pair<int, int> > >::_Vector_impl"* %0, i32 0, i32 0
  store %"struct.std::pair"* null, %"struct.std::pair"** %3, align 8
  %4 = getelementptr inbounds %"struct.std::_Vector_base<std::pair<int, int>, std::allocator<std::pair<int, int> > >::_Vector_impl", %"struct.std::_Vector_base<std::pair<int, int>, std::allocator<std::pair<int, int> > >::_Vector_impl"* %0, i32 0, i32 1
  store %"struct.std::pair"* null, %"struct.std::pair"** %4, align 8
  %5 = getelementptr inbounds %"struct.std::_Vector_base<std::pair<int, int>, std::allocator<std::pair<int, int> > >::_Vector_impl", %"struct.std::_Vector_base<std::pair<int, int>, std::allocator<std::pair<int, int> > >::_Vector_impl"* %0, i32 0, i32 2
  store %"struct.std::pair"* null, %"struct.std::pair"** %5, align 8
  ret void
}

; Function Attrs: noinline nounwind uwtable
define linkonce_odr void @_ZNSaISt4pairIiiEEC2Ev(%"class.std::allocator"* %0) unnamed_addr #5 comdat align 2 {
  %2 = bitcast %"class.std::allocator"* %0 to %"class.__gnu_cxx::new_allocator"*
  call void @_ZN9__gnu_cxx13new_allocatorISt4pairIiiEEC2Ev(%"class.__gnu_cxx::new_allocator"* %2) #3
  ret void
}

; Function Attrs: noinline nounwind uwtable
define linkonce_odr void @_ZN9__gnu_cxx13new_allocatorISt4pairIiiEEC2Ev(%"class.__gnu_cxx::new_allocator"* %0) unnamed_addr #5 comdat align 2 {
  ret void
}

; Function Attrs: noinline uwtable
define linkonce_odr void @_ZSt8_DestroyIPSt4pairIiiES1_EvT_S3_RSaIT0_E(%"struct.std::pair"* %0, %"struct.std::pair"* %1, %"class.std::allocator"* dereferenceable(1) %2) #0 comdat {
  call void @_ZSt8_DestroyIPSt4pairIiiEEvT_S3_(%"struct.std::pair"* %0, %"struct.std::pair"* %1)
  ret void
}

; Function Attrs: noinline nounwind uwtable
define linkonce_odr dereferenceable(1) %"class.std::allocator"* @_ZNSt12_Vector_baseISt4pairIiiESaIS1_EE19_M_get_Tp_allocatorEv(%"struct.std::_Vector_base"* %0) #5 comdat align 2 {
  %2 = getelementptr inbounds %"struct.std::_Vector_base", %"struct.std::_Vector_base"* %0, i32 0, i32 0
  %3 = bitcast %"struct.std::_Vector_base<std::pair<int, int>, std::allocator<std::pair<int, int> > >::_Vector_impl"* %2 to %"class.std::allocator"*
  ret %"class.std::allocator"* %3
}

; Function Attrs: noinline nounwind uwtable
define linkonce_odr void @_ZNSt12_Vector_baseISt4pairIiiESaIS1_EED2Ev(%"struct.std::_Vector_base"* %0) unnamed_addr #5 comdat align 2 personality i8* bitcast (i32 (...)* @__gxx_personality_v0 to i8*) {
  %2 = getelementptr inbounds %"struct.std::_Vector_base", %"struct.std::_Vector_base"* %0, i32 0, i32 0
  %3 = getelementptr inbounds %"struct.std::_Vector_base<std::pair<int, int>, std::allocator<std::pair<int, int> > >::_Vector_impl", %"struct.std::_Vector_base<std::pair<int, int>, std::allocator<std::pair<int, int> > >::_Vector_impl"* %2, i32 0, i32 0
  %4 = load %"struct.std::pair"*, %"struct.std::pair"** %3, align 8
  %5 = getelementptr inbounds %"struct.std::_Vector_base", %"struct.std::_Vector_base"* %0, i32 0, i32 0
  %6 = getelementptr inbounds %"struct.std::_Vector_base<std::pair<int, int>, std::allocator<std::pair<int, int> > >::_Vector_impl", %"struct.std::_Vector_base<std::pair<int, int>, std::allocator<std::pair<int, int> > >::_Vector_impl"* %5, i32 0, i32 2
  %7 = load %"struct.std::pair"*, %"struct.std::pair"** %6, align 8
  %8 = getelementptr inbounds %"struct.std::_Vector_base", %"struct.std::_Vector_base"* %0, i32 0, i32 0
  %9 = getelementptr inbounds %"struct.std::_Vector_base<std::pair<int, int>, std::allocator<std::pair<int, int> > >::_Vector_impl", %"struct.std::_Vector_base<std::pair<int, int>, std::allocator<std::pair<int, int> > >::_Vector_impl"* %8, i32 0, i32 0
  %10 = load %"struct.std::pair"*, %"struct.std::pair"** %9, align 8
  %11 = ptrtoint %"struct.std::pair"* %7 to i64
  %12 = ptrtoint %"struct.std::pair"* %10 to i64
  %13 = sub i64 %11, %12
  %14 = sdiv exact i64 %13, 8
  invoke void @_ZNSt12_Vector_baseISt4pairIiiESaIS1_EE13_M_deallocateEPS1_m(%"struct.std::_Vector_base"* %0, %"struct.std::pair"* %4, i64 %14)
          to label %15 unwind label %17

15:                                               ; preds = %1
  %16 = getelementptr inbounds %"struct.std::_Vector_base", %"struct.std::_Vector_base"* %0, i32 0, i32 0
  call void @_ZNSt12_Vector_baseISt4pairIiiESaIS1_EE12_Vector_implD2Ev(%"struct.std::_Vector_base<std::pair<int, int>, std::allocator<std::pair<int, int> > >::_Vector_impl"* %16) #3
  ret void

17:                                               ; preds = %1
  %18 = landingpad { i8*, i32 }
          catch i8* null
  %19 = extractvalue { i8*, i32 } %18, 0
  %20 = extractvalue { i8*, i32 } %18, 1
  %21 = getelementptr inbounds %"struct.std::_Vector_base", %"struct.std::_Vector_base"* %0, i32 0, i32 0
  call void @_ZNSt12_Vector_baseISt4pairIiiESaIS1_EE12_Vector_implD2Ev(%"struct.std::_Vector_base<std::pair<int, int>, std::allocator<std::pair<int, int> > >::_Vector_impl"* %21) #3
  br label %22

22:                                               ; preds = %17
  call void @__clang_call_terminate(i8* %19) #14
  unreachable
}

; Function Attrs: noinline uwtable
define linkonce_odr void @_ZSt8_DestroyIPSt4pairIiiEEvT_S3_(%"struct.std::pair"* %0, %"struct.std::pair"* %1) #0 comdat {
  call void @_ZNSt12_Destroy_auxILb1EE9__destroyIPSt4pairIiiEEEvT_S5_(%"struct.std::pair"* %0, %"struct.std::pair"* %1)
  ret void
}

; Function Attrs: noinline nounwind uwtable
define linkonce_odr void @_ZNSt12_Destroy_auxILb1EE9__destroyIPSt4pairIiiEEEvT_S5_(%"struct.std::pair"* %0, %"struct.std::pair"* %1) #5 comdat align 2 {
  ret void
}

; Function Attrs: noinline uwtable
define linkonce_odr void @_ZNSt12_Vector_baseISt4pairIiiESaIS1_EE13_M_deallocateEPS1_m(%"struct.std::_Vector_base"* %0, %"struct.std::pair"* %1, i64 %2) #0 comdat align 2 {
  %4 = icmp ne %"struct.std::pair"* %1, null
  br i1 %4, label %5, label %8

5:                                                ; preds = %3
  %6 = getelementptr inbounds %"struct.std::_Vector_base", %"struct.std::_Vector_base"* %0, i32 0, i32 0
  %7 = bitcast %"struct.std::_Vector_base<std::pair<int, int>, std::allocator<std::pair<int, int> > >::_Vector_impl"* %6 to %"class.std::allocator"*
  call void @_ZNSt16allocator_traitsISaISt4pairIiiEEE10deallocateERS2_PS1_m(%"class.std::allocator"* dereferenceable(1) %7, %"struct.std::pair"* %1, i64 %2)
  br label %8

8:                                                ; preds = %5, %3
  ret void
}

; Function Attrs: noinline nounwind uwtable
define linkonce_odr void @_ZNSt12_Vector_baseISt4pairIiiESaIS1_EE12_Vector_implD2Ev(%"struct.std::_Vector_base<std::pair<int, int>, std::allocator<std::pair<int, int> > >::_Vector_impl"* %0) unnamed_addr #5 comdat align 2 {
  %2 = bitcast %"struct.std::_Vector_base<std::pair<int, int>, std::allocator<std::pair<int, int> > >::_Vector_impl"* %0 to %"class.std::allocator"*
  call void @_ZNSaISt4pairIiiEED2Ev(%"class.std::allocator"* %2) #3
  ret void
}

; Function Attrs: noinline uwtable
define linkonce_odr void @_ZNSt16allocator_traitsISaISt4pairIiiEEE10deallocateERS2_PS1_m(%"class.std::allocator"* dereferenceable(1) %0, %"struct.std::pair"* %1, i64 %2) #0 comdat align 2 {
  %4 = bitcast %"class.std::allocator"* %0 to %"class.__gnu_cxx::new_allocator"*
  call void @_ZN9__gnu_cxx13new_allocatorISt4pairIiiEE10deallocateEPS2_m(%"class.__gnu_cxx::new_allocator"* %4, %"struct.std::pair"* %1, i64 %2)
  ret void
}

; Function Attrs: noinline nounwind uwtable
define linkonce_odr void @_ZN9__gnu_cxx13new_allocatorISt4pairIiiEE10deallocateEPS2_m(%"class.__gnu_cxx::new_allocator"* %0, %"struct.std::pair"* %1, i64 %2) #5 comdat align 2 {
  %4 = bitcast %"struct.std::pair"* %1 to i8*
  call void @_ZdlPv(i8* %4) #3
  ret void
}

; Function Attrs: nobuiltin nounwind
declare void @_ZdlPv(i8*) #8

; Function Attrs: noinline nounwind uwtable
define linkonce_odr void @_ZNSaISt4pairIiiEED2Ev(%"class.std::allocator"* %0) unnamed_addr #5 comdat align 2 {
  %2 = bitcast %"class.std::allocator"* %0 to %"class.__gnu_cxx::new_allocator"*
  call void @_ZN9__gnu_cxx13new_allocatorISt4pairIiiEED2Ev(%"class.__gnu_cxx::new_allocator"* %2) #3
  ret void
}

; Function Attrs: noinline nounwind uwtable
define linkonce_odr void @_ZN9__gnu_cxx13new_allocatorISt4pairIiiEED2Ev(%"class.__gnu_cxx::new_allocator"* %0) unnamed_addr #5 comdat align 2 {
  ret void
}

; Function Attrs: noinline uwtable
define linkonce_odr void @_ZNSt6vectorISt4pairIiiESaIS1_EE12emplace_backIJS1_EEEvDpOT_(%"class.std::vector"* %0, %"struct.std::pair"* dereferenceable(8) %1) #0 comdat align 2 {
  %3 = alloca %"class.__gnu_cxx::__normal_iterator", align 8
  %4 = bitcast %"class.std::vector"* %0 to %"struct.std::_Vector_base"*
  %5 = getelementptr inbounds %"struct.std::_Vector_base", %"struct.std::_Vector_base"* %4, i32 0, i32 0
  %6 = getelementptr inbounds %"struct.std::_Vector_base<std::pair<int, int>, std::allocator<std::pair<int, int> > >::_Vector_impl", %"struct.std::_Vector_base<std::pair<int, int>, std::allocator<std::pair<int, int> > >::_Vector_impl"* %5, i32 0, i32 1
  %7 = load %"struct.std::pair"*, %"struct.std::pair"** %6, align 8
  %8 = bitcast %"class.std::vector"* %0 to %"struct.std::_Vector_base"*
  %9 = getelementptr inbounds %"struct.std::_Vector_base", %"struct.std::_Vector_base"* %8, i32 0, i32 0
  %10 = getelementptr inbounds %"struct.std::_Vector_base<std::pair<int, int>, std::allocator<std::pair<int, int> > >::_Vector_impl", %"struct.std::_Vector_base<std::pair<int, int>, std::allocator<std::pair<int, int> > >::_Vector_impl"* %9, i32 0, i32 2
  %11 = load %"struct.std::pair"*, %"struct.std::pair"** %10, align 8
  %12 = icmp ne %"struct.std::pair"* %7, %11
  br i1 %12, label %13, label %27

13:                                               ; preds = %2
  %14 = bitcast %"class.std::vector"* %0 to %"struct.std::_Vector_base"*
  %15 = getelementptr inbounds %"struct.std::_Vector_base", %"struct.std::_Vector_base"* %14, i32 0, i32 0
  %16 = bitcast %"struct.std::_Vector_base<std::pair<int, int>, std::allocator<std::pair<int, int> > >::_Vector_impl"* %15 to %"class.std::allocator"*
  %17 = bitcast %"class.std::vector"* %0 to %"struct.std::_Vector_base"*
  %18 = getelementptr inbounds %"struct.std::_Vector_base", %"struct.std::_Vector_base"* %17, i32 0, i32 0
  %19 = getelementptr inbounds %"struct.std::_Vector_base<std::pair<int, int>, std::allocator<std::pair<int, int> > >::_Vector_impl", %"struct.std::_Vector_base<std::pair<int, int>, std::allocator<std::pair<int, int> > >::_Vector_impl"* %18, i32 0, i32 1
  %20 = load %"struct.std::pair"*, %"struct.std::pair"** %19, align 8
  %21 = call dereferenceable(8) %"struct.std::pair"* @_ZSt7forwardISt4pairIiiEEOT_RNSt16remove_referenceIS2_E4typeE(%"struct.std::pair"* dereferenceable(8) %1) #3
  call void @_ZNSt16allocator_traitsISaISt4pairIiiEEE9constructIS1_JS1_EEEvRS2_PT_DpOT0_(%"class.std::allocator"* dereferenceable(1) %16, %"struct.std::pair"* %20, %"struct.std::pair"* dereferenceable(8) %21)
  %22 = bitcast %"class.std::vector"* %0 to %"struct.std::_Vector_base"*
  %23 = getelementptr inbounds %"struct.std::_Vector_base", %"struct.std::_Vector_base"* %22, i32 0, i32 0
  %24 = getelementptr inbounds %"struct.std::_Vector_base<std::pair<int, int>, std::allocator<std::pair<int, int> > >::_Vector_impl", %"struct.std::_Vector_base<std::pair<int, int>, std::allocator<std::pair<int, int> > >::_Vector_impl"* %23, i32 0, i32 1
  %25 = load %"struct.std::pair"*, %"struct.std::pair"** %24, align 8
  %26 = getelementptr inbounds %"struct.std::pair", %"struct.std::pair"* %25, i32 1
  store %"struct.std::pair"* %26, %"struct.std::pair"** %24, align 8
  br label %33

27:                                               ; preds = %2
  %28 = call %"struct.std::pair"* @_ZNSt6vectorISt4pairIiiESaIS1_EE3endEv(%"class.std::vector"* %0) #3
  %29 = getelementptr inbounds %"class.__gnu_cxx::__normal_iterator", %"class.__gnu_cxx::__normal_iterator"* %3, i32 0, i32 0
  store %"struct.std::pair"* %28, %"struct.std::pair"** %29, align 8
  %30 = call dereferenceable(8) %"struct.std::pair"* @_ZSt7forwardISt4pairIiiEEOT_RNSt16remove_referenceIS2_E4typeE(%"struct.std::pair"* dereferenceable(8) %1) #3
  %31 = getelementptr inbounds %"class.__gnu_cxx::__normal_iterator", %"class.__gnu_cxx::__normal_iterator"* %3, i32 0, i32 0
  %32 = load %"struct.std::pair"*, %"struct.std::pair"** %31, align 8
  call void @_ZNSt6vectorISt4pairIiiESaIS1_EE17_M_realloc_insertIJS1_EEEvN9__gnu_cxx17__normal_iteratorIPS1_S3_EEDpOT_(%"class.std::vector"* %0, %"struct.std::pair"* %32, %"struct.std::pair"* dereferenceable(8) %30)
  br label %33

33:                                               ; preds = %27, %13
  ret void
}

; Function Attrs: noinline nounwind uwtable
define linkonce_odr dereferenceable(8) %"struct.std::pair"* @_ZSt4moveIRSt4pairIiiEEONSt16remove_referenceIT_E4typeEOS4_(%"struct.std::pair"* dereferenceable(8) %0) #5 comdat {
  ret %"struct.std::pair"* %0
}

; Function Attrs: noinline uwtable
define linkonce_odr void @_ZNSt16allocator_traitsISaISt4pairIiiEEE9constructIS1_JS1_EEEvRS2_PT_DpOT0_(%"class.std::allocator"* dereferenceable(1) %0, %"struct.std::pair"* %1, %"struct.std::pair"* dereferenceable(8) %2) #0 comdat align 2 {
  %4 = bitcast %"class.std::allocator"* %0 to %"class.__gnu_cxx::new_allocator"*
  %5 = call dereferenceable(8) %"struct.std::pair"* @_ZSt7forwardISt4pairIiiEEOT_RNSt16remove_referenceIS2_E4typeE(%"struct.std::pair"* dereferenceable(8) %2) #3
  call void @_ZN9__gnu_cxx13new_allocatorISt4pairIiiEE9constructIS2_JS2_EEEvPT_DpOT0_(%"class.__gnu_cxx::new_allocator"* %4, %"struct.std::pair"* %1, %"struct.std::pair"* dereferenceable(8) %5)
  ret void
}

; Function Attrs: noinline nounwind uwtable
define linkonce_odr dereferenceable(8) %"struct.std::pair"* @_ZSt7forwardISt4pairIiiEEOT_RNSt16remove_referenceIS2_E4typeE(%"struct.std::pair"* dereferenceable(8) %0) #5 comdat {
  ret %"struct.std::pair"* %0
}

; Function Attrs: noinline uwtable
define linkonce_odr void @_ZNSt6vectorISt4pairIiiESaIS1_EE17_M_realloc_insertIJS1_EEEvN9__gnu_cxx17__normal_iteratorIPS1_S3_EEDpOT_(%"class.std::vector"* %0, %"struct.std::pair"* %1, %"struct.std::pair"* dereferenceable(8) %2) #0 comdat align 2 personality i8* bitcast (i32 (...)* @__gxx_personality_v0 to i8*) {
  %4 = alloca %"class.__gnu_cxx::__normal_iterator", align 8
  %5 = alloca %"class.__gnu_cxx::__normal_iterator", align 8
  %6 = getelementptr inbounds %"class.__gnu_cxx::__normal_iterator", %"class.__gnu_cxx::__normal_iterator"* %4, i32 0, i32 0
  store %"struct.std::pair"* %1, %"struct.std::pair"** %6, align 8
  %7 = call i64 @_ZNKSt6vectorISt4pairIiiESaIS1_EE12_M_check_lenEmPKc(%"class.std::vector"* %0, i64 1, i8* getelementptr inbounds ([26 x i8], [26 x i8]* @.str.3, i32 0, i32 0))
  %8 = bitcast %"class.std::vector"* %0 to %"struct.std::_Vector_base"*
  %9 = getelementptr inbounds %"struct.std::_Vector_base", %"struct.std::_Vector_base"* %8, i32 0, i32 0
  %10 = getelementptr inbounds %"struct.std::_Vector_base<std::pair<int, int>, std::allocator<std::pair<int, int> > >::_Vector_impl", %"struct.std::_Vector_base<std::pair<int, int>, std::allocator<std::pair<int, int> > >::_Vector_impl"* %9, i32 0, i32 0
  %11 = load %"struct.std::pair"*, %"struct.std::pair"** %10, align 8
  %12 = bitcast %"class.std::vector"* %0 to %"struct.std::_Vector_base"*
  %13 = getelementptr inbounds %"struct.std::_Vector_base", %"struct.std::_Vector_base"* %12, i32 0, i32 0
  %14 = getelementptr inbounds %"struct.std::_Vector_base<std::pair<int, int>, std::allocator<std::pair<int, int> > >::_Vector_impl", %"struct.std::_Vector_base<std::pair<int, int>, std::allocator<std::pair<int, int> > >::_Vector_impl"* %13, i32 0, i32 1
  %15 = load %"struct.std::pair"*, %"struct.std::pair"** %14, align 8
  %16 = call %"struct.std::pair"* @_ZNSt6vectorISt4pairIiiESaIS1_EE5beginEv(%"class.std::vector"* %0) #3
  %17 = getelementptr inbounds %"class.__gnu_cxx::__normal_iterator", %"class.__gnu_cxx::__normal_iterator"* %5, i32 0, i32 0
  store %"struct.std::pair"* %16, %"struct.std::pair"** %17, align 8
  %18 = call i64 @_ZN9__gnu_cxxmiIPSt4pairIiiESt6vectorIS2_SaIS2_EEEENS_17__normal_iteratorIT_T0_E15difference_typeERKSA_SD_(%"class.__gnu_cxx::__normal_iterator"* dereferenceable(8) %4, %"class.__gnu_cxx::__normal_iterator"* dereferenceable(8) %5) #3
  %19 = bitcast %"class.std::vector"* %0 to %"struct.std::_Vector_base"*
  %20 = call %"struct.std::pair"* @_ZNSt12_Vector_baseISt4pairIiiESaIS1_EE11_M_allocateEm(%"struct.std::_Vector_base"* %19, i64 %7)
  %21 = bitcast %"class.std::vector"* %0 to %"struct.std::_Vector_base"*
  %22 = getelementptr inbounds %"struct.std::_Vector_base", %"struct.std::_Vector_base"* %21, i32 0, i32 0
  %23 = bitcast %"struct.std::_Vector_base<std::pair<int, int>, std::allocator<std::pair<int, int> > >::_Vector_impl"* %22 to %"class.std::allocator"*
  %24 = getelementptr inbounds %"struct.std::pair", %"struct.std::pair"* %20, i64 %18
  %25 = call dereferenceable(8) %"struct.std::pair"* @_ZSt7forwardISt4pairIiiEEOT_RNSt16remove_referenceIS2_E4typeE(%"struct.std::pair"* dereferenceable(8) %2) #3
  invoke void @_ZNSt16allocator_traitsISaISt4pairIiiEEE9constructIS1_JS1_EEEvRS2_PT_DpOT0_(%"class.std::allocator"* dereferenceable(1) %23, %"struct.std::pair"* %24, %"struct.std::pair"* dereferenceable(8) %25)
          to label %26 unwind label %40

26:                                               ; preds = %3
  %27 = call dereferenceable(8) %"struct.std::pair"** @_ZNK9__gnu_cxx17__normal_iteratorIPSt4pairIiiESt6vectorIS2_SaIS2_EEE4baseEv(%"class.__gnu_cxx::__normal_iterator"* %4) #3
  %28 = load %"struct.std::pair"*, %"struct.std::pair"** %27, align 8
  %29 = bitcast %"class.std::vector"* %0 to %"struct.std::_Vector_base"*
  %30 = call dereferenceable(1) %"class.std::allocator"* @_ZNSt12_Vector_baseISt4pairIiiESaIS1_EE19_M_get_Tp_allocatorEv(%"struct.std::_Vector_base"* %29) #3
  %31 = invoke %"struct.std::pair"* @_ZSt34__uninitialized_move_if_noexcept_aIPSt4pairIiiES2_SaIS1_EET0_T_S5_S4_RT1_(%"struct.std::pair"* %11, %"struct.std::pair"* %28, %"struct.std::pair"* %20, %"class.std::allocator"* dereferenceable(1) %30)
          to label %32 unwind label %40

32:                                               ; preds = %26
  %33 = getelementptr inbounds %"struct.std::pair", %"struct.std::pair"* %31, i32 1
  %34 = call dereferenceable(8) %"struct.std::pair"** @_ZNK9__gnu_cxx17__normal_iteratorIPSt4pairIiiESt6vectorIS2_SaIS2_EEE4baseEv(%"class.__gnu_cxx::__normal_iterator"* %4) #3
  %35 = load %"struct.std::pair"*, %"struct.std::pair"** %34, align 8
  %36 = bitcast %"class.std::vector"* %0 to %"struct.std::_Vector_base"*
  %37 = call dereferenceable(1) %"class.std::allocator"* @_ZNSt12_Vector_baseISt4pairIiiESaIS1_EE19_M_get_Tp_allocatorEv(%"struct.std::_Vector_base"* %36) #3
  %38 = invoke %"struct.std::pair"* @_ZSt34__uninitialized_move_if_noexcept_aIPSt4pairIiiES2_SaIS1_EET0_T_S5_S4_RT1_(%"struct.std::pair"* %35, %"struct.std::pair"* %15, %"struct.std::pair"* %33, %"class.std::allocator"* dereferenceable(1) %37)
          to label %39 unwind label %40

39:                                               ; preds = %32
  br label %65

40:                                               ; preds = %32, %26, %3
  %.0 = phi %"struct.std::pair"* [ %33, %32 ], [ null, %26 ], [ %20, %3 ]
  %41 = landingpad { i8*, i32 }
          catch i8* null
  %42 = extractvalue { i8*, i32 } %41, 0
  %43 = extractvalue { i8*, i32 } %41, 1
  br label %44

44:                                               ; preds = %40
  %45 = call i8* @__cxa_begin_catch(i8* %42) #3
  %46 = icmp ne %"struct.std::pair"* %.0, null
  br i1 %46, label %57, label %47

47:                                               ; preds = %44
  %48 = bitcast %"class.std::vector"* %0 to %"struct.std::_Vector_base"*
  %49 = getelementptr inbounds %"struct.std::_Vector_base", %"struct.std::_Vector_base"* %48, i32 0, i32 0
  %50 = bitcast %"struct.std::_Vector_base<std::pair<int, int>, std::allocator<std::pair<int, int> > >::_Vector_impl"* %49 to %"class.std::allocator"*
  %51 = getelementptr inbounds %"struct.std::pair", %"struct.std::pair"* %20, i64 %18
  invoke void @_ZNSt16allocator_traitsISaISt4pairIiiEEE7destroyIS1_EEvRS2_PT_(%"class.std::allocator"* dereferenceable(1) %50, %"struct.std::pair"* %51)
          to label %52 unwind label %53

52:                                               ; preds = %47
  br label %61

53:                                               ; preds = %63, %61, %57, %47
  %54 = landingpad { i8*, i32 }
          cleanup
  %55 = extractvalue { i8*, i32 } %54, 0
  %56 = extractvalue { i8*, i32 } %54, 1
  invoke void @__cxa_end_catch()
          to label %64 unwind label %90

57:                                               ; preds = %44
  %58 = bitcast %"class.std::vector"* %0 to %"struct.std::_Vector_base"*
  %59 = call dereferenceable(1) %"class.std::allocator"* @_ZNSt12_Vector_baseISt4pairIiiESaIS1_EE19_M_get_Tp_allocatorEv(%"struct.std::_Vector_base"* %58) #3
  invoke void @_ZSt8_DestroyIPSt4pairIiiES1_EvT_S3_RSaIT0_E(%"struct.std::pair"* %20, %"struct.std::pair"* %.0, %"class.std::allocator"* dereferenceable(1) %59)
          to label %60 unwind label %53

60:                                               ; preds = %57
  br label %61

61:                                               ; preds = %60, %52
  %62 = bitcast %"class.std::vector"* %0 to %"struct.std::_Vector_base"*
  invoke void @_ZNSt12_Vector_baseISt4pairIiiESaIS1_EE13_M_deallocateEPS1_m(%"struct.std::_Vector_base"* %62, %"struct.std::pair"* %20, i64 %7)
          to label %63 unwind label %53

63:                                               ; preds = %61
  invoke void @__cxa_rethrow() #15
          to label %93 unwind label %53

64:                                               ; preds = %53
  br label %87

65:                                               ; preds = %39
  %66 = bitcast %"class.std::vector"* %0 to %"struct.std::_Vector_base"*
  %67 = call dereferenceable(1) %"class.std::allocator"* @_ZNSt12_Vector_baseISt4pairIiiESaIS1_EE19_M_get_Tp_allocatorEv(%"struct.std::_Vector_base"* %66) #3
  call void @_ZSt8_DestroyIPSt4pairIiiES1_EvT_S3_RSaIT0_E(%"struct.std::pair"* %11, %"struct.std::pair"* %15, %"class.std::allocator"* dereferenceable(1) %67)
  %68 = bitcast %"class.std::vector"* %0 to %"struct.std::_Vector_base"*
  %69 = bitcast %"class.std::vector"* %0 to %"struct.std::_Vector_base"*
  %70 = getelementptr inbounds %"struct.std::_Vector_base", %"struct.std::_Vector_base"* %69, i32 0, i32 0
  %71 = getelementptr inbounds %"struct.std::_Vector_base<std::pair<int, int>, std::allocator<std::pair<int, int> > >::_Vector_impl", %"struct.std::_Vector_base<std::pair<int, int>, std::allocator<std::pair<int, int> > >::_Vector_impl"* %70, i32 0, i32 2
  %72 = load %"struct.std::pair"*, %"struct.std::pair"** %71, align 8
  %73 = ptrtoint %"struct.std::pair"* %72 to i64
  %74 = ptrtoint %"struct.std::pair"* %11 to i64
  %75 = sub i64 %73, %74
  %76 = sdiv exact i64 %75, 8
  call void @_ZNSt12_Vector_baseISt4pairIiiESaIS1_EE13_M_deallocateEPS1_m(%"struct.std::_Vector_base"* %68, %"struct.std::pair"* %11, i64 %76)
  %77 = bitcast %"class.std::vector"* %0 to %"struct.std::_Vector_base"*
  %78 = getelementptr inbounds %"struct.std::_Vector_base", %"struct.std::_Vector_base"* %77, i32 0, i32 0
  %79 = getelementptr inbounds %"struct.std::_Vector_base<std::pair<int, int>, std::allocator<std::pair<int, int> > >::_Vector_impl", %"struct.std::_Vector_base<std::pair<int, int>, std::allocator<std::pair<int, int> > >::_Vector_impl"* %78, i32 0, i32 0
  store %"struct.std::pair"* %20, %"struct.std::pair"** %79, align 8
  %80 = bitcast %"class.std::vector"* %0 to %"struct.std::_Vector_base"*
  %81 = getelementptr inbounds %"struct.std::_Vector_base", %"struct.std::_Vector_base"* %80, i32 0, i32 0
  %82 = getelementptr inbounds %"struct.std::_Vector_base<std::pair<int, int>, std::allocator<std::pair<int, int> > >::_Vector_impl", %"struct.std::_Vector_base<std::pair<int, int>, std::allocator<std::pair<int, int> > >::_Vector_impl"* %81, i32 0, i32 1
  store %"struct.std::pair"* %38, %"struct.std::pair"** %82, align 8
  %83 = getelementptr inbounds %"struct.std::pair", %"struct.std::pair"* %20, i64 %7
  %84 = bitcast %"class.std::vector"* %0 to %"struct.std::_Vector_base"*
  %85 = getelementptr inbounds %"struct.std::_Vector_base", %"struct.std::_Vector_base"* %84, i32 0, i32 0
  %86 = getelementptr inbounds %"struct.std::_Vector_base<std::pair<int, int>, std::allocator<std::pair<int, int> > >::_Vector_impl", %"struct.std::_Vector_base<std::pair<int, int>, std::allocator<std::pair<int, int> > >::_Vector_impl"* %85, i32 0, i32 2
  store %"struct.std::pair"* %83, %"struct.std::pair"** %86, align 8
  ret void

87:                                               ; preds = %64
  %88 = insertvalue { i8*, i32 } undef, i8* %55, 0
  %89 = insertvalue { i8*, i32 } %88, i32 %56, 1
  resume { i8*, i32 } %89

90:                                               ; preds = %53
  %91 = landingpad { i8*, i32 }
          catch i8* null
  %92 = extractvalue { i8*, i32 } %91, 0
  call void @__clang_call_terminate(i8* %92) #14
  unreachable

93:                                               ; preds = %63
  unreachable
}

; Function Attrs: noinline nounwind uwtable
define linkonce_odr %"struct.std::pair"* @_ZNSt6vectorISt4pairIiiESaIS1_EE3endEv(%"class.std::vector"* %0) #5 comdat align 2 {
  %2 = alloca %"class.__gnu_cxx::__normal_iterator", align 8
  %3 = bitcast %"class.std::vector"* %0 to %"struct.std::_Vector_base"*
  %4 = getelementptr inbounds %"struct.std::_Vector_base", %"struct.std::_Vector_base"* %3, i32 0, i32 0
  %5 = getelementptr inbounds %"struct.std::_Vector_base<std::pair<int, int>, std::allocator<std::pair<int, int> > >::_Vector_impl", %"struct.std::_Vector_base<std::pair<int, int>, std::allocator<std::pair<int, int> > >::_Vector_impl"* %4, i32 0, i32 1
  call void @_ZN9__gnu_cxx17__normal_iteratorIPSt4pairIiiESt6vectorIS2_SaIS2_EEEC2ERKS3_(%"class.__gnu_cxx::__normal_iterator"* %2, %"struct.std::pair"** dereferenceable(8) %5) #3
  %6 = getelementptr inbounds %"class.__gnu_cxx::__normal_iterator", %"class.__gnu_cxx::__normal_iterator"* %2, i32 0, i32 0
  %7 = load %"struct.std::pair"*, %"struct.std::pair"** %6, align 8
  ret %"struct.std::pair"* %7
}

; Function Attrs: noinline nounwind uwtable
define linkonce_odr void @_ZN9__gnu_cxx13new_allocatorISt4pairIiiEE9constructIS2_JS2_EEEvPT_DpOT0_(%"class.__gnu_cxx::new_allocator"* %0, %"struct.std::pair"* %1, %"struct.std::pair"* dereferenceable(8) %2) #5 comdat align 2 {
  %4 = bitcast %"struct.std::pair"* %1 to i8*
  %5 = bitcast i8* %4 to %"struct.std::pair"*
  %6 = call dereferenceable(8) %"struct.std::pair"* @_ZSt7forwardISt4pairIiiEEOT_RNSt16remove_referenceIS2_E4typeE(%"struct.std::pair"* dereferenceable(8) %2) #3
  %7 = bitcast %"struct.std::pair"* %5 to i8*
  %8 = bitcast %"struct.std::pair"* %6 to i8*
  call void @llvm.memcpy.p0i8.p0i8.i64(i8* align 4 %7, i8* align 4 %8, i64 8, i1 false)
  ret void
}

; Function Attrs: noinline uwtable
define linkonce_odr i64 @_ZNKSt6vectorISt4pairIiiESaIS1_EE12_M_check_lenEmPKc(%"class.std::vector"* %0, i64 %1, i8* %2) #0 comdat align 2 {
  %4 = alloca i64, align 8
  %5 = alloca i64, align 8
  store i64 %1, i64* %4, align 8
  %6 = call i64 @_ZNKSt6vectorISt4pairIiiESaIS1_EE8max_sizeEv(%"class.std::vector"* %0) #3
  %7 = call i64 @_ZNKSt6vectorISt4pairIiiESaIS1_EE4sizeEv(%"class.std::vector"* %0) #3
  %8 = sub i64 %6, %7
  %9 = load i64, i64* %4, align 8
  %10 = icmp ult i64 %8, %9
  br i1 %10, label %11, label %12

11:                                               ; preds = %3
  call void @_ZSt20__throw_length_errorPKc(i8* %2) #15
  unreachable

12:                                               ; preds = %3
  %13 = call i64 @_ZNKSt6vectorISt4pairIiiESaIS1_EE4sizeEv(%"class.std::vector"* %0) #3
  %14 = call i64 @_ZNKSt6vectorISt4pairIiiESaIS1_EE4sizeEv(%"class.std::vector"* %0) #3
  store i64 %14, i64* %5, align 8
  %15 = call dereferenceable(8) i64* @_ZSt3maxImERKT_S2_S2_(i64* dereferenceable(8) %5, i64* dereferenceable(8) %4)
  %16 = load i64, i64* %15, align 8
  %17 = add i64 %13, %16
  %18 = call i64 @_ZNKSt6vectorISt4pairIiiESaIS1_EE4sizeEv(%"class.std::vector"* %0) #3
  %19 = icmp ult i64 %17, %18
  br i1 %19, label %23, label %20

20:                                               ; preds = %12
  %21 = call i64 @_ZNKSt6vectorISt4pairIiiESaIS1_EE8max_sizeEv(%"class.std::vector"* %0) #3
  %22 = icmp ugt i64 %17, %21
  br i1 %22, label %23, label %25

23:                                               ; preds = %20, %12
  %24 = call i64 @_ZNKSt6vectorISt4pairIiiESaIS1_EE8max_sizeEv(%"class.std::vector"* %0) #3
  br label %26

25:                                               ; preds = %20
  br label %26

26:                                               ; preds = %25, %23
  %27 = phi i64 [ %24, %23 ], [ %17, %25 ]
  ret i64 %27
}

; Function Attrs: noinline nounwind uwtable
define linkonce_odr i64 @_ZN9__gnu_cxxmiIPSt4pairIiiESt6vectorIS2_SaIS2_EEEENS_17__normal_iteratorIT_T0_E15difference_typeERKSA_SD_(%"class.__gnu_cxx::__normal_iterator"* dereferenceable(8) %0, %"class.__gnu_cxx::__normal_iterator"* dereferenceable(8) %1) #5 comdat {
  %3 = call dereferenceable(8) %"struct.std::pair"** @_ZNK9__gnu_cxx17__normal_iteratorIPSt4pairIiiESt6vectorIS2_SaIS2_EEE4baseEv(%"class.__gnu_cxx::__normal_iterator"* %0) #3
  %4 = load %"struct.std::pair"*, %"struct.std::pair"** %3, align 8
  %5 = call dereferenceable(8) %"struct.std::pair"** @_ZNK9__gnu_cxx17__normal_iteratorIPSt4pairIiiESt6vectorIS2_SaIS2_EEE4baseEv(%"class.__gnu_cxx::__normal_iterator"* %1) #3
  %6 = load %"struct.std::pair"*, %"struct.std::pair"** %5, align 8
  %7 = ptrtoint %"struct.std::pair"* %4 to i64
  %8 = ptrtoint %"struct.std::pair"* %6 to i64
  %9 = sub i64 %7, %8
  %10 = sdiv exact i64 %9, 8
  ret i64 %10
}

; Function Attrs: noinline nounwind uwtable
define linkonce_odr %"struct.std::pair"* @_ZNSt6vectorISt4pairIiiESaIS1_EE5beginEv(%"class.std::vector"* %0) #5 comdat align 2 {
  %2 = alloca %"class.__gnu_cxx::__normal_iterator", align 8
  %3 = bitcast %"class.std::vector"* %0 to %"struct.std::_Vector_base"*
  %4 = getelementptr inbounds %"struct.std::_Vector_base", %"struct.std::_Vector_base"* %3, i32 0, i32 0
  %5 = getelementptr inbounds %"struct.std::_Vector_base<std::pair<int, int>, std::allocator<std::pair<int, int> > >::_Vector_impl", %"struct.std::_Vector_base<std::pair<int, int>, std::allocator<std::pair<int, int> > >::_Vector_impl"* %4, i32 0, i32 0
  call void @_ZN9__gnu_cxx17__normal_iteratorIPSt4pairIiiESt6vectorIS2_SaIS2_EEEC2ERKS3_(%"class.__gnu_cxx::__normal_iterator"* %2, %"struct.std::pair"** dereferenceable(8) %5) #3
  %6 = getelementptr inbounds %"class.__gnu_cxx::__normal_iterator", %"class.__gnu_cxx::__normal_iterator"* %2, i32 0, i32 0
  %7 = load %"struct.std::pair"*, %"struct.std::pair"** %6, align 8
  ret %"struct.std::pair"* %7
}

; Function Attrs: noinline uwtable
define linkonce_odr %"struct.std::pair"* @_ZNSt12_Vector_baseISt4pairIiiESaIS1_EE11_M_allocateEm(%"struct.std::_Vector_base"* %0, i64 %1) #0 comdat align 2 {
  %3 = icmp ne i64 %1, 0
  br i1 %3, label %4, label %8

4:                                                ; preds = %2
  %5 = getelementptr inbounds %"struct.std::_Vector_base", %"struct.std::_Vector_base"* %0, i32 0, i32 0
  %6 = bitcast %"struct.std::_Vector_base<std::pair<int, int>, std::allocator<std::pair<int, int> > >::_Vector_impl"* %5 to %"class.std::allocator"*
  %7 = call %"struct.std::pair"* @_ZNSt16allocator_traitsISaISt4pairIiiEEE8allocateERS2_m(%"class.std::allocator"* dereferenceable(1) %6, i64 %1)
  br label %9

8:                                                ; preds = %2
  br label %9

9:                                                ; preds = %8, %4
  %10 = phi %"struct.std::pair"* [ %7, %4 ], [ null, %8 ]
  ret %"struct.std::pair"* %10
}

; Function Attrs: noinline uwtable
define linkonce_odr %"struct.std::pair"* @_ZSt34__uninitialized_move_if_noexcept_aIPSt4pairIiiES2_SaIS1_EET0_T_S5_S4_RT1_(%"struct.std::pair"* %0, %"struct.std::pair"* %1, %"struct.std::pair"* %2, %"class.std::allocator"* dereferenceable(1) %3) #0 comdat {
  %5 = alloca %"class.std::move_iterator", align 8
  %6 = alloca %"class.std::move_iterator", align 8
  %7 = call %"struct.std::pair"* @_ZSt32__make_move_if_noexcept_iteratorISt4pairIiiESt13move_iteratorIPS1_EET0_PT_(%"struct.std::pair"* %0)
  %8 = getelementptr inbounds %"class.std::move_iterator", %"class.std::move_iterator"* %5, i32 0, i32 0
  store %"struct.std::pair"* %7, %"struct.std::pair"** %8, align 8
  %9 = call %"struct.std::pair"* @_ZSt32__make_move_if_noexcept_iteratorISt4pairIiiESt13move_iteratorIPS1_EET0_PT_(%"struct.std::pair"* %1)
  %10 = getelementptr inbounds %"class.std::move_iterator", %"class.std::move_iterator"* %6, i32 0, i32 0
  store %"struct.std::pair"* %9, %"struct.std::pair"** %10, align 8
  %11 = getelementptr inbounds %"class.std::move_iterator", %"class.std::move_iterator"* %5, i32 0, i32 0
  %12 = load %"struct.std::pair"*, %"struct.std::pair"** %11, align 8
  %13 = getelementptr inbounds %"class.std::move_iterator", %"class.std::move_iterator"* %6, i32 0, i32 0
  %14 = load %"struct.std::pair"*, %"struct.std::pair"** %13, align 8
  %15 = call %"struct.std::pair"* @_ZSt22__uninitialized_copy_aISt13move_iteratorIPSt4pairIiiEES3_S2_ET0_T_S6_S5_RSaIT1_E(%"struct.std::pair"* %12, %"struct.std::pair"* %14, %"struct.std::pair"* %2, %"class.std::allocator"* dereferenceable(1) %3)
  ret %"struct.std::pair"* %15
}

; Function Attrs: noinline nounwind uwtable
define linkonce_odr dereferenceable(8) %"struct.std::pair"** @_ZNK9__gnu_cxx17__normal_iteratorIPSt4pairIiiESt6vectorIS2_SaIS2_EEE4baseEv(%"class.__gnu_cxx::__normal_iterator"* %0) #5 comdat align 2 {
  %2 = getelementptr inbounds %"class.__gnu_cxx::__normal_iterator", %"class.__gnu_cxx::__normal_iterator"* %0, i32 0, i32 0
  ret %"struct.std::pair"** %2
}

; Function Attrs: noinline uwtable
define linkonce_odr void @_ZNSt16allocator_traitsISaISt4pairIiiEEE7destroyIS1_EEvRS2_PT_(%"class.std::allocator"* dereferenceable(1) %0, %"struct.std::pair"* %1) #0 comdat align 2 {
  %3 = bitcast %"class.std::allocator"* %0 to %"class.__gnu_cxx::new_allocator"*
  call void @_ZN9__gnu_cxx13new_allocatorISt4pairIiiEE7destroyIS2_EEvPT_(%"class.__gnu_cxx::new_allocator"* %3, %"struct.std::pair"* %1)
  ret void
}

declare void @__cxa_rethrow()

declare void @__cxa_end_catch()

; Function Attrs: noinline nounwind uwtable
define linkonce_odr i64 @_ZNKSt6vectorISt4pairIiiESaIS1_EE8max_sizeEv(%"class.std::vector"* %0) #5 comdat align 2 {
  %2 = bitcast %"class.std::vector"* %0 to %"struct.std::_Vector_base"*
  %3 = call dereferenceable(1) %"class.std::allocator"* @_ZNKSt12_Vector_baseISt4pairIiiESaIS1_EE19_M_get_Tp_allocatorEv(%"struct.std::_Vector_base"* %2) #3
  %4 = call i64 @_ZNSt16allocator_traitsISaISt4pairIiiEEE8max_sizeERKS2_(%"class.std::allocator"* dereferenceable(1) %3) #3
  ret i64 %4
}

; Function Attrs: noreturn
declare void @_ZSt20__throw_length_errorPKc(i8*) #9

; Function Attrs: noinline nounwind uwtable
define linkonce_odr dereferenceable(8) i64* @_ZSt3maxImERKT_S2_S2_(i64* dereferenceable(8) %0, i64* dereferenceable(8) %1) #5 comdat {
  %3 = load i64, i64* %0, align 8
  %4 = load i64, i64* %1, align 8
  %5 = icmp ult i64 %3, %4
  br i1 %5, label %6, label %7

6:                                                ; preds = %2
  br label %8

7:                                                ; preds = %2
  br label %8

8:                                                ; preds = %7, %6
  %.0 = phi i64* [ %1, %6 ], [ %0, %7 ]
  ret i64* %.0
}

; Function Attrs: noinline nounwind uwtable
define linkonce_odr i64 @_ZNSt16allocator_traitsISaISt4pairIiiEEE8max_sizeERKS2_(%"class.std::allocator"* dereferenceable(1) %0) #5 comdat align 2 {
  %2 = bitcast %"class.std::allocator"* %0 to %"class.__gnu_cxx::new_allocator"*
  %3 = call i64 @_ZNK9__gnu_cxx13new_allocatorISt4pairIiiEE8max_sizeEv(%"class.__gnu_cxx::new_allocator"* %2) #3
  ret i64 %3
}

; Function Attrs: noinline nounwind uwtable
define linkonce_odr dereferenceable(1) %"class.std::allocator"* @_ZNKSt12_Vector_baseISt4pairIiiESaIS1_EE19_M_get_Tp_allocatorEv(%"struct.std::_Vector_base"* %0) #5 comdat align 2 {
  %2 = getelementptr inbounds %"struct.std::_Vector_base", %"struct.std::_Vector_base"* %0, i32 0, i32 0
  %3 = bitcast %"struct.std::_Vector_base<std::pair<int, int>, std::allocator<std::pair<int, int> > >::_Vector_impl"* %2 to %"class.std::allocator"*
  ret %"class.std::allocator"* %3
}

; Function Attrs: noinline nounwind uwtable
define linkonce_odr i64 @_ZNK9__gnu_cxx13new_allocatorISt4pairIiiEE8max_sizeEv(%"class.__gnu_cxx::new_allocator"* %0) #5 comdat align 2 {
  ret i64 2305843009213693951
}

; Function Attrs: noinline nounwind uwtable
define linkonce_odr void @_ZN9__gnu_cxx17__normal_iteratorIPSt4pairIiiESt6vectorIS2_SaIS2_EEEC2ERKS3_(%"class.__gnu_cxx::__normal_iterator"* %0, %"struct.std::pair"** dereferenceable(8) %1) unnamed_addr #5 comdat align 2 {
  %3 = getelementptr inbounds %"class.__gnu_cxx::__normal_iterator", %"class.__gnu_cxx::__normal_iterator"* %0, i32 0, i32 0
  %4 = load %"struct.std::pair"*, %"struct.std::pair"** %1, align 8
  store %"struct.std::pair"* %4, %"struct.std::pair"** %3, align 8
  ret void
}

; Function Attrs: noinline uwtable
define linkonce_odr %"struct.std::pair"* @_ZNSt16allocator_traitsISaISt4pairIiiEEE8allocateERS2_m(%"class.std::allocator"* dereferenceable(1) %0, i64 %1) #0 comdat align 2 {
  %3 = bitcast %"class.std::allocator"* %0 to %"class.__gnu_cxx::new_allocator"*
  %4 = call %"struct.std::pair"* @_ZN9__gnu_cxx13new_allocatorISt4pairIiiEE8allocateEmPKv(%"class.__gnu_cxx::new_allocator"* %3, i64 %1, i8* null)
  ret %"struct.std::pair"* %4
}

; Function Attrs: noinline uwtable
define linkonce_odr %"struct.std::pair"* @_ZN9__gnu_cxx13new_allocatorISt4pairIiiEE8allocateEmPKv(%"class.__gnu_cxx::new_allocator"* %0, i64 %1, i8* %2) #0 comdat align 2 {
  %4 = call i64 @_ZNK9__gnu_cxx13new_allocatorISt4pairIiiEE8max_sizeEv(%"class.__gnu_cxx::new_allocator"* %0) #3
  %5 = icmp ugt i64 %1, %4
  br i1 %5, label %6, label %7

6:                                                ; preds = %3
  call void @_ZSt17__throw_bad_allocv() #15
  unreachable

7:                                                ; preds = %3
  %8 = mul i64 %1, 8
  %9 = call i8* @_Znwm(i64 %8)
  %10 = bitcast i8* %9 to %"struct.std::pair"*
  ret %"struct.std::pair"* %10
}

; Function Attrs: noreturn
declare void @_ZSt17__throw_bad_allocv() #9

; Function Attrs: nobuiltin
declare noalias i8* @_Znwm(i64) #10

; Function Attrs: noinline uwtable
define linkonce_odr %"struct.std::pair"* @_ZSt22__uninitialized_copy_aISt13move_iteratorIPSt4pairIiiEES3_S2_ET0_T_S6_S5_RSaIT1_E(%"struct.std::pair"* %0, %"struct.std::pair"* %1, %"struct.std::pair"* %2, %"class.std::allocator"* dereferenceable(1) %3) #0 comdat {
  %5 = alloca %"class.std::move_iterator", align 8
  %6 = alloca %"class.std::move_iterator", align 8
  %7 = alloca %"class.std::move_iterator", align 8
  %8 = alloca %"class.std::move_iterator", align 8
  %9 = getelementptr inbounds %"class.std::move_iterator", %"class.std::move_iterator"* %5, i32 0, i32 0
  store %"struct.std::pair"* %0, %"struct.std::pair"** %9, align 8
  %10 = getelementptr inbounds %"class.std::move_iterator", %"class.std::move_iterator"* %6, i32 0, i32 0
  store %"struct.std::pair"* %1, %"struct.std::pair"** %10, align 8
  %11 = bitcast %"class.std::move_iterator"* %7 to i8*
  %12 = bitcast %"class.std::move_iterator"* %5 to i8*
  call void @llvm.memcpy.p0i8.p0i8.i64(i8* align 8 %11, i8* align 8 %12, i64 8, i1 false)
  %13 = bitcast %"class.std::move_iterator"* %8 to i8*
  %14 = bitcast %"class.std::move_iterator"* %6 to i8*
  call void @llvm.memcpy.p0i8.p0i8.i64(i8* align 8 %13, i8* align 8 %14, i64 8, i1 false)
  %15 = getelementptr inbounds %"class.std::move_iterator", %"class.std::move_iterator"* %7, i32 0, i32 0
  %16 = load %"struct.std::pair"*, %"struct.std::pair"** %15, align 8
  %17 = getelementptr inbounds %"class.std::move_iterator", %"class.std::move_iterator"* %8, i32 0, i32 0
  %18 = load %"struct.std::pair"*, %"struct.std::pair"** %17, align 8
  %19 = call %"struct.std::pair"* @_ZSt18uninitialized_copyISt13move_iteratorIPSt4pairIiiEES3_ET0_T_S6_S5_(%"struct.std::pair"* %16, %"struct.std::pair"* %18, %"struct.std::pair"* %2)
  ret %"struct.std::pair"* %19
}

; Function Attrs: noinline uwtable
define linkonce_odr %"struct.std::pair"* @_ZSt32__make_move_if_noexcept_iteratorISt4pairIiiESt13move_iteratorIPS1_EET0_PT_(%"struct.std::pair"* %0) #0 comdat {
  %2 = alloca %"class.std::move_iterator", align 8
  call void @_ZNSt13move_iteratorIPSt4pairIiiEEC2ES2_(%"class.std::move_iterator"* %2, %"struct.std::pair"* %0)
  %3 = getelementptr inbounds %"class.std::move_iterator", %"class.std::move_iterator"* %2, i32 0, i32 0
  %4 = load %"struct.std::pair"*, %"struct.std::pair"** %3, align 8
  ret %"struct.std::pair"* %4
}

; Function Attrs: noinline uwtable
define linkonce_odr %"struct.std::pair"* @_ZSt18uninitialized_copyISt13move_iteratorIPSt4pairIiiEES3_ET0_T_S6_S5_(%"struct.std::pair"* %0, %"struct.std::pair"* %1, %"struct.std::pair"* %2) #0 comdat {
  %4 = alloca %"class.std::move_iterator", align 8
  %5 = alloca %"class.std::move_iterator", align 8
  %6 = alloca %"class.std::move_iterator", align 8
  %7 = alloca %"class.std::move_iterator", align 8
  %8 = getelementptr inbounds %"class.std::move_iterator", %"class.std::move_iterator"* %4, i32 0, i32 0
  store %"struct.std::pair"* %0, %"struct.std::pair"** %8, align 8
  %9 = getelementptr inbounds %"class.std::move_iterator", %"class.std::move_iterator"* %5, i32 0, i32 0
  store %"struct.std::pair"* %1, %"struct.std::pair"** %9, align 8
  %10 = bitcast %"class.std::move_iterator"* %6 to i8*
  %11 = bitcast %"class.std::move_iterator"* %4 to i8*
  call void @llvm.memcpy.p0i8.p0i8.i64(i8* align 8 %10, i8* align 8 %11, i64 8, i1 false)
  %12 = bitcast %"class.std::move_iterator"* %7 to i8*
  %13 = bitcast %"class.std::move_iterator"* %5 to i8*
  call void @llvm.memcpy.p0i8.p0i8.i64(i8* align 8 %12, i8* align 8 %13, i64 8, i1 false)
  %14 = getelementptr inbounds %"class.std::move_iterator", %"class.std::move_iterator"* %6, i32 0, i32 0
  %15 = load %"struct.std::pair"*, %"struct.std::pair"** %14, align 8
  %16 = getelementptr inbounds %"class.std::move_iterator", %"class.std::move_iterator"* %7, i32 0, i32 0
  %17 = load %"struct.std::pair"*, %"struct.std::pair"** %16, align 8
  %18 = call %"struct.std::pair"* @_ZNSt20__uninitialized_copyILb0EE13__uninit_copyISt13move_iteratorIPSt4pairIiiEES5_EET0_T_S8_S7_(%"struct.std::pair"* %15, %"struct.std::pair"* %17, %"struct.std::pair"* %2)
  ret %"struct.std::pair"* %18
}

; Function Attrs: noinline uwtable
define linkonce_odr %"struct.std::pair"* @_ZNSt20__uninitialized_copyILb0EE13__uninit_copyISt13move_iteratorIPSt4pairIiiEES5_EET0_T_S8_S7_(%"struct.std::pair"* %0, %"struct.std::pair"* %1, %"struct.std::pair"* %2) #0 comdat align 2 personality i8* bitcast (i32 (...)* @__gxx_personality_v0 to i8*) {
  %4 = alloca %"class.std::move_iterator", align 8
  %5 = alloca %"class.std::move_iterator", align 8
  %6 = getelementptr inbounds %"class.std::move_iterator", %"class.std::move_iterator"* %4, i32 0, i32 0
  store %"struct.std::pair"* %0, %"struct.std::pair"** %6, align 8
  %7 = getelementptr inbounds %"class.std::move_iterator", %"class.std::move_iterator"* %5, i32 0, i32 0
  store %"struct.std::pair"* %1, %"struct.std::pair"** %7, align 8
  br label %8

8:                                                ; preds = %18, %3
  %.0 = phi %"struct.std::pair"* [ %2, %3 ], [ %19, %18 ]
  %9 = invoke zeroext i1 @_ZStneIPSt4pairIiiEEbRKSt13move_iteratorIT_ES7_(%"class.std::move_iterator"* dereferenceable(8) %4, %"class.std::move_iterator"* dereferenceable(8) %5)
          to label %10 unwind label %20

10:                                               ; preds = %8
  br i1 %9, label %11, label %27

11:                                               ; preds = %10
  %12 = call %"struct.std::pair"* @_ZSt11__addressofISt4pairIiiEEPT_RS2_(%"struct.std::pair"* dereferenceable(8) %.0) #3
  %13 = invoke dereferenceable(8) %"struct.std::pair"* @_ZNKSt13move_iteratorIPSt4pairIiiEEdeEv(%"class.std::move_iterator"* %4)
          to label %14 unwind label %20

14:                                               ; preds = %11
  invoke void @_ZSt10_ConstructISt4pairIiiEJS1_EEvPT_DpOT0_(%"struct.std::pair"* %12, %"struct.std::pair"* dereferenceable(8) %13)
          to label %15 unwind label %20

15:                                               ; preds = %14
  br label %16

16:                                               ; preds = %15
  %17 = invoke dereferenceable(8) %"class.std::move_iterator"* @_ZNSt13move_iteratorIPSt4pairIiiEEppEv(%"class.std::move_iterator"* %4)
          to label %18 unwind label %20

18:                                               ; preds = %16
  %19 = getelementptr inbounds %"struct.std::pair", %"struct.std::pair"* %.0, i32 1
  br label %8

20:                                               ; preds = %16, %14, %11, %8
  %21 = landingpad { i8*, i32 }
          catch i8* null
  %22 = extractvalue { i8*, i32 } %21, 0
  %23 = extractvalue { i8*, i32 } %21, 1
  br label %24

24:                                               ; preds = %20
  %25 = call i8* @__cxa_begin_catch(i8* %22) #3
  invoke void @_ZSt8_DestroyIPSt4pairIiiEEvT_S3_(%"struct.std::pair"* %2, %"struct.std::pair"* %.0)
          to label %26 unwind label %28

26:                                               ; preds = %24
  invoke void @__cxa_rethrow() #15
          to label %40 unwind label %28

27:                                               ; preds = %10
  ret %"struct.std::pair"* %.0

28:                                               ; preds = %26, %24
  %29 = landingpad { i8*, i32 }
          cleanup
  %30 = extractvalue { i8*, i32 } %29, 0
  %31 = extractvalue { i8*, i32 } %29, 1
  invoke void @__cxa_end_catch()
          to label %32 unwind label %37

32:                                               ; preds = %28
  br label %34

33:                                               ; No predecessors!
  call void @llvm.trap()
  unreachable

34:                                               ; preds = %32
  %35 = insertvalue { i8*, i32 } undef, i8* %30, 0
  %36 = insertvalue { i8*, i32 } %35, i32 %31, 1
  resume { i8*, i32 } %36

37:                                               ; preds = %28
  %38 = landingpad { i8*, i32 }
          catch i8* null
  %39 = extractvalue { i8*, i32 } %38, 0
  call void @__clang_call_terminate(i8* %39) #14
  unreachable

40:                                               ; preds = %26
  unreachable
}

; Function Attrs: noinline uwtable
define linkonce_odr zeroext i1 @_ZStneIPSt4pairIiiEEbRKSt13move_iteratorIT_ES7_(%"class.std::move_iterator"* dereferenceable(8) %0, %"class.std::move_iterator"* dereferenceable(8) %1) #0 comdat {
  %3 = call zeroext i1 @_ZSteqIPSt4pairIiiEEbRKSt13move_iteratorIT_ES7_(%"class.std::move_iterator"* dereferenceable(8) %0, %"class.std::move_iterator"* dereferenceable(8) %1)
  %4 = xor i1 %3, true
  ret i1 %4
}

; Function Attrs: noinline nounwind uwtable
define linkonce_odr void @_ZSt10_ConstructISt4pairIiiEJS1_EEvPT_DpOT0_(%"struct.std::pair"* %0, %"struct.std::pair"* dereferenceable(8) %1) #5 comdat {
  %3 = bitcast %"struct.std::pair"* %0 to i8*
  %4 = bitcast i8* %3 to %"struct.std::pair"*
  %5 = call dereferenceable(8) %"struct.std::pair"* @_ZSt7forwardISt4pairIiiEEOT_RNSt16remove_referenceIS2_E4typeE(%"struct.std::pair"* dereferenceable(8) %1) #3
  %6 = bitcast %"struct.std::pair"* %4 to i8*
  %7 = bitcast %"struct.std::pair"* %5 to i8*
  call void @llvm.memcpy.p0i8.p0i8.i64(i8* align 4 %6, i8* align 4 %7, i64 8, i1 false)
  ret void
}

; Function Attrs: noinline nounwind uwtable
define linkonce_odr %"struct.std::pair"* @_ZSt11__addressofISt4pairIiiEEPT_RS2_(%"struct.std::pair"* dereferenceable(8) %0) #5 comdat {
  ret %"struct.std::pair"* %0
}

; Function Attrs: noinline nounwind uwtable
define linkonce_odr dereferenceable(8) %"struct.std::pair"* @_ZNKSt13move_iteratorIPSt4pairIiiEEdeEv(%"class.std::move_iterator"* %0) #5 comdat align 2 {
  %2 = getelementptr inbounds %"class.std::move_iterator", %"class.std::move_iterator"* %0, i32 0, i32 0
  %3 = load %"struct.std::pair"*, %"struct.std::pair"** %2, align 8
  ret %"struct.std::pair"* %3
}

; Function Attrs: noinline nounwind uwtable
define linkonce_odr dereferenceable(8) %"class.std::move_iterator"* @_ZNSt13move_iteratorIPSt4pairIiiEEppEv(%"class.std::move_iterator"* %0) #5 comdat align 2 {
  %2 = getelementptr inbounds %"class.std::move_iterator", %"class.std::move_iterator"* %0, i32 0, i32 0
  %3 = load %"struct.std::pair"*, %"struct.std::pair"** %2, align 8
  %4 = getelementptr inbounds %"struct.std::pair", %"struct.std::pair"* %3, i32 1
  store %"struct.std::pair"* %4, %"struct.std::pair"** %2, align 8
  ret %"class.std::move_iterator"* %0
}

; Function Attrs: cold noreturn nounwind
declare void @llvm.trap() #11

; Function Attrs: noinline uwtable
define linkonce_odr zeroext i1 @_ZSteqIPSt4pairIiiEEbRKSt13move_iteratorIT_ES7_(%"class.std::move_iterator"* dereferenceable(8) %0, %"class.std::move_iterator"* dereferenceable(8) %1) #0 comdat {
  %3 = call %"struct.std::pair"* @_ZNKSt13move_iteratorIPSt4pairIiiEE4baseEv(%"class.std::move_iterator"* %0)
  %4 = call %"struct.std::pair"* @_ZNKSt13move_iteratorIPSt4pairIiiEE4baseEv(%"class.std::move_iterator"* %1)
  %5 = icmp eq %"struct.std::pair"* %3, %4
  ret i1 %5
}

; Function Attrs: noinline nounwind uwtable
define linkonce_odr %"struct.std::pair"* @_ZNKSt13move_iteratorIPSt4pairIiiEE4baseEv(%"class.std::move_iterator"* %0) #5 comdat align 2 {
  %2 = getelementptr inbounds %"class.std::move_iterator", %"class.std::move_iterator"* %0, i32 0, i32 0
  %3 = load %"struct.std::pair"*, %"struct.std::pair"** %2, align 8
  ret %"struct.std::pair"* %3
}

; Function Attrs: noinline nounwind uwtable
define linkonce_odr void @_ZNSt13move_iteratorIPSt4pairIiiEEC2ES2_(%"class.std::move_iterator"* %0, %"struct.std::pair"* %1) unnamed_addr #5 comdat align 2 {
  %3 = getelementptr inbounds %"class.std::move_iterator", %"class.std::move_iterator"* %0, i32 0, i32 0
  store %"struct.std::pair"* %1, %"struct.std::pair"** %3, align 8
  ret void
}

; Function Attrs: noinline nounwind uwtable
define linkonce_odr void @_ZN9__gnu_cxx13new_allocatorISt4pairIiiEE7destroyIS2_EEvPT_(%"class.__gnu_cxx::new_allocator"* %0, %"struct.std::pair"* %1) #5 comdat align 2 {
  ret void
}

; Function Attrs: noinline nounwind uwtable
define linkonce_odr dereferenceable(4) i32* @_ZSt4moveIRiEONSt16remove_referenceIT_E4typeEOS2_(i32* dereferenceable(4) %0) #5 comdat {
  ret i32* %0
}

; Function Attrs: noinline uwtable
define internal void @"_ZSt6__sortIPiN9__gnu_cxx5__ops15_Iter_comp_iterIZ4mainE3$_0EEEvT_S6_T0_"(i32* %0, i32* %1) #0 {
  %3 = alloca %"struct.__gnu_cxx::__ops::_Iter_comp_iter", align 1
  %4 = alloca %"struct.__gnu_cxx::__ops::_Iter_comp_iter", align 1
  %5 = alloca %"struct.__gnu_cxx::__ops::_Iter_comp_iter", align 1
  %6 = icmp ne i32* %0, %1
  br i1 %6, label %7, label %18

7:                                                ; preds = %2
  %8 = ptrtoint i32* %1 to i64
  %9 = ptrtoint i32* %0 to i64
  %10 = sub i64 %8, %9
  %11 = sdiv exact i64 %10, 4
  %12 = call i64 @_ZSt4__lgl(i64 %11)
  %13 = mul nsw i64 %12, 2
  %14 = bitcast %"struct.__gnu_cxx::__ops::_Iter_comp_iter"* %4 to i8*
  %15 = bitcast %"struct.__gnu_cxx::__ops::_Iter_comp_iter"* %3 to i8*
  call void @llvm.memcpy.p0i8.p0i8.i64(i8* align 1 %14, i8* align 1 %15, i64 1, i1 false)
  call void @"_ZSt16__introsort_loopIPilN9__gnu_cxx5__ops15_Iter_comp_iterIZ4mainE3$_0EEEvT_S6_T0_T1_"(i32* %0, i32* %1, i64 %13)
  %16 = bitcast %"struct.__gnu_cxx::__ops::_Iter_comp_iter"* %5 to i8*
  %17 = bitcast %"struct.__gnu_cxx::__ops::_Iter_comp_iter"* %3 to i8*
  call void @llvm.memcpy.p0i8.p0i8.i64(i8* align 1 %16, i8* align 1 %17, i64 1, i1 false)
  call void @"_ZSt22__final_insertion_sortIPiN9__gnu_cxx5__ops15_Iter_comp_iterIZ4mainE3$_0EEEvT_S6_T0_"(i32* %0, i32* %1)
  br label %18

18:                                               ; preds = %7, %2
  ret void
}

; Function Attrs: noinline uwtable
define internal void @"_ZN9__gnu_cxx5__ops16__iter_comp_iterIZ4mainE3$_0EENS0_15_Iter_comp_iterIT_EES4_"() #0 {
  %1 = alloca %"struct.__gnu_cxx::__ops::_Iter_comp_iter", align 1
  %2 = alloca %class.anon, align 1
  %3 = call dereferenceable(1) %class.anon* @"_ZSt4moveIRZ4mainE3$_0EONSt16remove_referenceIT_E4typeEOS3_"(%class.anon* dereferenceable(1) %2) #3
  call void @"_ZN9__gnu_cxx5__ops15_Iter_comp_iterIZ4mainE3$_0EC2ES2_"(%"struct.__gnu_cxx::__ops::_Iter_comp_iter"* %1)
  ret void
}

; Function Attrs: noinline uwtable
define internal void @"_ZSt16__introsort_loopIPilN9__gnu_cxx5__ops15_Iter_comp_iterIZ4mainE3$_0EEEvT_S6_T0_T1_"(i32* %0, i32* %1, i64 %2) #0 {
  %4 = alloca %"struct.__gnu_cxx::__ops::_Iter_comp_iter", align 1
  %5 = alloca %"struct.__gnu_cxx::__ops::_Iter_comp_iter", align 1
  %6 = alloca %"struct.__gnu_cxx::__ops::_Iter_comp_iter", align 1
  %7 = alloca %"struct.__gnu_cxx::__ops::_Iter_comp_iter", align 1
  br label %8

8:                                                ; preds = %19, %3
  %.01 = phi i32* [ %1, %3 ], [ %23, %19 ]
  %.0 = phi i64 [ %2, %3 ], [ %20, %19 ]
  %9 = ptrtoint i32* %.01 to i64
  %10 = ptrtoint i32* %0 to i64
  %11 = sub i64 %9, %10
  %12 = sdiv exact i64 %11, 4
  %13 = icmp sgt i64 %12, 16
  br i1 %13, label %14, label %26

14:                                               ; preds = %8
  %15 = icmp eq i64 %.0, 0
  br i1 %15, label %16, label %19

16:                                               ; preds = %14
  %17 = bitcast %"struct.__gnu_cxx::__ops::_Iter_comp_iter"* %5 to i8*
  %18 = bitcast %"struct.__gnu_cxx::__ops::_Iter_comp_iter"* %4 to i8*
  call void @llvm.memcpy.p0i8.p0i8.i64(i8* align 1 %17, i8* align 1 %18, i64 1, i1 false)
  call void @"_ZSt14__partial_sortIPiN9__gnu_cxx5__ops15_Iter_comp_iterIZ4mainE3$_0EEEvT_S6_S6_T0_"(i32* %0, i32* %.01, i32* %.01)
  br label %26

19:                                               ; preds = %14
  %20 = add nsw i64 %.0, -1
  %21 = bitcast %"struct.__gnu_cxx::__ops::_Iter_comp_iter"* %6 to i8*
  %22 = bitcast %"struct.__gnu_cxx::__ops::_Iter_comp_iter"* %4 to i8*
  call void @llvm.memcpy.p0i8.p0i8.i64(i8* align 1 %21, i8* align 1 %22, i64 1, i1 false)
  %23 = call i32* @"_ZSt27__unguarded_partition_pivotIPiN9__gnu_cxx5__ops15_Iter_comp_iterIZ4mainE3$_0EEET_S6_S6_T0_"(i32* %0, i32* %.01)
  %24 = bitcast %"struct.__gnu_cxx::__ops::_Iter_comp_iter"* %7 to i8*
  %25 = bitcast %"struct.__gnu_cxx::__ops::_Iter_comp_iter"* %4 to i8*
  call void @llvm.memcpy.p0i8.p0i8.i64(i8* align 1 %24, i8* align 1 %25, i64 1, i1 false)
  call void @"_ZSt16__introsort_loopIPilN9__gnu_cxx5__ops15_Iter_comp_iterIZ4mainE3$_0EEEvT_S6_T0_T1_"(i32* %23, i32* %.01, i64 %20)
  br label %8

26:                                               ; preds = %16, %8
  ret void
}

; Function Attrs: noinline nounwind uwtable
define linkonce_odr i64 @_ZSt4__lgl(i64 %0) #5 comdat {
  %2 = call i64 @llvm.ctlz.i64(i64 %0, i1 true)
  %3 = trunc i64 %2 to i32
  %4 = sub nsw i32 63, %3
  %5 = sext i32 %4 to i64
  ret i64 %5
}

; Function Attrs: noinline uwtable
define internal void @"_ZSt22__final_insertion_sortIPiN9__gnu_cxx5__ops15_Iter_comp_iterIZ4mainE3$_0EEEvT_S6_T0_"(i32* %0, i32* %1) #0 {
  %3 = alloca %"struct.__gnu_cxx::__ops::_Iter_comp_iter", align 1
  %4 = alloca %"struct.__gnu_cxx::__ops::_Iter_comp_iter", align 1
  %5 = alloca %"struct.__gnu_cxx::__ops::_Iter_comp_iter", align 1
  %6 = alloca %"struct.__gnu_cxx::__ops::_Iter_comp_iter", align 1
  %7 = ptrtoint i32* %1 to i64
  %8 = ptrtoint i32* %0 to i64
  %9 = sub i64 %7, %8
  %10 = sdiv exact i64 %9, 4
  %11 = icmp sgt i64 %10, 16
  br i1 %11, label %12, label %19

12:                                               ; preds = %2
  %13 = getelementptr inbounds i32, i32* %0, i64 16
  %14 = bitcast %"struct.__gnu_cxx::__ops::_Iter_comp_iter"* %4 to i8*
  %15 = bitcast %"struct.__gnu_cxx::__ops::_Iter_comp_iter"* %3 to i8*
  call void @llvm.memcpy.p0i8.p0i8.i64(i8* align 1 %14, i8* align 1 %15, i64 1, i1 false)
  call void @"_ZSt16__insertion_sortIPiN9__gnu_cxx5__ops15_Iter_comp_iterIZ4mainE3$_0EEEvT_S6_T0_"(i32* %0, i32* %13)
  %16 = getelementptr inbounds i32, i32* %0, i64 16
  %17 = bitcast %"struct.__gnu_cxx::__ops::_Iter_comp_iter"* %5 to i8*
  %18 = bitcast %"struct.__gnu_cxx::__ops::_Iter_comp_iter"* %3 to i8*
  call void @llvm.memcpy.p0i8.p0i8.i64(i8* align 1 %17, i8* align 1 %18, i64 1, i1 false)
  call void @"_ZSt26__unguarded_insertion_sortIPiN9__gnu_cxx5__ops15_Iter_comp_iterIZ4mainE3$_0EEEvT_S6_T0_"(i32* %16, i32* %1)
  br label %22

19:                                               ; preds = %2
  %20 = bitcast %"struct.__gnu_cxx::__ops::_Iter_comp_iter"* %6 to i8*
  %21 = bitcast %"struct.__gnu_cxx::__ops::_Iter_comp_iter"* %3 to i8*
  call void @llvm.memcpy.p0i8.p0i8.i64(i8* align 1 %20, i8* align 1 %21, i64 1, i1 false)
  call void @"_ZSt16__insertion_sortIPiN9__gnu_cxx5__ops15_Iter_comp_iterIZ4mainE3$_0EEEvT_S6_T0_"(i32* %0, i32* %1)
  br label %22

22:                                               ; preds = %19, %12
  ret void
}

; Function Attrs: noinline uwtable
define internal void @"_ZSt14__partial_sortIPiN9__gnu_cxx5__ops15_Iter_comp_iterIZ4mainE3$_0EEEvT_S6_S6_T0_"(i32* %0, i32* %1, i32* %2) #0 {
  %4 = alloca %"struct.__gnu_cxx::__ops::_Iter_comp_iter", align 1
  %5 = alloca %"struct.__gnu_cxx::__ops::_Iter_comp_iter", align 1
  %6 = bitcast %"struct.__gnu_cxx::__ops::_Iter_comp_iter"* %5 to i8*
  %7 = bitcast %"struct.__gnu_cxx::__ops::_Iter_comp_iter"* %4 to i8*
  call void @llvm.memcpy.p0i8.p0i8.i64(i8* align 1 %6, i8* align 1 %7, i64 1, i1 false)
  call void @"_ZSt13__heap_selectIPiN9__gnu_cxx5__ops15_Iter_comp_iterIZ4mainE3$_0EEEvT_S6_S6_T0_"(i32* %0, i32* %1, i32* %2)
  call void @"_ZSt11__sort_heapIPiN9__gnu_cxx5__ops15_Iter_comp_iterIZ4mainE3$_0EEEvT_S6_RT0_"(i32* %0, i32* %1, %"struct.__gnu_cxx::__ops::_Iter_comp_iter"* dereferenceable(1) %4)
  ret void
}

; Function Attrs: noinline uwtable
define internal i32* @"_ZSt27__unguarded_partition_pivotIPiN9__gnu_cxx5__ops15_Iter_comp_iterIZ4mainE3$_0EEET_S6_S6_T0_"(i32* %0, i32* %1) #0 {
  %3 = alloca %"struct.__gnu_cxx::__ops::_Iter_comp_iter", align 1
  %4 = alloca %"struct.__gnu_cxx::__ops::_Iter_comp_iter", align 1
  %5 = alloca %"struct.__gnu_cxx::__ops::_Iter_comp_iter", align 1
  %6 = ptrtoint i32* %1 to i64
  %7 = ptrtoint i32* %0 to i64
  %8 = sub i64 %6, %7
  %9 = sdiv exact i64 %8, 4
  %10 = sdiv i64 %9, 2
  %11 = getelementptr inbounds i32, i32* %0, i64 %10
  %12 = getelementptr inbounds i32, i32* %0, i64 1
  %13 = getelementptr inbounds i32, i32* %1, i64 -1
  %14 = bitcast %"struct.__gnu_cxx::__ops::_Iter_comp_iter"* %4 to i8*
  %15 = bitcast %"struct.__gnu_cxx::__ops::_Iter_comp_iter"* %3 to i8*
  call void @llvm.memcpy.p0i8.p0i8.i64(i8* align 1 %14, i8* align 1 %15, i64 1, i1 false)
  call void @"_ZSt22__move_median_to_firstIPiN9__gnu_cxx5__ops15_Iter_comp_iterIZ4mainE3$_0EEEvT_S6_S6_S6_T0_"(i32* %0, i32* %12, i32* %11, i32* %13)
  %16 = getelementptr inbounds i32, i32* %0, i64 1
  %17 = bitcast %"struct.__gnu_cxx::__ops::_Iter_comp_iter"* %5 to i8*
  %18 = bitcast %"struct.__gnu_cxx::__ops::_Iter_comp_iter"* %3 to i8*
  call void @llvm.memcpy.p0i8.p0i8.i64(i8* align 1 %17, i8* align 1 %18, i64 1, i1 false)
  %19 = call i32* @"_ZSt21__unguarded_partitionIPiN9__gnu_cxx5__ops15_Iter_comp_iterIZ4mainE3$_0EEET_S6_S6_S6_T0_"(i32* %16, i32* %1, i32* %0)
  ret i32* %19
}

; Function Attrs: noinline uwtable
define internal void @"_ZSt13__heap_selectIPiN9__gnu_cxx5__ops15_Iter_comp_iterIZ4mainE3$_0EEEvT_S6_S6_T0_"(i32* %0, i32* %1, i32* %2) #0 {
  %4 = alloca %"struct.__gnu_cxx::__ops::_Iter_comp_iter", align 1
  call void @"_ZSt11__make_heapIPiN9__gnu_cxx5__ops15_Iter_comp_iterIZ4mainE3$_0EEEvT_S6_RT0_"(i32* %0, i32* %1, %"struct.__gnu_cxx::__ops::_Iter_comp_iter"* dereferenceable(1) %4)
  br label %5

5:                                                ; preds = %11, %3
  %.0 = phi i32* [ %1, %3 ], [ %12, %11 ]
  %6 = icmp ult i32* %.0, %2
  br i1 %6, label %7, label %13

7:                                                ; preds = %5
  %8 = call zeroext i1 @"_ZN9__gnu_cxx5__ops15_Iter_comp_iterIZ4mainE3$_0EclIPiS5_EEbT_T0_"(%"struct.__gnu_cxx::__ops::_Iter_comp_iter"* %4, i32* %.0, i32* %0)
  br i1 %8, label %9, label %10

9:                                                ; preds = %7
  call void @"_ZSt10__pop_heapIPiN9__gnu_cxx5__ops15_Iter_comp_iterIZ4mainE3$_0EEEvT_S6_S6_RT0_"(i32* %0, i32* %1, i32* %.0, %"struct.__gnu_cxx::__ops::_Iter_comp_iter"* dereferenceable(1) %4)
  br label %10

10:                                               ; preds = %9, %7
  br label %11

11:                                               ; preds = %10
  %12 = getelementptr inbounds i32, i32* %.0, i32 1
  br label %5

13:                                               ; preds = %5
  ret void
}

; Function Attrs: noinline uwtable
define internal void @"_ZSt11__sort_heapIPiN9__gnu_cxx5__ops15_Iter_comp_iterIZ4mainE3$_0EEEvT_S6_RT0_"(i32* %0, i32* %1, %"struct.__gnu_cxx::__ops::_Iter_comp_iter"* dereferenceable(1) %2) #0 {
  br label %4

4:                                                ; preds = %10, %3
  %.0 = phi i32* [ %1, %3 ], [ %11, %10 ]
  %5 = ptrtoint i32* %.0 to i64
  %6 = ptrtoint i32* %0 to i64
  %7 = sub i64 %5, %6
  %8 = sdiv exact i64 %7, 4
  %9 = icmp sgt i64 %8, 1
  br i1 %9, label %10, label %12

10:                                               ; preds = %4
  %11 = getelementptr inbounds i32, i32* %.0, i32 -1
  call void @"_ZSt10__pop_heapIPiN9__gnu_cxx5__ops15_Iter_comp_iterIZ4mainE3$_0EEEvT_S6_S6_RT0_"(i32* %0, i32* %11, i32* %11, %"struct.__gnu_cxx::__ops::_Iter_comp_iter"* dereferenceable(1) %2)
  br label %4

12:                                               ; preds = %4
  ret void
}

; Function Attrs: noinline uwtable
define internal void @"_ZSt11__make_heapIPiN9__gnu_cxx5__ops15_Iter_comp_iterIZ4mainE3$_0EEEvT_S6_RT0_"(i32* %0, i32* %1, %"struct.__gnu_cxx::__ops::_Iter_comp_iter"* dereferenceable(1) %2) #0 {
  %4 = alloca i32, align 4
  %5 = alloca %"struct.__gnu_cxx::__ops::_Iter_comp_iter", align 1
  %6 = ptrtoint i32* %1 to i64
  %7 = ptrtoint i32* %0 to i64
  %8 = sub i64 %6, %7
  %9 = sdiv exact i64 %8, 4
  %10 = icmp slt i64 %9, 2
  br i1 %10, label %11, label %12

11:                                               ; preds = %3
  br label %31

12:                                               ; preds = %3
  %13 = ptrtoint i32* %1 to i64
  %14 = ptrtoint i32* %0 to i64
  %15 = sub i64 %13, %14
  %16 = sdiv exact i64 %15, 4
  %17 = sub nsw i64 %16, 2
  %18 = sdiv i64 %17, 2
  br label %19

19:                                               ; preds = %29, %12
  %.0 = phi i64 [ %18, %12 ], [ %30, %29 ]
  %20 = getelementptr inbounds i32, i32* %0, i64 %.0
  %21 = call dereferenceable(4) i32* @_ZSt4moveIRiEONSt16remove_referenceIT_E4typeEOS2_(i32* dereferenceable(4) %20) #3
  %22 = load i32, i32* %21, align 4
  store i32 %22, i32* %4, align 4
  %23 = call dereferenceable(4) i32* @_ZSt4moveIRiEONSt16remove_referenceIT_E4typeEOS2_(i32* dereferenceable(4) %4) #3
  %24 = load i32, i32* %23, align 4
  %25 = bitcast %"struct.__gnu_cxx::__ops::_Iter_comp_iter"* %5 to i8*
  %26 = bitcast %"struct.__gnu_cxx::__ops::_Iter_comp_iter"* %2 to i8*
  call void @llvm.memcpy.p0i8.p0i8.i64(i8* align 1 %25, i8* align 1 %26, i64 1, i1 false)
  call void @"_ZSt13__adjust_heapIPiliN9__gnu_cxx5__ops15_Iter_comp_iterIZ4mainE3$_0EEEvT_T0_S7_T1_T2_"(i32* %0, i64 %.0, i64 %16, i32 %24)
  %27 = icmp eq i64 %.0, 0
  br i1 %27, label %28, label %29

28:                                               ; preds = %19
  br label %31

29:                                               ; preds = %19
  %30 = add nsw i64 %.0, -1
  br label %19

31:                                               ; preds = %28, %11
  ret void
}

; Function Attrs: noinline nounwind uwtable
define internal zeroext i1 @"_ZN9__gnu_cxx5__ops15_Iter_comp_iterIZ4mainE3$_0EclIPiS5_EEbT_T0_"(%"struct.__gnu_cxx::__ops::_Iter_comp_iter"* %0, i32* %1, i32* %2) #5 align 2 {
  %4 = getelementptr inbounds %"struct.__gnu_cxx::__ops::_Iter_comp_iter", %"struct.__gnu_cxx::__ops::_Iter_comp_iter"* %0, i32 0, i32 0
  %5 = load i32, i32* %1, align 4
  %6 = load i32, i32* %2, align 4
  %7 = call zeroext i1 @"_ZZ4mainENK3$_0clEii"(%class.anon* %4, i32 %5, i32 %6)
  ret i1 %7
}

; Function Attrs: noinline uwtable
define internal void @"_ZSt10__pop_heapIPiN9__gnu_cxx5__ops15_Iter_comp_iterIZ4mainE3$_0EEEvT_S6_S6_RT0_"(i32* %0, i32* %1, i32* %2, %"struct.__gnu_cxx::__ops::_Iter_comp_iter"* dereferenceable(1) %3) #0 {
  %5 = alloca i32, align 4
  %6 = alloca %"struct.__gnu_cxx::__ops::_Iter_comp_iter", align 1
  %7 = call dereferenceable(4) i32* @_ZSt4moveIRiEONSt16remove_referenceIT_E4typeEOS2_(i32* dereferenceable(4) %2) #3
  %8 = load i32, i32* %7, align 4
  store i32 %8, i32* %5, align 4
  %9 = call dereferenceable(4) i32* @_ZSt4moveIRiEONSt16remove_referenceIT_E4typeEOS2_(i32* dereferenceable(4) %0) #3
  %10 = load i32, i32* %9, align 4
  store i32 %10, i32* %2, align 4
  %11 = ptrtoint i32* %1 to i64
  %12 = ptrtoint i32* %0 to i64
  %13 = sub i64 %11, %12
  %14 = sdiv exact i64 %13, 4
  %15 = call dereferenceable(4) i32* @_ZSt4moveIRiEONSt16remove_referenceIT_E4typeEOS2_(i32* dereferenceable(4) %5) #3
  %16 = load i32, i32* %15, align 4
  %17 = bitcast %"struct.__gnu_cxx::__ops::_Iter_comp_iter"* %6 to i8*
  %18 = bitcast %"struct.__gnu_cxx::__ops::_Iter_comp_iter"* %3 to i8*
  call void @llvm.memcpy.p0i8.p0i8.i64(i8* align 1 %17, i8* align 1 %18, i64 1, i1 false)
  call void @"_ZSt13__adjust_heapIPiliN9__gnu_cxx5__ops15_Iter_comp_iterIZ4mainE3$_0EEEvT_T0_S7_T1_T2_"(i32* %0, i64 0, i64 %14, i32 %16)
  ret void
}

; Function Attrs: noinline uwtable
define internal void @"_ZSt13__adjust_heapIPiliN9__gnu_cxx5__ops15_Iter_comp_iterIZ4mainE3$_0EEEvT_T0_S7_T1_T2_"(i32* %0, i64 %1, i64 %2, i32 %3) #0 {
  %5 = alloca %"struct.__gnu_cxx::__ops::_Iter_comp_iter", align 1
  %6 = alloca i32, align 4
  %7 = alloca %"struct.__gnu_cxx::__ops::_Iter_comp_val", align 1
  store i32 %3, i32* %6, align 4
  br label %8

8:                                                ; preds = %21, %4
  %.01 = phi i64 [ %1, %4 ], [ %.1, %21 ]
  %.0 = phi i64 [ %1, %4 ], [ %.1, %21 ]
  %9 = sub nsw i64 %2, 1
  %10 = sdiv i64 %9, 2
  %11 = icmp slt i64 %.0, %10
  br i1 %11, label %12, label %26

12:                                               ; preds = %8
  %13 = add nsw i64 %.0, 1
  %14 = mul nsw i64 2, %13
  %15 = getelementptr inbounds i32, i32* %0, i64 %14
  %16 = sub nsw i64 %14, 1
  %17 = getelementptr inbounds i32, i32* %0, i64 %16
  %18 = call zeroext i1 @"_ZN9__gnu_cxx5__ops15_Iter_comp_iterIZ4mainE3$_0EclIPiS5_EEbT_T0_"(%"struct.__gnu_cxx::__ops::_Iter_comp_iter"* %5, i32* %15, i32* %17)
  br i1 %18, label %19, label %21

19:                                               ; preds = %12
  %20 = add nsw i64 %14, -1
  br label %21

21:                                               ; preds = %19, %12
  %.1 = phi i64 [ %20, %19 ], [ %14, %12 ]
  %22 = getelementptr inbounds i32, i32* %0, i64 %.1
  %23 = call dereferenceable(4) i32* @_ZSt4moveIRiEONSt16remove_referenceIT_E4typeEOS2_(i32* dereferenceable(4) %22) #3
  %24 = load i32, i32* %23, align 4
  %25 = getelementptr inbounds i32, i32* %0, i64 %.01
  store i32 %24, i32* %25, align 4
  br label %8

26:                                               ; preds = %8
  %27 = and i64 %2, 1
  %28 = icmp eq i64 %27, 0
  br i1 %28, label %29, label %42

29:                                               ; preds = %26
  %30 = sub nsw i64 %2, 2
  %31 = sdiv i64 %30, 2
  %32 = icmp eq i64 %.0, %31
  br i1 %32, label %33, label %42

33:                                               ; preds = %29
  %34 = add nsw i64 %.0, 1
  %35 = mul nsw i64 2, %34
  %36 = sub nsw i64 %35, 1
  %37 = getelementptr inbounds i32, i32* %0, i64 %36
  %38 = call dereferenceable(4) i32* @_ZSt4moveIRiEONSt16remove_referenceIT_E4typeEOS2_(i32* dereferenceable(4) %37) #3
  %39 = load i32, i32* %38, align 4
  %40 = getelementptr inbounds i32, i32* %0, i64 %.01
  store i32 %39, i32* %40, align 4
  %41 = sub nsw i64 %35, 1
  br label %42

42:                                               ; preds = %33, %29, %26
  %.12 = phi i64 [ %41, %33 ], [ %.01, %29 ], [ %.01, %26 ]
  %43 = call dereferenceable(1) %"struct.__gnu_cxx::__ops::_Iter_comp_iter"* @"_ZSt4moveIRN9__gnu_cxx5__ops15_Iter_comp_iterIZ4mainE3$_0EEEONSt16remove_referenceIT_E4typeEOS7_"(%"struct.__gnu_cxx::__ops::_Iter_comp_iter"* dereferenceable(1) %5) #3
  call void @"_ZN9__gnu_cxx5__ops14_Iter_comp_valIZ4mainE3$_0EC2EONS0_15_Iter_comp_iterIS2_EE"(%"struct.__gnu_cxx::__ops::_Iter_comp_val"* %7, %"struct.__gnu_cxx::__ops::_Iter_comp_iter"* dereferenceable(1) %43)
  %44 = call dereferenceable(4) i32* @_ZSt4moveIRiEONSt16remove_referenceIT_E4typeEOS2_(i32* dereferenceable(4) %6) #3
  %45 = load i32, i32* %44, align 4
  call void @"_ZSt11__push_heapIPiliN9__gnu_cxx5__ops14_Iter_comp_valIZ4mainE3$_0EEEvT_T0_S7_T1_RT2_"(i32* %0, i64 %.12, i64 %1, i32 %45, %"struct.__gnu_cxx::__ops::_Iter_comp_val"* dereferenceable(1) %7)
  ret void
}

; Function Attrs: noinline nounwind uwtable
define internal dereferenceable(1) %"struct.__gnu_cxx::__ops::_Iter_comp_iter"* @"_ZSt4moveIRN9__gnu_cxx5__ops15_Iter_comp_iterIZ4mainE3$_0EEEONSt16remove_referenceIT_E4typeEOS7_"(%"struct.__gnu_cxx::__ops::_Iter_comp_iter"* dereferenceable(1) %0) #5 {
  ret %"struct.__gnu_cxx::__ops::_Iter_comp_iter"* %0
}

; Function Attrs: noinline nounwind uwtable
define internal void @"_ZN9__gnu_cxx5__ops14_Iter_comp_valIZ4mainE3$_0EC2EONS0_15_Iter_comp_iterIS2_EE"(%"struct.__gnu_cxx::__ops::_Iter_comp_val"* %0, %"struct.__gnu_cxx::__ops::_Iter_comp_iter"* dereferenceable(1) %1) unnamed_addr #5 align 2 {
  %3 = getelementptr inbounds %"struct.__gnu_cxx::__ops::_Iter_comp_val", %"struct.__gnu_cxx::__ops::_Iter_comp_val"* %0, i32 0, i32 0
  %4 = getelementptr inbounds %"struct.__gnu_cxx::__ops::_Iter_comp_iter", %"struct.__gnu_cxx::__ops::_Iter_comp_iter"* %1, i32 0, i32 0
  %5 = call dereferenceable(1) %class.anon* @"_ZSt4moveIRZ4mainE3$_0EONSt16remove_referenceIT_E4typeEOS3_"(%class.anon* dereferenceable(1) %4) #3
  ret void
}

; Function Attrs: noinline uwtable
define internal void @"_ZSt11__push_heapIPiliN9__gnu_cxx5__ops14_Iter_comp_valIZ4mainE3$_0EEEvT_T0_S7_T1_RT2_"(i32* %0, i64 %1, i64 %2, i32 %3, %"struct.__gnu_cxx::__ops::_Iter_comp_val"* dereferenceable(1) %4) #0 {
  %6 = alloca i32, align 4
  store i32 %3, i32* %6, align 4
  %7 = sub nsw i64 %1, 1
  %8 = sdiv i64 %7, 2
  br label %9

9:                                                ; preds = %16, %5
  %.01 = phi i64 [ %1, %5 ], [ %.0, %16 ]
  %.0 = phi i64 [ %8, %5 ], [ %22, %16 ]
  %10 = icmp sgt i64 %.01, %2
  br i1 %10, label %11, label %14

11:                                               ; preds = %9
  %12 = getelementptr inbounds i32, i32* %0, i64 %.0
  %13 = call zeroext i1 @"_ZN9__gnu_cxx5__ops14_Iter_comp_valIZ4mainE3$_0EclIPiiEEbT_RT0_"(%"struct.__gnu_cxx::__ops::_Iter_comp_val"* %4, i32* %12, i32* dereferenceable(4) %6)
  br label %14

14:                                               ; preds = %11, %9
  %15 = phi i1 [ false, %9 ], [ %13, %11 ]
  br i1 %15, label %16, label %23

16:                                               ; preds = %14
  %17 = getelementptr inbounds i32, i32* %0, i64 %.0
  %18 = call dereferenceable(4) i32* @_ZSt4moveIRiEONSt16remove_referenceIT_E4typeEOS2_(i32* dereferenceable(4) %17) #3
  %19 = load i32, i32* %18, align 4
  %20 = getelementptr inbounds i32, i32* %0, i64 %.01
  store i32 %19, i32* %20, align 4
  %21 = sub nsw i64 %.0, 1
  %22 = sdiv i64 %21, 2
  br label %9

23:                                               ; preds = %14
  %24 = call dereferenceable(4) i32* @_ZSt4moveIRiEONSt16remove_referenceIT_E4typeEOS2_(i32* dereferenceable(4) %6) #3
  %25 = load i32, i32* %24, align 4
  %26 = getelementptr inbounds i32, i32* %0, i64 %.01
  store i32 %25, i32* %26, align 4
  ret void
}

; Function Attrs: noinline nounwind uwtable
define internal dereferenceable(1) %class.anon* @"_ZSt4moveIRZ4mainE3$_0EONSt16remove_referenceIT_E4typeEOS3_"(%class.anon* dereferenceable(1) %0) #5 {
  ret %class.anon* %0
}

; Function Attrs: noinline uwtable
define internal zeroext i1 @"_ZN9__gnu_cxx5__ops14_Iter_comp_valIZ4mainE3$_0EclIPiiEEbT_RT0_"(%"struct.__gnu_cxx::__ops::_Iter_comp_val"* %0, i32* %1, i32* dereferenceable(4) %2) #0 align 2 {
  %4 = getelementptr inbounds %"struct.__gnu_cxx::__ops::_Iter_comp_val", %"struct.__gnu_cxx::__ops::_Iter_comp_val"* %0, i32 0, i32 0
  %5 = load i32, i32* %1, align 4
  %6 = load i32, i32* %2, align 4
  %7 = call zeroext i1 @"_ZZ4mainENK3$_0clEii"(%class.anon* %4, i32 %5, i32 %6)
  ret i1 %7
}

; Function Attrs: noinline nounwind uwtable
define internal zeroext i1 @"_ZZ4mainENK3$_0clEii"(%class.anon* %0, i32 %1, i32 %2) #5 align 2 {
  %4 = sext i32 %1 to i64
  %5 = getelementptr inbounds [305 x i32], [305 x i32]* @ud, i64 0, i64 %4
  %6 = load i32, i32* %5, align 4
  %7 = sext i32 %2 to i64
  %8 = getelementptr inbounds [305 x i32], [305 x i32]* @ud, i64 0, i64 %7
  %9 = load i32, i32* %8, align 4
  %10 = icmp slt i32 %6, %9
  ret i1 %10
}

; Function Attrs: noinline uwtable
define internal void @"_ZSt22__move_median_to_firstIPiN9__gnu_cxx5__ops15_Iter_comp_iterIZ4mainE3$_0EEEvT_S6_S6_S6_T0_"(i32* %0, i32* %1, i32* %2, i32* %3) #0 {
  %5 = alloca %"struct.__gnu_cxx::__ops::_Iter_comp_iter", align 1
  %6 = call zeroext i1 @"_ZN9__gnu_cxx5__ops15_Iter_comp_iterIZ4mainE3$_0EclIPiS5_EEbT_T0_"(%"struct.__gnu_cxx::__ops::_Iter_comp_iter"* %5, i32* %1, i32* %2)
  br i1 %6, label %7, label %16

7:                                                ; preds = %4
  %8 = call zeroext i1 @"_ZN9__gnu_cxx5__ops15_Iter_comp_iterIZ4mainE3$_0EclIPiS5_EEbT_T0_"(%"struct.__gnu_cxx::__ops::_Iter_comp_iter"* %5, i32* %2, i32* %3)
  br i1 %8, label %9, label %10

9:                                                ; preds = %7
  call void @_ZSt9iter_swapIPiS0_EvT_T0_(i32* %0, i32* %2)
  br label %15

10:                                               ; preds = %7
  %11 = call zeroext i1 @"_ZN9__gnu_cxx5__ops15_Iter_comp_iterIZ4mainE3$_0EclIPiS5_EEbT_T0_"(%"struct.__gnu_cxx::__ops::_Iter_comp_iter"* %5, i32* %1, i32* %3)
  br i1 %11, label %12, label %13

12:                                               ; preds = %10
  call void @_ZSt9iter_swapIPiS0_EvT_T0_(i32* %0, i32* %3)
  br label %14

13:                                               ; preds = %10
  call void @_ZSt9iter_swapIPiS0_EvT_T0_(i32* %0, i32* %1)
  br label %14

14:                                               ; preds = %13, %12
  br label %15

15:                                               ; preds = %14, %9
  br label %25

16:                                               ; preds = %4
  %17 = call zeroext i1 @"_ZN9__gnu_cxx5__ops15_Iter_comp_iterIZ4mainE3$_0EclIPiS5_EEbT_T0_"(%"struct.__gnu_cxx::__ops::_Iter_comp_iter"* %5, i32* %1, i32* %3)
  br i1 %17, label %18, label %19

18:                                               ; preds = %16
  call void @_ZSt9iter_swapIPiS0_EvT_T0_(i32* %0, i32* %1)
  br label %24

19:                                               ; preds = %16
  %20 = call zeroext i1 @"_ZN9__gnu_cxx5__ops15_Iter_comp_iterIZ4mainE3$_0EclIPiS5_EEbT_T0_"(%"struct.__gnu_cxx::__ops::_Iter_comp_iter"* %5, i32* %2, i32* %3)
  br i1 %20, label %21, label %22

21:                                               ; preds = %19
  call void @_ZSt9iter_swapIPiS0_EvT_T0_(i32* %0, i32* %3)
  br label %23

22:                                               ; preds = %19
  call void @_ZSt9iter_swapIPiS0_EvT_T0_(i32* %0, i32* %2)
  br label %23

23:                                               ; preds = %22, %21
  br label %24

24:                                               ; preds = %23, %18
  br label %25

25:                                               ; preds = %24, %15
  ret void
}

; Function Attrs: noinline nounwind uwtable
define internal i32* @"_ZSt21__unguarded_partitionIPiN9__gnu_cxx5__ops15_Iter_comp_iterIZ4mainE3$_0EEET_S6_S6_S6_T0_"(i32* %0, i32* %1, i32* %2) #5 {
  %4 = alloca %"struct.__gnu_cxx::__ops::_Iter_comp_iter", align 1
  br label %5

5:                                                ; preds = %19, %3
  %.01 = phi i32* [ %1, %3 ], [ %.12, %19 ]
  %.0 = phi i32* [ %0, %3 ], [ %20, %19 ]
  br label %6

6:                                                ; preds = %8, %5
  %.1 = phi i32* [ %.0, %5 ], [ %9, %8 ]
  %7 = call zeroext i1 @"_ZN9__gnu_cxx5__ops15_Iter_comp_iterIZ4mainE3$_0EclIPiS5_EEbT_T0_"(%"struct.__gnu_cxx::__ops::_Iter_comp_iter"* %4, i32* %.1, i32* %2)
  br i1 %7, label %8, label %10

8:                                                ; preds = %6
  %9 = getelementptr inbounds i32, i32* %.1, i32 1
  br label %6

10:                                               ; preds = %6
  %11 = getelementptr inbounds i32, i32* %.01, i32 -1
  br label %12

12:                                               ; preds = %14, %10
  %.12 = phi i32* [ %11, %10 ], [ %15, %14 ]
  %13 = call zeroext i1 @"_ZN9__gnu_cxx5__ops15_Iter_comp_iterIZ4mainE3$_0EclIPiS5_EEbT_T0_"(%"struct.__gnu_cxx::__ops::_Iter_comp_iter"* %4, i32* %2, i32* %.12)
  br i1 %13, label %14, label %16

14:                                               ; preds = %12
  %15 = getelementptr inbounds i32, i32* %.12, i32 -1
  br label %12

16:                                               ; preds = %12
  %17 = icmp ult i32* %.1, %.12
  br i1 %17, label %19, label %18

18:                                               ; preds = %16
  ret i32* %.1

19:                                               ; preds = %16
  call void @_ZSt9iter_swapIPiS0_EvT_T0_(i32* %.1, i32* %.12)
  %20 = getelementptr inbounds i32, i32* %.1, i32 1
  br label %5
}

; Function Attrs: noinline nounwind uwtable
define linkonce_odr void @_ZSt9iter_swapIPiS0_EvT_T0_(i32* %0, i32* %1) #5 comdat {
  call void @_ZSt4swapIiENSt9enable_ifIXsr6__and_ISt6__not_ISt15__is_tuple_likeIT_EESt21is_move_constructibleIS3_ESt18is_move_assignableIS3_EEE5valueEvE4typeERS3_SC_(i32* dereferenceable(4) %0, i32* dereferenceable(4) %1) #3
  ret void
}

; Function Attrs: nocallback nofree nosync nounwind readnone speculatable willreturn
declare i64 @llvm.ctlz.i64(i64, i1 immarg) #12

; Function Attrs: noinline uwtable
define internal void @"_ZSt16__insertion_sortIPiN9__gnu_cxx5__ops15_Iter_comp_iterIZ4mainE3$_0EEEvT_S6_T0_"(i32* %0, i32* %1) #0 {
  %3 = alloca %"struct.__gnu_cxx::__ops::_Iter_comp_iter", align 1
  %4 = alloca i32, align 4
  %5 = alloca %"struct.__gnu_cxx::__ops::_Iter_comp_iter", align 1
  %6 = icmp eq i32* %0, %1
  br i1 %6, label %7, label %8

7:                                                ; preds = %2
  br label %27

8:                                                ; preds = %2
  %9 = getelementptr inbounds i32, i32* %0, i64 1
  br label %10

10:                                               ; preds = %25, %8
  %.0 = phi i32* [ %9, %8 ], [ %26, %25 ]
  %11 = icmp ne i32* %.0, %1
  br i1 %11, label %12, label %27

12:                                               ; preds = %10
  %13 = call zeroext i1 @"_ZN9__gnu_cxx5__ops15_Iter_comp_iterIZ4mainE3$_0EclIPiS5_EEbT_T0_"(%"struct.__gnu_cxx::__ops::_Iter_comp_iter"* %3, i32* %.0, i32* %0)
  br i1 %13, label %14, label %21

14:                                               ; preds = %12
  %15 = call dereferenceable(4) i32* @_ZSt4moveIRiEONSt16remove_referenceIT_E4typeEOS2_(i32* dereferenceable(4) %.0) #3
  %16 = load i32, i32* %15, align 4
  store i32 %16, i32* %4, align 4
  %17 = getelementptr inbounds i32, i32* %.0, i64 1
  %18 = call i32* @_ZSt13move_backwardIPiS0_ET0_T_S2_S1_(i32* %0, i32* %.0, i32* %17)
  %19 = call dereferenceable(4) i32* @_ZSt4moveIRiEONSt16remove_referenceIT_E4typeEOS2_(i32* dereferenceable(4) %4) #3
  %20 = load i32, i32* %19, align 4
  store i32 %20, i32* %0, align 4
  br label %24

21:                                               ; preds = %12
  %22 = bitcast %"struct.__gnu_cxx::__ops::_Iter_comp_iter"* %5 to i8*
  %23 = bitcast %"struct.__gnu_cxx::__ops::_Iter_comp_iter"* %3 to i8*
  call void @llvm.memcpy.p0i8.p0i8.i64(i8* align 1 %22, i8* align 1 %23, i64 1, i1 false)
  call void @"_ZN9__gnu_cxx5__ops15__val_comp_iterIZ4mainE3$_0EENS0_14_Val_comp_iterIT_EENS0_15_Iter_comp_iterIS4_EE"()
  call void @"_ZSt25__unguarded_linear_insertIPiN9__gnu_cxx5__ops14_Val_comp_iterIZ4mainE3$_0EEEvT_T0_"(i32* %.0)
  br label %24

24:                                               ; preds = %21, %14
  br label %25

25:                                               ; preds = %24
  %26 = getelementptr inbounds i32, i32* %.0, i32 1
  br label %10

27:                                               ; preds = %10, %7
  ret void
}

; Function Attrs: noinline uwtable
define internal void @"_ZSt26__unguarded_insertion_sortIPiN9__gnu_cxx5__ops15_Iter_comp_iterIZ4mainE3$_0EEEvT_S6_T0_"(i32* %0, i32* %1) #0 {
  %3 = alloca %"struct.__gnu_cxx::__ops::_Iter_comp_iter", align 1
  %4 = alloca %"struct.__gnu_cxx::__ops::_Iter_comp_iter", align 1
  br label %5

5:                                                ; preds = %10, %2
  %.0 = phi i32* [ %0, %2 ], [ %11, %10 ]
  %6 = icmp ne i32* %.0, %1
  br i1 %6, label %7, label %12

7:                                                ; preds = %5
  %8 = bitcast %"struct.__gnu_cxx::__ops::_Iter_comp_iter"* %4 to i8*
  %9 = bitcast %"struct.__gnu_cxx::__ops::_Iter_comp_iter"* %3 to i8*
  call void @llvm.memcpy.p0i8.p0i8.i64(i8* align 1 %8, i8* align 1 %9, i64 1, i1 false)
  call void @"_ZN9__gnu_cxx5__ops15__val_comp_iterIZ4mainE3$_0EENS0_14_Val_comp_iterIT_EENS0_15_Iter_comp_iterIS4_EE"()
  call void @"_ZSt25__unguarded_linear_insertIPiN9__gnu_cxx5__ops14_Val_comp_iterIZ4mainE3$_0EEEvT_T0_"(i32* %.0)
  br label %10

10:                                               ; preds = %7
  %11 = getelementptr inbounds i32, i32* %.0, i32 1
  br label %5

12:                                               ; preds = %5
  ret void
}

; Function Attrs: noinline uwtable
define linkonce_odr i32* @_ZSt13move_backwardIPiS0_ET0_T_S2_S1_(i32* %0, i32* %1, i32* %2) #0 comdat {
  %4 = call i32* @_ZSt12__miter_baseIPiET_S1_(i32* %0)
  %5 = call i32* @_ZSt12__miter_baseIPiET_S1_(i32* %1)
  %6 = call i32* @_ZSt23__copy_move_backward_a2ILb1EPiS0_ET1_T0_S2_S1_(i32* %4, i32* %5, i32* %2)
  ret i32* %6
}

; Function Attrs: noinline uwtable
define internal void @"_ZSt25__unguarded_linear_insertIPiN9__gnu_cxx5__ops14_Val_comp_iterIZ4mainE3$_0EEEvT_T0_"(i32* %0) #0 {
  %2 = alloca %"struct.__gnu_cxx::__ops::_Val_comp_iter", align 1
  %3 = alloca i32, align 4
  %4 = call dereferenceable(4) i32* @_ZSt4moveIRiEONSt16remove_referenceIT_E4typeEOS2_(i32* dereferenceable(4) %0) #3
  %5 = load i32, i32* %4, align 4
  store i32 %5, i32* %3, align 4
  %6 = getelementptr inbounds i32, i32* %0, i32 -1
  br label %7

7:                                                ; preds = %9, %1
  %.01 = phi i32* [ %6, %1 ], [ %12, %9 ]
  %.0 = phi i32* [ %0, %1 ], [ %.01, %9 ]
  %8 = call zeroext i1 @"_ZN9__gnu_cxx5__ops14_Val_comp_iterIZ4mainE3$_0EclIiPiEEbRT_T0_"(%"struct.__gnu_cxx::__ops::_Val_comp_iter"* %2, i32* dereferenceable(4) %3, i32* %.01)
  br i1 %8, label %9, label %13

9:                                                ; preds = %7
  %10 = call dereferenceable(4) i32* @_ZSt4moveIRiEONSt16remove_referenceIT_E4typeEOS2_(i32* dereferenceable(4) %.01) #3
  %11 = load i32, i32* %10, align 4
  store i32 %11, i32* %.0, align 4
  %12 = getelementptr inbounds i32, i32* %.01, i32 -1
  br label %7

13:                                               ; preds = %7
  %14 = call dereferenceable(4) i32* @_ZSt4moveIRiEONSt16remove_referenceIT_E4typeEOS2_(i32* dereferenceable(4) %3) #3
  %15 = load i32, i32* %14, align 4
  store i32 %15, i32* %.0, align 4
  ret void
}

; Function Attrs: noinline uwtable
define internal void @"_ZN9__gnu_cxx5__ops15__val_comp_iterIZ4mainE3$_0EENS0_14_Val_comp_iterIT_EENS0_15_Iter_comp_iterIS4_EE"() #0 {
  %1 = alloca %"struct.__gnu_cxx::__ops::_Val_comp_iter", align 1
  %2 = alloca %"struct.__gnu_cxx::__ops::_Iter_comp_iter", align 1
  %3 = call dereferenceable(1) %"struct.__gnu_cxx::__ops::_Iter_comp_iter"* @"_ZSt4moveIRN9__gnu_cxx5__ops15_Iter_comp_iterIZ4mainE3$_0EEEONSt16remove_referenceIT_E4typeEOS7_"(%"struct.__gnu_cxx::__ops::_Iter_comp_iter"* dereferenceable(1) %2) #3
  call void @"_ZN9__gnu_cxx5__ops14_Val_comp_iterIZ4mainE3$_0EC2EONS0_15_Iter_comp_iterIS2_EE"(%"struct.__gnu_cxx::__ops::_Val_comp_iter"* %1, %"struct.__gnu_cxx::__ops::_Iter_comp_iter"* dereferenceable(1) %3)
  ret void
}

; Function Attrs: noinline uwtable
define linkonce_odr i32* @_ZSt23__copy_move_backward_a2ILb1EPiS0_ET1_T0_S2_S1_(i32* %0, i32* %1, i32* %2) #0 comdat {
  %4 = call i32* @_ZSt12__niter_baseIPiET_S1_(i32* %0)
  %5 = call i32* @_ZSt12__niter_baseIPiET_S1_(i32* %1)
  %6 = call i32* @_ZSt12__niter_baseIPiET_S1_(i32* %2)
  %7 = call i32* @_ZSt22__copy_move_backward_aILb1EPiS0_ET1_T0_S2_S1_(i32* %4, i32* %5, i32* %6)
  ret i32* %7
}

; Function Attrs: noinline nounwind uwtable
define linkonce_odr i32* @_ZSt12__miter_baseIPiET_S1_(i32* %0) #5 comdat {
  ret i32* %0
}

; Function Attrs: noinline uwtable
define linkonce_odr i32* @_ZSt22__copy_move_backward_aILb1EPiS0_ET1_T0_S2_S1_(i32* %0, i32* %1, i32* %2) #0 comdat {
  %4 = call i32* @_ZNSt20__copy_move_backwardILb1ELb1ESt26random_access_iterator_tagE13__copy_move_bIiEEPT_PKS3_S6_S4_(i32* %0, i32* %1, i32* %2)
  ret i32* %4
}

; Function Attrs: noinline nounwind uwtable
define linkonce_odr i32* @_ZSt12__niter_baseIPiET_S1_(i32* %0) #5 comdat {
  ret i32* %0
}

; Function Attrs: noinline nounwind uwtable
define linkonce_odr i32* @_ZNSt20__copy_move_backwardILb1ELb1ESt26random_access_iterator_tagE13__copy_move_bIiEEPT_PKS3_S6_S4_(i32* %0, i32* %1, i32* %2) #5 comdat align 2 {
  %4 = ptrtoint i32* %1 to i64
  %5 = ptrtoint i32* %0 to i64
  %6 = sub i64 %4, %5
  %7 = sdiv exact i64 %6, 4
  %8 = icmp ne i64 %7, 0
  br i1 %8, label %9, label %15

9:                                                ; preds = %3
  %10 = sub i64 0, %7
  %11 = getelementptr inbounds i32, i32* %2, i64 %10
  %12 = bitcast i32* %11 to i8*
  %13 = bitcast i32* %0 to i8*
  %14 = mul i64 4, %7
  call void @llvm.memmove.p0i8.p0i8.i64(i8* align 4 %12, i8* align 4 %13, i64 %14, i1 false)
  br label %15

15:                                               ; preds = %9, %3
  %16 = sub i64 0, %7
  %17 = getelementptr inbounds i32, i32* %2, i64 %16
  ret i32* %17
}

; Function Attrs: noinline nounwind uwtable
define internal zeroext i1 @"_ZN9__gnu_cxx5__ops14_Val_comp_iterIZ4mainE3$_0EclIiPiEEbRT_T0_"(%"struct.__gnu_cxx::__ops::_Val_comp_iter"* %0, i32* dereferenceable(4) %1, i32* %2) #5 align 2 {
  %4 = getelementptr inbounds %"struct.__gnu_cxx::__ops::_Val_comp_iter", %"struct.__gnu_cxx::__ops::_Val_comp_iter"* %0, i32 0, i32 0
  %5 = load i32, i32* %1, align 4
  %6 = load i32, i32* %2, align 4
  %7 = call zeroext i1 @"_ZZ4mainENK3$_0clEii"(%class.anon* %4, i32 %5, i32 %6)
  ret i1 %7
}

; Function Attrs: noinline nounwind uwtable
define internal void @"_ZN9__gnu_cxx5__ops14_Val_comp_iterIZ4mainE3$_0EC2EONS0_15_Iter_comp_iterIS2_EE"(%"struct.__gnu_cxx::__ops::_Val_comp_iter"* %0, %"struct.__gnu_cxx::__ops::_Iter_comp_iter"* dereferenceable(1) %1) unnamed_addr #5 align 2 {
  %3 = getelementptr inbounds %"struct.__gnu_cxx::__ops::_Val_comp_iter", %"struct.__gnu_cxx::__ops::_Val_comp_iter"* %0, i32 0, i32 0
  %4 = getelementptr inbounds %"struct.__gnu_cxx::__ops::_Iter_comp_iter", %"struct.__gnu_cxx::__ops::_Iter_comp_iter"* %1, i32 0, i32 0
  %5 = call dereferenceable(1) %class.anon* @"_ZSt4moveIRZ4mainE3$_0EONSt16remove_referenceIT_E4typeEOS3_"(%class.anon* dereferenceable(1) %4) #3
  ret void
}

; Function Attrs: noinline nounwind uwtable
define internal void @"_ZN9__gnu_cxx5__ops15_Iter_comp_iterIZ4mainE3$_0EC2ES2_"(%"struct.__gnu_cxx::__ops::_Iter_comp_iter"* %0) unnamed_addr #5 align 2 {
  %2 = alloca %class.anon, align 1
  %3 = getelementptr inbounds %"struct.__gnu_cxx::__ops::_Iter_comp_iter", %"struct.__gnu_cxx::__ops::_Iter_comp_iter"* %0, i32 0, i32 0
  %4 = call dereferenceable(1) %class.anon* @"_ZSt4moveIRZ4mainE3$_0EONSt16remove_referenceIT_E4typeEOS3_"(%class.anon* dereferenceable(1) %2) #3
  ret void
}

; Function Attrs: noinline uwtable
define internal void @_GLOBAL__sub_I_s891779088.cpp() #0 section ".text.startup" {
  call void @__cxx_global_var_init()
  call void @__cxx_global_var_init.1()
  ret void
}

; Function Attrs: argmemonly nocallback nofree nounwind willreturn
declare void @llvm.memcpy.p0i8.p0i8.i64(i8* noalias nocapture writeonly, i8* noalias nocapture readonly, i64, i1 immarg) #13

; Function Attrs: argmemonly nocallback nofree nounwind willreturn
declare void @llvm.memmove.p0i8.p0i8.i64(i8* nocapture writeonly, i8* nocapture readonly, i64, i1 immarg) #13

attributes #0 = { noinline uwtable "correctly-rounded-divide-sqrt-fp-math"="false" "disable-tail-calls"="false" "less-precise-fpmad"="false" "no-frame-pointer-elim"="true" "no-frame-pointer-elim-non-leaf" "no-infs-fp-math"="false" "no-jump-tables"="false" "no-nans-fp-math"="false" "no-signed-zeros-fp-math"="false" "no-trapping-math"="false" "stack-protector-buffer-size"="8" "target-cpu"="x86-64" "target-features"="+fxsr,+mmx,+sse,+sse2,+x87" "unsafe-fp-math"="false" "use-soft-float"="false" }
attributes #1 = { "correctly-rounded-divide-sqrt-fp-math"="false" "disable-tail-calls"="false" "less-precise-fpmad"="false" "no-frame-pointer-elim"="true" "no-frame-pointer-elim-non-leaf" "no-infs-fp-math"="false" "no-nans-fp-math"="false" "no-signed-zeros-fp-math"="false" "no-trapping-math"="false" "stack-protector-buffer-size"="8" "target-cpu"="x86-64" "target-features"="+fxsr,+mmx,+sse,+sse2,+x87" "unsafe-fp-math"="false" "use-soft-float"="false" }
attributes #2 = { nounwind "correctly-rounded-divide-sqrt-fp-math"="false" "disable-tail-calls"="false" "less-precise-fpmad"="false" "no-frame-pointer-elim"="true" "no-frame-pointer-elim-non-leaf" "no-infs-fp-math"="false" "no-nans-fp-math"="false" "no-signed-zeros-fp-math"="false" "no-trapping-math"="false" "stack-protector-buffer-size"="8" "target-cpu"="x86-64" "target-features"="+fxsr,+mmx,+sse,+sse2,+x87" "unsafe-fp-math"="false" "use-soft-float"="false" }
attributes #3 = { nounwind }
attributes #4 = { noreturn nounwind "correctly-rounded-divide-sqrt-fp-math"="false" "disable-tail-calls"="false" "less-precise-fpmad"="false" "no-frame-pointer-elim"="true" "no-frame-pointer-elim-non-leaf" "no-infs-fp-math"="false" "no-nans-fp-math"="false" "no-signed-zeros-fp-math"="false" "no-trapping-math"="false" "stack-protector-buffer-size"="8" "target-cpu"="x86-64" "target-features"="+fxsr,+mmx,+sse,+sse2,+x87" "unsafe-fp-math"="false" "use-soft-float"="false" }
attributes #5 = { noinline nounwind uwtable "correctly-rounded-divide-sqrt-fp-math"="false" "disable-tail-calls"="false" "less-precise-fpmad"="false" "no-frame-pointer-elim"="true" "no-frame-pointer-elim-non-leaf" "no-infs-fp-math"="false" "no-jump-tables"="false" "no-nans-fp-math"="false" "no-signed-zeros-fp-math"="false" "no-trapping-math"="false" "stack-protector-buffer-size"="8" "target-cpu"="x86-64" "target-features"="+fxsr,+mmx,+sse,+sse2,+x87" "unsafe-fp-math"="false" "use-soft-float"="false" }
attributes #6 = { noinline norecurse uwtable "correctly-rounded-divide-sqrt-fp-math"="false" "disable-tail-calls"="false" "less-precise-fpmad"="false" "no-frame-pointer-elim"="true" "no-frame-pointer-elim-non-leaf" "no-infs-fp-math"="false" "no-jump-tables"="false" "no-nans-fp-math"="false" "no-signed-zeros-fp-math"="false" "no-trapping-math"="false" "stack-protector-buffer-size"="8" "target-cpu"="x86-64" "target-features"="+fxsr,+mmx,+sse,+sse2,+x87" "unsafe-fp-math"="false" "use-soft-float"="false" }
attributes #7 = { noinline noreturn nounwind }
attributes #8 = { nobuiltin nounwind "correctly-rounded-divide-sqrt-fp-math"="false" "disable-tail-calls"="false" "less-precise-fpmad"="false" "no-frame-pointer-elim"="true" "no-frame-pointer-elim-non-leaf" "no-infs-fp-math"="false" "no-nans-fp-math"="false" "no-signed-zeros-fp-math"="false" "no-trapping-math"="false" "stack-protector-buffer-size"="8" "target-cpu"="x86-64" "target-features"="+fxsr,+mmx,+sse,+sse2,+x87" "unsafe-fp-math"="false" "use-soft-float"="false" }
attributes #9 = { noreturn "correctly-rounded-divide-sqrt-fp-math"="false" "disable-tail-calls"="false" "less-precise-fpmad"="false" "no-frame-pointer-elim"="true" "no-frame-pointer-elim-non-leaf" "no-infs-fp-math"="false" "no-nans-fp-math"="false" "no-signed-zeros-fp-math"="false" "no-trapping-math"="false" "stack-protector-buffer-size"="8" "target-cpu"="x86-64" "target-features"="+fxsr,+mmx,+sse,+sse2,+x87" "unsafe-fp-math"="false" "use-soft-float"="false" }
attributes #10 = { nobuiltin "correctly-rounded-divide-sqrt-fp-math"="false" "disable-tail-calls"="false" "less-precise-fpmad"="false" "no-frame-pointer-elim"="true" "no-frame-pointer-elim-non-leaf" "no-infs-fp-math"="false" "no-nans-fp-math"="false" "no-signed-zeros-fp-math"="false" "no-trapping-math"="false" "stack-protector-buffer-size"="8" "target-cpu"="x86-64" "target-features"="+fxsr,+mmx,+sse,+sse2,+x87" "unsafe-fp-math"="false" "use-soft-float"="false" }
attributes #11 = { cold noreturn nounwind }
attributes #12 = { nocallback nofree nosync nounwind readnone speculatable willreturn }
attributes #13 = { argmemonly nocallback nofree nounwind willreturn }
attributes #14 = { noreturn nounwind }
attributes #15 = { noreturn }

!llvm.module.flags = !{!0}
!llvm.ident = !{!1}

!0 = !{i32 1, !"wchar_size", i32 4}
!1 = !{!"clang version 6.0.0-1ubuntu2 (tags/RELEASE_600/final)"}
