; ModuleID = '/home/pedro/tcc/benchmark/SPEC_CPU2017/benchspec/CPU/526.blender_r/src/blender/intern/smoke/intern/specGraph_389.ll'
source_filename = "/home/pedro/tcc/benchmark/SPEC_CPU2017/benchspec/CPU/526.blender_r/src/blender/intern/smoke/intern/EIGENVALUE_HELPER.cpp"
target datalayout = "e-m:e-i64:64-f80:128-n8:16:32:64-S128"
target triple = "x86_64-pc-linux-gnu"

%struct.sEigenvalue = type { i32, i32, [3 x float], [3 x float], [3 x [3 x float]], [3 x [3 x float]], [3 x float], float, float }

$_ZSt4fabsf = comdat any

$_ZSt4sqrtf = comdat any

$_ZSt3maxIfERKT_S2_S2_ = comdat any

$_ZSt5hypotIfdEN9__gnu_cxx11__promote_2IT_T0_NS0_9__promoteIS2_Xsr3std12__is_integerIS2_EE7__valueEE6__typeENS4_IS3_Xsr3std12__is_integerIS3_EE7__valueEE6__typeEE6__typeES2_S3_ = comdat any

$_ZSt5hypotff = comdat any

$_ZSt3maxIiERKT_S2_S2_ = comdat any

$_ZSt3minIiERKT_S2_S2_ = comdat any

; Function Attrs: noinline uwtable
define void @_Z10Eigentred2R11sEigenvalue(%struct.sEigenvalue* dereferenceable(124) %0) #0 {
  %2 = getelementptr inbounds %struct.sEigenvalue, %struct.sEigenvalue* %0, i32 0, i32 0
  %3 = load i32, i32* %2, align 4
  br label %4

4:                                                ; preds = %17, %1
  %.02 = phi i32 [ 0, %1 ], [ %18, %17 ]
  %5 = icmp slt i32 %.02, %3
  br i1 %5, label %6, label %19

6:                                                ; preds = %4
  %7 = getelementptr inbounds %struct.sEigenvalue, %struct.sEigenvalue* %0, i32 0, i32 4
  %8 = sub nsw i32 %3, 1
  %9 = sext i32 %8 to i64
  %10 = getelementptr inbounds [3 x [3 x float]], [3 x [3 x float]]* %7, i64 0, i64 %9
  %11 = sext i32 %.02 to i64
  %12 = getelementptr inbounds [3 x float], [3 x float]* %10, i64 0, i64 %11
  %13 = load float, float* %12, align 4
  %14 = getelementptr inbounds %struct.sEigenvalue, %struct.sEigenvalue* %0, i32 0, i32 2
  %15 = sext i32 %.02 to i64
  %16 = getelementptr inbounds [3 x float], [3 x float]* %14, i64 0, i64 %15
  store float %13, float* %16, align 4
  br label %17

17:                                               ; preds = %6
  %18 = add nsw i32 %.02, 1
  br label %4

19:                                               ; preds = %4
  %20 = sub nsw i32 %3, 1
  br label %21

21:                                               ; preds = %283, %19
  %.03 = phi i32 [ %20, %19 ], [ %284, %283 ]
  %22 = icmp sgt i32 %.03, 0
  br i1 %22, label %23, label %285

23:                                               ; preds = %21
  br label %24

24:                                               ; preds = %33, %23
  %.06 = phi i32 [ 0, %23 ], [ %34, %33 ]
  %.04 = phi float [ 0.000000e+00, %23 ], [ %32, %33 ]
  %25 = icmp slt i32 %.06, %.03
  br i1 %25, label %26, label %35

26:                                               ; preds = %24
  %27 = getelementptr inbounds %struct.sEigenvalue, %struct.sEigenvalue* %0, i32 0, i32 2
  %28 = sext i32 %.06 to i64
  %29 = getelementptr inbounds [3 x float], [3 x float]* %27, i64 0, i64 %28
  %30 = load float, float* %29, align 4
  %31 = call float @_ZSt4fabsf(float %30)
  %32 = fadd float %.04, %31
  br label %33

33:                                               ; preds = %26
  %34 = add nsw i32 %.06, 1
  br label %24

35:                                               ; preds = %24
  %36 = fcmp oeq float %.04, 0.000000e+00
  br i1 %36, label %37, label %72

37:                                               ; preds = %35
  %38 = getelementptr inbounds %struct.sEigenvalue, %struct.sEigenvalue* %0, i32 0, i32 2
  %39 = sub nsw i32 %.03, 1
  %40 = sext i32 %39 to i64
  %41 = getelementptr inbounds [3 x float], [3 x float]* %38, i64 0, i64 %40
  %42 = load float, float* %41, align 4
  %43 = getelementptr inbounds %struct.sEigenvalue, %struct.sEigenvalue* %0, i32 0, i32 3
  %44 = sext i32 %.03 to i64
  %45 = getelementptr inbounds [3 x float], [3 x float]* %43, i64 0, i64 %44
  store float %42, float* %45, align 4
  br label %46

46:                                               ; preds = %69, %37
  %.07 = phi i32 [ 0, %37 ], [ %70, %69 ]
  %47 = icmp slt i32 %.07, %.03
  br i1 %47, label %48, label %71

48:                                               ; preds = %46
  %49 = getelementptr inbounds %struct.sEigenvalue, %struct.sEigenvalue* %0, i32 0, i32 4
  %50 = sub nsw i32 %.03, 1
  %51 = sext i32 %50 to i64
  %52 = getelementptr inbounds [3 x [3 x float]], [3 x [3 x float]]* %49, i64 0, i64 %51
  %53 = sext i32 %.07 to i64
  %54 = getelementptr inbounds [3 x float], [3 x float]* %52, i64 0, i64 %53
  %55 = load float, float* %54, align 4
  %56 = getelementptr inbounds %struct.sEigenvalue, %struct.sEigenvalue* %0, i32 0, i32 2
  %57 = sext i32 %.07 to i64
  %58 = getelementptr inbounds [3 x float], [3 x float]* %56, i64 0, i64 %57
  store float %55, float* %58, align 4
  %59 = getelementptr inbounds %struct.sEigenvalue, %struct.sEigenvalue* %0, i32 0, i32 4
  %60 = sext i32 %.03 to i64
  %61 = getelementptr inbounds [3 x [3 x float]], [3 x [3 x float]]* %59, i64 0, i64 %60
  %62 = sext i32 %.07 to i64
  %63 = getelementptr inbounds [3 x float], [3 x float]* %61, i64 0, i64 %62
  store float 0.000000e+00, float* %63, align 4
  %64 = getelementptr inbounds %struct.sEigenvalue, %struct.sEigenvalue* %0, i32 0, i32 4
  %65 = sext i32 %.07 to i64
  %66 = getelementptr inbounds [3 x [3 x float]], [3 x [3 x float]]* %64, i64 0, i64 %65
  %67 = sext i32 %.03 to i64
  %68 = getelementptr inbounds [3 x float], [3 x float]* %66, i64 0, i64 %67
  store float 0.000000e+00, float* %68, align 4
  br label %69

69:                                               ; preds = %48
  %70 = add nsw i32 %.07, 1
  br label %46

71:                                               ; preds = %46
  br label %279

72:                                               ; preds = %35
  br label %73

73:                                               ; preds = %91, %72
  %.08 = phi i32 [ 0, %72 ], [ %92, %91 ]
  %.05 = phi float [ 0.000000e+00, %72 ], [ %90, %91 ]
  %74 = icmp slt i32 %.08, %.03
  br i1 %74, label %75, label %93

75:                                               ; preds = %73
  %76 = getelementptr inbounds %struct.sEigenvalue, %struct.sEigenvalue* %0, i32 0, i32 2
  %77 = sext i32 %.08 to i64
  %78 = getelementptr inbounds [3 x float], [3 x float]* %76, i64 0, i64 %77
  %79 = load float, float* %78, align 4
  %80 = fdiv float %79, %.04
  store float %80, float* %78, align 4
  %81 = getelementptr inbounds %struct.sEigenvalue, %struct.sEigenvalue* %0, i32 0, i32 2
  %82 = sext i32 %.08 to i64
  %83 = getelementptr inbounds [3 x float], [3 x float]* %81, i64 0, i64 %82
  %84 = load float, float* %83, align 4
  %85 = getelementptr inbounds %struct.sEigenvalue, %struct.sEigenvalue* %0, i32 0, i32 2
  %86 = sext i32 %.08 to i64
  %87 = getelementptr inbounds [3 x float], [3 x float]* %85, i64 0, i64 %86
  %88 = load float, float* %87, align 4
  %89 = fmul float %84, %88
  %90 = fadd float %.05, %89
  br label %91

91:                                               ; preds = %75
  %92 = add nsw i32 %.08, 1
  br label %73

93:                                               ; preds = %73
  %94 = getelementptr inbounds %struct.sEigenvalue, %struct.sEigenvalue* %0, i32 0, i32 2
  %95 = sub nsw i32 %.03, 1
  %96 = sext i32 %95 to i64
  %97 = getelementptr inbounds [3 x float], [3 x float]* %94, i64 0, i64 %96
  %98 = load float, float* %97, align 4
  %99 = call float @_ZSt4sqrtf(float %.05)
  %100 = fcmp ogt float %98, 0.000000e+00
  br i1 %100, label %101, label %103

101:                                              ; preds = %93
  %102 = fsub float -0.000000e+00, %99
  br label %103

103:                                              ; preds = %101, %93
  %.010 = phi float [ %102, %101 ], [ %99, %93 ]
  %104 = fmul float %.04, %.010
  %105 = getelementptr inbounds %struct.sEigenvalue, %struct.sEigenvalue* %0, i32 0, i32 3
  %106 = sext i32 %.03 to i64
  %107 = getelementptr inbounds [3 x float], [3 x float]* %105, i64 0, i64 %106
  store float %104, float* %107, align 4
  %108 = fmul float %98, %.010
  %109 = fsub float %.05, %108
  %110 = fsub float %98, %.010
  %111 = getelementptr inbounds %struct.sEigenvalue, %struct.sEigenvalue* %0, i32 0, i32 2
  %112 = sub nsw i32 %.03, 1
  %113 = sext i32 %112 to i64
  %114 = getelementptr inbounds [3 x float], [3 x float]* %111, i64 0, i64 %113
  store float %110, float* %114, align 4
  br label %115

115:                                              ; preds = %121, %103
  %.012 = phi i32 [ 0, %103 ], [ %122, %121 ]
  %116 = icmp slt i32 %.012, %.03
  br i1 %116, label %117, label %123

117:                                              ; preds = %115
  %118 = getelementptr inbounds %struct.sEigenvalue, %struct.sEigenvalue* %0, i32 0, i32 3
  %119 = sext i32 %.012 to i64
  %120 = getelementptr inbounds [3 x float], [3 x float]* %118, i64 0, i64 %119
  store float 0.000000e+00, float* %120, align 4
  br label %121

121:                                              ; preds = %117
  %122 = add nsw i32 %.012, 1
  br label %115

123:                                              ; preds = %115
  br label %124

124:                                              ; preds = %183, %123
  %.013 = phi i32 [ 0, %123 ], [ %184, %183 ]
  %125 = icmp slt i32 %.013, %.03
  br i1 %125, label %126, label %185

126:                                              ; preds = %124
  %127 = getelementptr inbounds %struct.sEigenvalue, %struct.sEigenvalue* %0, i32 0, i32 2
  %128 = sext i32 %.013 to i64
  %129 = getelementptr inbounds [3 x float], [3 x float]* %127, i64 0, i64 %128
  %130 = load float, float* %129, align 4
  %131 = getelementptr inbounds %struct.sEigenvalue, %struct.sEigenvalue* %0, i32 0, i32 4
  %132 = sext i32 %.013 to i64
  %133 = getelementptr inbounds [3 x [3 x float]], [3 x [3 x float]]* %131, i64 0, i64 %132
  %134 = sext i32 %.03 to i64
  %135 = getelementptr inbounds [3 x float], [3 x float]* %133, i64 0, i64 %134
  store float %130, float* %135, align 4
  %136 = getelementptr inbounds %struct.sEigenvalue, %struct.sEigenvalue* %0, i32 0, i32 3
  %137 = sext i32 %.013 to i64
  %138 = getelementptr inbounds [3 x float], [3 x float]* %136, i64 0, i64 %137
  %139 = load float, float* %138, align 4
  %140 = getelementptr inbounds %struct.sEigenvalue, %struct.sEigenvalue* %0, i32 0, i32 4
  %141 = sext i32 %.013 to i64
  %142 = getelementptr inbounds [3 x [3 x float]], [3 x [3 x float]]* %140, i64 0, i64 %141
  %143 = sext i32 %.013 to i64
  %144 = getelementptr inbounds [3 x float], [3 x float]* %142, i64 0, i64 %143
  %145 = load float, float* %144, align 4
  %146 = fmul float %145, %130
  %147 = fadd float %139, %146
  %148 = add nsw i32 %.013, 1
  br label %149

149:                                              ; preds = %177, %126
  %.014 = phi i32 [ %148, %126 ], [ %178, %177 ]
  %.111 = phi float [ %147, %126 ], [ %164, %177 ]
  %150 = sub nsw i32 %.03, 1
  %151 = icmp sle i32 %.014, %150
  br i1 %151, label %152, label %179

152:                                              ; preds = %149
  %153 = getelementptr inbounds %struct.sEigenvalue, %struct.sEigenvalue* %0, i32 0, i32 4
  %154 = sext i32 %.014 to i64
  %155 = getelementptr inbounds [3 x [3 x float]], [3 x [3 x float]]* %153, i64 0, i64 %154
  %156 = sext i32 %.013 to i64
  %157 = getelementptr inbounds [3 x float], [3 x float]* %155, i64 0, i64 %156
  %158 = load float, float* %157, align 4
  %159 = getelementptr inbounds %struct.sEigenvalue, %struct.sEigenvalue* %0, i32 0, i32 2
  %160 = sext i32 %.014 to i64
  %161 = getelementptr inbounds [3 x float], [3 x float]* %159, i64 0, i64 %160
  %162 = load float, float* %161, align 4
  %163 = fmul float %158, %162
  %164 = fadd float %.111, %163
  %165 = getelementptr inbounds %struct.sEigenvalue, %struct.sEigenvalue* %0, i32 0, i32 4
  %166 = sext i32 %.014 to i64
  %167 = getelementptr inbounds [3 x [3 x float]], [3 x [3 x float]]* %165, i64 0, i64 %166
  %168 = sext i32 %.013 to i64
  %169 = getelementptr inbounds [3 x float], [3 x float]* %167, i64 0, i64 %168
  %170 = load float, float* %169, align 4
  %171 = fmul float %170, %130
  %172 = getelementptr inbounds %struct.sEigenvalue, %struct.sEigenvalue* %0, i32 0, i32 3
  %173 = sext i32 %.014 to i64
  %174 = getelementptr inbounds [3 x float], [3 x float]* %172, i64 0, i64 %173
  %175 = load float, float* %174, align 4
  %176 = fadd float %175, %171
  store float %176, float* %174, align 4
  br label %177

177:                                              ; preds = %152
  %178 = add nsw i32 %.014, 1
  br label %149

179:                                              ; preds = %149
  %180 = getelementptr inbounds %struct.sEigenvalue, %struct.sEigenvalue* %0, i32 0, i32 3
  %181 = sext i32 %.013 to i64
  %182 = getelementptr inbounds [3 x float], [3 x float]* %180, i64 0, i64 %181
  store float %.111, float* %182, align 4
  br label %183

183:                                              ; preds = %179
  %184 = add nsw i32 %.013, 1
  br label %124

185:                                              ; preds = %124
  br label %186

186:                                              ; preds = %204, %185
  %.015 = phi i32 [ 0, %185 ], [ %205, %204 ]
  %.09 = phi float [ 0.000000e+00, %185 ], [ %203, %204 ]
  %187 = icmp slt i32 %.015, %.03
  br i1 %187, label %188, label %206

188:                                              ; preds = %186
  %189 = getelementptr inbounds %struct.sEigenvalue, %struct.sEigenvalue* %0, i32 0, i32 3
  %190 = sext i32 %.015 to i64
  %191 = getelementptr inbounds [3 x float], [3 x float]* %189, i64 0, i64 %190
  %192 = load float, float* %191, align 4
  %193 = fdiv float %192, %109
  store float %193, float* %191, align 4
  %194 = getelementptr inbounds %struct.sEigenvalue, %struct.sEigenvalue* %0, i32 0, i32 3
  %195 = sext i32 %.015 to i64
  %196 = getelementptr inbounds [3 x float], [3 x float]* %194, i64 0, i64 %195
  %197 = load float, float* %196, align 4
  %198 = getelementptr inbounds %struct.sEigenvalue, %struct.sEigenvalue* %0, i32 0, i32 2
  %199 = sext i32 %.015 to i64
  %200 = getelementptr inbounds [3 x float], [3 x float]* %198, i64 0, i64 %199
  %201 = load float, float* %200, align 4
  %202 = fmul float %197, %201
  %203 = fadd float %.09, %202
  br label %204

204:                                              ; preds = %188
  %205 = add nsw i32 %.015, 1
  br label %186

206:                                              ; preds = %186
  %207 = fadd float %109, %109
  %208 = fdiv float %.09, %207
  br label %209

209:                                              ; preds = %222, %206
  %.017 = phi i32 [ 0, %206 ], [ %223, %222 ]
  %210 = icmp slt i32 %.017, %.03
  br i1 %210, label %211, label %224

211:                                              ; preds = %209
  %212 = getelementptr inbounds %struct.sEigenvalue, %struct.sEigenvalue* %0, i32 0, i32 2
  %213 = sext i32 %.017 to i64
  %214 = getelementptr inbounds [3 x float], [3 x float]* %212, i64 0, i64 %213
  %215 = load float, float* %214, align 4
  %216 = fmul float %208, %215
  %217 = getelementptr inbounds %struct.sEigenvalue, %struct.sEigenvalue* %0, i32 0, i32 3
  %218 = sext i32 %.017 to i64
  %219 = getelementptr inbounds [3 x float], [3 x float]* %217, i64 0, i64 %218
  %220 = load float, float* %219, align 4
  %221 = fsub float %220, %216
  store float %221, float* %219, align 4
  br label %222

222:                                              ; preds = %211
  %223 = add nsw i32 %.017, 1
  br label %209

224:                                              ; preds = %209
  br label %225

225:                                              ; preds = %276, %224
  %.018 = phi i32 [ 0, %224 ], [ %277, %276 ]
  %226 = icmp slt i32 %.018, %.03
  br i1 %226, label %227, label %278

227:                                              ; preds = %225
  %228 = getelementptr inbounds %struct.sEigenvalue, %struct.sEigenvalue* %0, i32 0, i32 2
  %229 = sext i32 %.018 to i64
  %230 = getelementptr inbounds [3 x float], [3 x float]* %228, i64 0, i64 %229
  %231 = load float, float* %230, align 4
  %232 = getelementptr inbounds %struct.sEigenvalue, %struct.sEigenvalue* %0, i32 0, i32 3
  %233 = sext i32 %.018 to i64
  %234 = getelementptr inbounds [3 x float], [3 x float]* %232, i64 0, i64 %233
  %235 = load float, float* %234, align 4
  br label %236

236:                                              ; preds = %258, %227
  %.019 = phi i32 [ %.018, %227 ], [ %259, %258 ]
  %237 = sub nsw i32 %.03, 1
  %238 = icmp sle i32 %.019, %237
  br i1 %238, label %239, label %260

239:                                              ; preds = %236
  %240 = getelementptr inbounds %struct.sEigenvalue, %struct.sEigenvalue* %0, i32 0, i32 3
  %241 = sext i32 %.019 to i64
  %242 = getelementptr inbounds [3 x float], [3 x float]* %240, i64 0, i64 %241
  %243 = load float, float* %242, align 4
  %244 = fmul float %231, %243
  %245 = getelementptr inbounds %struct.sEigenvalue, %struct.sEigenvalue* %0, i32 0, i32 2
  %246 = sext i32 %.019 to i64
  %247 = getelementptr inbounds [3 x float], [3 x float]* %245, i64 0, i64 %246
  %248 = load float, float* %247, align 4
  %249 = fmul float %235, %248
  %250 = fadd float %244, %249
  %251 = getelementptr inbounds %struct.sEigenvalue, %struct.sEigenvalue* %0, i32 0, i32 4
  %252 = sext i32 %.019 to i64
  %253 = getelementptr inbounds [3 x [3 x float]], [3 x [3 x float]]* %251, i64 0, i64 %252
  %254 = sext i32 %.018 to i64
  %255 = getelementptr inbounds [3 x float], [3 x float]* %253, i64 0, i64 %254
  %256 = load float, float* %255, align 4
  %257 = fsub float %256, %250
  store float %257, float* %255, align 4
  br label %258

258:                                              ; preds = %239
  %259 = add nsw i32 %.019, 1
  br label %236

260:                                              ; preds = %236
  %261 = getelementptr inbounds %struct.sEigenvalue, %struct.sEigenvalue* %0, i32 0, i32 4
  %262 = sub nsw i32 %.03, 1
  %263 = sext i32 %262 to i64
  %264 = getelementptr inbounds [3 x [3 x float]], [3 x [3 x float]]* %261, i64 0, i64 %263
  %265 = sext i32 %.018 to i64
  %266 = getelementptr inbounds [3 x float], [3 x float]* %264, i64 0, i64 %265
  %267 = load float, float* %266, align 4
  %268 = getelementptr inbounds %struct.sEigenvalue, %struct.sEigenvalue* %0, i32 0, i32 2
  %269 = sext i32 %.018 to i64
  %270 = getelementptr inbounds [3 x float], [3 x float]* %268, i64 0, i64 %269
  store float %267, float* %270, align 4
  %271 = getelementptr inbounds %struct.sEigenvalue, %struct.sEigenvalue* %0, i32 0, i32 4
  %272 = sext i32 %.03 to i64
  %273 = getelementptr inbounds [3 x [3 x float]], [3 x [3 x float]]* %271, i64 0, i64 %272
  %274 = sext i32 %.018 to i64
  %275 = getelementptr inbounds [3 x float], [3 x float]* %273, i64 0, i64 %274
  store float 0.000000e+00, float* %275, align 4
  br label %276

276:                                              ; preds = %260
  %277 = add nsw i32 %.018, 1
  br label %225

278:                                              ; preds = %225
  br label %279

279:                                              ; preds = %278, %71
  %.1 = phi float [ 0.000000e+00, %71 ], [ %109, %278 ]
  %280 = getelementptr inbounds %struct.sEigenvalue, %struct.sEigenvalue* %0, i32 0, i32 2
  %281 = sext i32 %.03 to i64
  %282 = getelementptr inbounds [3 x float], [3 x float]* %280, i64 0, i64 %281
  store float %.1, float* %282, align 4
  br label %283

283:                                              ; preds = %279
  %284 = add nsw i32 %.03, -1
  br label %21

285:                                              ; preds = %21
  br label %286

286:                                              ; preds = %389, %285
  %.020 = phi i32 [ 0, %285 ], [ %390, %389 ]
  %287 = sub nsw i32 %3, 1
  %288 = icmp slt i32 %.020, %287
  br i1 %288, label %289, label %391

289:                                              ; preds = %286
  %290 = getelementptr inbounds %struct.sEigenvalue, %struct.sEigenvalue* %0, i32 0, i32 4
  %291 = sext i32 %.020 to i64
  %292 = getelementptr inbounds [3 x [3 x float]], [3 x [3 x float]]* %290, i64 0, i64 %291
  %293 = sext i32 %.020 to i64
  %294 = getelementptr inbounds [3 x float], [3 x float]* %292, i64 0, i64 %293
  %295 = load float, float* %294, align 4
  %296 = getelementptr inbounds %struct.sEigenvalue, %struct.sEigenvalue* %0, i32 0, i32 4
  %297 = sub nsw i32 %3, 1
  %298 = sext i32 %297 to i64
  %299 = getelementptr inbounds [3 x [3 x float]], [3 x [3 x float]]* %296, i64 0, i64 %298
  %300 = sext i32 %.020 to i64
  %301 = getelementptr inbounds [3 x float], [3 x float]* %299, i64 0, i64 %300
  store float %295, float* %301, align 4
  %302 = getelementptr inbounds %struct.sEigenvalue, %struct.sEigenvalue* %0, i32 0, i32 4
  %303 = sext i32 %.020 to i64
  %304 = getelementptr inbounds [3 x [3 x float]], [3 x [3 x float]]* %302, i64 0, i64 %303
  %305 = sext i32 %.020 to i64
  %306 = getelementptr inbounds [3 x float], [3 x float]* %304, i64 0, i64 %305
  store float 1.000000e+00, float* %306, align 4
  %307 = getelementptr inbounds %struct.sEigenvalue, %struct.sEigenvalue* %0, i32 0, i32 2
  %308 = add nsw i32 %.020, 1
  %309 = sext i32 %308 to i64
  %310 = getelementptr inbounds [3 x float], [3 x float]* %307, i64 0, i64 %309
  %311 = load float, float* %310, align 4
  %312 = fcmp une float %311, 0.000000e+00
  br i1 %312, label %313, label %376

313:                                              ; preds = %289
  br label %314

314:                                              ; preds = %328, %313
  %.022 = phi i32 [ 0, %313 ], [ %329, %328 ]
  %315 = icmp sle i32 %.022, %.020
  br i1 %315, label %316, label %330

316:                                              ; preds = %314
  %317 = getelementptr inbounds %struct.sEigenvalue, %struct.sEigenvalue* %0, i32 0, i32 4
  %318 = sext i32 %.022 to i64
  %319 = getelementptr inbounds [3 x [3 x float]], [3 x [3 x float]]* %317, i64 0, i64 %318
  %320 = add nsw i32 %.020, 1
  %321 = sext i32 %320 to i64
  %322 = getelementptr inbounds [3 x float], [3 x float]* %319, i64 0, i64 %321
  %323 = load float, float* %322, align 4
  %324 = fdiv float %323, %311
  %325 = getelementptr inbounds %struct.sEigenvalue, %struct.sEigenvalue* %0, i32 0, i32 2
  %326 = sext i32 %.022 to i64
  %327 = getelementptr inbounds [3 x float], [3 x float]* %325, i64 0, i64 %326
  store float %324, float* %327, align 4
  br label %328

328:                                              ; preds = %316
  %329 = add nsw i32 %.022, 1
  br label %314

330:                                              ; preds = %314
  br label %331

331:                                              ; preds = %373, %330
  %.023 = phi i32 [ 0, %330 ], [ %374, %373 ]
  %332 = icmp sle i32 %.023, %.020
  br i1 %332, label %333, label %375

333:                                              ; preds = %331
  br label %334

334:                                              ; preds = %352, %333
  %.024 = phi float [ 0.000000e+00, %333 ], [ %351, %352 ]
  %.021 = phi i32 [ 0, %333 ], [ %353, %352 ]
  %335 = icmp sle i32 %.021, %.020
  br i1 %335, label %336, label %354

336:                                              ; preds = %334
  %337 = getelementptr inbounds %struct.sEigenvalue, %struct.sEigenvalue* %0, i32 0, i32 4
  %338 = sext i32 %.021 to i64
  %339 = getelementptr inbounds [3 x [3 x float]], [3 x [3 x float]]* %337, i64 0, i64 %338
  %340 = add nsw i32 %.020, 1
  %341 = sext i32 %340 to i64
  %342 = getelementptr inbounds [3 x float], [3 x float]* %339, i64 0, i64 %341
  %343 = load float, float* %342, align 4
  %344 = getelementptr inbounds %struct.sEigenvalue, %struct.sEigenvalue* %0, i32 0, i32 4
  %345 = sext i32 %.021 to i64
  %346 = getelementptr inbounds [3 x [3 x float]], [3 x [3 x float]]* %344, i64 0, i64 %345
  %347 = sext i32 %.023 to i64
  %348 = getelementptr inbounds [3 x float], [3 x float]* %346, i64 0, i64 %347
  %349 = load float, float* %348, align 4
  %350 = fmul float %343, %349
  %351 = fadd float %.024, %350
  br label %352

352:                                              ; preds = %336
  %353 = add nsw i32 %.021, 1
  br label %334

354:                                              ; preds = %334
  br label %355

355:                                              ; preds = %370, %354
  %.016 = phi i32 [ 0, %354 ], [ %371, %370 ]
  %356 = icmp sle i32 %.016, %.020
  br i1 %356, label %357, label %372

357:                                              ; preds = %355
  %358 = getelementptr inbounds %struct.sEigenvalue, %struct.sEigenvalue* %0, i32 0, i32 2
  %359 = sext i32 %.016 to i64
  %360 = getelementptr inbounds [3 x float], [3 x float]* %358, i64 0, i64 %359
  %361 = load float, float* %360, align 4
  %362 = fmul float %.024, %361
  %363 = getelementptr inbounds %struct.sEigenvalue, %struct.sEigenvalue* %0, i32 0, i32 4
  %364 = sext i32 %.016 to i64
  %365 = getelementptr inbounds [3 x [3 x float]], [3 x [3 x float]]* %363, i64 0, i64 %364
  %366 = sext i32 %.023 to i64
  %367 = getelementptr inbounds [3 x float], [3 x float]* %365, i64 0, i64 %366
  %368 = load float, float* %367, align 4
  %369 = fsub float %368, %362
  store float %369, float* %367, align 4
  br label %370

370:                                              ; preds = %357
  %371 = add nsw i32 %.016, 1
  br label %355

372:                                              ; preds = %355
  br label %373

373:                                              ; preds = %372
  %374 = add nsw i32 %.023, 1
  br label %331

375:                                              ; preds = %331
  br label %376

376:                                              ; preds = %375, %289
  br label %377

377:                                              ; preds = %386, %376
  %.01 = phi i32 [ 0, %376 ], [ %387, %386 ]
  %378 = icmp sle i32 %.01, %.020
  br i1 %378, label %379, label %388

379:                                              ; preds = %377
  %380 = getelementptr inbounds %struct.sEigenvalue, %struct.sEigenvalue* %0, i32 0, i32 4
  %381 = sext i32 %.01 to i64
  %382 = getelementptr inbounds [3 x [3 x float]], [3 x [3 x float]]* %380, i64 0, i64 %381
  %383 = add nsw i32 %.020, 1
  %384 = sext i32 %383 to i64
  %385 = getelementptr inbounds [3 x float], [3 x float]* %382, i64 0, i64 %384
  store float 0.000000e+00, float* %385, align 4
  br label %386

386:                                              ; preds = %379
  %387 = add nsw i32 %.01, 1
  br label %377

388:                                              ; preds = %377
  br label %389

389:                                              ; preds = %388
  %390 = add nsw i32 %.020, 1
  br label %286

391:                                              ; preds = %286
  br label %392

392:                                              ; preds = %411, %391
  %.0 = phi i32 [ 0, %391 ], [ %412, %411 ]
  %393 = icmp slt i32 %.0, %3
  br i1 %393, label %394, label %413

394:                                              ; preds = %392
  %395 = getelementptr inbounds %struct.sEigenvalue, %struct.sEigenvalue* %0, i32 0, i32 4
  %396 = sub nsw i32 %3, 1
  %397 = sext i32 %396 to i64
  %398 = getelementptr inbounds [3 x [3 x float]], [3 x [3 x float]]* %395, i64 0, i64 %397
  %399 = sext i32 %.0 to i64
  %400 = getelementptr inbounds [3 x float], [3 x float]* %398, i64 0, i64 %399
  %401 = load float, float* %400, align 4
  %402 = getelementptr inbounds %struct.sEigenvalue, %struct.sEigenvalue* %0, i32 0, i32 2
  %403 = sext i32 %.0 to i64
  %404 = getelementptr inbounds [3 x float], [3 x float]* %402, i64 0, i64 %403
  store float %401, float* %404, align 4
  %405 = getelementptr inbounds %struct.sEigenvalue, %struct.sEigenvalue* %0, i32 0, i32 4
  %406 = sub nsw i32 %3, 1
  %407 = sext i32 %406 to i64
  %408 = getelementptr inbounds [3 x [3 x float]], [3 x [3 x float]]* %405, i64 0, i64 %407
  %409 = sext i32 %.0 to i64
  %410 = getelementptr inbounds [3 x float], [3 x float]* %408, i64 0, i64 %409
  store float 0.000000e+00, float* %410, align 4
  br label %411

411:                                              ; preds = %394
  %412 = add nsw i32 %.0, 1
  br label %392

413:                                              ; preds = %392
  %414 = getelementptr inbounds %struct.sEigenvalue, %struct.sEigenvalue* %0, i32 0, i32 4
  %415 = sub nsw i32 %3, 1
  %416 = sext i32 %415 to i64
  %417 = getelementptr inbounds [3 x [3 x float]], [3 x [3 x float]]* %414, i64 0, i64 %416
  %418 = sub nsw i32 %3, 1
  %419 = sext i32 %418 to i64
  %420 = getelementptr inbounds [3 x float], [3 x float]* %417, i64 0, i64 %419
  store float 1.000000e+00, float* %420, align 4
  %421 = getelementptr inbounds %struct.sEigenvalue, %struct.sEigenvalue* %0, i32 0, i32 3
  %422 = getelementptr inbounds [3 x float], [3 x float]* %421, i64 0, i64 0
  store float 0.000000e+00, float* %422, align 4
  ret void
}

; Function Attrs: noinline nounwind uwtable
define linkonce_odr float @_ZSt4fabsf(float %0) #1 comdat {
  %2 = call float @llvm.fabs.f32(float %0)
  ret float %2
}

; Function Attrs: noinline nounwind uwtable
define linkonce_odr float @_ZSt4sqrtf(float %0) #1 comdat {
  %2 = call float @sqrtf(float %0) #4
  ret float %2
}

; Function Attrs: noinline uwtable
define void @_Z9EigencdivR11sEigenvalueffff(%struct.sEigenvalue* dereferenceable(124) %0, float %1, float %2, float %3, float %4) #0 {
  %6 = call float @_ZSt4fabsf(float %3)
  %7 = call float @_ZSt4fabsf(float %4)
  %8 = fcmp ogt float %6, %7
  br i1 %8, label %9, label %21

9:                                                ; preds = %5
  %10 = fdiv float %4, %3
  %11 = fmul float %10, %4
  %12 = fadd float %3, %11
  %13 = fmul float %10, %2
  %14 = fadd float %1, %13
  %15 = fdiv float %14, %12
  %16 = getelementptr inbounds %struct.sEigenvalue, %struct.sEigenvalue* %0, i32 0, i32 7
  store float %15, float* %16, align 4
  %17 = fmul float %10, %1
  %18 = fsub float %2, %17
  %19 = fdiv float %18, %12
  %20 = getelementptr inbounds %struct.sEigenvalue, %struct.sEigenvalue* %0, i32 0, i32 8
  store float %19, float* %20, align 4
  br label %33

21:                                               ; preds = %5
  %22 = fdiv float %3, %4
  %23 = fmul float %22, %3
  %24 = fadd float %4, %23
  %25 = fmul float %22, %1
  %26 = fadd float %25, %2
  %27 = fdiv float %26, %24
  %28 = getelementptr inbounds %struct.sEigenvalue, %struct.sEigenvalue* %0, i32 0, i32 7
  store float %27, float* %28, align 4
  %29 = fmul float %22, %2
  %30 = fsub float %29, %1
  %31 = fdiv float %30, %24
  %32 = getelementptr inbounds %struct.sEigenvalue, %struct.sEigenvalue* %0, i32 0, i32 8
  store float %31, float* %32, align 4
  br label %33

33:                                               ; preds = %21, %9
  ret void
}

; Function Attrs: noinline uwtable
define void @_Z9Eigentql2R11sEigenvalue(%struct.sEigenvalue* dereferenceable(124) %0) #0 {
  %2 = alloca float, align 4
  %3 = alloca float, align 4
  %4 = getelementptr inbounds %struct.sEigenvalue, %struct.sEigenvalue* %0, i32 0, i32 0
  %5 = load i32, i32* %4, align 4
  br label %6

6:                                                ; preds = %17, %1
  %.02 = phi i32 [ 1, %1 ], [ %18, %17 ]
  %7 = icmp slt i32 %.02, %5
  br i1 %7, label %8, label %19

8:                                                ; preds = %6
  %9 = getelementptr inbounds %struct.sEigenvalue, %struct.sEigenvalue* %0, i32 0, i32 3
  %10 = sext i32 %.02 to i64
  %11 = getelementptr inbounds [3 x float], [3 x float]* %9, i64 0, i64 %10
  %12 = load float, float* %11, align 4
  %13 = getelementptr inbounds %struct.sEigenvalue, %struct.sEigenvalue* %0, i32 0, i32 3
  %14 = sub nsw i32 %.02, 1
  %15 = sext i32 %14 to i64
  %16 = getelementptr inbounds [3 x float], [3 x float]* %13, i64 0, i64 %15
  store float %12, float* %16, align 4
  br label %17

17:                                               ; preds = %8
  %18 = add nsw i32 %.02, 1
  br label %6

19:                                               ; preds = %6
  %20 = getelementptr inbounds %struct.sEigenvalue, %struct.sEigenvalue* %0, i32 0, i32 3
  %21 = sub nsw i32 %5, 1
  %22 = sext i32 %21 to i64
  %23 = getelementptr inbounds [3 x float], [3 x float]* %20, i64 0, i64 %22
  store float 0.000000e+00, float* %23, align 4
  store float 0.000000e+00, float* %2, align 4
  %24 = call double @pow(double 2.000000e+00, double -5.200000e+01) #4
  %25 = fptrunc double %24 to float
  br label %26

26:                                               ; preds = %265, %19
  %.06 = phi i32 [ 0, %19 ], [ %266, %265 ]
  %.03 = phi float [ 0.000000e+00, %19 ], [ %.2, %265 ]
  %27 = icmp slt i32 %.06, %5
  br i1 %27, label %28, label %267

28:                                               ; preds = %26
  %29 = getelementptr inbounds %struct.sEigenvalue, %struct.sEigenvalue* %0, i32 0, i32 2
  %30 = sext i32 %.06 to i64
  %31 = getelementptr inbounds [3 x float], [3 x float]* %29, i64 0, i64 %30
  %32 = load float, float* %31, align 4
  %33 = call float @_ZSt4fabsf(float %32)
  %34 = getelementptr inbounds %struct.sEigenvalue, %struct.sEigenvalue* %0, i32 0, i32 3
  %35 = sext i32 %.06 to i64
  %36 = getelementptr inbounds [3 x float], [3 x float]* %34, i64 0, i64 %35
  %37 = load float, float* %36, align 4
  %38 = call float @_ZSt4fabsf(float %37)
  %39 = fadd float %33, %38
  store float %39, float* %3, align 4
  %40 = call dereferenceable(4) float* @_ZSt3maxIfERKT_S2_S2_(float* dereferenceable(4) %2, float* dereferenceable(4) %3)
  %41 = load float, float* %40, align 4
  store float %41, float* %2, align 4
  br label %42

42:                                               ; preds = %54, %28
  %.07 = phi i32 [ %.06, %28 ], [ %55, %54 ]
  %43 = icmp slt i32 %.07, %5
  br i1 %43, label %44, label %56

44:                                               ; preds = %42
  %45 = getelementptr inbounds %struct.sEigenvalue, %struct.sEigenvalue* %0, i32 0, i32 3
  %46 = sext i32 %.07 to i64
  %47 = getelementptr inbounds [3 x float], [3 x float]* %45, i64 0, i64 %46
  %48 = load float, float* %47, align 4
  %49 = call float @_ZSt4fabsf(float %48)
  %50 = load float, float* %2, align 4
  %51 = fmul float %25, %50
  %52 = fcmp ole float %49, %51
  br i1 %52, label %53, label %54

53:                                               ; preds = %44
  br label %56

54:                                               ; preds = %44
  %55 = add nsw i32 %.07, 1
  br label %42

56:                                               ; preds = %53, %42
  %57 = icmp sgt i32 %.07, %.06
  br i1 %57, label %58, label %253

58:                                               ; preds = %56
  br label %59

59:                                               ; preds = %243, %58
  %.08 = phi i32 [ 0, %58 ], [ %60, %243 ]
  %.1 = phi float [ %.03, %58 ], [ %124, %243 ]
  %60 = add nsw i32 %.08, 1
  %61 = getelementptr inbounds %struct.sEigenvalue, %struct.sEigenvalue* %0, i32 0, i32 2
  %62 = sext i32 %.06 to i64
  %63 = getelementptr inbounds [3 x float], [3 x float]* %61, i64 0, i64 %62
  %64 = load float, float* %63, align 4
  %65 = getelementptr inbounds %struct.sEigenvalue, %struct.sEigenvalue* %0, i32 0, i32 2
  %66 = add nsw i32 %.06, 1
  %67 = sext i32 %66 to i64
  %68 = getelementptr inbounds [3 x float], [3 x float]* %65, i64 0, i64 %67
  %69 = load float, float* %68, align 4
  %70 = fsub float %69, %64
  %71 = getelementptr inbounds %struct.sEigenvalue, %struct.sEigenvalue* %0, i32 0, i32 3
  %72 = sext i32 %.06 to i64
  %73 = getelementptr inbounds [3 x float], [3 x float]* %71, i64 0, i64 %72
  %74 = load float, float* %73, align 4
  %75 = fmul float 2.000000e+00, %74
  %76 = fdiv float %70, %75
  %77 = call double @_ZSt5hypotIfdEN9__gnu_cxx11__promote_2IT_T0_NS0_9__promoteIS2_Xsr3std12__is_integerIS2_EE7__valueEE6__typeENS4_IS3_Xsr3std12__is_integerIS3_EE7__valueEE6__typeEE6__typeES2_S3_(float %76, double 1.000000e+00)
  %78 = fptrunc double %77 to float
  %79 = fcmp olt float %76, 0.000000e+00
  br i1 %79, label %80, label %82

80:                                               ; preds = %59
  %81 = fsub float -0.000000e+00, %78
  br label %82

82:                                               ; preds = %80, %59
  %.010 = phi float [ %81, %80 ], [ %78, %59 ]
  %83 = getelementptr inbounds %struct.sEigenvalue, %struct.sEigenvalue* %0, i32 0, i32 3
  %84 = sext i32 %.06 to i64
  %85 = getelementptr inbounds [3 x float], [3 x float]* %83, i64 0, i64 %84
  %86 = load float, float* %85, align 4
  %87 = fadd float %76, %.010
  %88 = fdiv float %86, %87
  %89 = getelementptr inbounds %struct.sEigenvalue, %struct.sEigenvalue* %0, i32 0, i32 2
  %90 = sext i32 %.06 to i64
  %91 = getelementptr inbounds [3 x float], [3 x float]* %89, i64 0, i64 %90
  store float %88, float* %91, align 4
  %92 = getelementptr inbounds %struct.sEigenvalue, %struct.sEigenvalue* %0, i32 0, i32 3
  %93 = sext i32 %.06 to i64
  %94 = getelementptr inbounds [3 x float], [3 x float]* %92, i64 0, i64 %93
  %95 = load float, float* %94, align 4
  %96 = fadd float %76, %.010
  %97 = fmul float %95, %96
  %98 = getelementptr inbounds %struct.sEigenvalue, %struct.sEigenvalue* %0, i32 0, i32 2
  %99 = add nsw i32 %.06, 1
  %100 = sext i32 %99 to i64
  %101 = getelementptr inbounds [3 x float], [3 x float]* %98, i64 0, i64 %100
  store float %97, float* %101, align 4
  %102 = getelementptr inbounds %struct.sEigenvalue, %struct.sEigenvalue* %0, i32 0, i32 2
  %103 = add nsw i32 %.06, 1
  %104 = sext i32 %103 to i64
  %105 = getelementptr inbounds [3 x float], [3 x float]* %102, i64 0, i64 %104
  %106 = load float, float* %105, align 4
  %107 = getelementptr inbounds %struct.sEigenvalue, %struct.sEigenvalue* %0, i32 0, i32 2
  %108 = sext i32 %.06 to i64
  %109 = getelementptr inbounds [3 x float], [3 x float]* %107, i64 0, i64 %108
  %110 = load float, float* %109, align 4
  %111 = fsub float %64, %110
  %112 = add nsw i32 %.06, 2
  br label %113

113:                                              ; preds = %121, %82
  %.013 = phi i32 [ %112, %82 ], [ %122, %121 ]
  %114 = icmp slt i32 %.013, %5
  br i1 %114, label %115, label %123

115:                                              ; preds = %113
  %116 = getelementptr inbounds %struct.sEigenvalue, %struct.sEigenvalue* %0, i32 0, i32 2
  %117 = sext i32 %.013 to i64
  %118 = getelementptr inbounds [3 x float], [3 x float]* %116, i64 0, i64 %117
  %119 = load float, float* %118, align 4
  %120 = fsub float %119, %111
  store float %120, float* %118, align 4
  br label %121

121:                                              ; preds = %115
  %122 = add nsw i32 %.013, 1
  br label %113

123:                                              ; preds = %113
  %124 = fadd float %.1, %111
  %125 = getelementptr inbounds %struct.sEigenvalue, %struct.sEigenvalue* %0, i32 0, i32 2
  %126 = sext i32 %.07 to i64
  %127 = getelementptr inbounds [3 x float], [3 x float]* %125, i64 0, i64 %126
  %128 = load float, float* %127, align 4
  %129 = getelementptr inbounds %struct.sEigenvalue, %struct.sEigenvalue* %0, i32 0, i32 3
  %130 = add nsw i32 %.06, 1
  %131 = sext i32 %130 to i64
  %132 = getelementptr inbounds [3 x float], [3 x float]* %129, i64 0, i64 %131
  %133 = load float, float* %132, align 4
  %134 = sub nsw i32 %.07, 1
  br label %135

135:                                              ; preds = %222, %123
  %.020 = phi i32 [ %134, %123 ], [ %223, %222 ]
  %.019 = phi float [ 0.000000e+00, %123 ], [ %.018, %222 ]
  %.018 = phi float [ 0.000000e+00, %123 ], [ %158, %222 ]
  %.016 = phi float [ 1.000000e+00, %123 ], [ %.015, %222 ]
  %.015 = phi float [ 1.000000e+00, %123 ], [ %.014, %222 ]
  %.014 = phi float [ 1.000000e+00, %123 ], [ %159, %222 ]
  %.09 = phi float [ %128, %123 ], [ %166, %222 ]
  %136 = icmp sge i32 %.020, %.06
  br i1 %136, label %137, label %224

137:                                              ; preds = %135
  %138 = getelementptr inbounds %struct.sEigenvalue, %struct.sEigenvalue* %0, i32 0, i32 3
  %139 = sext i32 %.020 to i64
  %140 = getelementptr inbounds [3 x float], [3 x float]* %138, i64 0, i64 %139
  %141 = load float, float* %140, align 4
  %142 = fmul float %.014, %141
  %143 = fmul float %.014, %.09
  %144 = getelementptr inbounds %struct.sEigenvalue, %struct.sEigenvalue* %0, i32 0, i32 3
  %145 = sext i32 %.020 to i64
  %146 = getelementptr inbounds [3 x float], [3 x float]* %144, i64 0, i64 %145
  %147 = load float, float* %146, align 4
  %148 = call float @_ZSt5hypotff(float %.09, float %147)
  %149 = fmul float %.018, %148
  %150 = getelementptr inbounds %struct.sEigenvalue, %struct.sEigenvalue* %0, i32 0, i32 3
  %151 = add nsw i32 %.020, 1
  %152 = sext i32 %151 to i64
  %153 = getelementptr inbounds [3 x float], [3 x float]* %150, i64 0, i64 %152
  store float %149, float* %153, align 4
  %154 = getelementptr inbounds %struct.sEigenvalue, %struct.sEigenvalue* %0, i32 0, i32 3
  %155 = sext i32 %.020 to i64
  %156 = getelementptr inbounds [3 x float], [3 x float]* %154, i64 0, i64 %155
  %157 = load float, float* %156, align 4
  %158 = fdiv float %157, %148
  %159 = fdiv float %.09, %148
  %160 = getelementptr inbounds %struct.sEigenvalue, %struct.sEigenvalue* %0, i32 0, i32 2
  %161 = sext i32 %.020 to i64
  %162 = getelementptr inbounds [3 x float], [3 x float]* %160, i64 0, i64 %161
  %163 = load float, float* %162, align 4
  %164 = fmul float %159, %163
  %165 = fmul float %158, %142
  %166 = fsub float %164, %165
  %167 = fmul float %159, %142
  %168 = getelementptr inbounds %struct.sEigenvalue, %struct.sEigenvalue* %0, i32 0, i32 2
  %169 = sext i32 %.020 to i64
  %170 = getelementptr inbounds [3 x float], [3 x float]* %168, i64 0, i64 %169
  %171 = load float, float* %170, align 4
  %172 = fmul float %158, %171
  %173 = fadd float %167, %172
  %174 = fmul float %158, %173
  %175 = fadd float %143, %174
  %176 = getelementptr inbounds %struct.sEigenvalue, %struct.sEigenvalue* %0, i32 0, i32 2
  %177 = add nsw i32 %.020, 1
  %178 = sext i32 %177 to i64
  %179 = getelementptr inbounds [3 x float], [3 x float]* %176, i64 0, i64 %178
  store float %175, float* %179, align 4
  br label %180

180:                                              ; preds = %219, %137
  %.021 = phi i32 [ 0, %137 ], [ %220, %219 ]
  %181 = icmp slt i32 %.021, %5
  br i1 %181, label %182, label %221

182:                                              ; preds = %180
  %183 = getelementptr inbounds %struct.sEigenvalue, %struct.sEigenvalue* %0, i32 0, i32 4
  %184 = sext i32 %.021 to i64
  %185 = getelementptr inbounds [3 x [3 x float]], [3 x [3 x float]]* %183, i64 0, i64 %184
  %186 = add nsw i32 %.020, 1
  %187 = sext i32 %186 to i64
  %188 = getelementptr inbounds [3 x float], [3 x float]* %185, i64 0, i64 %187
  %189 = load float, float* %188, align 4
  %190 = getelementptr inbounds %struct.sEigenvalue, %struct.sEigenvalue* %0, i32 0, i32 4
  %191 = sext i32 %.021 to i64
  %192 = getelementptr inbounds [3 x [3 x float]], [3 x [3 x float]]* %190, i64 0, i64 %191
  %193 = sext i32 %.020 to i64
  %194 = getelementptr inbounds [3 x float], [3 x float]* %192, i64 0, i64 %193
  %195 = load float, float* %194, align 4
  %196 = fmul float %158, %195
  %197 = fmul float %159, %189
  %198 = fadd float %196, %197
  %199 = getelementptr inbounds %struct.sEigenvalue, %struct.sEigenvalue* %0, i32 0, i32 4
  %200 = sext i32 %.021 to i64
  %201 = getelementptr inbounds [3 x [3 x float]], [3 x [3 x float]]* %199, i64 0, i64 %200
  %202 = add nsw i32 %.020, 1
  %203 = sext i32 %202 to i64
  %204 = getelementptr inbounds [3 x float], [3 x float]* %201, i64 0, i64 %203
  store float %198, float* %204, align 4
  %205 = getelementptr inbounds %struct.sEigenvalue, %struct.sEigenvalue* %0, i32 0, i32 4
  %206 = sext i32 %.021 to i64
  %207 = getelementptr inbounds [3 x [3 x float]], [3 x [3 x float]]* %205, i64 0, i64 %206
  %208 = sext i32 %.020 to i64
  %209 = getelementptr inbounds [3 x float], [3 x float]* %207, i64 0, i64 %208
  %210 = load float, float* %209, align 4
  %211 = fmul float %159, %210
  %212 = fmul float %158, %189
  %213 = fsub float %211, %212
  %214 = getelementptr inbounds %struct.sEigenvalue, %struct.sEigenvalue* %0, i32 0, i32 4
  %215 = sext i32 %.021 to i64
  %216 = getelementptr inbounds [3 x [3 x float]], [3 x [3 x float]]* %214, i64 0, i64 %215
  %217 = sext i32 %.020 to i64
  %218 = getelementptr inbounds [3 x float], [3 x float]* %216, i64 0, i64 %217
  store float %213, float* %218, align 4
  br label %219

219:                                              ; preds = %182
  %220 = add nsw i32 %.021, 1
  br label %180

221:                                              ; preds = %180
  br label %222

222:                                              ; preds = %221
  %223 = add nsw i32 %.020, -1
  br label %135

224:                                              ; preds = %135
  %225 = fsub float -0.000000e+00, %.018
  %226 = fmul float %225, %.019
  %227 = fmul float %226, %.016
  %228 = fmul float %227, %133
  %229 = getelementptr inbounds %struct.sEigenvalue, %struct.sEigenvalue* %0, i32 0, i32 3
  %230 = sext i32 %.06 to i64
  %231 = getelementptr inbounds [3 x float], [3 x float]* %229, i64 0, i64 %230
  %232 = load float, float* %231, align 4
  %233 = fmul float %228, %232
  %234 = fdiv float %233, %106
  %235 = fmul float %.018, %234
  %236 = getelementptr inbounds %struct.sEigenvalue, %struct.sEigenvalue* %0, i32 0, i32 3
  %237 = sext i32 %.06 to i64
  %238 = getelementptr inbounds [3 x float], [3 x float]* %236, i64 0, i64 %237
  store float %235, float* %238, align 4
  %239 = fmul float %.014, %234
  %240 = getelementptr inbounds %struct.sEigenvalue, %struct.sEigenvalue* %0, i32 0, i32 2
  %241 = sext i32 %.06 to i64
  %242 = getelementptr inbounds [3 x float], [3 x float]* %240, i64 0, i64 %241
  store float %239, float* %242, align 4
  br label %243

243:                                              ; preds = %224
  %244 = getelementptr inbounds %struct.sEigenvalue, %struct.sEigenvalue* %0, i32 0, i32 3
  %245 = sext i32 %.06 to i64
  %246 = getelementptr inbounds [3 x float], [3 x float]* %244, i64 0, i64 %245
  %247 = load float, float* %246, align 4
  %248 = call float @_ZSt4fabsf(float %247)
  %249 = load float, float* %2, align 4
  %250 = fmul float %25, %249
  %251 = fcmp ogt float %248, %250
  br i1 %251, label %59, label %252

252:                                              ; preds = %243
  br label %253

253:                                              ; preds = %252, %56
  %.2 = phi float [ %124, %252 ], [ %.03, %56 ]
  %254 = getelementptr inbounds %struct.sEigenvalue, %struct.sEigenvalue* %0, i32 0, i32 2
  %255 = sext i32 %.06 to i64
  %256 = getelementptr inbounds [3 x float], [3 x float]* %254, i64 0, i64 %255
  %257 = load float, float* %256, align 4
  %258 = fadd float %257, %.2
  %259 = getelementptr inbounds %struct.sEigenvalue, %struct.sEigenvalue* %0, i32 0, i32 2
  %260 = sext i32 %.06 to i64
  %261 = getelementptr inbounds [3 x float], [3 x float]* %259, i64 0, i64 %260
  store float %258, float* %261, align 4
  %262 = getelementptr inbounds %struct.sEigenvalue, %struct.sEigenvalue* %0, i32 0, i32 3
  %263 = sext i32 %.06 to i64
  %264 = getelementptr inbounds [3 x float], [3 x float]* %262, i64 0, i64 %263
  store float 0.000000e+00, float* %264, align 4
  br label %265

265:                                              ; preds = %253
  %266 = add nsw i32 %.06, 1
  br label %26

267:                                              ; preds = %26
  br label %268

268:                                              ; preds = %335, %267
  %.017 = phi i32 [ 0, %267 ], [ %336, %335 ]
  %269 = sub nsw i32 %5, 1
  %270 = icmp slt i32 %.017, %269
  br i1 %270, label %271, label %337

271:                                              ; preds = %268
  %272 = getelementptr inbounds %struct.sEigenvalue, %struct.sEigenvalue* %0, i32 0, i32 2
  %273 = sext i32 %.017 to i64
  %274 = getelementptr inbounds [3 x float], [3 x float]* %272, i64 0, i64 %273
  %275 = load float, float* %274, align 4
  %276 = add nsw i32 %.017, 1
  br label %277

277:                                              ; preds = %291, %271
  %.011 = phi i32 [ %.017, %271 ], [ %.112, %291 ]
  %.04 = phi float [ %275, %271 ], [ %.15, %291 ]
  %.01 = phi i32 [ %276, %271 ], [ %292, %291 ]
  %278 = icmp slt i32 %.01, %5
  br i1 %278, label %279, label %293

279:                                              ; preds = %277
  %280 = getelementptr inbounds %struct.sEigenvalue, %struct.sEigenvalue* %0, i32 0, i32 2
  %281 = sext i32 %.01 to i64
  %282 = getelementptr inbounds [3 x float], [3 x float]* %280, i64 0, i64 %281
  %283 = load float, float* %282, align 4
  %284 = fcmp olt float %283, %.04
  br i1 %284, label %285, label %290

285:                                              ; preds = %279
  %286 = getelementptr inbounds %struct.sEigenvalue, %struct.sEigenvalue* %0, i32 0, i32 2
  %287 = sext i32 %.01 to i64
  %288 = getelementptr inbounds [3 x float], [3 x float]* %286, i64 0, i64 %287
  %289 = load float, float* %288, align 4
  br label %290

290:                                              ; preds = %285, %279
  %.112 = phi i32 [ %.01, %285 ], [ %.011, %279 ]
  %.15 = phi float [ %289, %285 ], [ %.04, %279 ]
  br label %291

291:                                              ; preds = %290
  %292 = add nsw i32 %.01, 1
  br label %277

293:                                              ; preds = %277
  %294 = icmp ne i32 %.011, %.017
  br i1 %294, label %295, label %334

295:                                              ; preds = %293
  %296 = getelementptr inbounds %struct.sEigenvalue, %struct.sEigenvalue* %0, i32 0, i32 2
  %297 = sext i32 %.017 to i64
  %298 = getelementptr inbounds [3 x float], [3 x float]* %296, i64 0, i64 %297
  %299 = load float, float* %298, align 4
  %300 = getelementptr inbounds %struct.sEigenvalue, %struct.sEigenvalue* %0, i32 0, i32 2
  %301 = sext i32 %.011 to i64
  %302 = getelementptr inbounds [3 x float], [3 x float]* %300, i64 0, i64 %301
  store float %299, float* %302, align 4
  %303 = getelementptr inbounds %struct.sEigenvalue, %struct.sEigenvalue* %0, i32 0, i32 2
  %304 = sext i32 %.017 to i64
  %305 = getelementptr inbounds [3 x float], [3 x float]* %303, i64 0, i64 %304
  store float %.04, float* %305, align 4
  br label %306

306:                                              ; preds = %331, %295
  %.0 = phi i32 [ 0, %295 ], [ %332, %331 ]
  %307 = icmp slt i32 %.0, %5
  br i1 %307, label %308, label %333

308:                                              ; preds = %306
  %309 = getelementptr inbounds %struct.sEigenvalue, %struct.sEigenvalue* %0, i32 0, i32 4
  %310 = sext i32 %.0 to i64
  %311 = getelementptr inbounds [3 x [3 x float]], [3 x [3 x float]]* %309, i64 0, i64 %310
  %312 = sext i32 %.017 to i64
  %313 = getelementptr inbounds [3 x float], [3 x float]* %311, i64 0, i64 %312
  %314 = load float, float* %313, align 4
  %315 = getelementptr inbounds %struct.sEigenvalue, %struct.sEigenvalue* %0, i32 0, i32 4
  %316 = sext i32 %.0 to i64
  %317 = getelementptr inbounds [3 x [3 x float]], [3 x [3 x float]]* %315, i64 0, i64 %316
  %318 = sext i32 %.011 to i64
  %319 = getelementptr inbounds [3 x float], [3 x float]* %317, i64 0, i64 %318
  %320 = load float, float* %319, align 4
  %321 = getelementptr inbounds %struct.sEigenvalue, %struct.sEigenvalue* %0, i32 0, i32 4
  %322 = sext i32 %.0 to i64
  %323 = getelementptr inbounds [3 x [3 x float]], [3 x [3 x float]]* %321, i64 0, i64 %322
  %324 = sext i32 %.017 to i64
  %325 = getelementptr inbounds [3 x float], [3 x float]* %323, i64 0, i64 %324
  store float %320, float* %325, align 4
  %326 = getelementptr inbounds %struct.sEigenvalue, %struct.sEigenvalue* %0, i32 0, i32 4
  %327 = sext i32 %.0 to i64
  %328 = getelementptr inbounds [3 x [3 x float]], [3 x [3 x float]]* %326, i64 0, i64 %327
  %329 = sext i32 %.011 to i64
  %330 = getelementptr inbounds [3 x float], [3 x float]* %328, i64 0, i64 %329
  store float %314, float* %330, align 4
  br label %331

331:                                              ; preds = %308
  %332 = add nsw i32 %.0, 1
  br label %306

333:                                              ; preds = %306
  br label %334

334:                                              ; preds = %333, %293
  br label %335

335:                                              ; preds = %334
  %336 = add nsw i32 %.017, 1
  br label %268

337:                                              ; preds = %268
  ret void
}

; Function Attrs: nounwind
declare double @pow(double, double) #2

; Function Attrs: noinline nounwind uwtable
define linkonce_odr dereferenceable(4) float* @_ZSt3maxIfERKT_S2_S2_(float* dereferenceable(4) %0, float* dereferenceable(4) %1) #1 comdat {
  %3 = load float, float* %0, align 4
  %4 = load float, float* %1, align 4
  %5 = fcmp olt float %3, %4
  br i1 %5, label %6, label %7

6:                                                ; preds = %2
  br label %8

7:                                                ; preds = %2
  br label %8

8:                                                ; preds = %7, %6
  %.0 = phi float* [ %1, %6 ], [ %0, %7 ]
  ret float* %.0
}

; Function Attrs: noinline nounwind uwtable
define linkonce_odr double @_ZSt5hypotIfdEN9__gnu_cxx11__promote_2IT_T0_NS0_9__promoteIS2_Xsr3std12__is_integerIS2_EE7__valueEE6__typeENS4_IS3_Xsr3std12__is_integerIS3_EE7__valueEE6__typeEE6__typeES2_S3_(float %0, double %1) #1 comdat {
  %3 = fpext float %0 to double
  %4 = call double @hypot(double %3, double %1) #4
  ret double %4
}

; Function Attrs: noinline nounwind uwtable
define linkonce_odr float @_ZSt5hypotff(float %0, float %1) #1 comdat {
  %3 = call float @hypotf(float %0, float %1) #4
  ret float %3
}

; Function Attrs: noinline uwtable
define void @_Z11EigenorthesR11sEigenvalue(%struct.sEigenvalue* dereferenceable(124) %0) #0 {
  %2 = getelementptr inbounds %struct.sEigenvalue, %struct.sEigenvalue* %0, i32 0, i32 0
  %3 = load i32, i32* %2, align 4
  %4 = sub nsw i32 %3, 1
  %5 = add nsw i32 0, 1
  br label %6

6:                                                ; preds = %179, %1
  %.04 = phi i32 [ %5, %1 ], [ %180, %179 ]
  %7 = sub nsw i32 %4, 1
  %8 = icmp sle i32 %.04, %7
  br i1 %8, label %9, label %181

9:                                                ; preds = %6
  br label %10

10:                                               ; preds = %22, %9
  %.06 = phi i32 [ %.04, %9 ], [ %23, %22 ]
  %.05 = phi float [ 0.000000e+00, %9 ], [ %21, %22 ]
  %11 = icmp sle i32 %.06, %4
  br i1 %11, label %12, label %24

12:                                               ; preds = %10
  %13 = getelementptr inbounds %struct.sEigenvalue, %struct.sEigenvalue* %0, i32 0, i32 5
  %14 = sext i32 %.06 to i64
  %15 = getelementptr inbounds [3 x [3 x float]], [3 x [3 x float]]* %13, i64 0, i64 %14
  %16 = sub nsw i32 %.04, 1
  %17 = sext i32 %16 to i64
  %18 = getelementptr inbounds [3 x float], [3 x float]* %15, i64 0, i64 %17
  %19 = load float, float* %18, align 4
  %20 = call float @_ZSt4fabsf(float %19)
  %21 = fadd float %.05, %20
  br label %22

22:                                               ; preds = %12
  %23 = add nsw i32 %.06, 1
  br label %10

24:                                               ; preds = %10
  %25 = fcmp une float %.05, 0.000000e+00
  br i1 %25, label %26, label %178

26:                                               ; preds = %24
  br label %27

27:                                               ; preds = %51, %26
  %.08 = phi i32 [ %4, %26 ], [ %52, %51 ]
  %.07 = phi float [ 0.000000e+00, %26 ], [ %50, %51 ]
  %28 = icmp sge i32 %.08, %.04
  br i1 %28, label %29, label %53

29:                                               ; preds = %27
  %30 = getelementptr inbounds %struct.sEigenvalue, %struct.sEigenvalue* %0, i32 0, i32 5
  %31 = sext i32 %.08 to i64
  %32 = getelementptr inbounds [3 x [3 x float]], [3 x [3 x float]]* %30, i64 0, i64 %31
  %33 = sub nsw i32 %.04, 1
  %34 = sext i32 %33 to i64
  %35 = getelementptr inbounds [3 x float], [3 x float]* %32, i64 0, i64 %34
  %36 = load float, float* %35, align 4
  %37 = fdiv float %36, %.05
  %38 = getelementptr inbounds %struct.sEigenvalue, %struct.sEigenvalue* %0, i32 0, i32 6
  %39 = sext i32 %.08 to i64
  %40 = getelementptr inbounds [3 x float], [3 x float]* %38, i64 0, i64 %39
  store float %37, float* %40, align 4
  %41 = getelementptr inbounds %struct.sEigenvalue, %struct.sEigenvalue* %0, i32 0, i32 6
  %42 = sext i32 %.08 to i64
  %43 = getelementptr inbounds [3 x float], [3 x float]* %41, i64 0, i64 %42
  %44 = load float, float* %43, align 4
  %45 = getelementptr inbounds %struct.sEigenvalue, %struct.sEigenvalue* %0, i32 0, i32 6
  %46 = sext i32 %.08 to i64
  %47 = getelementptr inbounds [3 x float], [3 x float]* %45, i64 0, i64 %46
  %48 = load float, float* %47, align 4
  %49 = fmul float %44, %48
  %50 = fadd float %.07, %49
  br label %51

51:                                               ; preds = %29
  %52 = add nsw i32 %.08, -1
  br label %27

53:                                               ; preds = %27
  %54 = call float @_ZSt4sqrtf(float %.07)
  %55 = getelementptr inbounds %struct.sEigenvalue, %struct.sEigenvalue* %0, i32 0, i32 6
  %56 = sext i32 %.04 to i64
  %57 = getelementptr inbounds [3 x float], [3 x float]* %55, i64 0, i64 %56
  %58 = load float, float* %57, align 4
  %59 = fcmp ogt float %58, 0.000000e+00
  br i1 %59, label %60, label %62

60:                                               ; preds = %53
  %61 = fsub float -0.000000e+00, %54
  br label %62

62:                                               ; preds = %60, %53
  %.09 = phi float [ %61, %60 ], [ %54, %53 ]
  %63 = getelementptr inbounds %struct.sEigenvalue, %struct.sEigenvalue* %0, i32 0, i32 6
  %64 = sext i32 %.04 to i64
  %65 = getelementptr inbounds [3 x float], [3 x float]* %63, i64 0, i64 %64
  %66 = load float, float* %65, align 4
  %67 = fmul float %66, %.09
  %68 = fsub float %.07, %67
  %69 = getelementptr inbounds %struct.sEigenvalue, %struct.sEigenvalue* %0, i32 0, i32 6
  %70 = sext i32 %.04 to i64
  %71 = getelementptr inbounds [3 x float], [3 x float]* %69, i64 0, i64 %70
  %72 = load float, float* %71, align 4
  %73 = fsub float %72, %.09
  %74 = getelementptr inbounds %struct.sEigenvalue, %struct.sEigenvalue* %0, i32 0, i32 6
  %75 = sext i32 %.04 to i64
  %76 = getelementptr inbounds [3 x float], [3 x float]* %74, i64 0, i64 %75
  store float %73, float* %76, align 4
  br label %77

77:                                               ; preds = %117, %62
  %.010 = phi i32 [ %.04, %62 ], [ %118, %117 ]
  %78 = icmp slt i32 %.010, %3
  br i1 %78, label %79, label %119

79:                                               ; preds = %77
  br label %80

80:                                               ; preds = %95, %79
  %.012 = phi i32 [ %4, %79 ], [ %96, %95 ]
  %.011 = phi float [ 0.000000e+00, %79 ], [ %94, %95 ]
  %81 = icmp sge i32 %.012, %.04
  br i1 %81, label %82, label %97

82:                                               ; preds = %80
  %83 = getelementptr inbounds %struct.sEigenvalue, %struct.sEigenvalue* %0, i32 0, i32 6
  %84 = sext i32 %.012 to i64
  %85 = getelementptr inbounds [3 x float], [3 x float]* %83, i64 0, i64 %84
  %86 = load float, float* %85, align 4
  %87 = getelementptr inbounds %struct.sEigenvalue, %struct.sEigenvalue* %0, i32 0, i32 5
  %88 = sext i32 %.012 to i64
  %89 = getelementptr inbounds [3 x [3 x float]], [3 x [3 x float]]* %87, i64 0, i64 %88
  %90 = sext i32 %.010 to i64
  %91 = getelementptr inbounds [3 x float], [3 x float]* %89, i64 0, i64 %90
  %92 = load float, float* %91, align 4
  %93 = fmul float %86, %92
  %94 = fadd float %.011, %93
  br label %95

95:                                               ; preds = %82
  %96 = add nsw i32 %.012, -1
  br label %80

97:                                               ; preds = %80
  %98 = fdiv float %.011, %68
  br label %99

99:                                               ; preds = %114, %97
  %.013 = phi i32 [ %.04, %97 ], [ %115, %114 ]
  %100 = icmp sle i32 %.013, %4
  br i1 %100, label %101, label %116

101:                                              ; preds = %99
  %102 = getelementptr inbounds %struct.sEigenvalue, %struct.sEigenvalue* %0, i32 0, i32 6
  %103 = sext i32 %.013 to i64
  %104 = getelementptr inbounds [3 x float], [3 x float]* %102, i64 0, i64 %103
  %105 = load float, float* %104, align 4
  %106 = fmul float %98, %105
  %107 = getelementptr inbounds %struct.sEigenvalue, %struct.sEigenvalue* %0, i32 0, i32 5
  %108 = sext i32 %.013 to i64
  %109 = getelementptr inbounds [3 x [3 x float]], [3 x [3 x float]]* %107, i64 0, i64 %108
  %110 = sext i32 %.010 to i64
  %111 = getelementptr inbounds [3 x float], [3 x float]* %109, i64 0, i64 %110
  %112 = load float, float* %111, align 4
  %113 = fsub float %112, %106
  store float %113, float* %111, align 4
  br label %114

114:                                              ; preds = %101
  %115 = add nsw i32 %.013, 1
  br label %99

116:                                              ; preds = %99
  br label %117

117:                                              ; preds = %116
  %118 = add nsw i32 %.010, 1
  br label %77

119:                                              ; preds = %77
  br label %120

120:                                              ; preds = %160, %119
  %.014 = phi i32 [ 0, %119 ], [ %161, %160 ]
  %121 = icmp sle i32 %.014, %4
  br i1 %121, label %122, label %162

122:                                              ; preds = %120
  br label %123

123:                                              ; preds = %138, %122
  %.016 = phi i32 [ %4, %122 ], [ %139, %138 ]
  %.015 = phi float [ 0.000000e+00, %122 ], [ %137, %138 ]
  %124 = icmp sge i32 %.016, %.04
  br i1 %124, label %125, label %140

125:                                              ; preds = %123
  %126 = getelementptr inbounds %struct.sEigenvalue, %struct.sEigenvalue* %0, i32 0, i32 6
  %127 = sext i32 %.016 to i64
  %128 = getelementptr inbounds [3 x float], [3 x float]* %126, i64 0, i64 %127
  %129 = load float, float* %128, align 4
  %130 = getelementptr inbounds %struct.sEigenvalue, %struct.sEigenvalue* %0, i32 0, i32 5
  %131 = sext i32 %.014 to i64
  %132 = getelementptr inbounds [3 x [3 x float]], [3 x [3 x float]]* %130, i64 0, i64 %131
  %133 = sext i32 %.016 to i64
  %134 = getelementptr inbounds [3 x float], [3 x float]* %132, i64 0, i64 %133
  %135 = load float, float* %134, align 4
  %136 = fmul float %129, %135
  %137 = fadd float %.015, %136
  br label %138

138:                                              ; preds = %125
  %139 = add nsw i32 %.016, -1
  br label %123

140:                                              ; preds = %123
  %141 = fdiv float %.015, %68
  br label %142

142:                                              ; preds = %157, %140
  %.017 = phi i32 [ %.04, %140 ], [ %158, %157 ]
  %143 = icmp sle i32 %.017, %4
  br i1 %143, label %144, label %159

144:                                              ; preds = %142
  %145 = getelementptr inbounds %struct.sEigenvalue, %struct.sEigenvalue* %0, i32 0, i32 6
  %146 = sext i32 %.017 to i64
  %147 = getelementptr inbounds [3 x float], [3 x float]* %145, i64 0, i64 %146
  %148 = load float, float* %147, align 4
  %149 = fmul float %141, %148
  %150 = getelementptr inbounds %struct.sEigenvalue, %struct.sEigenvalue* %0, i32 0, i32 5
  %151 = sext i32 %.014 to i64
  %152 = getelementptr inbounds [3 x [3 x float]], [3 x [3 x float]]* %150, i64 0, i64 %151
  %153 = sext i32 %.017 to i64
  %154 = getelementptr inbounds [3 x float], [3 x float]* %152, i64 0, i64 %153
  %155 = load float, float* %154, align 4
  %156 = fsub float %155, %149
  store float %156, float* %154, align 4
  br label %157

157:                                              ; preds = %144
  %158 = add nsw i32 %.017, 1
  br label %142

159:                                              ; preds = %142
  br label %160

160:                                              ; preds = %159
  %161 = add nsw i32 %.014, 1
  br label %120

162:                                              ; preds = %120
  %163 = getelementptr inbounds %struct.sEigenvalue, %struct.sEigenvalue* %0, i32 0, i32 6
  %164 = sext i32 %.04 to i64
  %165 = getelementptr inbounds [3 x float], [3 x float]* %163, i64 0, i64 %164
  %166 = load float, float* %165, align 4
  %167 = fmul float %.05, %166
  %168 = getelementptr inbounds %struct.sEigenvalue, %struct.sEigenvalue* %0, i32 0, i32 6
  %169 = sext i32 %.04 to i64
  %170 = getelementptr inbounds [3 x float], [3 x float]* %168, i64 0, i64 %169
  store float %167, float* %170, align 4
  %171 = fmul float %.05, %.09
  %172 = getelementptr inbounds %struct.sEigenvalue, %struct.sEigenvalue* %0, i32 0, i32 5
  %173 = sext i32 %.04 to i64
  %174 = getelementptr inbounds [3 x [3 x float]], [3 x [3 x float]]* %172, i64 0, i64 %173
  %175 = sub nsw i32 %.04, 1
  %176 = sext i32 %175 to i64
  %177 = getelementptr inbounds [3 x float], [3 x float]* %174, i64 0, i64 %176
  store float %171, float* %177, align 4
  br label %178

178:                                              ; preds = %162, %24
  br label %179

179:                                              ; preds = %178
  %180 = add nsw i32 %.04, 1
  br label %6

181:                                              ; preds = %6
  br label %182

182:                                              ; preds = %200, %181
  %.018 = phi i32 [ 0, %181 ], [ %201, %200 ]
  %183 = icmp slt i32 %.018, %3
  br i1 %183, label %184, label %202

184:                                              ; preds = %182
  br label %185

185:                                              ; preds = %197, %184
  %.019 = phi i32 [ 0, %184 ], [ %198, %197 ]
  %186 = icmp slt i32 %.019, %3
  br i1 %186, label %187, label %199

187:                                              ; preds = %185
  %188 = icmp eq i32 %.018, %.019
  %189 = zext i1 %188 to i64
  %190 = select i1 %188, double 1.000000e+00, double 0.000000e+00
  %191 = fptrunc double %190 to float
  %192 = getelementptr inbounds %struct.sEigenvalue, %struct.sEigenvalue* %0, i32 0, i32 4
  %193 = sext i32 %.018 to i64
  %194 = getelementptr inbounds [3 x [3 x float]], [3 x [3 x float]]* %192, i64 0, i64 %193
  %195 = sext i32 %.019 to i64
  %196 = getelementptr inbounds [3 x float], [3 x float]* %194, i64 0, i64 %195
  store float %191, float* %196, align 4
  br label %197

197:                                              ; preds = %187
  %198 = add nsw i32 %.019, 1
  br label %185

199:                                              ; preds = %185
  br label %200

200:                                              ; preds = %199
  %201 = add nsw i32 %.018, 1
  br label %182

202:                                              ; preds = %182
  %203 = sub nsw i32 %4, 1
  br label %204

204:                                              ; preds = %290, %202
  %.020 = phi i32 [ %203, %202 ], [ %291, %290 ]
  %205 = add nsw i32 0, 1
  %206 = icmp sge i32 %.020, %205
  br i1 %206, label %207, label %292

207:                                              ; preds = %204
  %208 = getelementptr inbounds %struct.sEigenvalue, %struct.sEigenvalue* %0, i32 0, i32 5
  %209 = sext i32 %.020 to i64
  %210 = getelementptr inbounds [3 x [3 x float]], [3 x [3 x float]]* %208, i64 0, i64 %209
  %211 = sub nsw i32 %.020, 1
  %212 = sext i32 %211 to i64
  %213 = getelementptr inbounds [3 x float], [3 x float]* %210, i64 0, i64 %212
  %214 = load float, float* %213, align 4
  %215 = fcmp une float %214, 0.000000e+00
  br i1 %215, label %216, label %289

216:                                              ; preds = %207
  %217 = add nsw i32 %.020, 1
  br label %218

218:                                              ; preds = %231, %216
  %.021 = phi i32 [ %217, %216 ], [ %232, %231 ]
  %219 = icmp sle i32 %.021, %4
  br i1 %219, label %220, label %233

220:                                              ; preds = %218
  %221 = getelementptr inbounds %struct.sEigenvalue, %struct.sEigenvalue* %0, i32 0, i32 5
  %222 = sext i32 %.021 to i64
  %223 = getelementptr inbounds [3 x [3 x float]], [3 x [3 x float]]* %221, i64 0, i64 %222
  %224 = sub nsw i32 %.020, 1
  %225 = sext i32 %224 to i64
  %226 = getelementptr inbounds [3 x float], [3 x float]* %223, i64 0, i64 %225
  %227 = load float, float* %226, align 4
  %228 = getelementptr inbounds %struct.sEigenvalue, %struct.sEigenvalue* %0, i32 0, i32 6
  %229 = sext i32 %.021 to i64
  %230 = getelementptr inbounds [3 x float], [3 x float]* %228, i64 0, i64 %229
  store float %227, float* %230, align 4
  br label %231

231:                                              ; preds = %220
  %232 = add nsw i32 %.021, 1
  br label %218

233:                                              ; preds = %218
  br label %234

234:                                              ; preds = %286, %233
  %.03 = phi i32 [ %.020, %233 ], [ %287, %286 ]
  %235 = icmp sle i32 %.03, %4
  br i1 %235, label %236, label %288

236:                                              ; preds = %234
  br label %237

237:                                              ; preds = %252, %236
  %.02 = phi float [ 0.000000e+00, %236 ], [ %251, %252 ]
  %.01 = phi i32 [ %.020, %236 ], [ %253, %252 ]
  %238 = icmp sle i32 %.01, %4
  br i1 %238, label %239, label %254

239:                                              ; preds = %237
  %240 = getelementptr inbounds %struct.sEigenvalue, %struct.sEigenvalue* %0, i32 0, i32 6
  %241 = sext i32 %.01 to i64
  %242 = getelementptr inbounds [3 x float], [3 x float]* %240, i64 0, i64 %241
  %243 = load float, float* %242, align 4
  %244 = getelementptr inbounds %struct.sEigenvalue, %struct.sEigenvalue* %0, i32 0, i32 4
  %245 = sext i32 %.01 to i64
  %246 = getelementptr inbounds [3 x [3 x float]], [3 x [3 x float]]* %244, i64 0, i64 %245
  %247 = sext i32 %.03 to i64
  %248 = getelementptr inbounds [3 x float], [3 x float]* %246, i64 0, i64 %247
  %249 = load float, float* %248, align 4
  %250 = fmul float %243, %249
  %251 = fadd float %.02, %250
  br label %252

252:                                              ; preds = %239
  %253 = add nsw i32 %.01, 1
  br label %237

254:                                              ; preds = %237
  %255 = getelementptr inbounds %struct.sEigenvalue, %struct.sEigenvalue* %0, i32 0, i32 6
  %256 = sext i32 %.020 to i64
  %257 = getelementptr inbounds [3 x float], [3 x float]* %255, i64 0, i64 %256
  %258 = load float, float* %257, align 4
  %259 = fdiv float %.02, %258
  %260 = getelementptr inbounds %struct.sEigenvalue, %struct.sEigenvalue* %0, i32 0, i32 5
  %261 = sext i32 %.020 to i64
  %262 = getelementptr inbounds [3 x [3 x float]], [3 x [3 x float]]* %260, i64 0, i64 %261
  %263 = sub nsw i32 %.020, 1
  %264 = sext i32 %263 to i64
  %265 = getelementptr inbounds [3 x float], [3 x float]* %262, i64 0, i64 %264
  %266 = load float, float* %265, align 4
  %267 = fdiv float %259, %266
  br label %268

268:                                              ; preds = %283, %254
  %.0 = phi i32 [ %.020, %254 ], [ %284, %283 ]
  %269 = icmp sle i32 %.0, %4
  br i1 %269, label %270, label %285

270:                                              ; preds = %268
  %271 = getelementptr inbounds %struct.sEigenvalue, %struct.sEigenvalue* %0, i32 0, i32 6
  %272 = sext i32 %.0 to i64
  %273 = getelementptr inbounds [3 x float], [3 x float]* %271, i64 0, i64 %272
  %274 = load float, float* %273, align 4
  %275 = fmul float %267, %274
  %276 = getelementptr inbounds %struct.sEigenvalue, %struct.sEigenvalue* %0, i32 0, i32 4
  %277 = sext i32 %.0 to i64
  %278 = getelementptr inbounds [3 x [3 x float]], [3 x [3 x float]]* %276, i64 0, i64 %277
  %279 = sext i32 %.03 to i64
  %280 = getelementptr inbounds [3 x float], [3 x float]* %278, i64 0, i64 %279
  %281 = load float, float* %280, align 4
  %282 = fadd float %281, %275
  store float %282, float* %280, align 4
  br label %283

283:                                              ; preds = %270
  %284 = add nsw i32 %.0, 1
  br label %268

285:                                              ; preds = %268
  br label %286

286:                                              ; preds = %285
  %287 = add nsw i32 %.03, 1
  br label %234

288:                                              ; preds = %234
  br label %289

289:                                              ; preds = %288, %207
  br label %290

290:                                              ; preds = %289
  %291 = add nsw i32 %.020, -1
  br label %204

292:                                              ; preds = %204
  ret void
}

; Function Attrs: noinline uwtable
define void @_Z9Eigenhqr2R11sEigenvalue(%struct.sEigenvalue* dereferenceable(124) %0) #0 {
  %2 = alloca i32, align 4
  %3 = alloca i32, align 4
  %4 = alloca i32, align 4
  %5 = alloca i32, align 4
  %6 = alloca i32, align 4
  %7 = alloca float, align 4
  %8 = alloca float, align 4
  %9 = alloca i32, align 4
  %10 = getelementptr inbounds %struct.sEigenvalue, %struct.sEigenvalue* %0, i32 0, i32 0
  %11 = load i32, i32* %10, align 4
  %12 = sub nsw i32 %11, 1
  store i32 %12, i32* %2, align 4
  %13 = sub nsw i32 %11, 1
  store i32 %13, i32* %3, align 4
  %14 = call double @pow(double 2.000000e+00, double -5.200000e+01) #4
  %15 = fptrunc double %14 to float
  br label %16

16:                                               ; preds = %54, %1
  %.094 = phi i32 [ 0, %1 ], [ %55, %54 ]
  %.092 = phi float [ 0.000000e+00, %1 ], [ %.193, %54 ]
  %17 = icmp slt i32 %.094, %11
  br i1 %17, label %18, label %56

18:                                               ; preds = %16
  %19 = icmp slt i32 %.094, 0
  br i1 %19, label %23, label %20

20:                                               ; preds = %18
  %21 = load i32, i32* %3, align 4
  %22 = icmp sgt i32 %.094, %21
  br i1 %22, label %23, label %36

23:                                               ; preds = %20, %18
  %24 = getelementptr inbounds %struct.sEigenvalue, %struct.sEigenvalue* %0, i32 0, i32 5
  %25 = sext i32 %.094 to i64
  %26 = getelementptr inbounds [3 x [3 x float]], [3 x [3 x float]]* %24, i64 0, i64 %25
  %27 = sext i32 %.094 to i64
  %28 = getelementptr inbounds [3 x float], [3 x float]* %26, i64 0, i64 %27
  %29 = load float, float* %28, align 4
  %30 = getelementptr inbounds %struct.sEigenvalue, %struct.sEigenvalue* %0, i32 0, i32 2
  %31 = sext i32 %.094 to i64
  %32 = getelementptr inbounds [3 x float], [3 x float]* %30, i64 0, i64 %31
  store float %29, float* %32, align 4
  %33 = getelementptr inbounds %struct.sEigenvalue, %struct.sEigenvalue* %0, i32 0, i32 3
  %34 = sext i32 %.094 to i64
  %35 = getelementptr inbounds [3 x float], [3 x float]* %33, i64 0, i64 %34
  store float 0.000000e+00, float* %35, align 4
  br label %36

36:                                               ; preds = %23, %20
  %37 = sub nsw i32 %.094, 1
  store i32 %37, i32* %4, align 4
  store i32 0, i32* %5, align 4
  %38 = call dereferenceable(4) i32* @_ZSt3maxIiERKT_S2_S2_(i32* dereferenceable(4) %4, i32* dereferenceable(4) %5)
  %39 = load i32, i32* %38, align 4
  br label %40

40:                                               ; preds = %51, %36
  %.095 = phi i32 [ %39, %36 ], [ %52, %51 ]
  %.193 = phi float [ %.092, %36 ], [ %50, %51 ]
  %41 = icmp slt i32 %.095, %11
  br i1 %41, label %42, label %53

42:                                               ; preds = %40
  %43 = getelementptr inbounds %struct.sEigenvalue, %struct.sEigenvalue* %0, i32 0, i32 5
  %44 = sext i32 %.094 to i64
  %45 = getelementptr inbounds [3 x [3 x float]], [3 x [3 x float]]* %43, i64 0, i64 %44
  %46 = sext i32 %.095 to i64
  %47 = getelementptr inbounds [3 x float], [3 x float]* %45, i64 0, i64 %46
  %48 = load float, float* %47, align 4
  %49 = call float @_ZSt4fabsf(float %48)
  %50 = fadd float %.193, %49
  br label %51

51:                                               ; preds = %42
  %52 = add nsw i32 %.095, 1
  br label %40

53:                                               ; preds = %40
  br label %54

54:                                               ; preds = %53
  %55 = add nsw i32 %.094, 1
  br label %16

56:                                               ; preds = %16
  br label %57

57:                                               ; preds = %1061, %56
  %.099 = phi i32 [ 0, %56 ], [ %61, %1061 ]
  %.096 = phi i32 [ 0, %56 ], [ %.298, %1061 ]
  %.058 = phi float [ 0.000000e+00, %56 ], [ %.1169, %1061 ]
  %.040 = phi float [ 0.000000e+00, %56 ], [ %.1454, %1061 ]
  %.023 = phi float [ 0.000000e+00, %56 ], [ %.1033, %1061 ]
  %.012 = phi float [ 0.000000e+00, %56 ], [ %.1022, %1061 ]
  %.05 = phi float [ 0.000000e+00, %56 ], [ %.1611, %1061 ]
  %.04 = phi float [ 0.000000e+00, %56 ], [ %.5, %1061 ]
  %58 = load i32, i32* %2, align 4
  %59 = icmp sge i32 %58, 0
  br i1 %59, label %60, label %1062

60:                                               ; preds = %57
  %61 = add nsw i32 %.099, 1
  %62 = icmp sgt i32 %61, 100
  br i1 %62, label %63, label %76

63:                                               ; preds = %60
  br label %64

64:                                               ; preds = %73, %63
  %.0100 = phi i32 [ 0, %63 ], [ %74, %73 ]
  %65 = icmp slt i32 %.0100, %11
  br i1 %65, label %66, label %75

66:                                               ; preds = %64
  %67 = getelementptr inbounds %struct.sEigenvalue, %struct.sEigenvalue* %0, i32 0, i32 2
  %68 = sext i32 %.0100 to i64
  %69 = getelementptr inbounds [3 x float], [3 x float]* %67, i64 0, i64 %68
  store float 1.000000e+04, float* %69, align 4
  %70 = getelementptr inbounds %struct.sEigenvalue, %struct.sEigenvalue* %0, i32 0, i32 3
  %71 = sext i32 %.0100 to i64
  %72 = getelementptr inbounds [3 x float], [3 x float]* %70, i64 0, i64 %71
  store float 1.000000e+04, float* %72, align 4
  br label %73

73:                                               ; preds = %66
  %74 = add nsw i32 %.0100, 1
  br label %64

75:                                               ; preds = %64
  br label %1825

76:                                               ; preds = %60
  %77 = load i32, i32* %2, align 4
  br label %78

78:                                               ; preds = %112, %76
  %.0101 = phi i32 [ %77, %76 ], [ %113, %112 ]
  %.141 = phi float [ %.040, %76 ], [ %.242, %112 ]
  %79 = icmp sgt i32 %.0101, 0
  br i1 %79, label %80, label %114

80:                                               ; preds = %78
  %81 = getelementptr inbounds %struct.sEigenvalue, %struct.sEigenvalue* %0, i32 0, i32 5
  %82 = sub nsw i32 %.0101, 1
  %83 = sext i32 %82 to i64
  %84 = getelementptr inbounds [3 x [3 x float]], [3 x [3 x float]]* %81, i64 0, i64 %83
  %85 = sub nsw i32 %.0101, 1
  %86 = sext i32 %85 to i64
  %87 = getelementptr inbounds [3 x float], [3 x float]* %84, i64 0, i64 %86
  %88 = load float, float* %87, align 4
  %89 = call float @_ZSt4fabsf(float %88)
  %90 = getelementptr inbounds %struct.sEigenvalue, %struct.sEigenvalue* %0, i32 0, i32 5
  %91 = sext i32 %.0101 to i64
  %92 = getelementptr inbounds [3 x [3 x float]], [3 x [3 x float]]* %90, i64 0, i64 %91
  %93 = sext i32 %.0101 to i64
  %94 = getelementptr inbounds [3 x float], [3 x float]* %92, i64 0, i64 %93
  %95 = load float, float* %94, align 4
  %96 = call float @_ZSt4fabsf(float %95)
  %97 = fadd float %89, %96
  %98 = fcmp oeq float %97, 0.000000e+00
  br i1 %98, label %99, label %100

99:                                               ; preds = %80
  br label %100

100:                                              ; preds = %99, %80
  %.242 = phi float [ %.092, %99 ], [ %97, %80 ]
  %101 = getelementptr inbounds %struct.sEigenvalue, %struct.sEigenvalue* %0, i32 0, i32 5
  %102 = sext i32 %.0101 to i64
  %103 = getelementptr inbounds [3 x [3 x float]], [3 x [3 x float]]* %101, i64 0, i64 %102
  %104 = sub nsw i32 %.0101, 1
  %105 = sext i32 %104 to i64
  %106 = getelementptr inbounds [3 x float], [3 x float]* %103, i64 0, i64 %105
  %107 = load float, float* %106, align 4
  %108 = call float @_ZSt4fabsf(float %107)
  %109 = fmul float %15, %.242
  %110 = fcmp olt float %108, %109
  br i1 %110, label %111, label %112

111:                                              ; preds = %100
  br label %114

112:                                              ; preds = %100
  %113 = add nsw i32 %.0101, -1
  br label %78

114:                                              ; preds = %111, %78
  %.343 = phi float [ %.242, %111 ], [ %.141, %78 ]
  %115 = load i32, i32* %2, align 4
  %116 = icmp eq i32 %.0101, %115
  br i1 %116, label %117, label %152

117:                                              ; preds = %114
  %118 = getelementptr inbounds %struct.sEigenvalue, %struct.sEigenvalue* %0, i32 0, i32 5
  %119 = load i32, i32* %2, align 4
  %120 = sext i32 %119 to i64
  %121 = getelementptr inbounds [3 x [3 x float]], [3 x [3 x float]]* %118, i64 0, i64 %120
  %122 = load i32, i32* %2, align 4
  %123 = sext i32 %122 to i64
  %124 = getelementptr inbounds [3 x float], [3 x float]* %121, i64 0, i64 %123
  %125 = load float, float* %124, align 4
  %126 = fadd float %125, %.04
  %127 = getelementptr inbounds %struct.sEigenvalue, %struct.sEigenvalue* %0, i32 0, i32 5
  %128 = load i32, i32* %2, align 4
  %129 = sext i32 %128 to i64
  %130 = getelementptr inbounds [3 x [3 x float]], [3 x [3 x float]]* %127, i64 0, i64 %129
  %131 = load i32, i32* %2, align 4
  %132 = sext i32 %131 to i64
  %133 = getelementptr inbounds [3 x float], [3 x float]* %130, i64 0, i64 %132
  store float %126, float* %133, align 4
  %134 = getelementptr inbounds %struct.sEigenvalue, %struct.sEigenvalue* %0, i32 0, i32 5
  %135 = load i32, i32* %2, align 4
  %136 = sext i32 %135 to i64
  %137 = getelementptr inbounds [3 x [3 x float]], [3 x [3 x float]]* %134, i64 0, i64 %136
  %138 = load i32, i32* %2, align 4
  %139 = sext i32 %138 to i64
  %140 = getelementptr inbounds [3 x float], [3 x float]* %137, i64 0, i64 %139
  %141 = load float, float* %140, align 4
  %142 = getelementptr inbounds %struct.sEigenvalue, %struct.sEigenvalue* %0, i32 0, i32 2
  %143 = load i32, i32* %2, align 4
  %144 = sext i32 %143 to i64
  %145 = getelementptr inbounds [3 x float], [3 x float]* %142, i64 0, i64 %144
  store float %141, float* %145, align 4
  %146 = getelementptr inbounds %struct.sEigenvalue, %struct.sEigenvalue* %0, i32 0, i32 3
  %147 = load i32, i32* %2, align 4
  %148 = sext i32 %147 to i64
  %149 = getelementptr inbounds [3 x float], [3 x float]* %146, i64 0, i64 %148
  store float 0.000000e+00, float* %149, align 4
  %150 = load i32, i32* %2, align 4
  %151 = add nsw i32 %150, -1
  store i32 %151, i32* %2, align 4
  br label %1061

152:                                              ; preds = %114
  %153 = load i32, i32* %2, align 4
  %154 = sub nsw i32 %153, 1
  %155 = icmp eq i32 %.0101, %154
  br i1 %155, label %156, label %476

156:                                              ; preds = %152
  %157 = getelementptr inbounds %struct.sEigenvalue, %struct.sEigenvalue* %0, i32 0, i32 5
  %158 = load i32, i32* %2, align 4
  %159 = sext i32 %158 to i64
  %160 = getelementptr inbounds [3 x [3 x float]], [3 x [3 x float]]* %157, i64 0, i64 %159
  %161 = load i32, i32* %2, align 4
  %162 = sub nsw i32 %161, 1
  %163 = sext i32 %162 to i64
  %164 = getelementptr inbounds [3 x float], [3 x float]* %160, i64 0, i64 %163
  %165 = load float, float* %164, align 4
  %166 = getelementptr inbounds %struct.sEigenvalue, %struct.sEigenvalue* %0, i32 0, i32 5
  %167 = load i32, i32* %2, align 4
  %168 = sub nsw i32 %167, 1
  %169 = sext i32 %168 to i64
  %170 = getelementptr inbounds [3 x [3 x float]], [3 x [3 x float]]* %166, i64 0, i64 %169
  %171 = load i32, i32* %2, align 4
  %172 = sext i32 %171 to i64
  %173 = getelementptr inbounds [3 x float], [3 x float]* %170, i64 0, i64 %172
  %174 = load float, float* %173, align 4
  %175 = fmul float %165, %174
  %176 = getelementptr inbounds %struct.sEigenvalue, %struct.sEigenvalue* %0, i32 0, i32 5
  %177 = load i32, i32* %2, align 4
  %178 = sub nsw i32 %177, 1
  %179 = sext i32 %178 to i64
  %180 = getelementptr inbounds [3 x [3 x float]], [3 x [3 x float]]* %176, i64 0, i64 %179
  %181 = load i32, i32* %2, align 4
  %182 = sub nsw i32 %181, 1
  %183 = sext i32 %182 to i64
  %184 = getelementptr inbounds [3 x float], [3 x float]* %180, i64 0, i64 %183
  %185 = load float, float* %184, align 4
  %186 = getelementptr inbounds %struct.sEigenvalue, %struct.sEigenvalue* %0, i32 0, i32 5
  %187 = load i32, i32* %2, align 4
  %188 = sext i32 %187 to i64
  %189 = getelementptr inbounds [3 x [3 x float]], [3 x [3 x float]]* %186, i64 0, i64 %188
  %190 = load i32, i32* %2, align 4
  %191 = sext i32 %190 to i64
  %192 = getelementptr inbounds [3 x float], [3 x float]* %189, i64 0, i64 %191
  %193 = load float, float* %192, align 4
  %194 = fsub float %185, %193
  %195 = fdiv float %194, 2.000000e+00
  %196 = fmul float %195, %195
  %197 = fadd float %196, %175
  %198 = call float @_ZSt4fabsf(float %197)
  %199 = call float @_ZSt4sqrtf(float %198)
  %200 = getelementptr inbounds %struct.sEigenvalue, %struct.sEigenvalue* %0, i32 0, i32 5
  %201 = load i32, i32* %2, align 4
  %202 = sext i32 %201 to i64
  %203 = getelementptr inbounds [3 x [3 x float]], [3 x [3 x float]]* %200, i64 0, i64 %202
  %204 = load i32, i32* %2, align 4
  %205 = sext i32 %204 to i64
  %206 = getelementptr inbounds [3 x float], [3 x float]* %203, i64 0, i64 %205
  %207 = load float, float* %206, align 4
  %208 = fadd float %207, %.04
  %209 = getelementptr inbounds %struct.sEigenvalue, %struct.sEigenvalue* %0, i32 0, i32 5
  %210 = load i32, i32* %2, align 4
  %211 = sext i32 %210 to i64
  %212 = getelementptr inbounds [3 x [3 x float]], [3 x [3 x float]]* %209, i64 0, i64 %211
  %213 = load i32, i32* %2, align 4
  %214 = sext i32 %213 to i64
  %215 = getelementptr inbounds [3 x float], [3 x float]* %212, i64 0, i64 %214
  store float %208, float* %215, align 4
  %216 = getelementptr inbounds %struct.sEigenvalue, %struct.sEigenvalue* %0, i32 0, i32 5
  %217 = load i32, i32* %2, align 4
  %218 = sub nsw i32 %217, 1
  %219 = sext i32 %218 to i64
  %220 = getelementptr inbounds [3 x [3 x float]], [3 x [3 x float]]* %216, i64 0, i64 %219
  %221 = load i32, i32* %2, align 4
  %222 = sub nsw i32 %221, 1
  %223 = sext i32 %222 to i64
  %224 = getelementptr inbounds [3 x float], [3 x float]* %220, i64 0, i64 %223
  %225 = load float, float* %224, align 4
  %226 = fadd float %225, %.04
  %227 = getelementptr inbounds %struct.sEigenvalue, %struct.sEigenvalue* %0, i32 0, i32 5
  %228 = load i32, i32* %2, align 4
  %229 = sub nsw i32 %228, 1
  %230 = sext i32 %229 to i64
  %231 = getelementptr inbounds [3 x [3 x float]], [3 x [3 x float]]* %227, i64 0, i64 %230
  %232 = load i32, i32* %2, align 4
  %233 = sub nsw i32 %232, 1
  %234 = sext i32 %233 to i64
  %235 = getelementptr inbounds [3 x float], [3 x float]* %231, i64 0, i64 %234
  store float %226, float* %235, align 4
  %236 = getelementptr inbounds %struct.sEigenvalue, %struct.sEigenvalue* %0, i32 0, i32 5
  %237 = load i32, i32* %2, align 4
  %238 = sext i32 %237 to i64
  %239 = getelementptr inbounds [3 x [3 x float]], [3 x [3 x float]]* %236, i64 0, i64 %238
  %240 = load i32, i32* %2, align 4
  %241 = sext i32 %240 to i64
  %242 = getelementptr inbounds [3 x float], [3 x float]* %239, i64 0, i64 %241
  %243 = load float, float* %242, align 4
  %244 = fcmp oge float %197, 0.000000e+00
  br i1 %244, label %245, label %451

245:                                              ; preds = %156
  %246 = fcmp oge float %195, 0.000000e+00
  br i1 %246, label %247, label %249

247:                                              ; preds = %245
  %248 = fadd float %195, %199
  br label %251

249:                                              ; preds = %245
  %250 = fsub float %195, %199
  br label %251

251:                                              ; preds = %249, %247
  %.159 = phi float [ %248, %247 ], [ %250, %249 ]
  %252 = fadd float %243, %.159
  %253 = getelementptr inbounds %struct.sEigenvalue, %struct.sEigenvalue* %0, i32 0, i32 2
  %254 = load i32, i32* %2, align 4
  %255 = sub nsw i32 %254, 1
  %256 = sext i32 %255 to i64
  %257 = getelementptr inbounds [3 x float], [3 x float]* %253, i64 0, i64 %256
  store float %252, float* %257, align 4
  %258 = getelementptr inbounds %struct.sEigenvalue, %struct.sEigenvalue* %0, i32 0, i32 2
  %259 = load i32, i32* %2, align 4
  %260 = sub nsw i32 %259, 1
  %261 = sext i32 %260 to i64
  %262 = getelementptr inbounds [3 x float], [3 x float]* %258, i64 0, i64 %261
  %263 = load float, float* %262, align 4
  %264 = getelementptr inbounds %struct.sEigenvalue, %struct.sEigenvalue* %0, i32 0, i32 2
  %265 = load i32, i32* %2, align 4
  %266 = sext i32 %265 to i64
  %267 = getelementptr inbounds [3 x float], [3 x float]* %264, i64 0, i64 %266
  store float %263, float* %267, align 4
  %268 = fcmp une float %.159, 0.000000e+00
  br i1 %268, label %269, label %276

269:                                              ; preds = %251
  %270 = fdiv float %175, %.159
  %271 = fsub float %243, %270
  %272 = getelementptr inbounds %struct.sEigenvalue, %struct.sEigenvalue* %0, i32 0, i32 2
  %273 = load i32, i32* %2, align 4
  %274 = sext i32 %273 to i64
  %275 = getelementptr inbounds [3 x float], [3 x float]* %272, i64 0, i64 %274
  store float %271, float* %275, align 4
  br label %276

276:                                              ; preds = %269, %251
  %277 = getelementptr inbounds %struct.sEigenvalue, %struct.sEigenvalue* %0, i32 0, i32 3
  %278 = load i32, i32* %2, align 4
  %279 = sub nsw i32 %278, 1
  %280 = sext i32 %279 to i64
  %281 = getelementptr inbounds [3 x float], [3 x float]* %277, i64 0, i64 %280
  store float 0.000000e+00, float* %281, align 4
  %282 = getelementptr inbounds %struct.sEigenvalue, %struct.sEigenvalue* %0, i32 0, i32 3
  %283 = load i32, i32* %2, align 4
  %284 = sext i32 %283 to i64
  %285 = getelementptr inbounds [3 x float], [3 x float]* %282, i64 0, i64 %284
  store float 0.000000e+00, float* %285, align 4
  %286 = getelementptr inbounds %struct.sEigenvalue, %struct.sEigenvalue* %0, i32 0, i32 5
  %287 = load i32, i32* %2, align 4
  %288 = sext i32 %287 to i64
  %289 = getelementptr inbounds [3 x [3 x float]], [3 x [3 x float]]* %286, i64 0, i64 %288
  %290 = load i32, i32* %2, align 4
  %291 = sub nsw i32 %290, 1
  %292 = sext i32 %291 to i64
  %293 = getelementptr inbounds [3 x float], [3 x float]* %289, i64 0, i64 %292
  %294 = load float, float* %293, align 4
  %295 = call float @_ZSt4fabsf(float %294)
  %296 = call float @_ZSt4fabsf(float %.159)
  %297 = fadd float %295, %296
  %298 = fdiv float %294, %297
  %299 = fdiv float %.159, %297
  %300 = fmul float %298, %298
  %301 = fmul float %299, %299
  %302 = fadd float %300, %301
  %303 = call float @_ZSt4sqrtf(float %302)
  %304 = fdiv float %298, %303
  %305 = fdiv float %299, %303
  %306 = load i32, i32* %2, align 4
  %307 = sub nsw i32 %306, 1
  br label %308

308:                                              ; preds = %352, %276
  %.0102 = phi i32 [ %307, %276 ], [ %353, %352 ]
  %.260 = phi float [ %.159, %276 ], [ %318, %352 ]
  %309 = icmp slt i32 %.0102, %11
  br i1 %309, label %310, label %354

310:                                              ; preds = %308
  %311 = getelementptr inbounds %struct.sEigenvalue, %struct.sEigenvalue* %0, i32 0, i32 5
  %312 = load i32, i32* %2, align 4
  %313 = sub nsw i32 %312, 1
  %314 = sext i32 %313 to i64
  %315 = getelementptr inbounds [3 x [3 x float]], [3 x [3 x float]]* %311, i64 0, i64 %314
  %316 = sext i32 %.0102 to i64
  %317 = getelementptr inbounds [3 x float], [3 x float]* %315, i64 0, i64 %316
  %318 = load float, float* %317, align 4
  %319 = fmul float %305, %318
  %320 = getelementptr inbounds %struct.sEigenvalue, %struct.sEigenvalue* %0, i32 0, i32 5
  %321 = load i32, i32* %2, align 4
  %322 = sext i32 %321 to i64
  %323 = getelementptr inbounds [3 x [3 x float]], [3 x [3 x float]]* %320, i64 0, i64 %322
  %324 = sext i32 %.0102 to i64
  %325 = getelementptr inbounds [3 x float], [3 x float]* %323, i64 0, i64 %324
  %326 = load float, float* %325, align 4
  %327 = fmul float %304, %326
  %328 = fadd float %319, %327
  %329 = getelementptr inbounds %struct.sEigenvalue, %struct.sEigenvalue* %0, i32 0, i32 5
  %330 = load i32, i32* %2, align 4
  %331 = sub nsw i32 %330, 1
  %332 = sext i32 %331 to i64
  %333 = getelementptr inbounds [3 x [3 x float]], [3 x [3 x float]]* %329, i64 0, i64 %332
  %334 = sext i32 %.0102 to i64
  %335 = getelementptr inbounds [3 x float], [3 x float]* %333, i64 0, i64 %334
  store float %328, float* %335, align 4
  %336 = getelementptr inbounds %struct.sEigenvalue, %struct.sEigenvalue* %0, i32 0, i32 5
  %337 = load i32, i32* %2, align 4
  %338 = sext i32 %337 to i64
  %339 = getelementptr inbounds [3 x [3 x float]], [3 x [3 x float]]* %336, i64 0, i64 %338
  %340 = sext i32 %.0102 to i64
  %341 = getelementptr inbounds [3 x float], [3 x float]* %339, i64 0, i64 %340
  %342 = load float, float* %341, align 4
  %343 = fmul float %305, %342
  %344 = fmul float %304, %318
  %345 = fsub float %343, %344
  %346 = getelementptr inbounds %struct.sEigenvalue, %struct.sEigenvalue* %0, i32 0, i32 5
  %347 = load i32, i32* %2, align 4
  %348 = sext i32 %347 to i64
  %349 = getelementptr inbounds [3 x [3 x float]], [3 x [3 x float]]* %346, i64 0, i64 %348
  %350 = sext i32 %.0102 to i64
  %351 = getelementptr inbounds [3 x float], [3 x float]* %349, i64 0, i64 %350
  store float %345, float* %351, align 4
  br label %352

352:                                              ; preds = %310
  %353 = add nsw i32 %.0102, 1
  br label %308

354:                                              ; preds = %308
  br label %355

355:                                              ; preds = %400, %354
  %.0103 = phi i32 [ 0, %354 ], [ %401, %400 ]
  %.361 = phi float [ %.260, %354 ], [ %366, %400 ]
  %356 = load i32, i32* %2, align 4
  %357 = icmp sle i32 %.0103, %356
  br i1 %357, label %358, label %402

358:                                              ; preds = %355
  %359 = getelementptr inbounds %struct.sEigenvalue, %struct.sEigenvalue* %0, i32 0, i32 5
  %360 = sext i32 %.0103 to i64
  %361 = getelementptr inbounds [3 x [3 x float]], [3 x [3 x float]]* %359, i64 0, i64 %360
  %362 = load i32, i32* %2, align 4
  %363 = sub nsw i32 %362, 1
  %364 = sext i32 %363 to i64
  %365 = getelementptr inbounds [3 x float], [3 x float]* %361, i64 0, i64 %364
  %366 = load float, float* %365, align 4
  %367 = fmul float %305, %366
  %368 = getelementptr inbounds %struct.sEigenvalue, %struct.sEigenvalue* %0, i32 0, i32 5
  %369 = sext i32 %.0103 to i64
  %370 = getelementptr inbounds [3 x [3 x float]], [3 x [3 x float]]* %368, i64 0, i64 %369
  %371 = load i32, i32* %2, align 4
  %372 = sext i32 %371 to i64
  %373 = getelementptr inbounds [3 x float], [3 x float]* %370, i64 0, i64 %372
  %374 = load float, float* %373, align 4
  %375 = fmul float %304, %374
  %376 = fadd float %367, %375
  %377 = getelementptr inbounds %struct.sEigenvalue, %struct.sEigenvalue* %0, i32 0, i32 5
  %378 = sext i32 %.0103 to i64
  %379 = getelementptr inbounds [3 x [3 x float]], [3 x [3 x float]]* %377, i64 0, i64 %378
  %380 = load i32, i32* %2, align 4
  %381 = sub nsw i32 %380, 1
  %382 = sext i32 %381 to i64
  %383 = getelementptr inbounds [3 x float], [3 x float]* %379, i64 0, i64 %382
  store float %376, float* %383, align 4
  %384 = getelementptr inbounds %struct.sEigenvalue, %struct.sEigenvalue* %0, i32 0, i32 5
  %385 = sext i32 %.0103 to i64
  %386 = getelementptr inbounds [3 x [3 x float]], [3 x [3 x float]]* %384, i64 0, i64 %385
  %387 = load i32, i32* %2, align 4
  %388 = sext i32 %387 to i64
  %389 = getelementptr inbounds [3 x float], [3 x float]* %386, i64 0, i64 %388
  %390 = load float, float* %389, align 4
  %391 = fmul float %305, %390
  %392 = fmul float %304, %366
  %393 = fsub float %391, %392
  %394 = getelementptr inbounds %struct.sEigenvalue, %struct.sEigenvalue* %0, i32 0, i32 5
  %395 = sext i32 %.0103 to i64
  %396 = getelementptr inbounds [3 x [3 x float]], [3 x [3 x float]]* %394, i64 0, i64 %395
  %397 = load i32, i32* %2, align 4
  %398 = sext i32 %397 to i64
  %399 = getelementptr inbounds [3 x float], [3 x float]* %396, i64 0, i64 %398
  store float %393, float* %399, align 4
  br label %400

400:                                              ; preds = %358
  %401 = add nsw i32 %.0103, 1
  br label %355

402:                                              ; preds = %355
  br label %403

403:                                              ; preds = %448, %402
  %.0104 = phi i32 [ 0, %402 ], [ %449, %448 ]
  %.462 = phi float [ %.361, %402 ], [ %414, %448 ]
  %404 = load i32, i32* %3, align 4
  %405 = icmp sle i32 %.0104, %404
  br i1 %405, label %406, label %450

406:                                              ; preds = %403
  %407 = getelementptr inbounds %struct.sEigenvalue, %struct.sEigenvalue* %0, i32 0, i32 4
  %408 = sext i32 %.0104 to i64
  %409 = getelementptr inbounds [3 x [3 x float]], [3 x [3 x float]]* %407, i64 0, i64 %408
  %410 = load i32, i32* %2, align 4
  %411 = sub nsw i32 %410, 1
  %412 = sext i32 %411 to i64
  %413 = getelementptr inbounds [3 x float], [3 x float]* %409, i64 0, i64 %412
  %414 = load float, float* %413, align 4
  %415 = fmul float %305, %414
  %416 = getelementptr inbounds %struct.sEigenvalue, %struct.sEigenvalue* %0, i32 0, i32 4
  %417 = sext i32 %.0104 to i64
  %418 = getelementptr inbounds [3 x [3 x float]], [3 x [3 x float]]* %416, i64 0, i64 %417
  %419 = load i32, i32* %2, align 4
  %420 = sext i32 %419 to i64
  %421 = getelementptr inbounds [3 x float], [3 x float]* %418, i64 0, i64 %420
  %422 = load float, float* %421, align 4
  %423 = fmul float %304, %422
  %424 = fadd float %415, %423
  %425 = getelementptr inbounds %struct.sEigenvalue, %struct.sEigenvalue* %0, i32 0, i32 4
  %426 = sext i32 %.0104 to i64
  %427 = getelementptr inbounds [3 x [3 x float]], [3 x [3 x float]]* %425, i64 0, i64 %426
  %428 = load i32, i32* %2, align 4
  %429 = sub nsw i32 %428, 1
  %430 = sext i32 %429 to i64
  %431 = getelementptr inbounds [3 x float], [3 x float]* %427, i64 0, i64 %430
  store float %424, float* %431, align 4
  %432 = getelementptr inbounds %struct.sEigenvalue, %struct.sEigenvalue* %0, i32 0, i32 4
  %433 = sext i32 %.0104 to i64
  %434 = getelementptr inbounds [3 x [3 x float]], [3 x [3 x float]]* %432, i64 0, i64 %433
  %435 = load i32, i32* %2, align 4
  %436 = sext i32 %435 to i64
  %437 = getelementptr inbounds [3 x float], [3 x float]* %434, i64 0, i64 %436
  %438 = load float, float* %437, align 4
  %439 = fmul float %305, %438
  %440 = fmul float %304, %414
  %441 = fsub float %439, %440
  %442 = getelementptr inbounds %struct.sEigenvalue, %struct.sEigenvalue* %0, i32 0, i32 4
  %443 = sext i32 %.0104 to i64
  %444 = getelementptr inbounds [3 x [3 x float]], [3 x [3 x float]]* %442, i64 0, i64 %443
  %445 = load i32, i32* %2, align 4
  %446 = sext i32 %445 to i64
  %447 = getelementptr inbounds [3 x float], [3 x float]* %444, i64 0, i64 %446
  store float %441, float* %447, align 4
  br label %448

448:                                              ; preds = %406
  %449 = add nsw i32 %.0104, 1
  br label %403

450:                                              ; preds = %403
  br label %473

451:                                              ; preds = %156
  %452 = fadd float %243, %195
  %453 = getelementptr inbounds %struct.sEigenvalue, %struct.sEigenvalue* %0, i32 0, i32 2
  %454 = load i32, i32* %2, align 4
  %455 = sub nsw i32 %454, 1
  %456 = sext i32 %455 to i64
  %457 = getelementptr inbounds [3 x float], [3 x float]* %453, i64 0, i64 %456
  store float %452, float* %457, align 4
  %458 = fadd float %243, %195
  %459 = getelementptr inbounds %struct.sEigenvalue, %struct.sEigenvalue* %0, i32 0, i32 2
  %460 = load i32, i32* %2, align 4
  %461 = sext i32 %460 to i64
  %462 = getelementptr inbounds [3 x float], [3 x float]* %459, i64 0, i64 %461
  store float %458, float* %462, align 4
  %463 = getelementptr inbounds %struct.sEigenvalue, %struct.sEigenvalue* %0, i32 0, i32 3
  %464 = load i32, i32* %2, align 4
  %465 = sub nsw i32 %464, 1
  %466 = sext i32 %465 to i64
  %467 = getelementptr inbounds [3 x float], [3 x float]* %463, i64 0, i64 %466
  store float %199, float* %467, align 4
  %468 = fsub float -0.000000e+00, %199
  %469 = getelementptr inbounds %struct.sEigenvalue, %struct.sEigenvalue* %0, i32 0, i32 3
  %470 = load i32, i32* %2, align 4
  %471 = sext i32 %470 to i64
  %472 = getelementptr inbounds [3 x float], [3 x float]* %469, i64 0, i64 %471
  store float %468, float* %472, align 4
  br label %473

473:                                              ; preds = %451, %450
  %.563 = phi float [ %.462, %450 ], [ %199, %451 ]
  %.444 = phi float [ %297, %450 ], [ %.343, %451 ]
  %.124 = phi float [ %303, %450 ], [ %.023, %451 ]
  %.113 = phi float [ %305, %450 ], [ %197, %451 ]
  %.16 = phi float [ %304, %450 ], [ %195, %451 ]
  %474 = load i32, i32* %2, align 4
  %475 = sub nsw i32 %474, 2
  store i32 %475, i32* %2, align 4
  br label %1060

476:                                              ; preds = %152
  %477 = getelementptr inbounds %struct.sEigenvalue, %struct.sEigenvalue* %0, i32 0, i32 5
  %478 = load i32, i32* %2, align 4
  %479 = sext i32 %478 to i64
  %480 = getelementptr inbounds [3 x [3 x float]], [3 x [3 x float]]* %477, i64 0, i64 %479
  %481 = load i32, i32* %2, align 4
  %482 = sext i32 %481 to i64
  %483 = getelementptr inbounds [3 x float], [3 x float]* %480, i64 0, i64 %482
  %484 = load float, float* %483, align 4
  %485 = load i32, i32* %2, align 4
  %486 = icmp slt i32 %.0101, %485
  br i1 %486, label %487, label %517

487:                                              ; preds = %476
  %488 = getelementptr inbounds %struct.sEigenvalue, %struct.sEigenvalue* %0, i32 0, i32 5
  %489 = load i32, i32* %2, align 4
  %490 = sub nsw i32 %489, 1
  %491 = sext i32 %490 to i64
  %492 = getelementptr inbounds [3 x [3 x float]], [3 x [3 x float]]* %488, i64 0, i64 %491
  %493 = load i32, i32* %2, align 4
  %494 = sub nsw i32 %493, 1
  %495 = sext i32 %494 to i64
  %496 = getelementptr inbounds [3 x float], [3 x float]* %492, i64 0, i64 %495
  %497 = load float, float* %496, align 4
  %498 = getelementptr inbounds %struct.sEigenvalue, %struct.sEigenvalue* %0, i32 0, i32 5
  %499 = load i32, i32* %2, align 4
  %500 = sext i32 %499 to i64
  %501 = getelementptr inbounds [3 x [3 x float]], [3 x [3 x float]]* %498, i64 0, i64 %500
  %502 = load i32, i32* %2, align 4
  %503 = sub nsw i32 %502, 1
  %504 = sext i32 %503 to i64
  %505 = getelementptr inbounds [3 x float], [3 x float]* %501, i64 0, i64 %504
  %506 = load float, float* %505, align 4
  %507 = getelementptr inbounds %struct.sEigenvalue, %struct.sEigenvalue* %0, i32 0, i32 5
  %508 = load i32, i32* %2, align 4
  %509 = sub nsw i32 %508, 1
  %510 = sext i32 %509 to i64
  %511 = getelementptr inbounds [3 x [3 x float]], [3 x [3 x float]]* %507, i64 0, i64 %510
  %512 = load i32, i32* %2, align 4
  %513 = sext i32 %512 to i64
  %514 = getelementptr inbounds [3 x float], [3 x float]* %511, i64 0, i64 %513
  %515 = load float, float* %514, align 4
  %516 = fmul float %506, %515
  br label %517

517:                                              ; preds = %487, %476
  %.088 = phi float [ %497, %487 ], [ 0.000000e+00, %476 ]
  %.078 = phi float [ %516, %487 ], [ 0.000000e+00, %476 ]
  %518 = icmp eq i32 %.096, 10
  br i1 %518, label %519, label %560

519:                                              ; preds = %517
  %520 = fadd float %.04, %484
  br label %521

521:                                              ; preds = %532, %519
  %.0105 = phi i32 [ 0, %519 ], [ %533, %532 ]
  %522 = load i32, i32* %2, align 4
  %523 = icmp sle i32 %.0105, %522
  br i1 %523, label %524, label %534

524:                                              ; preds = %521
  %525 = getelementptr inbounds %struct.sEigenvalue, %struct.sEigenvalue* %0, i32 0, i32 5
  %526 = sext i32 %.0105 to i64
  %527 = getelementptr inbounds [3 x [3 x float]], [3 x [3 x float]]* %525, i64 0, i64 %526
  %528 = sext i32 %.0105 to i64
  %529 = getelementptr inbounds [3 x float], [3 x float]* %527, i64 0, i64 %528
  %530 = load float, float* %529, align 4
  %531 = fsub float %530, %484
  store float %531, float* %529, align 4
  br label %532

532:                                              ; preds = %524
  %533 = add nsw i32 %.0105, 1
  br label %521

534:                                              ; preds = %521
  %535 = getelementptr inbounds %struct.sEigenvalue, %struct.sEigenvalue* %0, i32 0, i32 5
  %536 = load i32, i32* %2, align 4
  %537 = sext i32 %536 to i64
  %538 = getelementptr inbounds [3 x [3 x float]], [3 x [3 x float]]* %535, i64 0, i64 %537
  %539 = load i32, i32* %2, align 4
  %540 = sub nsw i32 %539, 1
  %541 = sext i32 %540 to i64
  %542 = getelementptr inbounds [3 x float], [3 x float]* %538, i64 0, i64 %541
  %543 = load float, float* %542, align 4
  %544 = call float @_ZSt4fabsf(float %543)
  %545 = getelementptr inbounds %struct.sEigenvalue, %struct.sEigenvalue* %0, i32 0, i32 5
  %546 = load i32, i32* %2, align 4
  %547 = sub nsw i32 %546, 1
  %548 = sext i32 %547 to i64
  %549 = getelementptr inbounds [3 x [3 x float]], [3 x [3 x float]]* %545, i64 0, i64 %548
  %550 = load i32, i32* %2, align 4
  %551 = sub nsw i32 %550, 2
  %552 = sext i32 %551 to i64
  %553 = getelementptr inbounds [3 x float], [3 x float]* %549, i64 0, i64 %552
  %554 = load float, float* %553, align 4
  %555 = call float @_ZSt4fabsf(float %554)
  %556 = fadd float %544, %555
  %557 = fmul float 7.500000e-01, %556
  %558 = fmul float -4.375000e-01, %556
  %559 = fmul float %558, %556
  br label %560

560:                                              ; preds = %534, %517
  %.189 = phi float [ %557, %534 ], [ %.088, %517 ]
  %.082 = phi float [ %557, %534 ], [ %484, %517 ]
  %.179 = phi float [ %559, %534 ], [ %.078, %517 ]
  %.545 = phi float [ %556, %534 ], [ %.343, %517 ]
  %.1 = phi float [ %520, %534 ], [ %.04, %517 ]
  %561 = icmp eq i32 %.096, 30
  br i1 %561, label %562, label %595

562:                                              ; preds = %560
  %563 = fsub float %.189, %.082
  %564 = fdiv float %563, 2.000000e+00
  %565 = fmul float %564, %564
  %566 = fadd float %565, %.179
  %567 = fcmp ogt float %566, 0.000000e+00
  br i1 %567, label %568, label %594

568:                                              ; preds = %562
  %569 = call float @_ZSt4sqrtf(float %566)
  %570 = fcmp olt float %.189, %.082
  br i1 %570, label %571, label %573

571:                                              ; preds = %568
  %572 = fsub float -0.000000e+00, %569
  br label %573

573:                                              ; preds = %571, %568
  %.646 = phi float [ %572, %571 ], [ %569, %568 ]
  %574 = fsub float %.189, %.082
  %575 = fdiv float %574, 2.000000e+00
  %576 = fadd float %575, %.646
  %577 = fdiv float %.179, %576
  %578 = fsub float %.082, %577
  br label %579

579:                                              ; preds = %590, %573
  %.0106 = phi i32 [ 0, %573 ], [ %591, %590 ]
  %580 = load i32, i32* %2, align 4
  %581 = icmp sle i32 %.0106, %580
  br i1 %581, label %582, label %592

582:                                              ; preds = %579
  %583 = getelementptr inbounds %struct.sEigenvalue, %struct.sEigenvalue* %0, i32 0, i32 5
  %584 = sext i32 %.0106 to i64
  %585 = getelementptr inbounds [3 x [3 x float]], [3 x [3 x float]]* %583, i64 0, i64 %584
  %586 = sext i32 %.0106 to i64
  %587 = getelementptr inbounds [3 x float], [3 x float]* %585, i64 0, i64 %586
  %588 = load float, float* %587, align 4
  %589 = fsub float %588, %578
  store float %589, float* %587, align 4
  br label %590

590:                                              ; preds = %582
  %591 = add nsw i32 %.0106, 1
  br label %579

592:                                              ; preds = %579
  %593 = fadd float %.1, %578
  br label %594

594:                                              ; preds = %592, %562
  %.290 = phi float [ 0x3FEED91680000000, %592 ], [ %.189, %562 ]
  %.183 = phi float [ 0x3FEED91680000000, %592 ], [ %.082, %562 ]
  %.280 = phi float [ 0x3FEED91680000000, %592 ], [ %.179, %562 ]
  %.747 = phi float [ %578, %592 ], [ %566, %562 ]
  %.2 = phi float [ %593, %592 ], [ %.1, %562 ]
  br label %595

595:                                              ; preds = %594, %560
  %.391 = phi float [ %.290, %594 ], [ %.189, %560 ]
  %.284 = phi float [ %.183, %594 ], [ %.082, %560 ]
  %.381 = phi float [ %.280, %594 ], [ %.179, %560 ]
  %.848 = phi float [ %.747, %594 ], [ %.545, %560 ]
  %.3 = phi float [ %.2, %594 ], [ %.1, %560 ]
  %596 = add nsw i32 %.096, 1
  %597 = load i32, i32* %2, align 4
  %598 = sub nsw i32 %597, 2
  br label %599

599:                                              ; preds = %696, %595
  %.0107 = phi i32 [ %598, %595 ], [ %697, %696 ]
  %.664 = phi float [ %.058, %595 ], [ %607, %696 ]
  %.949 = phi float [ %.848, %595 ], [ %651, %696 ]
  %.225 = phi float [ %.023, %595 ], [ %654, %696 ]
  %.214 = phi float [ %.012, %595 ], [ %653, %696 ]
  %.27 = phi float [ %.05, %595 ], [ %652, %696 ]
  %600 = icmp sge i32 %.0107, %.0101
  br i1 %600, label %601, label %698

601:                                              ; preds = %599
  %602 = getelementptr inbounds %struct.sEigenvalue, %struct.sEigenvalue* %0, i32 0, i32 5
  %603 = sext i32 %.0107 to i64
  %604 = getelementptr inbounds [3 x [3 x float]], [3 x [3 x float]]* %602, i64 0, i64 %603
  %605 = sext i32 %.0107 to i64
  %606 = getelementptr inbounds [3 x float], [3 x float]* %604, i64 0, i64 %605
  %607 = load float, float* %606, align 4
  %608 = fsub float %.284, %607
  %609 = fsub float %.391, %607
  %610 = fmul float %608, %609
  %611 = fsub float %610, %.381
  %612 = getelementptr inbounds %struct.sEigenvalue, %struct.sEigenvalue* %0, i32 0, i32 5
  %613 = add nsw i32 %.0107, 1
  %614 = sext i32 %613 to i64
  %615 = getelementptr inbounds [3 x [3 x float]], [3 x [3 x float]]* %612, i64 0, i64 %614
  %616 = sext i32 %.0107 to i64
  %617 = getelementptr inbounds [3 x float], [3 x float]* %615, i64 0, i64 %616
  %618 = load float, float* %617, align 4
  %619 = fdiv float %611, %618
  %620 = getelementptr inbounds %struct.sEigenvalue, %struct.sEigenvalue* %0, i32 0, i32 5
  %621 = sext i32 %.0107 to i64
  %622 = getelementptr inbounds [3 x [3 x float]], [3 x [3 x float]]* %620, i64 0, i64 %621
  %623 = add nsw i32 %.0107, 1
  %624 = sext i32 %623 to i64
  %625 = getelementptr inbounds [3 x float], [3 x float]* %622, i64 0, i64 %624
  %626 = load float, float* %625, align 4
  %627 = fadd float %619, %626
  %628 = getelementptr inbounds %struct.sEigenvalue, %struct.sEigenvalue* %0, i32 0, i32 5
  %629 = add nsw i32 %.0107, 1
  %630 = sext i32 %629 to i64
  %631 = getelementptr inbounds [3 x [3 x float]], [3 x [3 x float]]* %628, i64 0, i64 %630
  %632 = add nsw i32 %.0107, 1
  %633 = sext i32 %632 to i64
  %634 = getelementptr inbounds [3 x float], [3 x float]* %631, i64 0, i64 %633
  %635 = load float, float* %634, align 4
  %636 = fsub float %635, %607
  %637 = fsub float %636, %608
  %638 = fsub float %637, %609
  %639 = getelementptr inbounds %struct.sEigenvalue, %struct.sEigenvalue* %0, i32 0, i32 5
  %640 = add nsw i32 %.0107, 2
  %641 = sext i32 %640 to i64
  %642 = getelementptr inbounds [3 x [3 x float]], [3 x [3 x float]]* %639, i64 0, i64 %641
  %643 = add nsw i32 %.0107, 1
  %644 = sext i32 %643 to i64
  %645 = getelementptr inbounds [3 x float], [3 x float]* %642, i64 0, i64 %644
  %646 = load float, float* %645, align 4
  %647 = call float @_ZSt4fabsf(float %627)
  %648 = call float @_ZSt4fabsf(float %638)
  %649 = fadd float %647, %648
  %650 = call float @_ZSt4fabsf(float %646)
  %651 = fadd float %649, %650
  %652 = fdiv float %627, %651
  %653 = fdiv float %638, %651
  %654 = fdiv float %646, %651
  %655 = icmp eq i32 %.0107, %.0101
  br i1 %655, label %656, label %657

656:                                              ; preds = %601
  br label %698

657:                                              ; preds = %601
  %658 = getelementptr inbounds %struct.sEigenvalue, %struct.sEigenvalue* %0, i32 0, i32 5
  %659 = sext i32 %.0107 to i64
  %660 = getelementptr inbounds [3 x [3 x float]], [3 x [3 x float]]* %658, i64 0, i64 %659
  %661 = sub nsw i32 %.0107, 1
  %662 = sext i32 %661 to i64
  %663 = getelementptr inbounds [3 x float], [3 x float]* %660, i64 0, i64 %662
  %664 = load float, float* %663, align 4
  %665 = call float @_ZSt4fabsf(float %664)
  %666 = call float @_ZSt4fabsf(float %653)
  %667 = call float @_ZSt4fabsf(float %654)
  %668 = fadd float %666, %667
  %669 = fmul float %665, %668
  %670 = call float @_ZSt4fabsf(float %652)
  %671 = getelementptr inbounds %struct.sEigenvalue, %struct.sEigenvalue* %0, i32 0, i32 5
  %672 = sub nsw i32 %.0107, 1
  %673 = sext i32 %672 to i64
  %674 = getelementptr inbounds [3 x [3 x float]], [3 x [3 x float]]* %671, i64 0, i64 %673
  %675 = sub nsw i32 %.0107, 1
  %676 = sext i32 %675 to i64
  %677 = getelementptr inbounds [3 x float], [3 x float]* %674, i64 0, i64 %676
  %678 = load float, float* %677, align 4
  %679 = call float @_ZSt4fabsf(float %678)
  %680 = call float @_ZSt4fabsf(float %607)
  %681 = fadd float %679, %680
  %682 = getelementptr inbounds %struct.sEigenvalue, %struct.sEigenvalue* %0, i32 0, i32 5
  %683 = add nsw i32 %.0107, 1
  %684 = sext i32 %683 to i64
  %685 = getelementptr inbounds [3 x [3 x float]], [3 x [3 x float]]* %682, i64 0, i64 %684
  %686 = add nsw i32 %.0107, 1
  %687 = sext i32 %686 to i64
  %688 = getelementptr inbounds [3 x float], [3 x float]* %685, i64 0, i64 %687
  %689 = load float, float* %688, align 4
  %690 = call float @_ZSt4fabsf(float %689)
  %691 = fadd float %681, %690
  %692 = fmul float %670, %691
  %693 = fmul float %15, %692
  %694 = fcmp olt float %669, %693
  br i1 %694, label %695, label %696

695:                                              ; preds = %657
  br label %698

696:                                              ; preds = %657
  %697 = add nsw i32 %.0107, -1
  br label %599

698:                                              ; preds = %695, %656, %599
  %.765 = phi float [ %607, %656 ], [ %607, %695 ], [ %.664, %599 ]
  %.1050 = phi float [ %651, %656 ], [ %651, %695 ], [ %.949, %599 ]
  %.326 = phi float [ %654, %656 ], [ %654, %695 ], [ %.225, %599 ]
  %.315 = phi float [ %653, %656 ], [ %653, %695 ], [ %.214, %599 ]
  %.38 = phi float [ %652, %656 ], [ %652, %695 ], [ %.27, %599 ]
  %699 = add nsw i32 %.0107, 2
  br label %700

700:                                              ; preds = %720, %698
  %.0108 = phi i32 [ %699, %698 ], [ %721, %720 ]
  %701 = load i32, i32* %2, align 4
  %702 = icmp sle i32 %.0108, %701
  br i1 %702, label %703, label %722

703:                                              ; preds = %700
  %704 = getelementptr inbounds %struct.sEigenvalue, %struct.sEigenvalue* %0, i32 0, i32 5
  %705 = sext i32 %.0108 to i64
  %706 = getelementptr inbounds [3 x [3 x float]], [3 x [3 x float]]* %704, i64 0, i64 %705
  %707 = sub nsw i32 %.0108, 2
  %708 = sext i32 %707 to i64
  %709 = getelementptr inbounds [3 x float], [3 x float]* %706, i64 0, i64 %708
  store float 0.000000e+00, float* %709, align 4
  %710 = add nsw i32 %.0107, 2
  %711 = icmp sgt i32 %.0108, %710
  br i1 %711, label %712, label %719

712:                                              ; preds = %703
  %713 = getelementptr inbounds %struct.sEigenvalue, %struct.sEigenvalue* %0, i32 0, i32 5
  %714 = sext i32 %.0108 to i64
  %715 = getelementptr inbounds [3 x [3 x float]], [3 x [3 x float]]* %713, i64 0, i64 %714
  %716 = sub nsw i32 %.0108, 3
  %717 = sext i32 %716 to i64
  %718 = getelementptr inbounds [3 x float], [3 x float]* %715, i64 0, i64 %717
  store float 0.000000e+00, float* %718, align 4
  br label %719

719:                                              ; preds = %712, %703
  br label %720

720:                                              ; preds = %719
  %721 = add nsw i32 %.0108, 1
  br label %700

722:                                              ; preds = %700
  br label %723

723:                                              ; preds = %1057, %722
  %.0109 = phi i32 [ %.0107, %722 ], [ %1058, %1057 ]
  %.385 = phi float [ %.284, %722 ], [ %.587, %1057 ]
  %.866 = phi float [ %.765, %722 ], [ %.967, %1057 ]
  %.1151 = phi float [ %.1050, %722 ], [ %.1252, %1057 ]
  %.427 = phi float [ %.326, %722 ], [ %.730, %1057 ]
  %.416 = phi float [ %.315, %722 ], [ %.719, %1057 ]
  %.49 = phi float [ %.38, %722 ], [ %.13, %1057 ]
  %724 = load i32, i32* %2, align 4
  %725 = sub nsw i32 %724, 1
  %726 = icmp sle i32 %.0109, %725
  br i1 %726, label %727, label %1059

727:                                              ; preds = %723
  %728 = load i32, i32* %2, align 4
  %729 = sub nsw i32 %728, 1
  %730 = icmp ne i32 %.0109, %729
  %731 = zext i1 %730 to i32
  %732 = icmp ne i32 %.0109, %.0107
  br i1 %732, label %733, label %773

733:                                              ; preds = %727
  %734 = getelementptr inbounds %struct.sEigenvalue, %struct.sEigenvalue* %0, i32 0, i32 5
  %735 = sext i32 %.0109 to i64
  %736 = getelementptr inbounds [3 x [3 x float]], [3 x [3 x float]]* %734, i64 0, i64 %735
  %737 = sub nsw i32 %.0109, 1
  %738 = sext i32 %737 to i64
  %739 = getelementptr inbounds [3 x float], [3 x float]* %736, i64 0, i64 %738
  %740 = load float, float* %739, align 4
  %741 = getelementptr inbounds %struct.sEigenvalue, %struct.sEigenvalue* %0, i32 0, i32 5
  %742 = add nsw i32 %.0109, 1
  %743 = sext i32 %742 to i64
  %744 = getelementptr inbounds [3 x [3 x float]], [3 x [3 x float]]* %741, i64 0, i64 %743
  %745 = sub nsw i32 %.0109, 1
  %746 = sext i32 %745 to i64
  %747 = getelementptr inbounds [3 x float], [3 x float]* %744, i64 0, i64 %746
  %748 = load float, float* %747, align 4
  %749 = icmp ne i32 %731, 0
  br i1 %749, label %750, label %759

750:                                              ; preds = %733
  %751 = getelementptr inbounds %struct.sEigenvalue, %struct.sEigenvalue* %0, i32 0, i32 5
  %752 = add nsw i32 %.0109, 2
  %753 = sext i32 %752 to i64
  %754 = getelementptr inbounds [3 x [3 x float]], [3 x [3 x float]]* %751, i64 0, i64 %753
  %755 = sub nsw i32 %.0109, 1
  %756 = sext i32 %755 to i64
  %757 = getelementptr inbounds [3 x float], [3 x float]* %754, i64 0, i64 %756
  %758 = load float, float* %757, align 4
  br label %760

759:                                              ; preds = %733
  br label %760

760:                                              ; preds = %759, %750
  %761 = phi float [ %758, %750 ], [ 0.000000e+00, %759 ]
  %762 = call float @_ZSt4fabsf(float %740)
  %763 = call float @_ZSt4fabsf(float %748)
  %764 = fadd float %762, %763
  %765 = call float @_ZSt4fabsf(float %761)
  %766 = fadd float %764, %765
  %767 = fcmp une float %766, 0.000000e+00
  br i1 %767, label %768, label %772

768:                                              ; preds = %760
  %769 = fdiv float %740, %766
  %770 = fdiv float %748, %766
  %771 = fdiv float %761, %766
  br label %772

772:                                              ; preds = %768, %760
  %.528 = phi float [ %771, %768 ], [ %761, %760 ]
  %.517 = phi float [ %770, %768 ], [ %748, %760 ]
  %.510 = phi float [ %769, %768 ], [ %740, %760 ]
  br label %773

773:                                              ; preds = %772, %727
  %.486 = phi float [ %766, %772 ], [ %.385, %727 ]
  %.629 = phi float [ %.528, %772 ], [ %.427, %727 ]
  %.618 = phi float [ %.517, %772 ], [ %.416, %727 ]
  %.6 = phi float [ %.510, %772 ], [ %.49, %727 ]
  %774 = fcmp oeq float %.486, 0.000000e+00
  br i1 %774, label %775, label %776

775:                                              ; preds = %773
  br label %1059

776:                                              ; preds = %773
  %777 = fmul float %.6, %.6
  %778 = fmul float %.618, %.618
  %779 = fadd float %777, %778
  %780 = fmul float %.629, %.629
  %781 = fadd float %779, %780
  %782 = call float @_ZSt4sqrtf(float %781)
  %783 = fcmp olt float %.6, 0.000000e+00
  br i1 %783, label %784, label %786

784:                                              ; preds = %776
  %785 = fsub float -0.000000e+00, %782
  br label %786

786:                                              ; preds = %784, %776
  %.1252 = phi float [ %785, %784 ], [ %782, %776 ]
  %787 = fcmp une float %.1252, 0.000000e+00
  br i1 %787, label %788, label %1056

788:                                              ; preds = %786
  %789 = icmp ne i32 %.0109, %.0107
  br i1 %789, label %790, label %799

790:                                              ; preds = %788
  %791 = fsub float -0.000000e+00, %.1252
  %792 = fmul float %791, %.486
  %793 = getelementptr inbounds %struct.sEigenvalue, %struct.sEigenvalue* %0, i32 0, i32 5
  %794 = sext i32 %.0109 to i64
  %795 = getelementptr inbounds [3 x [3 x float]], [3 x [3 x float]]* %793, i64 0, i64 %794
  %796 = sub nsw i32 %.0109, 1
  %797 = sext i32 %796 to i64
  %798 = getelementptr inbounds [3 x float], [3 x float]* %795, i64 0, i64 %797
  store float %792, float* %798, align 4
  br label %817

799:                                              ; preds = %788
  %800 = icmp ne i32 %.0101, %.0107
  br i1 %800, label %801, label %816

801:                                              ; preds = %799
  %802 = getelementptr inbounds %struct.sEigenvalue, %struct.sEigenvalue* %0, i32 0, i32 5
  %803 = sext i32 %.0109 to i64
  %804 = getelementptr inbounds [3 x [3 x float]], [3 x [3 x float]]* %802, i64 0, i64 %803
  %805 = sub nsw i32 %.0109, 1
  %806 = sext i32 %805 to i64
  %807 = getelementptr inbounds [3 x float], [3 x float]* %804, i64 0, i64 %806
  %808 = load float, float* %807, align 4
  %809 = fsub float -0.000000e+00, %808
  %810 = getelementptr inbounds %struct.sEigenvalue, %struct.sEigenvalue* %0, i32 0, i32 5
  %811 = sext i32 %.0109 to i64
  %812 = getelementptr inbounds [3 x [3 x float]], [3 x [3 x float]]* %810, i64 0, i64 %811
  %813 = sub nsw i32 %.0109, 1
  %814 = sext i32 %813 to i64
  %815 = getelementptr inbounds [3 x float], [3 x float]* %812, i64 0, i64 %814
  store float %809, float* %815, align 4
  br label %816

816:                                              ; preds = %801, %799
  br label %817

817:                                              ; preds = %816, %790
  %818 = fadd float %.6, %.1252
  %819 = fdiv float %818, %.1252
  %820 = fdiv float %.618, %.1252
  %821 = fdiv float %.629, %.1252
  %822 = fdiv float %.618, %818
  %823 = fdiv float %.629, %818
  br label %824

824:                                              ; preds = %897, %817
  %.0111 = phi i32 [ %.0109, %817 ], [ %898, %897 ]
  %.7 = phi float [ %818, %817 ], [ %.8, %897 ]
  %825 = icmp slt i32 %.0111, %11
  br i1 %825, label %826, label %899

826:                                              ; preds = %824
  %827 = getelementptr inbounds %struct.sEigenvalue, %struct.sEigenvalue* %0, i32 0, i32 5
  %828 = sext i32 %.0109 to i64
  %829 = getelementptr inbounds [3 x [3 x float]], [3 x [3 x float]]* %827, i64 0, i64 %828
  %830 = sext i32 %.0111 to i64
  %831 = getelementptr inbounds [3 x float], [3 x float]* %829, i64 0, i64 %830
  %832 = load float, float* %831, align 4
  %833 = getelementptr inbounds %struct.sEigenvalue, %struct.sEigenvalue* %0, i32 0, i32 5
  %834 = add nsw i32 %.0109, 1
  %835 = sext i32 %834 to i64
  %836 = getelementptr inbounds [3 x [3 x float]], [3 x [3 x float]]* %833, i64 0, i64 %835
  %837 = sext i32 %.0111 to i64
  %838 = getelementptr inbounds [3 x float], [3 x float]* %836, i64 0, i64 %837
  %839 = load float, float* %838, align 4
  %840 = fmul float %822, %839
  %841 = fadd float %832, %840
  %842 = icmp ne i32 %731, 0
  br i1 %842, label %843, label %868

843:                                              ; preds = %826
  %844 = getelementptr inbounds %struct.sEigenvalue, %struct.sEigenvalue* %0, i32 0, i32 5
  %845 = add nsw i32 %.0109, 2
  %846 = sext i32 %845 to i64
  %847 = getelementptr inbounds [3 x [3 x float]], [3 x [3 x float]]* %844, i64 0, i64 %846
  %848 = sext i32 %.0111 to i64
  %849 = getelementptr inbounds [3 x float], [3 x float]* %847, i64 0, i64 %848
  %850 = load float, float* %849, align 4
  %851 = fmul float %823, %850
  %852 = fadd float %841, %851
  %853 = getelementptr inbounds %struct.sEigenvalue, %struct.sEigenvalue* %0, i32 0, i32 5
  %854 = add nsw i32 %.0109, 2
  %855 = sext i32 %854 to i64
  %856 = getelementptr inbounds [3 x [3 x float]], [3 x [3 x float]]* %853, i64 0, i64 %855
  %857 = sext i32 %.0111 to i64
  %858 = getelementptr inbounds [3 x float], [3 x float]* %856, i64 0, i64 %857
  %859 = load float, float* %858, align 4
  %860 = fmul float %852, %821
  %861 = fsub float %859, %860
  %862 = getelementptr inbounds %struct.sEigenvalue, %struct.sEigenvalue* %0, i32 0, i32 5
  %863 = add nsw i32 %.0109, 2
  %864 = sext i32 %863 to i64
  %865 = getelementptr inbounds [3 x [3 x float]], [3 x [3 x float]]* %862, i64 0, i64 %864
  %866 = sext i32 %.0111 to i64
  %867 = getelementptr inbounds [3 x float], [3 x float]* %865, i64 0, i64 %866
  store float %861, float* %867, align 4
  br label %868

868:                                              ; preds = %843, %826
  %.8 = phi float [ %852, %843 ], [ %841, %826 ]
  %869 = getelementptr inbounds %struct.sEigenvalue, %struct.sEigenvalue* %0, i32 0, i32 5
  %870 = sext i32 %.0109 to i64
  %871 = getelementptr inbounds [3 x [3 x float]], [3 x [3 x float]]* %869, i64 0, i64 %870
  %872 = sext i32 %.0111 to i64
  %873 = getelementptr inbounds [3 x float], [3 x float]* %871, i64 0, i64 %872
  %874 = load float, float* %873, align 4
  %875 = fmul float %.8, %819
  %876 = fsub float %874, %875
  %877 = getelementptr inbounds %struct.sEigenvalue, %struct.sEigenvalue* %0, i32 0, i32 5
  %878 = sext i32 %.0109 to i64
  %879 = getelementptr inbounds [3 x [3 x float]], [3 x [3 x float]]* %877, i64 0, i64 %878
  %880 = sext i32 %.0111 to i64
  %881 = getelementptr inbounds [3 x float], [3 x float]* %879, i64 0, i64 %880
  store float %876, float* %881, align 4
  %882 = getelementptr inbounds %struct.sEigenvalue, %struct.sEigenvalue* %0, i32 0, i32 5
  %883 = add nsw i32 %.0109, 1
  %884 = sext i32 %883 to i64
  %885 = getelementptr inbounds [3 x [3 x float]], [3 x [3 x float]]* %882, i64 0, i64 %884
  %886 = sext i32 %.0111 to i64
  %887 = getelementptr inbounds [3 x float], [3 x float]* %885, i64 0, i64 %886
  %888 = load float, float* %887, align 4
  %889 = fmul float %.8, %820
  %890 = fsub float %888, %889
  %891 = getelementptr inbounds %struct.sEigenvalue, %struct.sEigenvalue* %0, i32 0, i32 5
  %892 = add nsw i32 %.0109, 1
  %893 = sext i32 %892 to i64
  %894 = getelementptr inbounds [3 x [3 x float]], [3 x [3 x float]]* %891, i64 0, i64 %893
  %895 = sext i32 %.0111 to i64
  %896 = getelementptr inbounds [3 x float], [3 x float]* %894, i64 0, i64 %895
  store float %890, float* %896, align 4
  br label %897

897:                                              ; preds = %868
  %898 = add nsw i32 %.0111, 1
  br label %824

899:                                              ; preds = %824
  br label %900

900:                                              ; preds = %976, %899
  %.0112 = phi i32 [ 0, %899 ], [ %977, %976 ]
  %.9 = phi float [ %.7, %899 ], [ %.10, %976 ]
  %901 = add nsw i32 %.0109, 3
  store i32 %901, i32* %6, align 4
  %902 = call dereferenceable(4) i32* @_ZSt3minIiERKT_S2_S2_(i32* dereferenceable(4) %2, i32* dereferenceable(4) %6)
  %903 = load i32, i32* %902, align 4
  %904 = icmp sle i32 %.0112, %903
  br i1 %904, label %905, label %978

905:                                              ; preds = %900
  %906 = getelementptr inbounds %struct.sEigenvalue, %struct.sEigenvalue* %0, i32 0, i32 5
  %907 = sext i32 %.0112 to i64
  %908 = getelementptr inbounds [3 x [3 x float]], [3 x [3 x float]]* %906, i64 0, i64 %907
  %909 = sext i32 %.0109 to i64
  %910 = getelementptr inbounds [3 x float], [3 x float]* %908, i64 0, i64 %909
  %911 = load float, float* %910, align 4
  %912 = fmul float %819, %911
  %913 = getelementptr inbounds %struct.sEigenvalue, %struct.sEigenvalue* %0, i32 0, i32 5
  %914 = sext i32 %.0112 to i64
  %915 = getelementptr inbounds [3 x [3 x float]], [3 x [3 x float]]* %913, i64 0, i64 %914
  %916 = add nsw i32 %.0109, 1
  %917 = sext i32 %916 to i64
  %918 = getelementptr inbounds [3 x float], [3 x float]* %915, i64 0, i64 %917
  %919 = load float, float* %918, align 4
  %920 = fmul float %820, %919
  %921 = fadd float %912, %920
  %922 = icmp ne i32 %731, 0
  br i1 %922, label %923, label %948

923:                                              ; preds = %905
  %924 = getelementptr inbounds %struct.sEigenvalue, %struct.sEigenvalue* %0, i32 0, i32 5
  %925 = sext i32 %.0112 to i64
  %926 = getelementptr inbounds [3 x [3 x float]], [3 x [3 x float]]* %924, i64 0, i64 %925
  %927 = add nsw i32 %.0109, 2
  %928 = sext i32 %927 to i64
  %929 = getelementptr inbounds [3 x float], [3 x float]* %926, i64 0, i64 %928
  %930 = load float, float* %929, align 4
  %931 = fmul float %821, %930
  %932 = fadd float %921, %931
  %933 = getelementptr inbounds %struct.sEigenvalue, %struct.sEigenvalue* %0, i32 0, i32 5
  %934 = sext i32 %.0112 to i64
  %935 = getelementptr inbounds [3 x [3 x float]], [3 x [3 x float]]* %933, i64 0, i64 %934
  %936 = add nsw i32 %.0109, 2
  %937 = sext i32 %936 to i64
  %938 = getelementptr inbounds [3 x float], [3 x float]* %935, i64 0, i64 %937
  %939 = load float, float* %938, align 4
  %940 = fmul float %932, %823
  %941 = fsub float %939, %940
  %942 = getelementptr inbounds %struct.sEigenvalue, %struct.sEigenvalue* %0, i32 0, i32 5
  %943 = sext i32 %.0112 to i64
  %944 = getelementptr inbounds [3 x [3 x float]], [3 x [3 x float]]* %942, i64 0, i64 %943
  %945 = add nsw i32 %.0109, 2
  %946 = sext i32 %945 to i64
  %947 = getelementptr inbounds [3 x float], [3 x float]* %944, i64 0, i64 %946
  store float %941, float* %947, align 4
  br label %948

948:                                              ; preds = %923, %905
  %.10 = phi float [ %932, %923 ], [ %921, %905 ]
  %949 = getelementptr inbounds %struct.sEigenvalue, %struct.sEigenvalue* %0, i32 0, i32 5
  %950 = sext i32 %.0112 to i64
  %951 = getelementptr inbounds [3 x [3 x float]], [3 x [3 x float]]* %949, i64 0, i64 %950
  %952 = sext i32 %.0109 to i64
  %953 = getelementptr inbounds [3 x float], [3 x float]* %951, i64 0, i64 %952
  %954 = load float, float* %953, align 4
  %955 = fsub float %954, %.10
  %956 = getelementptr inbounds %struct.sEigenvalue, %struct.sEigenvalue* %0, i32 0, i32 5
  %957 = sext i32 %.0112 to i64
  %958 = getelementptr inbounds [3 x [3 x float]], [3 x [3 x float]]* %956, i64 0, i64 %957
  %959 = sext i32 %.0109 to i64
  %960 = getelementptr inbounds [3 x float], [3 x float]* %958, i64 0, i64 %959
  store float %955, float* %960, align 4
  %961 = getelementptr inbounds %struct.sEigenvalue, %struct.sEigenvalue* %0, i32 0, i32 5
  %962 = sext i32 %.0112 to i64
  %963 = getelementptr inbounds [3 x [3 x float]], [3 x [3 x float]]* %961, i64 0, i64 %962
  %964 = add nsw i32 %.0109, 1
  %965 = sext i32 %964 to i64
  %966 = getelementptr inbounds [3 x float], [3 x float]* %963, i64 0, i64 %965
  %967 = load float, float* %966, align 4
  %968 = fmul float %.10, %822
  %969 = fsub float %967, %968
  %970 = getelementptr inbounds %struct.sEigenvalue, %struct.sEigenvalue* %0, i32 0, i32 5
  %971 = sext i32 %.0112 to i64
  %972 = getelementptr inbounds [3 x [3 x float]], [3 x [3 x float]]* %970, i64 0, i64 %971
  %973 = add nsw i32 %.0109, 1
  %974 = sext i32 %973 to i64
  %975 = getelementptr inbounds [3 x float], [3 x float]* %972, i64 0, i64 %974
  store float %969, float* %975, align 4
  br label %976

976:                                              ; preds = %948
  %977 = add nsw i32 %.0112, 1
  br label %900

978:                                              ; preds = %900
  br label %979

979:                                              ; preds = %1053, %978
  %.0113 = phi i32 [ 0, %978 ], [ %1054, %1053 ]
  %.11 = phi float [ %.9, %978 ], [ %.12, %1053 ]
  %980 = load i32, i32* %3, align 4
  %981 = icmp sle i32 %.0113, %980
  br i1 %981, label %982, label %1055

982:                                              ; preds = %979
  %983 = getelementptr inbounds %struct.sEigenvalue, %struct.sEigenvalue* %0, i32 0, i32 4
  %984 = sext i32 %.0113 to i64
  %985 = getelementptr inbounds [3 x [3 x float]], [3 x [3 x float]]* %983, i64 0, i64 %984
  %986 = sext i32 %.0109 to i64
  %987 = getelementptr inbounds [3 x float], [3 x float]* %985, i64 0, i64 %986
  %988 = load float, float* %987, align 4
  %989 = fmul float %819, %988
  %990 = getelementptr inbounds %struct.sEigenvalue, %struct.sEigenvalue* %0, i32 0, i32 4
  %991 = sext i32 %.0113 to i64
  %992 = getelementptr inbounds [3 x [3 x float]], [3 x [3 x float]]* %990, i64 0, i64 %991
  %993 = add nsw i32 %.0109, 1
  %994 = sext i32 %993 to i64
  %995 = getelementptr inbounds [3 x float], [3 x float]* %992, i64 0, i64 %994
  %996 = load float, float* %995, align 4
  %997 = fmul float %820, %996
  %998 = fadd float %989, %997
  %999 = icmp ne i32 %731, 0
  br i1 %999, label %1000, label %1025

1000:                                             ; preds = %982
  %1001 = getelementptr inbounds %struct.sEigenvalue, %struct.sEigenvalue* %0, i32 0, i32 4
  %1002 = sext i32 %.0113 to i64
  %1003 = getelementptr inbounds [3 x [3 x float]], [3 x [3 x float]]* %1001, i64 0, i64 %1002
  %1004 = add nsw i32 %.0109, 2
  %1005 = sext i32 %1004 to i64
  %1006 = getelementptr inbounds [3 x float], [3 x float]* %1003, i64 0, i64 %1005
  %1007 = load float, float* %1006, align 4
  %1008 = fmul float %821, %1007
  %1009 = fadd float %998, %1008
  %1010 = getelementptr inbounds %struct.sEigenvalue, %struct.sEigenvalue* %0, i32 0, i32 4
  %1011 = sext i32 %.0113 to i64
  %1012 = getelementptr inbounds [3 x [3 x float]], [3 x [3 x float]]* %1010, i64 0, i64 %1011
  %1013 = add nsw i32 %.0109, 2
  %1014 = sext i32 %1013 to i64
  %1015 = getelementptr inbounds [3 x float], [3 x float]* %1012, i64 0, i64 %1014
  %1016 = load float, float* %1015, align 4
  %1017 = fmul float %1009, %823
  %1018 = fsub float %1016, %1017
  %1019 = getelementptr inbounds %struct.sEigenvalue, %struct.sEigenvalue* %0, i32 0, i32 4
  %1020 = sext i32 %.0113 to i64
  %1021 = getelementptr inbounds [3 x [3 x float]], [3 x [3 x float]]* %1019, i64 0, i64 %1020
  %1022 = add nsw i32 %.0109, 2
  %1023 = sext i32 %1022 to i64
  %1024 = getelementptr inbounds [3 x float], [3 x float]* %1021, i64 0, i64 %1023
  store float %1018, float* %1024, align 4
  br label %1025

1025:                                             ; preds = %1000, %982
  %.12 = phi float [ %1009, %1000 ], [ %998, %982 ]
  %1026 = getelementptr inbounds %struct.sEigenvalue, %struct.sEigenvalue* %0, i32 0, i32 4
  %1027 = sext i32 %.0113 to i64
  %1028 = getelementptr inbounds [3 x [3 x float]], [3 x [3 x float]]* %1026, i64 0, i64 %1027
  %1029 = sext i32 %.0109 to i64
  %1030 = getelementptr inbounds [3 x float], [3 x float]* %1028, i64 0, i64 %1029
  %1031 = load float, float* %1030, align 4
  %1032 = fsub float %1031, %.12
  %1033 = getelementptr inbounds %struct.sEigenvalue, %struct.sEigenvalue* %0, i32 0, i32 4
  %1034 = sext i32 %.0113 to i64
  %1035 = getelementptr inbounds [3 x [3 x float]], [3 x [3 x float]]* %1033, i64 0, i64 %1034
  %1036 = sext i32 %.0109 to i64
  %1037 = getelementptr inbounds [3 x float], [3 x float]* %1035, i64 0, i64 %1036
  store float %1032, float* %1037, align 4
  %1038 = getelementptr inbounds %struct.sEigenvalue, %struct.sEigenvalue* %0, i32 0, i32 4
  %1039 = sext i32 %.0113 to i64
  %1040 = getelementptr inbounds [3 x [3 x float]], [3 x [3 x float]]* %1038, i64 0, i64 %1039
  %1041 = add nsw i32 %.0109, 1
  %1042 = sext i32 %1041 to i64
  %1043 = getelementptr inbounds [3 x float], [3 x float]* %1040, i64 0, i64 %1042
  %1044 = load float, float* %1043, align 4
  %1045 = fmul float %.12, %822
  %1046 = fsub float %1044, %1045
  %1047 = getelementptr inbounds %struct.sEigenvalue, %struct.sEigenvalue* %0, i32 0, i32 4
  %1048 = sext i32 %.0113 to i64
  %1049 = getelementptr inbounds [3 x [3 x float]], [3 x [3 x float]]* %1047, i64 0, i64 %1048
  %1050 = add nsw i32 %.0109, 1
  %1051 = sext i32 %1050 to i64
  %1052 = getelementptr inbounds [3 x float], [3 x float]* %1049, i64 0, i64 %1051
  store float %1046, float* %1052, align 4
  br label %1053

1053:                                             ; preds = %1025
  %1054 = add nsw i32 %.0113, 1
  br label %979

1055:                                             ; preds = %979
  br label %1056

1056:                                             ; preds = %1055, %786
  %.587 = phi float [ %819, %1055 ], [ %.486, %786 ]
  %.967 = phi float [ %821, %1055 ], [ %.866, %786 ]
  %.730 = phi float [ %823, %1055 ], [ %.629, %786 ]
  %.719 = phi float [ %822, %1055 ], [ %.618, %786 ]
  %.13 = phi float [ %.11, %1055 ], [ %.6, %786 ]
  br label %1057

1057:                                             ; preds = %1056
  %1058 = add nsw i32 %.0109, 1
  br label %723

1059:                                             ; preds = %775, %723
  %.831 = phi float [ %.629, %775 ], [ %.427, %723 ]
  %.820 = phi float [ %.618, %775 ], [ %.416, %723 ]
  %.14 = phi float [ %.6, %775 ], [ %.49, %723 ]
  br label %1060

1060:                                             ; preds = %1059, %473
  %.197 = phi i32 [ 0, %473 ], [ %596, %1059 ]
  %.1068 = phi float [ %.563, %473 ], [ %.866, %1059 ]
  %.1353 = phi float [ %.444, %473 ], [ %.1151, %1059 ]
  %.932 = phi float [ %.124, %473 ], [ %.831, %1059 ]
  %.921 = phi float [ %.113, %473 ], [ %.820, %1059 ]
  %.15 = phi float [ %.16, %473 ], [ %.14, %1059 ]
  %.4 = phi float [ %.04, %473 ], [ %.3, %1059 ]
  br label %1061

1061:                                             ; preds = %1060, %117
  %.298 = phi i32 [ 0, %117 ], [ %.197, %1060 ]
  %.1169 = phi float [ %.058, %117 ], [ %.1068, %1060 ]
  %.1454 = phi float [ %.343, %117 ], [ %.1353, %1060 ]
  %.1033 = phi float [ %.023, %117 ], [ %.932, %1060 ]
  %.1022 = phi float [ %.012, %117 ], [ %.921, %1060 ]
  %.1611 = phi float [ %.05, %117 ], [ %.15, %1060 ]
  %.5 = phi float [ %.04, %117 ], [ %.4, %1060 ]
  br label %57

1062:                                             ; preds = %57
  %1063 = fcmp oeq float %.092, 0.000000e+00
  br i1 %1063, label %1064, label %1065

1064:                                             ; preds = %1062
  br label %1825

1065:                                             ; preds = %1062
  %1066 = sub nsw i32 %11, 1
  store i32 %1066, i32* %2, align 4
  br label %1067

1067:                                             ; preds = %1748, %1065
  %.1270 = phi float [ %.058, %1065 ], [ %.1876, %1748 ]
  %.1555 = phi float [ %.040, %1065 ], [ %.21, %1748 ]
  %.1134 = phi float [ %.023, %1065 ], [ %.17, %1748 ]
  %1068 = load i32, i32* %2, align 4
  %1069 = icmp sge i32 %1068, 0
  br i1 %1069, label %1070, label %1751

1070:                                             ; preds = %1067
  %1071 = getelementptr inbounds %struct.sEigenvalue, %struct.sEigenvalue* %0, i32 0, i32 2
  %1072 = load i32, i32* %2, align 4
  %1073 = sext i32 %1072 to i64
  %1074 = getelementptr inbounds [3 x float], [3 x float]* %1071, i64 0, i64 %1073
  %1075 = load float, float* %1074, align 4
  %1076 = getelementptr inbounds %struct.sEigenvalue, %struct.sEigenvalue* %0, i32 0, i32 3
  %1077 = load i32, i32* %2, align 4
  %1078 = sext i32 %1077 to i64
  %1079 = getelementptr inbounds [3 x float], [3 x float]* %1076, i64 0, i64 %1078
  %1080 = load float, float* %1079, align 4
  %1081 = fcmp oeq float %1080, 0.000000e+00
  br i1 %1081, label %1082, label %1272

1082:                                             ; preds = %1070
  %1083 = load i32, i32* %2, align 4
  %1084 = getelementptr inbounds %struct.sEigenvalue, %struct.sEigenvalue* %0, i32 0, i32 5
  %1085 = load i32, i32* %2, align 4
  %1086 = sext i32 %1085 to i64
  %1087 = getelementptr inbounds [3 x [3 x float]], [3 x [3 x float]]* %1084, i64 0, i64 %1086
  %1088 = load i32, i32* %2, align 4
  %1089 = sext i32 %1088 to i64
  %1090 = getelementptr inbounds [3 x float], [3 x float]* %1087, i64 0, i64 %1089
  store float 1.000000e+00, float* %1090, align 4
  %1091 = load i32, i32* %2, align 4
  %1092 = sub nsw i32 %1091, 1
  br label %1093

1093:                                             ; preds = %1269, %1082
  %.0116 = phi i32 [ %1092, %1082 ], [ %1270, %1269 ]
  %.0114 = phi i32 [ %1083, %1082 ], [ %.1115, %1269 ]
  %.1371 = phi float [ %.1270, %1082 ], [ %.1472, %1269 ]
  %.1656 = phi float [ %.1555, %1082 ], [ %.1757, %1269 ]
  %.1235 = phi float [ %.1134, %1082 ], [ %.1336, %1269 ]
  %1094 = icmp sge i32 %.0116, 0
  br i1 %1094, label %1095, label %1271

1095:                                             ; preds = %1093
  %1096 = getelementptr inbounds %struct.sEigenvalue, %struct.sEigenvalue* %0, i32 0, i32 5
  %1097 = sext i32 %.0116 to i64
  %1098 = getelementptr inbounds [3 x [3 x float]], [3 x [3 x float]]* %1096, i64 0, i64 %1097
  %1099 = sext i32 %.0116 to i64
  %1100 = getelementptr inbounds [3 x float], [3 x float]* %1098, i64 0, i64 %1099
  %1101 = load float, float* %1100, align 4
  %1102 = fsub float %1101, %1075
  br label %1103

1103:                                             ; preds = %1122, %1095
  %.0117 = phi i32 [ %.0114, %1095 ], [ %1123, %1122 ]
  %.1336 = phi float [ 0.000000e+00, %1095 ], [ %1121, %1122 ]
  %1104 = load i32, i32* %2, align 4
  %1105 = icmp sle i32 %.0117, %1104
  br i1 %1105, label %1106, label %1124

1106:                                             ; preds = %1103
  %1107 = getelementptr inbounds %struct.sEigenvalue, %struct.sEigenvalue* %0, i32 0, i32 5
  %1108 = sext i32 %.0116 to i64
  %1109 = getelementptr inbounds [3 x [3 x float]], [3 x [3 x float]]* %1107, i64 0, i64 %1108
  %1110 = sext i32 %.0117 to i64
  %1111 = getelementptr inbounds [3 x float], [3 x float]* %1109, i64 0, i64 %1110
  %1112 = load float, float* %1111, align 4
  %1113 = getelementptr inbounds %struct.sEigenvalue, %struct.sEigenvalue* %0, i32 0, i32 5
  %1114 = sext i32 %.0117 to i64
  %1115 = getelementptr inbounds [3 x [3 x float]], [3 x [3 x float]]* %1113, i64 0, i64 %1114
  %1116 = load i32, i32* %2, align 4
  %1117 = sext i32 %1116 to i64
  %1118 = getelementptr inbounds [3 x float], [3 x float]* %1115, i64 0, i64 %1117
  %1119 = load float, float* %1118, align 4
  %1120 = fmul float %1112, %1119
  %1121 = fadd float %.1336, %1120
  br label %1122

1122:                                             ; preds = %1106
  %1123 = add nsw i32 %.0117, 1
  br label %1103

1124:                                             ; preds = %1103
  %1125 = getelementptr inbounds %struct.sEigenvalue, %struct.sEigenvalue* %0, i32 0, i32 3
  %1126 = sext i32 %.0116 to i64
  %1127 = getelementptr inbounds [3 x float], [3 x float]* %1125, i64 0, i64 %1126
  %1128 = load float, float* %1127, align 4
  %1129 = fcmp olt float %1128, 0.000000e+00
  br i1 %1129, label %1130, label %1131

1130:                                             ; preds = %1124
  br label %1268

1131:                                             ; preds = %1124
  %1132 = getelementptr inbounds %struct.sEigenvalue, %struct.sEigenvalue* %0, i32 0, i32 3
  %1133 = sext i32 %.0116 to i64
  %1134 = getelementptr inbounds [3 x float], [3 x float]* %1132, i64 0, i64 %1133
  %1135 = load float, float* %1134, align 4
  %1136 = fcmp oeq float %1135, 0.000000e+00
  br i1 %1136, label %1137, label %1159

1137:                                             ; preds = %1131
  %1138 = fcmp une float %1102, 0.000000e+00
  br i1 %1138, label %1139, label %1148

1139:                                             ; preds = %1137
  %1140 = fsub float -0.000000e+00, %.1336
  %1141 = fdiv float %1140, %1102
  %1142 = getelementptr inbounds %struct.sEigenvalue, %struct.sEigenvalue* %0, i32 0, i32 5
  %1143 = sext i32 %.0116 to i64
  %1144 = getelementptr inbounds [3 x [3 x float]], [3 x [3 x float]]* %1142, i64 0, i64 %1143
  %1145 = load i32, i32* %2, align 4
  %1146 = sext i32 %1145 to i64
  %1147 = getelementptr inbounds [3 x float], [3 x float]* %1144, i64 0, i64 %1146
  store float %1141, float* %1147, align 4
  br label %1158

1148:                                             ; preds = %1137
  %1149 = fsub float -0.000000e+00, %.1336
  %1150 = fmul float %15, %.092
  %1151 = fdiv float %1149, %1150
  %1152 = getelementptr inbounds %struct.sEigenvalue, %struct.sEigenvalue* %0, i32 0, i32 5
  %1153 = sext i32 %.0116 to i64
  %1154 = getelementptr inbounds [3 x [3 x float]], [3 x [3 x float]]* %1152, i64 0, i64 %1153
  %1155 = load i32, i32* %2, align 4
  %1156 = sext i32 %1155 to i64
  %1157 = getelementptr inbounds [3 x float], [3 x float]* %1154, i64 0, i64 %1156
  store float %1151, float* %1157, align 4
  br label %1158

1158:                                             ; preds = %1148, %1139
  br label %1233

1159:                                             ; preds = %1131
  %1160 = getelementptr inbounds %struct.sEigenvalue, %struct.sEigenvalue* %0, i32 0, i32 5
  %1161 = sext i32 %.0116 to i64
  %1162 = getelementptr inbounds [3 x [3 x float]], [3 x [3 x float]]* %1160, i64 0, i64 %1161
  %1163 = add nsw i32 %.0116, 1
  %1164 = sext i32 %1163 to i64
  %1165 = getelementptr inbounds [3 x float], [3 x float]* %1162, i64 0, i64 %1164
  %1166 = load float, float* %1165, align 4
  %1167 = getelementptr inbounds %struct.sEigenvalue, %struct.sEigenvalue* %0, i32 0, i32 5
  %1168 = add nsw i32 %.0116, 1
  %1169 = sext i32 %1168 to i64
  %1170 = getelementptr inbounds [3 x [3 x float]], [3 x [3 x float]]* %1167, i64 0, i64 %1169
  %1171 = sext i32 %.0116 to i64
  %1172 = getelementptr inbounds [3 x float], [3 x float]* %1170, i64 0, i64 %1171
  %1173 = load float, float* %1172, align 4
  %1174 = getelementptr inbounds %struct.sEigenvalue, %struct.sEigenvalue* %0, i32 0, i32 2
  %1175 = sext i32 %.0116 to i64
  %1176 = getelementptr inbounds [3 x float], [3 x float]* %1174, i64 0, i64 %1175
  %1177 = load float, float* %1176, align 4
  %1178 = fsub float %1177, %1075
  %1179 = getelementptr inbounds %struct.sEigenvalue, %struct.sEigenvalue* %0, i32 0, i32 2
  %1180 = sext i32 %.0116 to i64
  %1181 = getelementptr inbounds [3 x float], [3 x float]* %1179, i64 0, i64 %1180
  %1182 = load float, float* %1181, align 4
  %1183 = fsub float %1182, %1075
  %1184 = fmul float %1178, %1183
  %1185 = getelementptr inbounds %struct.sEigenvalue, %struct.sEigenvalue* %0, i32 0, i32 3
  %1186 = sext i32 %.0116 to i64
  %1187 = getelementptr inbounds [3 x float], [3 x float]* %1185, i64 0, i64 %1186
  %1188 = load float, float* %1187, align 4
  %1189 = getelementptr inbounds %struct.sEigenvalue, %struct.sEigenvalue* %0, i32 0, i32 3
  %1190 = sext i32 %.0116 to i64
  %1191 = getelementptr inbounds [3 x float], [3 x float]* %1189, i64 0, i64 %1190
  %1192 = load float, float* %1191, align 4
  %1193 = fmul float %1188, %1192
  %1194 = fadd float %1184, %1193
  %1195 = fmul float %1166, %.1656
  %1196 = fmul float %.1371, %.1336
  %1197 = fsub float %1195, %1196
  %1198 = fdiv float %1197, %1194
  %1199 = getelementptr inbounds %struct.sEigenvalue, %struct.sEigenvalue* %0, i32 0, i32 5
  %1200 = sext i32 %.0116 to i64
  %1201 = getelementptr inbounds [3 x [3 x float]], [3 x [3 x float]]* %1199, i64 0, i64 %1200
  %1202 = load i32, i32* %2, align 4
  %1203 = sext i32 %1202 to i64
  %1204 = getelementptr inbounds [3 x float], [3 x float]* %1201, i64 0, i64 %1203
  store float %1198, float* %1204, align 4
  %1205 = call float @_ZSt4fabsf(float %1166)
  %1206 = call float @_ZSt4fabsf(float %.1371)
  %1207 = fcmp ogt float %1205, %1206
  br i1 %1207, label %1208, label %1220

1208:                                             ; preds = %1159
  %1209 = fsub float -0.000000e+00, %.1336
  %1210 = fmul float %1102, %1198
  %1211 = fsub float %1209, %1210
  %1212 = fdiv float %1211, %1166
  %1213 = getelementptr inbounds %struct.sEigenvalue, %struct.sEigenvalue* %0, i32 0, i32 5
  %1214 = add nsw i32 %.0116, 1
  %1215 = sext i32 %1214 to i64
  %1216 = getelementptr inbounds [3 x [3 x float]], [3 x [3 x float]]* %1213, i64 0, i64 %1215
  %1217 = load i32, i32* %2, align 4
  %1218 = sext i32 %1217 to i64
  %1219 = getelementptr inbounds [3 x float], [3 x float]* %1216, i64 0, i64 %1218
  store float %1212, float* %1219, align 4
  br label %1232

1220:                                             ; preds = %1159
  %1221 = fsub float -0.000000e+00, %.1656
  %1222 = fmul float %1173, %1198
  %1223 = fsub float %1221, %1222
  %1224 = fdiv float %1223, %.1371
  %1225 = getelementptr inbounds %struct.sEigenvalue, %struct.sEigenvalue* %0, i32 0, i32 5
  %1226 = add nsw i32 %.0116, 1
  %1227 = sext i32 %1226 to i64
  %1228 = getelementptr inbounds [3 x [3 x float]], [3 x [3 x float]]* %1225, i64 0, i64 %1227
  %1229 = load i32, i32* %2, align 4
  %1230 = sext i32 %1229 to i64
  %1231 = getelementptr inbounds [3 x float], [3 x float]* %1228, i64 0, i64 %1230
  store float %1224, float* %1231, align 4
  br label %1232

1232:                                             ; preds = %1220, %1208
  br label %1233

1233:                                             ; preds = %1232, %1158
  %1234 = getelementptr inbounds %struct.sEigenvalue, %struct.sEigenvalue* %0, i32 0, i32 5
  %1235 = sext i32 %.0116 to i64
  %1236 = getelementptr inbounds [3 x [3 x float]], [3 x [3 x float]]* %1234, i64 0, i64 %1235
  %1237 = load i32, i32* %2, align 4
  %1238 = sext i32 %1237 to i64
  %1239 = getelementptr inbounds [3 x float], [3 x float]* %1236, i64 0, i64 %1238
  %1240 = load float, float* %1239, align 4
  %1241 = call float @_ZSt4fabsf(float %1240)
  %1242 = fmul float %15, %1241
  %1243 = fmul float %1242, %1241
  %1244 = fcmp ogt float %1243, 1.000000e+00
  br i1 %1244, label %1245, label %1267

1245:                                             ; preds = %1233
  br label %1246

1246:                                             ; preds = %1264, %1245
  %.0118 = phi i32 [ %.0116, %1245 ], [ %1265, %1264 ]
  %1247 = load i32, i32* %2, align 4
  %1248 = icmp sle i32 %.0118, %1247
  br i1 %1248, label %1249, label %1266

1249:                                             ; preds = %1246
  %1250 = getelementptr inbounds %struct.sEigenvalue, %struct.sEigenvalue* %0, i32 0, i32 5
  %1251 = sext i32 %.0118 to i64
  %1252 = getelementptr inbounds [3 x [3 x float]], [3 x [3 x float]]* %1250, i64 0, i64 %1251
  %1253 = load i32, i32* %2, align 4
  %1254 = sext i32 %1253 to i64
  %1255 = getelementptr inbounds [3 x float], [3 x float]* %1252, i64 0, i64 %1254
  %1256 = load float, float* %1255, align 4
  %1257 = fdiv float %1256, %1241
  %1258 = getelementptr inbounds %struct.sEigenvalue, %struct.sEigenvalue* %0, i32 0, i32 5
  %1259 = sext i32 %.0118 to i64
  %1260 = getelementptr inbounds [3 x [3 x float]], [3 x [3 x float]]* %1258, i64 0, i64 %1259
  %1261 = load i32, i32* %2, align 4
  %1262 = sext i32 %1261 to i64
  %1263 = getelementptr inbounds [3 x float], [3 x float]* %1260, i64 0, i64 %1262
  store float %1257, float* %1263, align 4
  br label %1264

1264:                                             ; preds = %1249
  %1265 = add nsw i32 %.0118, 1
  br label %1246

1266:                                             ; preds = %1246
  br label %1267

1267:                                             ; preds = %1266, %1233
  br label %1268

1268:                                             ; preds = %1267, %1130
  %.1115 = phi i32 [ %.0114, %1130 ], [ %.0116, %1267 ]
  %.1472 = phi float [ %1102, %1130 ], [ %.1371, %1267 ]
  %.1757 = phi float [ %.1336, %1130 ], [ %.1656, %1267 ]
  br label %1269

1269:                                             ; preds = %1268
  %1270 = add nsw i32 %.0116, -1
  br label %1093

1271:                                             ; preds = %1093
  br label %1747

1272:                                             ; preds = %1070
  %1273 = fcmp olt float %1080, 0.000000e+00
  br i1 %1273, label %1274, label %1746

1274:                                             ; preds = %1272
  %1275 = load i32, i32* %2, align 4
  %1276 = sub nsw i32 %1275, 1
  %1277 = getelementptr inbounds %struct.sEigenvalue, %struct.sEigenvalue* %0, i32 0, i32 5
  %1278 = load i32, i32* %2, align 4
  %1279 = sext i32 %1278 to i64
  %1280 = getelementptr inbounds [3 x [3 x float]], [3 x [3 x float]]* %1277, i64 0, i64 %1279
  %1281 = load i32, i32* %2, align 4
  %1282 = sub nsw i32 %1281, 1
  %1283 = sext i32 %1282 to i64
  %1284 = getelementptr inbounds [3 x float], [3 x float]* %1280, i64 0, i64 %1283
  %1285 = load float, float* %1284, align 4
  %1286 = call float @_ZSt4fabsf(float %1285)
  %1287 = getelementptr inbounds %struct.sEigenvalue, %struct.sEigenvalue* %0, i32 0, i32 5
  %1288 = load i32, i32* %2, align 4
  %1289 = sub nsw i32 %1288, 1
  %1290 = sext i32 %1289 to i64
  %1291 = getelementptr inbounds [3 x [3 x float]], [3 x [3 x float]]* %1287, i64 0, i64 %1290
  %1292 = load i32, i32* %2, align 4
  %1293 = sext i32 %1292 to i64
  %1294 = getelementptr inbounds [3 x float], [3 x float]* %1291, i64 0, i64 %1293
  %1295 = load float, float* %1294, align 4
  %1296 = call float @_ZSt4fabsf(float %1295)
  %1297 = fcmp ogt float %1286, %1296
  br i1 %1297, label %1298, label %1346

1298:                                             ; preds = %1274
  %1299 = getelementptr inbounds %struct.sEigenvalue, %struct.sEigenvalue* %0, i32 0, i32 5
  %1300 = load i32, i32* %2, align 4
  %1301 = sext i32 %1300 to i64
  %1302 = getelementptr inbounds [3 x [3 x float]], [3 x [3 x float]]* %1299, i64 0, i64 %1301
  %1303 = load i32, i32* %2, align 4
  %1304 = sub nsw i32 %1303, 1
  %1305 = sext i32 %1304 to i64
  %1306 = getelementptr inbounds [3 x float], [3 x float]* %1302, i64 0, i64 %1305
  %1307 = load float, float* %1306, align 4
  %1308 = fdiv float %1080, %1307
  %1309 = getelementptr inbounds %struct.sEigenvalue, %struct.sEigenvalue* %0, i32 0, i32 5
  %1310 = load i32, i32* %2, align 4
  %1311 = sub nsw i32 %1310, 1
  %1312 = sext i32 %1311 to i64
  %1313 = getelementptr inbounds [3 x [3 x float]], [3 x [3 x float]]* %1309, i64 0, i64 %1312
  %1314 = load i32, i32* %2, align 4
  %1315 = sub nsw i32 %1314, 1
  %1316 = sext i32 %1315 to i64
  %1317 = getelementptr inbounds [3 x float], [3 x float]* %1313, i64 0, i64 %1316
  store float %1308, float* %1317, align 4
  %1318 = getelementptr inbounds %struct.sEigenvalue, %struct.sEigenvalue* %0, i32 0, i32 5
  %1319 = load i32, i32* %2, align 4
  %1320 = sext i32 %1319 to i64
  %1321 = getelementptr inbounds [3 x [3 x float]], [3 x [3 x float]]* %1318, i64 0, i64 %1320
  %1322 = load i32, i32* %2, align 4
  %1323 = sext i32 %1322 to i64
  %1324 = getelementptr inbounds [3 x float], [3 x float]* %1321, i64 0, i64 %1323
  %1325 = load float, float* %1324, align 4
  %1326 = fsub float %1325, %1075
  %1327 = fsub float -0.000000e+00, %1326
  %1328 = getelementptr inbounds %struct.sEigenvalue, %struct.sEigenvalue* %0, i32 0, i32 5
  %1329 = load i32, i32* %2, align 4
  %1330 = sext i32 %1329 to i64
  %1331 = getelementptr inbounds [3 x [3 x float]], [3 x [3 x float]]* %1328, i64 0, i64 %1330
  %1332 = load i32, i32* %2, align 4
  %1333 = sub nsw i32 %1332, 1
  %1334 = sext i32 %1333 to i64
  %1335 = getelementptr inbounds [3 x float], [3 x float]* %1331, i64 0, i64 %1334
  %1336 = load float, float* %1335, align 4
  %1337 = fdiv float %1327, %1336
  %1338 = getelementptr inbounds %struct.sEigenvalue, %struct.sEigenvalue* %0, i32 0, i32 5
  %1339 = load i32, i32* %2, align 4
  %1340 = sub nsw i32 %1339, 1
  %1341 = sext i32 %1340 to i64
  %1342 = getelementptr inbounds [3 x [3 x float]], [3 x [3 x float]]* %1338, i64 0, i64 %1341
  %1343 = load i32, i32* %2, align 4
  %1344 = sext i32 %1343 to i64
  %1345 = getelementptr inbounds [3 x float], [3 x float]* %1342, i64 0, i64 %1344
  store float %1337, float* %1345, align 4
  br label %1389

1346:                                             ; preds = %1274
  %1347 = getelementptr inbounds %struct.sEigenvalue, %struct.sEigenvalue* %0, i32 0, i32 5
  %1348 = load i32, i32* %2, align 4
  %1349 = sub nsw i32 %1348, 1
  %1350 = sext i32 %1349 to i64
  %1351 = getelementptr inbounds [3 x [3 x float]], [3 x [3 x float]]* %1347, i64 0, i64 %1350
  %1352 = load i32, i32* %2, align 4
  %1353 = sext i32 %1352 to i64
  %1354 = getelementptr inbounds [3 x float], [3 x float]* %1351, i64 0, i64 %1353
  %1355 = load float, float* %1354, align 4
  %1356 = fsub float -0.000000e+00, %1355
  %1357 = getelementptr inbounds %struct.sEigenvalue, %struct.sEigenvalue* %0, i32 0, i32 5
  %1358 = load i32, i32* %2, align 4
  %1359 = sub nsw i32 %1358, 1
  %1360 = sext i32 %1359 to i64
  %1361 = getelementptr inbounds [3 x [3 x float]], [3 x [3 x float]]* %1357, i64 0, i64 %1360
  %1362 = load i32, i32* %2, align 4
  %1363 = sub nsw i32 %1362, 1
  %1364 = sext i32 %1363 to i64
  %1365 = getelementptr inbounds [3 x float], [3 x float]* %1361, i64 0, i64 %1364
  %1366 = load float, float* %1365, align 4
  %1367 = fsub float %1366, %1075
  call void @_Z9EigencdivR11sEigenvalueffff(%struct.sEigenvalue* dereferenceable(124) %0, float 0.000000e+00, float %1356, float %1367, float %1080)
  %1368 = getelementptr inbounds %struct.sEigenvalue, %struct.sEigenvalue* %0, i32 0, i32 7
  %1369 = load float, float* %1368, align 4
  %1370 = getelementptr inbounds %struct.sEigenvalue, %struct.sEigenvalue* %0, i32 0, i32 5
  %1371 = load i32, i32* %2, align 4
  %1372 = sub nsw i32 %1371, 1
  %1373 = sext i32 %1372 to i64
  %1374 = getelementptr inbounds [3 x [3 x float]], [3 x [3 x float]]* %1370, i64 0, i64 %1373
  %1375 = load i32, i32* %2, align 4
  %1376 = sub nsw i32 %1375, 1
  %1377 = sext i32 %1376 to i64
  %1378 = getelementptr inbounds [3 x float], [3 x float]* %1374, i64 0, i64 %1377
  store float %1369, float* %1378, align 4
  %1379 = getelementptr inbounds %struct.sEigenvalue, %struct.sEigenvalue* %0, i32 0, i32 8
  %1380 = load float, float* %1379, align 4
  %1381 = getelementptr inbounds %struct.sEigenvalue, %struct.sEigenvalue* %0, i32 0, i32 5
  %1382 = load i32, i32* %2, align 4
  %1383 = sub nsw i32 %1382, 1
  %1384 = sext i32 %1383 to i64
  %1385 = getelementptr inbounds [3 x [3 x float]], [3 x [3 x float]]* %1381, i64 0, i64 %1384
  %1386 = load i32, i32* %2, align 4
  %1387 = sext i32 %1386 to i64
  %1388 = getelementptr inbounds [3 x float], [3 x float]* %1385, i64 0, i64 %1387
  store float %1380, float* %1388, align 4
  br label %1389

1389:                                             ; preds = %1346, %1298
  %1390 = getelementptr inbounds %struct.sEigenvalue, %struct.sEigenvalue* %0, i32 0, i32 5
  %1391 = load i32, i32* %2, align 4
  %1392 = sext i32 %1391 to i64
  %1393 = getelementptr inbounds [3 x [3 x float]], [3 x [3 x float]]* %1390, i64 0, i64 %1392
  %1394 = load i32, i32* %2, align 4
  %1395 = sub nsw i32 %1394, 1
  %1396 = sext i32 %1395 to i64
  %1397 = getelementptr inbounds [3 x float], [3 x float]* %1393, i64 0, i64 %1396
  store float 0.000000e+00, float* %1397, align 4
  %1398 = getelementptr inbounds %struct.sEigenvalue, %struct.sEigenvalue* %0, i32 0, i32 5
  %1399 = load i32, i32* %2, align 4
  %1400 = sext i32 %1399 to i64
  %1401 = getelementptr inbounds [3 x [3 x float]], [3 x [3 x float]]* %1398, i64 0, i64 %1400
  %1402 = load i32, i32* %2, align 4
  %1403 = sext i32 %1402 to i64
  %1404 = getelementptr inbounds [3 x float], [3 x float]* %1401, i64 0, i64 %1403
  store float 1.000000e+00, float* %1404, align 4
  %1405 = load i32, i32* %2, align 4
  %1406 = sub nsw i32 %1405, 2
  br label %1407

1407:                                             ; preds = %1743, %1389
  %.0121 = phi i32 [ %1406, %1389 ], [ %1744, %1743 ]
  %.0119 = phi i32 [ %1276, %1389 ], [ %.1120, %1743 ]
  %.1573 = phi float [ %.1270, %1389 ], [ %.1674, %1743 ]
  %.18 = phi float [ %.1555, %1389 ], [ %.19, %1743 ]
  %.1437 = phi float [ %.1134, %1389 ], [ %.1538, %1743 ]
  %1408 = icmp sge i32 %.0121, 0
  br i1 %1408, label %1409, label %1745

1409:                                             ; preds = %1407
  br label %1410

1410:                                             ; preds = %1445, %1409
  %.0125 = phi i32 [ %.0119, %1409 ], [ %1446, %1445 ]
  %.0123 = phi float [ 0.000000e+00, %1409 ], [ %1444, %1445 ]
  %.0122 = phi float [ 0.000000e+00, %1409 ], [ %1429, %1445 ]
  %1411 = load i32, i32* %2, align 4
  %1412 = icmp sle i32 %.0125, %1411
  br i1 %1412, label %1413, label %1447

1413:                                             ; preds = %1410
  %1414 = getelementptr inbounds %struct.sEigenvalue, %struct.sEigenvalue* %0, i32 0, i32 5
  %1415 = sext i32 %.0121 to i64
  %1416 = getelementptr inbounds [3 x [3 x float]], [3 x [3 x float]]* %1414, i64 0, i64 %1415
  %1417 = sext i32 %.0125 to i64
  %1418 = getelementptr inbounds [3 x float], [3 x float]* %1416, i64 0, i64 %1417
  %1419 = load float, float* %1418, align 4
  %1420 = getelementptr inbounds %struct.sEigenvalue, %struct.sEigenvalue* %0, i32 0, i32 5
  %1421 = sext i32 %.0125 to i64
  %1422 = getelementptr inbounds [3 x [3 x float]], [3 x [3 x float]]* %1420, i64 0, i64 %1421
  %1423 = load i32, i32* %2, align 4
  %1424 = sub nsw i32 %1423, 1
  %1425 = sext i32 %1424 to i64
  %1426 = getelementptr inbounds [3 x float], [3 x float]* %1422, i64 0, i64 %1425
  %1427 = load float, float* %1426, align 4
  %1428 = fmul float %1419, %1427
  %1429 = fadd float %.0122, %1428
  %1430 = getelementptr inbounds %struct.sEigenvalue, %struct.sEigenvalue* %0, i32 0, i32 5
  %1431 = sext i32 %.0121 to i64
  %1432 = getelementptr inbounds [3 x [3 x float]], [3 x [3 x float]]* %1430, i64 0, i64 %1431
  %1433 = sext i32 %.0125 to i64
  %1434 = getelementptr inbounds [3 x float], [3 x float]* %1432, i64 0, i64 %1433
  %1435 = load float, float* %1434, align 4
  %1436 = getelementptr inbounds %struct.sEigenvalue, %struct.sEigenvalue* %0, i32 0, i32 5
  %1437 = sext i32 %.0125 to i64
  %1438 = getelementptr inbounds [3 x [3 x float]], [3 x [3 x float]]* %1436, i64 0, i64 %1437
  %1439 = load i32, i32* %2, align 4
  %1440 = sext i32 %1439 to i64
  %1441 = getelementptr inbounds [3 x float], [3 x float]* %1438, i64 0, i64 %1440
  %1442 = load float, float* %1441, align 4
  %1443 = fmul float %1435, %1442
  %1444 = fadd float %.0123, %1443
  br label %1445

1445:                                             ; preds = %1413
  %1446 = add nsw i32 %.0125, 1
  br label %1410

1447:                                             ; preds = %1410
  %1448 = getelementptr inbounds %struct.sEigenvalue, %struct.sEigenvalue* %0, i32 0, i32 5
  %1449 = sext i32 %.0121 to i64
  %1450 = getelementptr inbounds [3 x [3 x float]], [3 x [3 x float]]* %1448, i64 0, i64 %1449
  %1451 = sext i32 %.0121 to i64
  %1452 = getelementptr inbounds [3 x float], [3 x float]* %1450, i64 0, i64 %1451
  %1453 = load float, float* %1452, align 4
  %1454 = fsub float %1453, %1075
  %1455 = getelementptr inbounds %struct.sEigenvalue, %struct.sEigenvalue* %0, i32 0, i32 3
  %1456 = sext i32 %.0121 to i64
  %1457 = getelementptr inbounds [3 x float], [3 x float]* %1455, i64 0, i64 %1456
  %1458 = load float, float* %1457, align 4
  %1459 = fcmp olt float %1458, 0.000000e+00
  br i1 %1459, label %1460, label %1461

1460:                                             ; preds = %1447
  br label %1742

1461:                                             ; preds = %1447
  %1462 = getelementptr inbounds %struct.sEigenvalue, %struct.sEigenvalue* %0, i32 0, i32 3
  %1463 = sext i32 %.0121 to i64
  %1464 = getelementptr inbounds [3 x float], [3 x float]* %1462, i64 0, i64 %1463
  %1465 = load float, float* %1464, align 4
  %1466 = fcmp oeq float %1465, 0.000000e+00
  br i1 %1466, label %1467, label %1487

1467:                                             ; preds = %1461
  %1468 = fsub float -0.000000e+00, %.0122
  %1469 = fsub float -0.000000e+00, %.0123
  call void @_Z9EigencdivR11sEigenvalueffff(%struct.sEigenvalue* dereferenceable(124) %0, float %1468, float %1469, float %1454, float %1080)
  %1470 = getelementptr inbounds %struct.sEigenvalue, %struct.sEigenvalue* %0, i32 0, i32 7
  %1471 = load float, float* %1470, align 4
  %1472 = getelementptr inbounds %struct.sEigenvalue, %struct.sEigenvalue* %0, i32 0, i32 5
  %1473 = sext i32 %.0121 to i64
  %1474 = getelementptr inbounds [3 x [3 x float]], [3 x [3 x float]]* %1472, i64 0, i64 %1473
  %1475 = load i32, i32* %2, align 4
  %1476 = sub nsw i32 %1475, 1
  %1477 = sext i32 %1476 to i64
  %1478 = getelementptr inbounds [3 x float], [3 x float]* %1474, i64 0, i64 %1477
  store float %1471, float* %1478, align 4
  %1479 = getelementptr inbounds %struct.sEigenvalue, %struct.sEigenvalue* %0, i32 0, i32 8
  %1480 = load float, float* %1479, align 4
  %1481 = getelementptr inbounds %struct.sEigenvalue, %struct.sEigenvalue* %0, i32 0, i32 5
  %1482 = sext i32 %.0121 to i64
  %1483 = getelementptr inbounds [3 x [3 x float]], [3 x [3 x float]]* %1481, i64 0, i64 %1482
  %1484 = load i32, i32* %2, align 4
  %1485 = sext i32 %1484 to i64
  %1486 = getelementptr inbounds [3 x float], [3 x float]* %1483, i64 0, i64 %1485
  store float %1480, float* %1486, align 4
  br label %1680

1487:                                             ; preds = %1461
  %1488 = getelementptr inbounds %struct.sEigenvalue, %struct.sEigenvalue* %0, i32 0, i32 5
  %1489 = sext i32 %.0121 to i64
  %1490 = getelementptr inbounds [3 x [3 x float]], [3 x [3 x float]]* %1488, i64 0, i64 %1489
  %1491 = add nsw i32 %.0121, 1
  %1492 = sext i32 %1491 to i64
  %1493 = getelementptr inbounds [3 x float], [3 x float]* %1490, i64 0, i64 %1492
  %1494 = load float, float* %1493, align 4
  %1495 = getelementptr inbounds %struct.sEigenvalue, %struct.sEigenvalue* %0, i32 0, i32 5
  %1496 = add nsw i32 %.0121, 1
  %1497 = sext i32 %1496 to i64
  %1498 = getelementptr inbounds [3 x [3 x float]], [3 x [3 x float]]* %1495, i64 0, i64 %1497
  %1499 = sext i32 %.0121 to i64
  %1500 = getelementptr inbounds [3 x float], [3 x float]* %1498, i64 0, i64 %1499
  %1501 = load float, float* %1500, align 4
  %1502 = getelementptr inbounds %struct.sEigenvalue, %struct.sEigenvalue* %0, i32 0, i32 2
  %1503 = sext i32 %.0121 to i64
  %1504 = getelementptr inbounds [3 x float], [3 x float]* %1502, i64 0, i64 %1503
  %1505 = load float, float* %1504, align 4
  %1506 = fsub float %1505, %1075
  %1507 = getelementptr inbounds %struct.sEigenvalue, %struct.sEigenvalue* %0, i32 0, i32 2
  %1508 = sext i32 %.0121 to i64
  %1509 = getelementptr inbounds [3 x float], [3 x float]* %1507, i64 0, i64 %1508
  %1510 = load float, float* %1509, align 4
  %1511 = fsub float %1510, %1075
  %1512 = fmul float %1506, %1511
  %1513 = getelementptr inbounds %struct.sEigenvalue, %struct.sEigenvalue* %0, i32 0, i32 3
  %1514 = sext i32 %.0121 to i64
  %1515 = getelementptr inbounds [3 x float], [3 x float]* %1513, i64 0, i64 %1514
  %1516 = load float, float* %1515, align 4
  %1517 = getelementptr inbounds %struct.sEigenvalue, %struct.sEigenvalue* %0, i32 0, i32 3
  %1518 = sext i32 %.0121 to i64
  %1519 = getelementptr inbounds [3 x float], [3 x float]* %1517, i64 0, i64 %1518
  %1520 = load float, float* %1519, align 4
  %1521 = fmul float %1516, %1520
  %1522 = fadd float %1512, %1521
  %1523 = fmul float %1080, %1080
  %1524 = fsub float %1522, %1523
  %1525 = getelementptr inbounds %struct.sEigenvalue, %struct.sEigenvalue* %0, i32 0, i32 2
  %1526 = sext i32 %.0121 to i64
  %1527 = getelementptr inbounds [3 x float], [3 x float]* %1525, i64 0, i64 %1526
  %1528 = load float, float* %1527, align 4
  %1529 = fsub float %1528, %1075
  %1530 = fmul float %1529, 2.000000e+00
  %1531 = fmul float %1530, %1080
  %1532 = fcmp oeq float %1524, 0.000000e+00
  br i1 %1532, label %1533, label %1547

1533:                                             ; preds = %1487
  %1534 = fcmp oeq float %1531, 0.000000e+00
  br i1 %1534, label %1535, label %1547

1535:                                             ; preds = %1533
  %1536 = fmul float %15, %.092
  %1537 = call float @_ZSt4fabsf(float %1454)
  %1538 = call float @_ZSt4fabsf(float %1080)
  %1539 = fadd float %1537, %1538
  %1540 = call float @_ZSt4fabsf(float %1494)
  %1541 = fadd float %1539, %1540
  %1542 = call float @_ZSt4fabsf(float %1501)
  %1543 = fadd float %1541, %1542
  %1544 = call float @_ZSt4fabsf(float %.1573)
  %1545 = fadd float %1543, %1544
  %1546 = fmul float %1536, %1545
  br label %1547

1547:                                             ; preds = %1535, %1533, %1487
  %.0124 = phi float [ %1546, %1535 ], [ %1524, %1533 ], [ %1524, %1487 ]
  %1548 = fmul float %1494, %.1437
  %1549 = fmul float %.1573, %.0122
  %1550 = fsub float %1548, %1549
  %1551 = fmul float %1080, %.0123
  %1552 = fadd float %1550, %1551
  %1553 = fmul float %1494, %.18
  %1554 = fmul float %.1573, %.0123
  %1555 = fsub float %1553, %1554
  %1556 = fmul float %1080, %.0122
  %1557 = fsub float %1555, %1556
  call void @_Z9EigencdivR11sEigenvalueffff(%struct.sEigenvalue* dereferenceable(124) %0, float %1552, float %1557, float %.0124, float %1531)
  %1558 = getelementptr inbounds %struct.sEigenvalue, %struct.sEigenvalue* %0, i32 0, i32 7
  %1559 = load float, float* %1558, align 4
  %1560 = getelementptr inbounds %struct.sEigenvalue, %struct.sEigenvalue* %0, i32 0, i32 5
  %1561 = sext i32 %.0121 to i64
  %1562 = getelementptr inbounds [3 x [3 x float]], [3 x [3 x float]]* %1560, i64 0, i64 %1561
  %1563 = load i32, i32* %2, align 4
  %1564 = sub nsw i32 %1563, 1
  %1565 = sext i32 %1564 to i64
  %1566 = getelementptr inbounds [3 x float], [3 x float]* %1562, i64 0, i64 %1565
  store float %1559, float* %1566, align 4
  %1567 = getelementptr inbounds %struct.sEigenvalue, %struct.sEigenvalue* %0, i32 0, i32 8
  %1568 = load float, float* %1567, align 4
  %1569 = getelementptr inbounds %struct.sEigenvalue, %struct.sEigenvalue* %0, i32 0, i32 5
  %1570 = sext i32 %.0121 to i64
  %1571 = getelementptr inbounds [3 x [3 x float]], [3 x [3 x float]]* %1569, i64 0, i64 %1570
  %1572 = load i32, i32* %2, align 4
  %1573 = sext i32 %1572 to i64
  %1574 = getelementptr inbounds [3 x float], [3 x float]* %1571, i64 0, i64 %1573
  store float %1568, float* %1574, align 4
  %1575 = call float @_ZSt4fabsf(float %1494)
  %1576 = call float @_ZSt4fabsf(float %.1573)
  %1577 = call float @_ZSt4fabsf(float %1080)
  %1578 = fadd float %1576, %1577
  %1579 = fcmp ogt float %1575, %1578
  br i1 %1579, label %1580, label %1638

1580:                                             ; preds = %1547
  %1581 = fsub float -0.000000e+00, %.0122
  %1582 = getelementptr inbounds %struct.sEigenvalue, %struct.sEigenvalue* %0, i32 0, i32 5
  %1583 = sext i32 %.0121 to i64
  %1584 = getelementptr inbounds [3 x [3 x float]], [3 x [3 x float]]* %1582, i64 0, i64 %1583
  %1585 = load i32, i32* %2, align 4
  %1586 = sub nsw i32 %1585, 1
  %1587 = sext i32 %1586 to i64
  %1588 = getelementptr inbounds [3 x float], [3 x float]* %1584, i64 0, i64 %1587
  %1589 = load float, float* %1588, align 4
  %1590 = fmul float %1454, %1589
  %1591 = fsub float %1581, %1590
  %1592 = getelementptr inbounds %struct.sEigenvalue, %struct.sEigenvalue* %0, i32 0, i32 5
  %1593 = sext i32 %.0121 to i64
  %1594 = getelementptr inbounds [3 x [3 x float]], [3 x [3 x float]]* %1592, i64 0, i64 %1593
  %1595 = load i32, i32* %2, align 4
  %1596 = sext i32 %1595 to i64
  %1597 = getelementptr inbounds [3 x float], [3 x float]* %1594, i64 0, i64 %1596
  %1598 = load float, float* %1597, align 4
  %1599 = fmul float %1080, %1598
  %1600 = fadd float %1591, %1599
  %1601 = fdiv float %1600, %1494
  %1602 = getelementptr inbounds %struct.sEigenvalue, %struct.sEigenvalue* %0, i32 0, i32 5
  %1603 = add nsw i32 %.0121, 1
  %1604 = sext i32 %1603 to i64
  %1605 = getelementptr inbounds [3 x [3 x float]], [3 x [3 x float]]* %1602, i64 0, i64 %1604
  %1606 = load i32, i32* %2, align 4
  %1607 = sub nsw i32 %1606, 1
  %1608 = sext i32 %1607 to i64
  %1609 = getelementptr inbounds [3 x float], [3 x float]* %1605, i64 0, i64 %1608
  store float %1601, float* %1609, align 4
  %1610 = fsub float -0.000000e+00, %.0123
  %1611 = getelementptr inbounds %struct.sEigenvalue, %struct.sEigenvalue* %0, i32 0, i32 5
  %1612 = sext i32 %.0121 to i64
  %1613 = getelementptr inbounds [3 x [3 x float]], [3 x [3 x float]]* %1611, i64 0, i64 %1612
  %1614 = load i32, i32* %2, align 4
  %1615 = sext i32 %1614 to i64
  %1616 = getelementptr inbounds [3 x float], [3 x float]* %1613, i64 0, i64 %1615
  %1617 = load float, float* %1616, align 4
  %1618 = fmul float %1454, %1617
  %1619 = fsub float %1610, %1618
  %1620 = getelementptr inbounds %struct.sEigenvalue, %struct.sEigenvalue* %0, i32 0, i32 5
  %1621 = sext i32 %.0121 to i64
  %1622 = getelementptr inbounds [3 x [3 x float]], [3 x [3 x float]]* %1620, i64 0, i64 %1621
  %1623 = load i32, i32* %2, align 4
  %1624 = sub nsw i32 %1623, 1
  %1625 = sext i32 %1624 to i64
  %1626 = getelementptr inbounds [3 x float], [3 x float]* %1622, i64 0, i64 %1625
  %1627 = load float, float* %1626, align 4
  %1628 = fmul float %1080, %1627
  %1629 = fsub float %1619, %1628
  %1630 = fdiv float %1629, %1494
  %1631 = getelementptr inbounds %struct.sEigenvalue, %struct.sEigenvalue* %0, i32 0, i32 5
  %1632 = add nsw i32 %.0121, 1
  %1633 = sext i32 %1632 to i64
  %1634 = getelementptr inbounds [3 x [3 x float]], [3 x [3 x float]]* %1631, i64 0, i64 %1633
  %1635 = load i32, i32* %2, align 4
  %1636 = sext i32 %1635 to i64
  %1637 = getelementptr inbounds [3 x float], [3 x float]* %1634, i64 0, i64 %1636
  store float %1630, float* %1637, align 4
  br label %1679

1638:                                             ; preds = %1547
  %1639 = fsub float -0.000000e+00, %.1437
  %1640 = getelementptr inbounds %struct.sEigenvalue, %struct.sEigenvalue* %0, i32 0, i32 5
  %1641 = sext i32 %.0121 to i64
  %1642 = getelementptr inbounds [3 x [3 x float]], [3 x [3 x float]]* %1640, i64 0, i64 %1641
  %1643 = load i32, i32* %2, align 4
  %1644 = sub nsw i32 %1643, 1
  %1645 = sext i32 %1644 to i64
  %1646 = getelementptr inbounds [3 x float], [3 x float]* %1642, i64 0, i64 %1645
  %1647 = load float, float* %1646, align 4
  %1648 = fmul float %1501, %1647
  %1649 = fsub float %1639, %1648
  %1650 = fsub float -0.000000e+00, %.18
  %1651 = getelementptr inbounds %struct.sEigenvalue, %struct.sEigenvalue* %0, i32 0, i32 5
  %1652 = sext i32 %.0121 to i64
  %1653 = getelementptr inbounds [3 x [3 x float]], [3 x [3 x float]]* %1651, i64 0, i64 %1652
  %1654 = load i32, i32* %2, align 4
  %1655 = sext i32 %1654 to i64
  %1656 = getelementptr inbounds [3 x float], [3 x float]* %1653, i64 0, i64 %1655
  %1657 = load float, float* %1656, align 4
  %1658 = fmul float %1501, %1657
  %1659 = fsub float %1650, %1658
  call void @_Z9EigencdivR11sEigenvalueffff(%struct.sEigenvalue* dereferenceable(124) %0, float %1649, float %1659, float %.1573, float %1080)
  %1660 = getelementptr inbounds %struct.sEigenvalue, %struct.sEigenvalue* %0, i32 0, i32 7
  %1661 = load float, float* %1660, align 4
  %1662 = getelementptr inbounds %struct.sEigenvalue, %struct.sEigenvalue* %0, i32 0, i32 5
  %1663 = add nsw i32 %.0121, 1
  %1664 = sext i32 %1663 to i64
  %1665 = getelementptr inbounds [3 x [3 x float]], [3 x [3 x float]]* %1662, i64 0, i64 %1664
  %1666 = load i32, i32* %2, align 4
  %1667 = sub nsw i32 %1666, 1
  %1668 = sext i32 %1667 to i64
  %1669 = getelementptr inbounds [3 x float], [3 x float]* %1665, i64 0, i64 %1668
  store float %1661, float* %1669, align 4
  %1670 = getelementptr inbounds %struct.sEigenvalue, %struct.sEigenvalue* %0, i32 0, i32 8
  %1671 = load float, float* %1670, align 4
  %1672 = getelementptr inbounds %struct.sEigenvalue, %struct.sEigenvalue* %0, i32 0, i32 5
  %1673 = add nsw i32 %.0121, 1
  %1674 = sext i32 %1673 to i64
  %1675 = getelementptr inbounds [3 x [3 x float]], [3 x [3 x float]]* %1672, i64 0, i64 %1674
  %1676 = load i32, i32* %2, align 4
  %1677 = sext i32 %1676 to i64
  %1678 = getelementptr inbounds [3 x float], [3 x float]* %1675, i64 0, i64 %1677
  store float %1671, float* %1678, align 4
  br label %1679

1679:                                             ; preds = %1638, %1580
  br label %1680

1680:                                             ; preds = %1679, %1467
  %1681 = getelementptr inbounds %struct.sEigenvalue, %struct.sEigenvalue* %0, i32 0, i32 5
  %1682 = sext i32 %.0121 to i64
  %1683 = getelementptr inbounds [3 x [3 x float]], [3 x [3 x float]]* %1681, i64 0, i64 %1682
  %1684 = load i32, i32* %2, align 4
  %1685 = sub nsw i32 %1684, 1
  %1686 = sext i32 %1685 to i64
  %1687 = getelementptr inbounds [3 x float], [3 x float]* %1683, i64 0, i64 %1686
  %1688 = load float, float* %1687, align 4
  %1689 = call float @_ZSt4fabsf(float %1688)
  store float %1689, float* %7, align 4
  %1690 = getelementptr inbounds %struct.sEigenvalue, %struct.sEigenvalue* %0, i32 0, i32 5
  %1691 = sext i32 %.0121 to i64
  %1692 = getelementptr inbounds [3 x [3 x float]], [3 x [3 x float]]* %1690, i64 0, i64 %1691
  %1693 = load i32, i32* %2, align 4
  %1694 = sext i32 %1693 to i64
  %1695 = getelementptr inbounds [3 x float], [3 x float]* %1692, i64 0, i64 %1694
  %1696 = load float, float* %1695, align 4
  %1697 = call float @_ZSt4fabsf(float %1696)
  store float %1697, float* %8, align 4
  %1698 = call dereferenceable(4) float* @_ZSt3maxIfERKT_S2_S2_(float* dereferenceable(4) %7, float* dereferenceable(4) %8)
  %1699 = load float, float* %1698, align 4
  %1700 = fmul float %15, %1699
  %1701 = fmul float %1700, %1699
  %1702 = fcmp ogt float %1701, 1.000000e+00
  br i1 %1702, label %1703, label %1741

1703:                                             ; preds = %1680
  br label %1704

1704:                                             ; preds = %1738, %1703
  %.0110 = phi i32 [ %.0121, %1703 ], [ %1739, %1738 ]
  %1705 = load i32, i32* %2, align 4
  %1706 = icmp sle i32 %.0110, %1705
  br i1 %1706, label %1707, label %1740

1707:                                             ; preds = %1704
  %1708 = getelementptr inbounds %struct.sEigenvalue, %struct.sEigenvalue* %0, i32 0, i32 5
  %1709 = sext i32 %.0110 to i64
  %1710 = getelementptr inbounds [3 x [3 x float]], [3 x [3 x float]]* %1708, i64 0, i64 %1709
  %1711 = load i32, i32* %2, align 4
  %1712 = sub nsw i32 %1711, 1
  %1713 = sext i32 %1712 to i64
  %1714 = getelementptr inbounds [3 x float], [3 x float]* %1710, i64 0, i64 %1713
  %1715 = load float, float* %1714, align 4
  %1716 = fdiv float %1715, %1699
  %1717 = getelementptr inbounds %struct.sEigenvalue, %struct.sEigenvalue* %0, i32 0, i32 5
  %1718 = sext i32 %.0110 to i64
  %1719 = getelementptr inbounds [3 x [3 x float]], [3 x [3 x float]]* %1717, i64 0, i64 %1718
  %1720 = load i32, i32* %2, align 4
  %1721 = sub nsw i32 %1720, 1
  %1722 = sext i32 %1721 to i64
  %1723 = getelementptr inbounds [3 x float], [3 x float]* %1719, i64 0, i64 %1722
  store float %1716, float* %1723, align 4
  %1724 = getelementptr inbounds %struct.sEigenvalue, %struct.sEigenvalue* %0, i32 0, i32 5
  %1725 = sext i32 %.0110 to i64
  %1726 = getelementptr inbounds [3 x [3 x float]], [3 x [3 x float]]* %1724, i64 0, i64 %1725
  %1727 = load i32, i32* %2, align 4
  %1728 = sext i32 %1727 to i64
  %1729 = getelementptr inbounds [3 x float], [3 x float]* %1726, i64 0, i64 %1728
  %1730 = load float, float* %1729, align 4
  %1731 = fdiv float %1730, %1699
  %1732 = getelementptr inbounds %struct.sEigenvalue, %struct.sEigenvalue* %0, i32 0, i32 5
  %1733 = sext i32 %.0110 to i64
  %1734 = getelementptr inbounds [3 x [3 x float]], [3 x [3 x float]]* %1732, i64 0, i64 %1733
  %1735 = load i32, i32* %2, align 4
  %1736 = sext i32 %1735 to i64
  %1737 = getelementptr inbounds [3 x float], [3 x float]* %1734, i64 0, i64 %1736
  store float %1731, float* %1737, align 4
  br label %1738

1738:                                             ; preds = %1707
  %1739 = add nsw i32 %.0110, 1
  br label %1704

1740:                                             ; preds = %1704
  br label %1741

1741:                                             ; preds = %1740, %1680
  br label %1742

1742:                                             ; preds = %1741, %1460
  %.1120 = phi i32 [ %.0119, %1460 ], [ %.0121, %1741 ]
  %.1674 = phi float [ %1454, %1460 ], [ %.1573, %1741 ]
  %.19 = phi float [ %.0123, %1460 ], [ %.18, %1741 ]
  %.1538 = phi float [ %.0122, %1460 ], [ %.1437, %1741 ]
  br label %1743

1743:                                             ; preds = %1742
  %1744 = add nsw i32 %.0121, -1
  br label %1407

1745:                                             ; preds = %1407
  br label %1746

1746:                                             ; preds = %1745, %1272
  %.1775 = phi float [ %.1573, %1745 ], [ %.1270, %1272 ]
  %.20 = phi float [ %.18, %1745 ], [ %.1555, %1272 ]
  %.1639 = phi float [ %.1437, %1745 ], [ %.1134, %1272 ]
  br label %1747

1747:                                             ; preds = %1746, %1271
  %.1876 = phi float [ %.1371, %1271 ], [ %.1775, %1746 ]
  %.21 = phi float [ %.1656, %1271 ], [ %.20, %1746 ]
  %.17 = phi float [ %.1235, %1271 ], [ %.1639, %1746 ]
  br label %1748

1748:                                             ; preds = %1747
  %1749 = load i32, i32* %2, align 4
  %1750 = add nsw i32 %1749, -1
  store i32 %1750, i32* %2, align 4
  br label %1067

1751:                                             ; preds = %1067
  br label %1752

1752:                                             ; preds = %1778, %1751
  %.03 = phi i32 [ 0, %1751 ], [ %1779, %1778 ]
  %1753 = icmp slt i32 %.03, %11
  br i1 %1753, label %1754, label %1780

1754:                                             ; preds = %1752
  %1755 = icmp slt i32 %.03, 0
  br i1 %1755, label %1759, label %1756

1756:                                             ; preds = %1754
  %1757 = load i32, i32* %3, align 4
  %1758 = icmp sgt i32 %.03, %1757
  br i1 %1758, label %1759, label %1777

1759:                                             ; preds = %1756, %1754
  br label %1760

1760:                                             ; preds = %1774, %1759
  %.02 = phi i32 [ %.03, %1759 ], [ %1775, %1774 ]
  %1761 = icmp slt i32 %.02, %11
  br i1 %1761, label %1762, label %1776

1762:                                             ; preds = %1760
  %1763 = getelementptr inbounds %struct.sEigenvalue, %struct.sEigenvalue* %0, i32 0, i32 5
  %1764 = sext i32 %.03 to i64
  %1765 = getelementptr inbounds [3 x [3 x float]], [3 x [3 x float]]* %1763, i64 0, i64 %1764
  %1766 = sext i32 %.02 to i64
  %1767 = getelementptr inbounds [3 x float], [3 x float]* %1765, i64 0, i64 %1766
  %1768 = load float, float* %1767, align 4
  %1769 = getelementptr inbounds %struct.sEigenvalue, %struct.sEigenvalue* %0, i32 0, i32 4
  %1770 = sext i32 %.03 to i64
  %1771 = getelementptr inbounds [3 x [3 x float]], [3 x [3 x float]]* %1769, i64 0, i64 %1770
  %1772 = sext i32 %.02 to i64
  %1773 = getelementptr inbounds [3 x float], [3 x float]* %1771, i64 0, i64 %1772
  store float %1768, float* %1773, align 4
  br label %1774

1774:                                             ; preds = %1762
  %1775 = add nsw i32 %.02, 1
  br label %1760

1776:                                             ; preds = %1760
  br label %1777

1777:                                             ; preds = %1776, %1756
  br label %1778

1778:                                             ; preds = %1777
  %1779 = add nsw i32 %.03, 1
  br label %1752

1780:                                             ; preds = %1752
  %1781 = sub nsw i32 %11, 1
  store i32 %1781, i32* %9, align 4
  br label %1782

1782:                                             ; preds = %1822, %1780
  %1783 = load i32, i32* %9, align 4
  %1784 = icmp sge i32 %1783, 0
  br i1 %1784, label %1785, label %1825

1785:                                             ; preds = %1782
  br label %1786

1786:                                             ; preds = %1819, %1785
  %.01 = phi i32 [ 0, %1785 ], [ %1820, %1819 ]
  %1787 = load i32, i32* %3, align 4
  %1788 = icmp sle i32 %.01, %1787
  br i1 %1788, label %1789, label %1821

1789:                                             ; preds = %1786
  br label %1790

1790:                                             ; preds = %1810, %1789
  %.1977 = phi float [ 0.000000e+00, %1789 ], [ %1809, %1810 ]
  %.0 = phi i32 [ 0, %1789 ], [ %1811, %1810 ]
  %1791 = call dereferenceable(4) i32* @_ZSt3minIiERKT_S2_S2_(i32* dereferenceable(4) %9, i32* dereferenceable(4) %3)
  %1792 = load i32, i32* %1791, align 4
  %1793 = icmp sle i32 %.0, %1792
  br i1 %1793, label %1794, label %1812

1794:                                             ; preds = %1790
  %1795 = getelementptr inbounds %struct.sEigenvalue, %struct.sEigenvalue* %0, i32 0, i32 4
  %1796 = sext i32 %.01 to i64
  %1797 = getelementptr inbounds [3 x [3 x float]], [3 x [3 x float]]* %1795, i64 0, i64 %1796
  %1798 = sext i32 %.0 to i64
  %1799 = getelementptr inbounds [3 x float], [3 x float]* %1797, i64 0, i64 %1798
  %1800 = load float, float* %1799, align 4
  %1801 = getelementptr inbounds %struct.sEigenvalue, %struct.sEigenvalue* %0, i32 0, i32 5
  %1802 = sext i32 %.0 to i64
  %1803 = getelementptr inbounds [3 x [3 x float]], [3 x [3 x float]]* %1801, i64 0, i64 %1802
  %1804 = load i32, i32* %9, align 4
  %1805 = sext i32 %1804 to i64
  %1806 = getelementptr inbounds [3 x float], [3 x float]* %1803, i64 0, i64 %1805
  %1807 = load float, float* %1806, align 4
  %1808 = fmul float %1800, %1807
  %1809 = fadd float %.1977, %1808
  br label %1810

1810:                                             ; preds = %1794
  %1811 = add nsw i32 %.0, 1
  br label %1790

1812:                                             ; preds = %1790
  %1813 = getelementptr inbounds %struct.sEigenvalue, %struct.sEigenvalue* %0, i32 0, i32 4
  %1814 = sext i32 %.01 to i64
  %1815 = getelementptr inbounds [3 x [3 x float]], [3 x [3 x float]]* %1813, i64 0, i64 %1814
  %1816 = load i32, i32* %9, align 4
  %1817 = sext i32 %1816 to i64
  %1818 = getelementptr inbounds [3 x float], [3 x float]* %1815, i64 0, i64 %1817
  store float %.1977, float* %1818, align 4
  br label %1819

1819:                                             ; preds = %1812
  %1820 = add nsw i32 %.01, 1
  br label %1786

1821:                                             ; preds = %1786
  br label %1822

1822:                                             ; preds = %1821
  %1823 = load i32, i32* %9, align 4
  %1824 = add nsw i32 %1823, -1
  store i32 %1824, i32* %9, align 4
  br label %1782

1825:                                             ; preds = %1782, %1064, %75
  ret void
}

; Function Attrs: noinline nounwind uwtable
define linkonce_odr dereferenceable(4) i32* @_ZSt3maxIiERKT_S2_S2_(i32* dereferenceable(4) %0, i32* dereferenceable(4) %1) #1 comdat {
  %3 = load i32, i32* %0, align 4
  %4 = load i32, i32* %1, align 4
  %5 = icmp slt i32 %3, %4
  br i1 %5, label %6, label %7

6:                                                ; preds = %2
  br label %8

7:                                                ; preds = %2
  br label %8

8:                                                ; preds = %7, %6
  %.0 = phi i32* [ %1, %6 ], [ %0, %7 ]
  ret i32* %.0
}

; Function Attrs: noinline nounwind uwtable
define linkonce_odr dereferenceable(4) i32* @_ZSt3minIiERKT_S2_S2_(i32* dereferenceable(4) %0, i32* dereferenceable(4) %1) #1 comdat {
  %3 = load i32, i32* %1, align 4
  %4 = load i32, i32* %0, align 4
  %5 = icmp slt i32 %3, %4
  br i1 %5, label %6, label %7

6:                                                ; preds = %2
  br label %8

7:                                                ; preds = %2
  br label %8

8:                                                ; preds = %7, %6
  %.0 = phi i32* [ %1, %6 ], [ %0, %7 ]
  ret i32* %.0
}

; Function Attrs: noinline uwtable
define i32 @_Z21computeEigenvalues3x3PfPA3_f(float* %0, [3 x float]* %1) #0 {
  %3 = alloca %struct.sEigenvalue, align 4
  %4 = getelementptr inbounds %struct.sEigenvalue, %struct.sEigenvalue* %3, i32 0, i32 0
  store i32 3, i32* %4, align 4
  br label %5

5:                                                ; preds = %25, %2
  %.03 = phi i32 [ 0, %2 ], [ %26, %25 ]
  %6 = icmp slt i32 %.03, 3
  br i1 %6, label %7, label %27

7:                                                ; preds = %5
  %8 = getelementptr inbounds %struct.sEigenvalue, %struct.sEigenvalue* %3, i32 0, i32 2
  %9 = sext i32 %.03 to i64
  %10 = getelementptr inbounds [3 x float], [3 x float]* %8, i64 0, i64 %9
  store float 0.000000e+00, float* %10, align 4
  %11 = getelementptr inbounds %struct.sEigenvalue, %struct.sEigenvalue* %3, i32 0, i32 3
  %12 = sext i32 %.03 to i64
  %13 = getelementptr inbounds [3 x float], [3 x float]* %11, i64 0, i64 %12
  store float 0.000000e+00, float* %13, align 4
  br label %14

14:                                               ; preds = %22, %7
  %.04 = phi i32 [ 0, %7 ], [ %23, %22 ]
  %15 = icmp slt i32 %.04, 3
  br i1 %15, label %16, label %24

16:                                               ; preds = %14
  %17 = getelementptr inbounds %struct.sEigenvalue, %struct.sEigenvalue* %3, i32 0, i32 4
  %18 = sext i32 %.03 to i64
  %19 = getelementptr inbounds [3 x [3 x float]], [3 x [3 x float]]* %17, i64 0, i64 %18
  %20 = sext i32 %.04 to i64
  %21 = getelementptr inbounds [3 x float], [3 x float]* %19, i64 0, i64 %20
  store float 0.000000e+00, float* %21, align 4
  br label %22

22:                                               ; preds = %16
  %23 = add nsw i32 %.04, 1
  br label %14

24:                                               ; preds = %14
  br label %25

25:                                               ; preds = %24
  %26 = add nsw i32 %.03, 1
  br label %5

27:                                               ; preds = %5
  %28 = getelementptr inbounds %struct.sEigenvalue, %struct.sEigenvalue* %3, i32 0, i32 1
  store i32 1, i32* %28, align 4
  br label %29

29:                                               ; preds = %63, %27
  %.05 = phi i32 [ 0, %27 ], [ %64, %63 ]
  %30 = icmp slt i32 %.05, 3
  br i1 %30, label %31, label %35

31:                                               ; preds = %29
  %32 = getelementptr inbounds %struct.sEigenvalue, %struct.sEigenvalue* %3, i32 0, i32 1
  %33 = load i32, i32* %32, align 4
  %34 = icmp ne i32 %33, 0
  br label %35

35:                                               ; preds = %31, %29
  %36 = phi i1 [ false, %29 ], [ %34, %31 ]
  br i1 %36, label %37, label %65

37:                                               ; preds = %35
  br label %38

38:                                               ; preds = %60, %37
  %.06 = phi i32 [ 0, %37 ], [ %61, %60 ]
  %39 = icmp slt i32 %.06, 3
  br i1 %39, label %40, label %44

40:                                               ; preds = %38
  %41 = getelementptr inbounds %struct.sEigenvalue, %struct.sEigenvalue* %3, i32 0, i32 1
  %42 = load i32, i32* %41, align 4
  %43 = icmp ne i32 %42, 0
  br label %44

44:                                               ; preds = %40, %38
  %45 = phi i1 [ false, %38 ], [ %43, %40 ]
  br i1 %45, label %46, label %62

46:                                               ; preds = %44
  %47 = sext i32 %.06 to i64
  %48 = getelementptr inbounds [3 x float], [3 x float]* %1, i64 %47
  %49 = sext i32 %.05 to i64
  %50 = getelementptr inbounds [3 x float], [3 x float]* %48, i64 0, i64 %49
  %51 = load float, float* %50, align 4
  %52 = sext i32 %.05 to i64
  %53 = getelementptr inbounds [3 x float], [3 x float]* %1, i64 %52
  %54 = sext i32 %.06 to i64
  %55 = getelementptr inbounds [3 x float], [3 x float]* %53, i64 0, i64 %54
  %56 = load float, float* %55, align 4
  %57 = fcmp oeq float %51, %56
  %58 = zext i1 %57 to i32
  %59 = getelementptr inbounds %struct.sEigenvalue, %struct.sEigenvalue* %3, i32 0, i32 1
  store i32 %58, i32* %59, align 4
  br label %60

60:                                               ; preds = %46
  %61 = add nsw i32 %.06, 1
  br label %38

62:                                               ; preds = %44
  br label %63

63:                                               ; preds = %62
  %64 = add nsw i32 %.05, 1
  br label %29

65:                                               ; preds = %35
  %66 = getelementptr inbounds %struct.sEigenvalue, %struct.sEigenvalue* %3, i32 0, i32 1
  %67 = load i32, i32* %66, align 4
  %68 = icmp ne i32 %67, 0
  br i1 %68, label %69, label %92

69:                                               ; preds = %65
  br label %70

70:                                               ; preds = %89, %69
  %.07 = phi i32 [ 0, %69 ], [ %90, %89 ]
  %71 = icmp slt i32 %.07, 3
  br i1 %71, label %72, label %91

72:                                               ; preds = %70
  br label %73

73:                                               ; preds = %86, %72
  %.08 = phi i32 [ 0, %72 ], [ %87, %86 ]
  %74 = icmp slt i32 %.08, 3
  br i1 %74, label %75, label %88

75:                                               ; preds = %73
  %76 = sext i32 %.07 to i64
  %77 = getelementptr inbounds [3 x float], [3 x float]* %1, i64 %76
  %78 = sext i32 %.08 to i64
  %79 = getelementptr inbounds [3 x float], [3 x float]* %77, i64 0, i64 %78
  %80 = load float, float* %79, align 4
  %81 = getelementptr inbounds %struct.sEigenvalue, %struct.sEigenvalue* %3, i32 0, i32 4
  %82 = sext i32 %.07 to i64
  %83 = getelementptr inbounds [3 x [3 x float]], [3 x [3 x float]]* %81, i64 0, i64 %82
  %84 = sext i32 %.08 to i64
  %85 = getelementptr inbounds [3 x float], [3 x float]* %83, i64 0, i64 %84
  store float %80, float* %85, align 4
  br label %86

86:                                               ; preds = %75
  %87 = add nsw i32 %.08, 1
  br label %73

88:                                               ; preds = %73
  br label %89

89:                                               ; preds = %88
  %90 = add nsw i32 %.07, 1
  br label %70

91:                                               ; preds = %70
  call void @_Z10Eigentred2R11sEigenvalue(%struct.sEigenvalue* dereferenceable(124) %3)
  call void @_Z9Eigentql2R11sEigenvalue(%struct.sEigenvalue* dereferenceable(124) %3)
  br label %135

92:                                               ; preds = %65
  br label %93

93:                                               ; preds = %110, %92
  %.09 = phi i32 [ 0, %92 ], [ %111, %110 ]
  %94 = icmp slt i32 %.09, 3
  br i1 %94, label %95, label %112

95:                                               ; preds = %93
  %96 = getelementptr inbounds %struct.sEigenvalue, %struct.sEigenvalue* %3, i32 0, i32 6
  %97 = sext i32 %.09 to i64
  %98 = getelementptr inbounds [3 x float], [3 x float]* %96, i64 0, i64 %97
  store float 0.000000e+00, float* %98, align 4
  br label %99

99:                                               ; preds = %107, %95
  %.02 = phi i32 [ 0, %95 ], [ %108, %107 ]
  %100 = icmp slt i32 %.02, 3
  br i1 %100, label %101, label %109

101:                                              ; preds = %99
  %102 = getelementptr inbounds %struct.sEigenvalue, %struct.sEigenvalue* %3, i32 0, i32 5
  %103 = sext i32 %.09 to i64
  %104 = getelementptr inbounds [3 x [3 x float]], [3 x [3 x float]]* %102, i64 0, i64 %103
  %105 = sext i32 %.02 to i64
  %106 = getelementptr inbounds [3 x float], [3 x float]* %104, i64 0, i64 %105
  store float 0.000000e+00, float* %106, align 4
  br label %107

107:                                              ; preds = %101
  %108 = add nsw i32 %.02, 1
  br label %99

109:                                              ; preds = %99
  br label %110

110:                                              ; preds = %109
  %111 = add nsw i32 %.09, 1
  br label %93

112:                                              ; preds = %93
  br label %113

113:                                              ; preds = %132, %112
  %.01 = phi i32 [ 0, %112 ], [ %133, %132 ]
  %114 = icmp slt i32 %.01, 3
  br i1 %114, label %115, label %134

115:                                              ; preds = %113
  br label %116

116:                                              ; preds = %129, %115
  %.0 = phi i32 [ 0, %115 ], [ %130, %129 ]
  %117 = icmp slt i32 %.0, 3
  br i1 %117, label %118, label %131

118:                                              ; preds = %116
  %119 = sext i32 %.0 to i64
  %120 = getelementptr inbounds [3 x float], [3 x float]* %1, i64 %119
  %121 = sext i32 %.01 to i64
  %122 = getelementptr inbounds [3 x float], [3 x float]* %120, i64 0, i64 %121
  %123 = load float, float* %122, align 4
  %124 = getelementptr inbounds %struct.sEigenvalue, %struct.sEigenvalue* %3, i32 0, i32 5
  %125 = sext i32 %.0 to i64
  %126 = getelementptr inbounds [3 x [3 x float]], [3 x [3 x float]]* %124, i64 0, i64 %125
  %127 = sext i32 %.01 to i64
  %128 = getelementptr inbounds [3 x float], [3 x float]* %126, i64 0, i64 %127
  store float %123, float* %128, align 4
  br label %129

129:                                              ; preds = %118
  %130 = add nsw i32 %.0, 1
  br label %116

131:                                              ; preds = %116
  br label %132

132:                                              ; preds = %131
  %133 = add nsw i32 %.01, 1
  br label %113

134:                                              ; preds = %113
  call void @_Z11EigenorthesR11sEigenvalue(%struct.sEigenvalue* dereferenceable(124) %3)
  call void @_Z9Eigenhqr2R11sEigenvalue(%struct.sEigenvalue* dereferenceable(124) %3)
  br label %135

135:                                              ; preds = %134, %91
  %136 = getelementptr inbounds %struct.sEigenvalue, %struct.sEigenvalue* %3, i32 0, i32 2
  %137 = getelementptr inbounds [3 x float], [3 x float]* %136, i64 0, i64 0
  %138 = load float, float* %137, align 4
  %139 = getelementptr inbounds %struct.sEigenvalue, %struct.sEigenvalue* %3, i32 0, i32 2
  %140 = getelementptr inbounds [3 x float], [3 x float]* %139, i64 0, i64 0
  %141 = load float, float* %140, align 4
  %142 = fmul float %138, %141
  %143 = getelementptr inbounds %struct.sEigenvalue, %struct.sEigenvalue* %3, i32 0, i32 3
  %144 = getelementptr inbounds [3 x float], [3 x float]* %143, i64 0, i64 0
  %145 = load float, float* %144, align 4
  %146 = getelementptr inbounds %struct.sEigenvalue, %struct.sEigenvalue* %3, i32 0, i32 3
  %147 = getelementptr inbounds [3 x float], [3 x float]* %146, i64 0, i64 0
  %148 = load float, float* %147, align 4
  %149 = fmul float %145, %148
  %150 = fadd float %142, %149
  %151 = call float @_ZSt4sqrtf(float %150)
  %152 = getelementptr inbounds float, float* %0, i64 0
  store float %151, float* %152, align 4
  %153 = getelementptr inbounds %struct.sEigenvalue, %struct.sEigenvalue* %3, i32 0, i32 2
  %154 = getelementptr inbounds [3 x float], [3 x float]* %153, i64 0, i64 1
  %155 = load float, float* %154, align 4
  %156 = getelementptr inbounds %struct.sEigenvalue, %struct.sEigenvalue* %3, i32 0, i32 2
  %157 = getelementptr inbounds [3 x float], [3 x float]* %156, i64 0, i64 1
  %158 = load float, float* %157, align 4
  %159 = fmul float %155, %158
  %160 = getelementptr inbounds %struct.sEigenvalue, %struct.sEigenvalue* %3, i32 0, i32 3
  %161 = getelementptr inbounds [3 x float], [3 x float]* %160, i64 0, i64 1
  %162 = load float, float* %161, align 4
  %163 = getelementptr inbounds %struct.sEigenvalue, %struct.sEigenvalue* %3, i32 0, i32 3
  %164 = getelementptr inbounds [3 x float], [3 x float]* %163, i64 0, i64 1
  %165 = load float, float* %164, align 4
  %166 = fmul float %162, %165
  %167 = fadd float %159, %166
  %168 = call float @_ZSt4sqrtf(float %167)
  %169 = getelementptr inbounds float, float* %0, i64 1
  store float %168, float* %169, align 4
  %170 = getelementptr inbounds %struct.sEigenvalue, %struct.sEigenvalue* %3, i32 0, i32 2
  %171 = getelementptr inbounds [3 x float], [3 x float]* %170, i64 0, i64 2
  %172 = load float, float* %171, align 4
  %173 = getelementptr inbounds %struct.sEigenvalue, %struct.sEigenvalue* %3, i32 0, i32 2
  %174 = getelementptr inbounds [3 x float], [3 x float]* %173, i64 0, i64 2
  %175 = load float, float* %174, align 4
  %176 = fmul float %172, %175
  %177 = getelementptr inbounds %struct.sEigenvalue, %struct.sEigenvalue* %3, i32 0, i32 3
  %178 = getelementptr inbounds [3 x float], [3 x float]* %177, i64 0, i64 2
  %179 = load float, float* %178, align 4
  %180 = getelementptr inbounds %struct.sEigenvalue, %struct.sEigenvalue* %3, i32 0, i32 3
  %181 = getelementptr inbounds [3 x float], [3 x float]* %180, i64 0, i64 2
  %182 = load float, float* %181, align 4
  %183 = fmul float %179, %182
  %184 = fadd float %176, %183
  %185 = call float @_ZSt4sqrtf(float %184)
  %186 = getelementptr inbounds float, float* %0, i64 2
  store float %185, float* %186, align 4
  ret i32 0
}

; Function Attrs: nocallback nofree nosync nounwind readnone speculatable willreturn
declare float @llvm.fabs.f32(float) #3

; Function Attrs: nounwind
declare float @sqrtf(float) #2

; Function Attrs: nounwind
declare double @hypot(double, double) #2

; Function Attrs: nounwind
declare float @hypotf(float, float) #2

attributes #0 = { noinline uwtable "correctly-rounded-divide-sqrt-fp-math"="false" "disable-tail-calls"="false" "less-precise-fpmad"="false" "no-frame-pointer-elim"="true" "no-frame-pointer-elim-non-leaf" "no-infs-fp-math"="false" "no-jump-tables"="false" "no-nans-fp-math"="false" "no-signed-zeros-fp-math"="false" "no-trapping-math"="false" "stack-protector-buffer-size"="8" "target-cpu"="x86-64" "target-features"="+fxsr,+mmx,+sse,+sse2,+x87" "unsafe-fp-math"="false" "use-soft-float"="false" }
attributes #1 = { noinline nounwind uwtable "correctly-rounded-divide-sqrt-fp-math"="false" "disable-tail-calls"="false" "less-precise-fpmad"="false" "no-frame-pointer-elim"="true" "no-frame-pointer-elim-non-leaf" "no-infs-fp-math"="false" "no-jump-tables"="false" "no-nans-fp-math"="false" "no-signed-zeros-fp-math"="false" "no-trapping-math"="false" "stack-protector-buffer-size"="8" "target-cpu"="x86-64" "target-features"="+fxsr,+mmx,+sse,+sse2,+x87" "unsafe-fp-math"="false" "use-soft-float"="false" }
attributes #2 = { nounwind "correctly-rounded-divide-sqrt-fp-math"="false" "disable-tail-calls"="false" "less-precise-fpmad"="false" "no-frame-pointer-elim"="true" "no-frame-pointer-elim-non-leaf" "no-infs-fp-math"="false" "no-nans-fp-math"="false" "no-signed-zeros-fp-math"="false" "no-trapping-math"="false" "stack-protector-buffer-size"="8" "target-cpu"="x86-64" "target-features"="+fxsr,+mmx,+sse,+sse2,+x87" "unsafe-fp-math"="false" "use-soft-float"="false" }
attributes #3 = { nocallback nofree nosync nounwind readnone speculatable willreturn }
attributes #4 = { nounwind }

!llvm.module.flags = !{!0}
!llvm.ident = !{!1}

!0 = !{i32 1, !"wchar_size", i32 4}
!1 = !{!"clang version 6.0.0-1ubuntu2 (tags/RELEASE_600/final)"}
