; ModuleID = '/home/pedro/tcc/exDataset/sample/sample/cpp-courses-master/09_lambda/09_09_performance_questions/09_09_00_performance_questions.ll'
source_filename = "/home/pedro/tcc/exDataset/sample/sample/cpp-courses-master/09_lambda/09_09_performance_questions/09_09_00_performance_questions.cpp"
target datalayout = "e-m:e-i64:64-f80:128-n8:16:32:64-S128"
target triple = "x86_64-pc-linux-gnu"

%"class.std::ios_base::Init" = type { i8 }
%"class.std::basic_ostream" = type { i32 (...)**, %"class.std::basic_ios" }
%"class.std::basic_ios" = type { %"class.std::ios_base", %"class.std::basic_ostream"*, i8, i8, %"class.std::basic_streambuf"*, %"class.std::ctype"*, %"class.std::num_put"*, %"class.std::num_get"* }
%"class.std::ios_base" = type { i32 (...)**, i64, i64, i32, i32, i32, %"struct.std::ios_base::_Callback_list"*, %"struct.std::ios_base::_Words", [8 x %"struct.std::ios_base::_Words"], i32, %"struct.std::ios_base::_Words"*, %"class.std::locale" }
%"struct.std::ios_base::_Callback_list" = type { %"struct.std::ios_base::_Callback_list"*, void (i32, %"class.std::ios_base"*, i32)*, i32, i32 }
%"struct.std::ios_base::_Words" = type { i8*, i64 }
%"class.std::locale" = type { %"class.std::locale::_Impl"* }
%"class.std::locale::_Impl" = type { i32, %"class.std::locale::facet"**, i64, %"class.std::locale::facet"**, i8** }
%"class.std::locale::facet" = type <{ i32 (...)**, i32, [4 x i8] }>
%"class.std::basic_streambuf" = type { i32 (...)**, i8*, i8*, i8*, i8*, i8*, i8*, %"class.std::locale" }
%"class.std::ctype" = type <{ %"class.std::locale::facet.base", [4 x i8], %struct.__locale_struct*, i8, [7 x i8], i32*, i32*, i16*, i8, [256 x i8], [256 x i8], i8, [6 x i8] }>
%"class.std::locale::facet.base" = type <{ i32 (...)**, i32 }>
%struct.__locale_struct = type { [13 x %struct.__locale_data*], i16*, i32*, i32*, [13 x i8*] }
%struct.__locale_data = type opaque
%"class.std::num_put" = type { %"class.std::locale::facet.base", [4 x i8] }
%"class.std::num_get" = type { %"class.std::locale::facet.base", [4 x i8] }
%"class.std::vector" = type { %"struct.std::_Vector_base" }
%"struct.std::_Vector_base" = type { %"struct.std::_Vector_base<int, std::allocator<int> >::_Vector_impl" }
%"struct.std::_Vector_base<int, std::allocator<int> >::_Vector_impl" = type { i32*, i32*, i32* }
%"class.std::allocator" = type { i8 }
%"class.std::function" = type { %"class.std::_Function_base", void (%"union.std::_Any_data"*, i32*)* }
%"class.std::_Function_base" = type { %"union.std::_Any_data", i1 (%"union.std::_Any_data"*, %"union.std::_Any_data"*, i32)* }
%"union.std::_Any_data" = type { %"union.std::_Nocopy_types" }
%"union.std::_Nocopy_types" = type { { i64, i64 } }
%"struct.std::chrono::time_point" = type { %"struct.std::chrono::duration" }
%"struct.std::chrono::duration" = type { i64 }
%"class.__gnu_cxx::__normal_iterator" = type { i32* }
%"struct.std::chrono::duration.0" = type { i64 }
%"class.__gnu_cxx::new_allocator" = type { i8 }
%"struct.std::_Maybe_unary_or_binary_function" = type { i8 }
%class.anon = type { i8 }
%"class.std::type_info" = type { i32 (...)**, i8* }

$_ZNSaIiEC2Ev = comdat any

$_ZNSt6vectorIiSaIiEEC2EmRKiRKS0_ = comdat any

$_ZNSaIiED2Ev = comdat any

$_ZNSt8functionIFviEEC2IPS0_vvEET_ = comdat any

$_ZNSt6vectorIiSaIiEE5beginEv = comdat any

$_ZNSt6vectorIiSaIiEE3endEv = comdat any

$_ZNSt6chrono13duration_castINS_8durationIlSt5ratioILl1ELl1000EEEElS2_ILl1ELl1000000000EEEENSt9enable_ifIXsr13__is_durationIT_EE5valueES7_E4typeERKNS1_IT0_T1_EE = comdat any

$_ZNSt6chronomiINS_3_V212system_clockENS_8durationIlSt5ratioILl1ELl1000000000EEEES6_EENSt11common_typeIJT0_T1_EE4typeERKNS_10time_pointIT_S8_EERKNSC_ISD_S9_EE = comdat any

$_ZNKSt6chrono8durationIlSt5ratioILl1ELl1000EEE5countEv = comdat any

$_ZSt8for_eachIN9__gnu_cxx17__normal_iteratorIPiSt6vectorIiSaIiEEEEPFviEET0_T_SA_S9_ = comdat any

$_ZNSt8functionIFviEED2Ev = comdat any

$_ZNSt6vectorIiSaIiEED2Ev = comdat any

$_ZNSt6chrono20__duration_cast_implINS_8durationIlSt5ratioILl1ELl1000EEEES2_ILl1ELl1000000EElLb1ELb0EE6__castIlS2_ILl1ELl1000000000EEEES4_RKNS1_IT_T0_EE = comdat any

$_ZNKSt6chrono8durationIlSt5ratioILl1ELl1000000000EEE5countEv = comdat any

$_ZNSt6chrono8durationIlSt5ratioILl1ELl1000EEEC2IlvEERKT_ = comdat any

$_ZNSt6chronomiIlSt5ratioILl1ELl1000000000EElS2_EENSt11common_typeIJNS_8durationIT_T0_EENS4_IT1_T2_EEEE4typeERKS7_RKSA_ = comdat any

$_ZNKSt6chrono10time_pointINS_3_V212system_clockENS_8durationIlSt5ratioILl1ELl1000000000EEEEE16time_since_epochEv = comdat any

$_ZNSt6chrono8durationIlSt5ratioILl1ELl1000000000EEEC2IlvEERKT_ = comdat any

$_ZNSt14_Function_baseD2Ev = comdat any

$__clang_call_terminate = comdat any

$_ZN9__gnu_cxx13new_allocatorIiEC2Ev = comdat any

$_ZN9__gnu_cxx13new_allocatorIiED2Ev = comdat any

$_ZNSt12_Vector_baseIiSaIiEEC2EmRKS0_ = comdat any

$_ZNSt6vectorIiSaIiEE18_M_fill_initializeEmRKi = comdat any

$_ZNSt12_Vector_baseIiSaIiEED2Ev = comdat any

$_ZNSt12_Vector_baseIiSaIiEE12_Vector_implC2ERKS0_ = comdat any

$_ZNSt12_Vector_baseIiSaIiEE17_M_create_storageEm = comdat any

$_ZNSt12_Vector_baseIiSaIiEE12_Vector_implD2Ev = comdat any

$_ZNSaIiEC2ERKS_ = comdat any

$_ZN9__gnu_cxx13new_allocatorIiEC2ERKS1_ = comdat any

$_ZNSt12_Vector_baseIiSaIiEE11_M_allocateEm = comdat any

$_ZNSt16allocator_traitsISaIiEE8allocateERS0_m = comdat any

$_ZN9__gnu_cxx13new_allocatorIiE8allocateEmPKv = comdat any

$_ZNK9__gnu_cxx13new_allocatorIiE8max_sizeEv = comdat any

$_ZSt24__uninitialized_fill_n_aIPimiiET_S1_T0_RKT1_RSaIT2_E = comdat any

$_ZNSt12_Vector_baseIiSaIiEE19_M_get_Tp_allocatorEv = comdat any

$_ZSt20uninitialized_fill_nIPimiET_S1_T0_RKT1_ = comdat any

$_ZNSt22__uninitialized_fill_nILb1EE15__uninit_fill_nIPimiEET_S3_T0_RKT1_ = comdat any

$_ZSt6fill_nIPimiET_S1_T0_RKT1_ = comdat any

$_ZSt10__fill_n_aIPimiEN9__gnu_cxx11__enable_ifIXsr11__is_scalarIT1_EE7__valueET_E6__typeES4_T0_RKS3_ = comdat any

$_ZSt12__niter_baseIPiET_S1_ = comdat any

$_ZNSt12_Vector_baseIiSaIiEE13_M_deallocateEPim = comdat any

$_ZNSt16allocator_traitsISaIiEE10deallocateERS0_Pim = comdat any

$_ZN9__gnu_cxx13new_allocatorIiE10deallocateEPim = comdat any

$_ZSt8_DestroyIPiiEvT_S1_RSaIT0_E = comdat any

$_ZSt8_DestroyIPiEvT_S1_ = comdat any

$_ZNSt12_Destroy_auxILb1EE9__destroyIPiEEvT_S3_ = comdat any

$_ZNSt14_Function_baseC2Ev = comdat any

$_ZNSt14_Function_base13_Base_managerIPFviEE21_M_not_empty_functionIS1_EEbPT_ = comdat any

$_ZNSt14_Function_base13_Base_managerIPFviEE15_M_init_functorERSt9_Any_dataOS2_ = comdat any

$_ZSt4moveIRPFviEEONSt16remove_referenceIT_E4typeEOS4_ = comdat any

$_ZNSt17_Function_handlerIFviEPS0_E9_M_invokeERKSt9_Any_dataOi = comdat any

$_ZNSt14_Function_base13_Base_managerIPFviEE10_M_managerERSt9_Any_dataRKS4_St18_Manager_operation = comdat any

$_ZNSt14_Function_base13_Base_managerIPFviEE15_M_init_functorERSt9_Any_dataOS2_St17integral_constantIbLb1EE = comdat any

$_ZNSt9_Any_data9_M_accessEv = comdat any

$_ZNSt14_Function_base13_Base_managerIPFviEE14_M_get_pointerERKSt9_Any_data = comdat any

$_ZSt7forwardIiEOT_RNSt16remove_referenceIS0_E4typeE = comdat any

$_ZSt11__addressofIKPFviEEPT_RS3_ = comdat any

$_ZNKSt9_Any_data9_M_accessIPFviEEERKT_v = comdat any

$_ZNKSt9_Any_data9_M_accessEv = comdat any

$_ZNSt9_Any_data9_M_accessIPKSt9type_infoEERT_v = comdat any

$_ZNSt9_Any_data9_M_accessIPPFviEEERT_v = comdat any

$_ZNSt14_Function_base13_Base_managerIPFviEE8_M_cloneERSt9_Any_dataRKS4_St17integral_constantIbLb1EE = comdat any

$_ZNSt14_Function_base13_Base_managerIPFviEE10_M_destroyERSt9_Any_dataSt17integral_constantIbLb1EE = comdat any

$_ZNSt9_Any_data9_M_accessIPFviEEERT_v = comdat any

$_ZN9__gnu_cxx17__normal_iteratorIPiSt6vectorIiSaIiEEEC2ERKS1_ = comdat any

$_ZN9__gnu_cxxneIPiSt6vectorIiSaIiEEEEbRKNS_17__normal_iteratorIT_T0_EESA_ = comdat any

$_ZNK9__gnu_cxx17__normal_iteratorIPiSt6vectorIiSaIiEEEdeEv = comdat any

$_ZN9__gnu_cxx17__normal_iteratorIPiSt6vectorIiSaIiEEEppEv = comdat any

$_ZNK9__gnu_cxx17__normal_iteratorIPiSt6vectorIiSaIiEEE4baseEv = comdat any

$_ZTSPFviE = comdat any

$_ZTSFviE = comdat any

$_ZTIFviE = comdat any

$_ZTIPFviE = comdat any

@_ZStL8__ioinit = internal global %"class.std::ios_base::Init" zeroinitializer, align 1
@__dso_handle = external hidden global i8
@x = global i32 0, align 4
@_ZSt4cout = external global %"class.std::basic_ostream", align 8
@_ZTVN10__cxxabiv119__pointer_type_infoE = external global i8*
@_ZTSPFviE = linkonce_odr constant [6 x i8] c"PFviE\00", comdat
@_ZTVN10__cxxabiv120__function_type_infoE = external global i8*
@_ZTSFviE = linkonce_odr constant [5 x i8] c"FviE\00", comdat
@_ZTIFviE = linkonce_odr constant { i8*, i8* } { i8* bitcast (i8** getelementptr inbounds (i8*, i8** @_ZTVN10__cxxabiv120__function_type_infoE, i64 2) to i8*), i8* getelementptr inbounds ([5 x i8], [5 x i8]* @_ZTSFviE, i32 0, i32 0) }, comdat
@_ZTIPFviE = linkonce_odr constant { i8*, i8*, i32, i8* } { i8* bitcast (i8** getelementptr inbounds (i8*, i8** @_ZTVN10__cxxabiv119__pointer_type_infoE, i64 2) to i8*), i8* getelementptr inbounds ([6 x i8], [6 x i8]* @_ZTSPFviE, i32 0, i32 0), i32 0, i8* bitcast ({ i8*, i8* }* @_ZTIFviE to i8*) }, comdat
@llvm.global_ctors = appending global [1 x { i32, void ()*, i8* }] [{ i32, void ()*, i8* } { i32 65535, void ()* @_GLOBAL__sub_I_09_09_00_performance_questions.cpp, i8* null }]

; Function Attrs: noinline uwtable
define internal void @__cxx_global_var_init() #0 section ".text.startup" {
  call void @_ZNSt8ios_base4InitC1Ev(%"class.std::ios_base::Init"* @_ZStL8__ioinit)
  %1 = call i32 @__cxa_atexit(void (i8*)* bitcast (void (%"class.std::ios_base::Init"*)* @_ZNSt8ios_base4InitD1Ev to void (i8*)*), i8* getelementptr inbounds (%"class.std::ios_base::Init", %"class.std::ios_base::Init"* @_ZStL8__ioinit, i32 0, i32 0), i8* @__dso_handle) #3
  ret void
}

declare void @_ZNSt8ios_base4InitC1Ev(%"class.std::ios_base::Init"*) unnamed_addr #1

; Function Attrs: nounwind
declare void @_ZNSt8ios_base4InitD1Ev(%"class.std::ios_base::Init"*) unnamed_addr #2

; Function Attrs: nounwind
declare i32 @__cxa_atexit(void (i8*)*, i8*, i8*) #3

; Function Attrs: noinline nounwind uwtable
define void @_Z3bari(i32 %0) #4 {
  %2 = load i32, i32* @x, align 4
  %3 = add nsw i32 %2, %0
  store i32 %3, i32* @x, align 4
  ret void
}

; Function Attrs: noinline norecurse uwtable
define i32 @main() #5 personality i8* bitcast (i32 (...)* @__gxx_personality_v0 to i8*) {
  %1 = alloca %"class.std::vector", align 8
  %2 = alloca i32, align 4
  %3 = alloca %"class.std::allocator", align 1
  %4 = alloca %"class.std::function", align 8
  %5 = alloca %"struct.std::chrono::time_point", align 8
  %6 = alloca %"class.__gnu_cxx::__normal_iterator", align 8
  %7 = alloca %"class.__gnu_cxx::__normal_iterator", align 8
  %8 = alloca %"struct.std::chrono::time_point", align 8
  %9 = alloca %"struct.std::chrono::duration.0", align 8
  %10 = alloca %"struct.std::chrono::duration", align 8
  %11 = alloca %"struct.std::chrono::time_point", align 8
  %12 = alloca %"class.__gnu_cxx::__normal_iterator", align 8
  %13 = alloca %"class.__gnu_cxx::__normal_iterator", align 8
  %14 = alloca %"struct.std::chrono::time_point", align 8
  %15 = alloca %"struct.std::chrono::duration.0", align 8
  %16 = alloca %"struct.std::chrono::duration", align 8
  store i32 1, i32* %2, align 4
  call void @_ZNSaIiEC2Ev(%"class.std::allocator"* %3) #3
  invoke void @_ZNSt6vectorIiSaIiEEC2EmRKiRKS0_(%"class.std::vector"* %1, i64 100000000, i32* dereferenceable(4) %2, %"class.std::allocator"* dereferenceable(1) %3)
          to label %17 unwind label %78

17:                                               ; preds = %0
  call void @_ZNSaIiED2Ev(%"class.std::allocator"* %3) #3
  invoke void @_ZNSt8functionIFviEEC2IPS0_vvEET_(%"class.std::function"* %4, void (i32)* @_Z3fooi)
          to label %18 unwind label %82

18:                                               ; preds = %17
  %19 = call i64 @_ZNSt6chrono3_V212system_clock3nowEv() #3
  %20 = getelementptr inbounds %"struct.std::chrono::time_point", %"struct.std::chrono::time_point"* %5, i32 0, i32 0
  %21 = getelementptr inbounds %"struct.std::chrono::duration", %"struct.std::chrono::duration"* %20, i32 0, i32 0
  store i64 %19, i64* %21, align 8
  %22 = call i32* @_ZNSt6vectorIiSaIiEE5beginEv(%"class.std::vector"* %1) #3
  %23 = getelementptr inbounds %"class.__gnu_cxx::__normal_iterator", %"class.__gnu_cxx::__normal_iterator"* %6, i32 0, i32 0
  store i32* %22, i32** %23, align 8
  %24 = call i32* @_ZNSt6vectorIiSaIiEE3endEv(%"class.std::vector"* %1) #3
  %25 = getelementptr inbounds %"class.__gnu_cxx::__normal_iterator", %"class.__gnu_cxx::__normal_iterator"* %7, i32 0, i32 0
  store i32* %24, i32** %25, align 8
  %26 = getelementptr inbounds %"class.__gnu_cxx::__normal_iterator", %"class.__gnu_cxx::__normal_iterator"* %6, i32 0, i32 0
  %27 = load i32*, i32** %26, align 8
  %28 = getelementptr inbounds %"class.__gnu_cxx::__normal_iterator", %"class.__gnu_cxx::__normal_iterator"* %7, i32 0, i32 0
  %29 = load i32*, i32** %28, align 8
  invoke void @"_ZSt8for_eachIN9__gnu_cxx17__normal_iteratorIPiSt6vectorIiSaIiEEEEZ4mainE3$_0ET0_T_S9_S8_"(i32* %27, i32* %29)
          to label %30 unwind label %86

30:                                               ; preds = %18
  %31 = call i64 @_ZNSt6chrono3_V212system_clock3nowEv() #3
  %32 = getelementptr inbounds %"struct.std::chrono::time_point", %"struct.std::chrono::time_point"* %8, i32 0, i32 0
  %33 = getelementptr inbounds %"struct.std::chrono::duration", %"struct.std::chrono::duration"* %32, i32 0, i32 0
  store i64 %31, i64* %33, align 8
  %34 = invoke i64 @_ZNSt6chronomiINS_3_V212system_clockENS_8durationIlSt5ratioILl1ELl1000000000EEEES6_EENSt11common_typeIJT0_T1_EE4typeERKNS_10time_pointIT_S8_EERKNSC_ISD_S9_EE(%"struct.std::chrono::time_point"* dereferenceable(8) %8, %"struct.std::chrono::time_point"* dereferenceable(8) %5)
          to label %35 unwind label %86

35:                                               ; preds = %30
  %36 = getelementptr inbounds %"struct.std::chrono::duration", %"struct.std::chrono::duration"* %10, i32 0, i32 0
  store i64 %34, i64* %36, align 8
  %37 = invoke i64 @_ZNSt6chrono13duration_castINS_8durationIlSt5ratioILl1ELl1000EEEElS2_ILl1ELl1000000000EEEENSt9enable_ifIXsr13__is_durationIT_EE5valueES7_E4typeERKNS1_IT0_T1_EE(%"struct.std::chrono::duration"* dereferenceable(8) %10)
          to label %38 unwind label %86

38:                                               ; preds = %35
  %39 = getelementptr inbounds %"struct.std::chrono::duration.0", %"struct.std::chrono::duration.0"* %9, i32 0, i32 0
  store i64 %37, i64* %39, align 8
  %40 = invoke i64 @_ZNKSt6chrono8durationIlSt5ratioILl1ELl1000EEE5countEv(%"struct.std::chrono::duration.0"* %9)
          to label %41 unwind label %86

41:                                               ; preds = %38
  %42 = invoke dereferenceable(272) %"class.std::basic_ostream"* @_ZNSolsEl(%"class.std::basic_ostream"* @_ZSt4cout, i64 %40)
          to label %43 unwind label %86

43:                                               ; preds = %41
  %44 = invoke dereferenceable(272) %"class.std::basic_ostream"* @_ZNSolsEPFRSoS_E(%"class.std::basic_ostream"* %42, %"class.std::basic_ostream"* (%"class.std::basic_ostream"*)* @_ZSt4endlIcSt11char_traitsIcEERSt13basic_ostreamIT_T0_ES6_)
          to label %45 unwind label %86

45:                                               ; preds = %43
  %46 = call i64 @_ZNSt6chrono3_V212system_clock3nowEv() #3
  %47 = getelementptr inbounds %"struct.std::chrono::time_point", %"struct.std::chrono::time_point"* %11, i32 0, i32 0
  %48 = getelementptr inbounds %"struct.std::chrono::duration", %"struct.std::chrono::duration"* %47, i32 0, i32 0
  store i64 %46, i64* %48, align 8
  %49 = bitcast %"struct.std::chrono::time_point"* %5 to i8*
  %50 = bitcast %"struct.std::chrono::time_point"* %11 to i8*
  call void @llvm.memcpy.p0i8.p0i8.i64(i8* align 8 %49, i8* align 8 %50, i64 8, i1 false)
  %51 = call i32* @_ZNSt6vectorIiSaIiEE5beginEv(%"class.std::vector"* %1) #3
  %52 = getelementptr inbounds %"class.__gnu_cxx::__normal_iterator", %"class.__gnu_cxx::__normal_iterator"* %12, i32 0, i32 0
  store i32* %51, i32** %52, align 8
  %53 = call i32* @_ZNSt6vectorIiSaIiEE3endEv(%"class.std::vector"* %1) #3
  %54 = getelementptr inbounds %"class.__gnu_cxx::__normal_iterator", %"class.__gnu_cxx::__normal_iterator"* %13, i32 0, i32 0
  store i32* %53, i32** %54, align 8
  %55 = getelementptr inbounds %"class.__gnu_cxx::__normal_iterator", %"class.__gnu_cxx::__normal_iterator"* %12, i32 0, i32 0
  %56 = load i32*, i32** %55, align 8
  %57 = getelementptr inbounds %"class.__gnu_cxx::__normal_iterator", %"class.__gnu_cxx::__normal_iterator"* %13, i32 0, i32 0
  %58 = load i32*, i32** %57, align 8
  %59 = invoke void (i32)* @_ZSt8for_eachIN9__gnu_cxx17__normal_iteratorIPiSt6vectorIiSaIiEEEEPFviEET0_T_SA_S9_(i32* %56, i32* %58, void (i32)* @_Z3bari)
          to label %60 unwind label %86

60:                                               ; preds = %45
  %61 = call i64 @_ZNSt6chrono3_V212system_clock3nowEv() #3
  %62 = getelementptr inbounds %"struct.std::chrono::time_point", %"struct.std::chrono::time_point"* %14, i32 0, i32 0
  %63 = getelementptr inbounds %"struct.std::chrono::duration", %"struct.std::chrono::duration"* %62, i32 0, i32 0
  store i64 %61, i64* %63, align 8
  %64 = bitcast %"struct.std::chrono::time_point"* %8 to i8*
  %65 = bitcast %"struct.std::chrono::time_point"* %14 to i8*
  call void @llvm.memcpy.p0i8.p0i8.i64(i8* align 8 %64, i8* align 8 %65, i64 8, i1 false)
  %66 = invoke i64 @_ZNSt6chronomiINS_3_V212system_clockENS_8durationIlSt5ratioILl1ELl1000000000EEEES6_EENSt11common_typeIJT0_T1_EE4typeERKNS_10time_pointIT_S8_EERKNSC_ISD_S9_EE(%"struct.std::chrono::time_point"* dereferenceable(8) %8, %"struct.std::chrono::time_point"* dereferenceable(8) %5)
          to label %67 unwind label %86

67:                                               ; preds = %60
  %68 = getelementptr inbounds %"struct.std::chrono::duration", %"struct.std::chrono::duration"* %16, i32 0, i32 0
  store i64 %66, i64* %68, align 8
  %69 = invoke i64 @_ZNSt6chrono13duration_castINS_8durationIlSt5ratioILl1ELl1000EEEElS2_ILl1ELl1000000000EEEENSt9enable_ifIXsr13__is_durationIT_EE5valueES7_E4typeERKNS1_IT0_T1_EE(%"struct.std::chrono::duration"* dereferenceable(8) %16)
          to label %70 unwind label %86

70:                                               ; preds = %67
  %71 = getelementptr inbounds %"struct.std::chrono::duration.0", %"struct.std::chrono::duration.0"* %15, i32 0, i32 0
  store i64 %69, i64* %71, align 8
  %72 = invoke i64 @_ZNKSt6chrono8durationIlSt5ratioILl1ELl1000EEE5countEv(%"struct.std::chrono::duration.0"* %15)
          to label %73 unwind label %86

73:                                               ; preds = %70
  %74 = invoke dereferenceable(272) %"class.std::basic_ostream"* @_ZNSolsEl(%"class.std::basic_ostream"* @_ZSt4cout, i64 %72)
          to label %75 unwind label %86

75:                                               ; preds = %73
  %76 = invoke dereferenceable(272) %"class.std::basic_ostream"* @_ZNSolsEPFRSoS_E(%"class.std::basic_ostream"* %74, %"class.std::basic_ostream"* (%"class.std::basic_ostream"*)* @_ZSt4endlIcSt11char_traitsIcEERSt13basic_ostreamIT_T0_ES6_)
          to label %77 unwind label %86

77:                                               ; preds = %75
  call void @_ZNSt8functionIFviEED2Ev(%"class.std::function"* %4) #3
  call void @_ZNSt6vectorIiSaIiEED2Ev(%"class.std::vector"* %1) #3
  ret i32 0

78:                                               ; preds = %0
  %79 = landingpad { i8*, i32 }
          cleanup
  %80 = extractvalue { i8*, i32 } %79, 0
  %81 = extractvalue { i8*, i32 } %79, 1
  call void @_ZNSaIiED2Ev(%"class.std::allocator"* %3) #3
  br label %91

82:                                               ; preds = %17
  %83 = landingpad { i8*, i32 }
          cleanup
  %84 = extractvalue { i8*, i32 } %83, 0
  %85 = extractvalue { i8*, i32 } %83, 1
  br label %90

86:                                               ; preds = %75, %73, %70, %67, %60, %45, %43, %41, %38, %35, %30, %18
  %87 = landingpad { i8*, i32 }
          cleanup
  %88 = extractvalue { i8*, i32 } %87, 0
  %89 = extractvalue { i8*, i32 } %87, 1
  call void @_ZNSt8functionIFviEED2Ev(%"class.std::function"* %4) #3
  br label %90

90:                                               ; preds = %86, %82
  %.01 = phi i32 [ %89, %86 ], [ %85, %82 ]
  %.0 = phi i8* [ %88, %86 ], [ %84, %82 ]
  call void @_ZNSt6vectorIiSaIiEED2Ev(%"class.std::vector"* %1) #3
  br label %91

91:                                               ; preds = %90, %78
  %.12 = phi i32 [ %.01, %90 ], [ %81, %78 ]
  %.1 = phi i8* [ %.0, %90 ], [ %80, %78 ]
  %92 = insertvalue { i8*, i32 } undef, i8* %.1, 0
  %93 = insertvalue { i8*, i32 } %92, i32 %.12, 1
  resume { i8*, i32 } %93
}

; Function Attrs: noinline nounwind uwtable
define linkonce_odr void @_ZNSaIiEC2Ev(%"class.std::allocator"* %0) unnamed_addr #4 comdat align 2 {
  %2 = bitcast %"class.std::allocator"* %0 to %"class.__gnu_cxx::new_allocator"*
  call void @_ZN9__gnu_cxx13new_allocatorIiEC2Ev(%"class.__gnu_cxx::new_allocator"* %2) #3
  ret void
}

; Function Attrs: noinline uwtable
define linkonce_odr void @_ZNSt6vectorIiSaIiEEC2EmRKiRKS0_(%"class.std::vector"* %0, i64 %1, i32* dereferenceable(4) %2, %"class.std::allocator"* dereferenceable(1) %3) unnamed_addr #0 comdat align 2 personality i8* bitcast (i32 (...)* @__gxx_personality_v0 to i8*) {
  %5 = bitcast %"class.std::vector"* %0 to %"struct.std::_Vector_base"*
  call void @_ZNSt12_Vector_baseIiSaIiEEC2EmRKS0_(%"struct.std::_Vector_base"* %5, i64 %1, %"class.std::allocator"* dereferenceable(1) %3)
  invoke void @_ZNSt6vectorIiSaIiEE18_M_fill_initializeEmRKi(%"class.std::vector"* %0, i64 %1, i32* dereferenceable(4) %2)
          to label %6 unwind label %7

6:                                                ; preds = %4
  ret void

7:                                                ; preds = %4
  %8 = landingpad { i8*, i32 }
          cleanup
  %9 = extractvalue { i8*, i32 } %8, 0
  %10 = extractvalue { i8*, i32 } %8, 1
  %11 = bitcast %"class.std::vector"* %0 to %"struct.std::_Vector_base"*
  call void @_ZNSt12_Vector_baseIiSaIiEED2Ev(%"struct.std::_Vector_base"* %11) #3
  br label %12

12:                                               ; preds = %7
  %13 = insertvalue { i8*, i32 } undef, i8* %9, 0
  %14 = insertvalue { i8*, i32 } %13, i32 %10, 1
  resume { i8*, i32 } %14
}

declare i32 @__gxx_personality_v0(...)

; Function Attrs: noinline nounwind uwtable
define linkonce_odr void @_ZNSaIiED2Ev(%"class.std::allocator"* %0) unnamed_addr #4 comdat align 2 {
  %2 = bitcast %"class.std::allocator"* %0 to %"class.__gnu_cxx::new_allocator"*
  call void @_ZN9__gnu_cxx13new_allocatorIiED2Ev(%"class.__gnu_cxx::new_allocator"* %2) #3
  ret void
}

declare void @_Z3fooi(i32) #1

; Function Attrs: noinline uwtable
define linkonce_odr void @_ZNSt8functionIFviEEC2IPS0_vvEET_(%"class.std::function"* %0, void (i32)* %1) unnamed_addr #0 comdat align 2 personality i8* bitcast (i32 (...)* @__gxx_personality_v0 to i8*) {
  %3 = alloca void (i32)*, align 8
  store void (i32)* %1, void (i32)** %3, align 8
  %4 = bitcast %"class.std::function"* %0 to %"struct.std::_Maybe_unary_or_binary_function"*
  %5 = bitcast %"class.std::function"* %0 to %"class.std::_Function_base"*
  call void @_ZNSt14_Function_baseC2Ev(%"class.std::_Function_base"* %5)
  %6 = load void (i32)*, void (i32)** %3, align 8
  %7 = invoke zeroext i1 @_ZNSt14_Function_base13_Base_managerIPFviEE21_M_not_empty_functionIS1_EEbPT_(void (i32)* %6)
          to label %8 unwind label %17

8:                                                ; preds = %2
  br i1 %7, label %9, label %22

9:                                                ; preds = %8
  %10 = bitcast %"class.std::function"* %0 to %"class.std::_Function_base"*
  %11 = getelementptr inbounds %"class.std::_Function_base", %"class.std::_Function_base"* %10, i32 0, i32 0
  %12 = call dereferenceable(8) void (i32)** @_ZSt4moveIRPFviEEONSt16remove_referenceIT_E4typeEOS4_(void (i32)** dereferenceable(8) %3) #3
  invoke void @_ZNSt14_Function_base13_Base_managerIPFviEE15_M_init_functorERSt9_Any_dataOS2_(%"union.std::_Any_data"* dereferenceable(16) %11, void (i32)** dereferenceable(8) %12)
          to label %13 unwind label %17

13:                                               ; preds = %9
  %14 = getelementptr inbounds %"class.std::function", %"class.std::function"* %0, i32 0, i32 1
  store void (%"union.std::_Any_data"*, i32*)* @_ZNSt17_Function_handlerIFviEPS0_E9_M_invokeERKSt9_Any_dataOi, void (%"union.std::_Any_data"*, i32*)** %14, align 8
  %15 = bitcast %"class.std::function"* %0 to %"class.std::_Function_base"*
  %16 = getelementptr inbounds %"class.std::_Function_base", %"class.std::_Function_base"* %15, i32 0, i32 1
  store i1 (%"union.std::_Any_data"*, %"union.std::_Any_data"*, i32)* @_ZNSt14_Function_base13_Base_managerIPFviEE10_M_managerERSt9_Any_dataRKS4_St18_Manager_operation, i1 (%"union.std::_Any_data"*, %"union.std::_Any_data"*, i32)** %16, align 8
  br label %22

17:                                               ; preds = %9, %2
  %18 = landingpad { i8*, i32 }
          cleanup
  %19 = extractvalue { i8*, i32 } %18, 0
  %20 = extractvalue { i8*, i32 } %18, 1
  %21 = bitcast %"class.std::function"* %0 to %"class.std::_Function_base"*
  call void @_ZNSt14_Function_baseD2Ev(%"class.std::_Function_base"* %21) #3
  br label %23

22:                                               ; preds = %13, %8
  ret void

23:                                               ; preds = %17
  %24 = insertvalue { i8*, i32 } undef, i8* %19, 0
  %25 = insertvalue { i8*, i32 } %24, i32 %20, 1
  resume { i8*, i32 } %25
}

; Function Attrs: nounwind
declare i64 @_ZNSt6chrono3_V212system_clock3nowEv() #2

; Function Attrs: noinline uwtable
define internal void @"_ZSt8for_eachIN9__gnu_cxx17__normal_iteratorIPiSt6vectorIiSaIiEEEEZ4mainE3$_0ET0_T_S9_S8_"(i32* %0, i32* %1) #0 {
  %3 = alloca %"class.__gnu_cxx::__normal_iterator", align 8
  %4 = alloca %"class.__gnu_cxx::__normal_iterator", align 8
  %5 = alloca %class.anon, align 1
  %6 = getelementptr inbounds %"class.__gnu_cxx::__normal_iterator", %"class.__gnu_cxx::__normal_iterator"* %3, i32 0, i32 0
  store i32* %0, i32** %6, align 8
  %7 = getelementptr inbounds %"class.__gnu_cxx::__normal_iterator", %"class.__gnu_cxx::__normal_iterator"* %4, i32 0, i32 0
  store i32* %1, i32** %7, align 8
  br label %8

8:                                                ; preds = %13, %2
  %9 = call zeroext i1 @_ZN9__gnu_cxxneIPiSt6vectorIiSaIiEEEEbRKNS_17__normal_iteratorIT_T0_EESA_(%"class.__gnu_cxx::__normal_iterator"* dereferenceable(8) %3, %"class.__gnu_cxx::__normal_iterator"* dereferenceable(8) %4) #3
  br i1 %9, label %10, label %15

10:                                               ; preds = %8
  %11 = call dereferenceable(4) i32* @_ZNK9__gnu_cxx17__normal_iteratorIPiSt6vectorIiSaIiEEEdeEv(%"class.__gnu_cxx::__normal_iterator"* %3) #3
  %12 = load i32, i32* %11, align 4
  call void @"_ZZ4mainENK3$_0clEi"(%class.anon* %5, i32 %12)
  br label %13

13:                                               ; preds = %10
  %14 = call dereferenceable(8) %"class.__gnu_cxx::__normal_iterator"* @_ZN9__gnu_cxx17__normal_iteratorIPiSt6vectorIiSaIiEEEppEv(%"class.__gnu_cxx::__normal_iterator"* %3) #3
  br label %8

15:                                               ; preds = %8
  ret void
}

; Function Attrs: noinline nounwind uwtable
define linkonce_odr i32* @_ZNSt6vectorIiSaIiEE5beginEv(%"class.std::vector"* %0) #4 comdat align 2 {
  %2 = alloca %"class.__gnu_cxx::__normal_iterator", align 8
  %3 = bitcast %"class.std::vector"* %0 to %"struct.std::_Vector_base"*
  %4 = getelementptr inbounds %"struct.std::_Vector_base", %"struct.std::_Vector_base"* %3, i32 0, i32 0
  %5 = getelementptr inbounds %"struct.std::_Vector_base<int, std::allocator<int> >::_Vector_impl", %"struct.std::_Vector_base<int, std::allocator<int> >::_Vector_impl"* %4, i32 0, i32 0
  call void @_ZN9__gnu_cxx17__normal_iteratorIPiSt6vectorIiSaIiEEEC2ERKS1_(%"class.__gnu_cxx::__normal_iterator"* %2, i32** dereferenceable(8) %5) #3
  %6 = getelementptr inbounds %"class.__gnu_cxx::__normal_iterator", %"class.__gnu_cxx::__normal_iterator"* %2, i32 0, i32 0
  %7 = load i32*, i32** %6, align 8
  ret i32* %7
}

; Function Attrs: noinline nounwind uwtable
define linkonce_odr i32* @_ZNSt6vectorIiSaIiEE3endEv(%"class.std::vector"* %0) #4 comdat align 2 {
  %2 = alloca %"class.__gnu_cxx::__normal_iterator", align 8
  %3 = bitcast %"class.std::vector"* %0 to %"struct.std::_Vector_base"*
  %4 = getelementptr inbounds %"struct.std::_Vector_base", %"struct.std::_Vector_base"* %3, i32 0, i32 0
  %5 = getelementptr inbounds %"struct.std::_Vector_base<int, std::allocator<int> >::_Vector_impl", %"struct.std::_Vector_base<int, std::allocator<int> >::_Vector_impl"* %4, i32 0, i32 1
  call void @_ZN9__gnu_cxx17__normal_iteratorIPiSt6vectorIiSaIiEEEC2ERKS1_(%"class.__gnu_cxx::__normal_iterator"* %2, i32** dereferenceable(8) %5) #3
  %6 = getelementptr inbounds %"class.__gnu_cxx::__normal_iterator", %"class.__gnu_cxx::__normal_iterator"* %2, i32 0, i32 0
  %7 = load i32*, i32** %6, align 8
  ret i32* %7
}

; Function Attrs: noinline uwtable
define linkonce_odr i64 @_ZNSt6chrono13duration_castINS_8durationIlSt5ratioILl1ELl1000EEEElS2_ILl1ELl1000000000EEEENSt9enable_ifIXsr13__is_durationIT_EE5valueES7_E4typeERKNS1_IT0_T1_EE(%"struct.std::chrono::duration"* dereferenceable(8) %0) #0 comdat {
  %2 = alloca %"struct.std::chrono::duration.0", align 8
  %3 = call i64 @_ZNSt6chrono20__duration_cast_implINS_8durationIlSt5ratioILl1ELl1000EEEES2_ILl1ELl1000000EElLb1ELb0EE6__castIlS2_ILl1ELl1000000000EEEES4_RKNS1_IT_T0_EE(%"struct.std::chrono::duration"* dereferenceable(8) %0)
  %4 = getelementptr inbounds %"struct.std::chrono::duration.0", %"struct.std::chrono::duration.0"* %2, i32 0, i32 0
  store i64 %3, i64* %4, align 8
  %5 = getelementptr inbounds %"struct.std::chrono::duration.0", %"struct.std::chrono::duration.0"* %2, i32 0, i32 0
  %6 = load i64, i64* %5, align 8
  ret i64 %6
}

; Function Attrs: noinline uwtable
define linkonce_odr i64 @_ZNSt6chronomiINS_3_V212system_clockENS_8durationIlSt5ratioILl1ELl1000000000EEEES6_EENSt11common_typeIJT0_T1_EE4typeERKNS_10time_pointIT_S8_EERKNSC_ISD_S9_EE(%"struct.std::chrono::time_point"* dereferenceable(8) %0, %"struct.std::chrono::time_point"* dereferenceable(8) %1) #0 comdat {
  %3 = alloca %"struct.std::chrono::duration", align 8
  %4 = alloca %"struct.std::chrono::duration", align 8
  %5 = alloca %"struct.std::chrono::duration", align 8
  %6 = call i64 @_ZNKSt6chrono10time_pointINS_3_V212system_clockENS_8durationIlSt5ratioILl1ELl1000000000EEEEE16time_since_epochEv(%"struct.std::chrono::time_point"* %0)
  %7 = getelementptr inbounds %"struct.std::chrono::duration", %"struct.std::chrono::duration"* %4, i32 0, i32 0
  store i64 %6, i64* %7, align 8
  %8 = call i64 @_ZNKSt6chrono10time_pointINS_3_V212system_clockENS_8durationIlSt5ratioILl1ELl1000000000EEEEE16time_since_epochEv(%"struct.std::chrono::time_point"* %1)
  %9 = getelementptr inbounds %"struct.std::chrono::duration", %"struct.std::chrono::duration"* %5, i32 0, i32 0
  store i64 %8, i64* %9, align 8
  %10 = call i64 @_ZNSt6chronomiIlSt5ratioILl1ELl1000000000EElS2_EENSt11common_typeIJNS_8durationIT_T0_EENS4_IT1_T2_EEEE4typeERKS7_RKSA_(%"struct.std::chrono::duration"* dereferenceable(8) %4, %"struct.std::chrono::duration"* dereferenceable(8) %5)
  %11 = getelementptr inbounds %"struct.std::chrono::duration", %"struct.std::chrono::duration"* %3, i32 0, i32 0
  store i64 %10, i64* %11, align 8
  %12 = getelementptr inbounds %"struct.std::chrono::duration", %"struct.std::chrono::duration"* %3, i32 0, i32 0
  %13 = load i64, i64* %12, align 8
  ret i64 %13
}

; Function Attrs: noinline nounwind uwtable
define linkonce_odr i64 @_ZNKSt6chrono8durationIlSt5ratioILl1ELl1000EEE5countEv(%"struct.std::chrono::duration.0"* %0) #4 comdat align 2 {
  %2 = getelementptr inbounds %"struct.std::chrono::duration.0", %"struct.std::chrono::duration.0"* %0, i32 0, i32 0
  %3 = load i64, i64* %2, align 8
  ret i64 %3
}

declare dereferenceable(272) %"class.std::basic_ostream"* @_ZNSolsEl(%"class.std::basic_ostream"*, i64) #1

declare dereferenceable(272) %"class.std::basic_ostream"* @_ZNSolsEPFRSoS_E(%"class.std::basic_ostream"*, %"class.std::basic_ostream"* (%"class.std::basic_ostream"*)*) #1

declare dereferenceable(272) %"class.std::basic_ostream"* @_ZSt4endlIcSt11char_traitsIcEERSt13basic_ostreamIT_T0_ES6_(%"class.std::basic_ostream"* dereferenceable(272)) #1

; Function Attrs: noinline uwtable
define linkonce_odr void (i32)* @_ZSt8for_eachIN9__gnu_cxx17__normal_iteratorIPiSt6vectorIiSaIiEEEEPFviEET0_T_SA_S9_(i32* %0, i32* %1, void (i32)* %2) #0 comdat {
  %4 = alloca %"class.__gnu_cxx::__normal_iterator", align 8
  %5 = alloca %"class.__gnu_cxx::__normal_iterator", align 8
  %6 = getelementptr inbounds %"class.__gnu_cxx::__normal_iterator", %"class.__gnu_cxx::__normal_iterator"* %4, i32 0, i32 0
  store i32* %0, i32** %6, align 8
  %7 = getelementptr inbounds %"class.__gnu_cxx::__normal_iterator", %"class.__gnu_cxx::__normal_iterator"* %5, i32 0, i32 0
  store i32* %1, i32** %7, align 8
  br label %8

8:                                                ; preds = %13, %3
  %9 = call zeroext i1 @_ZN9__gnu_cxxneIPiSt6vectorIiSaIiEEEEbRKNS_17__normal_iteratorIT_T0_EESA_(%"class.__gnu_cxx::__normal_iterator"* dereferenceable(8) %4, %"class.__gnu_cxx::__normal_iterator"* dereferenceable(8) %5) #3
  br i1 %9, label %10, label %15

10:                                               ; preds = %8
  %11 = call dereferenceable(4) i32* @_ZNK9__gnu_cxx17__normal_iteratorIPiSt6vectorIiSaIiEEEdeEv(%"class.__gnu_cxx::__normal_iterator"* %4) #3
  %12 = load i32, i32* %11, align 4
  call void %2(i32 %12)
  br label %13

13:                                               ; preds = %10
  %14 = call dereferenceable(8) %"class.__gnu_cxx::__normal_iterator"* @_ZN9__gnu_cxx17__normal_iteratorIPiSt6vectorIiSaIiEEEppEv(%"class.__gnu_cxx::__normal_iterator"* %4) #3
  br label %8

15:                                               ; preds = %8
  ret void (i32)* %2
}

; Function Attrs: noinline nounwind uwtable
define linkonce_odr void @_ZNSt8functionIFviEED2Ev(%"class.std::function"* %0) unnamed_addr #4 comdat align 2 {
  %2 = bitcast %"class.std::function"* %0 to %"class.std::_Function_base"*
  call void @_ZNSt14_Function_baseD2Ev(%"class.std::_Function_base"* %2) #3
  ret void
}

; Function Attrs: noinline nounwind uwtable
define linkonce_odr void @_ZNSt6vectorIiSaIiEED2Ev(%"class.std::vector"* %0) unnamed_addr #4 comdat align 2 personality i8* bitcast (i32 (...)* @__gxx_personality_v0 to i8*) {
  %2 = bitcast %"class.std::vector"* %0 to %"struct.std::_Vector_base"*
  %3 = getelementptr inbounds %"struct.std::_Vector_base", %"struct.std::_Vector_base"* %2, i32 0, i32 0
  %4 = getelementptr inbounds %"struct.std::_Vector_base<int, std::allocator<int> >::_Vector_impl", %"struct.std::_Vector_base<int, std::allocator<int> >::_Vector_impl"* %3, i32 0, i32 0
  %5 = load i32*, i32** %4, align 8
  %6 = bitcast %"class.std::vector"* %0 to %"struct.std::_Vector_base"*
  %7 = getelementptr inbounds %"struct.std::_Vector_base", %"struct.std::_Vector_base"* %6, i32 0, i32 0
  %8 = getelementptr inbounds %"struct.std::_Vector_base<int, std::allocator<int> >::_Vector_impl", %"struct.std::_Vector_base<int, std::allocator<int> >::_Vector_impl"* %7, i32 0, i32 1
  %9 = load i32*, i32** %8, align 8
  %10 = bitcast %"class.std::vector"* %0 to %"struct.std::_Vector_base"*
  %11 = call dereferenceable(1) %"class.std::allocator"* @_ZNSt12_Vector_baseIiSaIiEE19_M_get_Tp_allocatorEv(%"struct.std::_Vector_base"* %10) #3
  invoke void @_ZSt8_DestroyIPiiEvT_S1_RSaIT0_E(i32* %5, i32* %9, %"class.std::allocator"* dereferenceable(1) %11)
          to label %12 unwind label %14

12:                                               ; preds = %1
  %13 = bitcast %"class.std::vector"* %0 to %"struct.std::_Vector_base"*
  call void @_ZNSt12_Vector_baseIiSaIiEED2Ev(%"struct.std::_Vector_base"* %13) #3
  ret void

14:                                               ; preds = %1
  %15 = landingpad { i8*, i32 }
          catch i8* null
  %16 = extractvalue { i8*, i32 } %15, 0
  %17 = extractvalue { i8*, i32 } %15, 1
  %18 = bitcast %"class.std::vector"* %0 to %"struct.std::_Vector_base"*
  call void @_ZNSt12_Vector_baseIiSaIiEED2Ev(%"struct.std::_Vector_base"* %18) #3
  br label %19

19:                                               ; preds = %14
  call void @__clang_call_terminate(i8* %16) #11
  unreachable
}

; Function Attrs: noinline uwtable
define linkonce_odr i64 @_ZNSt6chrono20__duration_cast_implINS_8durationIlSt5ratioILl1ELl1000EEEES2_ILl1ELl1000000EElLb1ELb0EE6__castIlS2_ILl1ELl1000000000EEEES4_RKNS1_IT_T0_EE(%"struct.std::chrono::duration"* dereferenceable(8) %0) #0 comdat align 2 {
  %2 = alloca %"struct.std::chrono::duration.0", align 8
  %3 = alloca i64, align 8
  %4 = call i64 @_ZNKSt6chrono8durationIlSt5ratioILl1ELl1000000000EEE5countEv(%"struct.std::chrono::duration"* %0)
  %5 = sdiv i64 %4, 1000000
  store i64 %5, i64* %3, align 8
  call void @_ZNSt6chrono8durationIlSt5ratioILl1ELl1000EEEC2IlvEERKT_(%"struct.std::chrono::duration.0"* %2, i64* dereferenceable(8) %3)
  %6 = getelementptr inbounds %"struct.std::chrono::duration.0", %"struct.std::chrono::duration.0"* %2, i32 0, i32 0
  %7 = load i64, i64* %6, align 8
  ret i64 %7
}

; Function Attrs: noinline nounwind uwtable
define linkonce_odr i64 @_ZNKSt6chrono8durationIlSt5ratioILl1ELl1000000000EEE5countEv(%"struct.std::chrono::duration"* %0) #4 comdat align 2 {
  %2 = getelementptr inbounds %"struct.std::chrono::duration", %"struct.std::chrono::duration"* %0, i32 0, i32 0
  %3 = load i64, i64* %2, align 8
  ret i64 %3
}

; Function Attrs: noinline nounwind uwtable
define linkonce_odr void @_ZNSt6chrono8durationIlSt5ratioILl1ELl1000EEEC2IlvEERKT_(%"struct.std::chrono::duration.0"* %0, i64* dereferenceable(8) %1) unnamed_addr #4 comdat align 2 {
  %3 = getelementptr inbounds %"struct.std::chrono::duration.0", %"struct.std::chrono::duration.0"* %0, i32 0, i32 0
  %4 = load i64, i64* %1, align 8
  store i64 %4, i64* %3, align 8
  ret void
}

; Function Attrs: noinline uwtable
define linkonce_odr i64 @_ZNSt6chronomiIlSt5ratioILl1ELl1000000000EElS2_EENSt11common_typeIJNS_8durationIT_T0_EENS4_IT1_T2_EEEE4typeERKS7_RKSA_(%"struct.std::chrono::duration"* dereferenceable(8) %0, %"struct.std::chrono::duration"* dereferenceable(8) %1) #0 comdat {
  %3 = alloca %"struct.std::chrono::duration", align 8
  %4 = alloca i64, align 8
  %5 = alloca %"struct.std::chrono::duration", align 8
  %6 = alloca %"struct.std::chrono::duration", align 8
  %7 = bitcast %"struct.std::chrono::duration"* %5 to i8*
  %8 = bitcast %"struct.std::chrono::duration"* %0 to i8*
  call void @llvm.memcpy.p0i8.p0i8.i64(i8* align 8 %7, i8* align 8 %8, i64 8, i1 false)
  %9 = call i64 @_ZNKSt6chrono8durationIlSt5ratioILl1ELl1000000000EEE5countEv(%"struct.std::chrono::duration"* %5)
  %10 = bitcast %"struct.std::chrono::duration"* %6 to i8*
  %11 = bitcast %"struct.std::chrono::duration"* %1 to i8*
  call void @llvm.memcpy.p0i8.p0i8.i64(i8* align 8 %10, i8* align 8 %11, i64 8, i1 false)
  %12 = call i64 @_ZNKSt6chrono8durationIlSt5ratioILl1ELl1000000000EEE5countEv(%"struct.std::chrono::duration"* %6)
  %13 = sub nsw i64 %9, %12
  store i64 %13, i64* %4, align 8
  call void @_ZNSt6chrono8durationIlSt5ratioILl1ELl1000000000EEEC2IlvEERKT_(%"struct.std::chrono::duration"* %3, i64* dereferenceable(8) %4)
  %14 = getelementptr inbounds %"struct.std::chrono::duration", %"struct.std::chrono::duration"* %3, i32 0, i32 0
  %15 = load i64, i64* %14, align 8
  ret i64 %15
}

; Function Attrs: noinline nounwind uwtable
define linkonce_odr i64 @_ZNKSt6chrono10time_pointINS_3_V212system_clockENS_8durationIlSt5ratioILl1ELl1000000000EEEEE16time_since_epochEv(%"struct.std::chrono::time_point"* %0) #4 comdat align 2 {
  %2 = alloca %"struct.std::chrono::duration", align 8
  %3 = getelementptr inbounds %"struct.std::chrono::time_point", %"struct.std::chrono::time_point"* %0, i32 0, i32 0
  %4 = bitcast %"struct.std::chrono::duration"* %2 to i8*
  %5 = bitcast %"struct.std::chrono::duration"* %3 to i8*
  call void @llvm.memcpy.p0i8.p0i8.i64(i8* align 8 %4, i8* align 8 %5, i64 8, i1 false)
  %6 = getelementptr inbounds %"struct.std::chrono::duration", %"struct.std::chrono::duration"* %2, i32 0, i32 0
  %7 = load i64, i64* %6, align 8
  ret i64 %7
}

; Function Attrs: noinline nounwind uwtable
define linkonce_odr void @_ZNSt6chrono8durationIlSt5ratioILl1ELl1000000000EEEC2IlvEERKT_(%"struct.std::chrono::duration"* %0, i64* dereferenceable(8) %1) unnamed_addr #4 comdat align 2 {
  %3 = getelementptr inbounds %"struct.std::chrono::duration", %"struct.std::chrono::duration"* %0, i32 0, i32 0
  %4 = load i64, i64* %1, align 8
  store i64 %4, i64* %3, align 8
  ret void
}

; Function Attrs: noinline nounwind uwtable
define linkonce_odr void @_ZNSt14_Function_baseD2Ev(%"class.std::_Function_base"* %0) unnamed_addr #4 comdat align 2 personality i8* bitcast (i32 (...)* @__gxx_personality_v0 to i8*) {
  %2 = getelementptr inbounds %"class.std::_Function_base", %"class.std::_Function_base"* %0, i32 0, i32 1
  %3 = load i1 (%"union.std::_Any_data"*, %"union.std::_Any_data"*, i32)*, i1 (%"union.std::_Any_data"*, %"union.std::_Any_data"*, i32)** %2, align 8
  %4 = icmp ne i1 (%"union.std::_Any_data"*, %"union.std::_Any_data"*, i32)* %3, null
  br i1 %4, label %5, label %12

5:                                                ; preds = %1
  %6 = getelementptr inbounds %"class.std::_Function_base", %"class.std::_Function_base"* %0, i32 0, i32 1
  %7 = load i1 (%"union.std::_Any_data"*, %"union.std::_Any_data"*, i32)*, i1 (%"union.std::_Any_data"*, %"union.std::_Any_data"*, i32)** %6, align 8
  %8 = getelementptr inbounds %"class.std::_Function_base", %"class.std::_Function_base"* %0, i32 0, i32 0
  %9 = getelementptr inbounds %"class.std::_Function_base", %"class.std::_Function_base"* %0, i32 0, i32 0
  %10 = invoke zeroext i1 %7(%"union.std::_Any_data"* dereferenceable(16) %8, %"union.std::_Any_data"* dereferenceable(16) %9, i32 3)
          to label %11 unwind label %13

11:                                               ; preds = %5
  br label %12

12:                                               ; preds = %11, %1
  ret void

13:                                               ; preds = %5
  %14 = landingpad { i8*, i32 }
          catch i8* null
  %15 = extractvalue { i8*, i32 } %14, 0
  call void @__clang_call_terminate(i8* %15) #11
  unreachable
}

; Function Attrs: noinline noreturn nounwind
define linkonce_odr hidden void @__clang_call_terminate(i8* %0) #6 comdat {
  %2 = call i8* @__cxa_begin_catch(i8* %0) #3
  call void @_ZSt9terminatev() #11
  unreachable
}

declare i8* @__cxa_begin_catch(i8*)

declare void @_ZSt9terminatev()

; Function Attrs: noinline nounwind uwtable
define linkonce_odr void @_ZN9__gnu_cxx13new_allocatorIiEC2Ev(%"class.__gnu_cxx::new_allocator"* %0) unnamed_addr #4 comdat align 2 {
  ret void
}

; Function Attrs: noinline nounwind uwtable
define linkonce_odr void @_ZN9__gnu_cxx13new_allocatorIiED2Ev(%"class.__gnu_cxx::new_allocator"* %0) unnamed_addr #4 comdat align 2 {
  ret void
}

; Function Attrs: noinline uwtable
define linkonce_odr void @_ZNSt12_Vector_baseIiSaIiEEC2EmRKS0_(%"struct.std::_Vector_base"* %0, i64 %1, %"class.std::allocator"* dereferenceable(1) %2) unnamed_addr #0 comdat align 2 personality i8* bitcast (i32 (...)* @__gxx_personality_v0 to i8*) {
  %4 = getelementptr inbounds %"struct.std::_Vector_base", %"struct.std::_Vector_base"* %0, i32 0, i32 0
  call void @_ZNSt12_Vector_baseIiSaIiEE12_Vector_implC2ERKS0_(%"struct.std::_Vector_base<int, std::allocator<int> >::_Vector_impl"* %4, %"class.std::allocator"* dereferenceable(1) %2) #3
  invoke void @_ZNSt12_Vector_baseIiSaIiEE17_M_create_storageEm(%"struct.std::_Vector_base"* %0, i64 %1)
          to label %5 unwind label %6

5:                                                ; preds = %3
  ret void

6:                                                ; preds = %3
  %7 = landingpad { i8*, i32 }
          cleanup
  %8 = extractvalue { i8*, i32 } %7, 0
  %9 = extractvalue { i8*, i32 } %7, 1
  call void @_ZNSt12_Vector_baseIiSaIiEE12_Vector_implD2Ev(%"struct.std::_Vector_base<int, std::allocator<int> >::_Vector_impl"* %4) #3
  br label %10

10:                                               ; preds = %6
  %11 = insertvalue { i8*, i32 } undef, i8* %8, 0
  %12 = insertvalue { i8*, i32 } %11, i32 %9, 1
  resume { i8*, i32 } %12
}

; Function Attrs: noinline uwtable
define linkonce_odr void @_ZNSt6vectorIiSaIiEE18_M_fill_initializeEmRKi(%"class.std::vector"* %0, i64 %1, i32* dereferenceable(4) %2) #0 comdat align 2 {
  %4 = bitcast %"class.std::vector"* %0 to %"struct.std::_Vector_base"*
  %5 = getelementptr inbounds %"struct.std::_Vector_base", %"struct.std::_Vector_base"* %4, i32 0, i32 0
  %6 = getelementptr inbounds %"struct.std::_Vector_base<int, std::allocator<int> >::_Vector_impl", %"struct.std::_Vector_base<int, std::allocator<int> >::_Vector_impl"* %5, i32 0, i32 0
  %7 = load i32*, i32** %6, align 8
  %8 = bitcast %"class.std::vector"* %0 to %"struct.std::_Vector_base"*
  %9 = call dereferenceable(1) %"class.std::allocator"* @_ZNSt12_Vector_baseIiSaIiEE19_M_get_Tp_allocatorEv(%"struct.std::_Vector_base"* %8) #3
  %10 = call i32* @_ZSt24__uninitialized_fill_n_aIPimiiET_S1_T0_RKT1_RSaIT2_E(i32* %7, i64 %1, i32* dereferenceable(4) %2, %"class.std::allocator"* dereferenceable(1) %9)
  %11 = bitcast %"class.std::vector"* %0 to %"struct.std::_Vector_base"*
  %12 = getelementptr inbounds %"struct.std::_Vector_base", %"struct.std::_Vector_base"* %11, i32 0, i32 0
  %13 = getelementptr inbounds %"struct.std::_Vector_base<int, std::allocator<int> >::_Vector_impl", %"struct.std::_Vector_base<int, std::allocator<int> >::_Vector_impl"* %12, i32 0, i32 1
  store i32* %10, i32** %13, align 8
  ret void
}

; Function Attrs: noinline nounwind uwtable
define linkonce_odr void @_ZNSt12_Vector_baseIiSaIiEED2Ev(%"struct.std::_Vector_base"* %0) unnamed_addr #4 comdat align 2 personality i8* bitcast (i32 (...)* @__gxx_personality_v0 to i8*) {
  %2 = getelementptr inbounds %"struct.std::_Vector_base", %"struct.std::_Vector_base"* %0, i32 0, i32 0
  %3 = getelementptr inbounds %"struct.std::_Vector_base<int, std::allocator<int> >::_Vector_impl", %"struct.std::_Vector_base<int, std::allocator<int> >::_Vector_impl"* %2, i32 0, i32 0
  %4 = load i32*, i32** %3, align 8
  %5 = getelementptr inbounds %"struct.std::_Vector_base", %"struct.std::_Vector_base"* %0, i32 0, i32 0
  %6 = getelementptr inbounds %"struct.std::_Vector_base<int, std::allocator<int> >::_Vector_impl", %"struct.std::_Vector_base<int, std::allocator<int> >::_Vector_impl"* %5, i32 0, i32 2
  %7 = load i32*, i32** %6, align 8
  %8 = getelementptr inbounds %"struct.std::_Vector_base", %"struct.std::_Vector_base"* %0, i32 0, i32 0
  %9 = getelementptr inbounds %"struct.std::_Vector_base<int, std::allocator<int> >::_Vector_impl", %"struct.std::_Vector_base<int, std::allocator<int> >::_Vector_impl"* %8, i32 0, i32 0
  %10 = load i32*, i32** %9, align 8
  %11 = ptrtoint i32* %7 to i64
  %12 = ptrtoint i32* %10 to i64
  %13 = sub i64 %11, %12
  %14 = sdiv exact i64 %13, 4
  invoke void @_ZNSt12_Vector_baseIiSaIiEE13_M_deallocateEPim(%"struct.std::_Vector_base"* %0, i32* %4, i64 %14)
          to label %15 unwind label %17

15:                                               ; preds = %1
  %16 = getelementptr inbounds %"struct.std::_Vector_base", %"struct.std::_Vector_base"* %0, i32 0, i32 0
  call void @_ZNSt12_Vector_baseIiSaIiEE12_Vector_implD2Ev(%"struct.std::_Vector_base<int, std::allocator<int> >::_Vector_impl"* %16) #3
  ret void

17:                                               ; preds = %1
  %18 = landingpad { i8*, i32 }
          catch i8* null
  %19 = extractvalue { i8*, i32 } %18, 0
  %20 = extractvalue { i8*, i32 } %18, 1
  %21 = getelementptr inbounds %"struct.std::_Vector_base", %"struct.std::_Vector_base"* %0, i32 0, i32 0
  call void @_ZNSt12_Vector_baseIiSaIiEE12_Vector_implD2Ev(%"struct.std::_Vector_base<int, std::allocator<int> >::_Vector_impl"* %21) #3
  br label %22

22:                                               ; preds = %17
  call void @__clang_call_terminate(i8* %19) #11
  unreachable
}

; Function Attrs: noinline nounwind uwtable
define linkonce_odr void @_ZNSt12_Vector_baseIiSaIiEE12_Vector_implC2ERKS0_(%"struct.std::_Vector_base<int, std::allocator<int> >::_Vector_impl"* %0, %"class.std::allocator"* dereferenceable(1) %1) unnamed_addr #4 comdat align 2 {
  %3 = bitcast %"struct.std::_Vector_base<int, std::allocator<int> >::_Vector_impl"* %0 to %"class.std::allocator"*
  call void @_ZNSaIiEC2ERKS_(%"class.std::allocator"* %3, %"class.std::allocator"* dereferenceable(1) %1) #3
  %4 = getelementptr inbounds %"struct.std::_Vector_base<int, std::allocator<int> >::_Vector_impl", %"struct.std::_Vector_base<int, std::allocator<int> >::_Vector_impl"* %0, i32 0, i32 0
  store i32* null, i32** %4, align 8
  %5 = getelementptr inbounds %"struct.std::_Vector_base<int, std::allocator<int> >::_Vector_impl", %"struct.std::_Vector_base<int, std::allocator<int> >::_Vector_impl"* %0, i32 0, i32 1
  store i32* null, i32** %5, align 8
  %6 = getelementptr inbounds %"struct.std::_Vector_base<int, std::allocator<int> >::_Vector_impl", %"struct.std::_Vector_base<int, std::allocator<int> >::_Vector_impl"* %0, i32 0, i32 2
  store i32* null, i32** %6, align 8
  ret void
}

; Function Attrs: noinline uwtable
define linkonce_odr void @_ZNSt12_Vector_baseIiSaIiEE17_M_create_storageEm(%"struct.std::_Vector_base"* %0, i64 %1) #0 comdat align 2 {
  %3 = call i32* @_ZNSt12_Vector_baseIiSaIiEE11_M_allocateEm(%"struct.std::_Vector_base"* %0, i64 %1)
  %4 = getelementptr inbounds %"struct.std::_Vector_base", %"struct.std::_Vector_base"* %0, i32 0, i32 0
  %5 = getelementptr inbounds %"struct.std::_Vector_base<int, std::allocator<int> >::_Vector_impl", %"struct.std::_Vector_base<int, std::allocator<int> >::_Vector_impl"* %4, i32 0, i32 0
  store i32* %3, i32** %5, align 8
  %6 = getelementptr inbounds %"struct.std::_Vector_base", %"struct.std::_Vector_base"* %0, i32 0, i32 0
  %7 = getelementptr inbounds %"struct.std::_Vector_base<int, std::allocator<int> >::_Vector_impl", %"struct.std::_Vector_base<int, std::allocator<int> >::_Vector_impl"* %6, i32 0, i32 0
  %8 = load i32*, i32** %7, align 8
  %9 = getelementptr inbounds %"struct.std::_Vector_base", %"struct.std::_Vector_base"* %0, i32 0, i32 0
  %10 = getelementptr inbounds %"struct.std::_Vector_base<int, std::allocator<int> >::_Vector_impl", %"struct.std::_Vector_base<int, std::allocator<int> >::_Vector_impl"* %9, i32 0, i32 1
  store i32* %8, i32** %10, align 8
  %11 = getelementptr inbounds %"struct.std::_Vector_base", %"struct.std::_Vector_base"* %0, i32 0, i32 0
  %12 = getelementptr inbounds %"struct.std::_Vector_base<int, std::allocator<int> >::_Vector_impl", %"struct.std::_Vector_base<int, std::allocator<int> >::_Vector_impl"* %11, i32 0, i32 0
  %13 = load i32*, i32** %12, align 8
  %14 = getelementptr inbounds i32, i32* %13, i64 %1
  %15 = getelementptr inbounds %"struct.std::_Vector_base", %"struct.std::_Vector_base"* %0, i32 0, i32 0
  %16 = getelementptr inbounds %"struct.std::_Vector_base<int, std::allocator<int> >::_Vector_impl", %"struct.std::_Vector_base<int, std::allocator<int> >::_Vector_impl"* %15, i32 0, i32 2
  store i32* %14, i32** %16, align 8
  ret void
}

; Function Attrs: noinline nounwind uwtable
define linkonce_odr void @_ZNSt12_Vector_baseIiSaIiEE12_Vector_implD2Ev(%"struct.std::_Vector_base<int, std::allocator<int> >::_Vector_impl"* %0) unnamed_addr #4 comdat align 2 {
  %2 = bitcast %"struct.std::_Vector_base<int, std::allocator<int> >::_Vector_impl"* %0 to %"class.std::allocator"*
  call void @_ZNSaIiED2Ev(%"class.std::allocator"* %2) #3
  ret void
}

; Function Attrs: noinline nounwind uwtable
define linkonce_odr void @_ZNSaIiEC2ERKS_(%"class.std::allocator"* %0, %"class.std::allocator"* dereferenceable(1) %1) unnamed_addr #4 comdat align 2 {
  %3 = bitcast %"class.std::allocator"* %0 to %"class.__gnu_cxx::new_allocator"*
  %4 = bitcast %"class.std::allocator"* %1 to %"class.__gnu_cxx::new_allocator"*
  call void @_ZN9__gnu_cxx13new_allocatorIiEC2ERKS1_(%"class.__gnu_cxx::new_allocator"* %3, %"class.__gnu_cxx::new_allocator"* dereferenceable(1) %4) #3
  ret void
}

; Function Attrs: noinline nounwind uwtable
define linkonce_odr void @_ZN9__gnu_cxx13new_allocatorIiEC2ERKS1_(%"class.__gnu_cxx::new_allocator"* %0, %"class.__gnu_cxx::new_allocator"* dereferenceable(1) %1) unnamed_addr #4 comdat align 2 {
  ret void
}

; Function Attrs: noinline uwtable
define linkonce_odr i32* @_ZNSt12_Vector_baseIiSaIiEE11_M_allocateEm(%"struct.std::_Vector_base"* %0, i64 %1) #0 comdat align 2 {
  %3 = icmp ne i64 %1, 0
  br i1 %3, label %4, label %8

4:                                                ; preds = %2
  %5 = getelementptr inbounds %"struct.std::_Vector_base", %"struct.std::_Vector_base"* %0, i32 0, i32 0
  %6 = bitcast %"struct.std::_Vector_base<int, std::allocator<int> >::_Vector_impl"* %5 to %"class.std::allocator"*
  %7 = call i32* @_ZNSt16allocator_traitsISaIiEE8allocateERS0_m(%"class.std::allocator"* dereferenceable(1) %6, i64 %1)
  br label %9

8:                                                ; preds = %2
  br label %9

9:                                                ; preds = %8, %4
  %10 = phi i32* [ %7, %4 ], [ null, %8 ]
  ret i32* %10
}

; Function Attrs: noinline uwtable
define linkonce_odr i32* @_ZNSt16allocator_traitsISaIiEE8allocateERS0_m(%"class.std::allocator"* dereferenceable(1) %0, i64 %1) #0 comdat align 2 {
  %3 = bitcast %"class.std::allocator"* %0 to %"class.__gnu_cxx::new_allocator"*
  %4 = call i32* @_ZN9__gnu_cxx13new_allocatorIiE8allocateEmPKv(%"class.__gnu_cxx::new_allocator"* %3, i64 %1, i8* null)
  ret i32* %4
}

; Function Attrs: noinline uwtable
define linkonce_odr i32* @_ZN9__gnu_cxx13new_allocatorIiE8allocateEmPKv(%"class.__gnu_cxx::new_allocator"* %0, i64 %1, i8* %2) #0 comdat align 2 {
  %4 = call i64 @_ZNK9__gnu_cxx13new_allocatorIiE8max_sizeEv(%"class.__gnu_cxx::new_allocator"* %0) #3
  %5 = icmp ugt i64 %1, %4
  br i1 %5, label %6, label %7

6:                                                ; preds = %3
  call void @_ZSt17__throw_bad_allocv() #12
  unreachable

7:                                                ; preds = %3
  %8 = mul i64 %1, 4
  %9 = call i8* @_Znwm(i64 %8)
  %10 = bitcast i8* %9 to i32*
  ret i32* %10
}

; Function Attrs: noinline nounwind uwtable
define linkonce_odr i64 @_ZNK9__gnu_cxx13new_allocatorIiE8max_sizeEv(%"class.__gnu_cxx::new_allocator"* %0) #4 comdat align 2 {
  ret i64 4611686018427387903
}

; Function Attrs: noreturn
declare void @_ZSt17__throw_bad_allocv() #7

; Function Attrs: nobuiltin
declare noalias i8* @_Znwm(i64) #8

; Function Attrs: noinline uwtable
define linkonce_odr i32* @_ZSt24__uninitialized_fill_n_aIPimiiET_S1_T0_RKT1_RSaIT2_E(i32* %0, i64 %1, i32* dereferenceable(4) %2, %"class.std::allocator"* dereferenceable(1) %3) #0 comdat {
  %5 = call i32* @_ZSt20uninitialized_fill_nIPimiET_S1_T0_RKT1_(i32* %0, i64 %1, i32* dereferenceable(4) %2)
  ret i32* %5
}

; Function Attrs: noinline nounwind uwtable
define linkonce_odr dereferenceable(1) %"class.std::allocator"* @_ZNSt12_Vector_baseIiSaIiEE19_M_get_Tp_allocatorEv(%"struct.std::_Vector_base"* %0) #4 comdat align 2 {
  %2 = getelementptr inbounds %"struct.std::_Vector_base", %"struct.std::_Vector_base"* %0, i32 0, i32 0
  %3 = bitcast %"struct.std::_Vector_base<int, std::allocator<int> >::_Vector_impl"* %2 to %"class.std::allocator"*
  ret %"class.std::allocator"* %3
}

; Function Attrs: noinline uwtable
define linkonce_odr i32* @_ZSt20uninitialized_fill_nIPimiET_S1_T0_RKT1_(i32* %0, i64 %1, i32* dereferenceable(4) %2) #0 comdat {
  %4 = call i32* @_ZNSt22__uninitialized_fill_nILb1EE15__uninit_fill_nIPimiEET_S3_T0_RKT1_(i32* %0, i64 %1, i32* dereferenceable(4) %2)
  ret i32* %4
}

; Function Attrs: noinline uwtable
define linkonce_odr i32* @_ZNSt22__uninitialized_fill_nILb1EE15__uninit_fill_nIPimiEET_S3_T0_RKT1_(i32* %0, i64 %1, i32* dereferenceable(4) %2) #0 comdat align 2 {
  %4 = call i32* @_ZSt6fill_nIPimiET_S1_T0_RKT1_(i32* %0, i64 %1, i32* dereferenceable(4) %2)
  ret i32* %4
}

; Function Attrs: noinline uwtable
define linkonce_odr i32* @_ZSt6fill_nIPimiET_S1_T0_RKT1_(i32* %0, i64 %1, i32* dereferenceable(4) %2) #0 comdat {
  %4 = call i32* @_ZSt12__niter_baseIPiET_S1_(i32* %0)
  %5 = call i32* @_ZSt10__fill_n_aIPimiEN9__gnu_cxx11__enable_ifIXsr11__is_scalarIT1_EE7__valueET_E6__typeES4_T0_RKS3_(i32* %4, i64 %1, i32* dereferenceable(4) %2)
  ret i32* %5
}

; Function Attrs: noinline nounwind uwtable
define linkonce_odr i32* @_ZSt10__fill_n_aIPimiEN9__gnu_cxx11__enable_ifIXsr11__is_scalarIT1_EE7__valueET_E6__typeES4_T0_RKS3_(i32* %0, i64 %1, i32* dereferenceable(4) %2) #4 comdat {
  %4 = load i32, i32* %2, align 4
  br label %5

5:                                                ; preds = %8, %3
  %.01 = phi i64 [ %1, %3 ], [ %9, %8 ]
  %.0 = phi i32* [ %0, %3 ], [ %10, %8 ]
  %6 = icmp ugt i64 %.01, 0
  br i1 %6, label %7, label %11

7:                                                ; preds = %5
  store i32 %4, i32* %.0, align 4
  br label %8

8:                                                ; preds = %7
  %9 = add i64 %.01, -1
  %10 = getelementptr inbounds i32, i32* %.0, i32 1
  br label %5

11:                                               ; preds = %5
  ret i32* %.0
}

; Function Attrs: noinline nounwind uwtable
define linkonce_odr i32* @_ZSt12__niter_baseIPiET_S1_(i32* %0) #4 comdat {
  ret i32* %0
}

; Function Attrs: noinline uwtable
define linkonce_odr void @_ZNSt12_Vector_baseIiSaIiEE13_M_deallocateEPim(%"struct.std::_Vector_base"* %0, i32* %1, i64 %2) #0 comdat align 2 {
  %4 = icmp ne i32* %1, null
  br i1 %4, label %5, label %8

5:                                                ; preds = %3
  %6 = getelementptr inbounds %"struct.std::_Vector_base", %"struct.std::_Vector_base"* %0, i32 0, i32 0
  %7 = bitcast %"struct.std::_Vector_base<int, std::allocator<int> >::_Vector_impl"* %6 to %"class.std::allocator"*
  call void @_ZNSt16allocator_traitsISaIiEE10deallocateERS0_Pim(%"class.std::allocator"* dereferenceable(1) %7, i32* %1, i64 %2)
  br label %8

8:                                                ; preds = %5, %3
  ret void
}

; Function Attrs: noinline uwtable
define linkonce_odr void @_ZNSt16allocator_traitsISaIiEE10deallocateERS0_Pim(%"class.std::allocator"* dereferenceable(1) %0, i32* %1, i64 %2) #0 comdat align 2 {
  %4 = bitcast %"class.std::allocator"* %0 to %"class.__gnu_cxx::new_allocator"*
  call void @_ZN9__gnu_cxx13new_allocatorIiE10deallocateEPim(%"class.__gnu_cxx::new_allocator"* %4, i32* %1, i64 %2)
  ret void
}

; Function Attrs: noinline nounwind uwtable
define linkonce_odr void @_ZN9__gnu_cxx13new_allocatorIiE10deallocateEPim(%"class.__gnu_cxx::new_allocator"* %0, i32* %1, i64 %2) #4 comdat align 2 {
  %4 = bitcast i32* %1 to i8*
  call void @_ZdlPv(i8* %4) #3
  ret void
}

; Function Attrs: nobuiltin nounwind
declare void @_ZdlPv(i8*) #9

; Function Attrs: noinline uwtable
define linkonce_odr void @_ZSt8_DestroyIPiiEvT_S1_RSaIT0_E(i32* %0, i32* %1, %"class.std::allocator"* dereferenceable(1) %2) #0 comdat {
  call void @_ZSt8_DestroyIPiEvT_S1_(i32* %0, i32* %1)
  ret void
}

; Function Attrs: noinline uwtable
define linkonce_odr void @_ZSt8_DestroyIPiEvT_S1_(i32* %0, i32* %1) #0 comdat {
  call void @_ZNSt12_Destroy_auxILb1EE9__destroyIPiEEvT_S3_(i32* %0, i32* %1)
  ret void
}

; Function Attrs: noinline nounwind uwtable
define linkonce_odr void @_ZNSt12_Destroy_auxILb1EE9__destroyIPiEEvT_S3_(i32* %0, i32* %1) #4 comdat align 2 {
  ret void
}

; Function Attrs: noinline nounwind uwtable
define linkonce_odr void @_ZNSt14_Function_baseC2Ev(%"class.std::_Function_base"* %0) unnamed_addr #4 comdat align 2 {
  %2 = getelementptr inbounds %"class.std::_Function_base", %"class.std::_Function_base"* %0, i32 0, i32 0
  %3 = getelementptr inbounds %"class.std::_Function_base", %"class.std::_Function_base"* %0, i32 0, i32 1
  store i1 (%"union.std::_Any_data"*, %"union.std::_Any_data"*, i32)* null, i1 (%"union.std::_Any_data"*, %"union.std::_Any_data"*, i32)** %3, align 8
  ret void
}

; Function Attrs: noinline nounwind uwtable
define linkonce_odr zeroext i1 @_ZNSt14_Function_base13_Base_managerIPFviEE21_M_not_empty_functionIS1_EEbPT_(void (i32)* %0) #4 comdat align 2 {
  %2 = icmp ne void (i32)* %0, null
  ret i1 %2
}

; Function Attrs: noinline uwtable
define linkonce_odr void @_ZNSt14_Function_base13_Base_managerIPFviEE15_M_init_functorERSt9_Any_dataOS2_(%"union.std::_Any_data"* dereferenceable(16) %0, void (i32)** dereferenceable(8) %1) #0 comdat align 2 {
  %3 = call dereferenceable(8) void (i32)** @_ZSt4moveIRPFviEEONSt16remove_referenceIT_E4typeEOS4_(void (i32)** dereferenceable(8) %1) #3
  call void @_ZNSt14_Function_base13_Base_managerIPFviEE15_M_init_functorERSt9_Any_dataOS2_St17integral_constantIbLb1EE(%"union.std::_Any_data"* dereferenceable(16) %0, void (i32)** dereferenceable(8) %3)
  ret void
}

; Function Attrs: noinline nounwind uwtable
define linkonce_odr dereferenceable(8) void (i32)** @_ZSt4moveIRPFviEEONSt16remove_referenceIT_E4typeEOS4_(void (i32)** dereferenceable(8) %0) #4 comdat {
  ret void (i32)** %0
}

; Function Attrs: noinline uwtable
define linkonce_odr void @_ZNSt17_Function_handlerIFviEPS0_E9_M_invokeERKSt9_Any_dataOi(%"union.std::_Any_data"* dereferenceable(16) %0, i32* dereferenceable(4) %1) #0 comdat align 2 {
  %3 = call void (i32)** @_ZNSt14_Function_base13_Base_managerIPFviEE14_M_get_pointerERKSt9_Any_data(%"union.std::_Any_data"* dereferenceable(16) %0)
  %4 = load void (i32)*, void (i32)** %3, align 8
  %5 = call dereferenceable(4) i32* @_ZSt7forwardIiEOT_RNSt16remove_referenceIS0_E4typeE(i32* dereferenceable(4) %1) #3
  %6 = load i32, i32* %5, align 4
  call void %4(i32 %6)
  ret void
}

; Function Attrs: noinline uwtable
define linkonce_odr zeroext i1 @_ZNSt14_Function_base13_Base_managerIPFviEE10_M_managerERSt9_Any_dataRKS4_St18_Manager_operation(%"union.std::_Any_data"* dereferenceable(16) %0, %"union.std::_Any_data"* dereferenceable(16) %1, i32 %2) #0 comdat align 2 {
  switch i32 %2, label %11 [
    i32 0, label %4
    i32 1, label %6
    i32 2, label %9
    i32 3, label %10
  ]

4:                                                ; preds = %3
  %5 = call dereferenceable(8) %"class.std::type_info"** @_ZNSt9_Any_data9_M_accessIPKSt9type_infoEERT_v(%"union.std::_Any_data"* %0)
  store %"class.std::type_info"* bitcast ({ i8*, i8*, i32, i8* }* @_ZTIPFviE to %"class.std::type_info"*), %"class.std::type_info"** %5, align 8
  br label %11

6:                                                ; preds = %3
  %7 = call void (i32)** @_ZNSt14_Function_base13_Base_managerIPFviEE14_M_get_pointerERKSt9_Any_data(%"union.std::_Any_data"* dereferenceable(16) %1)
  %8 = call dereferenceable(8) void (i32)*** @_ZNSt9_Any_data9_M_accessIPPFviEEERT_v(%"union.std::_Any_data"* %0)
  store void (i32)** %7, void (i32)*** %8, align 8
  br label %11

9:                                                ; preds = %3
  call void @_ZNSt14_Function_base13_Base_managerIPFviEE8_M_cloneERSt9_Any_dataRKS4_St17integral_constantIbLb1EE(%"union.std::_Any_data"* dereferenceable(16) %0, %"union.std::_Any_data"* dereferenceable(16) %1)
  br label %11

10:                                               ; preds = %3
  call void @_ZNSt14_Function_base13_Base_managerIPFviEE10_M_destroyERSt9_Any_dataSt17integral_constantIbLb1EE(%"union.std::_Any_data"* dereferenceable(16) %0)
  br label %11

11:                                               ; preds = %10, %9, %6, %4, %3
  ret i1 false
}

; Function Attrs: noinline uwtable
define linkonce_odr void @_ZNSt14_Function_base13_Base_managerIPFviEE15_M_init_functorERSt9_Any_dataOS2_St17integral_constantIbLb1EE(%"union.std::_Any_data"* dereferenceable(16) %0, void (i32)** dereferenceable(8) %1) #0 comdat align 2 {
  %3 = call i8* @_ZNSt9_Any_data9_M_accessEv(%"union.std::_Any_data"* %0)
  %4 = bitcast i8* %3 to void (i32)**
  %5 = call dereferenceable(8) void (i32)** @_ZSt4moveIRPFviEEONSt16remove_referenceIT_E4typeEOS4_(void (i32)** dereferenceable(8) %1) #3
  %6 = load void (i32)*, void (i32)** %5, align 8
  store void (i32)* %6, void (i32)** %4, align 8
  ret void
}

; Function Attrs: noinline nounwind uwtable
define linkonce_odr i8* @_ZNSt9_Any_data9_M_accessEv(%"union.std::_Any_data"* %0) #4 comdat align 2 {
  %2 = bitcast %"union.std::_Any_data"* %0 to [16 x i8]*
  %3 = getelementptr inbounds [16 x i8], [16 x i8]* %2, i64 0, i64 0
  ret i8* %3
}

; Function Attrs: noinline uwtable
define linkonce_odr void (i32)** @_ZNSt14_Function_base13_Base_managerIPFviEE14_M_get_pointerERKSt9_Any_data(%"union.std::_Any_data"* dereferenceable(16) %0) #0 comdat align 2 {
  %2 = call dereferenceable(8) void (i32)** @_ZNKSt9_Any_data9_M_accessIPFviEEERKT_v(%"union.std::_Any_data"* %0)
  %3 = call void (i32)** @_ZSt11__addressofIKPFviEEPT_RS3_(void (i32)** dereferenceable(8) %2) #3
  ret void (i32)** %3
}

; Function Attrs: noinline nounwind uwtable
define linkonce_odr dereferenceable(4) i32* @_ZSt7forwardIiEOT_RNSt16remove_referenceIS0_E4typeE(i32* dereferenceable(4) %0) #4 comdat {
  ret i32* %0
}

; Function Attrs: noinline nounwind uwtable
define linkonce_odr void (i32)** @_ZSt11__addressofIKPFviEEPT_RS3_(void (i32)** dereferenceable(8) %0) #4 comdat {
  ret void (i32)** %0
}

; Function Attrs: noinline uwtable
define linkonce_odr dereferenceable(8) void (i32)** @_ZNKSt9_Any_data9_M_accessIPFviEEERKT_v(%"union.std::_Any_data"* %0) #0 comdat align 2 {
  %2 = call i8* @_ZNKSt9_Any_data9_M_accessEv(%"union.std::_Any_data"* %0)
  %3 = bitcast i8* %2 to void (i32)**
  ret void (i32)** %3
}

; Function Attrs: noinline nounwind uwtable
define linkonce_odr i8* @_ZNKSt9_Any_data9_M_accessEv(%"union.std::_Any_data"* %0) #4 comdat align 2 {
  %2 = bitcast %"union.std::_Any_data"* %0 to [16 x i8]*
  %3 = getelementptr inbounds [16 x i8], [16 x i8]* %2, i64 0, i64 0
  ret i8* %3
}

; Function Attrs: noinline nounwind uwtable
define linkonce_odr dereferenceable(8) %"class.std::type_info"** @_ZNSt9_Any_data9_M_accessIPKSt9type_infoEERT_v(%"union.std::_Any_data"* %0) #4 comdat align 2 {
  %2 = call i8* @_ZNSt9_Any_data9_M_accessEv(%"union.std::_Any_data"* %0)
  %3 = bitcast i8* %2 to %"class.std::type_info"**
  ret %"class.std::type_info"** %3
}

; Function Attrs: noinline nounwind uwtable
define linkonce_odr dereferenceable(8) void (i32)*** @_ZNSt9_Any_data9_M_accessIPPFviEEERT_v(%"union.std::_Any_data"* %0) #4 comdat align 2 {
  %2 = call i8* @_ZNSt9_Any_data9_M_accessEv(%"union.std::_Any_data"* %0)
  %3 = bitcast i8* %2 to void (i32)***
  ret void (i32)*** %3
}

; Function Attrs: noinline uwtable
define linkonce_odr void @_ZNSt14_Function_base13_Base_managerIPFviEE8_M_cloneERSt9_Any_dataRKS4_St17integral_constantIbLb1EE(%"union.std::_Any_data"* dereferenceable(16) %0, %"union.std::_Any_data"* dereferenceable(16) %1) #0 comdat align 2 {
  %3 = call i8* @_ZNSt9_Any_data9_M_accessEv(%"union.std::_Any_data"* %0)
  %4 = bitcast i8* %3 to void (i32)**
  %5 = call dereferenceable(8) void (i32)** @_ZNKSt9_Any_data9_M_accessIPFviEEERKT_v(%"union.std::_Any_data"* %1)
  %6 = load void (i32)*, void (i32)** %5, align 8
  store void (i32)* %6, void (i32)** %4, align 8
  ret void
}

; Function Attrs: noinline uwtable
define linkonce_odr void @_ZNSt14_Function_base13_Base_managerIPFviEE10_M_destroyERSt9_Any_dataSt17integral_constantIbLb1EE(%"union.std::_Any_data"* dereferenceable(16) %0) #0 comdat align 2 {
  %2 = call dereferenceable(8) void (i32)** @_ZNSt9_Any_data9_M_accessIPFviEEERT_v(%"union.std::_Any_data"* %0)
  ret void
}

; Function Attrs: noinline nounwind uwtable
define linkonce_odr dereferenceable(8) void (i32)** @_ZNSt9_Any_data9_M_accessIPFviEEERT_v(%"union.std::_Any_data"* %0) #4 comdat align 2 {
  %2 = call i8* @_ZNSt9_Any_data9_M_accessEv(%"union.std::_Any_data"* %0)
  %3 = bitcast i8* %2 to void (i32)**
  ret void (i32)** %3
}

; Function Attrs: noinline nounwind uwtable
define linkonce_odr void @_ZN9__gnu_cxx17__normal_iteratorIPiSt6vectorIiSaIiEEEC2ERKS1_(%"class.__gnu_cxx::__normal_iterator"* %0, i32** dereferenceable(8) %1) unnamed_addr #4 comdat align 2 {
  %3 = getelementptr inbounds %"class.__gnu_cxx::__normal_iterator", %"class.__gnu_cxx::__normal_iterator"* %0, i32 0, i32 0
  %4 = load i32*, i32** %1, align 8
  store i32* %4, i32** %3, align 8
  ret void
}

; Function Attrs: noinline nounwind uwtable
define linkonce_odr zeroext i1 @_ZN9__gnu_cxxneIPiSt6vectorIiSaIiEEEEbRKNS_17__normal_iteratorIT_T0_EESA_(%"class.__gnu_cxx::__normal_iterator"* dereferenceable(8) %0, %"class.__gnu_cxx::__normal_iterator"* dereferenceable(8) %1) #4 comdat {
  %3 = call dereferenceable(8) i32** @_ZNK9__gnu_cxx17__normal_iteratorIPiSt6vectorIiSaIiEEE4baseEv(%"class.__gnu_cxx::__normal_iterator"* %0) #3
  %4 = load i32*, i32** %3, align 8
  %5 = call dereferenceable(8) i32** @_ZNK9__gnu_cxx17__normal_iteratorIPiSt6vectorIiSaIiEEE4baseEv(%"class.__gnu_cxx::__normal_iterator"* %1) #3
  %6 = load i32*, i32** %5, align 8
  %7 = icmp ne i32* %4, %6
  ret i1 %7
}

; Function Attrs: noinline nounwind uwtable
define internal void @"_ZZ4mainENK3$_0clEi"(%class.anon* %0, i32 %1) #4 align 2 {
  %3 = load i32, i32* @x, align 4
  %4 = add nsw i32 %3, %1
  store i32 %4, i32* @x, align 4
  ret void
}

; Function Attrs: noinline nounwind uwtable
define linkonce_odr dereferenceable(4) i32* @_ZNK9__gnu_cxx17__normal_iteratorIPiSt6vectorIiSaIiEEEdeEv(%"class.__gnu_cxx::__normal_iterator"* %0) #4 comdat align 2 {
  %2 = getelementptr inbounds %"class.__gnu_cxx::__normal_iterator", %"class.__gnu_cxx::__normal_iterator"* %0, i32 0, i32 0
  %3 = load i32*, i32** %2, align 8
  ret i32* %3
}

; Function Attrs: noinline nounwind uwtable
define linkonce_odr dereferenceable(8) %"class.__gnu_cxx::__normal_iterator"* @_ZN9__gnu_cxx17__normal_iteratorIPiSt6vectorIiSaIiEEEppEv(%"class.__gnu_cxx::__normal_iterator"* %0) #4 comdat align 2 {
  %2 = getelementptr inbounds %"class.__gnu_cxx::__normal_iterator", %"class.__gnu_cxx::__normal_iterator"* %0, i32 0, i32 0
  %3 = load i32*, i32** %2, align 8
  %4 = getelementptr inbounds i32, i32* %3, i32 1
  store i32* %4, i32** %2, align 8
  ret %"class.__gnu_cxx::__normal_iterator"* %0
}

; Function Attrs: noinline nounwind uwtable
define linkonce_odr dereferenceable(8) i32** @_ZNK9__gnu_cxx17__normal_iteratorIPiSt6vectorIiSaIiEEE4baseEv(%"class.__gnu_cxx::__normal_iterator"* %0) #4 comdat align 2 {
  %2 = getelementptr inbounds %"class.__gnu_cxx::__normal_iterator", %"class.__gnu_cxx::__normal_iterator"* %0, i32 0, i32 0
  ret i32** %2
}

; Function Attrs: noinline uwtable
define internal void @_GLOBAL__sub_I_09_09_00_performance_questions.cpp() #0 section ".text.startup" {
  call void @__cxx_global_var_init()
  ret void
}

; Function Attrs: argmemonly nocallback nofree nounwind willreturn
declare void @llvm.memcpy.p0i8.p0i8.i64(i8* noalias nocapture writeonly, i8* noalias nocapture readonly, i64, i1 immarg) #10

attributes #0 = { noinline uwtable "correctly-rounded-divide-sqrt-fp-math"="false" "disable-tail-calls"="false" "less-precise-fpmad"="false" "no-frame-pointer-elim"="true" "no-frame-pointer-elim-non-leaf" "no-infs-fp-math"="false" "no-jump-tables"="false" "no-nans-fp-math"="false" "no-signed-zeros-fp-math"="false" "no-trapping-math"="false" "stack-protector-buffer-size"="8" "target-cpu"="x86-64" "target-features"="+fxsr,+mmx,+sse,+sse2,+x87" "unsafe-fp-math"="false" "use-soft-float"="false" }
attributes #1 = { "correctly-rounded-divide-sqrt-fp-math"="false" "disable-tail-calls"="false" "less-precise-fpmad"="false" "no-frame-pointer-elim"="true" "no-frame-pointer-elim-non-leaf" "no-infs-fp-math"="false" "no-nans-fp-math"="false" "no-signed-zeros-fp-math"="false" "no-trapping-math"="false" "stack-protector-buffer-size"="8" "target-cpu"="x86-64" "target-features"="+fxsr,+mmx,+sse,+sse2,+x87" "unsafe-fp-math"="false" "use-soft-float"="false" }
attributes #2 = { nounwind "correctly-rounded-divide-sqrt-fp-math"="false" "disable-tail-calls"="false" "less-precise-fpmad"="false" "no-frame-pointer-elim"="true" "no-frame-pointer-elim-non-leaf" "no-infs-fp-math"="false" "no-nans-fp-math"="false" "no-signed-zeros-fp-math"="false" "no-trapping-math"="false" "stack-protector-buffer-size"="8" "target-cpu"="x86-64" "target-features"="+fxsr,+mmx,+sse,+sse2,+x87" "unsafe-fp-math"="false" "use-soft-float"="false" }
attributes #3 = { nounwind }
attributes #4 = { noinline nounwind uwtable "correctly-rounded-divide-sqrt-fp-math"="false" "disable-tail-calls"="false" "less-precise-fpmad"="false" "no-frame-pointer-elim"="true" "no-frame-pointer-elim-non-leaf" "no-infs-fp-math"="false" "no-jump-tables"="false" "no-nans-fp-math"="false" "no-signed-zeros-fp-math"="false" "no-trapping-math"="false" "stack-protector-buffer-size"="8" "target-cpu"="x86-64" "target-features"="+fxsr,+mmx,+sse,+sse2,+x87" "unsafe-fp-math"="false" "use-soft-float"="false" }
attributes #5 = { noinline norecurse uwtable "correctly-rounded-divide-sqrt-fp-math"="false" "disable-tail-calls"="false" "less-precise-fpmad"="false" "no-frame-pointer-elim"="true" "no-frame-pointer-elim-non-leaf" "no-infs-fp-math"="false" "no-jump-tables"="false" "no-nans-fp-math"="false" "no-signed-zeros-fp-math"="false" "no-trapping-math"="false" "stack-protector-buffer-size"="8" "target-cpu"="x86-64" "target-features"="+fxsr,+mmx,+sse,+sse2,+x87" "unsafe-fp-math"="false" "use-soft-float"="false" }
attributes #6 = { noinline noreturn nounwind }
attributes #7 = { noreturn "correctly-rounded-divide-sqrt-fp-math"="false" "disable-tail-calls"="false" "less-precise-fpmad"="false" "no-frame-pointer-elim"="true" "no-frame-pointer-elim-non-leaf" "no-infs-fp-math"="false" "no-nans-fp-math"="false" "no-signed-zeros-fp-math"="false" "no-trapping-math"="false" "stack-protector-buffer-size"="8" "target-cpu"="x86-64" "target-features"="+fxsr,+mmx,+sse,+sse2,+x87" "unsafe-fp-math"="false" "use-soft-float"="false" }
attributes #8 = { nobuiltin "correctly-rounded-divide-sqrt-fp-math"="false" "disable-tail-calls"="false" "less-precise-fpmad"="false" "no-frame-pointer-elim"="true" "no-frame-pointer-elim-non-leaf" "no-infs-fp-math"="false" "no-nans-fp-math"="false" "no-signed-zeros-fp-math"="false" "no-trapping-math"="false" "stack-protector-buffer-size"="8" "target-cpu"="x86-64" "target-features"="+fxsr,+mmx,+sse,+sse2,+x87" "unsafe-fp-math"="false" "use-soft-float"="false" }
attributes #9 = { nobuiltin nounwind "correctly-rounded-divide-sqrt-fp-math"="false" "disable-tail-calls"="false" "less-precise-fpmad"="false" "no-frame-pointer-elim"="true" "no-frame-pointer-elim-non-leaf" "no-infs-fp-math"="false" "no-nans-fp-math"="false" "no-signed-zeros-fp-math"="false" "no-trapping-math"="false" "stack-protector-buffer-size"="8" "target-cpu"="x86-64" "target-features"="+fxsr,+mmx,+sse,+sse2,+x87" "unsafe-fp-math"="false" "use-soft-float"="false" }
attributes #10 = { argmemonly nocallback nofree nounwind willreturn }
attributes #11 = { noreturn nounwind }
attributes #12 = { noreturn }

!llvm.module.flags = !{!0}
!llvm.ident = !{!1}

!0 = !{i32 1, !"wchar_size", i32 4}
!1 = !{!"clang version 6.0.0-1ubuntu2 (tags/RELEASE_600/final)"}
