; ModuleID = '/home/pedro/tcc/exDataset/sample/sample/spectre-cpp-basics-main/Solutions/Lesson2/Poly/Main.ll'
source_filename = "/home/pedro/tcc/exDataset/sample/sample/spectre-cpp-basics-main/Solutions/Lesson2/Poly/Main.cpp"
target datalayout = "e-m:e-i64:64-f80:128-n8:16:32:64-S128"
target triple = "x86_64-pc-linux-gnu"

%"class.std::ios_base::Init" = type { i8 }
%"class.std::basic_ostream" = type { i32 (...)**, %"class.std::basic_ios" }
%"class.std::basic_ios" = type { %"class.std::ios_base", %"class.std::basic_ostream"*, i8, i8, %"class.std::basic_streambuf"*, %"class.std::ctype"*, %"class.std::num_put"*, %"class.std::num_get"* }
%"class.std::ios_base" = type { i32 (...)**, i64, i64, i32, i32, i32, %"struct.std::ios_base::_Callback_list"*, %"struct.std::ios_base::_Words", [8 x %"struct.std::ios_base::_Words"], i32, %"struct.std::ios_base::_Words"*, %"class.std::locale" }
%"struct.std::ios_base::_Callback_list" = type { %"struct.std::ios_base::_Callback_list"*, void (i32, %"class.std::ios_base"*, i32)*, i32, i32 }
%"struct.std::ios_base::_Words" = type { i8*, i64 }
%"class.std::locale" = type { %"class.std::locale::_Impl"* }
%"class.std::locale::_Impl" = type { i32, %"class.std::locale::facet"**, i64, %"class.std::locale::facet"**, i8** }
%"class.std::locale::facet" = type <{ i32 (...)**, i32, [4 x i8] }>
%"class.std::basic_streambuf" = type { i32 (...)**, i8*, i8*, i8*, i8*, i8*, i8*, %"class.std::locale" }
%"class.std::ctype" = type <{ %"class.std::locale::facet.base", [4 x i8], %struct.__locale_struct*, i8, [7 x i8], i32*, i32*, i16*, i8, [256 x i8], [256 x i8], i8, [6 x i8] }>
%"class.std::locale::facet.base" = type <{ i32 (...)**, i32 }>
%struct.__locale_struct = type { [13 x %struct.__locale_data*], i16*, i32*, i32*, [13 x i8*] }
%struct.__locale_data = type opaque
%"class.std::num_put" = type { %"class.std::locale::facet.base", [4 x i8] }
%"class.std::num_get" = type { %"class.std::locale::facet.base", [4 x i8] }
%class.Rectangle = type { %class.Polygon, double, double }
%class.Polygon = type { i32 (...)** }
%class.Square = type { %class.Rectangle }
%class.RightTriangle = type { %class.Polygon, double, double }

$_ZN9Rectangle15number_of_sidesEv = comdat any

@_ZStL8__ioinit = internal global %"class.std::ios_base::Init" zeroinitializer, align 1
@__dso_handle = external hidden global i8
@_ZSt4cout = external global %"class.std::basic_ostream", align 8
@.str = private unnamed_addr constant [22 x i8] c"Rectangle perimeter: \00", align 1
@.str.1 = private unnamed_addr constant [2 x i8] c"\0A\00", align 1
@.str.2 = private unnamed_addr constant [24 x i8] c"Rectangle area take 1: \00", align 1
@.str.3 = private unnamed_addr constant [24 x i8] c"Rectangle area take 2: \00", align 1
@.str.4 = private unnamed_addr constant [24 x i8] c"Rectangle area take 3: \00", align 1
@.str.5 = private unnamed_addr constant [28 x i8] c"Rectangle number of sides: \00", align 1
@.str.6 = private unnamed_addr constant [19 x i8] c"Square perimeter: \00", align 1
@.str.7 = private unnamed_addr constant [25 x i8] c"Square number of sides: \00", align 1
@.str.8 = private unnamed_addr constant [27 x i8] c"Right triangle perimeter: \00", align 1
@.str.9 = private unnamed_addr constant [22 x i8] c"Right triangle area: \00", align 1
@llvm.global_ctors = appending global [1 x { i32, void ()*, i8* }] [{ i32, void ()*, i8* } { i32 65535, void ()* @_GLOBAL__sub_I_Main.cpp, i8* null }]

; Function Attrs: noinline uwtable
define internal void @__cxx_global_var_init() #0 section ".text.startup" {
  call void @_ZNSt8ios_base4InitC1Ev(%"class.std::ios_base::Init"* @_ZStL8__ioinit)
  %1 = call i32 @__cxa_atexit(void (i8*)* bitcast (void (%"class.std::ios_base::Init"*)* @_ZNSt8ios_base4InitD1Ev to void (i8*)*), i8* getelementptr inbounds (%"class.std::ios_base::Init", %"class.std::ios_base::Init"* @_ZStL8__ioinit, i32 0, i32 0), i8* @__dso_handle) #3
  ret void
}

declare void @_ZNSt8ios_base4InitC1Ev(%"class.std::ios_base::Init"*) unnamed_addr #1

; Function Attrs: nounwind
declare void @_ZNSt8ios_base4InitD1Ev(%"class.std::ios_base::Init"*) unnamed_addr #2

; Function Attrs: nounwind
declare i32 @__cxa_atexit(void (i8*)*, i8*, i8*) #3

; Function Attrs: noinline norecurse uwtable
define i32 @main() #4 {
  %1 = alloca %class.Rectangle, align 8
  %2 = alloca %class.Rectangle, align 8
  %3 = alloca %class.Square, align 8
  %4 = alloca %class.RightTriangle, align 8
  call void @_ZN9RectangleC1Edd(%class.Rectangle* %1, double 4.000000e+00, double 3.000000e+00) #3
  call void @_ZN9RectangleC1Edd(%class.Rectangle* %2, double 7.000000e+00, double 5.000000e+00) #3
  %5 = call dereferenceable(272) %"class.std::basic_ostream"* @_ZStlsISt11char_traitsIcEERSt13basic_ostreamIcT_ES5_PKc(%"class.std::basic_ostream"* dereferenceable(272) @_ZSt4cout, i8* getelementptr inbounds ([22 x i8], [22 x i8]* @.str, i32 0, i32 0))
  %6 = call double @_ZNK9Rectangle9perimeterEv(%class.Rectangle* %1) #3
  %7 = call dereferenceable(272) %"class.std::basic_ostream"* @_ZNSolsEd(%"class.std::basic_ostream"* %5, double %6)
  %8 = call dereferenceable(272) %"class.std::basic_ostream"* @_ZStlsISt11char_traitsIcEERSt13basic_ostreamIcT_ES5_PKc(%"class.std::basic_ostream"* dereferenceable(272) %7, i8* getelementptr inbounds ([2 x i8], [2 x i8]* @.str.1, i32 0, i32 0))
  %9 = call dereferenceable(272) %"class.std::basic_ostream"* @_ZStlsISt11char_traitsIcEERSt13basic_ostreamIcT_ES5_PKc(%"class.std::basic_ostream"* dereferenceable(272) @_ZSt4cout, i8* getelementptr inbounds ([24 x i8], [24 x i8]* @.str.2, i32 0, i32 0))
  %10 = call double @_ZNK9Rectangle4areaEv(%class.Rectangle* %1) #3
  %11 = call dereferenceable(272) %"class.std::basic_ostream"* @_ZNSolsEd(%"class.std::basic_ostream"* %9, double %10)
  %12 = call dereferenceable(272) %"class.std::basic_ostream"* @_ZStlsISt11char_traitsIcEERSt13basic_ostreamIcT_ES5_PKc(%"class.std::basic_ostream"* dereferenceable(272) %11, i8* getelementptr inbounds ([2 x i8], [2 x i8]* @.str.1, i32 0, i32 0))
  %13 = call dereferenceable(272) %"class.std::basic_ostream"* @_ZStlsISt11char_traitsIcEERSt13basic_ostreamIcT_ES5_PKc(%"class.std::basic_ostream"* dereferenceable(272) @_ZSt4cout, i8* getelementptr inbounds ([24 x i8], [24 x i8]* @.str.3, i32 0, i32 0))
  %14 = call double @_ZNK9Rectangle9evil_areaEv(%class.Rectangle* %1) #3
  %15 = call dereferenceable(272) %"class.std::basic_ostream"* @_ZNSolsEd(%"class.std::basic_ostream"* %13, double %14)
  %16 = call dereferenceable(272) %"class.std::basic_ostream"* @_ZStlsISt11char_traitsIcEERSt13basic_ostreamIcT_ES5_PKc(%"class.std::basic_ostream"* dereferenceable(272) %15, i8* getelementptr inbounds ([2 x i8], [2 x i8]* @.str.1, i32 0, i32 0))
  %17 = call dereferenceable(272) %"class.std::basic_ostream"* @_ZStlsISt11char_traitsIcEERSt13basic_ostreamIcT_ES5_PKc(%"class.std::basic_ostream"* dereferenceable(272) @_ZSt4cout, i8* getelementptr inbounds ([24 x i8], [24 x i8]* @.str.4, i32 0, i32 0))
  %18 = call double @_ZNK9Rectangle4areaEv(%class.Rectangle* %1) #3
  %19 = call dereferenceable(272) %"class.std::basic_ostream"* @_ZNSolsEd(%"class.std::basic_ostream"* %17, double %18)
  %20 = call dereferenceable(272) %"class.std::basic_ostream"* @_ZStlsISt11char_traitsIcEERSt13basic_ostreamIcT_ES5_PKc(%"class.std::basic_ostream"* dereferenceable(272) %19, i8* getelementptr inbounds ([2 x i8], [2 x i8]* @.str.1, i32 0, i32 0))
  %21 = call dereferenceable(272) %"class.std::basic_ostream"* @_ZStlsISt11char_traitsIcEERSt13basic_ostreamIcT_ES5_PKc(%"class.std::basic_ostream"* dereferenceable(272) @_ZSt4cout, i8* getelementptr inbounds ([28 x i8], [28 x i8]* @.str.5, i32 0, i32 0))
  %22 = call i64 @_ZN9Rectangle15number_of_sidesEv()
  %23 = call dereferenceable(272) %"class.std::basic_ostream"* @_ZNSolsEm(%"class.std::basic_ostream"* %21, i64 %22)
  %24 = call dereferenceable(272) %"class.std::basic_ostream"* @_ZStlsISt11char_traitsIcEERSt13basic_ostreamIcT_ES5_PKc(%"class.std::basic_ostream"* dereferenceable(272) %23, i8* getelementptr inbounds ([2 x i8], [2 x i8]* @.str.1, i32 0, i32 0))
  call void @_ZN6SquareC1Ed(%class.Square* %3, double 4.000000e+00) #3
  %25 = call dereferenceable(272) %"class.std::basic_ostream"* @_ZStlsISt11char_traitsIcEERSt13basic_ostreamIcT_ES5_PKc(%"class.std::basic_ostream"* dereferenceable(272) @_ZSt4cout, i8* getelementptr inbounds ([19 x i8], [19 x i8]* @.str.6, i32 0, i32 0))
  %26 = bitcast %class.Square* %3 to %class.Rectangle*
  %27 = call double @_ZNK9Rectangle9perimeterEv(%class.Rectangle* %26) #3
  %28 = call dereferenceable(272) %"class.std::basic_ostream"* @_ZNSolsEd(%"class.std::basic_ostream"* %25, double %27)
  %29 = call dereferenceable(272) %"class.std::basic_ostream"* @_ZStlsISt11char_traitsIcEERSt13basic_ostreamIcT_ES5_PKc(%"class.std::basic_ostream"* dereferenceable(272) %28, i8* getelementptr inbounds ([2 x i8], [2 x i8]* @.str.1, i32 0, i32 0))
  %30 = call dereferenceable(272) %"class.std::basic_ostream"* @_ZStlsISt11char_traitsIcEERSt13basic_ostreamIcT_ES5_PKc(%"class.std::basic_ostream"* dereferenceable(272) @_ZSt4cout, i8* getelementptr inbounds ([25 x i8], [25 x i8]* @.str.7, i32 0, i32 0))
  %31 = call i64 @_ZN9Rectangle15number_of_sidesEv()
  %32 = call dereferenceable(272) %"class.std::basic_ostream"* @_ZNSolsEm(%"class.std::basic_ostream"* %30, i64 %31)
  %33 = call dereferenceable(272) %"class.std::basic_ostream"* @_ZStlsISt11char_traitsIcEERSt13basic_ostreamIcT_ES5_PKc(%"class.std::basic_ostream"* dereferenceable(272) %32, i8* getelementptr inbounds ([2 x i8], [2 x i8]* @.str.1, i32 0, i32 0))
  call void @_ZN13RightTriangleC1Edd(%class.RightTriangle* %4, double 3.000000e+00, double 4.000000e+00) #3
  %34 = call dereferenceable(272) %"class.std::basic_ostream"* @_ZStlsISt11char_traitsIcEERSt13basic_ostreamIcT_ES5_PKc(%"class.std::basic_ostream"* dereferenceable(272) @_ZSt4cout, i8* getelementptr inbounds ([27 x i8], [27 x i8]* @.str.8, i32 0, i32 0))
  %35 = call double @_ZNK13RightTriangle9perimeterEv(%class.RightTriangle* %4) #3
  %36 = call dereferenceable(272) %"class.std::basic_ostream"* @_ZNSolsEd(%"class.std::basic_ostream"* %34, double %35)
  %37 = call dereferenceable(272) %"class.std::basic_ostream"* @_ZStlsISt11char_traitsIcEERSt13basic_ostreamIcT_ES5_PKc(%"class.std::basic_ostream"* dereferenceable(272) %36, i8* getelementptr inbounds ([2 x i8], [2 x i8]* @.str.1, i32 0, i32 0))
  %38 = call dereferenceable(272) %"class.std::basic_ostream"* @_ZStlsISt11char_traitsIcEERSt13basic_ostreamIcT_ES5_PKc(%"class.std::basic_ostream"* dereferenceable(272) @_ZSt4cout, i8* getelementptr inbounds ([22 x i8], [22 x i8]* @.str.9, i32 0, i32 0))
  %39 = call double @_ZNK13RightTriangle4areaEv(%class.RightTriangle* %4) #3
  %40 = call dereferenceable(272) %"class.std::basic_ostream"* @_ZNSolsEd(%"class.std::basic_ostream"* %38, double %39)
  %41 = call dereferenceable(272) %"class.std::basic_ostream"* @_ZStlsISt11char_traitsIcEERSt13basic_ostreamIcT_ES5_PKc(%"class.std::basic_ostream"* dereferenceable(272) %40, i8* getelementptr inbounds ([2 x i8], [2 x i8]* @.str.1, i32 0, i32 0))
  ret i32 0
}

; Function Attrs: nounwind
declare void @_ZN9RectangleC1Edd(%class.Rectangle*, double, double) unnamed_addr #2

declare dereferenceable(272) %"class.std::basic_ostream"* @_ZStlsISt11char_traitsIcEERSt13basic_ostreamIcT_ES5_PKc(%"class.std::basic_ostream"* dereferenceable(272), i8*) #1

declare dereferenceable(272) %"class.std::basic_ostream"* @_ZNSolsEd(%"class.std::basic_ostream"*, double) #1

; Function Attrs: nounwind
declare double @_ZNK9Rectangle9perimeterEv(%class.Rectangle*) unnamed_addr #2

; Function Attrs: nounwind
declare double @_ZNK9Rectangle4areaEv(%class.Rectangle*) unnamed_addr #2

; Function Attrs: nounwind
declare double @_ZNK9Rectangle9evil_areaEv(%class.Rectangle*) #2

declare dereferenceable(272) %"class.std::basic_ostream"* @_ZNSolsEm(%"class.std::basic_ostream"*, i64) #1

; Function Attrs: noinline nounwind uwtable
define linkonce_odr i64 @_ZN9Rectangle15number_of_sidesEv() #5 comdat align 2 {
  ret i64 4
}

; Function Attrs: nounwind
declare void @_ZN6SquareC1Ed(%class.Square*, double) unnamed_addr #2

; Function Attrs: nounwind
declare void @_ZN13RightTriangleC1Edd(%class.RightTriangle*, double, double) unnamed_addr #2

; Function Attrs: nounwind
declare double @_ZNK13RightTriangle9perimeterEv(%class.RightTriangle*) unnamed_addr #2

; Function Attrs: nounwind
declare double @_ZNK13RightTriangle4areaEv(%class.RightTriangle*) unnamed_addr #2

; Function Attrs: noinline uwtable
define internal void @_GLOBAL__sub_I_Main.cpp() #0 section ".text.startup" {
  call void @__cxx_global_var_init()
  ret void
}

attributes #0 = { noinline uwtable "correctly-rounded-divide-sqrt-fp-math"="false" "disable-tail-calls"="false" "less-precise-fpmad"="false" "no-frame-pointer-elim"="true" "no-frame-pointer-elim-non-leaf" "no-infs-fp-math"="false" "no-jump-tables"="false" "no-nans-fp-math"="false" "no-signed-zeros-fp-math"="false" "no-trapping-math"="false" "stack-protector-buffer-size"="8" "target-cpu"="x86-64" "target-features"="+fxsr,+mmx,+sse,+sse2,+x87" "unsafe-fp-math"="false" "use-soft-float"="false" }
attributes #1 = { "correctly-rounded-divide-sqrt-fp-math"="false" "disable-tail-calls"="false" "less-precise-fpmad"="false" "no-frame-pointer-elim"="true" "no-frame-pointer-elim-non-leaf" "no-infs-fp-math"="false" "no-nans-fp-math"="false" "no-signed-zeros-fp-math"="false" "no-trapping-math"="false" "stack-protector-buffer-size"="8" "target-cpu"="x86-64" "target-features"="+fxsr,+mmx,+sse,+sse2,+x87" "unsafe-fp-math"="false" "use-soft-float"="false" }
attributes #2 = { nounwind "correctly-rounded-divide-sqrt-fp-math"="false" "disable-tail-calls"="false" "less-precise-fpmad"="false" "no-frame-pointer-elim"="true" "no-frame-pointer-elim-non-leaf" "no-infs-fp-math"="false" "no-nans-fp-math"="false" "no-signed-zeros-fp-math"="false" "no-trapping-math"="false" "stack-protector-buffer-size"="8" "target-cpu"="x86-64" "target-features"="+fxsr,+mmx,+sse,+sse2,+x87" "unsafe-fp-math"="false" "use-soft-float"="false" }
attributes #3 = { nounwind }
attributes #4 = { noinline norecurse uwtable "correctly-rounded-divide-sqrt-fp-math"="false" "disable-tail-calls"="false" "less-precise-fpmad"="false" "no-frame-pointer-elim"="true" "no-frame-pointer-elim-non-leaf" "no-infs-fp-math"="false" "no-jump-tables"="false" "no-nans-fp-math"="false" "no-signed-zeros-fp-math"="false" "no-trapping-math"="false" "stack-protector-buffer-size"="8" "target-cpu"="x86-64" "target-features"="+fxsr,+mmx,+sse,+sse2,+x87" "unsafe-fp-math"="false" "use-soft-float"="false" }
attributes #5 = { noinline nounwind uwtable "correctly-rounded-divide-sqrt-fp-math"="false" "disable-tail-calls"="false" "less-precise-fpmad"="false" "no-frame-pointer-elim"="true" "no-frame-pointer-elim-non-leaf" "no-infs-fp-math"="false" "no-jump-tables"="false" "no-nans-fp-math"="false" "no-signed-zeros-fp-math"="false" "no-trapping-math"="false" "stack-protector-buffer-size"="8" "target-cpu"="x86-64" "target-features"="+fxsr,+mmx,+sse,+sse2,+x87" "unsafe-fp-math"="false" "use-soft-float"="false" }

!llvm.module.flags = !{!0}
!llvm.ident = !{!1}

!0 = !{i32 1, !"wchar_size", i32 4}
!1 = !{!"clang version 6.0.0-1ubuntu2 (tags/RELEASE_600/final)"}
