; ModuleID = '/home/pedro/tcc/exDataset/sample/sample/Cpp.Playground-master/practice/operator_overloading_1.ll'
source_filename = "/home/pedro/tcc/exDataset/sample/sample/Cpp.Playground-master/practice/operator_overloading_1.cpp"
target datalayout = "e-m:e-i64:64-f80:128-n8:16:32:64-S128"
target triple = "x86_64-pc-linux-gnu"

%"class.std::ios_base::Init" = type { i8 }
%"class.std::basic_ostream" = type { i32 (...)**, %"class.std::basic_ios" }
%"class.std::basic_ios" = type { %"class.std::ios_base", %"class.std::basic_ostream"*, i8, i8, %"class.std::basic_streambuf"*, %"class.std::ctype"*, %"class.std::num_put"*, %"class.std::num_get"* }
%"class.std::ios_base" = type { i32 (...)**, i64, i64, i32, i32, i32, %"struct.std::ios_base::_Callback_list"*, %"struct.std::ios_base::_Words", [8 x %"struct.std::ios_base::_Words"], i32, %"struct.std::ios_base::_Words"*, %"class.std::locale" }
%"struct.std::ios_base::_Callback_list" = type { %"struct.std::ios_base::_Callback_list"*, void (i32, %"class.std::ios_base"*, i32)*, i32, i32 }
%"struct.std::ios_base::_Words" = type { i8*, i64 }
%"class.std::locale" = type { %"class.std::locale::_Impl"* }
%"class.std::locale::_Impl" = type { i32, %"class.std::locale::facet"**, i64, %"class.std::locale::facet"**, i8** }
%"class.std::locale::facet" = type <{ i32 (...)**, i32, [4 x i8] }>
%"class.std::basic_streambuf" = type { i32 (...)**, i8*, i8*, i8*, i8*, i8*, i8*, %"class.std::locale" }
%"class.std::ctype" = type <{ %"class.std::locale::facet.base", [4 x i8], %struct.__locale_struct*, i8, [7 x i8], i32*, i32*, i16*, i8, [256 x i8], [256 x i8], i8, [6 x i8] }>
%"class.std::locale::facet.base" = type <{ i32 (...)**, i32 }>
%struct.__locale_struct = type { [13 x %struct.__locale_data*], i16*, i32*, i32*, [13 x i8*] }
%struct.__locale_data = type opaque
%"class.std::num_put" = type { %"class.std::locale::facet.base", [4 x i8] }
%"class.std::num_get" = type { %"class.std::locale::facet.base", [4 x i8] }
%class.PowerUpTime = type { double, double, %"class.std::__cxx11::basic_string" }
%"class.std::__cxx11::basic_string" = type { %"struct.std::__cxx11::basic_string<char, std::char_traits<char>, std::allocator<char> >::_Alloc_hider", i64, %union.anon }
%"struct.std::__cxx11::basic_string<char, std::char_traits<char>, std::allocator<char> >::_Alloc_hider" = type { i8* }
%union.anon = type { i64, [8 x i8] }
%"class.std::allocator" = type { i8 }

$_ZN11PowerUpTimeC2EiiNSt7__cxx1112basic_stringIcSt11char_traitsIcESaIcEEE = comdat any

$_ZN11PowerUpTimeD2Ev = comdat any

@_ZStL8__ioinit = internal global %"class.std::ios_base::Init" zeroinitializer, align 1
@__dso_handle = external hidden global i8
@.str = private unnamed_addr constant [5 x i8] c"Goku\00", align 1
@.str.1 = private unnamed_addr constant [7 x i8] c"Vegeta\00", align 1
@.str.2 = private unnamed_addr constant [2 x i8] c"-\00", align 1
@_ZSt4cout = external global %"class.std::basic_ostream", align 8
@llvm.global_ctors = appending global [1 x { i32, void ()*, i8* }] [{ i32, void ()*, i8* } { i32 65535, void ()* @_GLOBAL__sub_I_operator_overloading_1.cpp, i8* null }]

; Function Attrs: noinline uwtable
define internal void @__cxx_global_var_init() #0 section ".text.startup" {
  call void @_ZNSt8ios_base4InitC1Ev(%"class.std::ios_base::Init"* @_ZStL8__ioinit)
  %1 = call i32 @__cxa_atexit(void (i8*)* bitcast (void (%"class.std::ios_base::Init"*)* @_ZNSt8ios_base4InitD1Ev to void (i8*)*), i8* getelementptr inbounds (%"class.std::ios_base::Init", %"class.std::ios_base::Init"* @_ZStL8__ioinit, i32 0, i32 0), i8* @__dso_handle) #3
  ret void
}

declare void @_ZNSt8ios_base4InitC1Ev(%"class.std::ios_base::Init"*) unnamed_addr #1

; Function Attrs: nounwind
declare void @_ZNSt8ios_base4InitD1Ev(%"class.std::ios_base::Init"*) unnamed_addr #2

; Function Attrs: nounwind
declare i32 @__cxa_atexit(void (i8*)*, i8*, i8*) #3

; Function Attrs: noinline norecurse uwtable
define i32 @main(i32 %0, i8** %1) #4 personality i8* bitcast (i32 (...)* @__gxx_personality_v0 to i8*) {
  %3 = alloca %class.PowerUpTime, align 8
  %4 = alloca %"class.std::__cxx11::basic_string", align 8
  %5 = alloca %"class.std::allocator", align 1
  %6 = alloca %class.PowerUpTime, align 8
  %7 = alloca %"class.std::__cxx11::basic_string", align 8
  %8 = alloca %"class.std::allocator", align 1
  %9 = alloca %class.PowerUpTime, align 8
  %10 = alloca %"class.std::__cxx11::basic_string", align 8
  %11 = alloca %"class.std::allocator", align 1
  %12 = alloca %class.PowerUpTime, align 8
  %13 = alloca %"class.std::__cxx11::basic_string", align 8
  %14 = alloca %"class.std::allocator", align 1
  call void @_ZNSaIcEC1Ev(%"class.std::allocator"* %5) #3
  invoke void @_ZNSt7__cxx1112basic_stringIcSt11char_traitsIcESaIcEEC1EPKcRKS3_(%"class.std::__cxx11::basic_string"* %4, i8* getelementptr inbounds ([5 x i8], [5 x i8]* @.str, i32 0, i32 0), %"class.std::allocator"* dereferenceable(1) %5)
          to label %15 unwind label %25

15:                                               ; preds = %2
  invoke void @_ZN11PowerUpTimeC2EiiNSt7__cxx1112basic_stringIcSt11char_traitsIcESaIcEEE(%class.PowerUpTime* %3, i32 1, i32 70, %"class.std::__cxx11::basic_string"* %4)
          to label %16 unwind label %29

16:                                               ; preds = %15
  call void @_ZNSt7__cxx1112basic_stringIcSt11char_traitsIcESaIcEED1Ev(%"class.std::__cxx11::basic_string"* %4) #3
  call void @_ZNSaIcED1Ev(%"class.std::allocator"* %5) #3
  call void @_ZNSaIcEC1Ev(%"class.std::allocator"* %8) #3
  invoke void @_ZNSt7__cxx1112basic_stringIcSt11char_traitsIcESaIcEEC1EPKcRKS3_(%"class.std::__cxx11::basic_string"* %7, i8* getelementptr inbounds ([7 x i8], [7 x i8]* @.str.1, i32 0, i32 0), %"class.std::allocator"* dereferenceable(1) %8)
          to label %17 unwind label %34

17:                                               ; preds = %16
  invoke void @_ZN11PowerUpTimeC2EiiNSt7__cxx1112basic_stringIcSt11char_traitsIcESaIcEEE(%class.PowerUpTime* %6, i32 2, i32 61, %"class.std::__cxx11::basic_string"* %7)
          to label %18 unwind label %38

18:                                               ; preds = %17
  call void @_ZNSt7__cxx1112basic_stringIcSt11char_traitsIcESaIcEED1Ev(%"class.std::__cxx11::basic_string"* %7) #3
  call void @_ZNSaIcED1Ev(%"class.std::allocator"* %8) #3
  call void @_ZNSaIcEC1Ev(%"class.std::allocator"* %11) #3
  invoke void @_ZNSt7__cxx1112basic_stringIcSt11char_traitsIcESaIcEEC1EPKcRKS3_(%"class.std::__cxx11::basic_string"* %10, i8* getelementptr inbounds ([2 x i8], [2 x i8]* @.str.2, i32 0, i32 0), %"class.std::allocator"* dereferenceable(1) %11)
          to label %19 unwind label %43

19:                                               ; preds = %18
  invoke void @_ZN11PowerUpTimeC2EiiNSt7__cxx1112basic_stringIcSt11char_traitsIcESaIcEEE(%class.PowerUpTime* %9, i32 0, i32 0, %"class.std::__cxx11::basic_string"* %10)
          to label %20 unwind label %47

20:                                               ; preds = %19
  call void @_ZNSt7__cxx1112basic_stringIcSt11char_traitsIcESaIcEED1Ev(%"class.std::__cxx11::basic_string"* %10) #3
  call void @_ZNSaIcED1Ev(%"class.std::allocator"* %11) #3
  call void @_ZNSaIcEC1Ev(%"class.std::allocator"* %14) #3
  invoke void @_ZNSt7__cxx1112basic_stringIcSt11char_traitsIcESaIcEEC1EPKcRKS3_(%"class.std::__cxx11::basic_string"* %13, i8* getelementptr inbounds ([2 x i8], [2 x i8]* @.str.2, i32 0, i32 0), %"class.std::allocator"* dereferenceable(1) %14)
          to label %21 unwind label %52

21:                                               ; preds = %20
  invoke void @_ZN11PowerUpTimeC2EiiNSt7__cxx1112basic_stringIcSt11char_traitsIcESaIcEEE(%class.PowerUpTime* %12, i32 0, i32 0, %"class.std::__cxx11::basic_string"* %13)
          to label %22 unwind label %56

22:                                               ; preds = %21
  call void @_ZNSt7__cxx1112basic_stringIcSt11char_traitsIcESaIcEED1Ev(%"class.std::__cxx11::basic_string"* %13) #3
  call void @_ZNSaIcED1Ev(%"class.std::allocator"* %14) #3
  %23 = invoke dereferenceable(272) %"class.std::basic_ostream"* @_ZNSolsEPFRSoS_E(%"class.std::basic_ostream"* @_ZSt4cout, %"class.std::basic_ostream"* (%"class.std::basic_ostream"*)* @_ZSt4endlIcSt11char_traitsIcEERSt13basic_ostreamIT_T0_ES6_)
          to label %24 unwind label %61

24:                                               ; preds = %22
  call void @_ZN11PowerUpTimeD2Ev(%class.PowerUpTime* %12) #3
  call void @_ZN11PowerUpTimeD2Ev(%class.PowerUpTime* %9) #3
  call void @_ZN11PowerUpTimeD2Ev(%class.PowerUpTime* %6) #3
  call void @_ZN11PowerUpTimeD2Ev(%class.PowerUpTime* %3) #3
  ret i32 0

25:                                               ; preds = %2
  %26 = landingpad { i8*, i32 }
          cleanup
  %27 = extractvalue { i8*, i32 } %26, 0
  %28 = extractvalue { i8*, i32 } %26, 1
  br label %33

29:                                               ; preds = %15
  %30 = landingpad { i8*, i32 }
          cleanup
  %31 = extractvalue { i8*, i32 } %30, 0
  %32 = extractvalue { i8*, i32 } %30, 1
  call void @_ZNSt7__cxx1112basic_stringIcSt11char_traitsIcESaIcEED1Ev(%"class.std::__cxx11::basic_string"* %4) #3
  br label %33

33:                                               ; preds = %29, %25
  %.01 = phi i8* [ %31, %29 ], [ %27, %25 ]
  %.0 = phi i32 [ %32, %29 ], [ %28, %25 ]
  call void @_ZNSaIcED1Ev(%"class.std::allocator"* %5) #3
  br label %68

34:                                               ; preds = %16
  %35 = landingpad { i8*, i32 }
          cleanup
  %36 = extractvalue { i8*, i32 } %35, 0
  %37 = extractvalue { i8*, i32 } %35, 1
  br label %42

38:                                               ; preds = %17
  %39 = landingpad { i8*, i32 }
          cleanup
  %40 = extractvalue { i8*, i32 } %39, 0
  %41 = extractvalue { i8*, i32 } %39, 1
  call void @_ZNSt7__cxx1112basic_stringIcSt11char_traitsIcESaIcEED1Ev(%"class.std::__cxx11::basic_string"* %7) #3
  br label %42

42:                                               ; preds = %38, %34
  %.12 = phi i8* [ %40, %38 ], [ %36, %34 ]
  %.1 = phi i32 [ %41, %38 ], [ %37, %34 ]
  call void @_ZNSaIcED1Ev(%"class.std::allocator"* %8) #3
  br label %67

43:                                               ; preds = %18
  %44 = landingpad { i8*, i32 }
          cleanup
  %45 = extractvalue { i8*, i32 } %44, 0
  %46 = extractvalue { i8*, i32 } %44, 1
  br label %51

47:                                               ; preds = %19
  %48 = landingpad { i8*, i32 }
          cleanup
  %49 = extractvalue { i8*, i32 } %48, 0
  %50 = extractvalue { i8*, i32 } %48, 1
  call void @_ZNSt7__cxx1112basic_stringIcSt11char_traitsIcESaIcEED1Ev(%"class.std::__cxx11::basic_string"* %10) #3
  br label %51

51:                                               ; preds = %47, %43
  %.23 = phi i8* [ %49, %47 ], [ %45, %43 ]
  %.2 = phi i32 [ %50, %47 ], [ %46, %43 ]
  call void @_ZNSaIcED1Ev(%"class.std::allocator"* %11) #3
  br label %66

52:                                               ; preds = %20
  %53 = landingpad { i8*, i32 }
          cleanup
  %54 = extractvalue { i8*, i32 } %53, 0
  %55 = extractvalue { i8*, i32 } %53, 1
  br label %60

56:                                               ; preds = %21
  %57 = landingpad { i8*, i32 }
          cleanup
  %58 = extractvalue { i8*, i32 } %57, 0
  %59 = extractvalue { i8*, i32 } %57, 1
  call void @_ZNSt7__cxx1112basic_stringIcSt11char_traitsIcESaIcEED1Ev(%"class.std::__cxx11::basic_string"* %13) #3
  br label %60

60:                                               ; preds = %56, %52
  %.34 = phi i8* [ %58, %56 ], [ %54, %52 ]
  %.3 = phi i32 [ %59, %56 ], [ %55, %52 ]
  call void @_ZNSaIcED1Ev(%"class.std::allocator"* %14) #3
  br label %65

61:                                               ; preds = %22
  %62 = landingpad { i8*, i32 }
          cleanup
  %63 = extractvalue { i8*, i32 } %62, 0
  %64 = extractvalue { i8*, i32 } %62, 1
  call void @_ZN11PowerUpTimeD2Ev(%class.PowerUpTime* %12) #3
  br label %65

65:                                               ; preds = %61, %60
  %.45 = phi i8* [ %63, %61 ], [ %.34, %60 ]
  %.4 = phi i32 [ %64, %61 ], [ %.3, %60 ]
  call void @_ZN11PowerUpTimeD2Ev(%class.PowerUpTime* %9) #3
  br label %66

66:                                               ; preds = %65, %51
  %.56 = phi i8* [ %.45, %65 ], [ %.23, %51 ]
  %.5 = phi i32 [ %.4, %65 ], [ %.2, %51 ]
  call void @_ZN11PowerUpTimeD2Ev(%class.PowerUpTime* %6) #3
  br label %67

67:                                               ; preds = %66, %42
  %.67 = phi i8* [ %.56, %66 ], [ %.12, %42 ]
  %.6 = phi i32 [ %.5, %66 ], [ %.1, %42 ]
  call void @_ZN11PowerUpTimeD2Ev(%class.PowerUpTime* %3) #3
  br label %68

68:                                               ; preds = %67, %33
  %.78 = phi i8* [ %.67, %67 ], [ %.01, %33 ]
  %.7 = phi i32 [ %.6, %67 ], [ %.0, %33 ]
  %69 = insertvalue { i8*, i32 } undef, i8* %.78, 0
  %70 = insertvalue { i8*, i32 } %69, i32 %.7, 1
  resume { i8*, i32 } %70
}

; Function Attrs: nounwind
declare void @_ZNSaIcEC1Ev(%"class.std::allocator"*) unnamed_addr #2

declare void @_ZNSt7__cxx1112basic_stringIcSt11char_traitsIcESaIcEEC1EPKcRKS3_(%"class.std::__cxx11::basic_string"*, i8*, %"class.std::allocator"* dereferenceable(1)) unnamed_addr #1

declare i32 @__gxx_personality_v0(...)

; Function Attrs: noinline uwtable
define linkonce_odr void @_ZN11PowerUpTimeC2EiiNSt7__cxx1112basic_stringIcSt11char_traitsIcESaIcEEE(%class.PowerUpTime* %0, i32 %1, i32 %2, %"class.std::__cxx11::basic_string"* %3) unnamed_addr #0 comdat align 2 personality i8* bitcast (i32 (...)* @__gxx_personality_v0 to i8*) {
  %5 = getelementptr inbounds %class.PowerUpTime, %class.PowerUpTime* %0, i32 0, i32 2
  call void @_ZNSt7__cxx1112basic_stringIcSt11char_traitsIcESaIcEEC1Ev(%"class.std::__cxx11::basic_string"* %5) #3
  %6 = getelementptr inbounds %class.PowerUpTime, %class.PowerUpTime* %0, i32 0, i32 2
  %7 = invoke dereferenceable(32) %"class.std::__cxx11::basic_string"* @_ZNSt7__cxx1112basic_stringIcSt11char_traitsIcESaIcEEaSERKS4_(%"class.std::__cxx11::basic_string"* %6, %"class.std::__cxx11::basic_string"* dereferenceable(32) %3)
          to label %8 unwind label %22

8:                                                ; preds = %4
  %9 = getelementptr inbounds %class.PowerUpTime, %class.PowerUpTime* %0, i32 0, i32 1
  %10 = load double, double* %9, align 8
  %11 = sdiv i32 %2, 60
  %12 = add nsw i32 %1, %11
  %13 = sitofp i32 %12 to double
  %14 = fadd double %10, %13
  %15 = getelementptr inbounds %class.PowerUpTime, %class.PowerUpTime* %0, i32 0, i32 1
  store double %14, double* %15, align 8
  %16 = getelementptr inbounds %class.PowerUpTime, %class.PowerUpTime* %0, i32 0, i32 0
  %17 = load double, double* %16, align 8
  %18 = srem i32 %2, 60
  %19 = sitofp i32 %18 to double
  %20 = fadd double %17, %19
  %21 = getelementptr inbounds %class.PowerUpTime, %class.PowerUpTime* %0, i32 0, i32 0
  store double %20, double* %21, align 8
  ret void

22:                                               ; preds = %4
  %23 = landingpad { i8*, i32 }
          cleanup
  %24 = extractvalue { i8*, i32 } %23, 0
  %25 = extractvalue { i8*, i32 } %23, 1
  call void @_ZNSt7__cxx1112basic_stringIcSt11char_traitsIcESaIcEED1Ev(%"class.std::__cxx11::basic_string"* %5) #3
  br label %26

26:                                               ; preds = %22
  %27 = insertvalue { i8*, i32 } undef, i8* %24, 0
  %28 = insertvalue { i8*, i32 } %27, i32 %25, 1
  resume { i8*, i32 } %28
}

; Function Attrs: nounwind
declare void @_ZNSt7__cxx1112basic_stringIcSt11char_traitsIcESaIcEED1Ev(%"class.std::__cxx11::basic_string"*) unnamed_addr #2

; Function Attrs: nounwind
declare void @_ZNSaIcED1Ev(%"class.std::allocator"*) unnamed_addr #2

declare dereferenceable(272) %"class.std::basic_ostream"* @_ZNSolsEPFRSoS_E(%"class.std::basic_ostream"*, %"class.std::basic_ostream"* (%"class.std::basic_ostream"*)*) #1

declare dereferenceable(272) %"class.std::basic_ostream"* @_ZSt4endlIcSt11char_traitsIcEERSt13basic_ostreamIT_T0_ES6_(%"class.std::basic_ostream"* dereferenceable(272)) #1

; Function Attrs: noinline nounwind uwtable
define linkonce_odr void @_ZN11PowerUpTimeD2Ev(%class.PowerUpTime* %0) unnamed_addr #5 comdat align 2 {
  %2 = getelementptr inbounds %class.PowerUpTime, %class.PowerUpTime* %0, i32 0, i32 2
  call void @_ZNSt7__cxx1112basic_stringIcSt11char_traitsIcESaIcEED1Ev(%"class.std::__cxx11::basic_string"* %2) #3
  ret void
}

; Function Attrs: nounwind
declare void @_ZNSt7__cxx1112basic_stringIcSt11char_traitsIcESaIcEEC1Ev(%"class.std::__cxx11::basic_string"*) unnamed_addr #2

declare dereferenceable(32) %"class.std::__cxx11::basic_string"* @_ZNSt7__cxx1112basic_stringIcSt11char_traitsIcESaIcEEaSERKS4_(%"class.std::__cxx11::basic_string"*, %"class.std::__cxx11::basic_string"* dereferenceable(32)) #1

; Function Attrs: noinline uwtable
define internal void @_GLOBAL__sub_I_operator_overloading_1.cpp() #0 section ".text.startup" {
  call void @__cxx_global_var_init()
  ret void
}

attributes #0 = { noinline uwtable "correctly-rounded-divide-sqrt-fp-math"="false" "disable-tail-calls"="false" "less-precise-fpmad"="false" "no-frame-pointer-elim"="true" "no-frame-pointer-elim-non-leaf" "no-infs-fp-math"="false" "no-jump-tables"="false" "no-nans-fp-math"="false" "no-signed-zeros-fp-math"="false" "no-trapping-math"="false" "stack-protector-buffer-size"="8" "target-cpu"="x86-64" "target-features"="+fxsr,+mmx,+sse,+sse2,+x87" "unsafe-fp-math"="false" "use-soft-float"="false" }
attributes #1 = { "correctly-rounded-divide-sqrt-fp-math"="false" "disable-tail-calls"="false" "less-precise-fpmad"="false" "no-frame-pointer-elim"="true" "no-frame-pointer-elim-non-leaf" "no-infs-fp-math"="false" "no-nans-fp-math"="false" "no-signed-zeros-fp-math"="false" "no-trapping-math"="false" "stack-protector-buffer-size"="8" "target-cpu"="x86-64" "target-features"="+fxsr,+mmx,+sse,+sse2,+x87" "unsafe-fp-math"="false" "use-soft-float"="false" }
attributes #2 = { nounwind "correctly-rounded-divide-sqrt-fp-math"="false" "disable-tail-calls"="false" "less-precise-fpmad"="false" "no-frame-pointer-elim"="true" "no-frame-pointer-elim-non-leaf" "no-infs-fp-math"="false" "no-nans-fp-math"="false" "no-signed-zeros-fp-math"="false" "no-trapping-math"="false" "stack-protector-buffer-size"="8" "target-cpu"="x86-64" "target-features"="+fxsr,+mmx,+sse,+sse2,+x87" "unsafe-fp-math"="false" "use-soft-float"="false" }
attributes #3 = { nounwind }
attributes #4 = { noinline norecurse uwtable "correctly-rounded-divide-sqrt-fp-math"="false" "disable-tail-calls"="false" "less-precise-fpmad"="false" "no-frame-pointer-elim"="true" "no-frame-pointer-elim-non-leaf" "no-infs-fp-math"="false" "no-jump-tables"="false" "no-nans-fp-math"="false" "no-signed-zeros-fp-math"="false" "no-trapping-math"="false" "stack-protector-buffer-size"="8" "target-cpu"="x86-64" "target-features"="+fxsr,+mmx,+sse,+sse2,+x87" "unsafe-fp-math"="false" "use-soft-float"="false" }
attributes #5 = { noinline nounwind uwtable "correctly-rounded-divide-sqrt-fp-math"="false" "disable-tail-calls"="false" "less-precise-fpmad"="false" "no-frame-pointer-elim"="true" "no-frame-pointer-elim-non-leaf" "no-infs-fp-math"="false" "no-jump-tables"="false" "no-nans-fp-math"="false" "no-signed-zeros-fp-math"="false" "no-trapping-math"="false" "stack-protector-buffer-size"="8" "target-cpu"="x86-64" "target-features"="+fxsr,+mmx,+sse,+sse2,+x87" "unsafe-fp-math"="false" "use-soft-float"="false" }

!llvm.module.flags = !{!0}
!llvm.ident = !{!1}

!0 = !{i32 1, !"wchar_size", i32 4}
!1 = !{!"clang version 6.0.0-1ubuntu2 (tags/RELEASE_600/final)"}
