; ModuleID = '/home/pedro/tcc/exDataset/sample/sample/spectre-cpp-basics-main/Solutions/Lesson1/trap.ll'
source_filename = "/home/pedro/tcc/exDataset/sample/sample/spectre-cpp-basics-main/Solutions/Lesson1/trap.cpp"
target datalayout = "e-m:e-i64:64-f80:128-n8:16:32:64-S128"
target triple = "x86_64-pc-linux-gnu"

%"class.std::ios_base::Init" = type { i8 }
%"class.std::basic_ostream" = type { i32 (...)**, %"class.std::basic_ios" }
%"class.std::basic_ios" = type { %"class.std::ios_base", %"class.std::basic_ostream"*, i8, i8, %"class.std::basic_streambuf"*, %"class.std::ctype"*, %"class.std::num_put"*, %"class.std::num_get"* }
%"class.std::ios_base" = type { i32 (...)**, i64, i64, i32, i32, i32, %"struct.std::ios_base::_Callback_list"*, %"struct.std::ios_base::_Words", [8 x %"struct.std::ios_base::_Words"], i32, %"struct.std::ios_base::_Words"*, %"class.std::locale" }
%"struct.std::ios_base::_Callback_list" = type { %"struct.std::ios_base::_Callback_list"*, void (i32, %"class.std::ios_base"*, i32)*, i32, i32 }
%"struct.std::ios_base::_Words" = type { i8*, i64 }
%"class.std::locale" = type { %"class.std::locale::_Impl"* }
%"class.std::locale::_Impl" = type { i32, %"class.std::locale::facet"**, i64, %"class.std::locale::facet"**, i8** }
%"class.std::locale::facet" = type <{ i32 (...)**, i32, [4 x i8] }>
%"class.std::basic_streambuf" = type { i32 (...)**, i8*, i8*, i8*, i8*, i8*, i8*, %"class.std::locale" }
%"class.std::ctype" = type <{ %"class.std::locale::facet.base", [4 x i8], %struct.__locale_struct*, i8, [7 x i8], i32*, i32*, i16*, i8, [256 x i8], [256 x i8], i8, [6 x i8] }>
%"class.std::locale::facet.base" = type <{ i32 (...)**, i32 }>
%struct.__locale_struct = type { [13 x %struct.__locale_data*], i16*, i32*, i32*, [13 x i8*] }
%struct.__locale_data = type opaque
%"class.std::num_put" = type { %"class.std::locale::facet.base", [4 x i8] }
%"class.std::num_get" = type { %"class.std::locale::facet.base", [4 x i8] }
%"struct.std::_Setprecision" = type { i32 }

$__clang_call_terminate = comdat any

$_ZSt12setprecisioni = comdat any

@_ZStL8__ioinit = internal global %"class.std::ios_base::Init" zeroinitializer, align 1
@__dso_handle = external hidden global i8
@_ZSt4cout = external global %"class.std::basic_ostream", align 8
@.str = private unnamed_addr constant [2 x i8] c"\0A\00", align 1
@.str.1 = private unnamed_addr constant [23 x i8] c"Integrating with dx = \00", align 1
@.str.2 = private unnamed_addr constant [10 x i8] c"result = \00", align 1
@.str.3 = private unnamed_addr constant [15 x i8] c"result - pi = \00", align 1
@.str.4 = private unnamed_addr constant [21 x i8] c"result - result_f = \00", align 1
@.str.5 = private unnamed_addr constant [12 x i8] c"result_g = \00", align 1
@llvm.global_ctors = appending global [1 x { i32, void ()*, i8* }] [{ i32, void ()*, i8* } { i32 65535, void ()* @_GLOBAL__sub_I_trap.cpp, i8* null }]

; Function Attrs: noinline uwtable
define internal void @__cxx_global_var_init() #0 section ".text.startup" {
  call void @_ZNSt8ios_base4InitC1Ev(%"class.std::ios_base::Init"* @_ZStL8__ioinit)
  %1 = call i32 @__cxa_atexit(void (i8*)* bitcast (void (%"class.std::ios_base::Init"*)* @_ZNSt8ios_base4InitD1Ev to void (i8*)*), i8* getelementptr inbounds (%"class.std::ios_base::Init", %"class.std::ios_base::Init"* @_ZStL8__ioinit, i32 0, i32 0), i8* @__dso_handle) #3
  ret void
}

declare void @_ZNSt8ios_base4InitC1Ev(%"class.std::ios_base::Init"*) unnamed_addr #1

; Function Attrs: nounwind
declare void @_ZNSt8ios_base4InitD1Ev(%"class.std::ios_base::Init"*) unnamed_addr #2

; Function Attrs: nounwind
declare i32 @__cxa_atexit(void (i8*)*, i8*, i8*) #3

; Function Attrs: noinline nounwind uwtable
define void @_Z10evil_printRd(double* dereferenceable(8) %0) #4 personality i8* bitcast (i32 (...)* @__gxx_personality_v0 to i8*) {
  %2 = load double, double* %0, align 8
  %3 = invoke dereferenceable(272) %"class.std::basic_ostream"* @_ZNSolsEd(%"class.std::basic_ostream"* @_ZSt4cout, double %2)
          to label %4 unwind label %9

4:                                                ; preds = %1
  %5 = invoke dereferenceable(272) %"class.std::basic_ostream"* @_ZStlsISt11char_traitsIcEERSt13basic_ostreamIcT_ES5_PKc(%"class.std::basic_ostream"* dereferenceable(272) %3, i8* getelementptr inbounds ([2 x i8], [2 x i8]* @.str, i32 0, i32 0))
          to label %6 unwind label %9

6:                                                ; preds = %4
  %7 = load double, double* %0, align 8
  %8 = fadd double %7, 1.000000e-01
  store double %8, double* %0, align 8
  ret void

9:                                                ; preds = %4, %1
  %10 = landingpad { i8*, i32 }
          catch i8* null
  %11 = extractvalue { i8*, i32 } %10, 0
  call void @__clang_call_terminate(i8* %11) #8
  unreachable
}

declare dereferenceable(272) %"class.std::basic_ostream"* @_ZStlsISt11char_traitsIcEERSt13basic_ostreamIcT_ES5_PKc(%"class.std::basic_ostream"* dereferenceable(272), i8*) #1

declare dereferenceable(272) %"class.std::basic_ostream"* @_ZNSolsEd(%"class.std::basic_ostream"*, double) #1

declare i32 @__gxx_personality_v0(...)

; Function Attrs: noinline noreturn nounwind
define linkonce_odr hidden void @__clang_call_terminate(i8* %0) #5 comdat {
  %2 = call i8* @__cxa_begin_catch(i8* %0) #3
  call void @_ZSt9terminatev() #8
  unreachable
}

declare i8* @__cxa_begin_catch(i8*)

declare void @_ZSt9terminatev()

; Function Attrs: noinline nounwind uwtable
define double @_Z1fd(double %0) #4 {
  %2 = fmul double %0, %0
  %3 = fsub double 1.000000e+00, %2
  %4 = call double @llvm.fabs.f64(double %3)
  %5 = call double @sqrt(double %4) #3
  ret double %5
}

; Function Attrs: nounwind
declare double @sqrt(double) #2

; Function Attrs: nocallback nofree nosync nounwind readnone speculatable willreturn
declare double @llvm.fabs.f64(double) #6

; Function Attrs: noinline nounwind uwtable
define double @_Z1gd(double %0) #4 {
  %2 = call double @exp(double %0) #3
  ret double %2
}

; Function Attrs: nounwind
declare double @exp(double) #2

; Function Attrs: noinline nounwind uwtable
define double @_Z4trapPFddEddd(double (double)* %0, double %1, double %2, double %3) #4 personality i8* bitcast (i32 (...)* @__gxx_personality_v0 to i8*) {
  br label %5

5:                                                ; preds = %21, %4
  %.01 = phi double [ 0.000000e+00, %4 ], [ %20, %21 ]
  %.0 = phi double [ %2, %4 ], [ %22, %21 ]
  %6 = fcmp olt double %.0, %3
  br i1 %6, label %7, label %23

7:                                                ; preds = %5
  %8 = invoke double %0(double %.0)
          to label %9 unwind label %24

9:                                                ; preds = %7
  %10 = fmul double %8, %1
  %11 = fadd double %.01, %10
  %12 = fmul double 5.000000e-01, %1
  %13 = fadd double %.0, %1
  %14 = invoke double %0(double %13)
          to label %15 unwind label %24

15:                                               ; preds = %9
  %16 = invoke double %0(double %.0)
          to label %17 unwind label %24

17:                                               ; preds = %15
  %18 = fsub double %14, %16
  %19 = fmul double %12, %18
  %20 = fadd double %11, %19
  br label %21

21:                                               ; preds = %17
  %22 = fadd double %.0, %1
  br label %5

23:                                               ; preds = %5
  ret double %.01

24:                                               ; preds = %15, %9, %7
  %25 = landingpad { i8*, i32 }
          catch i8* null
  %26 = extractvalue { i8*, i32 } %25, 0
  call void @__clang_call_terminate(i8* %26) #8
  unreachable
}

; Function Attrs: noinline nounwind uwtable
define double @_Z4trapddd(double %0, double %1, double %2) #4 {
  %4 = call double @_Z4trapPFddEddd(double (double)* @_Z1fd, double %0, double %1, double %2) #3
  ret double %4
}

; Function Attrs: noinline norecurse uwtable
define i32 @main() #7 {
  %1 = alloca %"struct.std::_Setprecision", align 4
  %2 = call dereferenceable(272) %"class.std::basic_ostream"* @_ZStlsISt11char_traitsIcEERSt13basic_ostreamIcT_ES5_PKc(%"class.std::basic_ostream"* dereferenceable(272) @_ZSt4cout, i8* getelementptr inbounds ([23 x i8], [23 x i8]* @.str.1, i32 0, i32 0))
  %3 = call dereferenceable(272) %"class.std::basic_ostream"* @_ZNSolsEd(%"class.std::basic_ostream"* %2, double 0x3E7AD7F29ABCAF48)
  %4 = call dereferenceable(272) %"class.std::basic_ostream"* @_ZStlsISt11char_traitsIcEERSt13basic_ostreamIcT_ES5_PKc(%"class.std::basic_ostream"* dereferenceable(272) %3, i8* getelementptr inbounds ([2 x i8], [2 x i8]* @.str, i32 0, i32 0))
  %5 = call double @_Z4trapddd(double 0x3E7AD7F29ABCAF48, double 0.000000e+00, double 1.000000e+00) #3
  %6 = fmul double 4.000000e+00, %5
  %7 = call double @_Z4trapPFddEddd(double (double)* @_Z1fd, double 0x3E7AD7F29ABCAF48, double 0.000000e+00, double 1.000000e+00) #3
  %8 = fmul double 4.000000e+00, %7
  %9 = call double @_Z4trapPFddEddd(double (double)* @_Z1gd, double 0x3E7AD7F29ABCAF48, double 0.000000e+00, double 1.000000e+00) #3
  %10 = fadd double 1.000000e+00, %9
  %11 = call i32 @_ZSt12setprecisioni(i32 15)
  %12 = getelementptr inbounds %"struct.std::_Setprecision", %"struct.std::_Setprecision"* %1, i32 0, i32 0
  store i32 %11, i32* %12, align 4
  %13 = getelementptr inbounds %"struct.std::_Setprecision", %"struct.std::_Setprecision"* %1, i32 0, i32 0
  %14 = load i32, i32* %13, align 4
  %15 = call dereferenceable(272) %"class.std::basic_ostream"* @_ZStlsIcSt11char_traitsIcEERSt13basic_ostreamIT_T0_ES6_St13_Setprecision(%"class.std::basic_ostream"* dereferenceable(272) @_ZSt4cout, i32 %14)
  %16 = call dereferenceable(272) %"class.std::basic_ostream"* @_ZStlsISt11char_traitsIcEERSt13basic_ostreamIcT_ES5_PKc(%"class.std::basic_ostream"* dereferenceable(272) @_ZSt4cout, i8* getelementptr inbounds ([10 x i8], [10 x i8]* @.str.2, i32 0, i32 0))
  %17 = call dereferenceable(272) %"class.std::basic_ostream"* @_ZNSolsEd(%"class.std::basic_ostream"* %16, double %6)
  %18 = call dereferenceable(272) %"class.std::basic_ostream"* @_ZStlsISt11char_traitsIcEERSt13basic_ostreamIcT_ES5_PKc(%"class.std::basic_ostream"* dereferenceable(272) %17, i8* getelementptr inbounds ([2 x i8], [2 x i8]* @.str, i32 0, i32 0))
  %19 = call dereferenceable(272) %"class.std::basic_ostream"* @_ZStlsISt11char_traitsIcEERSt13basic_ostreamIcT_ES5_PKc(%"class.std::basic_ostream"* dereferenceable(272) @_ZSt4cout, i8* getelementptr inbounds ([15 x i8], [15 x i8]* @.str.3, i32 0, i32 0))
  %20 = fsub double %6, 0x400921FB54442D18
  %21 = call dereferenceable(272) %"class.std::basic_ostream"* @_ZNSolsEd(%"class.std::basic_ostream"* %19, double %20)
  %22 = call dereferenceable(272) %"class.std::basic_ostream"* @_ZStlsISt11char_traitsIcEERSt13basic_ostreamIcT_ES5_PKc(%"class.std::basic_ostream"* dereferenceable(272) %21, i8* getelementptr inbounds ([2 x i8], [2 x i8]* @.str, i32 0, i32 0))
  %23 = call dereferenceable(272) %"class.std::basic_ostream"* @_ZStlsISt11char_traitsIcEERSt13basic_ostreamIcT_ES5_PKc(%"class.std::basic_ostream"* dereferenceable(272) @_ZSt4cout, i8* getelementptr inbounds ([21 x i8], [21 x i8]* @.str.4, i32 0, i32 0))
  %24 = fsub double %6, %8
  %25 = call dereferenceable(272) %"class.std::basic_ostream"* @_ZNSolsEd(%"class.std::basic_ostream"* %23, double %24)
  %26 = call dereferenceable(272) %"class.std::basic_ostream"* @_ZStlsISt11char_traitsIcEERSt13basic_ostreamIcT_ES5_PKc(%"class.std::basic_ostream"* dereferenceable(272) %25, i8* getelementptr inbounds ([2 x i8], [2 x i8]* @.str, i32 0, i32 0))
  %27 = call dereferenceable(272) %"class.std::basic_ostream"* @_ZStlsISt11char_traitsIcEERSt13basic_ostreamIcT_ES5_PKc(%"class.std::basic_ostream"* dereferenceable(272) @_ZSt4cout, i8* getelementptr inbounds ([12 x i8], [12 x i8]* @.str.5, i32 0, i32 0))
  %28 = call dereferenceable(272) %"class.std::basic_ostream"* @_ZNSolsEd(%"class.std::basic_ostream"* %27, double %10)
  %29 = call dereferenceable(272) %"class.std::basic_ostream"* @_ZStlsISt11char_traitsIcEERSt13basic_ostreamIcT_ES5_PKc(%"class.std::basic_ostream"* dereferenceable(272) %28, i8* getelementptr inbounds ([2 x i8], [2 x i8]* @.str, i32 0, i32 0))
  ret i32 0
}

declare dereferenceable(272) %"class.std::basic_ostream"* @_ZStlsIcSt11char_traitsIcEERSt13basic_ostreamIT_T0_ES6_St13_Setprecision(%"class.std::basic_ostream"* dereferenceable(272), i32) #1

; Function Attrs: noinline nounwind uwtable
define linkonce_odr i32 @_ZSt12setprecisioni(i32 %0) #4 comdat {
  %2 = alloca %"struct.std::_Setprecision", align 4
  %3 = getelementptr inbounds %"struct.std::_Setprecision", %"struct.std::_Setprecision"* %2, i32 0, i32 0
  store i32 %0, i32* %3, align 4
  %4 = getelementptr inbounds %"struct.std::_Setprecision", %"struct.std::_Setprecision"* %2, i32 0, i32 0
  %5 = load i32, i32* %4, align 4
  ret i32 %5
}

; Function Attrs: noinline uwtable
define internal void @_GLOBAL__sub_I_trap.cpp() #0 section ".text.startup" {
  call void @__cxx_global_var_init()
  ret void
}

attributes #0 = { noinline uwtable "correctly-rounded-divide-sqrt-fp-math"="false" "disable-tail-calls"="false" "less-precise-fpmad"="false" "no-frame-pointer-elim"="true" "no-frame-pointer-elim-non-leaf" "no-infs-fp-math"="false" "no-jump-tables"="false" "no-nans-fp-math"="false" "no-signed-zeros-fp-math"="false" "no-trapping-math"="false" "stack-protector-buffer-size"="8" "target-cpu"="x86-64" "target-features"="+fxsr,+mmx,+sse,+sse2,+x87" "unsafe-fp-math"="false" "use-soft-float"="false" }
attributes #1 = { "correctly-rounded-divide-sqrt-fp-math"="false" "disable-tail-calls"="false" "less-precise-fpmad"="false" "no-frame-pointer-elim"="true" "no-frame-pointer-elim-non-leaf" "no-infs-fp-math"="false" "no-nans-fp-math"="false" "no-signed-zeros-fp-math"="false" "no-trapping-math"="false" "stack-protector-buffer-size"="8" "target-cpu"="x86-64" "target-features"="+fxsr,+mmx,+sse,+sse2,+x87" "unsafe-fp-math"="false" "use-soft-float"="false" }
attributes #2 = { nounwind "correctly-rounded-divide-sqrt-fp-math"="false" "disable-tail-calls"="false" "less-precise-fpmad"="false" "no-frame-pointer-elim"="true" "no-frame-pointer-elim-non-leaf" "no-infs-fp-math"="false" "no-nans-fp-math"="false" "no-signed-zeros-fp-math"="false" "no-trapping-math"="false" "stack-protector-buffer-size"="8" "target-cpu"="x86-64" "target-features"="+fxsr,+mmx,+sse,+sse2,+x87" "unsafe-fp-math"="false" "use-soft-float"="false" }
attributes #3 = { nounwind }
attributes #4 = { noinline nounwind uwtable "correctly-rounded-divide-sqrt-fp-math"="false" "disable-tail-calls"="false" "less-precise-fpmad"="false" "no-frame-pointer-elim"="true" "no-frame-pointer-elim-non-leaf" "no-infs-fp-math"="false" "no-jump-tables"="false" "no-nans-fp-math"="false" "no-signed-zeros-fp-math"="false" "no-trapping-math"="false" "stack-protector-buffer-size"="8" "target-cpu"="x86-64" "target-features"="+fxsr,+mmx,+sse,+sse2,+x87" "unsafe-fp-math"="false" "use-soft-float"="false" }
attributes #5 = { noinline noreturn nounwind }
attributes #6 = { nocallback nofree nosync nounwind readnone speculatable willreturn }
attributes #7 = { noinline norecurse uwtable "correctly-rounded-divide-sqrt-fp-math"="false" "disable-tail-calls"="false" "less-precise-fpmad"="false" "no-frame-pointer-elim"="true" "no-frame-pointer-elim-non-leaf" "no-infs-fp-math"="false" "no-jump-tables"="false" "no-nans-fp-math"="false" "no-signed-zeros-fp-math"="false" "no-trapping-math"="false" "stack-protector-buffer-size"="8" "target-cpu"="x86-64" "target-features"="+fxsr,+mmx,+sse,+sse2,+x87" "unsafe-fp-math"="false" "use-soft-float"="false" }
attributes #8 = { noreturn nounwind }

!llvm.module.flags = !{!0}
!llvm.ident = !{!1}

!0 = !{i32 1, !"wchar_size", i32 4}
!1 = !{!"clang version 6.0.0-1ubuntu2 (tags/RELEASE_600/final)"}
