; ModuleID = '/home/pedro/tcc/exDataset/listasJandira-master/code_357.ll'
source_filename = "/home/pedro/tcc/exDataset/listasJandira-master/String_To_Integer.cpp"
target datalayout = "e-m:e-i64:64-f80:128-n8:16:32:64-S128"
target triple = "x86_64-pc-linux-gnu"

%"class.std::ios_base::Init" = type { i8 }
%"class.std::basic_ostream" = type { i32 (...)**, %"class.std::basic_ios" }
%"class.std::basic_ios" = type { %"class.std::ios_base", %"class.std::basic_ostream"*, i8, i8, %"class.std::basic_streambuf"*, %"class.std::ctype"*, %"class.std::num_put"*, %"class.std::num_get"* }
%"class.std::ios_base" = type { i32 (...)**, i64, i64, i32, i32, i32, %"struct.std::ios_base::_Callback_list"*, %"struct.std::ios_base::_Words", [8 x %"struct.std::ios_base::_Words"], i32, %"struct.std::ios_base::_Words"*, %"class.std::locale" }
%"struct.std::ios_base::_Callback_list" = type { %"struct.std::ios_base::_Callback_list"*, void (i32, %"class.std::ios_base"*, i32)*, i32, i32 }
%"struct.std::ios_base::_Words" = type { i8*, i64 }
%"class.std::locale" = type { %"class.std::locale::_Impl"* }
%"class.std::locale::_Impl" = type { i32, %"class.std::locale::facet"**, i64, %"class.std::locale::facet"**, i8** }
%"class.std::locale::facet" = type <{ i32 (...)**, i32, [4 x i8] }>
%"class.std::basic_streambuf" = type { i32 (...)**, i8*, i8*, i8*, i8*, i8*, i8*, %"class.std::locale" }
%"class.std::ctype" = type <{ %"class.std::locale::facet.base", [4 x i8], %struct.__locale_struct*, i8, [7 x i8], i32*, i32*, i16*, i8, [256 x i8], [256 x i8], i8, [6 x i8] }>
%"class.std::locale::facet.base" = type <{ i32 (...)**, i32 }>
%struct.__locale_struct = type { [13 x %struct.__locale_data*], i16*, i32*, i32*, [13 x i8*] }
%struct.__locale_data = type opaque
%"class.std::num_put" = type { %"class.std::locale::facet.base", [4 x i8] }
%"class.std::num_get" = type { %"class.std::locale::facet.base", [4 x i8] }
%class.Solution = type { i8 }
%"class.std::__cxx11::basic_string" = type { %"struct.std::__cxx11::basic_string<char, std::char_traits<char>, std::allocator<char> >::_Alloc_hider", i64, %union.anon }
%"struct.std::__cxx11::basic_string<char, std::char_traits<char>, std::allocator<char> >::_Alloc_hider" = type { i8* }
%union.anon = type { i64, [8 x i8] }
%"class.std::allocator" = type { i8 }

$_ZN8Solution6myAtoiENSt7__cxx1112basic_stringIcSt11char_traitsIcESaIcEEE = comdat any

$_ZSt3powIiiEN9__gnu_cxx11__promote_2IT_T0_NS0_9__promoteIS2_Xsr3std12__is_integerIS2_EE7__valueEE6__typeENS4_IS3_Xsr3std12__is_integerIS3_EE7__valueEE6__typeEE6__typeES2_S3_ = comdat any

@_ZStL8__ioinit = internal global %"class.std::ios_base::Init" zeroinitializer, align 1
@__dso_handle = external hidden global i8
@.str = private unnamed_addr constant [3 x i8] c"45\00", align 1
@_ZSt4cout = external global %"class.std::basic_ostream", align 8
@llvm.global_ctors = appending global [1 x { i32, void ()*, i8* }] [{ i32, void ()*, i8* } { i32 65535, void ()* @_GLOBAL__sub_I_String_To_Integer.cpp, i8* null }]

; Function Attrs: noinline uwtable
define internal void @__cxx_global_var_init() #0 section ".text.startup" {
  call void @_ZNSt8ios_base4InitC1Ev(%"class.std::ios_base::Init"* @_ZStL8__ioinit)
  %1 = call i32 @__cxa_atexit(void (i8*)* bitcast (void (%"class.std::ios_base::Init"*)* @_ZNSt8ios_base4InitD1Ev to void (i8*)*), i8* getelementptr inbounds (%"class.std::ios_base::Init", %"class.std::ios_base::Init"* @_ZStL8__ioinit, i32 0, i32 0), i8* @__dso_handle) #3
  ret void
}

declare void @_ZNSt8ios_base4InitC1Ev(%"class.std::ios_base::Init"*) unnamed_addr #1

; Function Attrs: nounwind
declare void @_ZNSt8ios_base4InitD1Ev(%"class.std::ios_base::Init"*) unnamed_addr #2

; Function Attrs: nounwind
declare i32 @__cxa_atexit(void (i8*)*, i8*, i8*) #3

; Function Attrs: noinline norecurse uwtable
define i32 @main() #4 personality i8* bitcast (i32 (...)* @__gxx_personality_v0 to i8*) {
  %1 = alloca %class.Solution, align 1
  %2 = alloca %"class.std::__cxx11::basic_string", align 8
  %3 = alloca %"class.std::allocator", align 1
  call void @_ZNSaIcEC1Ev(%"class.std::allocator"* %3) #3
  invoke void @_ZNSt7__cxx1112basic_stringIcSt11char_traitsIcESaIcEEC1EPKcRKS3_(%"class.std::__cxx11::basic_string"* %2, i8* getelementptr inbounds ([3 x i8], [3 x i8]* @.str, i32 0, i32 0), %"class.std::allocator"* dereferenceable(1) %3)
          to label %4 unwind label %8

4:                                                ; preds = %0
  %5 = invoke i32 @_ZN8Solution6myAtoiENSt7__cxx1112basic_stringIcSt11char_traitsIcESaIcEEE(%class.Solution* %1, %"class.std::__cxx11::basic_string"* %2)
          to label %6 unwind label %12

6:                                                ; preds = %4
  call void @_ZNSt7__cxx1112basic_stringIcSt11char_traitsIcESaIcEED1Ev(%"class.std::__cxx11::basic_string"* %2) #3
  call void @_ZNSaIcED1Ev(%"class.std::allocator"* %3) #3
  %7 = call dereferenceable(272) %"class.std::basic_ostream"* @_ZNSolsEi(%"class.std::basic_ostream"* @_ZSt4cout, i32 %5)
  ret i32 0

8:                                                ; preds = %0
  %9 = landingpad { i8*, i32 }
          cleanup
  %10 = extractvalue { i8*, i32 } %9, 0
  %11 = extractvalue { i8*, i32 } %9, 1
  br label %16

12:                                               ; preds = %4
  %13 = landingpad { i8*, i32 }
          cleanup
  %14 = extractvalue { i8*, i32 } %13, 0
  %15 = extractvalue { i8*, i32 } %13, 1
  call void @_ZNSt7__cxx1112basic_stringIcSt11char_traitsIcESaIcEED1Ev(%"class.std::__cxx11::basic_string"* %2) #3
  br label %16

16:                                               ; preds = %12, %8
  %.01 = phi i8* [ %14, %12 ], [ %10, %8 ]
  %.0 = phi i32 [ %15, %12 ], [ %11, %8 ]
  call void @_ZNSaIcED1Ev(%"class.std::allocator"* %3) #3
  br label %17

17:                                               ; preds = %16
  %18 = insertvalue { i8*, i32 } undef, i8* %.01, 0
  %19 = insertvalue { i8*, i32 } %18, i32 %.0, 1
  resume { i8*, i32 } %19
}

; Function Attrs: noinline uwtable
define linkonce_odr i32 @_ZN8Solution6myAtoiENSt7__cxx1112basic_stringIcSt11char_traitsIcESaIcEEE(%class.Solution* %0, %"class.std::__cxx11::basic_string"* %1) #0 comdat align 2 {
  br label %3

3:                                                ; preds = %11, %2
  %.01 = phi i64 [ 0, %2 ], [ %9, %11 ]
  %4 = call dereferenceable(1) i8* @_ZNSt7__cxx1112basic_stringIcSt11char_traitsIcESaIcEEixEm(%"class.std::__cxx11::basic_string"* %1, i64 %.01)
  %5 = load i8, i8* %4, align 1
  %6 = sext i8 %5 to i32
  %7 = icmp eq i32 %6, 32
  br i1 %7, label %8, label %10

8:                                                ; preds = %3
  %9 = add nsw i64 %.01, 1
  br label %11

10:                                               ; preds = %3
  br label %12

11:                                               ; preds = %8
  br label %3

12:                                               ; preds = %10
  %13 = call dereferenceable(1) i8* @_ZNSt7__cxx1112basic_stringIcSt11char_traitsIcESaIcEEixEm(%"class.std::__cxx11::basic_string"* %1, i64 %.01)
  %14 = load i8, i8* %13, align 1
  %15 = sext i8 %14 to i32
  %16 = icmp eq i32 %15, 45
  br i1 %16, label %17, label %33

17:                                               ; preds = %12
  %18 = add nsw i64 %.01, 1
  %19 = call dereferenceable(1) i8* @_ZNSt7__cxx1112basic_stringIcSt11char_traitsIcESaIcEEixEm(%"class.std::__cxx11::basic_string"* %1, i64 %18)
  %20 = load i8, i8* %19, align 1
  %21 = sext i8 %20 to i32
  %22 = icmp sge i32 %21, 48
  br i1 %22, label %23, label %31

23:                                               ; preds = %17
  %24 = add nsw i64 %.01, 1
  %25 = call dereferenceable(1) i8* @_ZNSt7__cxx1112basic_stringIcSt11char_traitsIcESaIcEEixEm(%"class.std::__cxx11::basic_string"* %1, i64 %24)
  %26 = load i8, i8* %25, align 1
  %27 = sext i8 %26 to i32
  %28 = icmp sle i32 %27, 57
  br i1 %28, label %29, label %31

29:                                               ; preds = %23
  %30 = add nsw i64 %.01, 1
  br label %32

31:                                               ; preds = %23, %17
  br label %108

32:                                               ; preds = %29
  br label %33

33:                                               ; preds = %32, %12
  %.03 = phi i64 [ -1, %32 ], [ 1, %12 ]
  %.1 = phi i64 [ %30, %32 ], [ %.01, %12 ]
  %34 = call dereferenceable(1) i8* @_ZNSt7__cxx1112basic_stringIcSt11char_traitsIcESaIcEEixEm(%"class.std::__cxx11::basic_string"* %1, i64 %.1)
  %35 = load i8, i8* %34, align 1
  %36 = sext i8 %35 to i32
  %37 = icmp eq i32 %36, 43
  br i1 %37, label %38, label %54

38:                                               ; preds = %33
  %39 = add nsw i64 %.1, 1
  %40 = call dereferenceable(1) i8* @_ZNSt7__cxx1112basic_stringIcSt11char_traitsIcESaIcEEixEm(%"class.std::__cxx11::basic_string"* %1, i64 %39)
  %41 = load i8, i8* %40, align 1
  %42 = sext i8 %41 to i32
  %43 = icmp sge i32 %42, 48
  br i1 %43, label %44, label %52

44:                                               ; preds = %38
  %45 = add nsw i64 %.1, 1
  %46 = call dereferenceable(1) i8* @_ZNSt7__cxx1112basic_stringIcSt11char_traitsIcESaIcEEixEm(%"class.std::__cxx11::basic_string"* %1, i64 %45)
  %47 = load i8, i8* %46, align 1
  %48 = sext i8 %47 to i32
  %49 = icmp sle i32 %48, 57
  br i1 %49, label %50, label %52

50:                                               ; preds = %44
  %51 = add nsw i64 %.1, 1
  br label %53

52:                                               ; preds = %44, %38
  br label %108

53:                                               ; preds = %50
  br label %54

54:                                               ; preds = %53, %33
  %.2 = phi i64 [ %51, %53 ], [ %.1, %33 ]
  br label %55

55:                                               ; preds = %63, %54
  %.3 = phi i64 [ %.2, %54 ], [ %61, %63 ]
  %56 = call dereferenceable(1) i8* @_ZNSt7__cxx1112basic_stringIcSt11char_traitsIcESaIcEEixEm(%"class.std::__cxx11::basic_string"* %1, i64 %.3)
  %57 = load i8, i8* %56, align 1
  %58 = sext i8 %57 to i32
  %59 = icmp eq i32 %58, 48
  br i1 %59, label %60, label %62

60:                                               ; preds = %55
  %61 = add nsw i64 %.3, 1
  br label %63

62:                                               ; preds = %55
  br label %64

63:                                               ; preds = %60
  br label %55

64:                                               ; preds = %62
  br label %65

65:                                               ; preds = %104, %64
  %.02 = phi i64 [ 0, %64 ], [ %83, %104 ]
  %.4 = phi i64 [ %.3, %64 ], [ %77, %104 ]
  %66 = call dereferenceable(1) i8* @_ZNSt7__cxx1112basic_stringIcSt11char_traitsIcESaIcEEixEm(%"class.std::__cxx11::basic_string"* %1, i64 %.4)
  %67 = load i8, i8* %66, align 1
  %68 = sext i8 %67 to i32
  %69 = icmp sge i32 %68, 48
  br i1 %69, label %70, label %84

70:                                               ; preds = %65
  %71 = call dereferenceable(1) i8* @_ZNSt7__cxx1112basic_stringIcSt11char_traitsIcESaIcEEixEm(%"class.std::__cxx11::basic_string"* %1, i64 %.4)
  %72 = load i8, i8* %71, align 1
  %73 = sext i8 %72 to i32
  %74 = icmp sle i32 %73, 57
  br i1 %74, label %75, label %84

75:                                               ; preds = %70
  %76 = mul nsw i64 %.02, 10
  %77 = add nsw i64 %.4, 1
  %78 = call dereferenceable(1) i8* @_ZNSt7__cxx1112basic_stringIcSt11char_traitsIcESaIcEEixEm(%"class.std::__cxx11::basic_string"* %1, i64 %.4)
  %79 = load i8, i8* %78, align 1
  %80 = sext i8 %79 to i32
  %81 = sext i32 %80 to i64
  %82 = add nsw i64 %76, %81
  %83 = sub nsw i64 %82, 48
  br label %85

84:                                               ; preds = %70, %65
  br label %105

85:                                               ; preds = %75
  %86 = mul nsw i64 %83, %.03
  %87 = sitofp i64 %86 to double
  %88 = call double @_ZSt3powIiiEN9__gnu_cxx11__promote_2IT_T0_NS0_9__promoteIS2_Xsr3std12__is_integerIS2_EE7__valueEE6__typeENS4_IS3_Xsr3std12__is_integerIS3_EE7__valueEE6__typeEE6__typeES2_S3_(i32 2, i32 31)
  %89 = fmul double -1.000000e+00, %88
  %90 = fcmp olt double %87, %89
  br i1 %90, label %91, label %95

91:                                               ; preds = %85
  %92 = call double @_ZSt3powIiiEN9__gnu_cxx11__promote_2IT_T0_NS0_9__promoteIS2_Xsr3std12__is_integerIS2_EE7__valueEE6__typeENS4_IS3_Xsr3std12__is_integerIS3_EE7__valueEE6__typeEE6__typeES2_S3_(i32 2, i32 31)
  %93 = fmul double -1.000000e+00, %92
  %94 = fptosi double %93 to i32
  br label %108

95:                                               ; preds = %85
  %96 = sitofp i64 %86 to double
  %97 = call double @_ZSt3powIiiEN9__gnu_cxx11__promote_2IT_T0_NS0_9__promoteIS2_Xsr3std12__is_integerIS2_EE7__valueEE6__typeENS4_IS3_Xsr3std12__is_integerIS3_EE7__valueEE6__typeEE6__typeES2_S3_(i32 2, i32 31)
  %98 = fsub double %97, 1.000000e+00
  %99 = fcmp ogt double %96, %98
  br i1 %99, label %100, label %104

100:                                              ; preds = %95
  %101 = call double @_ZSt3powIiiEN9__gnu_cxx11__promote_2IT_T0_NS0_9__promoteIS2_Xsr3std12__is_integerIS2_EE7__valueEE6__typeENS4_IS3_Xsr3std12__is_integerIS3_EE7__valueEE6__typeEE6__typeES2_S3_(i32 2, i32 31)
  %102 = fsub double %101, 1.000000e+00
  %103 = fptosi double %102 to i32
  br label %108

104:                                              ; preds = %95
  br label %65

105:                                              ; preds = %84
  %106 = mul nsw i64 %.02, %.03
  %107 = trunc i64 %106 to i32
  br label %108

108:                                              ; preds = %105, %100, %91, %52, %31
  %.0 = phi i32 [ %94, %91 ], [ %103, %100 ], [ %107, %105 ], [ 0, %52 ], [ 0, %31 ]
  ret i32 %.0
}

; Function Attrs: nounwind
declare void @_ZNSaIcEC1Ev(%"class.std::allocator"*) unnamed_addr #2

declare void @_ZNSt7__cxx1112basic_stringIcSt11char_traitsIcESaIcEEC1EPKcRKS3_(%"class.std::__cxx11::basic_string"*, i8*, %"class.std::allocator"* dereferenceable(1)) unnamed_addr #1

declare i32 @__gxx_personality_v0(...)

; Function Attrs: nounwind
declare void @_ZNSt7__cxx1112basic_stringIcSt11char_traitsIcESaIcEED1Ev(%"class.std::__cxx11::basic_string"*) unnamed_addr #2

; Function Attrs: nounwind
declare void @_ZNSaIcED1Ev(%"class.std::allocator"*) unnamed_addr #2

declare dereferenceable(272) %"class.std::basic_ostream"* @_ZNSolsEi(%"class.std::basic_ostream"*, i32) #1

declare dereferenceable(1) i8* @_ZNSt7__cxx1112basic_stringIcSt11char_traitsIcESaIcEEixEm(%"class.std::__cxx11::basic_string"*, i64) #1

; Function Attrs: noinline nounwind uwtable
define linkonce_odr double @_ZSt3powIiiEN9__gnu_cxx11__promote_2IT_T0_NS0_9__promoteIS2_Xsr3std12__is_integerIS2_EE7__valueEE6__typeENS4_IS3_Xsr3std12__is_integerIS3_EE7__valueEE6__typeEE6__typeES2_S3_(i32 %0, i32 %1) #5 comdat {
  %3 = sitofp i32 %0 to double
  %4 = sitofp i32 %1 to double
  %5 = call double @pow(double %3, double %4) #3
  ret double %5
}

; Function Attrs: nounwind
declare double @pow(double, double) #2

; Function Attrs: noinline uwtable
define internal void @_GLOBAL__sub_I_String_To_Integer.cpp() #0 section ".text.startup" {
  call void @__cxx_global_var_init()
  ret void
}

attributes #0 = { noinline uwtable "correctly-rounded-divide-sqrt-fp-math"="false" "disable-tail-calls"="false" "less-precise-fpmad"="false" "no-frame-pointer-elim"="true" "no-frame-pointer-elim-non-leaf" "no-infs-fp-math"="false" "no-jump-tables"="false" "no-nans-fp-math"="false" "no-signed-zeros-fp-math"="false" "no-trapping-math"="false" "stack-protector-buffer-size"="8" "target-cpu"="x86-64" "target-features"="+fxsr,+mmx,+sse,+sse2,+x87" "unsafe-fp-math"="false" "use-soft-float"="false" }
attributes #1 = { "correctly-rounded-divide-sqrt-fp-math"="false" "disable-tail-calls"="false" "less-precise-fpmad"="false" "no-frame-pointer-elim"="true" "no-frame-pointer-elim-non-leaf" "no-infs-fp-math"="false" "no-nans-fp-math"="false" "no-signed-zeros-fp-math"="false" "no-trapping-math"="false" "stack-protector-buffer-size"="8" "target-cpu"="x86-64" "target-features"="+fxsr,+mmx,+sse,+sse2,+x87" "unsafe-fp-math"="false" "use-soft-float"="false" }
attributes #2 = { nounwind "correctly-rounded-divide-sqrt-fp-math"="false" "disable-tail-calls"="false" "less-precise-fpmad"="false" "no-frame-pointer-elim"="true" "no-frame-pointer-elim-non-leaf" "no-infs-fp-math"="false" "no-nans-fp-math"="false" "no-signed-zeros-fp-math"="false" "no-trapping-math"="false" "stack-protector-buffer-size"="8" "target-cpu"="x86-64" "target-features"="+fxsr,+mmx,+sse,+sse2,+x87" "unsafe-fp-math"="false" "use-soft-float"="false" }
attributes #3 = { nounwind }
attributes #4 = { noinline norecurse uwtable "correctly-rounded-divide-sqrt-fp-math"="false" "disable-tail-calls"="false" "less-precise-fpmad"="false" "no-frame-pointer-elim"="true" "no-frame-pointer-elim-non-leaf" "no-infs-fp-math"="false" "no-jump-tables"="false" "no-nans-fp-math"="false" "no-signed-zeros-fp-math"="false" "no-trapping-math"="false" "stack-protector-buffer-size"="8" "target-cpu"="x86-64" "target-features"="+fxsr,+mmx,+sse,+sse2,+x87" "unsafe-fp-math"="false" "use-soft-float"="false" }
attributes #5 = { noinline nounwind uwtable "correctly-rounded-divide-sqrt-fp-math"="false" "disable-tail-calls"="false" "less-precise-fpmad"="false" "no-frame-pointer-elim"="true" "no-frame-pointer-elim-non-leaf" "no-infs-fp-math"="false" "no-jump-tables"="false" "no-nans-fp-math"="false" "no-signed-zeros-fp-math"="false" "no-trapping-math"="false" "stack-protector-buffer-size"="8" "target-cpu"="x86-64" "target-features"="+fxsr,+mmx,+sse,+sse2,+x87" "unsafe-fp-math"="false" "use-soft-float"="false" }

!llvm.module.flags = !{!0}
!llvm.ident = !{!1}

!0 = !{i32 1, !"wchar_size", i32 4}
!1 = !{!"clang version 6.0.0-1ubuntu2 (tags/RELEASE_600/final)"}
